
bin/main.elf:     file format elf32-littlearm


Disassembly of section .text:

0800c000 <main>:
 800c000:	b508      	push	{r3, lr}
 800c002:	f007 fac7 	bl	8013594 <_Z9osd_setupv>
 800c006:	f007 fe17 	bl	8013c38 <_Z16create_draw_taskv>
 800c00a:	f005 fe4b 	bl	8011ca4 <vTaskStartScheduler>
 800c00e:	2000      	movs	r0, #0
 800c010:	bd08      	pop	{r3, pc}
 800c012:	bf00      	nop

0800c014 <_ZN4quan3uav3osd7on_drawEv>:
 800c014:	b500      	push	{lr}
 800c016:	2300      	movs	r3, #0
 800c018:	b083      	sub	sp, #12
 800c01a:	f06f 023b 	mvn.w	r2, #59	; 0x3b
 800c01e:	4618      	mov	r0, r3
 800c020:	e88d 000c 	stmia.w	sp, {r2, r3}
 800c024:	f003 fc54 	bl	800f8d0 <_ZN4quan3uav3osd8get_fontEm>
 800c028:	4602      	mov	r2, r0
 800c02a:	f645 40e4 	movw	r0, #23780	; 0x5ce4
 800c02e:	f6c0 0001 	movt	r0, #2049	; 0x801
 800c032:	4669      	mov	r1, sp
 800c034:	f005 fc7e 	bl	8011934 <_ZN4quan3uav3osd9draw_textEPKcRKNS_5two_d4vectIlEEPKNS1_10basic_fontE>
 800c038:	b003      	add	sp, #12
 800c03a:	bd00      	pop	{pc}

0800c03c <_ZN4quan3uav3osd12basic_bitmapD1Ev>:
 800c03c:	4b01      	ldr	r3, [pc, #4]	; (800c044 <_ZN4quan3uav3osd12basic_bitmapD1Ev+0x8>)
 800c03e:	6003      	str	r3, [r0, #0]
 800c040:	4770      	bx	lr
 800c042:	bf00      	nop
 800c044:	08015cf8 	.word	0x08015cf8

0800c048 <_ZN4quan3uav3osd10basic_fontD1Ev>:
 800c048:	4b01      	ldr	r3, [pc, #4]	; (800c050 <_ZN4quan3uav3osd10basic_fontD1Ev+0x8>)
 800c04a:	6003      	str	r3, [r0, #0]
 800c04c:	4770      	bx	lr
 800c04e:	bf00      	nop
 800c050:	08015d10 	.word	0x08015d10

0800c054 <_ZNK12_GLOBAL__N_123font_OSD_Charset_0_type8get_dataEv>:
 800c054:	f646 0018 	movw	r0, #26648	; 0x6818
 800c058:	f6c0 0001 	movt	r0, #2049	; 0x801
 800c05c:	4770      	bx	lr
 800c05e:	bf00      	nop

0800c060 <_ZNK12_GLOBAL__N_123font_OSD_Charset_0_type8get_sizeEv>:
 800c060:	210c      	movs	r1, #12
 800c062:	2212      	movs	r2, #18
 800c064:	e880 0006 	stmia.w	r0, {r1, r2}
 800c068:	4770      	bx	lr
 800c06a:	bf00      	nop

0800c06c <_ZNK12_GLOBAL__N_123font_OSD_Charset_1_type8get_dataEv>:
 800c06c:	f64a 2058 	movw	r0, #43608	; 0xaa58
 800c070:	f6c0 0001 	movt	r0, #2049	; 0x801
 800c074:	4770      	bx	lr
 800c076:	bf00      	nop

0800c078 <_ZNK12_GLOBAL__N_123font_OSD_Charset_1_type8get_sizeEv>:
 800c078:	220c      	movs	r2, #12
 800c07a:	f04f 0c12 	mov.w	ip, #18
 800c07e:	e880 1004 	stmia.w	r0, {r2, ip}
 800c082:	4770      	bx	lr

0800c084 <_ZNK12_GLOBAL__N_123font_OSD_Charset_2_type8get_dataEv>:
 800c084:	f647 10a8 	movw	r0, #31144	; 0x79a8
 800c088:	f6c0 0001 	movt	r0, #2049	; 0x801
 800c08c:	4770      	bx	lr
 800c08e:	bf00      	nop

0800c090 <_ZNK12_GLOBAL__N_123font_OSD_Charset_2_type8get_sizeEv>:
 800c090:	210c      	movs	r1, #12
 800c092:	2212      	movs	r2, #18
 800c094:	e880 0006 	stmia.w	r0, {r1, r2}
 800c098:	4770      	bx	lr
 800c09a:	bf00      	nop

0800c09c <_ZNK12_GLOBAL__N_123font_OSD_Charset_3_type8get_dataEv>:
 800c09c:	f246 7098 	movw	r0, #26520	; 0x6798
 800c0a0:	f6c0 0001 	movt	r0, #2049	; 0x801
 800c0a4:	4770      	bx	lr
 800c0a6:	bf00      	nop

0800c0a8 <_ZNK12_GLOBAL__N_123font_OSD_Charset_3_type8get_sizeEv>:
 800c0a8:	220c      	movs	r2, #12
 800c0aa:	f04f 0c12 	mov.w	ip, #18
 800c0ae:	e880 1004 	stmia.w	r0, {r2, ip}
 800c0b2:	4770      	bx	lr

0800c0b4 <_ZNK12_GLOBAL__N_123font_OSD_Charset_4_type8get_dataEv>:
 800c0b4:	f64a 1060 	movw	r0, #43360	; 0xa960
 800c0b8:	f6c0 0001 	movt	r0, #2049	; 0x801
 800c0bc:	4770      	bx	lr
 800c0be:	bf00      	nop

0800c0c0 <_ZNK12_GLOBAL__N_123font_OSD_Charset_4_type8get_sizeEv>:
 800c0c0:	210c      	movs	r1, #12
 800c0c2:	2212      	movs	r2, #18
 800c0c4:	e880 0006 	stmia.w	r0, {r1, r2}
 800c0c8:	4770      	bx	lr
 800c0ca:	bf00      	nop

0800c0cc <_ZNK12_GLOBAL__N_123font_OSD_Charset_5_type8get_dataEv>:
 800c0cc:	f647 7068 	movw	r0, #32616	; 0x7f68
 800c0d0:	f6c0 0001 	movt	r0, #2049	; 0x801
 800c0d4:	4770      	bx	lr
 800c0d6:	bf00      	nop

0800c0d8 <_ZNK12_GLOBAL__N_123font_OSD_Charset_5_type8get_sizeEv>:
 800c0d8:	220c      	movs	r2, #12
 800c0da:	f04f 0c12 	mov.w	ip, #18
 800c0de:	e880 1004 	stmia.w	r0, {r2, ip}
 800c0e2:	4770      	bx	lr

0800c0e4 <_ZNK12_GLOBAL__N_123font_OSD_Charset_6_type8get_dataEv>:
 800c0e4:	f248 1028 	movw	r0, #33064	; 0x8128
 800c0e8:	f6c0 0001 	movt	r0, #2049	; 0x801
 800c0ec:	4770      	bx	lr
 800c0ee:	bf00      	nop

0800c0f0 <_ZNK12_GLOBAL__N_123font_OSD_Charset_6_type8get_sizeEv>:
 800c0f0:	210c      	movs	r1, #12
 800c0f2:	2212      	movs	r2, #18
 800c0f4:	e880 0006 	stmia.w	r0, {r1, r2}
 800c0f8:	4770      	bx	lr
 800c0fa:	bf00      	nop

0800c0fc <_ZNK12_GLOBAL__N_123font_OSD_Charset_7_type8get_dataEv>:
 800c0fc:	f64a 1028 	movw	r0, #43304	; 0xa928
 800c100:	f6c0 0001 	movt	r0, #2049	; 0x801
 800c104:	4770      	bx	lr
 800c106:	bf00      	nop

0800c108 <_ZNK12_GLOBAL__N_123font_OSD_Charset_7_type8get_sizeEv>:
 800c108:	220c      	movs	r2, #12
 800c10a:	f04f 0c12 	mov.w	ip, #18
 800c10e:	e880 1004 	stmia.w	r0, {r2, ip}
 800c112:	4770      	bx	lr

0800c114 <_ZNK12_GLOBAL__N_123font_OSD_Charset_8_type8get_dataEv>:
 800c114:	f249 6040 	movw	r0, #38464	; 0x9640
 800c118:	f6c0 0001 	movt	r0, #2049	; 0x801
 800c11c:	4770      	bx	lr
 800c11e:	bf00      	nop

0800c120 <_ZNK12_GLOBAL__N_123font_OSD_Charset_8_type8get_sizeEv>:
 800c120:	210c      	movs	r1, #12
 800c122:	2212      	movs	r2, #18
 800c124:	e880 0006 	stmia.w	r0, {r1, r2}
 800c128:	4770      	bx	lr
 800c12a:	bf00      	nop

0800c12c <_ZNK12_GLOBAL__N_123font_OSD_Charset_9_type8get_dataEv>:
 800c12c:	f248 0030 	movw	r0, #32816	; 0x8030
 800c130:	f6c0 0001 	movt	r0, #2049	; 0x801
 800c134:	4770      	bx	lr
 800c136:	bf00      	nop

0800c138 <_ZNK12_GLOBAL__N_123font_OSD_Charset_9_type8get_sizeEv>:
 800c138:	220c      	movs	r2, #12
 800c13a:	f04f 0c12 	mov.w	ip, #18
 800c13e:	e880 1004 	stmia.w	r0, {r2, ip}
 800c142:	4770      	bx	lr

0800c144 <_ZNK12_GLOBAL__N_124font_OSD_Charset_10_type8get_dataEv>:
 800c144:	f647 5030 	movw	r0, #32048	; 0x7d30
 800c148:	f6c0 0001 	movt	r0, #2049	; 0x801
 800c14c:	4770      	bx	lr
 800c14e:	bf00      	nop

0800c150 <_ZNK12_GLOBAL__N_124font_OSD_Charset_10_type8get_sizeEv>:
 800c150:	210c      	movs	r1, #12
 800c152:	2212      	movs	r2, #18
 800c154:	e880 0006 	stmia.w	r0, {r1, r2}
 800c158:	4770      	bx	lr
 800c15a:	bf00      	nop

0800c15c <_ZNK12_GLOBAL__N_124font_OSD_Charset_11_type8get_dataEv>:
 800c15c:	f248 0080 	movw	r0, #32896	; 0x8080
 800c160:	f6c0 0001 	movt	r0, #2049	; 0x801
 800c164:	4770      	bx	lr
 800c166:	bf00      	nop

0800c168 <_ZNK12_GLOBAL__N_124font_OSD_Charset_11_type8get_sizeEv>:
 800c168:	220c      	movs	r2, #12
 800c16a:	f04f 0c12 	mov.w	ip, #18
 800c16e:	e880 1004 	stmia.w	r0, {r2, ip}
 800c172:	4770      	bx	lr

0800c174 <_ZNK12_GLOBAL__N_124font_OSD_Charset_12_type8get_dataEv>:
 800c174:	f248 00f0 	movw	r0, #33008	; 0x80f0
 800c178:	f6c0 0001 	movt	r0, #2049	; 0x801
 800c17c:	4770      	bx	lr
 800c17e:	bf00      	nop

0800c180 <_ZNK12_GLOBAL__N_124font_OSD_Charset_12_type8get_sizeEv>:
 800c180:	210c      	movs	r1, #12
 800c182:	2212      	movs	r2, #18
 800c184:	e880 0006 	stmia.w	r0, {r1, r2}
 800c188:	4770      	bx	lr
 800c18a:	bf00      	nop

0800c18c <_ZNK12_GLOBAL__N_124font_OSD_Charset_13_type8get_dataEv>:
 800c18c:	f646 1068 	movw	r0, #26984	; 0x6968
 800c190:	f6c0 0001 	movt	r0, #2049	; 0x801
 800c194:	4770      	bx	lr
 800c196:	bf00      	nop

0800c198 <_ZNK12_GLOBAL__N_124font_OSD_Charset_13_type8get_sizeEv>:
 800c198:	220c      	movs	r2, #12
 800c19a:	f04f 0c12 	mov.w	ip, #18
 800c19e:	e880 1004 	stmia.w	r0, {r2, ip}
 800c1a2:	4770      	bx	lr

0800c1a4 <_ZNK12_GLOBAL__N_124font_OSD_Charset_14_type8get_dataEv>:
 800c1a4:	f649 5070 	movw	r0, #40304	; 0x9d70
 800c1a8:	f6c0 0001 	movt	r0, #2049	; 0x801
 800c1ac:	4770      	bx	lr
 800c1ae:	bf00      	nop

0800c1b0 <_ZNK12_GLOBAL__N_124font_OSD_Charset_14_type8get_sizeEv>:
 800c1b0:	210c      	movs	r1, #12
 800c1b2:	2212      	movs	r2, #18
 800c1b4:	e880 0006 	stmia.w	r0, {r1, r2}
 800c1b8:	4770      	bx	lr
 800c1ba:	bf00      	nop

0800c1bc <_ZNK12_GLOBAL__N_124font_OSD_Charset_15_type8get_dataEv>:
 800c1bc:	f248 7090 	movw	r0, #34704	; 0x8790
 800c1c0:	f6c0 0001 	movt	r0, #2049	; 0x801
 800c1c4:	4770      	bx	lr
 800c1c6:	bf00      	nop

0800c1c8 <_ZNK12_GLOBAL__N_124font_OSD_Charset_15_type8get_sizeEv>:
 800c1c8:	220c      	movs	r2, #12
 800c1ca:	f04f 0c12 	mov.w	ip, #18
 800c1ce:	e880 1004 	stmia.w	r0, {r2, ip}
 800c1d2:	4770      	bx	lr

0800c1d4 <_ZNK12_GLOBAL__N_124font_OSD_Charset_16_type8get_dataEv>:
 800c1d4:	f646 2020 	movw	r0, #27168	; 0x6a20
 800c1d8:	f6c0 0001 	movt	r0, #2049	; 0x801
 800c1dc:	4770      	bx	lr
 800c1de:	bf00      	nop

0800c1e0 <_ZNK12_GLOBAL__N_124font_OSD_Charset_16_type8get_sizeEv>:
 800c1e0:	210c      	movs	r1, #12
 800c1e2:	2212      	movs	r2, #18
 800c1e4:	e880 0006 	stmia.w	r0, {r1, r2}
 800c1e8:	4770      	bx	lr
 800c1ea:	bf00      	nop

0800c1ec <_ZNK12_GLOBAL__N_124font_OSD_Charset_17_type8get_dataEv>:
 800c1ec:	f246 2028 	movw	r0, #25128	; 0x6228
 800c1f0:	f6c0 0001 	movt	r0, #2049	; 0x801
 800c1f4:	4770      	bx	lr
 800c1f6:	bf00      	nop

0800c1f8 <_ZNK12_GLOBAL__N_124font_OSD_Charset_17_type8get_sizeEv>:
 800c1f8:	220c      	movs	r2, #12
 800c1fa:	f04f 0c12 	mov.w	ip, #18
 800c1fe:	e880 1004 	stmia.w	r0, {r2, ip}
 800c202:	4770      	bx	lr

0800c204 <_ZNK12_GLOBAL__N_124font_OSD_Charset_18_type8get_dataEv>:
 800c204:	f649 50d8 	movw	r0, #40408	; 0x9dd8
 800c208:	f6c0 0001 	movt	r0, #2049	; 0x801
 800c20c:	4770      	bx	lr
 800c20e:	bf00      	nop

0800c210 <_ZNK12_GLOBAL__N_124font_OSD_Charset_18_type8get_sizeEv>:
 800c210:	210c      	movs	r1, #12
 800c212:	2212      	movs	r2, #18
 800c214:	e880 0006 	stmia.w	r0, {r1, r2}
 800c218:	4770      	bx	lr
 800c21a:	bf00      	nop

0800c21c <_ZNK12_GLOBAL__N_124font_OSD_Charset_19_type8get_dataEv>:
 800c21c:	f247 4040 	movw	r0, #29760	; 0x7440
 800c220:	f6c0 0001 	movt	r0, #2049	; 0x801
 800c224:	4770      	bx	lr
 800c226:	bf00      	nop

0800c228 <_ZNK12_GLOBAL__N_124font_OSD_Charset_19_type8get_sizeEv>:
 800c228:	220c      	movs	r2, #12
 800c22a:	f04f 0c12 	mov.w	ip, #18
 800c22e:	e880 1004 	stmia.w	r0, {r2, ip}
 800c232:	4770      	bx	lr

0800c234 <_ZNK12_GLOBAL__N_124font_OSD_Charset_20_type8get_dataEv>:
 800c234:	f247 6090 	movw	r0, #30352	; 0x7690
 800c238:	f6c0 0001 	movt	r0, #2049	; 0x801
 800c23c:	4770      	bx	lr
 800c23e:	bf00      	nop

0800c240 <_ZNK12_GLOBAL__N_124font_OSD_Charset_20_type8get_sizeEv>:
 800c240:	210c      	movs	r1, #12
 800c242:	2212      	movs	r2, #18
 800c244:	e880 0006 	stmia.w	r0, {r1, r2}
 800c248:	4770      	bx	lr
 800c24a:	bf00      	nop

0800c24c <_ZNK12_GLOBAL__N_124font_OSD_Charset_21_type8get_dataEv>:
 800c24c:	f647 10f8 	movw	r0, #31224	; 0x79f8
 800c250:	f6c0 0001 	movt	r0, #2049	; 0x801
 800c254:	4770      	bx	lr
 800c256:	bf00      	nop

0800c258 <_ZNK12_GLOBAL__N_124font_OSD_Charset_21_type8get_sizeEv>:
 800c258:	220c      	movs	r2, #12
 800c25a:	f04f 0c12 	mov.w	ip, #18
 800c25e:	e880 1004 	stmia.w	r0, {r2, ip}
 800c262:	4770      	bx	lr

0800c264 <_ZNK12_GLOBAL__N_124font_OSD_Charset_22_type8get_dataEv>:
 800c264:	f24a 1018 	movw	r0, #41240	; 0xa118
 800c268:	f6c0 0001 	movt	r0, #2049	; 0x801
 800c26c:	4770      	bx	lr
 800c26e:	bf00      	nop

0800c270 <_ZNK12_GLOBAL__N_124font_OSD_Charset_22_type8get_sizeEv>:
 800c270:	210c      	movs	r1, #12
 800c272:	2212      	movs	r2, #18
 800c274:	e880 0006 	stmia.w	r0, {r1, r2}
 800c278:	4770      	bx	lr
 800c27a:	bf00      	nop

0800c27c <_ZNK12_GLOBAL__N_124font_OSD_Charset_23_type8get_dataEv>:
 800c27c:	f248 1060 	movw	r0, #33120	; 0x8160
 800c280:	f6c0 0001 	movt	r0, #2049	; 0x801
 800c284:	4770      	bx	lr
 800c286:	bf00      	nop

0800c288 <_ZNK12_GLOBAL__N_124font_OSD_Charset_23_type8get_sizeEv>:
 800c288:	220c      	movs	r2, #12
 800c28a:	f04f 0c12 	mov.w	ip, #18
 800c28e:	e880 1004 	stmia.w	r0, {r2, ip}
 800c292:	4770      	bx	lr

0800c294 <_ZNK12_GLOBAL__N_124font_OSD_Charset_24_type8get_dataEv>:
 800c294:	f247 2010 	movw	r0, #29200	; 0x7210
 800c298:	f6c0 0001 	movt	r0, #2049	; 0x801
 800c29c:	4770      	bx	lr
 800c29e:	bf00      	nop

0800c2a0 <_ZNK12_GLOBAL__N_124font_OSD_Charset_24_type8get_sizeEv>:
 800c2a0:	210c      	movs	r1, #12
 800c2a2:	2212      	movs	r2, #18
 800c2a4:	e880 0006 	stmia.w	r0, {r1, r2}
 800c2a8:	4770      	bx	lr
 800c2aa:	bf00      	nop

0800c2ac <_ZNK12_GLOBAL__N_124font_OSD_Charset_25_type8get_dataEv>:
 800c2ac:	f649 2030 	movw	r0, #39472	; 0x9a30
 800c2b0:	f6c0 0001 	movt	r0, #2049	; 0x801
 800c2b4:	4770      	bx	lr
 800c2b6:	bf00      	nop

0800c2b8 <_ZNK12_GLOBAL__N_124font_OSD_Charset_25_type8get_sizeEv>:
 800c2b8:	220c      	movs	r2, #12
 800c2ba:	f04f 0c12 	mov.w	ip, #18
 800c2be:	e880 1004 	stmia.w	r0, {r2, ip}
 800c2c2:	4770      	bx	lr

0800c2c4 <_ZNK12_GLOBAL__N_124font_OSD_Charset_26_type8get_dataEv>:
 800c2c4:	f248 40a8 	movw	r0, #33960	; 0x84a8
 800c2c8:	f6c0 0001 	movt	r0, #2049	; 0x801
 800c2cc:	4770      	bx	lr
 800c2ce:	bf00      	nop

0800c2d0 <_ZNK12_GLOBAL__N_124font_OSD_Charset_26_type8get_sizeEv>:
 800c2d0:	210c      	movs	r1, #12
 800c2d2:	2212      	movs	r2, #18
 800c2d4:	e880 0006 	stmia.w	r0, {r1, r2}
 800c2d8:	4770      	bx	lr
 800c2da:	bf00      	nop

0800c2dc <_ZNK12_GLOBAL__N_124font_OSD_Charset_27_type8get_dataEv>:
 800c2dc:	f247 1088 	movw	r0, #29064	; 0x7188
 800c2e0:	f6c0 0001 	movt	r0, #2049	; 0x801
 800c2e4:	4770      	bx	lr
 800c2e6:	bf00      	nop

0800c2e8 <_ZNK12_GLOBAL__N_124font_OSD_Charset_27_type8get_sizeEv>:
 800c2e8:	220c      	movs	r2, #12
 800c2ea:	f04f 0c12 	mov.w	ip, #18
 800c2ee:	e880 1004 	stmia.w	r0, {r2, ip}
 800c2f2:	4770      	bx	lr

0800c2f4 <_ZNK12_GLOBAL__N_124font_OSD_Charset_28_type8get_dataEv>:
 800c2f4:	f646 20a0 	movw	r0, #27296	; 0x6aa0
 800c2f8:	f6c0 0001 	movt	r0, #2049	; 0x801
 800c2fc:	4770      	bx	lr
 800c2fe:	bf00      	nop

0800c300 <_ZNK12_GLOBAL__N_124font_OSD_Charset_28_type8get_sizeEv>:
 800c300:	210c      	movs	r1, #12
 800c302:	2212      	movs	r2, #18
 800c304:	e880 0006 	stmia.w	r0, {r1, r2}
 800c308:	4770      	bx	lr
 800c30a:	bf00      	nop

0800c30c <_ZNK12_GLOBAL__N_124font_OSD_Charset_29_type8get_dataEv>:
 800c30c:	f248 1098 	movw	r0, #33176	; 0x8198
 800c310:	f6c0 0001 	movt	r0, #2049	; 0x801
 800c314:	4770      	bx	lr
 800c316:	bf00      	nop

0800c318 <_ZNK12_GLOBAL__N_124font_OSD_Charset_29_type8get_sizeEv>:
 800c318:	220c      	movs	r2, #12
 800c31a:	f04f 0c12 	mov.w	ip, #18
 800c31e:	e880 1004 	stmia.w	r0, {r2, ip}
 800c322:	4770      	bx	lr

0800c324 <_ZNK12_GLOBAL__N_124font_OSD_Charset_30_type8get_dataEv>:
 800c324:	f24a 1088 	movw	r0, #41352	; 0xa188
 800c328:	f6c0 0001 	movt	r0, #2049	; 0x801
 800c32c:	4770      	bx	lr
 800c32e:	bf00      	nop

0800c330 <_ZNK12_GLOBAL__N_124font_OSD_Charset_30_type8get_sizeEv>:
 800c330:	210c      	movs	r1, #12
 800c332:	2212      	movs	r2, #18
 800c334:	e880 0006 	stmia.w	r0, {r1, r2}
 800c338:	4770      	bx	lr
 800c33a:	bf00      	nop

0800c33c <_ZNK12_GLOBAL__N_124font_OSD_Charset_31_type8get_dataEv>:
 800c33c:	f24a 0070 	movw	r0, #41072	; 0xa070
 800c340:	f6c0 0001 	movt	r0, #2049	; 0x801
 800c344:	4770      	bx	lr
 800c346:	bf00      	nop

0800c348 <_ZNK12_GLOBAL__N_124font_OSD_Charset_31_type8get_sizeEv>:
 800c348:	220c      	movs	r2, #12
 800c34a:	f04f 0c12 	mov.w	ip, #18
 800c34e:	e880 1004 	stmia.w	r0, {r2, ip}
 800c352:	4770      	bx	lr

0800c354 <_ZNK12_GLOBAL__N_124font_OSD_Charset_32_type8get_dataEv>:
 800c354:	f645 50b8 	movw	r0, #23992	; 0x5db8
 800c358:	f6c0 0001 	movt	r0, #2049	; 0x801
 800c35c:	4770      	bx	lr
 800c35e:	bf00      	nop

0800c360 <_ZNK12_GLOBAL__N_124font_OSD_Charset_32_type8get_sizeEv>:
 800c360:	210c      	movs	r1, #12
 800c362:	2212      	movs	r2, #18
 800c364:	e880 0006 	stmia.w	r0, {r1, r2}
 800c368:	4770      	bx	lr
 800c36a:	bf00      	nop

0800c36c <_ZNK12_GLOBAL__N_124font_OSD_Charset_33_type8get_dataEv>:
 800c36c:	f647 2030 	movw	r0, #31280	; 0x7a30
 800c370:	f6c0 0001 	movt	r0, #2049	; 0x801
 800c374:	4770      	bx	lr
 800c376:	bf00      	nop

0800c378 <_ZNK12_GLOBAL__N_124font_OSD_Charset_33_type8get_sizeEv>:
 800c378:	220c      	movs	r2, #12
 800c37a:	f04f 0c12 	mov.w	ip, #18
 800c37e:	e880 1004 	stmia.w	r0, {r2, ip}
 800c382:	4770      	bx	lr

0800c384 <_ZNK12_GLOBAL__N_124font_OSD_Charset_34_type8get_dataEv>:
 800c384:	f647 6000 	movw	r0, #32256	; 0x7e00
 800c388:	f6c0 0001 	movt	r0, #2049	; 0x801
 800c38c:	4770      	bx	lr
 800c38e:	bf00      	nop

0800c390 <_ZNK12_GLOBAL__N_124font_OSD_Charset_34_type8get_sizeEv>:
 800c390:	210c      	movs	r1, #12
 800c392:	2212      	movs	r2, #18
 800c394:	e880 0006 	stmia.w	r0, {r1, r2}
 800c398:	4770      	bx	lr
 800c39a:	bf00      	nop

0800c39c <_ZNK12_GLOBAL__N_124font_OSD_Charset_35_type8get_dataEv>:
 800c39c:	f646 7040 	movw	r0, #28480	; 0x6f40
 800c3a0:	f6c0 0001 	movt	r0, #2049	; 0x801
 800c3a4:	4770      	bx	lr
 800c3a6:	bf00      	nop

0800c3a8 <_ZNK12_GLOBAL__N_124font_OSD_Charset_35_type8get_sizeEv>:
 800c3a8:	220c      	movs	r2, #12
 800c3aa:	f04f 0c12 	mov.w	ip, #18
 800c3ae:	e880 1004 	stmia.w	r0, {r2, ip}
 800c3b2:	4770      	bx	lr

0800c3b4 <_ZNK12_GLOBAL__N_124font_OSD_Charset_36_type8get_dataEv>:
 800c3b4:	f24b 00d0 	movw	r0, #45264	; 0xb0d0
 800c3b8:	f6c0 0001 	movt	r0, #2049	; 0x801
 800c3bc:	4770      	bx	lr
 800c3be:	bf00      	nop

0800c3c0 <_ZNK12_GLOBAL__N_124font_OSD_Charset_36_type8get_sizeEv>:
 800c3c0:	210c      	movs	r1, #12
 800c3c2:	2212      	movs	r2, #18
 800c3c4:	e880 0006 	stmia.w	r0, {r1, r2}
 800c3c8:	4770      	bx	lr
 800c3ca:	bf00      	nop

0800c3cc <_ZNK12_GLOBAL__N_124font_OSD_Charset_37_type8get_dataEv>:
 800c3cc:	f246 1020 	movw	r0, #24864	; 0x6120
 800c3d0:	f6c0 0001 	movt	r0, #2049	; 0x801
 800c3d4:	4770      	bx	lr
 800c3d6:	bf00      	nop

0800c3d8 <_ZNK12_GLOBAL__N_124font_OSD_Charset_37_type8get_sizeEv>:
 800c3d8:	220c      	movs	r2, #12
 800c3da:	f04f 0c12 	mov.w	ip, #18
 800c3de:	e880 1004 	stmia.w	r0, {r2, ip}
 800c3e2:	4770      	bx	lr

0800c3e4 <_ZNK12_GLOBAL__N_124font_OSD_Charset_38_type8get_dataEv>:
 800c3e4:	f646 6018 	movw	r0, #28184	; 0x6e18
 800c3e8:	f6c0 0001 	movt	r0, #2049	; 0x801
 800c3ec:	4770      	bx	lr
 800c3ee:	bf00      	nop

0800c3f0 <_ZNK12_GLOBAL__N_124font_OSD_Charset_38_type8get_sizeEv>:
 800c3f0:	210c      	movs	r1, #12
 800c3f2:	2212      	movs	r2, #18
 800c3f4:	e880 0006 	stmia.w	r0, {r1, r2}
 800c3f8:	4770      	bx	lr
 800c3fa:	bf00      	nop

0800c3fc <_ZNK12_GLOBAL__N_124font_OSD_Charset_39_type8get_dataEv>:
 800c3fc:	f64a 70f8 	movw	r0, #45048	; 0xaff8
 800c400:	f6c0 0001 	movt	r0, #2049	; 0x801
 800c404:	4770      	bx	lr
 800c406:	bf00      	nop

0800c408 <_ZNK12_GLOBAL__N_124font_OSD_Charset_39_type8get_sizeEv>:
 800c408:	220c      	movs	r2, #12
 800c40a:	f04f 0c12 	mov.w	ip, #18
 800c40e:	e880 1004 	stmia.w	r0, {r2, ip}
 800c412:	4770      	bx	lr

0800c414 <_ZNK12_GLOBAL__N_124font_OSD_Charset_40_type8get_dataEv>:
 800c414:	f646 60a0 	movw	r0, #28320	; 0x6ea0
 800c418:	f6c0 0001 	movt	r0, #2049	; 0x801
 800c41c:	4770      	bx	lr
 800c41e:	bf00      	nop

0800c420 <_ZNK12_GLOBAL__N_124font_OSD_Charset_40_type8get_sizeEv>:
 800c420:	210c      	movs	r1, #12
 800c422:	2212      	movs	r2, #18
 800c424:	e880 0006 	stmia.w	r0, {r1, r2}
 800c428:	4770      	bx	lr
 800c42a:	bf00      	nop

0800c42c <_ZNK12_GLOBAL__N_124font_OSD_Charset_41_type8get_dataEv>:
 800c42c:	f649 1010 	movw	r0, #39184	; 0x9910
 800c430:	f6c0 0001 	movt	r0, #2049	; 0x801
 800c434:	4770      	bx	lr
 800c436:	bf00      	nop

0800c438 <_ZNK12_GLOBAL__N_124font_OSD_Charset_41_type8get_sizeEv>:
 800c438:	220c      	movs	r2, #12
 800c43a:	f04f 0c12 	mov.w	ip, #18
 800c43e:	e880 1004 	stmia.w	r0, {r2, ip}
 800c442:	4770      	bx	lr

0800c444 <_ZNK12_GLOBAL__N_124font_OSD_Charset_42_type8get_dataEv>:
 800c444:	f649 40c8 	movw	r0, #40136	; 0x9cc8
 800c448:	f6c0 0001 	movt	r0, #2049	; 0x801
 800c44c:	4770      	bx	lr
 800c44e:	bf00      	nop

0800c450 <_ZNK12_GLOBAL__N_124font_OSD_Charset_42_type8get_sizeEv>:
 800c450:	210c      	movs	r1, #12
 800c452:	2212      	movs	r2, #18
 800c454:	e880 0006 	stmia.w	r0, {r1, r2}
 800c458:	4770      	bx	lr
 800c45a:	bf00      	nop

0800c45c <_ZNK12_GLOBAL__N_124font_OSD_Charset_43_type8get_dataEv>:
 800c45c:	f648 2078 	movw	r0, #35448	; 0x8a78
 800c460:	f6c0 0001 	movt	r0, #2049	; 0x801
 800c464:	4770      	bx	lr
 800c466:	bf00      	nop

0800c468 <_ZNK12_GLOBAL__N_124font_OSD_Charset_43_type8get_sizeEv>:
 800c468:	220c      	movs	r2, #12
 800c46a:	f04f 0c12 	mov.w	ip, #18
 800c46e:	e880 1004 	stmia.w	r0, {r2, ip}
 800c472:	4770      	bx	lr

0800c474 <_ZNK12_GLOBAL__N_124font_OSD_Charset_44_type8get_dataEv>:
 800c474:	f648 70f8 	movw	r0, #36856	; 0x8ff8
 800c478:	f6c0 0001 	movt	r0, #2049	; 0x801
 800c47c:	4770      	bx	lr
 800c47e:	bf00      	nop

0800c480 <_ZNK12_GLOBAL__N_124font_OSD_Charset_44_type8get_sizeEv>:
 800c480:	210c      	movs	r1, #12
 800c482:	2212      	movs	r2, #18
 800c484:	e880 0006 	stmia.w	r0, {r1, r2}
 800c488:	4770      	bx	lr
 800c48a:	bf00      	nop

0800c48c <_ZNK12_GLOBAL__N_124font_OSD_Charset_45_type8get_dataEv>:
 800c48c:	f647 6038 	movw	r0, #32312	; 0x7e38
 800c490:	f6c0 0001 	movt	r0, #2049	; 0x801
 800c494:	4770      	bx	lr
 800c496:	bf00      	nop

0800c498 <_ZNK12_GLOBAL__N_124font_OSD_Charset_45_type8get_sizeEv>:
 800c498:	220c      	movs	r2, #12
 800c49a:	f04f 0c12 	mov.w	ip, #18
 800c49e:	e880 1004 	stmia.w	r0, {r2, ip}
 800c4a2:	4770      	bx	lr

0800c4a4 <_ZNK12_GLOBAL__N_124font_OSD_Charset_46_type8get_dataEv>:
 800c4a4:	f646 4000 	movw	r0, #27648	; 0x6c00
 800c4a8:	f6c0 0001 	movt	r0, #2049	; 0x801
 800c4ac:	4770      	bx	lr
 800c4ae:	bf00      	nop

0800c4b0 <_ZNK12_GLOBAL__N_124font_OSD_Charset_46_type8get_sizeEv>:
 800c4b0:	210c      	movs	r1, #12
 800c4b2:	2212      	movs	r2, #18
 800c4b4:	e880 0006 	stmia.w	r0, {r1, r2}
 800c4b8:	4770      	bx	lr
 800c4ba:	bf00      	nop

0800c4bc <_ZNK12_GLOBAL__N_124font_OSD_Charset_47_type8get_dataEv>:
 800c4bc:	f248 20a0 	movw	r0, #33440	; 0x82a0
 800c4c0:	f6c0 0001 	movt	r0, #2049	; 0x801
 800c4c4:	4770      	bx	lr
 800c4c6:	bf00      	nop

0800c4c8 <_ZNK12_GLOBAL__N_124font_OSD_Charset_47_type8get_sizeEv>:
 800c4c8:	220c      	movs	r2, #12
 800c4ca:	f04f 0c12 	mov.w	ip, #18
 800c4ce:	e880 1004 	stmia.w	r0, {r2, ip}
 800c4d2:	4770      	bx	lr

0800c4d4 <_ZNK12_GLOBAL__N_124font_OSD_Charset_48_type8get_dataEv>:
 800c4d4:	f247 3088 	movw	r0, #29576	; 0x7388
 800c4d8:	f6c0 0001 	movt	r0, #2049	; 0x801
 800c4dc:	4770      	bx	lr
 800c4de:	bf00      	nop

0800c4e0 <_ZNK12_GLOBAL__N_124font_OSD_Charset_48_type8get_sizeEv>:
 800c4e0:	210c      	movs	r1, #12
 800c4e2:	2212      	movs	r2, #18
 800c4e4:	e880 0006 	stmia.w	r0, {r1, r2}
 800c4e8:	4770      	bx	lr
 800c4ea:	bf00      	nop

0800c4ec <_ZNK12_GLOBAL__N_124font_OSD_Charset_49_type8get_dataEv>:
 800c4ec:	f64a 3080 	movw	r0, #43904	; 0xab80
 800c4f0:	f6c0 0001 	movt	r0, #2049	; 0x801
 800c4f4:	4770      	bx	lr
 800c4f6:	bf00      	nop

0800c4f8 <_ZNK12_GLOBAL__N_124font_OSD_Charset_49_type8get_sizeEv>:
 800c4f8:	220c      	movs	r2, #12
 800c4fa:	f04f 0c12 	mov.w	ip, #18
 800c4fe:	e880 1004 	stmia.w	r0, {r2, ip}
 800c502:	4770      	bx	lr

0800c504 <_ZNK12_GLOBAL__N_124font_OSD_Charset_50_type8get_dataEv>:
 800c504:	f246 2078 	movw	r0, #25208	; 0x6278
 800c508:	f6c0 0001 	movt	r0, #2049	; 0x801
 800c50c:	4770      	bx	lr
 800c50e:	bf00      	nop

0800c510 <_ZNK12_GLOBAL__N_124font_OSD_Charset_50_type8get_sizeEv>:
 800c510:	210c      	movs	r1, #12
 800c512:	2212      	movs	r2, #18
 800c514:	e880 0006 	stmia.w	r0, {r1, r2}
 800c518:	4770      	bx	lr
 800c51a:	bf00      	nop

0800c51c <_ZNK12_GLOBAL__N_124font_OSD_Charset_51_type8get_dataEv>:
 800c51c:	f648 6020 	movw	r0, #36384	; 0x8e20
 800c520:	f6c0 0001 	movt	r0, #2049	; 0x801
 800c524:	4770      	bx	lr
 800c526:	bf00      	nop

0800c528 <_ZNK12_GLOBAL__N_124font_OSD_Charset_51_type8get_sizeEv>:
 800c528:	220c      	movs	r2, #12
 800c52a:	f04f 0c12 	mov.w	ip, #18
 800c52e:	e880 1004 	stmia.w	r0, {r2, ip}
 800c532:	4770      	bx	lr

0800c534 <_ZNK12_GLOBAL__N_124font_OSD_Charset_52_type8get_dataEv>:
 800c534:	f249 50f0 	movw	r0, #38384	; 0x95f0
 800c538:	f6c0 0001 	movt	r0, #2049	; 0x801
 800c53c:	4770      	bx	lr
 800c53e:	bf00      	nop

0800c540 <_ZNK12_GLOBAL__N_124font_OSD_Charset_52_type8get_sizeEv>:
 800c540:	210c      	movs	r1, #12
 800c542:	2212      	movs	r2, #18
 800c544:	e880 0006 	stmia.w	r0, {r1, r2}
 800c548:	4770      	bx	lr
 800c54a:	bf00      	nop

0800c54c <_ZNK12_GLOBAL__N_124font_OSD_Charset_53_type8get_dataEv>:
 800c54c:	f649 1090 	movw	r0, #39312	; 0x9990
 800c550:	f6c0 0001 	movt	r0, #2049	; 0x801
 800c554:	4770      	bx	lr
 800c556:	bf00      	nop

0800c558 <_ZNK12_GLOBAL__N_124font_OSD_Charset_53_type8get_sizeEv>:
 800c558:	220c      	movs	r2, #12
 800c55a:	f04f 0c12 	mov.w	ip, #18
 800c55e:	e880 1004 	stmia.w	r0, {r2, ip}
 800c562:	4770      	bx	lr

0800c564 <_ZNK12_GLOBAL__N_124font_OSD_Charset_54_type8get_dataEv>:
 800c564:	f649 5038 	movw	r0, #40248	; 0x9d38
 800c568:	f6c0 0001 	movt	r0, #2049	; 0x801
 800c56c:	4770      	bx	lr
 800c56e:	bf00      	nop

0800c570 <_ZNK12_GLOBAL__N_124font_OSD_Charset_54_type8get_sizeEv>:
 800c570:	210c      	movs	r1, #12
 800c572:	2212      	movs	r2, #18
 800c574:	e880 0006 	stmia.w	r0, {r1, r2}
 800c578:	4770      	bx	lr
 800c57a:	bf00      	nop

0800c57c <_ZNK12_GLOBAL__N_124font_OSD_Charset_55_type8get_dataEv>:
 800c57c:	f64a 30b8 	movw	r0, #43960	; 0xabb8
 800c580:	f6c0 0001 	movt	r0, #2049	; 0x801
 800c584:	4770      	bx	lr
 800c586:	bf00      	nop

0800c588 <_ZNK12_GLOBAL__N_124font_OSD_Charset_55_type8get_sizeEv>:
 800c588:	220c      	movs	r2, #12
 800c58a:	f04f 0c12 	mov.w	ip, #18
 800c58e:	e880 1004 	stmia.w	r0, {r2, ip}
 800c592:	4770      	bx	lr

0800c594 <_ZNK12_GLOBAL__N_124font_OSD_Charset_56_type8get_dataEv>:
 800c594:	f247 7028 	movw	r0, #30504	; 0x7728
 800c598:	f6c0 0001 	movt	r0, #2049	; 0x801
 800c59c:	4770      	bx	lr
 800c59e:	bf00      	nop

0800c5a0 <_ZNK12_GLOBAL__N_124font_OSD_Charset_56_type8get_sizeEv>:
 800c5a0:	210c      	movs	r1, #12
 800c5a2:	2212      	movs	r2, #18
 800c5a4:	e880 0006 	stmia.w	r0, {r1, r2}
 800c5a8:	4770      	bx	lr
 800c5aa:	bf00      	nop

0800c5ac <_ZNK12_GLOBAL__N_124font_OSD_Charset_57_type8get_dataEv>:
 800c5ac:	f646 00c0 	movw	r0, #26816	; 0x68c0
 800c5b0:	f6c0 0001 	movt	r0, #2049	; 0x801
 800c5b4:	4770      	bx	lr
 800c5b6:	bf00      	nop

0800c5b8 <_ZNK12_GLOBAL__N_124font_OSD_Charset_57_type8get_sizeEv>:
 800c5b8:	220c      	movs	r2, #12
 800c5ba:	f04f 0c12 	mov.w	ip, #18
 800c5be:	e880 1004 	stmia.w	r0, {r2, ip}
 800c5c2:	4770      	bx	lr

0800c5c4 <_ZNK12_GLOBAL__N_124font_OSD_Charset_58_type8get_dataEv>:
 800c5c4:	f64a 4058 	movw	r0, #44120	; 0xac58
 800c5c8:	f6c0 0001 	movt	r0, #2049	; 0x801
 800c5cc:	4770      	bx	lr
 800c5ce:	bf00      	nop

0800c5d0 <_ZNK12_GLOBAL__N_124font_OSD_Charset_58_type8get_sizeEv>:
 800c5d0:	210c      	movs	r1, #12
 800c5d2:	2212      	movs	r2, #18
 800c5d4:	e880 0006 	stmia.w	r0, {r1, r2}
 800c5d8:	4770      	bx	lr
 800c5da:	bf00      	nop

0800c5dc <_ZNK12_GLOBAL__N_124font_OSD_Charset_59_type8get_dataEv>:
 800c5dc:	f649 0020 	movw	r0, #38944	; 0x9820
 800c5e0:	f6c0 0001 	movt	r0, #2049	; 0x801
 800c5e4:	4770      	bx	lr
 800c5e6:	bf00      	nop

0800c5e8 <_ZNK12_GLOBAL__N_124font_OSD_Charset_59_type8get_sizeEv>:
 800c5e8:	220c      	movs	r2, #12
 800c5ea:	f04f 0c12 	mov.w	ip, #18
 800c5ee:	e880 1004 	stmia.w	r0, {r2, ip}
 800c5f2:	4770      	bx	lr

0800c5f4 <_ZNK12_GLOBAL__N_124font_OSD_Charset_60_type8get_dataEv>:
 800c5f4:	f24b 0098 	movw	r0, #45208	; 0xb098
 800c5f8:	f6c0 0001 	movt	r0, #2049	; 0x801
 800c5fc:	4770      	bx	lr
 800c5fe:	bf00      	nop

0800c600 <_ZNK12_GLOBAL__N_124font_OSD_Charset_60_type8get_sizeEv>:
 800c600:	210c      	movs	r1, #12
 800c602:	2212      	movs	r2, #18
 800c604:	e880 0006 	stmia.w	r0, {r1, r2}
 800c608:	4770      	bx	lr
 800c60a:	bf00      	nop

0800c60c <_ZNK12_GLOBAL__N_124font_OSD_Charset_61_type8get_dataEv>:
 800c60c:	f649 20b8 	movw	r0, #39608	; 0x9ab8
 800c610:	f6c0 0001 	movt	r0, #2049	; 0x801
 800c614:	4770      	bx	lr
 800c616:	bf00      	nop

0800c618 <_ZNK12_GLOBAL__N_124font_OSD_Charset_61_type8get_sizeEv>:
 800c618:	220c      	movs	r2, #12
 800c61a:	f04f 0c12 	mov.w	ip, #18
 800c61e:	e880 1004 	stmia.w	r0, {r2, ip}
 800c622:	4770      	bx	lr

0800c624 <_ZNK12_GLOBAL__N_124font_OSD_Charset_62_type8get_dataEv>:
 800c624:	f246 60d8 	movw	r0, #26328	; 0x66d8
 800c628:	f6c0 0001 	movt	r0, #2049	; 0x801
 800c62c:	4770      	bx	lr
 800c62e:	bf00      	nop

0800c630 <_ZNK12_GLOBAL__N_124font_OSD_Charset_62_type8get_sizeEv>:
 800c630:	210c      	movs	r1, #12
 800c632:	2212      	movs	r2, #18
 800c634:	e880 0006 	stmia.w	r0, {r1, r2}
 800c638:	4770      	bx	lr
 800c63a:	bf00      	nop

0800c63c <_ZNK12_GLOBAL__N_124font_OSD_Charset_63_type8get_dataEv>:
 800c63c:	f648 7010 	movw	r0, #36624	; 0x8f10
 800c640:	f6c0 0001 	movt	r0, #2049	; 0x801
 800c644:	4770      	bx	lr
 800c646:	bf00      	nop

0800c648 <_ZNK12_GLOBAL__N_124font_OSD_Charset_63_type8get_sizeEv>:
 800c648:	220c      	movs	r2, #12
 800c64a:	f04f 0c12 	mov.w	ip, #18
 800c64e:	e880 1004 	stmia.w	r0, {r2, ip}
 800c652:	4770      	bx	lr

0800c654 <_ZNK12_GLOBAL__N_124font_OSD_Charset_64_type8get_dataEv>:
 800c654:	f247 70e0 	movw	r0, #30688	; 0x77e0
 800c658:	f6c0 0001 	movt	r0, #2049	; 0x801
 800c65c:	4770      	bx	lr
 800c65e:	bf00      	nop

0800c660 <_ZNK12_GLOBAL__N_124font_OSD_Charset_64_type8get_sizeEv>:
 800c660:	210c      	movs	r1, #12
 800c662:	2212      	movs	r2, #18
 800c664:	e880 0006 	stmia.w	r0, {r1, r2}
 800c668:	4770      	bx	lr
 800c66a:	bf00      	nop

0800c66c <_ZNK12_GLOBAL__N_124font_OSD_Charset_65_type8get_dataEv>:
 800c66c:	f246 6028 	movw	r0, #26152	; 0x6628
 800c670:	f6c0 0001 	movt	r0, #2049	; 0x801
 800c674:	4770      	bx	lr
 800c676:	bf00      	nop

0800c678 <_ZNK12_GLOBAL__N_124font_OSD_Charset_65_type8get_sizeEv>:
 800c678:	220c      	movs	r2, #12
 800c67a:	f04f 0c12 	mov.w	ip, #18
 800c67e:	e880 1004 	stmia.w	r0, {r2, ip}
 800c682:	4770      	bx	lr

0800c684 <_ZNK12_GLOBAL__N_124font_OSD_Charset_66_type8get_dataEv>:
 800c684:	f64a 0070 	movw	r0, #43120	; 0xa870
 800c688:	f6c0 0001 	movt	r0, #2049	; 0x801
 800c68c:	4770      	bx	lr
 800c68e:	bf00      	nop

0800c690 <_ZNK12_GLOBAL__N_124font_OSD_Charset_66_type8get_sizeEv>:
 800c690:	210c      	movs	r1, #12
 800c692:	2212      	movs	r2, #18
 800c694:	e880 0006 	stmia.w	r0, {r1, r2}
 800c698:	4770      	bx	lr
 800c69a:	bf00      	nop

0800c69c <_ZNK12_GLOBAL__N_124font_OSD_Charset_67_type8get_dataEv>:
 800c69c:	f249 5050 	movw	r0, #38224	; 0x9550
 800c6a0:	f6c0 0001 	movt	r0, #2049	; 0x801
 800c6a4:	4770      	bx	lr
 800c6a6:	bf00      	nop

0800c6a8 <_ZNK12_GLOBAL__N_124font_OSD_Charset_67_type8get_sizeEv>:
 800c6a8:	220c      	movs	r2, #12
 800c6aa:	f04f 0c12 	mov.w	ip, #18
 800c6ae:	e880 1004 	stmia.w	r0, {r2, ip}
 800c6b2:	4770      	bx	lr

0800c6b4 <_ZNK12_GLOBAL__N_124font_OSD_Charset_68_type8get_dataEv>:
 800c6b4:	f246 5030 	movw	r0, #25904	; 0x6530
 800c6b8:	f6c0 0001 	movt	r0, #2049	; 0x801
 800c6bc:	4770      	bx	lr
 800c6be:	bf00      	nop

0800c6c0 <_ZNK12_GLOBAL__N_124font_OSD_Charset_68_type8get_sizeEv>:
 800c6c0:	210c      	movs	r1, #12
 800c6c2:	2212      	movs	r2, #18
 800c6c4:	e880 0006 	stmia.w	r0, {r1, r2}
 800c6c8:	4770      	bx	lr
 800c6ca:	bf00      	nop

0800c6cc <_ZNK12_GLOBAL__N_124font_OSD_Charset_69_type8get_dataEv>:
 800c6cc:	f24a 70b0 	movw	r0, #42928	; 0xa7b0
 800c6d0:	f6c0 0001 	movt	r0, #2049	; 0x801
 800c6d4:	4770      	bx	lr
 800c6d6:	bf00      	nop

0800c6d8 <_ZNK12_GLOBAL__N_124font_OSD_Charset_69_type8get_sizeEv>:
 800c6d8:	220c      	movs	r2, #12
 800c6da:	f04f 0c12 	mov.w	ip, #18
 800c6de:	e880 1004 	stmia.w	r0, {r2, ip}
 800c6e2:	4770      	bx	lr

0800c6e4 <_ZNK12_GLOBAL__N_124font_OSD_Charset_70_type8get_dataEv>:
 800c6e4:	f649 7010 	movw	r0, #40720	; 0x9f10
 800c6e8:	f6c0 0001 	movt	r0, #2049	; 0x801
 800c6ec:	4770      	bx	lr
 800c6ee:	bf00      	nop

0800c6f0 <_ZNK12_GLOBAL__N_124font_OSD_Charset_70_type8get_sizeEv>:
 800c6f0:	210c      	movs	r1, #12
 800c6f2:	2212      	movs	r2, #18
 800c6f4:	e880 0006 	stmia.w	r0, {r1, r2}
 800c6f8:	4770      	bx	lr
 800c6fa:	bf00      	nop

0800c6fc <_ZNK12_GLOBAL__N_124font_OSD_Charset_71_type8get_dataEv>:
 800c6fc:	f64a 50b0 	movw	r0, #44464	; 0xadb0
 800c700:	f6c0 0001 	movt	r0, #2049	; 0x801
 800c704:	4770      	bx	lr
 800c706:	bf00      	nop

0800c708 <_ZNK12_GLOBAL__N_124font_OSD_Charset_71_type8get_sizeEv>:
 800c708:	220c      	movs	r2, #12
 800c70a:	f04f 0c12 	mov.w	ip, #18
 800c70e:	e880 1004 	stmia.w	r0, {r2, ip}
 800c712:	4770      	bx	lr

0800c714 <_ZNK12_GLOBAL__N_124font_OSD_Charset_72_type8get_dataEv>:
 800c714:	f247 5098 	movw	r0, #30104	; 0x7598
 800c718:	f6c0 0001 	movt	r0, #2049	; 0x801
 800c71c:	4770      	bx	lr
 800c71e:	bf00      	nop

0800c720 <_ZNK12_GLOBAL__N_124font_OSD_Charset_72_type8get_sizeEv>:
 800c720:	210c      	movs	r1, #12
 800c722:	2212      	movs	r2, #18
 800c724:	e880 0006 	stmia.w	r0, {r1, r2}
 800c728:	4770      	bx	lr
 800c72a:	bf00      	nop

0800c72c <_ZNK12_GLOBAL__N_124font_OSD_Charset_73_type8get_dataEv>:
 800c72c:	f246 30c0 	movw	r0, #25536	; 0x63c0
 800c730:	f6c0 0001 	movt	r0, #2049	; 0x801
 800c734:	4770      	bx	lr
 800c736:	bf00      	nop

0800c738 <_ZNK12_GLOBAL__N_124font_OSD_Charset_73_type8get_sizeEv>:
 800c738:	220c      	movs	r2, #12
 800c73a:	f04f 0c12 	mov.w	ip, #18
 800c73e:	e880 1004 	stmia.w	r0, {r2, ip}
 800c742:	4770      	bx	lr

0800c744 <_ZNK12_GLOBAL__N_124font_OSD_Charset_74_type8get_dataEv>:
 800c744:	f24a 6028 	movw	r0, #42536	; 0xa628
 800c748:	f6c0 0001 	movt	r0, #2049	; 0x801
 800c74c:	4770      	bx	lr
 800c74e:	bf00      	nop

0800c750 <_ZNK12_GLOBAL__N_124font_OSD_Charset_74_type8get_sizeEv>:
 800c750:	210c      	movs	r1, #12
 800c752:	2212      	movs	r2, #18
 800c754:	e880 0006 	stmia.w	r0, {r1, r2}
 800c758:	4770      	bx	lr
 800c75a:	bf00      	nop

0800c75c <_ZNK12_GLOBAL__N_124font_OSD_Charset_75_type8get_dataEv>:
 800c75c:	f247 40e0 	movw	r0, #29920	; 0x74e0
 800c760:	f6c0 0001 	movt	r0, #2049	; 0x801
 800c764:	4770      	bx	lr
 800c766:	bf00      	nop

0800c768 <_ZNK12_GLOBAL__N_124font_OSD_Charset_75_type8get_sizeEv>:
 800c768:	220c      	movs	r2, #12
 800c76a:	f04f 0c12 	mov.w	ip, #18
 800c76e:	e880 1004 	stmia.w	r0, {r2, ip}
 800c772:	4770      	bx	lr

0800c774 <_ZNK12_GLOBAL__N_124font_OSD_Charset_76_type8get_dataEv>:
 800c774:	f246 3000 	movw	r0, #25344	; 0x6300
 800c778:	f6c0 0001 	movt	r0, #2049	; 0x801
 800c77c:	4770      	bx	lr
 800c77e:	bf00      	nop

0800c780 <_ZNK12_GLOBAL__N_124font_OSD_Charset_76_type8get_sizeEv>:
 800c780:	210c      	movs	r1, #12
 800c782:	2212      	movs	r2, #18
 800c784:	e880 0006 	stmia.w	r0, {r1, r2}
 800c788:	4770      	bx	lr
 800c78a:	bf00      	nop

0800c78c <_ZNK12_GLOBAL__N_124font_OSD_Charset_77_type8get_dataEv>:
 800c78c:	f24a 5068 	movw	r0, #42344	; 0xa568
 800c790:	f6c0 0001 	movt	r0, #2049	; 0x801
 800c794:	4770      	bx	lr
 800c796:	bf00      	nop

0800c798 <_ZNK12_GLOBAL__N_124font_OSD_Charset_77_type8get_sizeEv>:
 800c798:	220c      	movs	r2, #12
 800c79a:	f04f 0c12 	mov.w	ip, #18
 800c79e:	e880 1004 	stmia.w	r0, {r2, ip}
 800c7a2:	4770      	bx	lr

0800c7a4 <_ZNK12_GLOBAL__N_124font_OSD_Charset_78_type8get_dataEv>:
 800c7a4:	f648 50e8 	movw	r0, #36328	; 0x8de8
 800c7a8:	f6c0 0001 	movt	r0, #2049	; 0x801
 800c7ac:	4770      	bx	lr
 800c7ae:	bf00      	nop

0800c7b0 <_ZNK12_GLOBAL__N_124font_OSD_Charset_78_type8get_sizeEv>:
 800c7b0:	210c      	movs	r1, #12
 800c7b2:	2212      	movs	r2, #18
 800c7b4:	e880 0006 	stmia.w	r0, {r1, r2}
 800c7b8:	4770      	bx	lr
 800c7ba:	bf00      	nop

0800c7bc <_ZNK12_GLOBAL__N_124font_OSD_Charset_79_type8get_dataEv>:
 800c7bc:	f24a 2010 	movw	r0, #41488	; 0xa210
 800c7c0:	f6c0 0001 	movt	r0, #2049	; 0x801
 800c7c4:	4770      	bx	lr
 800c7c6:	bf00      	nop

0800c7c8 <_ZNK12_GLOBAL__N_124font_OSD_Charset_79_type8get_sizeEv>:
 800c7c8:	220c      	movs	r2, #12
 800c7ca:	f04f 0c12 	mov.w	ip, #18
 800c7ce:	e880 1004 	stmia.w	r0, {r2, ip}
 800c7d2:	4770      	bx	lr

0800c7d4 <_ZNK12_GLOBAL__N_124font_OSD_Charset_80_type8get_dataEv>:
 800c7d4:	f247 30d8 	movw	r0, #29656	; 0x73d8
 800c7d8:	f6c0 0001 	movt	r0, #2049	; 0x801
 800c7dc:	4770      	bx	lr
 800c7de:	bf00      	nop

0800c7e0 <_ZNK12_GLOBAL__N_124font_OSD_Charset_80_type8get_sizeEv>:
 800c7e0:	210c      	movs	r1, #12
 800c7e2:	2212      	movs	r2, #18
 800c7e4:	e880 0006 	stmia.w	r0, {r1, r2}
 800c7e8:	4770      	bx	lr
 800c7ea:	bf00      	nop

0800c7ec <_ZNK12_GLOBAL__N_124font_OSD_Charset_81_type8get_dataEv>:
 800c7ec:	f246 10c0 	movw	r0, #25024	; 0x61c0
 800c7f0:	f6c0 0001 	movt	r0, #2049	; 0x801
 800c7f4:	4770      	bx	lr
 800c7f6:	bf00      	nop

0800c7f8 <_ZNK12_GLOBAL__N_124font_OSD_Charset_81_type8get_sizeEv>:
 800c7f8:	220c      	movs	r2, #12
 800c7fa:	f04f 0c12 	mov.w	ip, #18
 800c7fe:	e880 1004 	stmia.w	r0, {r2, ip}
 800c802:	4770      	bx	lr

0800c804 <_ZNK12_GLOBAL__N_124font_OSD_Charset_82_type8get_dataEv>:
 800c804:	f248 6038 	movw	r0, #34360	; 0x8638
 800c808:	f6c0 0001 	movt	r0, #2049	; 0x801
 800c80c:	4770      	bx	lr
 800c80e:	bf00      	nop

0800c810 <_ZNK12_GLOBAL__N_124font_OSD_Charset_82_type8get_sizeEv>:
 800c810:	210c      	movs	r1, #12
 800c812:	2212      	movs	r2, #18
 800c814:	e880 0006 	stmia.w	r0, {r1, r2}
 800c818:	4770      	bx	lr
 800c81a:	bf00      	nop

0800c81c <_ZNK12_GLOBAL__N_124font_OSD_Charset_83_type8get_dataEv>:
 800c81c:	f64a 6020 	movw	r0, #44576	; 0xae20
 800c820:	f6c0 0001 	movt	r0, #2049	; 0x801
 800c824:	4770      	bx	lr
 800c826:	bf00      	nop

0800c828 <_ZNK12_GLOBAL__N_124font_OSD_Charset_83_type8get_sizeEv>:
 800c828:	220c      	movs	r2, #12
 800c82a:	f04f 0c12 	mov.w	ip, #18
 800c82e:	e880 1004 	stmia.w	r0, {r2, ip}
 800c832:	4770      	bx	lr

0800c834 <_ZNK12_GLOBAL__N_124font_OSD_Charset_84_type8get_dataEv>:
 800c834:	f246 00e8 	movw	r0, #24808	; 0x60e8
 800c838:	f6c0 0001 	movt	r0, #2049	; 0x801
 800c83c:	4770      	bx	lr
 800c83e:	bf00      	nop

0800c840 <_ZNK12_GLOBAL__N_124font_OSD_Charset_84_type8get_sizeEv>:
 800c840:	210c      	movs	r1, #12
 800c842:	2212      	movs	r2, #18
 800c844:	e880 0006 	stmia.w	r0, {r1, r2}
 800c848:	4770      	bx	lr
 800c84a:	bf00      	nop

0800c84c <_ZNK12_GLOBAL__N_124font_OSD_Charset_85_type8get_dataEv>:
 800c84c:	f24a 3040 	movw	r0, #41792	; 0xa340
 800c850:	f6c0 0001 	movt	r0, #2049	; 0x801
 800c854:	4770      	bx	lr
 800c856:	bf00      	nop

0800c858 <_ZNK12_GLOBAL__N_124font_OSD_Charset_85_type8get_sizeEv>:
 800c858:	220c      	movs	r2, #12
 800c85a:	f04f 0c12 	mov.w	ip, #18
 800c85e:	e880 1004 	stmia.w	r0, {r2, ip}
 800c862:	4770      	bx	lr

0800c864 <_ZNK12_GLOBAL__N_124font_OSD_Charset_86_type8get_dataEv>:
 800c864:	f648 30f0 	movw	r0, #35824	; 0x8bf0
 800c868:	f6c0 0001 	movt	r0, #2049	; 0x801
 800c86c:	4770      	bx	lr
 800c86e:	bf00      	nop

0800c870 <_ZNK12_GLOBAL__N_124font_OSD_Charset_86_type8get_sizeEv>:
 800c870:	210c      	movs	r1, #12
 800c872:	2212      	movs	r2, #18
 800c874:	e880 0006 	stmia.w	r0, {r1, r2}
 800c878:	4770      	bx	lr
 800c87a:	bf00      	nop

0800c87c <_ZNK12_GLOBAL__N_124font_OSD_Charset_87_type8get_dataEv>:
 800c87c:	f246 0010 	movw	r0, #24592	; 0x6010
 800c880:	f6c0 0001 	movt	r0, #2049	; 0x801
 800c884:	4770      	bx	lr
 800c886:	bf00      	nop

0800c888 <_ZNK12_GLOBAL__N_124font_OSD_Charset_87_type8get_sizeEv>:
 800c888:	220c      	movs	r2, #12
 800c88a:	f04f 0c12 	mov.w	ip, #18
 800c88e:	e880 1004 	stmia.w	r0, {r2, ip}
 800c892:	4770      	bx	lr

0800c894 <_ZNK12_GLOBAL__N_124font_OSD_Charset_88_type8get_dataEv>:
 800c894:	f249 60f8 	movw	r0, #38648	; 0x96f8
 800c898:	f6c0 0001 	movt	r0, #2049	; 0x801
 800c89c:	4770      	bx	lr
 800c89e:	bf00      	nop

0800c8a0 <_ZNK12_GLOBAL__N_124font_OSD_Charset_88_type8get_sizeEv>:
 800c8a0:	210c      	movs	r1, #12
 800c8a2:	2212      	movs	r2, #18
 800c8a4:	e880 0006 	stmia.w	r0, {r1, r2}
 800c8a8:	4770      	bx	lr
 800c8aa:	bf00      	nop

0800c8ac <_ZNK12_GLOBAL__N_124font_OSD_Charset_89_type8get_dataEv>:
 800c8ac:	f649 20f0 	movw	r0, #39664	; 0x9af0
 800c8b0:	f6c0 0001 	movt	r0, #2049	; 0x801
 800c8b4:	4770      	bx	lr
 800c8b6:	bf00      	nop

0800c8b8 <_ZNK12_GLOBAL__N_124font_OSD_Charset_89_type8get_sizeEv>:
 800c8b8:	220c      	movs	r2, #12
 800c8ba:	f04f 0c12 	mov.w	ip, #18
 800c8be:	e880 1004 	stmia.w	r0, {r2, ip}
 800c8c2:	4770      	bx	lr

0800c8c4 <_ZNK12_GLOBAL__N_124font_OSD_Charset_90_type8get_dataEv>:
 800c8c4:	f248 3058 	movw	r0, #33624	; 0x8358
 800c8c8:	f6c0 0001 	movt	r0, #2049	; 0x801
 800c8cc:	4770      	bx	lr
 800c8ce:	bf00      	nop

0800c8d0 <_ZNK12_GLOBAL__N_124font_OSD_Charset_90_type8get_sizeEv>:
 800c8d0:	210c      	movs	r1, #12
 800c8d2:	2212      	movs	r2, #18
 800c8d4:	e880 0006 	stmia.w	r0, {r1, r2}
 800c8d8:	4770      	bx	lr
 800c8da:	bf00      	nop

0800c8dc <_ZNK12_GLOBAL__N_124font_OSD_Charset_91_type8get_dataEv>:
 800c8dc:	f247 00a8 	movw	r0, #28840	; 0x70a8
 800c8e0:	f6c0 0001 	movt	r0, #2049	; 0x801
 800c8e4:	4770      	bx	lr
 800c8e6:	bf00      	nop

0800c8e8 <_ZNK12_GLOBAL__N_124font_OSD_Charset_91_type8get_sizeEv>:
 800c8e8:	220c      	movs	r2, #12
 800c8ea:	f04f 0c12 	mov.w	ip, #18
 800c8ee:	e880 1004 	stmia.w	r0, {r2, ip}
 800c8f2:	4770      	bx	lr

0800c8f4 <_ZNK12_GLOBAL__N_124font_OSD_Charset_92_type8get_dataEv>:
 800c8f4:	f645 6008 	movw	r0, #24072	; 0x5e08
 800c8f8:	f6c0 0001 	movt	r0, #2049	; 0x801
 800c8fc:	4770      	bx	lr
 800c8fe:	bf00      	nop

0800c900 <_ZNK12_GLOBAL__N_124font_OSD_Charset_92_type8get_sizeEv>:
 800c900:	210c      	movs	r1, #12
 800c902:	2212      	movs	r2, #18
 800c904:	e880 0006 	stmia.w	r0, {r1, r2}
 800c908:	4770      	bx	lr
 800c90a:	bf00      	nop

0800c90c <_ZNK12_GLOBAL__N_124font_OSD_Charset_93_type8get_dataEv>:
 800c90c:	f24a 00e0 	movw	r0, #41184	; 0xa0e0
 800c910:	f6c0 0001 	movt	r0, #2049	; 0x801
 800c914:	4770      	bx	lr
 800c916:	bf00      	nop

0800c918 <_ZNK12_GLOBAL__N_124font_OSD_Charset_93_type8get_sizeEv>:
 800c918:	220c      	movs	r2, #12
 800c91a:	f04f 0c12 	mov.w	ip, #18
 800c91e:	e880 1004 	stmia.w	r0, {r2, ip}
 800c922:	4770      	bx	lr

0800c924 <_ZNK12_GLOBAL__N_124font_OSD_Charset_94_type8get_dataEv>:
 800c924:	f247 0010 	movw	r0, #28688	; 0x7010
 800c928:	f6c0 0001 	movt	r0, #2049	; 0x801
 800c92c:	4770      	bx	lr
 800c92e:	bf00      	nop

0800c930 <_ZNK12_GLOBAL__N_124font_OSD_Charset_94_type8get_sizeEv>:
 800c930:	210c      	movs	r1, #12
 800c932:	2212      	movs	r2, #18
 800c934:	e880 0006 	stmia.w	r0, {r1, r2}
 800c938:	4770      	bx	lr
 800c93a:	bf00      	nop

0800c93c <_ZNK12_GLOBAL__N_124font_OSD_Charset_95_type8get_dataEv>:
 800c93c:	f645 5080 	movw	r0, #23936	; 0x5d80
 800c940:	f6c0 0001 	movt	r0, #2049	; 0x801
 800c944:	4770      	bx	lr
 800c946:	bf00      	nop

0800c948 <_ZNK12_GLOBAL__N_124font_OSD_Charset_95_type8get_sizeEv>:
 800c948:	220c      	movs	r2, #12
 800c94a:	f04f 0c12 	mov.w	ip, #18
 800c94e:	e880 1004 	stmia.w	r0, {r2, ip}
 800c952:	4770      	bx	lr

0800c954 <_ZNK12_GLOBAL__N_124font_OSD_Charset_96_type8get_dataEv>:
 800c954:	f24a 0038 	movw	r0, #41016	; 0xa038
 800c958:	f6c0 0001 	movt	r0, #2049	; 0x801
 800c95c:	4770      	bx	lr
 800c95e:	bf00      	nop

0800c960 <_ZNK12_GLOBAL__N_124font_OSD_Charset_96_type8get_sizeEv>:
 800c960:	210c      	movs	r1, #12
 800c962:	2212      	movs	r2, #18
 800c964:	e880 0006 	stmia.w	r0, {r1, r2}
 800c968:	4770      	bx	lr
 800c96a:	bf00      	nop

0800c96c <_ZNK12_GLOBAL__N_124font_OSD_Charset_97_type8get_dataEv>:
 800c96c:	f648 1058 	movw	r0, #35160	; 0x8958
 800c970:	f6c0 0001 	movt	r0, #2049	; 0x801
 800c974:	4770      	bx	lr
 800c976:	bf00      	nop

0800c978 <_ZNK12_GLOBAL__N_124font_OSD_Charset_97_type8get_sizeEv>:
 800c978:	220c      	movs	r2, #12
 800c97a:	f04f 0c12 	mov.w	ip, #18
 800c97e:	e880 1004 	stmia.w	r0, {r2, ip}
 800c982:	4770      	bx	lr

0800c984 <_ZNK12_GLOBAL__N_124font_OSD_Charset_98_type8get_dataEv>:
 800c984:	f247 6058 	movw	r0, #30296	; 0x7658
 800c988:	f6c0 0001 	movt	r0, #2049	; 0x801
 800c98c:	4770      	bx	lr
 800c98e:	bf00      	nop

0800c990 <_ZNK12_GLOBAL__N_124font_OSD_Charset_98_type8get_sizeEv>:
 800c990:	210c      	movs	r1, #12
 800c992:	2212      	movs	r2, #18
 800c994:	e880 0006 	stmia.w	r0, {r1, r2}
 800c998:	4770      	bx	lr
 800c99a:	bf00      	nop

0800c99c <_ZNK12_GLOBAL__N_124font_OSD_Charset_99_type8get_dataEv>:
 800c99c:	f649 7048 	movw	r0, #40776	; 0x9f48
 800c9a0:	f6c0 0001 	movt	r0, #2049	; 0x801
 800c9a4:	4770      	bx	lr
 800c9a6:	bf00      	nop

0800c9a8 <_ZNK12_GLOBAL__N_124font_OSD_Charset_99_type8get_sizeEv>:
 800c9a8:	220c      	movs	r2, #12
 800c9aa:	f04f 0c12 	mov.w	ip, #18
 800c9ae:	e880 1004 	stmia.w	r0, {r2, ip}
 800c9b2:	4770      	bx	lr

0800c9b4 <_ZNK12_GLOBAL__N_125font_OSD_Charset_100_type8get_dataEv>:
 800c9b4:	f248 5030 	movw	r0, #34096	; 0x8530
 800c9b8:	f6c0 0001 	movt	r0, #2049	; 0x801
 800c9bc:	4770      	bx	lr
 800c9be:	bf00      	nop

0800c9c0 <_ZNK12_GLOBAL__N_125font_OSD_Charset_100_type8get_sizeEv>:
 800c9c0:	210c      	movs	r1, #12
 800c9c2:	2212      	movs	r2, #18
 800c9c4:	e880 0006 	stmia.w	r0, {r1, r2}
 800c9c8:	4770      	bx	lr
 800c9ca:	bf00      	nop

0800c9cc <_ZNK12_GLOBAL__N_125font_OSD_Charset_101_type8get_dataEv>:
 800c9cc:	f247 10d8 	movw	r0, #29144	; 0x71d8
 800c9d0:	f6c0 0001 	movt	r0, #2049	; 0x801
 800c9d4:	4770      	bx	lr
 800c9d6:	bf00      	nop

0800c9d8 <_ZNK12_GLOBAL__N_125font_OSD_Charset_101_type8get_sizeEv>:
 800c9d8:	220c      	movs	r2, #12
 800c9da:	f04f 0c12 	mov.w	ip, #18
 800c9de:	e880 1004 	stmia.w	r0, {r2, ip}
 800c9e2:	4770      	bx	lr

0800c9e4 <_ZNK12_GLOBAL__N_125font_OSD_Charset_102_type8get_dataEv>:
 800c9e4:	f648 00b0 	movw	r0, #34992	; 0x88b0
 800c9e8:	f6c0 0001 	movt	r0, #2049	; 0x801
 800c9ec:	4770      	bx	lr
 800c9ee:	bf00      	nop

0800c9f0 <_ZNK12_GLOBAL__N_125font_OSD_Charset_102_type8get_sizeEv>:
 800c9f0:	210c      	movs	r1, #12
 800c9f2:	2212      	movs	r2, #18
 800c9f4:	e880 0006 	stmia.w	r0, {r1, r2}
 800c9f8:	4770      	bx	lr
 800c9fa:	bf00      	nop

0800c9fc <_ZNK12_GLOBAL__N_125font_OSD_Charset_103_type8get_dataEv>:
 800c9fc:	f248 4030 	movw	r0, #33840	; 0x8430
 800ca00:	f6c0 0001 	movt	r0, #2049	; 0x801
 800ca04:	4770      	bx	lr
 800ca06:	bf00      	nop

0800ca08 <_ZNK12_GLOBAL__N_125font_OSD_Charset_103_type8get_sizeEv>:
 800ca08:	220c      	movs	r2, #12
 800ca0a:	f04f 0c12 	mov.w	ip, #18
 800ca0e:	e880 1004 	stmia.w	r0, {r2, ip}
 800ca12:	4770      	bx	lr

0800ca14 <_ZNK12_GLOBAL__N_125font_OSD_Charset_104_type8get_dataEv>:
 800ca14:	f247 1050 	movw	r0, #29008	; 0x7150
 800ca18:	f6c0 0001 	movt	r0, #2049	; 0x801
 800ca1c:	4770      	bx	lr
 800ca1e:	bf00      	nop

0800ca20 <_ZNK12_GLOBAL__N_125font_OSD_Charset_104_type8get_sizeEv>:
 800ca20:	210c      	movs	r1, #12
 800ca22:	2212      	movs	r2, #18
 800ca24:	e880 0006 	stmia.w	r0, {r1, r2}
 800ca28:	4770      	bx	lr
 800ca2a:	bf00      	nop

0800ca2c <_ZNK12_GLOBAL__N_125font_OSD_Charset_105_type8get_dataEv>:
 800ca2c:	f645 7028 	movw	r0, #24360	; 0x5f28
 800ca30:	f6c0 0001 	movt	r0, #2049	; 0x801
 800ca34:	4770      	bx	lr
 800ca36:	bf00      	nop

0800ca38 <_ZNK12_GLOBAL__N_125font_OSD_Charset_105_type8get_sizeEv>:
 800ca38:	220c      	movs	r2, #12
 800ca3a:	f04f 0c12 	mov.w	ip, #18
 800ca3e:	e880 1004 	stmia.w	r0, {r2, ip}
 800ca42:	4770      	bx	lr

0800ca44 <_ZNK12_GLOBAL__N_125font_OSD_Charset_106_type8get_dataEv>:
 800ca44:	f24a 10d8 	movw	r0, #41432	; 0xa1d8
 800ca48:	f6c0 0001 	movt	r0, #2049	; 0x801
 800ca4c:	4770      	bx	lr
 800ca4e:	bf00      	nop

0800ca50 <_ZNK12_GLOBAL__N_125font_OSD_Charset_106_type8get_sizeEv>:
 800ca50:	210c      	movs	r1, #12
 800ca52:	2212      	movs	r2, #18
 800ca54:	e880 0006 	stmia.w	r0, {r1, r2}
 800ca58:	4770      	bx	lr
 800ca5a:	bf00      	nop

0800ca5c <_ZNK12_GLOBAL__N_125font_OSD_Charset_107_type8get_dataEv>:
 800ca5c:	f247 00e0 	movw	r0, #28896	; 0x70e0
 800ca60:	f6c0 0001 	movt	r0, #2049	; 0x801
 800ca64:	4770      	bx	lr
 800ca66:	bf00      	nop

0800ca68 <_ZNK12_GLOBAL__N_125font_OSD_Charset_107_type8get_sizeEv>:
 800ca68:	220c      	movs	r2, #12
 800ca6a:	f04f 0c12 	mov.w	ip, #18
 800ca6e:	e880 1004 	stmia.w	r0, {r2, ip}
 800ca72:	4770      	bx	lr

0800ca74 <_ZNK12_GLOBAL__N_125font_OSD_Charset_108_type8get_dataEv>:
 800ca74:	f645 6070 	movw	r0, #24176	; 0x5e70
 800ca78:	f6c0 0001 	movt	r0, #2049	; 0x801
 800ca7c:	4770      	bx	lr
 800ca7e:	bf00      	nop

0800ca80 <_ZNK12_GLOBAL__N_125font_OSD_Charset_108_type8get_sizeEv>:
 800ca80:	210c      	movs	r1, #12
 800ca82:	2212      	movs	r2, #18
 800ca84:	e880 0006 	stmia.w	r0, {r1, r2}
 800ca88:	4770      	bx	lr
 800ca8a:	bf00      	nop

0800ca8c <_ZNK12_GLOBAL__N_125font_OSD_Charset_109_type8get_dataEv>:
 800ca8c:	f24a 1050 	movw	r0, #41296	; 0xa150
 800ca90:	f6c0 0001 	movt	r0, #2049	; 0x801
 800ca94:	4770      	bx	lr
 800ca96:	bf00      	nop

0800ca98 <_ZNK12_GLOBAL__N_125font_OSD_Charset_109_type8get_sizeEv>:
 800ca98:	220c      	movs	r2, #12
 800ca9a:	f04f 0c12 	mov.w	ip, #18
 800ca9e:	e880 1004 	stmia.w	r0, {r2, ip}
 800caa2:	4770      	bx	lr

0800caa4 <_ZNK12_GLOBAL__N_125font_OSD_Charset_110_type8get_dataEv>:
 800caa4:	f24a 7010 	movw	r0, #42768	; 0xa710
 800caa8:	f6c0 0001 	movt	r0, #2049	; 0x801
 800caac:	4770      	bx	lr
 800caae:	bf00      	nop

0800cab0 <_ZNK12_GLOBAL__N_125font_OSD_Charset_110_type8get_sizeEv>:
 800cab0:	210c      	movs	r1, #12
 800cab2:	2212      	movs	r2, #18
 800cab4:	e880 0006 	stmia.w	r0, {r1, r2}
 800cab8:	4770      	bx	lr
 800caba:	bf00      	nop

0800cabc <_ZNK12_GLOBAL__N_125font_OSD_Charset_111_type8get_dataEv>:
 800cabc:	f647 3090 	movw	r0, #31632	; 0x7b90
 800cac0:	f6c0 0001 	movt	r0, #2049	; 0x801
 800cac4:	4770      	bx	lr
 800cac6:	bf00      	nop

0800cac8 <_ZNK12_GLOBAL__N_125font_OSD_Charset_111_type8get_sizeEv>:
 800cac8:	220c      	movs	r2, #12
 800caca:	f04f 0c12 	mov.w	ip, #18
 800cace:	e880 1004 	stmia.w	r0, {r2, ip}
 800cad2:	4770      	bx	lr

0800cad4 <_ZNK12_GLOBAL__N_125font_OSD_Charset_112_type8get_dataEv>:
 800cad4:	f646 60d8 	movw	r0, #28376	; 0x6ed8
 800cad8:	f6c0 0001 	movt	r0, #2049	; 0x801
 800cadc:	4770      	bx	lr
 800cade:	bf00      	nop

0800cae0 <_ZNK12_GLOBAL__N_125font_OSD_Charset_112_type8get_sizeEv>:
 800cae0:	210c      	movs	r1, #12
 800cae2:	2212      	movs	r2, #18
 800cae4:	e880 0006 	stmia.w	r0, {r1, r2}
 800cae8:	4770      	bx	lr
 800caea:	bf00      	nop

0800caec <_ZNK12_GLOBAL__N_125font_OSD_Charset_113_type8get_dataEv>:
 800caec:	f24b 0060 	movw	r0, #45152	; 0xb060
 800caf0:	f6c0 0001 	movt	r0, #2049	; 0x801
 800caf4:	4770      	bx	lr
 800caf6:	bf00      	nop

0800caf8 <_ZNK12_GLOBAL__N_125font_OSD_Charset_113_type8get_sizeEv>:
 800caf8:	220c      	movs	r2, #12
 800cafa:	f04f 0c12 	mov.w	ip, #18
 800cafe:	e880 1004 	stmia.w	r0, {r2, ip}
 800cb02:	4770      	bx	lr

0800cb04 <_ZNK12_GLOBAL__N_125font_OSD_Charset_114_type8get_dataEv>:
 800cb04:	f648 1020 	movw	r0, #35104	; 0x8920
 800cb08:	f6c0 0001 	movt	r0, #2049	; 0x801
 800cb0c:	4770      	bx	lr
 800cb0e:	bf00      	nop

0800cb10 <_ZNK12_GLOBAL__N_125font_OSD_Charset_114_type8get_sizeEv>:
 800cb10:	210c      	movs	r1, #12
 800cb12:	2212      	movs	r2, #18
 800cb14:	e880 0006 	stmia.w	r0, {r1, r2}
 800cb18:	4770      	bx	lr
 800cb1a:	bf00      	nop

0800cb1c <_ZNK12_GLOBAL__N_125font_OSD_Charset_115_type8get_dataEv>:
 800cb1c:	f646 50e0 	movw	r0, #28128	; 0x6de0
 800cb20:	f6c0 0001 	movt	r0, #2049	; 0x801
 800cb24:	4770      	bx	lr
 800cb26:	bf00      	nop

0800cb28 <_ZNK12_GLOBAL__N_125font_OSD_Charset_115_type8get_sizeEv>:
 800cb28:	220c      	movs	r2, #12
 800cb2a:	f04f 0c12 	mov.w	ip, #18
 800cb2e:	e880 1004 	stmia.w	r0, {r2, ip}
 800cb32:	4770      	bx	lr

0800cb34 <_ZNK12_GLOBAL__N_125font_OSD_Charset_116_type8get_dataEv>:
 800cb34:	f64a 70a8 	movw	r0, #44968	; 0xafa8
 800cb38:	f6c0 0001 	movt	r0, #2049	; 0x801
 800cb3c:	4770      	bx	lr
 800cb3e:	bf00      	nop

0800cb40 <_ZNK12_GLOBAL__N_125font_OSD_Charset_116_type8get_sizeEv>:
 800cb40:	210c      	movs	r1, #12
 800cb42:	2212      	movs	r2, #18
 800cb44:	e880 0006 	stmia.w	r0, {r1, r2}
 800cb48:	4770      	bx	lr
 800cb4a:	bf00      	nop

0800cb4c <_ZNK12_GLOBAL__N_125font_OSD_Charset_117_type8get_dataEv>:
 800cb4c:	f249 60a8 	movw	r0, #38568	; 0x96a8
 800cb50:	f6c0 0001 	movt	r0, #2049	; 0x801
 800cb54:	4770      	bx	lr
 800cb56:	bf00      	nop

0800cb58 <_ZNK12_GLOBAL__N_125font_OSD_Charset_117_type8get_sizeEv>:
 800cb58:	220c      	movs	r2, #12
 800cb5a:	f04f 0c12 	mov.w	ip, #18
 800cb5e:	e880 1004 	stmia.w	r0, {r2, ip}
 800cb62:	4770      	bx	lr

0800cb64 <_ZNK12_GLOBAL__N_125font_OSD_Charset_118_type8get_dataEv>:
 800cb64:	f248 70c8 	movw	r0, #34760	; 0x87c8
 800cb68:	f6c0 0001 	movt	r0, #2049	; 0x801
 800cb6c:	4770      	bx	lr
 800cb6e:	bf00      	nop

0800cb70 <_ZNK12_GLOBAL__N_125font_OSD_Charset_118_type8get_sizeEv>:
 800cb70:	210c      	movs	r1, #12
 800cb72:	2212      	movs	r2, #18
 800cb74:	e880 0006 	stmia.w	r0, {r1, r2}
 800cb78:	4770      	bx	lr
 800cb7a:	bf00      	nop

0800cb7c <_ZNK12_GLOBAL__N_125font_OSD_Charset_119_type8get_dataEv>:
 800cb7c:	f64a 7058 	movw	r0, #44888	; 0xaf58
 800cb80:	f6c0 0001 	movt	r0, #2049	; 0x801
 800cb84:	4770      	bx	lr
 800cb86:	bf00      	nop

0800cb88 <_ZNK12_GLOBAL__N_125font_OSD_Charset_119_type8get_sizeEv>:
 800cb88:	220c      	movs	r2, #12
 800cb8a:	f04f 0c12 	mov.w	ip, #18
 800cb8e:	e880 1004 	stmia.w	r0, {r2, ip}
 800cb92:	4770      	bx	lr

0800cb94 <_ZNK12_GLOBAL__N_125font_OSD_Charset_120_type8get_dataEv>:
 800cb94:	f646 4088 	movw	r0, #27784	; 0x6c88
 800cb98:	f6c0 0001 	movt	r0, #2049	; 0x801
 800cb9c:	4770      	bx	lr
 800cb9e:	bf00      	nop

0800cba0 <_ZNK12_GLOBAL__N_125font_OSD_Charset_120_type8get_sizeEv>:
 800cba0:	210c      	movs	r1, #12
 800cba2:	2212      	movs	r2, #18
 800cba4:	e880 0006 	stmia.w	r0, {r1, r2}
 800cba8:	4770      	bx	lr
 800cbaa:	bf00      	nop

0800cbac <_ZNK12_GLOBAL__N_125font_OSD_Charset_121_type8get_dataEv>:
 800cbac:	f648 70a8 	movw	r0, #36776	; 0x8fa8
 800cbb0:	f6c0 0001 	movt	r0, #2049	; 0x801
 800cbb4:	4770      	bx	lr
 800cbb6:	bf00      	nop

0800cbb8 <_ZNK12_GLOBAL__N_125font_OSD_Charset_121_type8get_sizeEv>:
 800cbb8:	220c      	movs	r2, #12
 800cbba:	f04f 0c12 	mov.w	ip, #18
 800cbbe:	e880 1004 	stmia.w	r0, {r2, ip}
 800cbc2:	4770      	bx	lr

0800cbc4 <_ZNK12_GLOBAL__N_125font_OSD_Charset_122_type8get_dataEv>:
 800cbc4:	f647 5098 	movw	r0, #32152	; 0x7d98
 800cbc8:	f6c0 0001 	movt	r0, #2049	; 0x801
 800cbcc:	4770      	bx	lr
 800cbce:	bf00      	nop

0800cbd0 <_ZNK12_GLOBAL__N_125font_OSD_Charset_122_type8get_sizeEv>:
 800cbd0:	210c      	movs	r1, #12
 800cbd2:	2212      	movs	r2, #18
 800cbd4:	e880 0006 	stmia.w	r0, {r1, r2}
 800cbd8:	4770      	bx	lr
 800cbda:	bf00      	nop

0800cbdc <_ZNK12_GLOBAL__N_125font_OSD_Charset_123_type8get_dataEv>:
 800cbdc:	f646 30c8 	movw	r0, #27592	; 0x6bc8
 800cbe0:	f6c0 0001 	movt	r0, #2049	; 0x801
 800cbe4:	4770      	bx	lr
 800cbe6:	bf00      	nop

0800cbe8 <_ZNK12_GLOBAL__N_125font_OSD_Charset_123_type8get_sizeEv>:
 800cbe8:	220c      	movs	r2, #12
 800cbea:	f04f 0c12 	mov.w	ip, #18
 800cbee:	e880 1004 	stmia.w	r0, {r2, ip}
 800cbf2:	4770      	bx	lr

0800cbf4 <_ZNK12_GLOBAL__N_125font_OSD_Charset_124_type8get_dataEv>:
 800cbf4:	f64a 5078 	movw	r0, #44408	; 0xad78
 800cbf8:	f6c0 0001 	movt	r0, #2049	; 0x801
 800cbfc:	4770      	bx	lr
 800cbfe:	bf00      	nop

0800cc00 <_ZNK12_GLOBAL__N_125font_OSD_Charset_124_type8get_sizeEv>:
 800cc00:	210c      	movs	r1, #12
 800cc02:	2212      	movs	r2, #18
 800cc04:	e880 0006 	stmia.w	r0, {r1, r2}
 800cc08:	4770      	bx	lr
 800cc0a:	bf00      	nop

0800cc0c <_ZNK12_GLOBAL__N_125font_OSD_Charset_125_type8get_dataEv>:
 800cc0c:	f649 3040 	movw	r0, #39744	; 0x9b40
 800cc10:	f6c0 0001 	movt	r0, #2049	; 0x801
 800cc14:	4770      	bx	lr
 800cc16:	bf00      	nop

0800cc18 <_ZNK12_GLOBAL__N_125font_OSD_Charset_125_type8get_sizeEv>:
 800cc18:	220c      	movs	r2, #12
 800cc1a:	f04f 0c12 	mov.w	ip, #18
 800cc1e:	e880 1004 	stmia.w	r0, {r2, ip}
 800cc22:	4770      	bx	lr

0800cc24 <_ZNK12_GLOBAL__N_125font_OSD_Charset_126_type8get_dataEv>:
 800cc24:	f646 20f0 	movw	r0, #27376	; 0x6af0
 800cc28:	f6c0 0001 	movt	r0, #2049	; 0x801
 800cc2c:	4770      	bx	lr
 800cc2e:	bf00      	nop

0800cc30 <_ZNK12_GLOBAL__N_125font_OSD_Charset_126_type8get_sizeEv>:
 800cc30:	210c      	movs	r1, #12
 800cc32:	2212      	movs	r2, #18
 800cc34:	e880 0006 	stmia.w	r0, {r1, r2}
 800cc38:	4770      	bx	lr
 800cc3a:	bf00      	nop

0800cc3c <_ZNK12_GLOBAL__N_125font_OSD_Charset_127_type8get_dataEv>:
 800cc3c:	f64a 40f8 	movw	r0, #44280	; 0xacf8
 800cc40:	f6c0 0001 	movt	r0, #2049	; 0x801
 800cc44:	4770      	bx	lr
 800cc46:	bf00      	nop

0800cc48 <_ZNK12_GLOBAL__N_125font_OSD_Charset_127_type8get_sizeEv>:
 800cc48:	220c      	movs	r2, #12
 800cc4a:	f04f 0c12 	mov.w	ip, #18
 800cc4e:	e880 1004 	stmia.w	r0, {r2, ip}
 800cc52:	4770      	bx	lr

0800cc54 <_ZNK12_GLOBAL__N_125font_OSD_Charset_128_type8get_dataEv>:
 800cc54:	f649 2080 	movw	r0, #39552	; 0x9a80
 800cc58:	f6c0 0001 	movt	r0, #2049	; 0x801
 800cc5c:	4770      	bx	lr
 800cc5e:	bf00      	nop

0800cc60 <_ZNK12_GLOBAL__N_125font_OSD_Charset_128_type8get_sizeEv>:
 800cc60:	210c      	movs	r1, #12
 800cc62:	2212      	movs	r2, #18
 800cc64:	e880 0006 	stmia.w	r0, {r1, r2}
 800cc68:	4770      	bx	lr
 800cc6a:	bf00      	nop

0800cc6c <_ZNK12_GLOBAL__N_125font_OSD_Charset_129_type8get_dataEv>:
 800cc6c:	f248 5068 	movw	r0, #34152	; 0x8568
 800cc70:	f6c0 0001 	movt	r0, #2049	; 0x801
 800cc74:	4770      	bx	lr
 800cc76:	bf00      	nop

0800cc78 <_ZNK12_GLOBAL__N_125font_OSD_Charset_129_type8get_sizeEv>:
 800cc78:	220c      	movs	r2, #12
 800cc7a:	f04f 0c12 	mov.w	ip, #18
 800cc7e:	e880 1004 	stmia.w	r0, {r2, ip}
 800cc82:	4770      	bx	lr

0800cc84 <_ZNK12_GLOBAL__N_125font_OSD_Charset_130_type8get_dataEv>:
 800cc84:	f647 3008 	movw	r0, #31496	; 0x7b08
 800cc88:	f6c0 0001 	movt	r0, #2049	; 0x801
 800cc8c:	4770      	bx	lr
 800cc8e:	bf00      	nop

0800cc90 <_ZNK12_GLOBAL__N_125font_OSD_Charset_130_type8get_sizeEv>:
 800cc90:	210c      	movs	r1, #12
 800cc92:	2212      	movs	r2, #18
 800cc94:	e880 0006 	stmia.w	r0, {r1, r2}
 800cc98:	4770      	bx	lr
 800cc9a:	bf00      	nop

0800cc9c <_ZNK12_GLOBAL__N_125font_OSD_Charset_131_type8get_dataEv>:
 800cc9c:	f646 1030 	movw	r0, #26928	; 0x6930
 800cca0:	f6c0 0001 	movt	r0, #2049	; 0x801
 800cca4:	4770      	bx	lr
 800cca6:	bf00      	nop

0800cca8 <_ZNK12_GLOBAL__N_125font_OSD_Charset_131_type8get_sizeEv>:
 800cca8:	220c      	movs	r2, #12
 800ccaa:	f04f 0c12 	mov.w	ip, #18
 800ccae:	e880 1004 	stmia.w	r0, {r2, ip}
 800ccb2:	4770      	bx	lr

0800ccb4 <_ZNK12_GLOBAL__N_125font_OSD_Charset_132_type8get_dataEv>:
 800ccb4:	f64a 3048 	movw	r0, #43848	; 0xab48
 800ccb8:	f6c0 0001 	movt	r0, #2049	; 0x801
 800ccbc:	4770      	bx	lr
 800ccbe:	bf00      	nop

0800ccc0 <_ZNK12_GLOBAL__N_125font_OSD_Charset_132_type8get_sizeEv>:
 800ccc0:	210c      	movs	r1, #12
 800ccc2:	2212      	movs	r2, #18
 800ccc4:	e880 0006 	stmia.w	r0, {r1, r2}
 800ccc8:	4770      	bx	lr
 800ccca:	bf00      	nop

0800cccc <_ZNK12_GLOBAL__N_125font_OSD_Charset_133_type8get_dataEv>:
 800cccc:	f647 2068 	movw	r0, #31336	; 0x7a68
 800ccd0:	f6c0 0001 	movt	r0, #2049	; 0x801
 800ccd4:	4770      	bx	lr
 800ccd6:	bf00      	nop

0800ccd8 <_ZNK12_GLOBAL__N_125font_OSD_Charset_133_type8get_sizeEv>:
 800ccd8:	220c      	movs	r2, #12
 800ccda:	f04f 0c12 	mov.w	ip, #18
 800ccde:	e880 1004 	stmia.w	r0, {r2, ip}
 800cce2:	4770      	bx	lr

0800cce4 <_ZNK12_GLOBAL__N_125font_OSD_Charset_134_type8get_dataEv>:
 800cce4:	f646 0050 	movw	r0, #26704	; 0x6850
 800cce8:	f6c0 0001 	movt	r0, #2049	; 0x801
 800ccec:	4770      	bx	lr
 800ccee:	bf00      	nop

0800ccf0 <_ZNK12_GLOBAL__N_125font_OSD_Charset_134_type8get_sizeEv>:
 800ccf0:	210c      	movs	r1, #12
 800ccf2:	2212      	movs	r2, #18
 800ccf4:	e880 0006 	stmia.w	r0, {r1, r2}
 800ccf8:	4770      	bx	lr
 800ccfa:	bf00      	nop

0800ccfc <_ZNK12_GLOBAL__N_125font_OSD_Charset_135_type8get_dataEv>:
 800ccfc:	f64a 2090 	movw	r0, #43664	; 0xaa90
 800cd00:	f6c0 0001 	movt	r0, #2049	; 0x801
 800cd04:	4770      	bx	lr
 800cd06:	bf00      	nop

0800cd08 <_ZNK12_GLOBAL__N_125font_OSD_Charset_135_type8get_sizeEv>:
 800cd08:	220c      	movs	r2, #12
 800cd0a:	f04f 0c12 	mov.w	ip, #18
 800cd0e:	e880 1004 	stmia.w	r0, {r2, ip}
 800cd12:	4770      	bx	lr

0800cd14 <_ZNK12_GLOBAL__N_125font_OSD_Charset_136_type8get_dataEv>:
 800cd14:	f249 70b8 	movw	r0, #38840	; 0x97b8
 800cd18:	f6c0 0001 	movt	r0, #2049	; 0x801
 800cd1c:	4770      	bx	lr
 800cd1e:	bf00      	nop

0800cd20 <_ZNK12_GLOBAL__N_125font_OSD_Charset_136_type8get_sizeEv>:
 800cd20:	210c      	movs	r1, #12
 800cd22:	2212      	movs	r2, #18
 800cd24:	e880 0006 	stmia.w	r0, {r1, r2}
 800cd28:	4770      	bx	lr
 800cd2a:	bf00      	nop

0800cd2c <_ZNK12_GLOBAL__N_125font_OSD_Charset_137_type8get_dataEv>:
 800cd2c:	f248 2068 	movw	r0, #33384	; 0x8268
 800cd30:	f6c0 0001 	movt	r0, #2049	; 0x801
 800cd34:	4770      	bx	lr
 800cd36:	bf00      	nop

0800cd38 <_ZNK12_GLOBAL__N_125font_OSD_Charset_137_type8get_sizeEv>:
 800cd38:	220c      	movs	r2, #12
 800cd3a:	f04f 0c12 	mov.w	ip, #18
 800cd3e:	e880 1004 	stmia.w	r0, {r2, ip}
 800cd42:	4770      	bx	lr

0800cd44 <_ZNK12_GLOBAL__N_125font_OSD_Charset_138_type8get_dataEv>:
 800cd44:	f64a 10b0 	movw	r0, #43440	; 0xa9b0
 800cd48:	f6c0 0001 	movt	r0, #2049	; 0x801
 800cd4c:	4770      	bx	lr
 800cd4e:	bf00      	nop

0800cd50 <_ZNK12_GLOBAL__N_125font_OSD_Charset_138_type8get_sizeEv>:
 800cd50:	210c      	movs	r1, #12
 800cd52:	2212      	movs	r2, #18
 800cd54:	e880 0006 	stmia.w	r0, {r1, r2}
 800cd58:	4770      	bx	lr
 800cd5a:	bf00      	nop

0800cd5c <_ZNK12_GLOBAL__N_125font_OSD_Charset_139_type8get_dataEv>:
 800cd5c:	f249 7030 	movw	r0, #38704	; 0x9730
 800cd60:	f6c0 0001 	movt	r0, #2049	; 0x801
 800cd64:	4770      	bx	lr
 800cd66:	bf00      	nop

0800cd68 <_ZNK12_GLOBAL__N_125font_OSD_Charset_139_type8get_sizeEv>:
 800cd68:	220c      	movs	r2, #12
 800cd6a:	f04f 0c12 	mov.w	ip, #18
 800cd6e:	e880 1004 	stmia.w	r0, {r2, ip}
 800cd72:	4770      	bx	lr

0800cd74 <_ZNK12_GLOBAL__N_125font_OSD_Charset_140_type8get_dataEv>:
 800cd74:	f246 7060 	movw	r0, #26464	; 0x6760
 800cd78:	f6c0 0001 	movt	r0, #2049	; 0x801
 800cd7c:	4770      	bx	lr
 800cd7e:	bf00      	nop

0800cd80 <_ZNK12_GLOBAL__N_125font_OSD_Charset_140_type8get_sizeEv>:
 800cd80:	210c      	movs	r1, #12
 800cd82:	2212      	movs	r2, #18
 800cd84:	e880 0006 	stmia.w	r0, {r1, r2}
 800cd88:	4770      	bx	lr
 800cd8a:	bf00      	nop

0800cd8c <_ZNK12_GLOBAL__N_125font_OSD_Charset_141_type8get_dataEv>:
 800cd8c:	f247 70a8 	movw	r0, #30632	; 0x77a8
 800cd90:	f6c0 0001 	movt	r0, #2049	; 0x801
 800cd94:	4770      	bx	lr
 800cd96:	bf00      	nop

0800cd98 <_ZNK12_GLOBAL__N_125font_OSD_Charset_141_type8get_sizeEv>:
 800cd98:	220c      	movs	r2, #12
 800cd9a:	f04f 0c12 	mov.w	ip, #18
 800cd9e:	e880 1004 	stmia.w	r0, {r2, ip}
 800cda2:	4770      	bx	lr

0800cda4 <_ZNK12_GLOBAL__N_125font_OSD_Charset_142_type8get_dataEv>:
 800cda4:	f246 50a0 	movw	r0, #26016	; 0x65a0
 800cda8:	f6c0 0001 	movt	r0, #2049	; 0x801
 800cdac:	4770      	bx	lr
 800cdae:	bf00      	nop

0800cdb0 <_ZNK12_GLOBAL__N_125font_OSD_Charset_142_type8get_sizeEv>:
 800cdb0:	210c      	movs	r1, #12
 800cdb2:	2212      	movs	r2, #18
 800cdb4:	e880 0006 	stmia.w	r0, {r1, r2}
 800cdb8:	4770      	bx	lr
 800cdba:	bf00      	nop

0800cdbc <_ZNK12_GLOBAL__N_125font_OSD_Charset_143_type8get_dataEv>:
 800cdbc:	f64a 0020 	movw	r0, #43040	; 0xa820
 800cdc0:	f6c0 0001 	movt	r0, #2049	; 0x801
 800cdc4:	4770      	bx	lr
 800cdc6:	bf00      	nop

0800cdc8 <_ZNK12_GLOBAL__N_125font_OSD_Charset_143_type8get_sizeEv>:
 800cdc8:	220c      	movs	r2, #12
 800cdca:	f04f 0c12 	mov.w	ip, #18
 800cdce:	e880 1004 	stmia.w	r0, {r2, ip}
 800cdd2:	4770      	bx	lr

0800cdd4 <_ZNK12_GLOBAL__N_125font_OSD_Charset_144_type8get_dataEv>:
 800cdd4:	f249 1018 	movw	r0, #37144	; 0x9118
 800cdd8:	f6c0 0001 	movt	r0, #2049	; 0x801
 800cddc:	4770      	bx	lr
 800cdde:	bf00      	nop

0800cde0 <_ZNK12_GLOBAL__N_125font_OSD_Charset_144_type8get_sizeEv>:
 800cde0:	210c      	movs	r1, #12
 800cde2:	2212      	movs	r2, #18
 800cde4:	e880 0006 	stmia.w	r0, {r1, r2}
 800cde8:	4770      	bx	lr
 800cdea:	bf00      	nop

0800cdec <_ZNK12_GLOBAL__N_125font_OSD_Charset_145_type8get_dataEv>:
 800cdec:	f246 40f8 	movw	r0, #25848	; 0x64f8
 800cdf0:	f6c0 0001 	movt	r0, #2049	; 0x801
 800cdf4:	4770      	bx	lr
 800cdf6:	bf00      	nop

0800cdf8 <_ZNK12_GLOBAL__N_125font_OSD_Charset_145_type8get_sizeEv>:
 800cdf8:	220c      	movs	r2, #12
 800cdfa:	f04f 0c12 	mov.w	ip, #18
 800cdfe:	e880 1004 	stmia.w	r0, {r2, ip}
 800ce02:	4770      	bx	lr

0800ce04 <_ZNK12_GLOBAL__N_125font_OSD_Charset_146_type8get_dataEv>:
 800ce04:	f24a 7078 	movw	r0, #42872	; 0xa778
 800ce08:	f6c0 0001 	movt	r0, #2049	; 0x801
 800ce0c:	4770      	bx	lr
 800ce0e:	bf00      	nop

0800ce10 <_ZNK12_GLOBAL__N_125font_OSD_Charset_146_type8get_sizeEv>:
 800ce10:	210c      	movs	r1, #12
 800ce12:	2212      	movs	r2, #18
 800ce14:	e880 0006 	stmia.w	r0, {r1, r2}
 800ce18:	4770      	bx	lr
 800ce1a:	bf00      	nop

0800ce1c <_ZNK12_GLOBAL__N_125font_OSD_Charset_147_type8get_dataEv>:
 800ce1c:	f249 0060 	movw	r0, #36960	; 0x9060
 800ce20:	f6c0 0001 	movt	r0, #2049	; 0x801
 800ce24:	4770      	bx	lr
 800ce26:	bf00      	nop

0800ce28 <_ZNK12_GLOBAL__N_125font_OSD_Charset_147_type8get_sizeEv>:
 800ce28:	220c      	movs	r2, #12
 800ce2a:	f04f 0c12 	mov.w	ip, #18
 800ce2e:	e880 1004 	stmia.w	r0, {r2, ip}
 800ce32:	4770      	bx	lr

0800ce34 <_ZNK12_GLOBAL__N_125font_OSD_Charset_148_type8get_dataEv>:
 800ce34:	f647 60c0 	movw	r0, #32448	; 0x7ec0
 800ce38:	f6c0 0001 	movt	r0, #2049	; 0x801
 800ce3c:	4770      	bx	lr
 800ce3e:	bf00      	nop

0800ce40 <_ZNK12_GLOBAL__N_125font_OSD_Charset_148_type8get_sizeEv>:
 800ce40:	210c      	movs	r1, #12
 800ce42:	2212      	movs	r2, #18
 800ce44:	e880 0006 	stmia.w	r0, {r1, r2}
 800ce48:	4770      	bx	lr
 800ce4a:	bf00      	nop

0800ce4c <_ZNK12_GLOBAL__N_125font_OSD_Charset_149_type8get_dataEv>:
 800ce4c:	f646 40d8 	movw	r0, #27864	; 0x6cd8
 800ce50:	f6c0 0001 	movt	r0, #2049	; 0x801
 800ce54:	4770      	bx	lr
 800ce56:	bf00      	nop

0800ce58 <_ZNK12_GLOBAL__N_125font_OSD_Charset_149_type8get_sizeEv>:
 800ce58:	220c      	movs	r2, #12
 800ce5a:	f04f 0c12 	mov.w	ip, #18
 800ce5e:	e880 1004 	stmia.w	r0, {r2, ip}
 800ce62:	4770      	bx	lr

0800ce64 <_ZNK12_GLOBAL__N_125font_OSD_Charset_150_type8get_dataEv>:
 800ce64:	f246 3088 	movw	r0, #25480	; 0x6388
 800ce68:	f6c0 0001 	movt	r0, #2049	; 0x801
 800ce6c:	4770      	bx	lr
 800ce6e:	bf00      	nop

0800ce70 <_ZNK12_GLOBAL__N_125font_OSD_Charset_150_type8get_sizeEv>:
 800ce70:	210c      	movs	r1, #12
 800ce72:	2212      	movs	r2, #18
 800ce74:	e880 0006 	stmia.w	r0, {r1, r2}
 800ce78:	4770      	bx	lr
 800ce7a:	bf00      	nop

0800ce7c <_ZNK12_GLOBAL__N_125font_OSD_Charset_151_type8get_dataEv>:
 800ce7c:	f24a 50d8 	movw	r0, #42456	; 0xa5d8
 800ce80:	f6c0 0001 	movt	r0, #2049	; 0x801
 800ce84:	4770      	bx	lr
 800ce86:	bf00      	nop

0800ce88 <_ZNK12_GLOBAL__N_125font_OSD_Charset_151_type8get_sizeEv>:
 800ce88:	220c      	movs	r2, #12
 800ce8a:	f04f 0c12 	mov.w	ip, #18
 800ce8e:	e880 1004 	stmia.w	r0, {r2, ip}
 800ce92:	4770      	bx	lr

0800ce94 <_ZNK12_GLOBAL__N_125font_OSD_Charset_152_type8get_dataEv>:
 800ce94:	f648 60a8 	movw	r0, #36520	; 0x8ea8
 800ce98:	f6c0 0001 	movt	r0, #2049	; 0x801
 800ce9c:	4770      	bx	lr
 800ce9e:	bf00      	nop

0800cea0 <_ZNK12_GLOBAL__N_125font_OSD_Charset_152_type8get_sizeEv>:
 800cea0:	210c      	movs	r1, #12
 800cea2:	2212      	movs	r2, #18
 800cea4:	e880 0006 	stmia.w	r0, {r1, r2}
 800cea8:	4770      	bx	lr
 800ceaa:	bf00      	nop

0800ceac <_ZNK12_GLOBAL__N_125font_OSD_Charset_153_type8get_dataEv>:
 800ceac:	f246 20b0 	movw	r0, #25264	; 0x62b0
 800ceb0:	f6c0 0001 	movt	r0, #2049	; 0x801
 800ceb4:	4770      	bx	lr
 800ceb6:	bf00      	nop

0800ceb8 <_ZNK12_GLOBAL__N_125font_OSD_Charset_153_type8get_sizeEv>:
 800ceb8:	220c      	movs	r2, #12
 800ceba:	f04f 0c12 	mov.w	ip, #18
 800cebe:	e880 1004 	stmia.w	r0, {r2, ip}
 800cec2:	4770      	bx	lr

0800cec4 <_ZNK12_GLOBAL__N_125font_OSD_Charset_154_type8get_dataEv>:
 800cec4:	f24a 5030 	movw	r0, #42288	; 0xa530
 800cec8:	f6c0 0001 	movt	r0, #2049	; 0x801
 800cecc:	4770      	bx	lr
 800cece:	bf00      	nop

0800ced0 <_ZNK12_GLOBAL__N_125font_OSD_Charset_154_type8get_sizeEv>:
 800ced0:	210c      	movs	r1, #12
 800ced2:	2212      	movs	r2, #18
 800ced4:	e880 0006 	stmia.w	r0, {r1, r2}
 800ced8:	4770      	bx	lr
 800ceda:	bf00      	nop

0800cedc <_ZNK12_GLOBAL__N_125font_OSD_Charset_155_type8get_dataEv>:
 800cedc:	f648 50b0 	movw	r0, #36272	; 0x8db0
 800cee0:	f6c0 0001 	movt	r0, #2049	; 0x801
 800cee4:	4770      	bx	lr
 800cee6:	bf00      	nop

0800cee8 <_ZNK12_GLOBAL__N_125font_OSD_Charset_155_type8get_sizeEv>:
 800cee8:	220c      	movs	r2, #12
 800ceea:	f04f 0c12 	mov.w	ip, #18
 800ceee:	e880 1004 	stmia.w	r0, {r2, ip}
 800cef2:	4770      	bx	lr

0800cef4 <_ZNK12_GLOBAL__N_125font_OSD_Charset_156_type8get_dataEv>:
 800cef4:	f647 4000 	movw	r0, #31744	; 0x7c00
 800cef8:	f6c0 0001 	movt	r0, #2049	; 0x801
 800cefc:	4770      	bx	lr
 800cefe:	bf00      	nop

0800cf00 <_ZNK12_GLOBAL__N_125font_OSD_Charset_156_type8get_sizeEv>:
 800cf00:	210c      	movs	r1, #12
 800cf02:	2212      	movs	r2, #18
 800cf04:	e880 0006 	stmia.w	r0, {r1, r2}
 800cf08:	4770      	bx	lr
 800cf0a:	bf00      	nop

0800cf0c <_ZNK12_GLOBAL__N_125font_OSD_Charset_157_type8get_dataEv>:
 800cf0c:	f24a 4078 	movw	r0, #42104	; 0xa478
 800cf10:	f6c0 0001 	movt	r0, #2049	; 0x801
 800cf14:	4770      	bx	lr
 800cf16:	bf00      	nop

0800cf18 <_ZNK12_GLOBAL__N_125font_OSD_Charset_157_type8get_sizeEv>:
 800cf18:	220c      	movs	r2, #12
 800cf1a:	f04f 0c12 	mov.w	ip, #18
 800cf1e:	e880 1004 	stmia.w	r0, {r2, ip}
 800cf22:	4770      	bx	lr

0800cf24 <_ZNK12_GLOBAL__N_125font_OSD_Charset_158_type8get_dataEv>:
 800cf24:	f648 5028 	movw	r0, #36136	; 0x8d28
 800cf28:	f6c0 0001 	movt	r0, #2049	; 0x801
 800cf2c:	4770      	bx	lr
 800cf2e:	bf00      	nop

0800cf30 <_ZNK12_GLOBAL__N_125font_OSD_Charset_158_type8get_sizeEv>:
 800cf30:	210c      	movs	r1, #12
 800cf32:	2212      	movs	r2, #18
 800cf34:	e880 0006 	stmia.w	r0, {r1, r2}
 800cf38:	4770      	bx	lr
 800cf3a:	bf00      	nop

0800cf3c <_ZNK12_GLOBAL__N_125font_OSD_Charset_159_type8get_dataEv>:
 800cf3c:	f647 3058 	movw	r0, #31576	; 0x7b58
 800cf40:	f6c0 0001 	movt	r0, #2049	; 0x801
 800cf44:	4770      	bx	lr
 800cf46:	bf00      	nop

0800cf48 <_ZNK12_GLOBAL__N_125font_OSD_Charset_159_type8get_sizeEv>:
 800cf48:	220c      	movs	r2, #12
 800cf4a:	f04f 0c12 	mov.w	ip, #18
 800cf4e:	e880 1004 	stmia.w	r0, {r2, ip}
 800cf52:	4770      	bx	lr

0800cf54 <_ZNK12_GLOBAL__N_125font_OSD_Charset_160_type8get_dataEv>:
 800cf54:	f247 2090 	movw	r0, #29328	; 0x7290
 800cf58:	f6c0 0001 	movt	r0, #2049	; 0x801
 800cf5c:	4770      	bx	lr
 800cf5e:	bf00      	nop

0800cf60 <_ZNK12_GLOBAL__N_125font_OSD_Charset_160_type8get_sizeEv>:
 800cf60:	210c      	movs	r1, #12
 800cf62:	2212      	movs	r2, #18
 800cf64:	e880 0006 	stmia.w	r0, {r1, r2}
 800cf68:	4770      	bx	lr
 800cf6a:	bf00      	nop

0800cf6c <_ZNK12_GLOBAL__N_125font_OSD_Charset_161_type8get_dataEv>:
 800cf6c:	f246 00b0 	movw	r0, #24752	; 0x60b0
 800cf70:	f6c0 0001 	movt	r0, #2049	; 0x801
 800cf74:	4770      	bx	lr
 800cf76:	bf00      	nop

0800cf78 <_ZNK12_GLOBAL__N_125font_OSD_Charset_161_type8get_sizeEv>:
 800cf78:	220c      	movs	r2, #12
 800cf7a:	f04f 0c12 	mov.w	ip, #18
 800cf7e:	e880 1004 	stmia.w	r0, {r2, ip}
 800cf82:	4770      	bx	lr

0800cf84 <_ZNK12_GLOBAL__N_125font_OSD_Charset_162_type8get_dataEv>:
 800cf84:	f24a 20f0 	movw	r0, #41712	; 0xa2f0
 800cf88:	f6c0 0001 	movt	r0, #2049	; 0x801
 800cf8c:	4770      	bx	lr
 800cf8e:	bf00      	nop

0800cf90 <_ZNK12_GLOBAL__N_125font_OSD_Charset_162_type8get_sizeEv>:
 800cf90:	210c      	movs	r1, #12
 800cf92:	2212      	movs	r2, #18
 800cf94:	e880 0006 	stmia.w	r0, {r1, r2}
 800cf98:	4770      	bx	lr
 800cf9a:	bf00      	nop

0800cf9c <_ZNK12_GLOBAL__N_125font_OSD_Charset_163_type8get_dataEv>:
 800cf9c:	f648 3088 	movw	r0, #35720	; 0x8b88
 800cfa0:	f6c0 0001 	movt	r0, #2049	; 0x801
 800cfa4:	4770      	bx	lr
 800cfa6:	bf00      	nop

0800cfa8 <_ZNK12_GLOBAL__N_125font_OSD_Charset_163_type8get_sizeEv>:
 800cfa8:	220c      	movs	r2, #12
 800cfaa:	f04f 0c12 	mov.w	ip, #18
 800cfae:	e880 1004 	stmia.w	r0, {r2, ip}
 800cfb2:	4770      	bx	lr

0800cfb4 <_ZNK12_GLOBAL__N_125font_OSD_Charset_164_type8get_dataEv>:
 800cfb4:	f647 00f0 	movw	r0, #30960	; 0x78f0
 800cfb8:	f6c0 0001 	movt	r0, #2049	; 0x801
 800cfbc:	4770      	bx	lr
 800cfbe:	bf00      	nop

0800cfc0 <_ZNK12_GLOBAL__N_125font_OSD_Charset_164_type8get_sizeEv>:
 800cfc0:	210c      	movs	r1, #12
 800cfc2:	2212      	movs	r2, #18
 800cfc4:	e880 0006 	stmia.w	r0, {r1, r2}
 800cfc8:	4770      	bx	lr
 800cfca:	bf00      	nop

0800cfcc <_ZNK12_GLOBAL__N_125font_OSD_Charset_165_type8get_dataEv>:
 800cfcc:	f646 3090 	movw	r0, #27536	; 0x6b90
 800cfd0:	f6c0 0001 	movt	r0, #2049	; 0x801
 800cfd4:	4770      	bx	lr
 800cfd6:	bf00      	nop

0800cfd8 <_ZNK12_GLOBAL__N_125font_OSD_Charset_165_type8get_sizeEv>:
 800cfd8:	220c      	movs	r2, #12
 800cfda:	f04f 0c12 	mov.w	ip, #18
 800cfde:	e880 1004 	stmia.w	r0, {r2, ip}
 800cfe2:	4770      	bx	lr

0800cfe4 <_ZNK12_GLOBAL__N_125font_OSD_Charset_166_type8get_dataEv>:
 800cfe4:	f648 3020 	movw	r0, #35616	; 0x8b20
 800cfe8:	f6c0 0001 	movt	r0, #2049	; 0x801
 800cfec:	4770      	bx	lr
 800cfee:	bf00      	nop

0800cff0 <_ZNK12_GLOBAL__N_125font_OSD_Charset_166_type8get_sizeEv>:
 800cff0:	210c      	movs	r1, #12
 800cff2:	2212      	movs	r2, #18
 800cff4:	e880 0006 	stmia.w	r0, {r1, r2}
 800cff8:	4770      	bx	lr
 800cffa:	bf00      	nop

0800cffc <_ZNK12_GLOBAL__N_125font_OSD_Charset_167_type8get_dataEv>:
 800cffc:	f647 00a0 	movw	r0, #30880	; 0x78a0
 800d000:	f6c0 0001 	movt	r0, #2049	; 0x801
 800d004:	4770      	bx	lr
 800d006:	bf00      	nop

0800d008 <_ZNK12_GLOBAL__N_125font_OSD_Charset_167_type8get_sizeEv>:
 800d008:	220c      	movs	r2, #12
 800d00a:	f04f 0c12 	mov.w	ip, #18
 800d00e:	e880 1004 	stmia.w	r0, {r2, ip}
 800d012:	4770      	bx	lr

0800d014 <_ZNK12_GLOBAL__N_125font_OSD_Charset_168_type8get_dataEv>:
 800d014:	f248 50e8 	movw	r0, #34280	; 0x85e8
 800d018:	f6c0 0001 	movt	r0, #2049	; 0x801
 800d01c:	4770      	bx	lr
 800d01e:	bf00      	nop

0800d020 <_ZNK12_GLOBAL__N_125font_OSD_Charset_168_type8get_sizeEv>:
 800d020:	210c      	movs	r1, #12
 800d022:	2212      	movs	r2, #18
 800d024:	e880 0006 	stmia.w	r0, {r1, r2}
 800d028:	4770      	bx	lr
 800d02a:	bf00      	nop

0800d02c <_ZNK12_GLOBAL__N_125font_OSD_Charset_169_type8get_dataEv>:
 800d02c:	f648 20b0 	movw	r0, #35504	; 0x8ab0
 800d030:	f6c0 0001 	movt	r0, #2049	; 0x801
 800d034:	4770      	bx	lr
 800d036:	bf00      	nop

0800d038 <_ZNK12_GLOBAL__N_125font_OSD_Charset_169_type8get_sizeEv>:
 800d038:	220c      	movs	r2, #12
 800d03a:	f04f 0c12 	mov.w	ip, #18
 800d03e:	e880 1004 	stmia.w	r0, {r2, ip}
 800d042:	4770      	bx	lr

0800d044 <_ZNK12_GLOBAL__N_125font_OSD_Charset_170_type8get_dataEv>:
 800d044:	f24a 00a8 	movw	r0, #41128	; 0xa0a8
 800d048:	f6c0 0001 	movt	r0, #2049	; 0x801
 800d04c:	4770      	bx	lr
 800d04e:	bf00      	nop

0800d050 <_ZNK12_GLOBAL__N_125font_OSD_Charset_170_type8get_sizeEv>:
 800d050:	210c      	movs	r1, #12
 800d052:	2212      	movs	r2, #18
 800d054:	e880 0006 	stmia.w	r0, {r1, r2}
 800d058:	4770      	bx	lr
 800d05a:	bf00      	nop

0800d05c <_ZNK12_GLOBAL__N_125font_OSD_Charset_171_type8get_dataEv>:
 800d05c:	f648 10c0 	movw	r0, #35264	; 0x89c0
 800d060:	f6c0 0001 	movt	r0, #2049	; 0x801
 800d064:	4770      	bx	lr
 800d066:	bf00      	nop

0800d068 <_ZNK12_GLOBAL__N_125font_OSD_Charset_171_type8get_sizeEv>:
 800d068:	220c      	movs	r2, #12
 800d06a:	f04f 0c12 	mov.w	ip, #18
 800d06e:	e880 1004 	stmia.w	r0, {r2, ip}
 800d072:	4770      	bx	lr

0800d074 <_ZNK12_GLOBAL__N_125font_OSD_Charset_172_type8get_dataEv>:
 800d074:	f645 5048 	movw	r0, #23880	; 0x5d48
 800d078:	f6c0 0001 	movt	r0, #2049	; 0x801
 800d07c:	4770      	bx	lr
 800d07e:	bf00      	nop

0800d080 <_ZNK12_GLOBAL__N_125font_OSD_Charset_172_type8get_sizeEv>:
 800d080:	210c      	movs	r1, #12
 800d082:	2212      	movs	r2, #18
 800d084:	e880 0006 	stmia.w	r0, {r1, r2}
 800d088:	4770      	bx	lr
 800d08a:	bf00      	nop

0800d08c <_ZNK12_GLOBAL__N_125font_OSD_Charset_173_type8get_dataEv>:
 800d08c:	f649 70e8 	movw	r0, #40936	; 0x9fe8
 800d090:	f6c0 0001 	movt	r0, #2049	; 0x801
 800d094:	4770      	bx	lr
 800d096:	bf00      	nop

0800d098 <_ZNK12_GLOBAL__N_125font_OSD_Charset_173_type8get_sizeEv>:
 800d098:	220c      	movs	r2, #12
 800d09a:	f04f 0c12 	mov.w	ip, #18
 800d09e:	e880 1004 	stmia.w	r0, {r2, ip}
 800d0a2:	4770      	bx	lr

0800d0a4 <_ZNK12_GLOBAL__N_125font_OSD_Charset_174_type8get_dataEv>:
 800d0a4:	f648 00e8 	movw	r0, #35048	; 0x88e8
 800d0a8:	f6c0 0001 	movt	r0, #2049	; 0x801
 800d0ac:	4770      	bx	lr
 800d0ae:	bf00      	nop

0800d0b0 <_ZNK12_GLOBAL__N_125font_OSD_Charset_174_type8get_sizeEv>:
 800d0b0:	210c      	movs	r1, #12
 800d0b2:	2212      	movs	r2, #18
 800d0b4:	e880 0006 	stmia.w	r0, {r1, r2}
 800d0b8:	4770      	bx	lr
 800d0ba:	bf00      	nop

0800d0bc <_ZNK12_GLOBAL__N_125font_OSD_Charset_175_type8get_dataEv>:
 800d0bc:	f247 6020 	movw	r0, #30240	; 0x7620
 800d0c0:	f6c0 0001 	movt	r0, #2049	; 0x801
 800d0c4:	4770      	bx	lr
 800d0c6:	bf00      	nop

0800d0c8 <_ZNK12_GLOBAL__N_125font_OSD_Charset_175_type8get_sizeEv>:
 800d0c8:	220c      	movs	r2, #12
 800d0ca:	f04f 0c12 	mov.w	ip, #18
 800d0ce:	e880 1004 	stmia.w	r0, {r2, ip}
 800d0d2:	4770      	bx	lr

0800d0d4 <_ZNK12_GLOBAL__N_125font_OSD_Charset_176_type8get_dataEv>:
 800d0d4:	f246 4078 	movw	r0, #25720	; 0x6478
 800d0d8:	f6c0 0001 	movt	r0, #2049	; 0x801
 800d0dc:	4770      	bx	lr
 800d0de:	bf00      	nop

0800d0e0 <_ZNK12_GLOBAL__N_125font_OSD_Charset_176_type8get_sizeEv>:
 800d0e0:	210c      	movs	r1, #12
 800d0e2:	2212      	movs	r2, #18
 800d0e4:	e880 0006 	stmia.w	r0, {r1, r2}
 800d0e8:	4770      	bx	lr
 800d0ea:	bf00      	nop

0800d0ec <_ZNK12_GLOBAL__N_125font_OSD_Charset_177_type8get_dataEv>:
 800d0ec:	f648 0078 	movw	r0, #34936	; 0x8878
 800d0f0:	f6c0 0001 	movt	r0, #2049	; 0x801
 800d0f4:	4770      	bx	lr
 800d0f6:	bf00      	nop

0800d0f8 <_ZNK12_GLOBAL__N_125font_OSD_Charset_177_type8get_sizeEv>:
 800d0f8:	220c      	movs	r2, #12
 800d0fa:	f04f 0c12 	mov.w	ip, #18
 800d0fe:	e880 1004 	stmia.w	r0, {r2, ip}
 800d102:	4770      	bx	lr

0800d104 <_ZNK12_GLOBAL__N_125font_OSD_Charset_178_type8get_dataEv>:
 800d104:	f646 0088 	movw	r0, #26760	; 0x6888
 800d108:	f6c0 0001 	movt	r0, #2049	; 0x801
 800d10c:	4770      	bx	lr
 800d10e:	bf00      	nop

0800d110 <_ZNK12_GLOBAL__N_125font_OSD_Charset_178_type8get_sizeEv>:
 800d110:	210c      	movs	r1, #12
 800d112:	2212      	movs	r2, #18
 800d114:	e880 0006 	stmia.w	r0, {r1, r2}
 800d118:	4770      	bx	lr
 800d11a:	bf00      	nop

0800d11c <_ZNK12_GLOBAL__N_125font_OSD_Charset_179_type8get_dataEv>:
 800d11c:	f247 20c8 	movw	r0, #29384	; 0x72c8
 800d120:	f6c0 0001 	movt	r0, #2049	; 0x801
 800d124:	4770      	bx	lr
 800d126:	bf00      	nop

0800d128 <_ZNK12_GLOBAL__N_125font_OSD_Charset_179_type8get_sizeEv>:
 800d128:	220c      	movs	r2, #12
 800d12a:	f04f 0c12 	mov.w	ip, #18
 800d12e:	e880 1004 	stmia.w	r0, {r2, ip}
 800d132:	4770      	bx	lr

0800d134 <_ZNK12_GLOBAL__N_125font_OSD_Charset_180_type8get_dataEv>:
 800d134:	f64a 60d8 	movw	r0, #44760	; 0xaed8
 800d138:	f6c0 0001 	movt	r0, #2049	; 0x801
 800d13c:	4770      	bx	lr
 800d13e:	bf00      	nop

0800d140 <_ZNK12_GLOBAL__N_125font_OSD_Charset_180_type8get_sizeEv>:
 800d140:	210c      	movs	r1, #12
 800d142:	2212      	movs	r2, #18
 800d144:	e880 0006 	stmia.w	r0, {r1, r2}
 800d148:	4770      	bx	lr
 800d14a:	bf00      	nop

0800d14c <_ZNK12_GLOBAL__N_125font_OSD_Charset_181_type8get_dataEv>:
 800d14c:	f649 5000 	movw	r0, #40192	; 0x9d00
 800d150:	f6c0 0001 	movt	r0, #2049	; 0x801
 800d154:	4770      	bx	lr
 800d156:	bf00      	nop

0800d158 <_ZNK12_GLOBAL__N_125font_OSD_Charset_181_type8get_sizeEv>:
 800d158:	220c      	movs	r2, #12
 800d15a:	f04f 0c12 	mov.w	ip, #18
 800d15e:	e880 1004 	stmia.w	r0, {r2, ip}
 800d162:	4770      	bx	lr

0800d164 <_ZNK12_GLOBAL__N_125font_OSD_Charset_182_type8get_dataEv>:
 800d164:	f248 7040 	movw	r0, #34624	; 0x8740
 800d168:	f6c0 0001 	movt	r0, #2049	; 0x801
 800d16c:	4770      	bx	lr
 800d16e:	bf00      	nop

0800d170 <_ZNK12_GLOBAL__N_125font_OSD_Charset_182_type8get_sizeEv>:
 800d170:	210c      	movs	r1, #12
 800d172:	2212      	movs	r2, #18
 800d174:	e880 0006 	stmia.w	r0, {r1, r2}
 800d178:	4770      	bx	lr
 800d17a:	bf00      	nop

0800d17c <_ZNK12_GLOBAL__N_125font_OSD_Charset_183_type8get_dataEv>:
 800d17c:	f247 4078 	movw	r0, #29816	; 0x7478
 800d180:	f6c0 0001 	movt	r0, #2049	; 0x801
 800d184:	4770      	bx	lr
 800d186:	bf00      	nop

0800d188 <_ZNK12_GLOBAL__N_125font_OSD_Charset_183_type8get_sizeEv>:
 800d188:	220c      	movs	r2, #12
 800d18a:	f04f 0c12 	mov.w	ip, #18
 800d18e:	e880 1004 	stmia.w	r0, {r2, ip}
 800d192:	4770      	bx	lr

0800d194 <_ZNK12_GLOBAL__N_125font_OSD_Charset_184_type8get_dataEv>:
 800d194:	f649 4060 	movw	r0, #40032	; 0x9c60
 800d198:	f6c0 0001 	movt	r0, #2049	; 0x801
 800d19c:	4770      	bx	lr
 800d19e:	bf00      	nop

0800d1a0 <_ZNK12_GLOBAL__N_125font_OSD_Charset_184_type8get_sizeEv>:
 800d1a0:	210c      	movs	r1, #12
 800d1a2:	2212      	movs	r2, #18
 800d1a4:	e880 0006 	stmia.w	r0, {r1, r2}
 800d1a8:	4770      	bx	lr
 800d1aa:	bf00      	nop

0800d1ac <_ZNK12_GLOBAL__N_125font_OSD_Charset_185_type8get_dataEv>:
 800d1ac:	f248 60c0 	movw	r0, #34496	; 0x86c0
 800d1b0:	f6c0 0001 	movt	r0, #2049	; 0x801
 800d1b4:	4770      	bx	lr
 800d1b6:	bf00      	nop

0800d1b8 <_ZNK12_GLOBAL__N_125font_OSD_Charset_185_type8get_sizeEv>:
 800d1b8:	220c      	movs	r2, #12
 800d1ba:	f04f 0c12 	mov.w	ip, #18
 800d1be:	e880 1004 	stmia.w	r0, {r2, ip}
 800d1c2:	4770      	bx	lr

0800d1c4 <_ZNK12_GLOBAL__N_125font_OSD_Charset_186_type8get_dataEv>:
 800d1c4:	f648 10f8 	movw	r0, #35320	; 0x89f8
 800d1c8:	f6c0 0001 	movt	r0, #2049	; 0x801
 800d1cc:	4770      	bx	lr
 800d1ce:	bf00      	nop

0800d1d0 <_ZNK12_GLOBAL__N_125font_OSD_Charset_186_type8get_sizeEv>:
 800d1d0:	210c      	movs	r1, #12
 800d1d2:	2212      	movs	r2, #18
 800d1d4:	e880 0006 	stmia.w	r0, {r1, r2}
 800d1d8:	4770      	bx	lr
 800d1da:	bf00      	nop

0800d1dc <_ZNK12_GLOBAL__N_125font_OSD_Charset_187_type8get_dataEv>:
 800d1dc:	f649 00d8 	movw	r0, #39128	; 0x98d8
 800d1e0:	f6c0 0001 	movt	r0, #2049	; 0x801
 800d1e4:	4770      	bx	lr
 800d1e6:	bf00      	nop

0800d1e8 <_ZNK12_GLOBAL__N_125font_OSD_Charset_187_type8get_sizeEv>:
 800d1e8:	220c      	movs	r2, #12
 800d1ea:	f04f 0c12 	mov.w	ip, #18
 800d1ee:	e880 1004 	stmia.w	r0, {r2, ip}
 800d1f2:	4770      	bx	lr

0800d1f4 <_ZNK12_GLOBAL__N_125font_OSD_Charset_188_type8get_dataEv>:
 800d1f4:	f24a 30e0 	movw	r0, #41952	; 0xa3e0
 800d1f8:	f6c0 0001 	movt	r0, #2049	; 0x801
 800d1fc:	4770      	bx	lr
 800d1fe:	bf00      	nop

0800d200 <_ZNK12_GLOBAL__N_125font_OSD_Charset_188_type8get_sizeEv>:
 800d200:	210c      	movs	r1, #12
 800d202:	2212      	movs	r2, #18
 800d204:	e880 0006 	stmia.w	r0, {r1, r2}
 800d208:	4770      	bx	lr
 800d20a:	bf00      	nop

0800d20c <_ZNK12_GLOBAL__N_125font_OSD_Charset_189_type8get_dataEv>:
 800d20c:	f247 3018 	movw	r0, #29464	; 0x7318
 800d210:	f6c0 0001 	movt	r0, #2049	; 0x801
 800d214:	4770      	bx	lr
 800d216:	bf00      	nop

0800d218 <_ZNK12_GLOBAL__N_125font_OSD_Charset_189_type8get_sizeEv>:
 800d218:	220c      	movs	r2, #12
 800d21a:	f04f 0c12 	mov.w	ip, #18
 800d21e:	e880 1004 	stmia.w	r0, {r2, ip}
 800d222:	4770      	bx	lr

0800d224 <_ZNK12_GLOBAL__N_125font_OSD_Charset_190_type8get_dataEv>:
 800d224:	f248 40f8 	movw	r0, #34040	; 0x84f8
 800d228:	f6c0 0001 	movt	r0, #2049	; 0x801
 800d22c:	4770      	bx	lr
 800d22e:	bf00      	nop

0800d230 <_ZNK12_GLOBAL__N_125font_OSD_Charset_190_type8get_sizeEv>:
 800d230:	210c      	movs	r1, #12
 800d232:	2212      	movs	r2, #18
 800d234:	e880 0006 	stmia.w	r0, {r1, r2}
 800d238:	4770      	bx	lr
 800d23a:	bf00      	nop

0800d23c <_ZNK12_GLOBAL__N_125font_OSD_Charset_191_type8get_dataEv>:
 800d23c:	f64a 4090 	movw	r0, #44176	; 0xac90
 800d240:	f6c0 0001 	movt	r0, #2049	; 0x801
 800d244:	4770      	bx	lr
 800d246:	bf00      	nop

0800d248 <_ZNK12_GLOBAL__N_125font_OSD_Charset_191_type8get_sizeEv>:
 800d248:	220c      	movs	r2, #12
 800d24a:	f04f 0c12 	mov.w	ip, #18
 800d24e:	e880 1004 	stmia.w	r0, {r2, ip}
 800d252:	4770      	bx	lr

0800d254 <_ZNK12_GLOBAL__N_125font_OSD_Charset_192_type8get_dataEv>:
 800d254:	f649 10c8 	movw	r0, #39368	; 0x99c8
 800d258:	f6c0 0001 	movt	r0, #2049	; 0x801
 800d25c:	4770      	bx	lr
 800d25e:	bf00      	nop

0800d260 <_ZNK12_GLOBAL__N_125font_OSD_Charset_192_type8get_sizeEv>:
 800d260:	210c      	movs	r1, #12
 800d262:	2212      	movs	r2, #18
 800d264:	e880 0006 	stmia.w	r0, {r1, r2}
 800d268:	4770      	bx	lr
 800d26a:	bf00      	nop

0800d26c <_ZNK12_GLOBAL__N_125font_OSD_Charset_193_type8get_dataEv>:
 800d26c:	f248 3090 	movw	r0, #33680	; 0x8390
 800d270:	f6c0 0001 	movt	r0, #2049	; 0x801
 800d274:	4770      	bx	lr
 800d276:	bf00      	nop

0800d278 <_ZNK12_GLOBAL__N_125font_OSD_Charset_193_type8get_sizeEv>:
 800d278:	220c      	movs	r2, #12
 800d27a:	f04f 0c12 	mov.w	ip, #18
 800d27e:	e880 1004 	stmia.w	r0, {r2, ip}
 800d282:	4770      	bx	lr

0800d284 <_ZNK12_GLOBAL__N_125font_OSD_Charset_194_type8get_dataEv>:
 800d284:	f247 1018 	movw	r0, #28952	; 0x7118
 800d288:	f6c0 0001 	movt	r0, #2049	; 0x801
 800d28c:	4770      	bx	lr
 800d28e:	bf00      	nop

0800d290 <_ZNK12_GLOBAL__N_125font_OSD_Charset_194_type8get_sizeEv>:
 800d290:	210c      	movs	r1, #12
 800d292:	2212      	movs	r2, #18
 800d294:	e880 0006 	stmia.w	r0, {r1, r2}
 800d298:	4770      	bx	lr
 800d29a:	bf00      	nop

0800d29c <_ZNK12_GLOBAL__N_125font_OSD_Charset_195_type8get_dataEv>:
 800d29c:	f645 60d8 	movw	r0, #24280	; 0x5ed8
 800d2a0:	f6c0 0001 	movt	r0, #2049	; 0x801
 800d2a4:	4770      	bx	lr
 800d2a6:	bf00      	nop

0800d2a8 <_ZNK12_GLOBAL__N_125font_OSD_Charset_195_type8get_sizeEv>:
 800d2a8:	220c      	movs	r2, #12
 800d2aa:	f04f 0c12 	mov.w	ip, #18
 800d2ae:	e880 1004 	stmia.w	r0, {r2, ip}
 800d2b2:	4770      	bx	lr

0800d2b4 <_ZNK12_GLOBAL__N_125font_OSD_Charset_196_type8get_dataEv>:
 800d2b4:	f248 30f8 	movw	r0, #33784	; 0x83f8
 800d2b8:	f6c0 0001 	movt	r0, #2049	; 0x801
 800d2bc:	4770      	bx	lr
 800d2be:	bf00      	nop

0800d2c0 <_ZNK12_GLOBAL__N_125font_OSD_Charset_196_type8get_sizeEv>:
 800d2c0:	210c      	movs	r1, #12
 800d2c2:	2212      	movs	r2, #18
 800d2c4:	e880 0006 	stmia.w	r0, {r1, r2}
 800d2c8:	4770      	bx	lr
 800d2ca:	bf00      	nop

0800d2cc <_ZNK12_GLOBAL__N_125font_OSD_Charset_197_type8get_dataEv>:
 800d2cc:	f647 1040 	movw	r0, #31040	; 0x7940
 800d2d0:	f6c0 0001 	movt	r0, #2049	; 0x801
 800d2d4:	4770      	bx	lr
 800d2d6:	bf00      	nop

0800d2d8 <_ZNK12_GLOBAL__N_125font_OSD_Charset_197_type8get_sizeEv>:
 800d2d8:	220c      	movs	r2, #12
 800d2da:	f04f 0c12 	mov.w	ip, #18
 800d2de:	e880 1004 	stmia.w	r0, {r2, ip}
 800d2e2:	4770      	bx	lr

0800d2e4 <_ZNK12_GLOBAL__N_125font_OSD_Charset_198_type8get_dataEv>:
 800d2e4:	f246 50f0 	movw	r0, #26096	; 0x65f0
 800d2e8:	f6c0 0001 	movt	r0, #2049	; 0x801
 800d2ec:	4770      	bx	lr
 800d2ee:	bf00      	nop

0800d2f0 <_ZNK12_GLOBAL__N_125font_OSD_Charset_198_type8get_sizeEv>:
 800d2f0:	210c      	movs	r1, #12
 800d2f2:	2212      	movs	r2, #18
 800d2f4:	e880 0006 	stmia.w	r0, {r1, r2}
 800d2f8:	4770      	bx	lr
 800d2fa:	bf00      	nop

0800d2fc <_ZNK12_GLOBAL__N_125font_OSD_Charset_199_type8get_dataEv>:
 800d2fc:	f648 40d8 	movw	r0, #36056	; 0x8cd8
 800d300:	f6c0 0001 	movt	r0, #2049	; 0x801
 800d304:	4770      	bx	lr
 800d306:	bf00      	nop

0800d308 <_ZNK12_GLOBAL__N_125font_OSD_Charset_199_type8get_sizeEv>:
 800d308:	220c      	movs	r2, #12
 800d30a:	f04f 0c12 	mov.w	ip, #18
 800d30e:	e880 1004 	stmia.w	r0, {r2, ip}
 800d312:	4770      	bx	lr

0800d314 <_ZNK12_GLOBAL__N_125font_OSD_Charset_200_type8get_dataEv>:
 800d314:	f64a 10e8 	movw	r0, #43496	; 0xa9e8
 800d318:	f6c0 0001 	movt	r0, #2049	; 0x801
 800d31c:	4770      	bx	lr
 800d31e:	bf00      	nop

0800d320 <_ZNK12_GLOBAL__N_125font_OSD_Charset_200_type8get_sizeEv>:
 800d320:	210c      	movs	r1, #12
 800d322:	2212      	movs	r2, #18
 800d324:	e880 0006 	stmia.w	r0, {r1, r2}
 800d328:	4770      	bx	lr
 800d32a:	bf00      	nop

0800d32c <_ZNK12_GLOBAL__N_125font_OSD_Charset_201_type8get_dataEv>:
 800d32c:	f249 7068 	movw	r0, #38760	; 0x9768
 800d330:	f6c0 0001 	movt	r0, #2049	; 0x801
 800d334:	4770      	bx	lr
 800d336:	bf00      	nop

0800d338 <_ZNK12_GLOBAL__N_125font_OSD_Charset_201_type8get_sizeEv>:
 800d338:	220c      	movs	r2, #12
 800d33a:	f04f 0c12 	mov.w	ip, #18
 800d33e:	e880 1004 	stmia.w	r0, {r2, ip}
 800d342:	4770      	bx	lr

0800d344 <_ZNK12_GLOBAL__N_125font_OSD_Charset_202_type8get_dataEv>:
 800d344:	f248 2018 	movw	r0, #33304	; 0x8218
 800d348:	f6c0 0001 	movt	r0, #2049	; 0x801
 800d34c:	4770      	bx	lr
 800d34e:	bf00      	nop

0800d350 <_ZNK12_GLOBAL__N_125font_OSD_Charset_202_type8get_sizeEv>:
 800d350:	210c      	movs	r1, #12
 800d352:	2212      	movs	r2, #18
 800d354:	e880 0006 	stmia.w	r0, {r1, r2}
 800d358:	4770      	bx	lr
 800d35a:	bf00      	nop

0800d35c <_ZNK12_GLOBAL__N_125font_OSD_Charset_203_type8get_dataEv>:
 800d35c:	f646 7090 	movw	r0, #28560	; 0x6f90
 800d360:	f6c0 0001 	movt	r0, #2049	; 0x801
 800d364:	4770      	bx	lr
 800d366:	bf00      	nop

0800d368 <_ZNK12_GLOBAL__N_125font_OSD_Charset_203_type8get_sizeEv>:
 800d368:	220c      	movs	r2, #12
 800d36a:	f04f 0c12 	mov.w	ip, #18
 800d36e:	e880 1004 	stmia.w	r0, {r2, ip}
 800d372:	4770      	bx	lr

0800d374 <_ZNK12_GLOBAL__N_125font_OSD_Charset_204_type8get_dataEv>:
 800d374:	f24b 1008 	movw	r0, #45320	; 0xb108
 800d378:	f6c0 0001 	movt	r0, #2049	; 0x801
 800d37c:	4770      	bx	lr
 800d37e:	bf00      	nop

0800d380 <_ZNK12_GLOBAL__N_125font_OSD_Charset_204_type8get_sizeEv>:
 800d380:	210c      	movs	r1, #12
 800d382:	2212      	movs	r2, #18
 800d384:	e880 0006 	stmia.w	r0, {r1, r2}
 800d388:	4770      	bx	lr
 800d38a:	bf00      	nop

0800d38c <_ZNK12_GLOBAL__N_125font_OSD_Charset_205_type8get_dataEv>:
 800d38c:	f248 00b8 	movw	r0, #32952	; 0x80b8
 800d390:	f6c0 0001 	movt	r0, #2049	; 0x801
 800d394:	4770      	bx	lr
 800d396:	bf00      	nop

0800d398 <_ZNK12_GLOBAL__N_125font_OSD_Charset_205_type8get_sizeEv>:
 800d398:	220c      	movs	r2, #12
 800d39a:	f04f 0c12 	mov.w	ip, #18
 800d39e:	e880 1004 	stmia.w	r0, {r2, ip}
 800d3a2:	4770      	bx	lr

0800d3a4 <_ZNK12_GLOBAL__N_125font_OSD_Charset_206_type8get_dataEv>:
 800d3a4:	f646 6050 	movw	r0, #28240	; 0x6e50
 800d3a8:	f6c0 0001 	movt	r0, #2049	; 0x801
 800d3ac:	4770      	bx	lr
 800d3ae:	bf00      	nop

0800d3b0 <_ZNK12_GLOBAL__N_125font_OSD_Charset_206_type8get_sizeEv>:
 800d3b0:	210c      	movs	r1, #12
 800d3b2:	2212      	movs	r2, #18
 800d3b4:	e880 0006 	stmia.w	r0, {r1, r2}
 800d3b8:	4770      	bx	lr
 800d3ba:	bf00      	nop

0800d3bc <_ZNK12_GLOBAL__N_125font_OSD_Charset_207_type8get_dataEv>:
 800d3bc:	f649 60c0 	movw	r0, #40640	; 0x9ec0
 800d3c0:	f6c0 0001 	movt	r0, #2049	; 0x801
 800d3c4:	4770      	bx	lr
 800d3c6:	bf00      	nop

0800d3c8 <_ZNK12_GLOBAL__N_125font_OSD_Charset_207_type8get_sizeEv>:
 800d3c8:	220c      	movs	r2, #12
 800d3ca:	f04f 0c12 	mov.w	ip, #18
 800d3ce:	e880 1004 	stmia.w	r0, {r2, ip}
 800d3d2:	4770      	bx	lr

0800d3d4 <_ZNK12_GLOBAL__N_125font_OSD_Charset_208_type8get_dataEv>:
 800d3d4:	f649 6070 	movw	r0, #40560	; 0x9e70
 800d3d8:	f6c0 0001 	movt	r0, #2049	; 0x801
 800d3dc:	4770      	bx	lr
 800d3de:	bf00      	nop

0800d3e0 <_ZNK12_GLOBAL__N_125font_OSD_Charset_208_type8get_sizeEv>:
 800d3e0:	210c      	movs	r1, #12
 800d3e2:	2212      	movs	r2, #18
 800d3e4:	e880 0006 	stmia.w	r0, {r1, r2}
 800d3e8:	4770      	bx	lr
 800d3ea:	bf00      	nop

0800d3ec <_ZNK12_GLOBAL__N_125font_OSD_Charset_209_type8get_dataEv>:
 800d3ec:	f646 50a8 	movw	r0, #28072	; 0x6da8
 800d3f0:	f6c0 0001 	movt	r0, #2049	; 0x801
 800d3f4:	4770      	bx	lr
 800d3f6:	bf00      	nop

0800d3f8 <_ZNK12_GLOBAL__N_125font_OSD_Charset_209_type8get_sizeEv>:
 800d3f8:	220c      	movs	r2, #12
 800d3fa:	f04f 0c12 	mov.w	ip, #18
 800d3fe:	e880 1004 	stmia.w	r0, {r2, ip}
 800d402:	4770      	bx	lr

0800d404 <_ZNK12_GLOBAL__N_125font_OSD_Charset_210_type8get_dataEv>:
 800d404:	f647 60f8 	movw	r0, #32504	; 0x7ef8
 800d408:	f6c0 0001 	movt	r0, #2049	; 0x801
 800d40c:	4770      	bx	lr
 800d40e:	bf00      	nop

0800d410 <_ZNK12_GLOBAL__N_125font_OSD_Charset_210_type8get_sizeEv>:
 800d410:	210c      	movs	r1, #12
 800d412:	2212      	movs	r2, #18
 800d414:	e880 0006 	stmia.w	r0, {r1, r2}
 800d418:	4770      	bx	lr
 800d41a:	bf00      	nop

0800d41c <_ZNK12_GLOBAL__N_125font_OSD_Charset_211_type8get_dataEv>:
 800d41c:	f646 5010 	movw	r0, #27920	; 0x6d10
 800d420:	f6c0 0001 	movt	r0, #2049	; 0x801
 800d424:	4770      	bx	lr
 800d426:	bf00      	nop

0800d428 <_ZNK12_GLOBAL__N_125font_OSD_Charset_211_type8get_sizeEv>:
 800d428:	220c      	movs	r2, #12
 800d42a:	f04f 0c12 	mov.w	ip, #18
 800d42e:	e880 1004 	stmia.w	r0, {r2, ip}
 800d432:	4770      	bx	lr

0800d434 <_ZNK12_GLOBAL__N_125font_OSD_Charset_212_type8get_dataEv>:
 800d434:	f64a 60a0 	movw	r0, #44704	; 0xaea0
 800d438:	f6c0 0001 	movt	r0, #2049	; 0x801
 800d43c:	4770      	bx	lr
 800d43e:	bf00      	nop

0800d440 <_ZNK12_GLOBAL__N_125font_OSD_Charset_212_type8get_sizeEv>:
 800d440:	210c      	movs	r1, #12
 800d442:	2212      	movs	r2, #18
 800d444:	e880 0006 	stmia.w	r0, {r1, r2}
 800d448:	4770      	bx	lr
 800d44a:	bf00      	nop

0800d44c <_ZNK12_GLOBAL__N_125font_OSD_Charset_213_type8get_dataEv>:
 800d44c:	f647 6088 	movw	r0, #32392	; 0x7e88
 800d450:	f6c0 0001 	movt	r0, #2049	; 0x801
 800d454:	4770      	bx	lr
 800d456:	bf00      	nop

0800d458 <_ZNK12_GLOBAL__N_125font_OSD_Charset_213_type8get_sizeEv>:
 800d458:	220c      	movs	r2, #12
 800d45a:	f04f 0c12 	mov.w	ip, #18
 800d45e:	e880 1004 	stmia.w	r0, {r2, ip}
 800d462:	4770      	bx	lr

0800d464 <_ZNK12_GLOBAL__N_125font_OSD_Charset_214_type8get_dataEv>:
 800d464:	f646 4038 	movw	r0, #27704	; 0x6c38
 800d468:	f6c0 0001 	movt	r0, #2049	; 0x801
 800d46c:	4770      	bx	lr
 800d46e:	bf00      	nop

0800d470 <_ZNK12_GLOBAL__N_125font_OSD_Charset_214_type8get_sizeEv>:
 800d470:	210c      	movs	r1, #12
 800d472:	2212      	movs	r2, #18
 800d474:	e880 0006 	stmia.w	r0, {r1, r2}
 800d478:	4770      	bx	lr
 800d47a:	bf00      	nop

0800d47c <_ZNK12_GLOBAL__N_125font_OSD_Charset_215_type8get_dataEv>:
 800d47c:	f64a 50e8 	movw	r0, #44520	; 0xade8
 800d480:	f6c0 0001 	movt	r0, #2049	; 0x801
 800d484:	4770      	bx	lr
 800d486:	bf00      	nop

0800d488 <_ZNK12_GLOBAL__N_125font_OSD_Charset_215_type8get_sizeEv>:
 800d488:	220c      	movs	r2, #12
 800d48a:	f04f 0c12 	mov.w	ip, #18
 800d48e:	e880 1004 	stmia.w	r0, {r2, ip}
 800d492:	4770      	bx	lr

0800d494 <_ZNK12_GLOBAL__N_125font_OSD_Charset_216_type8get_dataEv>:
 800d494:	f649 30a8 	movw	r0, #39848	; 0x9ba8
 800d498:	f6c0 0001 	movt	r0, #2049	; 0x801
 800d49c:	4770      	bx	lr
 800d49e:	bf00      	nop

0800d4a0 <_ZNK12_GLOBAL__N_125font_OSD_Charset_216_type8get_sizeEv>:
 800d4a0:	210c      	movs	r1, #12
 800d4a2:	2212      	movs	r2, #18
 800d4a4:	e880 0006 	stmia.w	r0, {r1, r2}
 800d4a8:	4770      	bx	lr
 800d4aa:	bf00      	nop

0800d4ac <_ZNK12_GLOBAL__N_125font_OSD_Charset_217_type8get_dataEv>:
 800d4ac:	f646 3040 	movw	r0, #27456	; 0x6b40
 800d4b0:	f6c0 0001 	movt	r0, #2049	; 0x801
 800d4b4:	4770      	bx	lr
 800d4b6:	bf00      	nop

0800d4b8 <_ZNK12_GLOBAL__N_125font_OSD_Charset_217_type8get_sizeEv>:
 800d4b8:	220c      	movs	r2, #12
 800d4ba:	f04f 0c12 	mov.w	ip, #18
 800d4be:	e880 1004 	stmia.w	r0, {r2, ip}
 800d4c2:	4770      	bx	lr

0800d4c4 <_ZNK12_GLOBAL__N_125font_OSD_Charset_218_type8get_dataEv>:
 800d4c4:	f649 30e0 	movw	r0, #39904	; 0x9be0
 800d4c8:	f6c0 0001 	movt	r0, #2049	; 0x801
 800d4cc:	4770      	bx	lr
 800d4ce:	bf00      	nop

0800d4d0 <_ZNK12_GLOBAL__N_125font_OSD_Charset_218_type8get_sizeEv>:
 800d4d0:	210c      	movs	r1, #12
 800d4d2:	2212      	movs	r2, #18
 800d4d4:	e880 0006 	stmia.w	r0, {r1, r2}
 800d4d8:	4770      	bx	lr
 800d4da:	bf00      	nop

0800d4dc <_ZNK12_GLOBAL__N_125font_OSD_Charset_219_type8get_dataEv>:
 800d4dc:	f649 7080 	movw	r0, #40832	; 0x9f80
 800d4e0:	f6c0 0001 	movt	r0, #2049	; 0x801
 800d4e4:	4770      	bx	lr
 800d4e6:	bf00      	nop

0800d4e8 <_ZNK12_GLOBAL__N_125font_OSD_Charset_219_type8get_sizeEv>:
 800d4e8:	220c      	movs	r2, #12
 800d4ea:	f04f 0c12 	mov.w	ip, #18
 800d4ee:	e880 1004 	stmia.w	r0, {r2, ip}
 800d4f2:	4770      	bx	lr

0800d4f4 <_ZNK12_GLOBAL__N_125font_OSD_Charset_220_type8get_dataEv>:
 800d4f4:	f648 5060 	movw	r0, #36192	; 0x8d60
 800d4f8:	f6c0 0001 	movt	r0, #2049	; 0x801
 800d4fc:	4770      	bx	lr
 800d4fe:	bf00      	nop

0800d500 <_ZNK12_GLOBAL__N_125font_OSD_Charset_220_type8get_sizeEv>:
 800d500:	210c      	movs	r1, #12
 800d502:	2212      	movs	r2, #18
 800d504:	e880 0006 	stmia.w	r0, {r1, r2}
 800d508:	4770      	bx	lr
 800d50a:	bf00      	nop

0800d50c <_ZNK12_GLOBAL__N_125font_OSD_Charset_221_type8get_dataEv>:
 800d50c:	f647 30c8 	movw	r0, #31688	; 0x7bc8
 800d510:	f6c0 0001 	movt	r0, #2049	; 0x801
 800d514:	4770      	bx	lr
 800d516:	bf00      	nop

0800d518 <_ZNK12_GLOBAL__N_125font_OSD_Charset_221_type8get_sizeEv>:
 800d518:	220c      	movs	r2, #12
 800d51a:	f04f 0c12 	mov.w	ip, #18
 800d51e:	e880 1004 	stmia.w	r0, {r2, ip}
 800d522:	4770      	bx	lr

0800d524 <_ZNK12_GLOBAL__N_125font_OSD_Charset_222_type8get_dataEv>:
 800d524:	f646 10a0 	movw	r0, #27040	; 0x69a0
 800d528:	f6c0 0001 	movt	r0, #2049	; 0x801
 800d52c:	4770      	bx	lr
 800d52e:	bf00      	nop

0800d530 <_ZNK12_GLOBAL__N_125font_OSD_Charset_222_type8get_sizeEv>:
 800d530:	210c      	movs	r1, #12
 800d532:	2212      	movs	r2, #18
 800d534:	e880 0006 	stmia.w	r0, {r1, r2}
 800d538:	4770      	bx	lr
 800d53a:	bf00      	nop

0800d53c <_ZNK12_GLOBAL__N_125font_OSD_Charset_223_type8get_dataEv>:
 800d53c:	f64a 4008 	movw	r0, #44040	; 0xac08
 800d540:	f6c0 0001 	movt	r0, #2049	; 0x801
 800d544:	4770      	bx	lr
 800d546:	bf00      	nop

0800d548 <_ZNK12_GLOBAL__N_125font_OSD_Charset_223_type8get_sizeEv>:
 800d548:	220c      	movs	r2, #12
 800d54a:	f04f 0c12 	mov.w	ip, #18
 800d54e:	e880 1004 	stmia.w	r0, {r2, ip}
 800d552:	4770      	bx	lr

0800d554 <_ZNK12_GLOBAL__N_125font_OSD_Charset_224_type8get_dataEv>:
 800d554:	f647 20b8 	movw	r0, #31416	; 0x7ab8
 800d558:	f6c0 0001 	movt	r0, #2049	; 0x801
 800d55c:	4770      	bx	lr
 800d55e:	bf00      	nop

0800d560 <_ZNK12_GLOBAL__N_125font_OSD_Charset_224_type8get_sizeEv>:
 800d560:	210c      	movs	r1, #12
 800d562:	2212      	movs	r2, #18
 800d564:	e880 0006 	stmia.w	r0, {r1, r2}
 800d568:	4770      	bx	lr
 800d56a:	bf00      	nop

0800d56c <_ZNK12_GLOBAL__N_125font_OSD_Charset_225_type8get_dataEv>:
 800d56c:	f646 00f8 	movw	r0, #26872	; 0x68f8
 800d570:	f6c0 0001 	movt	r0, #2049	; 0x801
 800d574:	4770      	bx	lr
 800d576:	bf00      	nop

0800d578 <_ZNK12_GLOBAL__N_125font_OSD_Charset_225_type8get_sizeEv>:
 800d578:	220c      	movs	r2, #12
 800d57a:	f04f 0c12 	mov.w	ip, #18
 800d57e:	e880 1004 	stmia.w	r0, {r2, ip}
 800d582:	4770      	bx	lr

0800d584 <_ZNK12_GLOBAL__N_125font_OSD_Charset_226_type8get_dataEv>:
 800d584:	f64a 3010 	movw	r0, #43792	; 0xab10
 800d588:	f6c0 0001 	movt	r0, #2049	; 0x801
 800d58c:	4770      	bx	lr
 800d58e:	bf00      	nop

0800d590 <_ZNK12_GLOBAL__N_125font_OSD_Charset_226_type8get_sizeEv>:
 800d590:	210c      	movs	r1, #12
 800d592:	2212      	movs	r2, #18
 800d594:	e880 0006 	stmia.w	r0, {r1, r2}
 800d598:	4770      	bx	lr
 800d59a:	bf00      	nop

0800d59c <_ZNK12_GLOBAL__N_125font_OSD_Charset_227_type8get_dataEv>:
 800d59c:	f649 0070 	movw	r0, #39024	; 0x9870
 800d5a0:	f6c0 0001 	movt	r0, #2049	; 0x801
 800d5a4:	4770      	bx	lr
 800d5a6:	bf00      	nop

0800d5a8 <_ZNK12_GLOBAL__N_125font_OSD_Charset_227_type8get_sizeEv>:
 800d5a8:	220c      	movs	r2, #12
 800d5aa:	f04f 0c12 	mov.w	ip, #18
 800d5ae:	e880 1004 	stmia.w	r0, {r2, ip}
 800d5b2:	4770      	bx	lr

0800d5b4 <_ZNK12_GLOBAL__N_125font_OSD_Charset_228_type8get_dataEv>:
 800d5b4:	f248 20f0 	movw	r0, #33520	; 0x82f0
 800d5b8:	f6c0 0001 	movt	r0, #2049	; 0x801
 800d5bc:	4770      	bx	lr
 800d5be:	bf00      	nop

0800d5c0 <_ZNK12_GLOBAL__N_125font_OSD_Charset_228_type8get_sizeEv>:
 800d5c0:	210c      	movs	r1, #12
 800d5c2:	2212      	movs	r2, #18
 800d5c4:	e880 0006 	stmia.w	r0, {r1, r2}
 800d5c8:	4770      	bx	lr
 800d5ca:	bf00      	nop

0800d5cc <_ZNK12_GLOBAL__N_125font_OSD_Charset_229_type8get_dataEv>:
 800d5cc:	f64a 2020 	movw	r0, #43552	; 0xaa20
 800d5d0:	f6c0 0001 	movt	r0, #2049	; 0x801
 800d5d4:	4770      	bx	lr
 800d5d6:	bf00      	nop

0800d5d8 <_ZNK12_GLOBAL__N_125font_OSD_Charset_229_type8get_sizeEv>:
 800d5d8:	220c      	movs	r2, #12
 800d5da:	f04f 0c12 	mov.w	ip, #18
 800d5de:	e880 1004 	stmia.w	r0, {r2, ip}
 800d5e2:	4770      	bx	lr

0800d5e4 <_ZNK12_GLOBAL__N_125font_OSD_Charset_230_type8get_dataEv>:
 800d5e4:	f246 7010 	movw	r0, #26384	; 0x6710
 800d5e8:	f6c0 0001 	movt	r0, #2049	; 0x801
 800d5ec:	4770      	bx	lr
 800d5ee:	bf00      	nop

0800d5f0 <_ZNK12_GLOBAL__N_125font_OSD_Charset_230_type8get_sizeEv>:
 800d5f0:	210c      	movs	r1, #12
 800d5f2:	2212      	movs	r2, #18
 800d5f4:	e880 0006 	stmia.w	r0, {r1, r2}
 800d5f8:	4770      	bx	lr
 800d5fa:	bf00      	nop

0800d5fc <_ZNK12_GLOBAL__N_125font_OSD_Charset_231_type8get_dataEv>:
 800d5fc:	f648 20e8 	movw	r0, #35560	; 0x8ae8
 800d600:	f6c0 0001 	movt	r0, #2049	; 0x801
 800d604:	4770      	bx	lr
 800d606:	bf00      	nop

0800d608 <_ZNK12_GLOBAL__N_125font_OSD_Charset_231_type8get_sizeEv>:
 800d608:	220c      	movs	r2, #12
 800d60a:	f04f 0c12 	mov.w	ip, #18
 800d60e:	e880 1004 	stmia.w	r0, {r2, ip}
 800d612:	4770      	bx	lr

0800d614 <_ZNK12_GLOBAL__N_125font_OSD_Charset_232_type8get_dataEv>:
 800d614:	f647 0018 	movw	r0, #30744	; 0x7818
 800d618:	f6c0 0001 	movt	r0, #2049	; 0x801
 800d61c:	4770      	bx	lr
 800d61e:	bf00      	nop

0800d620 <_ZNK12_GLOBAL__N_125font_OSD_Charset_232_type8get_sizeEv>:
 800d620:	210c      	movs	r1, #12
 800d622:	2212      	movs	r2, #18
 800d624:	e880 0006 	stmia.w	r0, {r1, r2}
 800d628:	4770      	bx	lr
 800d62a:	bf00      	nop

0800d62c <_ZNK12_GLOBAL__N_125font_OSD_Charset_233_type8get_dataEv>:
 800d62c:	f647 0050 	movw	r0, #30800	; 0x7850
 800d630:	f6c0 0001 	movt	r0, #2049	; 0x801
 800d634:	4770      	bx	lr
 800d636:	bf00      	nop

0800d638 <_ZNK12_GLOBAL__N_125font_OSD_Charset_233_type8get_sizeEv>:
 800d638:	220c      	movs	r2, #12
 800d63a:	f04f 0c12 	mov.w	ip, #18
 800d63e:	e880 1004 	stmia.w	r0, {r2, ip}
 800d642:	4770      	bx	lr

0800d644 <_ZNK12_GLOBAL__N_125font_OSD_Charset_234_type8get_dataEv>:
 800d644:	f64a 00a8 	movw	r0, #43176	; 0xa8a8
 800d648:	f6c0 0001 	movt	r0, #2049	; 0x801
 800d64c:	4770      	bx	lr
 800d64e:	bf00      	nop

0800d650 <_ZNK12_GLOBAL__N_125font_OSD_Charset_234_type8get_sizeEv>:
 800d650:	210c      	movs	r1, #12
 800d652:	2212      	movs	r2, #18
 800d654:	e880 0006 	stmia.w	r0, {r1, r2}
 800d658:	4770      	bx	lr
 800d65a:	bf00      	nop

0800d65c <_ZNK12_GLOBAL__N_125font_OSD_Charset_235_type8get_dataEv>:
 800d65c:	f249 5088 	movw	r0, #38280	; 0x9588
 800d660:	f6c0 0001 	movt	r0, #2049	; 0x801
 800d664:	4770      	bx	lr
 800d666:	bf00      	nop

0800d668 <_ZNK12_GLOBAL__N_125font_OSD_Charset_235_type8get_sizeEv>:
 800d668:	220c      	movs	r2, #12
 800d66a:	f04f 0c12 	mov.w	ip, #18
 800d66e:	e880 1004 	stmia.w	r0, {r2, ip}
 800d672:	4770      	bx	lr

0800d674 <_ZNK12_GLOBAL__N_125font_OSD_Charset_236_type8get_dataEv>:
 800d674:	f246 5068 	movw	r0, #25960	; 0x6568
 800d678:	f6c0 0001 	movt	r0, #2049	; 0x801
 800d67c:	4770      	bx	lr
 800d67e:	bf00      	nop

0800d680 <_ZNK12_GLOBAL__N_125font_OSD_Charset_236_type8get_sizeEv>:
 800d680:	210c      	movs	r1, #12
 800d682:	2212      	movs	r2, #18
 800d684:	e880 0006 	stmia.w	r0, {r1, r2}
 800d688:	4770      	bx	lr
 800d68a:	bf00      	nop

0800d68c <_ZNK12_GLOBAL__N_125font_OSD_Charset_237_type8get_dataEv>:
 800d68c:	f24a 70e8 	movw	r0, #42984	; 0xa7e8
 800d690:	f6c0 0001 	movt	r0, #2049	; 0x801
 800d694:	4770      	bx	lr
 800d696:	bf00      	nop

0800d698 <_ZNK12_GLOBAL__N_125font_OSD_Charset_237_type8get_sizeEv>:
 800d698:	220c      	movs	r2, #12
 800d69a:	f04f 0c12 	mov.w	ip, #18
 800d69e:	e880 1004 	stmia.w	r0, {r2, ip}
 800d6a2:	4770      	bx	lr

0800d6a4 <_ZNK12_GLOBAL__N_125font_OSD_Charset_238_type8get_dataEv>:
 800d6a4:	f249 00b0 	movw	r0, #37040	; 0x90b0
 800d6a8:	f6c0 0001 	movt	r0, #2049	; 0x801
 800d6ac:	4770      	bx	lr
 800d6ae:	bf00      	nop

0800d6b0 <_ZNK12_GLOBAL__N_125font_OSD_Charset_238_type8get_sizeEv>:
 800d6b0:	210c      	movs	r1, #12
 800d6b2:	2212      	movs	r2, #18
 800d6b4:	e880 0006 	stmia.w	r0, {r1, r2}
 800d6b8:	4770      	bx	lr
 800d6ba:	bf00      	nop

0800d6bc <_ZNK12_GLOBAL__N_125font_OSD_Charset_239_type8get_dataEv>:
 800d6bc:	f647 7030 	movw	r0, #32560	; 0x7f30
 800d6c0:	f6c0 0001 	movt	r0, #2049	; 0x801
 800d6c4:	4770      	bx	lr
 800d6c6:	bf00      	nop

0800d6c8 <_ZNK12_GLOBAL__N_125font_OSD_Charset_239_type8get_sizeEv>:
 800d6c8:	220c      	movs	r2, #12
 800d6ca:	f04f 0c12 	mov.w	ip, #18
 800d6ce:	e880 1004 	stmia.w	r0, {r2, ip}
 800d6d2:	4770      	bx	lr

0800d6d4 <_ZNK12_GLOBAL__N_125font_OSD_Charset_240_type8get_dataEv>:
 800d6d4:	f247 50d0 	movw	r0, #30160	; 0x75d0
 800d6d8:	f6c0 0001 	movt	r0, #2049	; 0x801
 800d6dc:	4770      	bx	lr
 800d6de:	bf00      	nop

0800d6e0 <_ZNK12_GLOBAL__N_125font_OSD_Charset_240_type8get_sizeEv>:
 800d6e0:	210c      	movs	r1, #12
 800d6e2:	2212      	movs	r2, #18
 800d6e4:	e880 0006 	stmia.w	r0, {r1, r2}
 800d6e8:	4770      	bx	lr
 800d6ea:	bf00      	nop

0800d6ec <_ZNK12_GLOBAL__N_125font_OSD_Charset_241_type8get_dataEv>:
 800d6ec:	f246 30f8 	movw	r0, #25592	; 0x63f8
 800d6f0:	f6c0 0001 	movt	r0, #2049	; 0x801
 800d6f4:	4770      	bx	lr
 800d6f6:	bf00      	nop

0800d6f8 <_ZNK12_GLOBAL__N_125font_OSD_Charset_241_type8get_sizeEv>:
 800d6f8:	220c      	movs	r2, #12
 800d6fa:	f04f 0c12 	mov.w	ip, #18
 800d6fe:	e880 1004 	stmia.w	r0, {r2, ip}
 800d702:	4770      	bx	lr

0800d704 <_ZNK12_GLOBAL__N_125font_OSD_Charset_242_type8get_dataEv>:
 800d704:	f24a 6060 	movw	r0, #42592	; 0xa660
 800d708:	f6c0 0001 	movt	r0, #2049	; 0x801
 800d70c:	4770      	bx	lr
 800d70e:	bf00      	nop

0800d710 <_ZNK12_GLOBAL__N_125font_OSD_Charset_242_type8get_sizeEv>:
 800d710:	210c      	movs	r1, #12
 800d712:	2212      	movs	r2, #18
 800d714:	e880 0006 	stmia.w	r0, {r1, r2}
 800d718:	4770      	bx	lr
 800d71a:	bf00      	nop

0800d71c <_ZNK12_GLOBAL__N_125font_OSD_Charset_243_type8get_dataEv>:
 800d71c:	f247 5018 	movw	r0, #29976	; 0x7518
 800d720:	f6c0 0001 	movt	r0, #2049	; 0x801
 800d724:	4770      	bx	lr
 800d726:	bf00      	nop

0800d728 <_ZNK12_GLOBAL__N_125font_OSD_Charset_243_type8get_sizeEv>:
 800d728:	220c      	movs	r2, #12
 800d72a:	f04f 0c12 	mov.w	ip, #18
 800d72e:	e880 1004 	stmia.w	r0, {r2, ip}
 800d732:	4770      	bx	lr

0800d734 <_ZNK12_GLOBAL__N_125font_OSD_Charset_244_type8get_dataEv>:
 800d734:	f246 3050 	movw	r0, #25424	; 0x6350
 800d738:	f6c0 0001 	movt	r0, #2049	; 0x801
 800d73c:	4770      	bx	lr
 800d73e:	bf00      	nop

0800d740 <_ZNK12_GLOBAL__N_125font_OSD_Charset_244_type8get_sizeEv>:
 800d740:	210c      	movs	r1, #12
 800d742:	2212      	movs	r2, #18
 800d744:	e880 0006 	stmia.w	r0, {r1, r2}
 800d748:	4770      	bx	lr
 800d74a:	bf00      	nop

0800d74c <_ZNK12_GLOBAL__N_125font_OSD_Charset_245_type8get_dataEv>:
 800d74c:	f24a 50a0 	movw	r0, #42400	; 0xa5a0
 800d750:	f6c0 0001 	movt	r0, #2049	; 0x801
 800d754:	4770      	bx	lr
 800d756:	bf00      	nop

0800d758 <_ZNK12_GLOBAL__N_125font_OSD_Charset_245_type8get_sizeEv>:
 800d758:	220c      	movs	r2, #12
 800d75a:	f04f 0c12 	mov.w	ip, #18
 800d75e:	e880 1004 	stmia.w	r0, {r2, ip}
 800d762:	4770      	bx	lr

0800d764 <_ZNK12_GLOBAL__N_125font_OSD_Charset_246_type8get_dataEv>:
 800d764:	f648 6058 	movw	r0, #36440	; 0x8e58
 800d768:	f6c0 0001 	movt	r0, #2049	; 0x801
 800d76c:	4770      	bx	lr
 800d76e:	bf00      	nop

0800d770 <_ZNK12_GLOBAL__N_125font_OSD_Charset_246_type8get_sizeEv>:
 800d770:	210c      	movs	r1, #12
 800d772:	2212      	movs	r2, #18
 800d774:	e880 0006 	stmia.w	r0, {r1, r2}
 800d778:	4770      	bx	lr
 800d77a:	bf00      	nop

0800d77c <_ZNK12_GLOBAL__N_125font_OSD_Charset_247_type8get_dataEv>:
 800d77c:	f647 4080 	movw	r0, #31872	; 0x7c80
 800d780:	f6c0 0001 	movt	r0, #2049	; 0x801
 800d784:	4770      	bx	lr
 800d786:	bf00      	nop

0800d788 <_ZNK12_GLOBAL__N_125font_OSD_Charset_247_type8get_sizeEv>:
 800d788:	220c      	movs	r2, #12
 800d78a:	f04f 0c12 	mov.w	ip, #18
 800d78e:	e880 1004 	stmia.w	r0, {r2, ip}
 800d792:	4770      	bx	lr

0800d794 <_ZNK12_GLOBAL__N_125font_OSD_Charset_248_type8get_dataEv>:
 800d794:	f24a 40e0 	movw	r0, #42208	; 0xa4e0
 800d798:	f6c0 0001 	movt	r0, #2049	; 0x801
 800d79c:	4770      	bx	lr
 800d79e:	bf00      	nop

0800d7a0 <_ZNK12_GLOBAL__N_125font_OSD_Charset_248_type8get_sizeEv>:
 800d7a0:	210c      	movs	r1, #12
 800d7a2:	2212      	movs	r2, #18
 800d7a4:	e880 0006 	stmia.w	r0, {r1, r2}
 800d7a8:	4770      	bx	lr
 800d7aa:	bf00      	nop

0800d7ac <_ZNK12_GLOBAL__N_125font_OSD_Charset_249_type8get_dataEv>:
 800d7ac:	f645 7090 	movw	r0, #24464	; 0x5f90
 800d7b0:	f6c0 0001 	movt	r0, #2049	; 0x801
 800d7b4:	4770      	bx	lr
 800d7b6:	bf00      	nop

0800d7b8 <_ZNK12_GLOBAL__N_125font_OSD_Charset_249_type8get_sizeEv>:
 800d7b8:	220c      	movs	r2, #12
 800d7ba:	f04f 0c12 	mov.w	ip, #18
 800d7be:	e880 1004 	stmia.w	r0, {r2, ip}
 800d7c2:	4770      	bx	lr

0800d7c4 <_ZNK12_GLOBAL__N_125font_OSD_Charset_250_type8get_dataEv>:
 800d7c4:	f248 6070 	movw	r0, #34416	; 0x8670
 800d7c8:	f6c0 0001 	movt	r0, #2049	; 0x801
 800d7cc:	4770      	bx	lr
 800d7ce:	bf00      	nop

0800d7d0 <_ZNK12_GLOBAL__N_125font_OSD_Charset_250_type8get_sizeEv>:
 800d7d0:	210c      	movs	r1, #12
 800d7d2:	2212      	movs	r2, #18
 800d7d4:	e880 0006 	stmia.w	r0, {r1, r2}
 800d7d8:	4770      	bx	lr
 800d7da:	bf00      	nop

0800d7dc <_ZNK12_GLOBAL__N_125font_OSD_Charset_251_type8get_dataEv>:
 800d7dc:	f247 3050 	movw	r0, #29520	; 0x7350
 800d7e0:	f6c0 0001 	movt	r0, #2049	; 0x801
 800d7e4:	4770      	bx	lr
 800d7e6:	bf00      	nop

0800d7e8 <_ZNK12_GLOBAL__N_125font_OSD_Charset_251_type8get_sizeEv>:
 800d7e8:	220c      	movs	r2, #12
 800d7ea:	f04f 0c12 	mov.w	ip, #18
 800d7ee:	e880 1004 	stmia.w	r0, {r2, ip}
 800d7f2:	4770      	bx	lr

0800d7f4 <_ZNK12_GLOBAL__N_125font_OSD_Charset_252_type8get_dataEv>:
 800d7f4:	f246 1058 	movw	r0, #24920	; 0x6158
 800d7f8:	f6c0 0001 	movt	r0, #2049	; 0x801
 800d7fc:	4770      	bx	lr
 800d7fe:	bf00      	nop

0800d800 <_ZNK12_GLOBAL__N_125font_OSD_Charset_252_type8get_sizeEv>:
 800d800:	210c      	movs	r1, #12
 800d802:	2212      	movs	r2, #18
 800d804:	e880 0006 	stmia.w	r0, {r1, r2}
 800d808:	4770      	bx	lr
 800d80a:	bf00      	nop

0800d80c <_ZNK12_GLOBAL__N_125font_OSD_Charset_253_type8get_dataEv>:
 800d80c:	f24a 3090 	movw	r0, #41872	; 0xa390
 800d810:	f6c0 0001 	movt	r0, #2049	; 0x801
 800d814:	4770      	bx	lr
 800d816:	bf00      	nop

0800d818 <_ZNK12_GLOBAL__N_125font_OSD_Charset_253_type8get_sizeEv>:
 800d818:	220c      	movs	r2, #12
 800d81a:	f04f 0c12 	mov.w	ip, #18
 800d81e:	e880 1004 	stmia.w	r0, {r2, ip}
 800d822:	4770      	bx	lr

0800d824 <_ZNK12_GLOBAL__N_125font_OSD_Charset_254_type8get_dataEv>:
 800d824:	f648 4028 	movw	r0, #35880	; 0x8c28
 800d828:	f6c0 0001 	movt	r0, #2049	; 0x801
 800d82c:	4770      	bx	lr
 800d82e:	bf00      	nop

0800d830 <_ZNK12_GLOBAL__N_125font_OSD_Charset_254_type8get_sizeEv>:
 800d830:	210c      	movs	r1, #12
 800d832:	2212      	movs	r2, #18
 800d834:	e880 0006 	stmia.w	r0, {r1, r2}
 800d838:	4770      	bx	lr
 800d83a:	bf00      	nop

0800d83c <_ZNK12_GLOBAL__N_125font_OSD_Charset_255_type8get_dataEv>:
 800d83c:	f246 0060 	movw	r0, #24672	; 0x6060
 800d840:	f6c0 0001 	movt	r0, #2049	; 0x801
 800d844:	4770      	bx	lr
 800d846:	bf00      	nop

0800d848 <_ZNK12_GLOBAL__N_125font_OSD_Charset_255_type8get_sizeEv>:
 800d848:	220c      	movs	r2, #12
 800d84a:	f04f 0c12 	mov.w	ip, #18
 800d84e:	e880 1004 	stmia.w	r0, {r2, ip}
 800d852:	4770      	bx	lr

0800d854 <_ZNK12_GLOBAL__N_121font_OSD_Charset_type9get_beginEv>:
 800d854:	2000      	movs	r0, #0
 800d856:	4770      	bx	lr

0800d858 <_ZNK12_GLOBAL__N_121font_OSD_Charset_type15get_char_heightEv>:
 800d858:	2012      	movs	r0, #18
 800d85a:	4770      	bx	lr

0800d85c <_ZNK12_GLOBAL__N_121font_OSD_Charset_type14get_char_widthEv>:
 800d85c:	200c      	movs	r0, #12
 800d85e:	4770      	bx	lr

0800d860 <_ZNK12_GLOBAL__N_121font_OSD_Charset_type16get_num_elementsEv>:
 800d860:	f44f 7080 	mov.w	r0, #256	; 0x100
 800d864:	4770      	bx	lr
 800d866:	bf00      	nop

0800d868 <_ZNK12_GLOBAL__N_121font_OSD_Charset_type11get_char_atEl>:
 800d868:	6803      	ldr	r3, [r0, #0]
 800d86a:	b510      	push	{r4, lr}
 800d86c:	681a      	ldr	r2, [r3, #0]
 800d86e:	460c      	mov	r4, r1
 800d870:	4790      	blx	r2
 800d872:	1a20      	subs	r0, r4, r0
 800d874:	28ff      	cmp	r0, #255	; 0xff
 800d876:	d803      	bhi.n	800d880 <_ZNK12_GLOBAL__N_121font_OSD_Charset_type11get_char_atEl+0x18>
 800d878:	4902      	ldr	r1, [pc, #8]	; (800d884 <_ZNK12_GLOBAL__N_121font_OSD_Charset_type11get_char_atEl+0x1c>)
 800d87a:	f851 0020 	ldr.w	r0, [r1, r0, lsl #2]
 800d87e:	bd10      	pop	{r4, pc}
 800d880:	2000      	movs	r0, #0
 800d882:	bd10      	pop	{r4, pc}
 800d884:	08019150 	.word	0x08019150

0800d888 <_ZN12_GLOBAL__N_121font_OSD_Charset_typeD1Ev>:
 800d888:	4b01      	ldr	r3, [pc, #4]	; (800d890 <_ZN12_GLOBAL__N_121font_OSD_Charset_typeD1Ev+0x8>)
 800d88a:	6003      	str	r3, [r0, #0]
 800d88c:	4770      	bx	lr
 800d88e:	bf00      	nop
 800d890:	08015d10 	.word	0x08015d10

0800d894 <_ZN12_GLOBAL__N_125font_OSD_Charset_255_typeD1Ev>:
 800d894:	4b01      	ldr	r3, [pc, #4]	; (800d89c <_ZN12_GLOBAL__N_125font_OSD_Charset_255_typeD1Ev+0x8>)
 800d896:	6003      	str	r3, [r0, #0]
 800d898:	4770      	bx	lr
 800d89a:	bf00      	nop
 800d89c:	08015cf8 	.word	0x08015cf8

0800d8a0 <_ZN12_GLOBAL__N_125font_OSD_Charset_254_typeD1Ev>:
 800d8a0:	4b01      	ldr	r3, [pc, #4]	; (800d8a8 <_ZN12_GLOBAL__N_125font_OSD_Charset_254_typeD1Ev+0x8>)
 800d8a2:	6003      	str	r3, [r0, #0]
 800d8a4:	4770      	bx	lr
 800d8a6:	bf00      	nop
 800d8a8:	08015cf8 	.word	0x08015cf8

0800d8ac <_ZN12_GLOBAL__N_125font_OSD_Charset_253_typeD1Ev>:
 800d8ac:	4b01      	ldr	r3, [pc, #4]	; (800d8b4 <_ZN12_GLOBAL__N_125font_OSD_Charset_253_typeD1Ev+0x8>)
 800d8ae:	6003      	str	r3, [r0, #0]
 800d8b0:	4770      	bx	lr
 800d8b2:	bf00      	nop
 800d8b4:	08015cf8 	.word	0x08015cf8

0800d8b8 <_ZN12_GLOBAL__N_125font_OSD_Charset_252_typeD1Ev>:
 800d8b8:	4b01      	ldr	r3, [pc, #4]	; (800d8c0 <_ZN12_GLOBAL__N_125font_OSD_Charset_252_typeD1Ev+0x8>)
 800d8ba:	6003      	str	r3, [r0, #0]
 800d8bc:	4770      	bx	lr
 800d8be:	bf00      	nop
 800d8c0:	08015cf8 	.word	0x08015cf8

0800d8c4 <_ZN12_GLOBAL__N_125font_OSD_Charset_251_typeD1Ev>:
 800d8c4:	4b01      	ldr	r3, [pc, #4]	; (800d8cc <_ZN12_GLOBAL__N_125font_OSD_Charset_251_typeD1Ev+0x8>)
 800d8c6:	6003      	str	r3, [r0, #0]
 800d8c8:	4770      	bx	lr
 800d8ca:	bf00      	nop
 800d8cc:	08015cf8 	.word	0x08015cf8

0800d8d0 <_ZN12_GLOBAL__N_125font_OSD_Charset_250_typeD1Ev>:
 800d8d0:	4b01      	ldr	r3, [pc, #4]	; (800d8d8 <_ZN12_GLOBAL__N_125font_OSD_Charset_250_typeD1Ev+0x8>)
 800d8d2:	6003      	str	r3, [r0, #0]
 800d8d4:	4770      	bx	lr
 800d8d6:	bf00      	nop
 800d8d8:	08015cf8 	.word	0x08015cf8

0800d8dc <_ZN12_GLOBAL__N_125font_OSD_Charset_249_typeD1Ev>:
 800d8dc:	4b01      	ldr	r3, [pc, #4]	; (800d8e4 <_ZN12_GLOBAL__N_125font_OSD_Charset_249_typeD1Ev+0x8>)
 800d8de:	6003      	str	r3, [r0, #0]
 800d8e0:	4770      	bx	lr
 800d8e2:	bf00      	nop
 800d8e4:	08015cf8 	.word	0x08015cf8

0800d8e8 <_ZN12_GLOBAL__N_125font_OSD_Charset_248_typeD1Ev>:
 800d8e8:	4b01      	ldr	r3, [pc, #4]	; (800d8f0 <_ZN12_GLOBAL__N_125font_OSD_Charset_248_typeD1Ev+0x8>)
 800d8ea:	6003      	str	r3, [r0, #0]
 800d8ec:	4770      	bx	lr
 800d8ee:	bf00      	nop
 800d8f0:	08015cf8 	.word	0x08015cf8

0800d8f4 <_ZN12_GLOBAL__N_125font_OSD_Charset_247_typeD1Ev>:
 800d8f4:	4b01      	ldr	r3, [pc, #4]	; (800d8fc <_ZN12_GLOBAL__N_125font_OSD_Charset_247_typeD1Ev+0x8>)
 800d8f6:	6003      	str	r3, [r0, #0]
 800d8f8:	4770      	bx	lr
 800d8fa:	bf00      	nop
 800d8fc:	08015cf8 	.word	0x08015cf8

0800d900 <_ZN12_GLOBAL__N_125font_OSD_Charset_246_typeD1Ev>:
 800d900:	4b01      	ldr	r3, [pc, #4]	; (800d908 <_ZN12_GLOBAL__N_125font_OSD_Charset_246_typeD1Ev+0x8>)
 800d902:	6003      	str	r3, [r0, #0]
 800d904:	4770      	bx	lr
 800d906:	bf00      	nop
 800d908:	08015cf8 	.word	0x08015cf8

0800d90c <_ZN12_GLOBAL__N_125font_OSD_Charset_245_typeD1Ev>:
 800d90c:	4b01      	ldr	r3, [pc, #4]	; (800d914 <_ZN12_GLOBAL__N_125font_OSD_Charset_245_typeD1Ev+0x8>)
 800d90e:	6003      	str	r3, [r0, #0]
 800d910:	4770      	bx	lr
 800d912:	bf00      	nop
 800d914:	08015cf8 	.word	0x08015cf8

0800d918 <_ZN12_GLOBAL__N_125font_OSD_Charset_244_typeD1Ev>:
 800d918:	4b01      	ldr	r3, [pc, #4]	; (800d920 <_ZN12_GLOBAL__N_125font_OSD_Charset_244_typeD1Ev+0x8>)
 800d91a:	6003      	str	r3, [r0, #0]
 800d91c:	4770      	bx	lr
 800d91e:	bf00      	nop
 800d920:	08015cf8 	.word	0x08015cf8

0800d924 <_ZN12_GLOBAL__N_125font_OSD_Charset_243_typeD1Ev>:
 800d924:	4b01      	ldr	r3, [pc, #4]	; (800d92c <_ZN12_GLOBAL__N_125font_OSD_Charset_243_typeD1Ev+0x8>)
 800d926:	6003      	str	r3, [r0, #0]
 800d928:	4770      	bx	lr
 800d92a:	bf00      	nop
 800d92c:	08015cf8 	.word	0x08015cf8

0800d930 <_ZN12_GLOBAL__N_125font_OSD_Charset_242_typeD1Ev>:
 800d930:	4b01      	ldr	r3, [pc, #4]	; (800d938 <_ZN12_GLOBAL__N_125font_OSD_Charset_242_typeD1Ev+0x8>)
 800d932:	6003      	str	r3, [r0, #0]
 800d934:	4770      	bx	lr
 800d936:	bf00      	nop
 800d938:	08015cf8 	.word	0x08015cf8

0800d93c <_ZN12_GLOBAL__N_125font_OSD_Charset_241_typeD1Ev>:
 800d93c:	4b01      	ldr	r3, [pc, #4]	; (800d944 <_ZN12_GLOBAL__N_125font_OSD_Charset_241_typeD1Ev+0x8>)
 800d93e:	6003      	str	r3, [r0, #0]
 800d940:	4770      	bx	lr
 800d942:	bf00      	nop
 800d944:	08015cf8 	.word	0x08015cf8

0800d948 <_ZN12_GLOBAL__N_125font_OSD_Charset_240_typeD1Ev>:
 800d948:	4b01      	ldr	r3, [pc, #4]	; (800d950 <_ZN12_GLOBAL__N_125font_OSD_Charset_240_typeD1Ev+0x8>)
 800d94a:	6003      	str	r3, [r0, #0]
 800d94c:	4770      	bx	lr
 800d94e:	bf00      	nop
 800d950:	08015cf8 	.word	0x08015cf8

0800d954 <_ZN12_GLOBAL__N_125font_OSD_Charset_239_typeD1Ev>:
 800d954:	4b01      	ldr	r3, [pc, #4]	; (800d95c <_ZN12_GLOBAL__N_125font_OSD_Charset_239_typeD1Ev+0x8>)
 800d956:	6003      	str	r3, [r0, #0]
 800d958:	4770      	bx	lr
 800d95a:	bf00      	nop
 800d95c:	08015cf8 	.word	0x08015cf8

0800d960 <_ZN12_GLOBAL__N_125font_OSD_Charset_238_typeD1Ev>:
 800d960:	4b01      	ldr	r3, [pc, #4]	; (800d968 <_ZN12_GLOBAL__N_125font_OSD_Charset_238_typeD1Ev+0x8>)
 800d962:	6003      	str	r3, [r0, #0]
 800d964:	4770      	bx	lr
 800d966:	bf00      	nop
 800d968:	08015cf8 	.word	0x08015cf8

0800d96c <_ZN12_GLOBAL__N_125font_OSD_Charset_237_typeD1Ev>:
 800d96c:	4b01      	ldr	r3, [pc, #4]	; (800d974 <_ZN12_GLOBAL__N_125font_OSD_Charset_237_typeD1Ev+0x8>)
 800d96e:	6003      	str	r3, [r0, #0]
 800d970:	4770      	bx	lr
 800d972:	bf00      	nop
 800d974:	08015cf8 	.word	0x08015cf8

0800d978 <_ZN12_GLOBAL__N_125font_OSD_Charset_236_typeD1Ev>:
 800d978:	4b01      	ldr	r3, [pc, #4]	; (800d980 <_ZN12_GLOBAL__N_125font_OSD_Charset_236_typeD1Ev+0x8>)
 800d97a:	6003      	str	r3, [r0, #0]
 800d97c:	4770      	bx	lr
 800d97e:	bf00      	nop
 800d980:	08015cf8 	.word	0x08015cf8

0800d984 <_ZN12_GLOBAL__N_125font_OSD_Charset_235_typeD1Ev>:
 800d984:	4b01      	ldr	r3, [pc, #4]	; (800d98c <_ZN12_GLOBAL__N_125font_OSD_Charset_235_typeD1Ev+0x8>)
 800d986:	6003      	str	r3, [r0, #0]
 800d988:	4770      	bx	lr
 800d98a:	bf00      	nop
 800d98c:	08015cf8 	.word	0x08015cf8

0800d990 <_ZN12_GLOBAL__N_125font_OSD_Charset_234_typeD1Ev>:
 800d990:	4b01      	ldr	r3, [pc, #4]	; (800d998 <_ZN12_GLOBAL__N_125font_OSD_Charset_234_typeD1Ev+0x8>)
 800d992:	6003      	str	r3, [r0, #0]
 800d994:	4770      	bx	lr
 800d996:	bf00      	nop
 800d998:	08015cf8 	.word	0x08015cf8

0800d99c <_ZN12_GLOBAL__N_125font_OSD_Charset_233_typeD1Ev>:
 800d99c:	4b01      	ldr	r3, [pc, #4]	; (800d9a4 <_ZN12_GLOBAL__N_125font_OSD_Charset_233_typeD1Ev+0x8>)
 800d99e:	6003      	str	r3, [r0, #0]
 800d9a0:	4770      	bx	lr
 800d9a2:	bf00      	nop
 800d9a4:	08015cf8 	.word	0x08015cf8

0800d9a8 <_ZN12_GLOBAL__N_125font_OSD_Charset_232_typeD1Ev>:
 800d9a8:	4b01      	ldr	r3, [pc, #4]	; (800d9b0 <_ZN12_GLOBAL__N_125font_OSD_Charset_232_typeD1Ev+0x8>)
 800d9aa:	6003      	str	r3, [r0, #0]
 800d9ac:	4770      	bx	lr
 800d9ae:	bf00      	nop
 800d9b0:	08015cf8 	.word	0x08015cf8

0800d9b4 <_ZN12_GLOBAL__N_125font_OSD_Charset_231_typeD1Ev>:
 800d9b4:	4b01      	ldr	r3, [pc, #4]	; (800d9bc <_ZN12_GLOBAL__N_125font_OSD_Charset_231_typeD1Ev+0x8>)
 800d9b6:	6003      	str	r3, [r0, #0]
 800d9b8:	4770      	bx	lr
 800d9ba:	bf00      	nop
 800d9bc:	08015cf8 	.word	0x08015cf8

0800d9c0 <_ZN12_GLOBAL__N_125font_OSD_Charset_230_typeD1Ev>:
 800d9c0:	4b01      	ldr	r3, [pc, #4]	; (800d9c8 <_ZN12_GLOBAL__N_125font_OSD_Charset_230_typeD1Ev+0x8>)
 800d9c2:	6003      	str	r3, [r0, #0]
 800d9c4:	4770      	bx	lr
 800d9c6:	bf00      	nop
 800d9c8:	08015cf8 	.word	0x08015cf8

0800d9cc <_ZN12_GLOBAL__N_125font_OSD_Charset_229_typeD1Ev>:
 800d9cc:	4b01      	ldr	r3, [pc, #4]	; (800d9d4 <_ZN12_GLOBAL__N_125font_OSD_Charset_229_typeD1Ev+0x8>)
 800d9ce:	6003      	str	r3, [r0, #0]
 800d9d0:	4770      	bx	lr
 800d9d2:	bf00      	nop
 800d9d4:	08015cf8 	.word	0x08015cf8

0800d9d8 <_ZN12_GLOBAL__N_125font_OSD_Charset_228_typeD1Ev>:
 800d9d8:	4b01      	ldr	r3, [pc, #4]	; (800d9e0 <_ZN12_GLOBAL__N_125font_OSD_Charset_228_typeD1Ev+0x8>)
 800d9da:	6003      	str	r3, [r0, #0]
 800d9dc:	4770      	bx	lr
 800d9de:	bf00      	nop
 800d9e0:	08015cf8 	.word	0x08015cf8

0800d9e4 <_ZN12_GLOBAL__N_125font_OSD_Charset_227_typeD1Ev>:
 800d9e4:	4b01      	ldr	r3, [pc, #4]	; (800d9ec <_ZN12_GLOBAL__N_125font_OSD_Charset_227_typeD1Ev+0x8>)
 800d9e6:	6003      	str	r3, [r0, #0]
 800d9e8:	4770      	bx	lr
 800d9ea:	bf00      	nop
 800d9ec:	08015cf8 	.word	0x08015cf8

0800d9f0 <_ZN12_GLOBAL__N_125font_OSD_Charset_226_typeD1Ev>:
 800d9f0:	4b01      	ldr	r3, [pc, #4]	; (800d9f8 <_ZN12_GLOBAL__N_125font_OSD_Charset_226_typeD1Ev+0x8>)
 800d9f2:	6003      	str	r3, [r0, #0]
 800d9f4:	4770      	bx	lr
 800d9f6:	bf00      	nop
 800d9f8:	08015cf8 	.word	0x08015cf8

0800d9fc <_ZN12_GLOBAL__N_125font_OSD_Charset_225_typeD1Ev>:
 800d9fc:	4b01      	ldr	r3, [pc, #4]	; (800da04 <_ZN12_GLOBAL__N_125font_OSD_Charset_225_typeD1Ev+0x8>)
 800d9fe:	6003      	str	r3, [r0, #0]
 800da00:	4770      	bx	lr
 800da02:	bf00      	nop
 800da04:	08015cf8 	.word	0x08015cf8

0800da08 <_ZN12_GLOBAL__N_125font_OSD_Charset_224_typeD1Ev>:
 800da08:	4b01      	ldr	r3, [pc, #4]	; (800da10 <_ZN12_GLOBAL__N_125font_OSD_Charset_224_typeD1Ev+0x8>)
 800da0a:	6003      	str	r3, [r0, #0]
 800da0c:	4770      	bx	lr
 800da0e:	bf00      	nop
 800da10:	08015cf8 	.word	0x08015cf8

0800da14 <_ZN12_GLOBAL__N_125font_OSD_Charset_223_typeD1Ev>:
 800da14:	4b01      	ldr	r3, [pc, #4]	; (800da1c <_ZN12_GLOBAL__N_125font_OSD_Charset_223_typeD1Ev+0x8>)
 800da16:	6003      	str	r3, [r0, #0]
 800da18:	4770      	bx	lr
 800da1a:	bf00      	nop
 800da1c:	08015cf8 	.word	0x08015cf8

0800da20 <_ZN12_GLOBAL__N_125font_OSD_Charset_222_typeD1Ev>:
 800da20:	4b01      	ldr	r3, [pc, #4]	; (800da28 <_ZN12_GLOBAL__N_125font_OSD_Charset_222_typeD1Ev+0x8>)
 800da22:	6003      	str	r3, [r0, #0]
 800da24:	4770      	bx	lr
 800da26:	bf00      	nop
 800da28:	08015cf8 	.word	0x08015cf8

0800da2c <_ZN12_GLOBAL__N_125font_OSD_Charset_221_typeD1Ev>:
 800da2c:	4b01      	ldr	r3, [pc, #4]	; (800da34 <_ZN12_GLOBAL__N_125font_OSD_Charset_221_typeD1Ev+0x8>)
 800da2e:	6003      	str	r3, [r0, #0]
 800da30:	4770      	bx	lr
 800da32:	bf00      	nop
 800da34:	08015cf8 	.word	0x08015cf8

0800da38 <_ZN12_GLOBAL__N_125font_OSD_Charset_220_typeD1Ev>:
 800da38:	4b01      	ldr	r3, [pc, #4]	; (800da40 <_ZN12_GLOBAL__N_125font_OSD_Charset_220_typeD1Ev+0x8>)
 800da3a:	6003      	str	r3, [r0, #0]
 800da3c:	4770      	bx	lr
 800da3e:	bf00      	nop
 800da40:	08015cf8 	.word	0x08015cf8

0800da44 <_ZN12_GLOBAL__N_125font_OSD_Charset_219_typeD1Ev>:
 800da44:	4b01      	ldr	r3, [pc, #4]	; (800da4c <_ZN12_GLOBAL__N_125font_OSD_Charset_219_typeD1Ev+0x8>)
 800da46:	6003      	str	r3, [r0, #0]
 800da48:	4770      	bx	lr
 800da4a:	bf00      	nop
 800da4c:	08015cf8 	.word	0x08015cf8

0800da50 <_ZN12_GLOBAL__N_125font_OSD_Charset_218_typeD1Ev>:
 800da50:	4b01      	ldr	r3, [pc, #4]	; (800da58 <_ZN12_GLOBAL__N_125font_OSD_Charset_218_typeD1Ev+0x8>)
 800da52:	6003      	str	r3, [r0, #0]
 800da54:	4770      	bx	lr
 800da56:	bf00      	nop
 800da58:	08015cf8 	.word	0x08015cf8

0800da5c <_ZN12_GLOBAL__N_125font_OSD_Charset_217_typeD1Ev>:
 800da5c:	4b01      	ldr	r3, [pc, #4]	; (800da64 <_ZN12_GLOBAL__N_125font_OSD_Charset_217_typeD1Ev+0x8>)
 800da5e:	6003      	str	r3, [r0, #0]
 800da60:	4770      	bx	lr
 800da62:	bf00      	nop
 800da64:	08015cf8 	.word	0x08015cf8

0800da68 <_ZN12_GLOBAL__N_125font_OSD_Charset_216_typeD1Ev>:
 800da68:	4b01      	ldr	r3, [pc, #4]	; (800da70 <_ZN12_GLOBAL__N_125font_OSD_Charset_216_typeD1Ev+0x8>)
 800da6a:	6003      	str	r3, [r0, #0]
 800da6c:	4770      	bx	lr
 800da6e:	bf00      	nop
 800da70:	08015cf8 	.word	0x08015cf8

0800da74 <_ZN12_GLOBAL__N_125font_OSD_Charset_215_typeD1Ev>:
 800da74:	4b01      	ldr	r3, [pc, #4]	; (800da7c <_ZN12_GLOBAL__N_125font_OSD_Charset_215_typeD1Ev+0x8>)
 800da76:	6003      	str	r3, [r0, #0]
 800da78:	4770      	bx	lr
 800da7a:	bf00      	nop
 800da7c:	08015cf8 	.word	0x08015cf8

0800da80 <_ZN12_GLOBAL__N_125font_OSD_Charset_214_typeD1Ev>:
 800da80:	4b01      	ldr	r3, [pc, #4]	; (800da88 <_ZN12_GLOBAL__N_125font_OSD_Charset_214_typeD1Ev+0x8>)
 800da82:	6003      	str	r3, [r0, #0]
 800da84:	4770      	bx	lr
 800da86:	bf00      	nop
 800da88:	08015cf8 	.word	0x08015cf8

0800da8c <_ZN12_GLOBAL__N_125font_OSD_Charset_213_typeD1Ev>:
 800da8c:	4b01      	ldr	r3, [pc, #4]	; (800da94 <_ZN12_GLOBAL__N_125font_OSD_Charset_213_typeD1Ev+0x8>)
 800da8e:	6003      	str	r3, [r0, #0]
 800da90:	4770      	bx	lr
 800da92:	bf00      	nop
 800da94:	08015cf8 	.word	0x08015cf8

0800da98 <_ZN12_GLOBAL__N_125font_OSD_Charset_212_typeD1Ev>:
 800da98:	4b01      	ldr	r3, [pc, #4]	; (800daa0 <_ZN12_GLOBAL__N_125font_OSD_Charset_212_typeD1Ev+0x8>)
 800da9a:	6003      	str	r3, [r0, #0]
 800da9c:	4770      	bx	lr
 800da9e:	bf00      	nop
 800daa0:	08015cf8 	.word	0x08015cf8

0800daa4 <_ZN12_GLOBAL__N_125font_OSD_Charset_211_typeD1Ev>:
 800daa4:	4b01      	ldr	r3, [pc, #4]	; (800daac <_ZN12_GLOBAL__N_125font_OSD_Charset_211_typeD1Ev+0x8>)
 800daa6:	6003      	str	r3, [r0, #0]
 800daa8:	4770      	bx	lr
 800daaa:	bf00      	nop
 800daac:	08015cf8 	.word	0x08015cf8

0800dab0 <_ZN12_GLOBAL__N_125font_OSD_Charset_210_typeD1Ev>:
 800dab0:	4b01      	ldr	r3, [pc, #4]	; (800dab8 <_ZN12_GLOBAL__N_125font_OSD_Charset_210_typeD1Ev+0x8>)
 800dab2:	6003      	str	r3, [r0, #0]
 800dab4:	4770      	bx	lr
 800dab6:	bf00      	nop
 800dab8:	08015cf8 	.word	0x08015cf8

0800dabc <_ZN12_GLOBAL__N_125font_OSD_Charset_209_typeD1Ev>:
 800dabc:	4b01      	ldr	r3, [pc, #4]	; (800dac4 <_ZN12_GLOBAL__N_125font_OSD_Charset_209_typeD1Ev+0x8>)
 800dabe:	6003      	str	r3, [r0, #0]
 800dac0:	4770      	bx	lr
 800dac2:	bf00      	nop
 800dac4:	08015cf8 	.word	0x08015cf8

0800dac8 <_ZN12_GLOBAL__N_125font_OSD_Charset_208_typeD1Ev>:
 800dac8:	4b01      	ldr	r3, [pc, #4]	; (800dad0 <_ZN12_GLOBAL__N_125font_OSD_Charset_208_typeD1Ev+0x8>)
 800daca:	6003      	str	r3, [r0, #0]
 800dacc:	4770      	bx	lr
 800dace:	bf00      	nop
 800dad0:	08015cf8 	.word	0x08015cf8

0800dad4 <_ZN12_GLOBAL__N_125font_OSD_Charset_207_typeD1Ev>:
 800dad4:	4b01      	ldr	r3, [pc, #4]	; (800dadc <_ZN12_GLOBAL__N_125font_OSD_Charset_207_typeD1Ev+0x8>)
 800dad6:	6003      	str	r3, [r0, #0]
 800dad8:	4770      	bx	lr
 800dada:	bf00      	nop
 800dadc:	08015cf8 	.word	0x08015cf8

0800dae0 <_ZN12_GLOBAL__N_125font_OSD_Charset_206_typeD1Ev>:
 800dae0:	4b01      	ldr	r3, [pc, #4]	; (800dae8 <_ZN12_GLOBAL__N_125font_OSD_Charset_206_typeD1Ev+0x8>)
 800dae2:	6003      	str	r3, [r0, #0]
 800dae4:	4770      	bx	lr
 800dae6:	bf00      	nop
 800dae8:	08015cf8 	.word	0x08015cf8

0800daec <_ZN12_GLOBAL__N_125font_OSD_Charset_205_typeD1Ev>:
 800daec:	4b01      	ldr	r3, [pc, #4]	; (800daf4 <_ZN12_GLOBAL__N_125font_OSD_Charset_205_typeD1Ev+0x8>)
 800daee:	6003      	str	r3, [r0, #0]
 800daf0:	4770      	bx	lr
 800daf2:	bf00      	nop
 800daf4:	08015cf8 	.word	0x08015cf8

0800daf8 <_ZN12_GLOBAL__N_125font_OSD_Charset_204_typeD1Ev>:
 800daf8:	4b01      	ldr	r3, [pc, #4]	; (800db00 <_ZN12_GLOBAL__N_125font_OSD_Charset_204_typeD1Ev+0x8>)
 800dafa:	6003      	str	r3, [r0, #0]
 800dafc:	4770      	bx	lr
 800dafe:	bf00      	nop
 800db00:	08015cf8 	.word	0x08015cf8

0800db04 <_ZN12_GLOBAL__N_125font_OSD_Charset_203_typeD1Ev>:
 800db04:	4b01      	ldr	r3, [pc, #4]	; (800db0c <_ZN12_GLOBAL__N_125font_OSD_Charset_203_typeD1Ev+0x8>)
 800db06:	6003      	str	r3, [r0, #0]
 800db08:	4770      	bx	lr
 800db0a:	bf00      	nop
 800db0c:	08015cf8 	.word	0x08015cf8

0800db10 <_ZN12_GLOBAL__N_125font_OSD_Charset_202_typeD1Ev>:
 800db10:	4b01      	ldr	r3, [pc, #4]	; (800db18 <_ZN12_GLOBAL__N_125font_OSD_Charset_202_typeD1Ev+0x8>)
 800db12:	6003      	str	r3, [r0, #0]
 800db14:	4770      	bx	lr
 800db16:	bf00      	nop
 800db18:	08015cf8 	.word	0x08015cf8

0800db1c <_ZN12_GLOBAL__N_125font_OSD_Charset_201_typeD1Ev>:
 800db1c:	4b01      	ldr	r3, [pc, #4]	; (800db24 <_ZN12_GLOBAL__N_125font_OSD_Charset_201_typeD1Ev+0x8>)
 800db1e:	6003      	str	r3, [r0, #0]
 800db20:	4770      	bx	lr
 800db22:	bf00      	nop
 800db24:	08015cf8 	.word	0x08015cf8

0800db28 <_ZN12_GLOBAL__N_125font_OSD_Charset_200_typeD1Ev>:
 800db28:	4b01      	ldr	r3, [pc, #4]	; (800db30 <_ZN12_GLOBAL__N_125font_OSD_Charset_200_typeD1Ev+0x8>)
 800db2a:	6003      	str	r3, [r0, #0]
 800db2c:	4770      	bx	lr
 800db2e:	bf00      	nop
 800db30:	08015cf8 	.word	0x08015cf8

0800db34 <_ZN12_GLOBAL__N_125font_OSD_Charset_199_typeD1Ev>:
 800db34:	4b01      	ldr	r3, [pc, #4]	; (800db3c <_ZN12_GLOBAL__N_125font_OSD_Charset_199_typeD1Ev+0x8>)
 800db36:	6003      	str	r3, [r0, #0]
 800db38:	4770      	bx	lr
 800db3a:	bf00      	nop
 800db3c:	08015cf8 	.word	0x08015cf8

0800db40 <_ZN12_GLOBAL__N_125font_OSD_Charset_198_typeD1Ev>:
 800db40:	4b01      	ldr	r3, [pc, #4]	; (800db48 <_ZN12_GLOBAL__N_125font_OSD_Charset_198_typeD1Ev+0x8>)
 800db42:	6003      	str	r3, [r0, #0]
 800db44:	4770      	bx	lr
 800db46:	bf00      	nop
 800db48:	08015cf8 	.word	0x08015cf8

0800db4c <_ZN12_GLOBAL__N_125font_OSD_Charset_197_typeD1Ev>:
 800db4c:	4b01      	ldr	r3, [pc, #4]	; (800db54 <_ZN12_GLOBAL__N_125font_OSD_Charset_197_typeD1Ev+0x8>)
 800db4e:	6003      	str	r3, [r0, #0]
 800db50:	4770      	bx	lr
 800db52:	bf00      	nop
 800db54:	08015cf8 	.word	0x08015cf8

0800db58 <_ZN12_GLOBAL__N_125font_OSD_Charset_196_typeD1Ev>:
 800db58:	4b01      	ldr	r3, [pc, #4]	; (800db60 <_ZN12_GLOBAL__N_125font_OSD_Charset_196_typeD1Ev+0x8>)
 800db5a:	6003      	str	r3, [r0, #0]
 800db5c:	4770      	bx	lr
 800db5e:	bf00      	nop
 800db60:	08015cf8 	.word	0x08015cf8

0800db64 <_ZN12_GLOBAL__N_125font_OSD_Charset_195_typeD1Ev>:
 800db64:	4b01      	ldr	r3, [pc, #4]	; (800db6c <_ZN12_GLOBAL__N_125font_OSD_Charset_195_typeD1Ev+0x8>)
 800db66:	6003      	str	r3, [r0, #0]
 800db68:	4770      	bx	lr
 800db6a:	bf00      	nop
 800db6c:	08015cf8 	.word	0x08015cf8

0800db70 <_ZN12_GLOBAL__N_125font_OSD_Charset_194_typeD1Ev>:
 800db70:	4b01      	ldr	r3, [pc, #4]	; (800db78 <_ZN12_GLOBAL__N_125font_OSD_Charset_194_typeD1Ev+0x8>)
 800db72:	6003      	str	r3, [r0, #0]
 800db74:	4770      	bx	lr
 800db76:	bf00      	nop
 800db78:	08015cf8 	.word	0x08015cf8

0800db7c <_ZN12_GLOBAL__N_125font_OSD_Charset_193_typeD1Ev>:
 800db7c:	4b01      	ldr	r3, [pc, #4]	; (800db84 <_ZN12_GLOBAL__N_125font_OSD_Charset_193_typeD1Ev+0x8>)
 800db7e:	6003      	str	r3, [r0, #0]
 800db80:	4770      	bx	lr
 800db82:	bf00      	nop
 800db84:	08015cf8 	.word	0x08015cf8

0800db88 <_ZN12_GLOBAL__N_125font_OSD_Charset_192_typeD1Ev>:
 800db88:	4b01      	ldr	r3, [pc, #4]	; (800db90 <_ZN12_GLOBAL__N_125font_OSD_Charset_192_typeD1Ev+0x8>)
 800db8a:	6003      	str	r3, [r0, #0]
 800db8c:	4770      	bx	lr
 800db8e:	bf00      	nop
 800db90:	08015cf8 	.word	0x08015cf8

0800db94 <_ZN12_GLOBAL__N_125font_OSD_Charset_191_typeD1Ev>:
 800db94:	4b01      	ldr	r3, [pc, #4]	; (800db9c <_ZN12_GLOBAL__N_125font_OSD_Charset_191_typeD1Ev+0x8>)
 800db96:	6003      	str	r3, [r0, #0]
 800db98:	4770      	bx	lr
 800db9a:	bf00      	nop
 800db9c:	08015cf8 	.word	0x08015cf8

0800dba0 <_ZN12_GLOBAL__N_125font_OSD_Charset_190_typeD1Ev>:
 800dba0:	4b01      	ldr	r3, [pc, #4]	; (800dba8 <_ZN12_GLOBAL__N_125font_OSD_Charset_190_typeD1Ev+0x8>)
 800dba2:	6003      	str	r3, [r0, #0]
 800dba4:	4770      	bx	lr
 800dba6:	bf00      	nop
 800dba8:	08015cf8 	.word	0x08015cf8

0800dbac <_ZN12_GLOBAL__N_125font_OSD_Charset_189_typeD1Ev>:
 800dbac:	4b01      	ldr	r3, [pc, #4]	; (800dbb4 <_ZN12_GLOBAL__N_125font_OSD_Charset_189_typeD1Ev+0x8>)
 800dbae:	6003      	str	r3, [r0, #0]
 800dbb0:	4770      	bx	lr
 800dbb2:	bf00      	nop
 800dbb4:	08015cf8 	.word	0x08015cf8

0800dbb8 <_ZN12_GLOBAL__N_125font_OSD_Charset_188_typeD1Ev>:
 800dbb8:	4b01      	ldr	r3, [pc, #4]	; (800dbc0 <_ZN12_GLOBAL__N_125font_OSD_Charset_188_typeD1Ev+0x8>)
 800dbba:	6003      	str	r3, [r0, #0]
 800dbbc:	4770      	bx	lr
 800dbbe:	bf00      	nop
 800dbc0:	08015cf8 	.word	0x08015cf8

0800dbc4 <_ZN12_GLOBAL__N_125font_OSD_Charset_187_typeD1Ev>:
 800dbc4:	4b01      	ldr	r3, [pc, #4]	; (800dbcc <_ZN12_GLOBAL__N_125font_OSD_Charset_187_typeD1Ev+0x8>)
 800dbc6:	6003      	str	r3, [r0, #0]
 800dbc8:	4770      	bx	lr
 800dbca:	bf00      	nop
 800dbcc:	08015cf8 	.word	0x08015cf8

0800dbd0 <_ZN12_GLOBAL__N_125font_OSD_Charset_186_typeD1Ev>:
 800dbd0:	4b01      	ldr	r3, [pc, #4]	; (800dbd8 <_ZN12_GLOBAL__N_125font_OSD_Charset_186_typeD1Ev+0x8>)
 800dbd2:	6003      	str	r3, [r0, #0]
 800dbd4:	4770      	bx	lr
 800dbd6:	bf00      	nop
 800dbd8:	08015cf8 	.word	0x08015cf8

0800dbdc <_ZN12_GLOBAL__N_125font_OSD_Charset_185_typeD1Ev>:
 800dbdc:	4b01      	ldr	r3, [pc, #4]	; (800dbe4 <_ZN12_GLOBAL__N_125font_OSD_Charset_185_typeD1Ev+0x8>)
 800dbde:	6003      	str	r3, [r0, #0]
 800dbe0:	4770      	bx	lr
 800dbe2:	bf00      	nop
 800dbe4:	08015cf8 	.word	0x08015cf8

0800dbe8 <_ZN12_GLOBAL__N_125font_OSD_Charset_184_typeD1Ev>:
 800dbe8:	4b01      	ldr	r3, [pc, #4]	; (800dbf0 <_ZN12_GLOBAL__N_125font_OSD_Charset_184_typeD1Ev+0x8>)
 800dbea:	6003      	str	r3, [r0, #0]
 800dbec:	4770      	bx	lr
 800dbee:	bf00      	nop
 800dbf0:	08015cf8 	.word	0x08015cf8

0800dbf4 <_ZN12_GLOBAL__N_125font_OSD_Charset_183_typeD1Ev>:
 800dbf4:	4b01      	ldr	r3, [pc, #4]	; (800dbfc <_ZN12_GLOBAL__N_125font_OSD_Charset_183_typeD1Ev+0x8>)
 800dbf6:	6003      	str	r3, [r0, #0]
 800dbf8:	4770      	bx	lr
 800dbfa:	bf00      	nop
 800dbfc:	08015cf8 	.word	0x08015cf8

0800dc00 <_ZN12_GLOBAL__N_125font_OSD_Charset_182_typeD1Ev>:
 800dc00:	4b01      	ldr	r3, [pc, #4]	; (800dc08 <_ZN12_GLOBAL__N_125font_OSD_Charset_182_typeD1Ev+0x8>)
 800dc02:	6003      	str	r3, [r0, #0]
 800dc04:	4770      	bx	lr
 800dc06:	bf00      	nop
 800dc08:	08015cf8 	.word	0x08015cf8

0800dc0c <_ZN12_GLOBAL__N_125font_OSD_Charset_181_typeD1Ev>:
 800dc0c:	4b01      	ldr	r3, [pc, #4]	; (800dc14 <_ZN12_GLOBAL__N_125font_OSD_Charset_181_typeD1Ev+0x8>)
 800dc0e:	6003      	str	r3, [r0, #0]
 800dc10:	4770      	bx	lr
 800dc12:	bf00      	nop
 800dc14:	08015cf8 	.word	0x08015cf8

0800dc18 <_ZN12_GLOBAL__N_125font_OSD_Charset_180_typeD1Ev>:
 800dc18:	4b01      	ldr	r3, [pc, #4]	; (800dc20 <_ZN12_GLOBAL__N_125font_OSD_Charset_180_typeD1Ev+0x8>)
 800dc1a:	6003      	str	r3, [r0, #0]
 800dc1c:	4770      	bx	lr
 800dc1e:	bf00      	nop
 800dc20:	08015cf8 	.word	0x08015cf8

0800dc24 <_ZN12_GLOBAL__N_125font_OSD_Charset_179_typeD1Ev>:
 800dc24:	4b01      	ldr	r3, [pc, #4]	; (800dc2c <_ZN12_GLOBAL__N_125font_OSD_Charset_179_typeD1Ev+0x8>)
 800dc26:	6003      	str	r3, [r0, #0]
 800dc28:	4770      	bx	lr
 800dc2a:	bf00      	nop
 800dc2c:	08015cf8 	.word	0x08015cf8

0800dc30 <_ZN12_GLOBAL__N_125font_OSD_Charset_178_typeD1Ev>:
 800dc30:	4b01      	ldr	r3, [pc, #4]	; (800dc38 <_ZN12_GLOBAL__N_125font_OSD_Charset_178_typeD1Ev+0x8>)
 800dc32:	6003      	str	r3, [r0, #0]
 800dc34:	4770      	bx	lr
 800dc36:	bf00      	nop
 800dc38:	08015cf8 	.word	0x08015cf8

0800dc3c <_ZN12_GLOBAL__N_125font_OSD_Charset_177_typeD1Ev>:
 800dc3c:	4b01      	ldr	r3, [pc, #4]	; (800dc44 <_ZN12_GLOBAL__N_125font_OSD_Charset_177_typeD1Ev+0x8>)
 800dc3e:	6003      	str	r3, [r0, #0]
 800dc40:	4770      	bx	lr
 800dc42:	bf00      	nop
 800dc44:	08015cf8 	.word	0x08015cf8

0800dc48 <_ZN12_GLOBAL__N_125font_OSD_Charset_176_typeD1Ev>:
 800dc48:	4b01      	ldr	r3, [pc, #4]	; (800dc50 <_ZN12_GLOBAL__N_125font_OSD_Charset_176_typeD1Ev+0x8>)
 800dc4a:	6003      	str	r3, [r0, #0]
 800dc4c:	4770      	bx	lr
 800dc4e:	bf00      	nop
 800dc50:	08015cf8 	.word	0x08015cf8

0800dc54 <_ZN12_GLOBAL__N_125font_OSD_Charset_175_typeD1Ev>:
 800dc54:	4b01      	ldr	r3, [pc, #4]	; (800dc5c <_ZN12_GLOBAL__N_125font_OSD_Charset_175_typeD1Ev+0x8>)
 800dc56:	6003      	str	r3, [r0, #0]
 800dc58:	4770      	bx	lr
 800dc5a:	bf00      	nop
 800dc5c:	08015cf8 	.word	0x08015cf8

0800dc60 <_ZN12_GLOBAL__N_125font_OSD_Charset_174_typeD1Ev>:
 800dc60:	4b01      	ldr	r3, [pc, #4]	; (800dc68 <_ZN12_GLOBAL__N_125font_OSD_Charset_174_typeD1Ev+0x8>)
 800dc62:	6003      	str	r3, [r0, #0]
 800dc64:	4770      	bx	lr
 800dc66:	bf00      	nop
 800dc68:	08015cf8 	.word	0x08015cf8

0800dc6c <_ZN12_GLOBAL__N_125font_OSD_Charset_173_typeD1Ev>:
 800dc6c:	4b01      	ldr	r3, [pc, #4]	; (800dc74 <_ZN12_GLOBAL__N_125font_OSD_Charset_173_typeD1Ev+0x8>)
 800dc6e:	6003      	str	r3, [r0, #0]
 800dc70:	4770      	bx	lr
 800dc72:	bf00      	nop
 800dc74:	08015cf8 	.word	0x08015cf8

0800dc78 <_ZN12_GLOBAL__N_125font_OSD_Charset_172_typeD1Ev>:
 800dc78:	4b01      	ldr	r3, [pc, #4]	; (800dc80 <_ZN12_GLOBAL__N_125font_OSD_Charset_172_typeD1Ev+0x8>)
 800dc7a:	6003      	str	r3, [r0, #0]
 800dc7c:	4770      	bx	lr
 800dc7e:	bf00      	nop
 800dc80:	08015cf8 	.word	0x08015cf8

0800dc84 <_ZN12_GLOBAL__N_125font_OSD_Charset_171_typeD1Ev>:
 800dc84:	4b01      	ldr	r3, [pc, #4]	; (800dc8c <_ZN12_GLOBAL__N_125font_OSD_Charset_171_typeD1Ev+0x8>)
 800dc86:	6003      	str	r3, [r0, #0]
 800dc88:	4770      	bx	lr
 800dc8a:	bf00      	nop
 800dc8c:	08015cf8 	.word	0x08015cf8

0800dc90 <_ZN12_GLOBAL__N_125font_OSD_Charset_170_typeD1Ev>:
 800dc90:	4b01      	ldr	r3, [pc, #4]	; (800dc98 <_ZN12_GLOBAL__N_125font_OSD_Charset_170_typeD1Ev+0x8>)
 800dc92:	6003      	str	r3, [r0, #0]
 800dc94:	4770      	bx	lr
 800dc96:	bf00      	nop
 800dc98:	08015cf8 	.word	0x08015cf8

0800dc9c <_ZN12_GLOBAL__N_125font_OSD_Charset_169_typeD1Ev>:
 800dc9c:	4b01      	ldr	r3, [pc, #4]	; (800dca4 <_ZN12_GLOBAL__N_125font_OSD_Charset_169_typeD1Ev+0x8>)
 800dc9e:	6003      	str	r3, [r0, #0]
 800dca0:	4770      	bx	lr
 800dca2:	bf00      	nop
 800dca4:	08015cf8 	.word	0x08015cf8

0800dca8 <_ZN12_GLOBAL__N_125font_OSD_Charset_168_typeD1Ev>:
 800dca8:	4b01      	ldr	r3, [pc, #4]	; (800dcb0 <_ZN12_GLOBAL__N_125font_OSD_Charset_168_typeD1Ev+0x8>)
 800dcaa:	6003      	str	r3, [r0, #0]
 800dcac:	4770      	bx	lr
 800dcae:	bf00      	nop
 800dcb0:	08015cf8 	.word	0x08015cf8

0800dcb4 <_ZN12_GLOBAL__N_125font_OSD_Charset_167_typeD1Ev>:
 800dcb4:	4b01      	ldr	r3, [pc, #4]	; (800dcbc <_ZN12_GLOBAL__N_125font_OSD_Charset_167_typeD1Ev+0x8>)
 800dcb6:	6003      	str	r3, [r0, #0]
 800dcb8:	4770      	bx	lr
 800dcba:	bf00      	nop
 800dcbc:	08015cf8 	.word	0x08015cf8

0800dcc0 <_ZN12_GLOBAL__N_125font_OSD_Charset_166_typeD1Ev>:
 800dcc0:	4b01      	ldr	r3, [pc, #4]	; (800dcc8 <_ZN12_GLOBAL__N_125font_OSD_Charset_166_typeD1Ev+0x8>)
 800dcc2:	6003      	str	r3, [r0, #0]
 800dcc4:	4770      	bx	lr
 800dcc6:	bf00      	nop
 800dcc8:	08015cf8 	.word	0x08015cf8

0800dccc <_ZN12_GLOBAL__N_125font_OSD_Charset_165_typeD1Ev>:
 800dccc:	4b01      	ldr	r3, [pc, #4]	; (800dcd4 <_ZN12_GLOBAL__N_125font_OSD_Charset_165_typeD1Ev+0x8>)
 800dcce:	6003      	str	r3, [r0, #0]
 800dcd0:	4770      	bx	lr
 800dcd2:	bf00      	nop
 800dcd4:	08015cf8 	.word	0x08015cf8

0800dcd8 <_ZN12_GLOBAL__N_125font_OSD_Charset_164_typeD1Ev>:
 800dcd8:	4b01      	ldr	r3, [pc, #4]	; (800dce0 <_ZN12_GLOBAL__N_125font_OSD_Charset_164_typeD1Ev+0x8>)
 800dcda:	6003      	str	r3, [r0, #0]
 800dcdc:	4770      	bx	lr
 800dcde:	bf00      	nop
 800dce0:	08015cf8 	.word	0x08015cf8

0800dce4 <_ZN12_GLOBAL__N_125font_OSD_Charset_163_typeD1Ev>:
 800dce4:	4b01      	ldr	r3, [pc, #4]	; (800dcec <_ZN12_GLOBAL__N_125font_OSD_Charset_163_typeD1Ev+0x8>)
 800dce6:	6003      	str	r3, [r0, #0]
 800dce8:	4770      	bx	lr
 800dcea:	bf00      	nop
 800dcec:	08015cf8 	.word	0x08015cf8

0800dcf0 <_ZN12_GLOBAL__N_125font_OSD_Charset_162_typeD1Ev>:
 800dcf0:	4b01      	ldr	r3, [pc, #4]	; (800dcf8 <_ZN12_GLOBAL__N_125font_OSD_Charset_162_typeD1Ev+0x8>)
 800dcf2:	6003      	str	r3, [r0, #0]
 800dcf4:	4770      	bx	lr
 800dcf6:	bf00      	nop
 800dcf8:	08015cf8 	.word	0x08015cf8

0800dcfc <_ZN12_GLOBAL__N_125font_OSD_Charset_161_typeD1Ev>:
 800dcfc:	4b01      	ldr	r3, [pc, #4]	; (800dd04 <_ZN12_GLOBAL__N_125font_OSD_Charset_161_typeD1Ev+0x8>)
 800dcfe:	6003      	str	r3, [r0, #0]
 800dd00:	4770      	bx	lr
 800dd02:	bf00      	nop
 800dd04:	08015cf8 	.word	0x08015cf8

0800dd08 <_ZN12_GLOBAL__N_125font_OSD_Charset_160_typeD1Ev>:
 800dd08:	4b01      	ldr	r3, [pc, #4]	; (800dd10 <_ZN12_GLOBAL__N_125font_OSD_Charset_160_typeD1Ev+0x8>)
 800dd0a:	6003      	str	r3, [r0, #0]
 800dd0c:	4770      	bx	lr
 800dd0e:	bf00      	nop
 800dd10:	08015cf8 	.word	0x08015cf8

0800dd14 <_ZN12_GLOBAL__N_125font_OSD_Charset_159_typeD1Ev>:
 800dd14:	4b01      	ldr	r3, [pc, #4]	; (800dd1c <_ZN12_GLOBAL__N_125font_OSD_Charset_159_typeD1Ev+0x8>)
 800dd16:	6003      	str	r3, [r0, #0]
 800dd18:	4770      	bx	lr
 800dd1a:	bf00      	nop
 800dd1c:	08015cf8 	.word	0x08015cf8

0800dd20 <_ZN12_GLOBAL__N_125font_OSD_Charset_158_typeD1Ev>:
 800dd20:	4b01      	ldr	r3, [pc, #4]	; (800dd28 <_ZN12_GLOBAL__N_125font_OSD_Charset_158_typeD1Ev+0x8>)
 800dd22:	6003      	str	r3, [r0, #0]
 800dd24:	4770      	bx	lr
 800dd26:	bf00      	nop
 800dd28:	08015cf8 	.word	0x08015cf8

0800dd2c <_ZN12_GLOBAL__N_125font_OSD_Charset_157_typeD1Ev>:
 800dd2c:	4b01      	ldr	r3, [pc, #4]	; (800dd34 <_ZN12_GLOBAL__N_125font_OSD_Charset_157_typeD1Ev+0x8>)
 800dd2e:	6003      	str	r3, [r0, #0]
 800dd30:	4770      	bx	lr
 800dd32:	bf00      	nop
 800dd34:	08015cf8 	.word	0x08015cf8

0800dd38 <_ZN12_GLOBAL__N_125font_OSD_Charset_156_typeD1Ev>:
 800dd38:	4b01      	ldr	r3, [pc, #4]	; (800dd40 <_ZN12_GLOBAL__N_125font_OSD_Charset_156_typeD1Ev+0x8>)
 800dd3a:	6003      	str	r3, [r0, #0]
 800dd3c:	4770      	bx	lr
 800dd3e:	bf00      	nop
 800dd40:	08015cf8 	.word	0x08015cf8

0800dd44 <_ZN12_GLOBAL__N_125font_OSD_Charset_155_typeD1Ev>:
 800dd44:	4b01      	ldr	r3, [pc, #4]	; (800dd4c <_ZN12_GLOBAL__N_125font_OSD_Charset_155_typeD1Ev+0x8>)
 800dd46:	6003      	str	r3, [r0, #0]
 800dd48:	4770      	bx	lr
 800dd4a:	bf00      	nop
 800dd4c:	08015cf8 	.word	0x08015cf8

0800dd50 <_ZN12_GLOBAL__N_125font_OSD_Charset_154_typeD1Ev>:
 800dd50:	4b01      	ldr	r3, [pc, #4]	; (800dd58 <_ZN12_GLOBAL__N_125font_OSD_Charset_154_typeD1Ev+0x8>)
 800dd52:	6003      	str	r3, [r0, #0]
 800dd54:	4770      	bx	lr
 800dd56:	bf00      	nop
 800dd58:	08015cf8 	.word	0x08015cf8

0800dd5c <_ZN12_GLOBAL__N_125font_OSD_Charset_153_typeD1Ev>:
 800dd5c:	4b01      	ldr	r3, [pc, #4]	; (800dd64 <_ZN12_GLOBAL__N_125font_OSD_Charset_153_typeD1Ev+0x8>)
 800dd5e:	6003      	str	r3, [r0, #0]
 800dd60:	4770      	bx	lr
 800dd62:	bf00      	nop
 800dd64:	08015cf8 	.word	0x08015cf8

0800dd68 <_ZN12_GLOBAL__N_125font_OSD_Charset_152_typeD1Ev>:
 800dd68:	4b01      	ldr	r3, [pc, #4]	; (800dd70 <_ZN12_GLOBAL__N_125font_OSD_Charset_152_typeD1Ev+0x8>)
 800dd6a:	6003      	str	r3, [r0, #0]
 800dd6c:	4770      	bx	lr
 800dd6e:	bf00      	nop
 800dd70:	08015cf8 	.word	0x08015cf8

0800dd74 <_ZN12_GLOBAL__N_125font_OSD_Charset_151_typeD1Ev>:
 800dd74:	4b01      	ldr	r3, [pc, #4]	; (800dd7c <_ZN12_GLOBAL__N_125font_OSD_Charset_151_typeD1Ev+0x8>)
 800dd76:	6003      	str	r3, [r0, #0]
 800dd78:	4770      	bx	lr
 800dd7a:	bf00      	nop
 800dd7c:	08015cf8 	.word	0x08015cf8

0800dd80 <_ZN12_GLOBAL__N_125font_OSD_Charset_150_typeD1Ev>:
 800dd80:	4b01      	ldr	r3, [pc, #4]	; (800dd88 <_ZN12_GLOBAL__N_125font_OSD_Charset_150_typeD1Ev+0x8>)
 800dd82:	6003      	str	r3, [r0, #0]
 800dd84:	4770      	bx	lr
 800dd86:	bf00      	nop
 800dd88:	08015cf8 	.word	0x08015cf8

0800dd8c <_ZN12_GLOBAL__N_125font_OSD_Charset_149_typeD1Ev>:
 800dd8c:	4b01      	ldr	r3, [pc, #4]	; (800dd94 <_ZN12_GLOBAL__N_125font_OSD_Charset_149_typeD1Ev+0x8>)
 800dd8e:	6003      	str	r3, [r0, #0]
 800dd90:	4770      	bx	lr
 800dd92:	bf00      	nop
 800dd94:	08015cf8 	.word	0x08015cf8

0800dd98 <_ZN12_GLOBAL__N_125font_OSD_Charset_148_typeD1Ev>:
 800dd98:	4b01      	ldr	r3, [pc, #4]	; (800dda0 <_ZN12_GLOBAL__N_125font_OSD_Charset_148_typeD1Ev+0x8>)
 800dd9a:	6003      	str	r3, [r0, #0]
 800dd9c:	4770      	bx	lr
 800dd9e:	bf00      	nop
 800dda0:	08015cf8 	.word	0x08015cf8

0800dda4 <_ZN12_GLOBAL__N_125font_OSD_Charset_147_typeD1Ev>:
 800dda4:	4b01      	ldr	r3, [pc, #4]	; (800ddac <_ZN12_GLOBAL__N_125font_OSD_Charset_147_typeD1Ev+0x8>)
 800dda6:	6003      	str	r3, [r0, #0]
 800dda8:	4770      	bx	lr
 800ddaa:	bf00      	nop
 800ddac:	08015cf8 	.word	0x08015cf8

0800ddb0 <_ZN12_GLOBAL__N_125font_OSD_Charset_146_typeD1Ev>:
 800ddb0:	4b01      	ldr	r3, [pc, #4]	; (800ddb8 <_ZN12_GLOBAL__N_125font_OSD_Charset_146_typeD1Ev+0x8>)
 800ddb2:	6003      	str	r3, [r0, #0]
 800ddb4:	4770      	bx	lr
 800ddb6:	bf00      	nop
 800ddb8:	08015cf8 	.word	0x08015cf8

0800ddbc <_ZN12_GLOBAL__N_125font_OSD_Charset_145_typeD1Ev>:
 800ddbc:	4b01      	ldr	r3, [pc, #4]	; (800ddc4 <_ZN12_GLOBAL__N_125font_OSD_Charset_145_typeD1Ev+0x8>)
 800ddbe:	6003      	str	r3, [r0, #0]
 800ddc0:	4770      	bx	lr
 800ddc2:	bf00      	nop
 800ddc4:	08015cf8 	.word	0x08015cf8

0800ddc8 <_ZN12_GLOBAL__N_125font_OSD_Charset_144_typeD1Ev>:
 800ddc8:	4b01      	ldr	r3, [pc, #4]	; (800ddd0 <_ZN12_GLOBAL__N_125font_OSD_Charset_144_typeD1Ev+0x8>)
 800ddca:	6003      	str	r3, [r0, #0]
 800ddcc:	4770      	bx	lr
 800ddce:	bf00      	nop
 800ddd0:	08015cf8 	.word	0x08015cf8

0800ddd4 <_ZN12_GLOBAL__N_125font_OSD_Charset_143_typeD1Ev>:
 800ddd4:	4b01      	ldr	r3, [pc, #4]	; (800dddc <_ZN12_GLOBAL__N_125font_OSD_Charset_143_typeD1Ev+0x8>)
 800ddd6:	6003      	str	r3, [r0, #0]
 800ddd8:	4770      	bx	lr
 800ddda:	bf00      	nop
 800dddc:	08015cf8 	.word	0x08015cf8

0800dde0 <_ZN12_GLOBAL__N_125font_OSD_Charset_142_typeD1Ev>:
 800dde0:	4b01      	ldr	r3, [pc, #4]	; (800dde8 <_ZN12_GLOBAL__N_125font_OSD_Charset_142_typeD1Ev+0x8>)
 800dde2:	6003      	str	r3, [r0, #0]
 800dde4:	4770      	bx	lr
 800dde6:	bf00      	nop
 800dde8:	08015cf8 	.word	0x08015cf8

0800ddec <_ZN12_GLOBAL__N_125font_OSD_Charset_141_typeD1Ev>:
 800ddec:	4b01      	ldr	r3, [pc, #4]	; (800ddf4 <_ZN12_GLOBAL__N_125font_OSD_Charset_141_typeD1Ev+0x8>)
 800ddee:	6003      	str	r3, [r0, #0]
 800ddf0:	4770      	bx	lr
 800ddf2:	bf00      	nop
 800ddf4:	08015cf8 	.word	0x08015cf8

0800ddf8 <_ZN12_GLOBAL__N_125font_OSD_Charset_140_typeD1Ev>:
 800ddf8:	4b01      	ldr	r3, [pc, #4]	; (800de00 <_ZN12_GLOBAL__N_125font_OSD_Charset_140_typeD1Ev+0x8>)
 800ddfa:	6003      	str	r3, [r0, #0]
 800ddfc:	4770      	bx	lr
 800ddfe:	bf00      	nop
 800de00:	08015cf8 	.word	0x08015cf8

0800de04 <_ZN12_GLOBAL__N_125font_OSD_Charset_139_typeD1Ev>:
 800de04:	4b01      	ldr	r3, [pc, #4]	; (800de0c <_ZN12_GLOBAL__N_125font_OSD_Charset_139_typeD1Ev+0x8>)
 800de06:	6003      	str	r3, [r0, #0]
 800de08:	4770      	bx	lr
 800de0a:	bf00      	nop
 800de0c:	08015cf8 	.word	0x08015cf8

0800de10 <_ZN12_GLOBAL__N_125font_OSD_Charset_138_typeD1Ev>:
 800de10:	4b01      	ldr	r3, [pc, #4]	; (800de18 <_ZN12_GLOBAL__N_125font_OSD_Charset_138_typeD1Ev+0x8>)
 800de12:	6003      	str	r3, [r0, #0]
 800de14:	4770      	bx	lr
 800de16:	bf00      	nop
 800de18:	08015cf8 	.word	0x08015cf8

0800de1c <_ZN12_GLOBAL__N_125font_OSD_Charset_137_typeD1Ev>:
 800de1c:	4b01      	ldr	r3, [pc, #4]	; (800de24 <_ZN12_GLOBAL__N_125font_OSD_Charset_137_typeD1Ev+0x8>)
 800de1e:	6003      	str	r3, [r0, #0]
 800de20:	4770      	bx	lr
 800de22:	bf00      	nop
 800de24:	08015cf8 	.word	0x08015cf8

0800de28 <_ZN12_GLOBAL__N_125font_OSD_Charset_136_typeD1Ev>:
 800de28:	4b01      	ldr	r3, [pc, #4]	; (800de30 <_ZN12_GLOBAL__N_125font_OSD_Charset_136_typeD1Ev+0x8>)
 800de2a:	6003      	str	r3, [r0, #0]
 800de2c:	4770      	bx	lr
 800de2e:	bf00      	nop
 800de30:	08015cf8 	.word	0x08015cf8

0800de34 <_ZN12_GLOBAL__N_125font_OSD_Charset_135_typeD1Ev>:
 800de34:	4b01      	ldr	r3, [pc, #4]	; (800de3c <_ZN12_GLOBAL__N_125font_OSD_Charset_135_typeD1Ev+0x8>)
 800de36:	6003      	str	r3, [r0, #0]
 800de38:	4770      	bx	lr
 800de3a:	bf00      	nop
 800de3c:	08015cf8 	.word	0x08015cf8

0800de40 <_ZN12_GLOBAL__N_125font_OSD_Charset_134_typeD1Ev>:
 800de40:	4b01      	ldr	r3, [pc, #4]	; (800de48 <_ZN12_GLOBAL__N_125font_OSD_Charset_134_typeD1Ev+0x8>)
 800de42:	6003      	str	r3, [r0, #0]
 800de44:	4770      	bx	lr
 800de46:	bf00      	nop
 800de48:	08015cf8 	.word	0x08015cf8

0800de4c <_ZN12_GLOBAL__N_125font_OSD_Charset_133_typeD1Ev>:
 800de4c:	4b01      	ldr	r3, [pc, #4]	; (800de54 <_ZN12_GLOBAL__N_125font_OSD_Charset_133_typeD1Ev+0x8>)
 800de4e:	6003      	str	r3, [r0, #0]
 800de50:	4770      	bx	lr
 800de52:	bf00      	nop
 800de54:	08015cf8 	.word	0x08015cf8

0800de58 <_ZN12_GLOBAL__N_125font_OSD_Charset_132_typeD1Ev>:
 800de58:	4b01      	ldr	r3, [pc, #4]	; (800de60 <_ZN12_GLOBAL__N_125font_OSD_Charset_132_typeD1Ev+0x8>)
 800de5a:	6003      	str	r3, [r0, #0]
 800de5c:	4770      	bx	lr
 800de5e:	bf00      	nop
 800de60:	08015cf8 	.word	0x08015cf8

0800de64 <_ZN12_GLOBAL__N_125font_OSD_Charset_131_typeD1Ev>:
 800de64:	4b01      	ldr	r3, [pc, #4]	; (800de6c <_ZN12_GLOBAL__N_125font_OSD_Charset_131_typeD1Ev+0x8>)
 800de66:	6003      	str	r3, [r0, #0]
 800de68:	4770      	bx	lr
 800de6a:	bf00      	nop
 800de6c:	08015cf8 	.word	0x08015cf8

0800de70 <_ZN12_GLOBAL__N_125font_OSD_Charset_130_typeD1Ev>:
 800de70:	4b01      	ldr	r3, [pc, #4]	; (800de78 <_ZN12_GLOBAL__N_125font_OSD_Charset_130_typeD1Ev+0x8>)
 800de72:	6003      	str	r3, [r0, #0]
 800de74:	4770      	bx	lr
 800de76:	bf00      	nop
 800de78:	08015cf8 	.word	0x08015cf8

0800de7c <_ZN12_GLOBAL__N_125font_OSD_Charset_129_typeD1Ev>:
 800de7c:	4b01      	ldr	r3, [pc, #4]	; (800de84 <_ZN12_GLOBAL__N_125font_OSD_Charset_129_typeD1Ev+0x8>)
 800de7e:	6003      	str	r3, [r0, #0]
 800de80:	4770      	bx	lr
 800de82:	bf00      	nop
 800de84:	08015cf8 	.word	0x08015cf8

0800de88 <_ZN12_GLOBAL__N_125font_OSD_Charset_128_typeD1Ev>:
 800de88:	4b01      	ldr	r3, [pc, #4]	; (800de90 <_ZN12_GLOBAL__N_125font_OSD_Charset_128_typeD1Ev+0x8>)
 800de8a:	6003      	str	r3, [r0, #0]
 800de8c:	4770      	bx	lr
 800de8e:	bf00      	nop
 800de90:	08015cf8 	.word	0x08015cf8

0800de94 <_ZN12_GLOBAL__N_125font_OSD_Charset_127_typeD1Ev>:
 800de94:	4b01      	ldr	r3, [pc, #4]	; (800de9c <_ZN12_GLOBAL__N_125font_OSD_Charset_127_typeD1Ev+0x8>)
 800de96:	6003      	str	r3, [r0, #0]
 800de98:	4770      	bx	lr
 800de9a:	bf00      	nop
 800de9c:	08015cf8 	.word	0x08015cf8

0800dea0 <_ZN12_GLOBAL__N_125font_OSD_Charset_126_typeD1Ev>:
 800dea0:	4b01      	ldr	r3, [pc, #4]	; (800dea8 <_ZN12_GLOBAL__N_125font_OSD_Charset_126_typeD1Ev+0x8>)
 800dea2:	6003      	str	r3, [r0, #0]
 800dea4:	4770      	bx	lr
 800dea6:	bf00      	nop
 800dea8:	08015cf8 	.word	0x08015cf8

0800deac <_ZN12_GLOBAL__N_125font_OSD_Charset_125_typeD1Ev>:
 800deac:	4b01      	ldr	r3, [pc, #4]	; (800deb4 <_ZN12_GLOBAL__N_125font_OSD_Charset_125_typeD1Ev+0x8>)
 800deae:	6003      	str	r3, [r0, #0]
 800deb0:	4770      	bx	lr
 800deb2:	bf00      	nop
 800deb4:	08015cf8 	.word	0x08015cf8

0800deb8 <_ZN12_GLOBAL__N_125font_OSD_Charset_124_typeD1Ev>:
 800deb8:	4b01      	ldr	r3, [pc, #4]	; (800dec0 <_ZN12_GLOBAL__N_125font_OSD_Charset_124_typeD1Ev+0x8>)
 800deba:	6003      	str	r3, [r0, #0]
 800debc:	4770      	bx	lr
 800debe:	bf00      	nop
 800dec0:	08015cf8 	.word	0x08015cf8

0800dec4 <_ZN12_GLOBAL__N_125font_OSD_Charset_123_typeD1Ev>:
 800dec4:	4b01      	ldr	r3, [pc, #4]	; (800decc <_ZN12_GLOBAL__N_125font_OSD_Charset_123_typeD1Ev+0x8>)
 800dec6:	6003      	str	r3, [r0, #0]
 800dec8:	4770      	bx	lr
 800deca:	bf00      	nop
 800decc:	08015cf8 	.word	0x08015cf8

0800ded0 <_ZN12_GLOBAL__N_125font_OSD_Charset_122_typeD1Ev>:
 800ded0:	4b01      	ldr	r3, [pc, #4]	; (800ded8 <_ZN12_GLOBAL__N_125font_OSD_Charset_122_typeD1Ev+0x8>)
 800ded2:	6003      	str	r3, [r0, #0]
 800ded4:	4770      	bx	lr
 800ded6:	bf00      	nop
 800ded8:	08015cf8 	.word	0x08015cf8

0800dedc <_ZN12_GLOBAL__N_125font_OSD_Charset_121_typeD1Ev>:
 800dedc:	4b01      	ldr	r3, [pc, #4]	; (800dee4 <_ZN12_GLOBAL__N_125font_OSD_Charset_121_typeD1Ev+0x8>)
 800dede:	6003      	str	r3, [r0, #0]
 800dee0:	4770      	bx	lr
 800dee2:	bf00      	nop
 800dee4:	08015cf8 	.word	0x08015cf8

0800dee8 <_ZN12_GLOBAL__N_125font_OSD_Charset_120_typeD1Ev>:
 800dee8:	4b01      	ldr	r3, [pc, #4]	; (800def0 <_ZN12_GLOBAL__N_125font_OSD_Charset_120_typeD1Ev+0x8>)
 800deea:	6003      	str	r3, [r0, #0]
 800deec:	4770      	bx	lr
 800deee:	bf00      	nop
 800def0:	08015cf8 	.word	0x08015cf8

0800def4 <_ZN12_GLOBAL__N_125font_OSD_Charset_119_typeD1Ev>:
 800def4:	4b01      	ldr	r3, [pc, #4]	; (800defc <_ZN12_GLOBAL__N_125font_OSD_Charset_119_typeD1Ev+0x8>)
 800def6:	6003      	str	r3, [r0, #0]
 800def8:	4770      	bx	lr
 800defa:	bf00      	nop
 800defc:	08015cf8 	.word	0x08015cf8

0800df00 <_ZN12_GLOBAL__N_125font_OSD_Charset_118_typeD1Ev>:
 800df00:	4b01      	ldr	r3, [pc, #4]	; (800df08 <_ZN12_GLOBAL__N_125font_OSD_Charset_118_typeD1Ev+0x8>)
 800df02:	6003      	str	r3, [r0, #0]
 800df04:	4770      	bx	lr
 800df06:	bf00      	nop
 800df08:	08015cf8 	.word	0x08015cf8

0800df0c <_ZN12_GLOBAL__N_125font_OSD_Charset_117_typeD1Ev>:
 800df0c:	4b01      	ldr	r3, [pc, #4]	; (800df14 <_ZN12_GLOBAL__N_125font_OSD_Charset_117_typeD1Ev+0x8>)
 800df0e:	6003      	str	r3, [r0, #0]
 800df10:	4770      	bx	lr
 800df12:	bf00      	nop
 800df14:	08015cf8 	.word	0x08015cf8

0800df18 <_ZN12_GLOBAL__N_125font_OSD_Charset_116_typeD1Ev>:
 800df18:	4b01      	ldr	r3, [pc, #4]	; (800df20 <_ZN12_GLOBAL__N_125font_OSD_Charset_116_typeD1Ev+0x8>)
 800df1a:	6003      	str	r3, [r0, #0]
 800df1c:	4770      	bx	lr
 800df1e:	bf00      	nop
 800df20:	08015cf8 	.word	0x08015cf8

0800df24 <_ZN12_GLOBAL__N_125font_OSD_Charset_115_typeD1Ev>:
 800df24:	4b01      	ldr	r3, [pc, #4]	; (800df2c <_ZN12_GLOBAL__N_125font_OSD_Charset_115_typeD1Ev+0x8>)
 800df26:	6003      	str	r3, [r0, #0]
 800df28:	4770      	bx	lr
 800df2a:	bf00      	nop
 800df2c:	08015cf8 	.word	0x08015cf8

0800df30 <_ZN12_GLOBAL__N_125font_OSD_Charset_114_typeD1Ev>:
 800df30:	4b01      	ldr	r3, [pc, #4]	; (800df38 <_ZN12_GLOBAL__N_125font_OSD_Charset_114_typeD1Ev+0x8>)
 800df32:	6003      	str	r3, [r0, #0]
 800df34:	4770      	bx	lr
 800df36:	bf00      	nop
 800df38:	08015cf8 	.word	0x08015cf8

0800df3c <_ZN12_GLOBAL__N_125font_OSD_Charset_113_typeD1Ev>:
 800df3c:	4b01      	ldr	r3, [pc, #4]	; (800df44 <_ZN12_GLOBAL__N_125font_OSD_Charset_113_typeD1Ev+0x8>)
 800df3e:	6003      	str	r3, [r0, #0]
 800df40:	4770      	bx	lr
 800df42:	bf00      	nop
 800df44:	08015cf8 	.word	0x08015cf8

0800df48 <_ZN12_GLOBAL__N_125font_OSD_Charset_112_typeD1Ev>:
 800df48:	4b01      	ldr	r3, [pc, #4]	; (800df50 <_ZN12_GLOBAL__N_125font_OSD_Charset_112_typeD1Ev+0x8>)
 800df4a:	6003      	str	r3, [r0, #0]
 800df4c:	4770      	bx	lr
 800df4e:	bf00      	nop
 800df50:	08015cf8 	.word	0x08015cf8

0800df54 <_ZN12_GLOBAL__N_125font_OSD_Charset_111_typeD1Ev>:
 800df54:	4b01      	ldr	r3, [pc, #4]	; (800df5c <_ZN12_GLOBAL__N_125font_OSD_Charset_111_typeD1Ev+0x8>)
 800df56:	6003      	str	r3, [r0, #0]
 800df58:	4770      	bx	lr
 800df5a:	bf00      	nop
 800df5c:	08015cf8 	.word	0x08015cf8

0800df60 <_ZN12_GLOBAL__N_125font_OSD_Charset_110_typeD1Ev>:
 800df60:	4b01      	ldr	r3, [pc, #4]	; (800df68 <_ZN12_GLOBAL__N_125font_OSD_Charset_110_typeD1Ev+0x8>)
 800df62:	6003      	str	r3, [r0, #0]
 800df64:	4770      	bx	lr
 800df66:	bf00      	nop
 800df68:	08015cf8 	.word	0x08015cf8

0800df6c <_ZN12_GLOBAL__N_125font_OSD_Charset_109_typeD1Ev>:
 800df6c:	4b01      	ldr	r3, [pc, #4]	; (800df74 <_ZN12_GLOBAL__N_125font_OSD_Charset_109_typeD1Ev+0x8>)
 800df6e:	6003      	str	r3, [r0, #0]
 800df70:	4770      	bx	lr
 800df72:	bf00      	nop
 800df74:	08015cf8 	.word	0x08015cf8

0800df78 <_ZN12_GLOBAL__N_125font_OSD_Charset_108_typeD1Ev>:
 800df78:	4b01      	ldr	r3, [pc, #4]	; (800df80 <_ZN12_GLOBAL__N_125font_OSD_Charset_108_typeD1Ev+0x8>)
 800df7a:	6003      	str	r3, [r0, #0]
 800df7c:	4770      	bx	lr
 800df7e:	bf00      	nop
 800df80:	08015cf8 	.word	0x08015cf8

0800df84 <_ZN12_GLOBAL__N_125font_OSD_Charset_107_typeD1Ev>:
 800df84:	4b01      	ldr	r3, [pc, #4]	; (800df8c <_ZN12_GLOBAL__N_125font_OSD_Charset_107_typeD1Ev+0x8>)
 800df86:	6003      	str	r3, [r0, #0]
 800df88:	4770      	bx	lr
 800df8a:	bf00      	nop
 800df8c:	08015cf8 	.word	0x08015cf8

0800df90 <_ZN12_GLOBAL__N_125font_OSD_Charset_106_typeD1Ev>:
 800df90:	4b01      	ldr	r3, [pc, #4]	; (800df98 <_ZN12_GLOBAL__N_125font_OSD_Charset_106_typeD1Ev+0x8>)
 800df92:	6003      	str	r3, [r0, #0]
 800df94:	4770      	bx	lr
 800df96:	bf00      	nop
 800df98:	08015cf8 	.word	0x08015cf8

0800df9c <_ZN12_GLOBAL__N_125font_OSD_Charset_105_typeD1Ev>:
 800df9c:	4b01      	ldr	r3, [pc, #4]	; (800dfa4 <_ZN12_GLOBAL__N_125font_OSD_Charset_105_typeD1Ev+0x8>)
 800df9e:	6003      	str	r3, [r0, #0]
 800dfa0:	4770      	bx	lr
 800dfa2:	bf00      	nop
 800dfa4:	08015cf8 	.word	0x08015cf8

0800dfa8 <_ZN12_GLOBAL__N_125font_OSD_Charset_104_typeD1Ev>:
 800dfa8:	4b01      	ldr	r3, [pc, #4]	; (800dfb0 <_ZN12_GLOBAL__N_125font_OSD_Charset_104_typeD1Ev+0x8>)
 800dfaa:	6003      	str	r3, [r0, #0]
 800dfac:	4770      	bx	lr
 800dfae:	bf00      	nop
 800dfb0:	08015cf8 	.word	0x08015cf8

0800dfb4 <_ZN12_GLOBAL__N_125font_OSD_Charset_103_typeD1Ev>:
 800dfb4:	4b01      	ldr	r3, [pc, #4]	; (800dfbc <_ZN12_GLOBAL__N_125font_OSD_Charset_103_typeD1Ev+0x8>)
 800dfb6:	6003      	str	r3, [r0, #0]
 800dfb8:	4770      	bx	lr
 800dfba:	bf00      	nop
 800dfbc:	08015cf8 	.word	0x08015cf8

0800dfc0 <_ZN12_GLOBAL__N_125font_OSD_Charset_102_typeD1Ev>:
 800dfc0:	4b01      	ldr	r3, [pc, #4]	; (800dfc8 <_ZN12_GLOBAL__N_125font_OSD_Charset_102_typeD1Ev+0x8>)
 800dfc2:	6003      	str	r3, [r0, #0]
 800dfc4:	4770      	bx	lr
 800dfc6:	bf00      	nop
 800dfc8:	08015cf8 	.word	0x08015cf8

0800dfcc <_ZN12_GLOBAL__N_125font_OSD_Charset_101_typeD1Ev>:
 800dfcc:	4b01      	ldr	r3, [pc, #4]	; (800dfd4 <_ZN12_GLOBAL__N_125font_OSD_Charset_101_typeD1Ev+0x8>)
 800dfce:	6003      	str	r3, [r0, #0]
 800dfd0:	4770      	bx	lr
 800dfd2:	bf00      	nop
 800dfd4:	08015cf8 	.word	0x08015cf8

0800dfd8 <_ZN12_GLOBAL__N_125font_OSD_Charset_100_typeD1Ev>:
 800dfd8:	4b01      	ldr	r3, [pc, #4]	; (800dfe0 <_ZN12_GLOBAL__N_125font_OSD_Charset_100_typeD1Ev+0x8>)
 800dfda:	6003      	str	r3, [r0, #0]
 800dfdc:	4770      	bx	lr
 800dfde:	bf00      	nop
 800dfe0:	08015cf8 	.word	0x08015cf8

0800dfe4 <_ZN12_GLOBAL__N_124font_OSD_Charset_99_typeD1Ev>:
 800dfe4:	4b01      	ldr	r3, [pc, #4]	; (800dfec <_ZN12_GLOBAL__N_124font_OSD_Charset_99_typeD1Ev+0x8>)
 800dfe6:	6003      	str	r3, [r0, #0]
 800dfe8:	4770      	bx	lr
 800dfea:	bf00      	nop
 800dfec:	08015cf8 	.word	0x08015cf8

0800dff0 <_ZN12_GLOBAL__N_124font_OSD_Charset_98_typeD1Ev>:
 800dff0:	4b01      	ldr	r3, [pc, #4]	; (800dff8 <_ZN12_GLOBAL__N_124font_OSD_Charset_98_typeD1Ev+0x8>)
 800dff2:	6003      	str	r3, [r0, #0]
 800dff4:	4770      	bx	lr
 800dff6:	bf00      	nop
 800dff8:	08015cf8 	.word	0x08015cf8

0800dffc <_ZN12_GLOBAL__N_124font_OSD_Charset_97_typeD1Ev>:
 800dffc:	4b01      	ldr	r3, [pc, #4]	; (800e004 <_ZN12_GLOBAL__N_124font_OSD_Charset_97_typeD1Ev+0x8>)
 800dffe:	6003      	str	r3, [r0, #0]
 800e000:	4770      	bx	lr
 800e002:	bf00      	nop
 800e004:	08015cf8 	.word	0x08015cf8

0800e008 <_ZN12_GLOBAL__N_124font_OSD_Charset_96_typeD1Ev>:
 800e008:	4b01      	ldr	r3, [pc, #4]	; (800e010 <_ZN12_GLOBAL__N_124font_OSD_Charset_96_typeD1Ev+0x8>)
 800e00a:	6003      	str	r3, [r0, #0]
 800e00c:	4770      	bx	lr
 800e00e:	bf00      	nop
 800e010:	08015cf8 	.word	0x08015cf8

0800e014 <_ZN12_GLOBAL__N_124font_OSD_Charset_95_typeD1Ev>:
 800e014:	4b01      	ldr	r3, [pc, #4]	; (800e01c <_ZN12_GLOBAL__N_124font_OSD_Charset_95_typeD1Ev+0x8>)
 800e016:	6003      	str	r3, [r0, #0]
 800e018:	4770      	bx	lr
 800e01a:	bf00      	nop
 800e01c:	08015cf8 	.word	0x08015cf8

0800e020 <_ZN12_GLOBAL__N_124font_OSD_Charset_94_typeD1Ev>:
 800e020:	4b01      	ldr	r3, [pc, #4]	; (800e028 <_ZN12_GLOBAL__N_124font_OSD_Charset_94_typeD1Ev+0x8>)
 800e022:	6003      	str	r3, [r0, #0]
 800e024:	4770      	bx	lr
 800e026:	bf00      	nop
 800e028:	08015cf8 	.word	0x08015cf8

0800e02c <_ZN12_GLOBAL__N_124font_OSD_Charset_93_typeD1Ev>:
 800e02c:	4b01      	ldr	r3, [pc, #4]	; (800e034 <_ZN12_GLOBAL__N_124font_OSD_Charset_93_typeD1Ev+0x8>)
 800e02e:	6003      	str	r3, [r0, #0]
 800e030:	4770      	bx	lr
 800e032:	bf00      	nop
 800e034:	08015cf8 	.word	0x08015cf8

0800e038 <_ZN12_GLOBAL__N_124font_OSD_Charset_92_typeD1Ev>:
 800e038:	4b01      	ldr	r3, [pc, #4]	; (800e040 <_ZN12_GLOBAL__N_124font_OSD_Charset_92_typeD1Ev+0x8>)
 800e03a:	6003      	str	r3, [r0, #0]
 800e03c:	4770      	bx	lr
 800e03e:	bf00      	nop
 800e040:	08015cf8 	.word	0x08015cf8

0800e044 <_ZN12_GLOBAL__N_124font_OSD_Charset_91_typeD1Ev>:
 800e044:	4b01      	ldr	r3, [pc, #4]	; (800e04c <_ZN12_GLOBAL__N_124font_OSD_Charset_91_typeD1Ev+0x8>)
 800e046:	6003      	str	r3, [r0, #0]
 800e048:	4770      	bx	lr
 800e04a:	bf00      	nop
 800e04c:	08015cf8 	.word	0x08015cf8

0800e050 <_ZN12_GLOBAL__N_124font_OSD_Charset_90_typeD1Ev>:
 800e050:	4b01      	ldr	r3, [pc, #4]	; (800e058 <_ZN12_GLOBAL__N_124font_OSD_Charset_90_typeD1Ev+0x8>)
 800e052:	6003      	str	r3, [r0, #0]
 800e054:	4770      	bx	lr
 800e056:	bf00      	nop
 800e058:	08015cf8 	.word	0x08015cf8

0800e05c <_ZN12_GLOBAL__N_124font_OSD_Charset_89_typeD1Ev>:
 800e05c:	4b01      	ldr	r3, [pc, #4]	; (800e064 <_ZN12_GLOBAL__N_124font_OSD_Charset_89_typeD1Ev+0x8>)
 800e05e:	6003      	str	r3, [r0, #0]
 800e060:	4770      	bx	lr
 800e062:	bf00      	nop
 800e064:	08015cf8 	.word	0x08015cf8

0800e068 <_ZN12_GLOBAL__N_124font_OSD_Charset_88_typeD1Ev>:
 800e068:	4b01      	ldr	r3, [pc, #4]	; (800e070 <_ZN12_GLOBAL__N_124font_OSD_Charset_88_typeD1Ev+0x8>)
 800e06a:	6003      	str	r3, [r0, #0]
 800e06c:	4770      	bx	lr
 800e06e:	bf00      	nop
 800e070:	08015cf8 	.word	0x08015cf8

0800e074 <_ZN12_GLOBAL__N_124font_OSD_Charset_87_typeD1Ev>:
 800e074:	4b01      	ldr	r3, [pc, #4]	; (800e07c <_ZN12_GLOBAL__N_124font_OSD_Charset_87_typeD1Ev+0x8>)
 800e076:	6003      	str	r3, [r0, #0]
 800e078:	4770      	bx	lr
 800e07a:	bf00      	nop
 800e07c:	08015cf8 	.word	0x08015cf8

0800e080 <_ZN12_GLOBAL__N_124font_OSD_Charset_86_typeD1Ev>:
 800e080:	4b01      	ldr	r3, [pc, #4]	; (800e088 <_ZN12_GLOBAL__N_124font_OSD_Charset_86_typeD1Ev+0x8>)
 800e082:	6003      	str	r3, [r0, #0]
 800e084:	4770      	bx	lr
 800e086:	bf00      	nop
 800e088:	08015cf8 	.word	0x08015cf8

0800e08c <_ZN12_GLOBAL__N_124font_OSD_Charset_85_typeD1Ev>:
 800e08c:	4b01      	ldr	r3, [pc, #4]	; (800e094 <_ZN12_GLOBAL__N_124font_OSD_Charset_85_typeD1Ev+0x8>)
 800e08e:	6003      	str	r3, [r0, #0]
 800e090:	4770      	bx	lr
 800e092:	bf00      	nop
 800e094:	08015cf8 	.word	0x08015cf8

0800e098 <_ZN12_GLOBAL__N_124font_OSD_Charset_84_typeD1Ev>:
 800e098:	4b01      	ldr	r3, [pc, #4]	; (800e0a0 <_ZN12_GLOBAL__N_124font_OSD_Charset_84_typeD1Ev+0x8>)
 800e09a:	6003      	str	r3, [r0, #0]
 800e09c:	4770      	bx	lr
 800e09e:	bf00      	nop
 800e0a0:	08015cf8 	.word	0x08015cf8

0800e0a4 <_ZN12_GLOBAL__N_124font_OSD_Charset_83_typeD1Ev>:
 800e0a4:	4b01      	ldr	r3, [pc, #4]	; (800e0ac <_ZN12_GLOBAL__N_124font_OSD_Charset_83_typeD1Ev+0x8>)
 800e0a6:	6003      	str	r3, [r0, #0]
 800e0a8:	4770      	bx	lr
 800e0aa:	bf00      	nop
 800e0ac:	08015cf8 	.word	0x08015cf8

0800e0b0 <_ZN12_GLOBAL__N_124font_OSD_Charset_82_typeD1Ev>:
 800e0b0:	4b01      	ldr	r3, [pc, #4]	; (800e0b8 <_ZN12_GLOBAL__N_124font_OSD_Charset_82_typeD1Ev+0x8>)
 800e0b2:	6003      	str	r3, [r0, #0]
 800e0b4:	4770      	bx	lr
 800e0b6:	bf00      	nop
 800e0b8:	08015cf8 	.word	0x08015cf8

0800e0bc <_ZN12_GLOBAL__N_124font_OSD_Charset_81_typeD1Ev>:
 800e0bc:	4b01      	ldr	r3, [pc, #4]	; (800e0c4 <_ZN12_GLOBAL__N_124font_OSD_Charset_81_typeD1Ev+0x8>)
 800e0be:	6003      	str	r3, [r0, #0]
 800e0c0:	4770      	bx	lr
 800e0c2:	bf00      	nop
 800e0c4:	08015cf8 	.word	0x08015cf8

0800e0c8 <_ZN12_GLOBAL__N_124font_OSD_Charset_80_typeD1Ev>:
 800e0c8:	4b01      	ldr	r3, [pc, #4]	; (800e0d0 <_ZN12_GLOBAL__N_124font_OSD_Charset_80_typeD1Ev+0x8>)
 800e0ca:	6003      	str	r3, [r0, #0]
 800e0cc:	4770      	bx	lr
 800e0ce:	bf00      	nop
 800e0d0:	08015cf8 	.word	0x08015cf8

0800e0d4 <_ZN12_GLOBAL__N_124font_OSD_Charset_79_typeD1Ev>:
 800e0d4:	4b01      	ldr	r3, [pc, #4]	; (800e0dc <_ZN12_GLOBAL__N_124font_OSD_Charset_79_typeD1Ev+0x8>)
 800e0d6:	6003      	str	r3, [r0, #0]
 800e0d8:	4770      	bx	lr
 800e0da:	bf00      	nop
 800e0dc:	08015cf8 	.word	0x08015cf8

0800e0e0 <_ZN12_GLOBAL__N_124font_OSD_Charset_78_typeD1Ev>:
 800e0e0:	4b01      	ldr	r3, [pc, #4]	; (800e0e8 <_ZN12_GLOBAL__N_124font_OSD_Charset_78_typeD1Ev+0x8>)
 800e0e2:	6003      	str	r3, [r0, #0]
 800e0e4:	4770      	bx	lr
 800e0e6:	bf00      	nop
 800e0e8:	08015cf8 	.word	0x08015cf8

0800e0ec <_ZN12_GLOBAL__N_124font_OSD_Charset_77_typeD1Ev>:
 800e0ec:	4b01      	ldr	r3, [pc, #4]	; (800e0f4 <_ZN12_GLOBAL__N_124font_OSD_Charset_77_typeD1Ev+0x8>)
 800e0ee:	6003      	str	r3, [r0, #0]
 800e0f0:	4770      	bx	lr
 800e0f2:	bf00      	nop
 800e0f4:	08015cf8 	.word	0x08015cf8

0800e0f8 <_ZN12_GLOBAL__N_124font_OSD_Charset_76_typeD1Ev>:
 800e0f8:	4b01      	ldr	r3, [pc, #4]	; (800e100 <_ZN12_GLOBAL__N_124font_OSD_Charset_76_typeD1Ev+0x8>)
 800e0fa:	6003      	str	r3, [r0, #0]
 800e0fc:	4770      	bx	lr
 800e0fe:	bf00      	nop
 800e100:	08015cf8 	.word	0x08015cf8

0800e104 <_ZN12_GLOBAL__N_124font_OSD_Charset_75_typeD1Ev>:
 800e104:	4b01      	ldr	r3, [pc, #4]	; (800e10c <_ZN12_GLOBAL__N_124font_OSD_Charset_75_typeD1Ev+0x8>)
 800e106:	6003      	str	r3, [r0, #0]
 800e108:	4770      	bx	lr
 800e10a:	bf00      	nop
 800e10c:	08015cf8 	.word	0x08015cf8

0800e110 <_ZN12_GLOBAL__N_124font_OSD_Charset_74_typeD1Ev>:
 800e110:	4b01      	ldr	r3, [pc, #4]	; (800e118 <_ZN12_GLOBAL__N_124font_OSD_Charset_74_typeD1Ev+0x8>)
 800e112:	6003      	str	r3, [r0, #0]
 800e114:	4770      	bx	lr
 800e116:	bf00      	nop
 800e118:	08015cf8 	.word	0x08015cf8

0800e11c <_ZN12_GLOBAL__N_124font_OSD_Charset_73_typeD1Ev>:
 800e11c:	4b01      	ldr	r3, [pc, #4]	; (800e124 <_ZN12_GLOBAL__N_124font_OSD_Charset_73_typeD1Ev+0x8>)
 800e11e:	6003      	str	r3, [r0, #0]
 800e120:	4770      	bx	lr
 800e122:	bf00      	nop
 800e124:	08015cf8 	.word	0x08015cf8

0800e128 <_ZN12_GLOBAL__N_124font_OSD_Charset_72_typeD1Ev>:
 800e128:	4b01      	ldr	r3, [pc, #4]	; (800e130 <_ZN12_GLOBAL__N_124font_OSD_Charset_72_typeD1Ev+0x8>)
 800e12a:	6003      	str	r3, [r0, #0]
 800e12c:	4770      	bx	lr
 800e12e:	bf00      	nop
 800e130:	08015cf8 	.word	0x08015cf8

0800e134 <_ZN12_GLOBAL__N_124font_OSD_Charset_71_typeD1Ev>:
 800e134:	4b01      	ldr	r3, [pc, #4]	; (800e13c <_ZN12_GLOBAL__N_124font_OSD_Charset_71_typeD1Ev+0x8>)
 800e136:	6003      	str	r3, [r0, #0]
 800e138:	4770      	bx	lr
 800e13a:	bf00      	nop
 800e13c:	08015cf8 	.word	0x08015cf8

0800e140 <_ZN12_GLOBAL__N_124font_OSD_Charset_70_typeD1Ev>:
 800e140:	4b01      	ldr	r3, [pc, #4]	; (800e148 <_ZN12_GLOBAL__N_124font_OSD_Charset_70_typeD1Ev+0x8>)
 800e142:	6003      	str	r3, [r0, #0]
 800e144:	4770      	bx	lr
 800e146:	bf00      	nop
 800e148:	08015cf8 	.word	0x08015cf8

0800e14c <_ZN12_GLOBAL__N_124font_OSD_Charset_69_typeD1Ev>:
 800e14c:	4b01      	ldr	r3, [pc, #4]	; (800e154 <_ZN12_GLOBAL__N_124font_OSD_Charset_69_typeD1Ev+0x8>)
 800e14e:	6003      	str	r3, [r0, #0]
 800e150:	4770      	bx	lr
 800e152:	bf00      	nop
 800e154:	08015cf8 	.word	0x08015cf8

0800e158 <_ZN12_GLOBAL__N_124font_OSD_Charset_68_typeD1Ev>:
 800e158:	4b01      	ldr	r3, [pc, #4]	; (800e160 <_ZN12_GLOBAL__N_124font_OSD_Charset_68_typeD1Ev+0x8>)
 800e15a:	6003      	str	r3, [r0, #0]
 800e15c:	4770      	bx	lr
 800e15e:	bf00      	nop
 800e160:	08015cf8 	.word	0x08015cf8

0800e164 <_ZN12_GLOBAL__N_124font_OSD_Charset_67_typeD1Ev>:
 800e164:	4b01      	ldr	r3, [pc, #4]	; (800e16c <_ZN12_GLOBAL__N_124font_OSD_Charset_67_typeD1Ev+0x8>)
 800e166:	6003      	str	r3, [r0, #0]
 800e168:	4770      	bx	lr
 800e16a:	bf00      	nop
 800e16c:	08015cf8 	.word	0x08015cf8

0800e170 <_ZN12_GLOBAL__N_124font_OSD_Charset_66_typeD1Ev>:
 800e170:	4b01      	ldr	r3, [pc, #4]	; (800e178 <_ZN12_GLOBAL__N_124font_OSD_Charset_66_typeD1Ev+0x8>)
 800e172:	6003      	str	r3, [r0, #0]
 800e174:	4770      	bx	lr
 800e176:	bf00      	nop
 800e178:	08015cf8 	.word	0x08015cf8

0800e17c <_ZN12_GLOBAL__N_124font_OSD_Charset_65_typeD1Ev>:
 800e17c:	4b01      	ldr	r3, [pc, #4]	; (800e184 <_ZN12_GLOBAL__N_124font_OSD_Charset_65_typeD1Ev+0x8>)
 800e17e:	6003      	str	r3, [r0, #0]
 800e180:	4770      	bx	lr
 800e182:	bf00      	nop
 800e184:	08015cf8 	.word	0x08015cf8

0800e188 <_ZN12_GLOBAL__N_124font_OSD_Charset_64_typeD1Ev>:
 800e188:	4b01      	ldr	r3, [pc, #4]	; (800e190 <_ZN12_GLOBAL__N_124font_OSD_Charset_64_typeD1Ev+0x8>)
 800e18a:	6003      	str	r3, [r0, #0]
 800e18c:	4770      	bx	lr
 800e18e:	bf00      	nop
 800e190:	08015cf8 	.word	0x08015cf8

0800e194 <_ZN12_GLOBAL__N_124font_OSD_Charset_63_typeD1Ev>:
 800e194:	4b01      	ldr	r3, [pc, #4]	; (800e19c <_ZN12_GLOBAL__N_124font_OSD_Charset_63_typeD1Ev+0x8>)
 800e196:	6003      	str	r3, [r0, #0]
 800e198:	4770      	bx	lr
 800e19a:	bf00      	nop
 800e19c:	08015cf8 	.word	0x08015cf8

0800e1a0 <_ZN12_GLOBAL__N_124font_OSD_Charset_62_typeD1Ev>:
 800e1a0:	4b01      	ldr	r3, [pc, #4]	; (800e1a8 <_ZN12_GLOBAL__N_124font_OSD_Charset_62_typeD1Ev+0x8>)
 800e1a2:	6003      	str	r3, [r0, #0]
 800e1a4:	4770      	bx	lr
 800e1a6:	bf00      	nop
 800e1a8:	08015cf8 	.word	0x08015cf8

0800e1ac <_ZN12_GLOBAL__N_124font_OSD_Charset_61_typeD1Ev>:
 800e1ac:	4b01      	ldr	r3, [pc, #4]	; (800e1b4 <_ZN12_GLOBAL__N_124font_OSD_Charset_61_typeD1Ev+0x8>)
 800e1ae:	6003      	str	r3, [r0, #0]
 800e1b0:	4770      	bx	lr
 800e1b2:	bf00      	nop
 800e1b4:	08015cf8 	.word	0x08015cf8

0800e1b8 <_ZN12_GLOBAL__N_124font_OSD_Charset_60_typeD1Ev>:
 800e1b8:	4b01      	ldr	r3, [pc, #4]	; (800e1c0 <_ZN12_GLOBAL__N_124font_OSD_Charset_60_typeD1Ev+0x8>)
 800e1ba:	6003      	str	r3, [r0, #0]
 800e1bc:	4770      	bx	lr
 800e1be:	bf00      	nop
 800e1c0:	08015cf8 	.word	0x08015cf8

0800e1c4 <_ZN12_GLOBAL__N_124font_OSD_Charset_59_typeD1Ev>:
 800e1c4:	4b01      	ldr	r3, [pc, #4]	; (800e1cc <_ZN12_GLOBAL__N_124font_OSD_Charset_59_typeD1Ev+0x8>)
 800e1c6:	6003      	str	r3, [r0, #0]
 800e1c8:	4770      	bx	lr
 800e1ca:	bf00      	nop
 800e1cc:	08015cf8 	.word	0x08015cf8

0800e1d0 <_ZN12_GLOBAL__N_124font_OSD_Charset_58_typeD1Ev>:
 800e1d0:	4b01      	ldr	r3, [pc, #4]	; (800e1d8 <_ZN12_GLOBAL__N_124font_OSD_Charset_58_typeD1Ev+0x8>)
 800e1d2:	6003      	str	r3, [r0, #0]
 800e1d4:	4770      	bx	lr
 800e1d6:	bf00      	nop
 800e1d8:	08015cf8 	.word	0x08015cf8

0800e1dc <_ZN12_GLOBAL__N_124font_OSD_Charset_57_typeD1Ev>:
 800e1dc:	4b01      	ldr	r3, [pc, #4]	; (800e1e4 <_ZN12_GLOBAL__N_124font_OSD_Charset_57_typeD1Ev+0x8>)
 800e1de:	6003      	str	r3, [r0, #0]
 800e1e0:	4770      	bx	lr
 800e1e2:	bf00      	nop
 800e1e4:	08015cf8 	.word	0x08015cf8

0800e1e8 <_ZN12_GLOBAL__N_124font_OSD_Charset_56_typeD1Ev>:
 800e1e8:	4b01      	ldr	r3, [pc, #4]	; (800e1f0 <_ZN12_GLOBAL__N_124font_OSD_Charset_56_typeD1Ev+0x8>)
 800e1ea:	6003      	str	r3, [r0, #0]
 800e1ec:	4770      	bx	lr
 800e1ee:	bf00      	nop
 800e1f0:	08015cf8 	.word	0x08015cf8

0800e1f4 <_ZN12_GLOBAL__N_124font_OSD_Charset_55_typeD1Ev>:
 800e1f4:	4b01      	ldr	r3, [pc, #4]	; (800e1fc <_ZN12_GLOBAL__N_124font_OSD_Charset_55_typeD1Ev+0x8>)
 800e1f6:	6003      	str	r3, [r0, #0]
 800e1f8:	4770      	bx	lr
 800e1fa:	bf00      	nop
 800e1fc:	08015cf8 	.word	0x08015cf8

0800e200 <_ZN12_GLOBAL__N_124font_OSD_Charset_54_typeD1Ev>:
 800e200:	4b01      	ldr	r3, [pc, #4]	; (800e208 <_ZN12_GLOBAL__N_124font_OSD_Charset_54_typeD1Ev+0x8>)
 800e202:	6003      	str	r3, [r0, #0]
 800e204:	4770      	bx	lr
 800e206:	bf00      	nop
 800e208:	08015cf8 	.word	0x08015cf8

0800e20c <_ZN12_GLOBAL__N_124font_OSD_Charset_53_typeD1Ev>:
 800e20c:	4b01      	ldr	r3, [pc, #4]	; (800e214 <_ZN12_GLOBAL__N_124font_OSD_Charset_53_typeD1Ev+0x8>)
 800e20e:	6003      	str	r3, [r0, #0]
 800e210:	4770      	bx	lr
 800e212:	bf00      	nop
 800e214:	08015cf8 	.word	0x08015cf8

0800e218 <_ZN12_GLOBAL__N_124font_OSD_Charset_52_typeD1Ev>:
 800e218:	4b01      	ldr	r3, [pc, #4]	; (800e220 <_ZN12_GLOBAL__N_124font_OSD_Charset_52_typeD1Ev+0x8>)
 800e21a:	6003      	str	r3, [r0, #0]
 800e21c:	4770      	bx	lr
 800e21e:	bf00      	nop
 800e220:	08015cf8 	.word	0x08015cf8

0800e224 <_ZN12_GLOBAL__N_124font_OSD_Charset_51_typeD1Ev>:
 800e224:	4b01      	ldr	r3, [pc, #4]	; (800e22c <_ZN12_GLOBAL__N_124font_OSD_Charset_51_typeD1Ev+0x8>)
 800e226:	6003      	str	r3, [r0, #0]
 800e228:	4770      	bx	lr
 800e22a:	bf00      	nop
 800e22c:	08015cf8 	.word	0x08015cf8

0800e230 <_ZN12_GLOBAL__N_124font_OSD_Charset_50_typeD1Ev>:
 800e230:	4b01      	ldr	r3, [pc, #4]	; (800e238 <_ZN12_GLOBAL__N_124font_OSD_Charset_50_typeD1Ev+0x8>)
 800e232:	6003      	str	r3, [r0, #0]
 800e234:	4770      	bx	lr
 800e236:	bf00      	nop
 800e238:	08015cf8 	.word	0x08015cf8

0800e23c <_ZN12_GLOBAL__N_124font_OSD_Charset_49_typeD1Ev>:
 800e23c:	4b01      	ldr	r3, [pc, #4]	; (800e244 <_ZN12_GLOBAL__N_124font_OSD_Charset_49_typeD1Ev+0x8>)
 800e23e:	6003      	str	r3, [r0, #0]
 800e240:	4770      	bx	lr
 800e242:	bf00      	nop
 800e244:	08015cf8 	.word	0x08015cf8

0800e248 <_ZN12_GLOBAL__N_124font_OSD_Charset_48_typeD1Ev>:
 800e248:	4b01      	ldr	r3, [pc, #4]	; (800e250 <_ZN12_GLOBAL__N_124font_OSD_Charset_48_typeD1Ev+0x8>)
 800e24a:	6003      	str	r3, [r0, #0]
 800e24c:	4770      	bx	lr
 800e24e:	bf00      	nop
 800e250:	08015cf8 	.word	0x08015cf8

0800e254 <_ZN12_GLOBAL__N_124font_OSD_Charset_47_typeD1Ev>:
 800e254:	4b01      	ldr	r3, [pc, #4]	; (800e25c <_ZN12_GLOBAL__N_124font_OSD_Charset_47_typeD1Ev+0x8>)
 800e256:	6003      	str	r3, [r0, #0]
 800e258:	4770      	bx	lr
 800e25a:	bf00      	nop
 800e25c:	08015cf8 	.word	0x08015cf8

0800e260 <_ZN12_GLOBAL__N_124font_OSD_Charset_46_typeD1Ev>:
 800e260:	4b01      	ldr	r3, [pc, #4]	; (800e268 <_ZN12_GLOBAL__N_124font_OSD_Charset_46_typeD1Ev+0x8>)
 800e262:	6003      	str	r3, [r0, #0]
 800e264:	4770      	bx	lr
 800e266:	bf00      	nop
 800e268:	08015cf8 	.word	0x08015cf8

0800e26c <_ZN12_GLOBAL__N_124font_OSD_Charset_45_typeD1Ev>:
 800e26c:	4b01      	ldr	r3, [pc, #4]	; (800e274 <_ZN12_GLOBAL__N_124font_OSD_Charset_45_typeD1Ev+0x8>)
 800e26e:	6003      	str	r3, [r0, #0]
 800e270:	4770      	bx	lr
 800e272:	bf00      	nop
 800e274:	08015cf8 	.word	0x08015cf8

0800e278 <_ZN12_GLOBAL__N_124font_OSD_Charset_44_typeD1Ev>:
 800e278:	4b01      	ldr	r3, [pc, #4]	; (800e280 <_ZN12_GLOBAL__N_124font_OSD_Charset_44_typeD1Ev+0x8>)
 800e27a:	6003      	str	r3, [r0, #0]
 800e27c:	4770      	bx	lr
 800e27e:	bf00      	nop
 800e280:	08015cf8 	.word	0x08015cf8

0800e284 <_ZN12_GLOBAL__N_124font_OSD_Charset_43_typeD1Ev>:
 800e284:	4b01      	ldr	r3, [pc, #4]	; (800e28c <_ZN12_GLOBAL__N_124font_OSD_Charset_43_typeD1Ev+0x8>)
 800e286:	6003      	str	r3, [r0, #0]
 800e288:	4770      	bx	lr
 800e28a:	bf00      	nop
 800e28c:	08015cf8 	.word	0x08015cf8

0800e290 <_ZN12_GLOBAL__N_124font_OSD_Charset_42_typeD1Ev>:
 800e290:	4b01      	ldr	r3, [pc, #4]	; (800e298 <_ZN12_GLOBAL__N_124font_OSD_Charset_42_typeD1Ev+0x8>)
 800e292:	6003      	str	r3, [r0, #0]
 800e294:	4770      	bx	lr
 800e296:	bf00      	nop
 800e298:	08015cf8 	.word	0x08015cf8

0800e29c <_ZN12_GLOBAL__N_124font_OSD_Charset_41_typeD1Ev>:
 800e29c:	4b01      	ldr	r3, [pc, #4]	; (800e2a4 <_ZN12_GLOBAL__N_124font_OSD_Charset_41_typeD1Ev+0x8>)
 800e29e:	6003      	str	r3, [r0, #0]
 800e2a0:	4770      	bx	lr
 800e2a2:	bf00      	nop
 800e2a4:	08015cf8 	.word	0x08015cf8

0800e2a8 <_ZN12_GLOBAL__N_124font_OSD_Charset_40_typeD1Ev>:
 800e2a8:	4b01      	ldr	r3, [pc, #4]	; (800e2b0 <_ZN12_GLOBAL__N_124font_OSD_Charset_40_typeD1Ev+0x8>)
 800e2aa:	6003      	str	r3, [r0, #0]
 800e2ac:	4770      	bx	lr
 800e2ae:	bf00      	nop
 800e2b0:	08015cf8 	.word	0x08015cf8

0800e2b4 <_ZN12_GLOBAL__N_124font_OSD_Charset_39_typeD1Ev>:
 800e2b4:	4b01      	ldr	r3, [pc, #4]	; (800e2bc <_ZN12_GLOBAL__N_124font_OSD_Charset_39_typeD1Ev+0x8>)
 800e2b6:	6003      	str	r3, [r0, #0]
 800e2b8:	4770      	bx	lr
 800e2ba:	bf00      	nop
 800e2bc:	08015cf8 	.word	0x08015cf8

0800e2c0 <_ZN12_GLOBAL__N_124font_OSD_Charset_38_typeD1Ev>:
 800e2c0:	4b01      	ldr	r3, [pc, #4]	; (800e2c8 <_ZN12_GLOBAL__N_124font_OSD_Charset_38_typeD1Ev+0x8>)
 800e2c2:	6003      	str	r3, [r0, #0]
 800e2c4:	4770      	bx	lr
 800e2c6:	bf00      	nop
 800e2c8:	08015cf8 	.word	0x08015cf8

0800e2cc <_ZN12_GLOBAL__N_124font_OSD_Charset_37_typeD1Ev>:
 800e2cc:	4b01      	ldr	r3, [pc, #4]	; (800e2d4 <_ZN12_GLOBAL__N_124font_OSD_Charset_37_typeD1Ev+0x8>)
 800e2ce:	6003      	str	r3, [r0, #0]
 800e2d0:	4770      	bx	lr
 800e2d2:	bf00      	nop
 800e2d4:	08015cf8 	.word	0x08015cf8

0800e2d8 <_ZN12_GLOBAL__N_124font_OSD_Charset_36_typeD1Ev>:
 800e2d8:	4b01      	ldr	r3, [pc, #4]	; (800e2e0 <_ZN12_GLOBAL__N_124font_OSD_Charset_36_typeD1Ev+0x8>)
 800e2da:	6003      	str	r3, [r0, #0]
 800e2dc:	4770      	bx	lr
 800e2de:	bf00      	nop
 800e2e0:	08015cf8 	.word	0x08015cf8

0800e2e4 <_ZN12_GLOBAL__N_124font_OSD_Charset_35_typeD1Ev>:
 800e2e4:	4b01      	ldr	r3, [pc, #4]	; (800e2ec <_ZN12_GLOBAL__N_124font_OSD_Charset_35_typeD1Ev+0x8>)
 800e2e6:	6003      	str	r3, [r0, #0]
 800e2e8:	4770      	bx	lr
 800e2ea:	bf00      	nop
 800e2ec:	08015cf8 	.word	0x08015cf8

0800e2f0 <_ZN12_GLOBAL__N_124font_OSD_Charset_34_typeD1Ev>:
 800e2f0:	4b01      	ldr	r3, [pc, #4]	; (800e2f8 <_ZN12_GLOBAL__N_124font_OSD_Charset_34_typeD1Ev+0x8>)
 800e2f2:	6003      	str	r3, [r0, #0]
 800e2f4:	4770      	bx	lr
 800e2f6:	bf00      	nop
 800e2f8:	08015cf8 	.word	0x08015cf8

0800e2fc <_ZN12_GLOBAL__N_124font_OSD_Charset_33_typeD1Ev>:
 800e2fc:	4b01      	ldr	r3, [pc, #4]	; (800e304 <_ZN12_GLOBAL__N_124font_OSD_Charset_33_typeD1Ev+0x8>)
 800e2fe:	6003      	str	r3, [r0, #0]
 800e300:	4770      	bx	lr
 800e302:	bf00      	nop
 800e304:	08015cf8 	.word	0x08015cf8

0800e308 <_ZN12_GLOBAL__N_124font_OSD_Charset_32_typeD1Ev>:
 800e308:	4b01      	ldr	r3, [pc, #4]	; (800e310 <_ZN12_GLOBAL__N_124font_OSD_Charset_32_typeD1Ev+0x8>)
 800e30a:	6003      	str	r3, [r0, #0]
 800e30c:	4770      	bx	lr
 800e30e:	bf00      	nop
 800e310:	08015cf8 	.word	0x08015cf8

0800e314 <_ZN12_GLOBAL__N_124font_OSD_Charset_31_typeD1Ev>:
 800e314:	4b01      	ldr	r3, [pc, #4]	; (800e31c <_ZN12_GLOBAL__N_124font_OSD_Charset_31_typeD1Ev+0x8>)
 800e316:	6003      	str	r3, [r0, #0]
 800e318:	4770      	bx	lr
 800e31a:	bf00      	nop
 800e31c:	08015cf8 	.word	0x08015cf8

0800e320 <_ZN12_GLOBAL__N_124font_OSD_Charset_30_typeD1Ev>:
 800e320:	4b01      	ldr	r3, [pc, #4]	; (800e328 <_ZN12_GLOBAL__N_124font_OSD_Charset_30_typeD1Ev+0x8>)
 800e322:	6003      	str	r3, [r0, #0]
 800e324:	4770      	bx	lr
 800e326:	bf00      	nop
 800e328:	08015cf8 	.word	0x08015cf8

0800e32c <_ZN12_GLOBAL__N_124font_OSD_Charset_29_typeD1Ev>:
 800e32c:	4b01      	ldr	r3, [pc, #4]	; (800e334 <_ZN12_GLOBAL__N_124font_OSD_Charset_29_typeD1Ev+0x8>)
 800e32e:	6003      	str	r3, [r0, #0]
 800e330:	4770      	bx	lr
 800e332:	bf00      	nop
 800e334:	08015cf8 	.word	0x08015cf8

0800e338 <_ZN12_GLOBAL__N_124font_OSD_Charset_28_typeD1Ev>:
 800e338:	4b01      	ldr	r3, [pc, #4]	; (800e340 <_ZN12_GLOBAL__N_124font_OSD_Charset_28_typeD1Ev+0x8>)
 800e33a:	6003      	str	r3, [r0, #0]
 800e33c:	4770      	bx	lr
 800e33e:	bf00      	nop
 800e340:	08015cf8 	.word	0x08015cf8

0800e344 <_ZN12_GLOBAL__N_124font_OSD_Charset_27_typeD1Ev>:
 800e344:	4b01      	ldr	r3, [pc, #4]	; (800e34c <_ZN12_GLOBAL__N_124font_OSD_Charset_27_typeD1Ev+0x8>)
 800e346:	6003      	str	r3, [r0, #0]
 800e348:	4770      	bx	lr
 800e34a:	bf00      	nop
 800e34c:	08015cf8 	.word	0x08015cf8

0800e350 <_ZN12_GLOBAL__N_124font_OSD_Charset_26_typeD1Ev>:
 800e350:	4b01      	ldr	r3, [pc, #4]	; (800e358 <_ZN12_GLOBAL__N_124font_OSD_Charset_26_typeD1Ev+0x8>)
 800e352:	6003      	str	r3, [r0, #0]
 800e354:	4770      	bx	lr
 800e356:	bf00      	nop
 800e358:	08015cf8 	.word	0x08015cf8

0800e35c <_ZN12_GLOBAL__N_124font_OSD_Charset_25_typeD1Ev>:
 800e35c:	4b01      	ldr	r3, [pc, #4]	; (800e364 <_ZN12_GLOBAL__N_124font_OSD_Charset_25_typeD1Ev+0x8>)
 800e35e:	6003      	str	r3, [r0, #0]
 800e360:	4770      	bx	lr
 800e362:	bf00      	nop
 800e364:	08015cf8 	.word	0x08015cf8

0800e368 <_ZN12_GLOBAL__N_124font_OSD_Charset_24_typeD1Ev>:
 800e368:	4b01      	ldr	r3, [pc, #4]	; (800e370 <_ZN12_GLOBAL__N_124font_OSD_Charset_24_typeD1Ev+0x8>)
 800e36a:	6003      	str	r3, [r0, #0]
 800e36c:	4770      	bx	lr
 800e36e:	bf00      	nop
 800e370:	08015cf8 	.word	0x08015cf8

0800e374 <_ZN12_GLOBAL__N_124font_OSD_Charset_23_typeD1Ev>:
 800e374:	4b01      	ldr	r3, [pc, #4]	; (800e37c <_ZN12_GLOBAL__N_124font_OSD_Charset_23_typeD1Ev+0x8>)
 800e376:	6003      	str	r3, [r0, #0]
 800e378:	4770      	bx	lr
 800e37a:	bf00      	nop
 800e37c:	08015cf8 	.word	0x08015cf8

0800e380 <_ZN12_GLOBAL__N_124font_OSD_Charset_22_typeD1Ev>:
 800e380:	4b01      	ldr	r3, [pc, #4]	; (800e388 <_ZN12_GLOBAL__N_124font_OSD_Charset_22_typeD1Ev+0x8>)
 800e382:	6003      	str	r3, [r0, #0]
 800e384:	4770      	bx	lr
 800e386:	bf00      	nop
 800e388:	08015cf8 	.word	0x08015cf8

0800e38c <_ZN12_GLOBAL__N_124font_OSD_Charset_21_typeD1Ev>:
 800e38c:	4b01      	ldr	r3, [pc, #4]	; (800e394 <_ZN12_GLOBAL__N_124font_OSD_Charset_21_typeD1Ev+0x8>)
 800e38e:	6003      	str	r3, [r0, #0]
 800e390:	4770      	bx	lr
 800e392:	bf00      	nop
 800e394:	08015cf8 	.word	0x08015cf8

0800e398 <_ZN12_GLOBAL__N_124font_OSD_Charset_20_typeD1Ev>:
 800e398:	4b01      	ldr	r3, [pc, #4]	; (800e3a0 <_ZN12_GLOBAL__N_124font_OSD_Charset_20_typeD1Ev+0x8>)
 800e39a:	6003      	str	r3, [r0, #0]
 800e39c:	4770      	bx	lr
 800e39e:	bf00      	nop
 800e3a0:	08015cf8 	.word	0x08015cf8

0800e3a4 <_ZN12_GLOBAL__N_124font_OSD_Charset_19_typeD1Ev>:
 800e3a4:	4b01      	ldr	r3, [pc, #4]	; (800e3ac <_ZN12_GLOBAL__N_124font_OSD_Charset_19_typeD1Ev+0x8>)
 800e3a6:	6003      	str	r3, [r0, #0]
 800e3a8:	4770      	bx	lr
 800e3aa:	bf00      	nop
 800e3ac:	08015cf8 	.word	0x08015cf8

0800e3b0 <_ZN12_GLOBAL__N_124font_OSD_Charset_18_typeD1Ev>:
 800e3b0:	4b01      	ldr	r3, [pc, #4]	; (800e3b8 <_ZN12_GLOBAL__N_124font_OSD_Charset_18_typeD1Ev+0x8>)
 800e3b2:	6003      	str	r3, [r0, #0]
 800e3b4:	4770      	bx	lr
 800e3b6:	bf00      	nop
 800e3b8:	08015cf8 	.word	0x08015cf8

0800e3bc <_ZN12_GLOBAL__N_124font_OSD_Charset_17_typeD1Ev>:
 800e3bc:	4b01      	ldr	r3, [pc, #4]	; (800e3c4 <_ZN12_GLOBAL__N_124font_OSD_Charset_17_typeD1Ev+0x8>)
 800e3be:	6003      	str	r3, [r0, #0]
 800e3c0:	4770      	bx	lr
 800e3c2:	bf00      	nop
 800e3c4:	08015cf8 	.word	0x08015cf8

0800e3c8 <_ZN12_GLOBAL__N_124font_OSD_Charset_16_typeD1Ev>:
 800e3c8:	4b01      	ldr	r3, [pc, #4]	; (800e3d0 <_ZN12_GLOBAL__N_124font_OSD_Charset_16_typeD1Ev+0x8>)
 800e3ca:	6003      	str	r3, [r0, #0]
 800e3cc:	4770      	bx	lr
 800e3ce:	bf00      	nop
 800e3d0:	08015cf8 	.word	0x08015cf8

0800e3d4 <_ZN12_GLOBAL__N_124font_OSD_Charset_15_typeD1Ev>:
 800e3d4:	4b01      	ldr	r3, [pc, #4]	; (800e3dc <_ZN12_GLOBAL__N_124font_OSD_Charset_15_typeD1Ev+0x8>)
 800e3d6:	6003      	str	r3, [r0, #0]
 800e3d8:	4770      	bx	lr
 800e3da:	bf00      	nop
 800e3dc:	08015cf8 	.word	0x08015cf8

0800e3e0 <_ZN12_GLOBAL__N_124font_OSD_Charset_14_typeD1Ev>:
 800e3e0:	4b01      	ldr	r3, [pc, #4]	; (800e3e8 <_ZN12_GLOBAL__N_124font_OSD_Charset_14_typeD1Ev+0x8>)
 800e3e2:	6003      	str	r3, [r0, #0]
 800e3e4:	4770      	bx	lr
 800e3e6:	bf00      	nop
 800e3e8:	08015cf8 	.word	0x08015cf8

0800e3ec <_ZN12_GLOBAL__N_124font_OSD_Charset_13_typeD1Ev>:
 800e3ec:	4b01      	ldr	r3, [pc, #4]	; (800e3f4 <_ZN12_GLOBAL__N_124font_OSD_Charset_13_typeD1Ev+0x8>)
 800e3ee:	6003      	str	r3, [r0, #0]
 800e3f0:	4770      	bx	lr
 800e3f2:	bf00      	nop
 800e3f4:	08015cf8 	.word	0x08015cf8

0800e3f8 <_ZN12_GLOBAL__N_124font_OSD_Charset_12_typeD1Ev>:
 800e3f8:	4b01      	ldr	r3, [pc, #4]	; (800e400 <_ZN12_GLOBAL__N_124font_OSD_Charset_12_typeD1Ev+0x8>)
 800e3fa:	6003      	str	r3, [r0, #0]
 800e3fc:	4770      	bx	lr
 800e3fe:	bf00      	nop
 800e400:	08015cf8 	.word	0x08015cf8

0800e404 <_ZN12_GLOBAL__N_124font_OSD_Charset_11_typeD1Ev>:
 800e404:	4b01      	ldr	r3, [pc, #4]	; (800e40c <_ZN12_GLOBAL__N_124font_OSD_Charset_11_typeD1Ev+0x8>)
 800e406:	6003      	str	r3, [r0, #0]
 800e408:	4770      	bx	lr
 800e40a:	bf00      	nop
 800e40c:	08015cf8 	.word	0x08015cf8

0800e410 <_ZN12_GLOBAL__N_124font_OSD_Charset_10_typeD1Ev>:
 800e410:	4b01      	ldr	r3, [pc, #4]	; (800e418 <_ZN12_GLOBAL__N_124font_OSD_Charset_10_typeD1Ev+0x8>)
 800e412:	6003      	str	r3, [r0, #0]
 800e414:	4770      	bx	lr
 800e416:	bf00      	nop
 800e418:	08015cf8 	.word	0x08015cf8

0800e41c <_ZN12_GLOBAL__N_123font_OSD_Charset_9_typeD1Ev>:
 800e41c:	4b01      	ldr	r3, [pc, #4]	; (800e424 <_ZN12_GLOBAL__N_123font_OSD_Charset_9_typeD1Ev+0x8>)
 800e41e:	6003      	str	r3, [r0, #0]
 800e420:	4770      	bx	lr
 800e422:	bf00      	nop
 800e424:	08015cf8 	.word	0x08015cf8

0800e428 <_ZN12_GLOBAL__N_123font_OSD_Charset_8_typeD1Ev>:
 800e428:	4b01      	ldr	r3, [pc, #4]	; (800e430 <_ZN12_GLOBAL__N_123font_OSD_Charset_8_typeD1Ev+0x8>)
 800e42a:	6003      	str	r3, [r0, #0]
 800e42c:	4770      	bx	lr
 800e42e:	bf00      	nop
 800e430:	08015cf8 	.word	0x08015cf8

0800e434 <_ZN12_GLOBAL__N_123font_OSD_Charset_7_typeD1Ev>:
 800e434:	4b01      	ldr	r3, [pc, #4]	; (800e43c <_ZN12_GLOBAL__N_123font_OSD_Charset_7_typeD1Ev+0x8>)
 800e436:	6003      	str	r3, [r0, #0]
 800e438:	4770      	bx	lr
 800e43a:	bf00      	nop
 800e43c:	08015cf8 	.word	0x08015cf8

0800e440 <_ZN12_GLOBAL__N_123font_OSD_Charset_6_typeD1Ev>:
 800e440:	4b01      	ldr	r3, [pc, #4]	; (800e448 <_ZN12_GLOBAL__N_123font_OSD_Charset_6_typeD1Ev+0x8>)
 800e442:	6003      	str	r3, [r0, #0]
 800e444:	4770      	bx	lr
 800e446:	bf00      	nop
 800e448:	08015cf8 	.word	0x08015cf8

0800e44c <_ZN12_GLOBAL__N_123font_OSD_Charset_5_typeD1Ev>:
 800e44c:	4b01      	ldr	r3, [pc, #4]	; (800e454 <_ZN12_GLOBAL__N_123font_OSD_Charset_5_typeD1Ev+0x8>)
 800e44e:	6003      	str	r3, [r0, #0]
 800e450:	4770      	bx	lr
 800e452:	bf00      	nop
 800e454:	08015cf8 	.word	0x08015cf8

0800e458 <_ZN12_GLOBAL__N_123font_OSD_Charset_4_typeD1Ev>:
 800e458:	4b01      	ldr	r3, [pc, #4]	; (800e460 <_ZN12_GLOBAL__N_123font_OSD_Charset_4_typeD1Ev+0x8>)
 800e45a:	6003      	str	r3, [r0, #0]
 800e45c:	4770      	bx	lr
 800e45e:	bf00      	nop
 800e460:	08015cf8 	.word	0x08015cf8

0800e464 <_ZN12_GLOBAL__N_123font_OSD_Charset_3_typeD1Ev>:
 800e464:	4b01      	ldr	r3, [pc, #4]	; (800e46c <_ZN12_GLOBAL__N_123font_OSD_Charset_3_typeD1Ev+0x8>)
 800e466:	6003      	str	r3, [r0, #0]
 800e468:	4770      	bx	lr
 800e46a:	bf00      	nop
 800e46c:	08015cf8 	.word	0x08015cf8

0800e470 <_ZN12_GLOBAL__N_123font_OSD_Charset_2_typeD1Ev>:
 800e470:	4b01      	ldr	r3, [pc, #4]	; (800e478 <_ZN12_GLOBAL__N_123font_OSD_Charset_2_typeD1Ev+0x8>)
 800e472:	6003      	str	r3, [r0, #0]
 800e474:	4770      	bx	lr
 800e476:	bf00      	nop
 800e478:	08015cf8 	.word	0x08015cf8

0800e47c <_ZN12_GLOBAL__N_123font_OSD_Charset_1_typeD1Ev>:
 800e47c:	4b01      	ldr	r3, [pc, #4]	; (800e484 <_ZN12_GLOBAL__N_123font_OSD_Charset_1_typeD1Ev+0x8>)
 800e47e:	6003      	str	r3, [r0, #0]
 800e480:	4770      	bx	lr
 800e482:	bf00      	nop
 800e484:	08015cf8 	.word	0x08015cf8

0800e488 <_ZN12_GLOBAL__N_123font_OSD_Charset_0_typeD1Ev>:
 800e488:	4b01      	ldr	r3, [pc, #4]	; (800e490 <_ZN12_GLOBAL__N_123font_OSD_Charset_0_typeD1Ev+0x8>)
 800e48a:	6003      	str	r3, [r0, #0]
 800e48c:	4770      	bx	lr
 800e48e:	bf00      	nop
 800e490:	08015cf8 	.word	0x08015cf8

0800e494 <_ZN12_GLOBAL__N_121font_OSD_Charset_typeD0Ev>:
 800e494:	4b03      	ldr	r3, [pc, #12]	; (800e4a4 <_ZN12_GLOBAL__N_121font_OSD_Charset_typeD0Ev+0x10>)
 800e496:	b510      	push	{r4, lr}
 800e498:	4604      	mov	r4, r0
 800e49a:	6003      	str	r3, [r0, #0]
 800e49c:	f004 fc3e 	bl	8012d1c <_ZdlPv>
 800e4a0:	4620      	mov	r0, r4
 800e4a2:	bd10      	pop	{r4, pc}
 800e4a4:	08015d10 	.word	0x08015d10

0800e4a8 <_ZN12_GLOBAL__N_125font_OSD_Charset_255_typeD0Ev>:
 800e4a8:	4b03      	ldr	r3, [pc, #12]	; (800e4b8 <_ZN12_GLOBAL__N_125font_OSD_Charset_255_typeD0Ev+0x10>)
 800e4aa:	b510      	push	{r4, lr}
 800e4ac:	4604      	mov	r4, r0
 800e4ae:	6003      	str	r3, [r0, #0]
 800e4b0:	f004 fc34 	bl	8012d1c <_ZdlPv>
 800e4b4:	4620      	mov	r0, r4
 800e4b6:	bd10      	pop	{r4, pc}
 800e4b8:	08015cf8 	.word	0x08015cf8

0800e4bc <_ZN12_GLOBAL__N_125font_OSD_Charset_254_typeD0Ev>:
 800e4bc:	4b03      	ldr	r3, [pc, #12]	; (800e4cc <_ZN12_GLOBAL__N_125font_OSD_Charset_254_typeD0Ev+0x10>)
 800e4be:	b510      	push	{r4, lr}
 800e4c0:	4604      	mov	r4, r0
 800e4c2:	6003      	str	r3, [r0, #0]
 800e4c4:	f004 fc2a 	bl	8012d1c <_ZdlPv>
 800e4c8:	4620      	mov	r0, r4
 800e4ca:	bd10      	pop	{r4, pc}
 800e4cc:	08015cf8 	.word	0x08015cf8

0800e4d0 <_ZN12_GLOBAL__N_125font_OSD_Charset_253_typeD0Ev>:
 800e4d0:	4b03      	ldr	r3, [pc, #12]	; (800e4e0 <_ZN12_GLOBAL__N_125font_OSD_Charset_253_typeD0Ev+0x10>)
 800e4d2:	b510      	push	{r4, lr}
 800e4d4:	4604      	mov	r4, r0
 800e4d6:	6003      	str	r3, [r0, #0]
 800e4d8:	f004 fc20 	bl	8012d1c <_ZdlPv>
 800e4dc:	4620      	mov	r0, r4
 800e4de:	bd10      	pop	{r4, pc}
 800e4e0:	08015cf8 	.word	0x08015cf8

0800e4e4 <_ZN12_GLOBAL__N_125font_OSD_Charset_252_typeD0Ev>:
 800e4e4:	4b03      	ldr	r3, [pc, #12]	; (800e4f4 <_ZN12_GLOBAL__N_125font_OSD_Charset_252_typeD0Ev+0x10>)
 800e4e6:	b510      	push	{r4, lr}
 800e4e8:	4604      	mov	r4, r0
 800e4ea:	6003      	str	r3, [r0, #0]
 800e4ec:	f004 fc16 	bl	8012d1c <_ZdlPv>
 800e4f0:	4620      	mov	r0, r4
 800e4f2:	bd10      	pop	{r4, pc}
 800e4f4:	08015cf8 	.word	0x08015cf8

0800e4f8 <_ZN12_GLOBAL__N_125font_OSD_Charset_251_typeD0Ev>:
 800e4f8:	4b03      	ldr	r3, [pc, #12]	; (800e508 <_ZN12_GLOBAL__N_125font_OSD_Charset_251_typeD0Ev+0x10>)
 800e4fa:	b510      	push	{r4, lr}
 800e4fc:	4604      	mov	r4, r0
 800e4fe:	6003      	str	r3, [r0, #0]
 800e500:	f004 fc0c 	bl	8012d1c <_ZdlPv>
 800e504:	4620      	mov	r0, r4
 800e506:	bd10      	pop	{r4, pc}
 800e508:	08015cf8 	.word	0x08015cf8

0800e50c <_ZN12_GLOBAL__N_125font_OSD_Charset_250_typeD0Ev>:
 800e50c:	4b03      	ldr	r3, [pc, #12]	; (800e51c <_ZN12_GLOBAL__N_125font_OSD_Charset_250_typeD0Ev+0x10>)
 800e50e:	b510      	push	{r4, lr}
 800e510:	4604      	mov	r4, r0
 800e512:	6003      	str	r3, [r0, #0]
 800e514:	f004 fc02 	bl	8012d1c <_ZdlPv>
 800e518:	4620      	mov	r0, r4
 800e51a:	bd10      	pop	{r4, pc}
 800e51c:	08015cf8 	.word	0x08015cf8

0800e520 <_ZN12_GLOBAL__N_125font_OSD_Charset_249_typeD0Ev>:
 800e520:	4b03      	ldr	r3, [pc, #12]	; (800e530 <_ZN12_GLOBAL__N_125font_OSD_Charset_249_typeD0Ev+0x10>)
 800e522:	b510      	push	{r4, lr}
 800e524:	4604      	mov	r4, r0
 800e526:	6003      	str	r3, [r0, #0]
 800e528:	f004 fbf8 	bl	8012d1c <_ZdlPv>
 800e52c:	4620      	mov	r0, r4
 800e52e:	bd10      	pop	{r4, pc}
 800e530:	08015cf8 	.word	0x08015cf8

0800e534 <_ZN12_GLOBAL__N_125font_OSD_Charset_248_typeD0Ev>:
 800e534:	4b03      	ldr	r3, [pc, #12]	; (800e544 <_ZN12_GLOBAL__N_125font_OSD_Charset_248_typeD0Ev+0x10>)
 800e536:	b510      	push	{r4, lr}
 800e538:	4604      	mov	r4, r0
 800e53a:	6003      	str	r3, [r0, #0]
 800e53c:	f004 fbee 	bl	8012d1c <_ZdlPv>
 800e540:	4620      	mov	r0, r4
 800e542:	bd10      	pop	{r4, pc}
 800e544:	08015cf8 	.word	0x08015cf8

0800e548 <_ZN12_GLOBAL__N_125font_OSD_Charset_247_typeD0Ev>:
 800e548:	4b03      	ldr	r3, [pc, #12]	; (800e558 <_ZN12_GLOBAL__N_125font_OSD_Charset_247_typeD0Ev+0x10>)
 800e54a:	b510      	push	{r4, lr}
 800e54c:	4604      	mov	r4, r0
 800e54e:	6003      	str	r3, [r0, #0]
 800e550:	f004 fbe4 	bl	8012d1c <_ZdlPv>
 800e554:	4620      	mov	r0, r4
 800e556:	bd10      	pop	{r4, pc}
 800e558:	08015cf8 	.word	0x08015cf8

0800e55c <_ZN12_GLOBAL__N_125font_OSD_Charset_246_typeD0Ev>:
 800e55c:	4b03      	ldr	r3, [pc, #12]	; (800e56c <_ZN12_GLOBAL__N_125font_OSD_Charset_246_typeD0Ev+0x10>)
 800e55e:	b510      	push	{r4, lr}
 800e560:	4604      	mov	r4, r0
 800e562:	6003      	str	r3, [r0, #0]
 800e564:	f004 fbda 	bl	8012d1c <_ZdlPv>
 800e568:	4620      	mov	r0, r4
 800e56a:	bd10      	pop	{r4, pc}
 800e56c:	08015cf8 	.word	0x08015cf8

0800e570 <_ZN12_GLOBAL__N_125font_OSD_Charset_245_typeD0Ev>:
 800e570:	4b03      	ldr	r3, [pc, #12]	; (800e580 <_ZN12_GLOBAL__N_125font_OSD_Charset_245_typeD0Ev+0x10>)
 800e572:	b510      	push	{r4, lr}
 800e574:	4604      	mov	r4, r0
 800e576:	6003      	str	r3, [r0, #0]
 800e578:	f004 fbd0 	bl	8012d1c <_ZdlPv>
 800e57c:	4620      	mov	r0, r4
 800e57e:	bd10      	pop	{r4, pc}
 800e580:	08015cf8 	.word	0x08015cf8

0800e584 <_ZN12_GLOBAL__N_125font_OSD_Charset_244_typeD0Ev>:
 800e584:	4b03      	ldr	r3, [pc, #12]	; (800e594 <_ZN12_GLOBAL__N_125font_OSD_Charset_244_typeD0Ev+0x10>)
 800e586:	b510      	push	{r4, lr}
 800e588:	4604      	mov	r4, r0
 800e58a:	6003      	str	r3, [r0, #0]
 800e58c:	f004 fbc6 	bl	8012d1c <_ZdlPv>
 800e590:	4620      	mov	r0, r4
 800e592:	bd10      	pop	{r4, pc}
 800e594:	08015cf8 	.word	0x08015cf8

0800e598 <_ZN12_GLOBAL__N_125font_OSD_Charset_243_typeD0Ev>:
 800e598:	4b03      	ldr	r3, [pc, #12]	; (800e5a8 <_ZN12_GLOBAL__N_125font_OSD_Charset_243_typeD0Ev+0x10>)
 800e59a:	b510      	push	{r4, lr}
 800e59c:	4604      	mov	r4, r0
 800e59e:	6003      	str	r3, [r0, #0]
 800e5a0:	f004 fbbc 	bl	8012d1c <_ZdlPv>
 800e5a4:	4620      	mov	r0, r4
 800e5a6:	bd10      	pop	{r4, pc}
 800e5a8:	08015cf8 	.word	0x08015cf8

0800e5ac <_ZN12_GLOBAL__N_125font_OSD_Charset_242_typeD0Ev>:
 800e5ac:	4b03      	ldr	r3, [pc, #12]	; (800e5bc <_ZN12_GLOBAL__N_125font_OSD_Charset_242_typeD0Ev+0x10>)
 800e5ae:	b510      	push	{r4, lr}
 800e5b0:	4604      	mov	r4, r0
 800e5b2:	6003      	str	r3, [r0, #0]
 800e5b4:	f004 fbb2 	bl	8012d1c <_ZdlPv>
 800e5b8:	4620      	mov	r0, r4
 800e5ba:	bd10      	pop	{r4, pc}
 800e5bc:	08015cf8 	.word	0x08015cf8

0800e5c0 <_ZN12_GLOBAL__N_125font_OSD_Charset_241_typeD0Ev>:
 800e5c0:	4b03      	ldr	r3, [pc, #12]	; (800e5d0 <_ZN12_GLOBAL__N_125font_OSD_Charset_241_typeD0Ev+0x10>)
 800e5c2:	b510      	push	{r4, lr}
 800e5c4:	4604      	mov	r4, r0
 800e5c6:	6003      	str	r3, [r0, #0]
 800e5c8:	f004 fba8 	bl	8012d1c <_ZdlPv>
 800e5cc:	4620      	mov	r0, r4
 800e5ce:	bd10      	pop	{r4, pc}
 800e5d0:	08015cf8 	.word	0x08015cf8

0800e5d4 <_ZN12_GLOBAL__N_125font_OSD_Charset_240_typeD0Ev>:
 800e5d4:	4b03      	ldr	r3, [pc, #12]	; (800e5e4 <_ZN12_GLOBAL__N_125font_OSD_Charset_240_typeD0Ev+0x10>)
 800e5d6:	b510      	push	{r4, lr}
 800e5d8:	4604      	mov	r4, r0
 800e5da:	6003      	str	r3, [r0, #0]
 800e5dc:	f004 fb9e 	bl	8012d1c <_ZdlPv>
 800e5e0:	4620      	mov	r0, r4
 800e5e2:	bd10      	pop	{r4, pc}
 800e5e4:	08015cf8 	.word	0x08015cf8

0800e5e8 <_ZN12_GLOBAL__N_125font_OSD_Charset_239_typeD0Ev>:
 800e5e8:	4b03      	ldr	r3, [pc, #12]	; (800e5f8 <_ZN12_GLOBAL__N_125font_OSD_Charset_239_typeD0Ev+0x10>)
 800e5ea:	b510      	push	{r4, lr}
 800e5ec:	4604      	mov	r4, r0
 800e5ee:	6003      	str	r3, [r0, #0]
 800e5f0:	f004 fb94 	bl	8012d1c <_ZdlPv>
 800e5f4:	4620      	mov	r0, r4
 800e5f6:	bd10      	pop	{r4, pc}
 800e5f8:	08015cf8 	.word	0x08015cf8

0800e5fc <_ZN12_GLOBAL__N_125font_OSD_Charset_238_typeD0Ev>:
 800e5fc:	4b03      	ldr	r3, [pc, #12]	; (800e60c <_ZN12_GLOBAL__N_125font_OSD_Charset_238_typeD0Ev+0x10>)
 800e5fe:	b510      	push	{r4, lr}
 800e600:	4604      	mov	r4, r0
 800e602:	6003      	str	r3, [r0, #0]
 800e604:	f004 fb8a 	bl	8012d1c <_ZdlPv>
 800e608:	4620      	mov	r0, r4
 800e60a:	bd10      	pop	{r4, pc}
 800e60c:	08015cf8 	.word	0x08015cf8

0800e610 <_ZN12_GLOBAL__N_125font_OSD_Charset_237_typeD0Ev>:
 800e610:	4b03      	ldr	r3, [pc, #12]	; (800e620 <_ZN12_GLOBAL__N_125font_OSD_Charset_237_typeD0Ev+0x10>)
 800e612:	b510      	push	{r4, lr}
 800e614:	4604      	mov	r4, r0
 800e616:	6003      	str	r3, [r0, #0]
 800e618:	f004 fb80 	bl	8012d1c <_ZdlPv>
 800e61c:	4620      	mov	r0, r4
 800e61e:	bd10      	pop	{r4, pc}
 800e620:	08015cf8 	.word	0x08015cf8

0800e624 <_ZN12_GLOBAL__N_125font_OSD_Charset_236_typeD0Ev>:
 800e624:	4b03      	ldr	r3, [pc, #12]	; (800e634 <_ZN12_GLOBAL__N_125font_OSD_Charset_236_typeD0Ev+0x10>)
 800e626:	b510      	push	{r4, lr}
 800e628:	4604      	mov	r4, r0
 800e62a:	6003      	str	r3, [r0, #0]
 800e62c:	f004 fb76 	bl	8012d1c <_ZdlPv>
 800e630:	4620      	mov	r0, r4
 800e632:	bd10      	pop	{r4, pc}
 800e634:	08015cf8 	.word	0x08015cf8

0800e638 <_ZN12_GLOBAL__N_125font_OSD_Charset_235_typeD0Ev>:
 800e638:	4b03      	ldr	r3, [pc, #12]	; (800e648 <_ZN12_GLOBAL__N_125font_OSD_Charset_235_typeD0Ev+0x10>)
 800e63a:	b510      	push	{r4, lr}
 800e63c:	4604      	mov	r4, r0
 800e63e:	6003      	str	r3, [r0, #0]
 800e640:	f004 fb6c 	bl	8012d1c <_ZdlPv>
 800e644:	4620      	mov	r0, r4
 800e646:	bd10      	pop	{r4, pc}
 800e648:	08015cf8 	.word	0x08015cf8

0800e64c <_ZN12_GLOBAL__N_125font_OSD_Charset_234_typeD0Ev>:
 800e64c:	4b03      	ldr	r3, [pc, #12]	; (800e65c <_ZN12_GLOBAL__N_125font_OSD_Charset_234_typeD0Ev+0x10>)
 800e64e:	b510      	push	{r4, lr}
 800e650:	4604      	mov	r4, r0
 800e652:	6003      	str	r3, [r0, #0]
 800e654:	f004 fb62 	bl	8012d1c <_ZdlPv>
 800e658:	4620      	mov	r0, r4
 800e65a:	bd10      	pop	{r4, pc}
 800e65c:	08015cf8 	.word	0x08015cf8

0800e660 <_ZN12_GLOBAL__N_125font_OSD_Charset_233_typeD0Ev>:
 800e660:	4b03      	ldr	r3, [pc, #12]	; (800e670 <_ZN12_GLOBAL__N_125font_OSD_Charset_233_typeD0Ev+0x10>)
 800e662:	b510      	push	{r4, lr}
 800e664:	4604      	mov	r4, r0
 800e666:	6003      	str	r3, [r0, #0]
 800e668:	f004 fb58 	bl	8012d1c <_ZdlPv>
 800e66c:	4620      	mov	r0, r4
 800e66e:	bd10      	pop	{r4, pc}
 800e670:	08015cf8 	.word	0x08015cf8

0800e674 <_ZN12_GLOBAL__N_125font_OSD_Charset_232_typeD0Ev>:
 800e674:	4b03      	ldr	r3, [pc, #12]	; (800e684 <_ZN12_GLOBAL__N_125font_OSD_Charset_232_typeD0Ev+0x10>)
 800e676:	b510      	push	{r4, lr}
 800e678:	4604      	mov	r4, r0
 800e67a:	6003      	str	r3, [r0, #0]
 800e67c:	f004 fb4e 	bl	8012d1c <_ZdlPv>
 800e680:	4620      	mov	r0, r4
 800e682:	bd10      	pop	{r4, pc}
 800e684:	08015cf8 	.word	0x08015cf8

0800e688 <_ZN12_GLOBAL__N_125font_OSD_Charset_231_typeD0Ev>:
 800e688:	4b03      	ldr	r3, [pc, #12]	; (800e698 <_ZN12_GLOBAL__N_125font_OSD_Charset_231_typeD0Ev+0x10>)
 800e68a:	b510      	push	{r4, lr}
 800e68c:	4604      	mov	r4, r0
 800e68e:	6003      	str	r3, [r0, #0]
 800e690:	f004 fb44 	bl	8012d1c <_ZdlPv>
 800e694:	4620      	mov	r0, r4
 800e696:	bd10      	pop	{r4, pc}
 800e698:	08015cf8 	.word	0x08015cf8

0800e69c <_ZN12_GLOBAL__N_125font_OSD_Charset_230_typeD0Ev>:
 800e69c:	4b03      	ldr	r3, [pc, #12]	; (800e6ac <_ZN12_GLOBAL__N_125font_OSD_Charset_230_typeD0Ev+0x10>)
 800e69e:	b510      	push	{r4, lr}
 800e6a0:	4604      	mov	r4, r0
 800e6a2:	6003      	str	r3, [r0, #0]
 800e6a4:	f004 fb3a 	bl	8012d1c <_ZdlPv>
 800e6a8:	4620      	mov	r0, r4
 800e6aa:	bd10      	pop	{r4, pc}
 800e6ac:	08015cf8 	.word	0x08015cf8

0800e6b0 <_ZN12_GLOBAL__N_125font_OSD_Charset_229_typeD0Ev>:
 800e6b0:	4b03      	ldr	r3, [pc, #12]	; (800e6c0 <_ZN12_GLOBAL__N_125font_OSD_Charset_229_typeD0Ev+0x10>)
 800e6b2:	b510      	push	{r4, lr}
 800e6b4:	4604      	mov	r4, r0
 800e6b6:	6003      	str	r3, [r0, #0]
 800e6b8:	f004 fb30 	bl	8012d1c <_ZdlPv>
 800e6bc:	4620      	mov	r0, r4
 800e6be:	bd10      	pop	{r4, pc}
 800e6c0:	08015cf8 	.word	0x08015cf8

0800e6c4 <_ZN12_GLOBAL__N_125font_OSD_Charset_228_typeD0Ev>:
 800e6c4:	4b03      	ldr	r3, [pc, #12]	; (800e6d4 <_ZN12_GLOBAL__N_125font_OSD_Charset_228_typeD0Ev+0x10>)
 800e6c6:	b510      	push	{r4, lr}
 800e6c8:	4604      	mov	r4, r0
 800e6ca:	6003      	str	r3, [r0, #0]
 800e6cc:	f004 fb26 	bl	8012d1c <_ZdlPv>
 800e6d0:	4620      	mov	r0, r4
 800e6d2:	bd10      	pop	{r4, pc}
 800e6d4:	08015cf8 	.word	0x08015cf8

0800e6d8 <_ZN12_GLOBAL__N_125font_OSD_Charset_227_typeD0Ev>:
 800e6d8:	4b03      	ldr	r3, [pc, #12]	; (800e6e8 <_ZN12_GLOBAL__N_125font_OSD_Charset_227_typeD0Ev+0x10>)
 800e6da:	b510      	push	{r4, lr}
 800e6dc:	4604      	mov	r4, r0
 800e6de:	6003      	str	r3, [r0, #0]
 800e6e0:	f004 fb1c 	bl	8012d1c <_ZdlPv>
 800e6e4:	4620      	mov	r0, r4
 800e6e6:	bd10      	pop	{r4, pc}
 800e6e8:	08015cf8 	.word	0x08015cf8

0800e6ec <_ZN12_GLOBAL__N_125font_OSD_Charset_226_typeD0Ev>:
 800e6ec:	4b03      	ldr	r3, [pc, #12]	; (800e6fc <_ZN12_GLOBAL__N_125font_OSD_Charset_226_typeD0Ev+0x10>)
 800e6ee:	b510      	push	{r4, lr}
 800e6f0:	4604      	mov	r4, r0
 800e6f2:	6003      	str	r3, [r0, #0]
 800e6f4:	f004 fb12 	bl	8012d1c <_ZdlPv>
 800e6f8:	4620      	mov	r0, r4
 800e6fa:	bd10      	pop	{r4, pc}
 800e6fc:	08015cf8 	.word	0x08015cf8

0800e700 <_ZN12_GLOBAL__N_125font_OSD_Charset_225_typeD0Ev>:
 800e700:	4b03      	ldr	r3, [pc, #12]	; (800e710 <_ZN12_GLOBAL__N_125font_OSD_Charset_225_typeD0Ev+0x10>)
 800e702:	b510      	push	{r4, lr}
 800e704:	4604      	mov	r4, r0
 800e706:	6003      	str	r3, [r0, #0]
 800e708:	f004 fb08 	bl	8012d1c <_ZdlPv>
 800e70c:	4620      	mov	r0, r4
 800e70e:	bd10      	pop	{r4, pc}
 800e710:	08015cf8 	.word	0x08015cf8

0800e714 <_ZN12_GLOBAL__N_125font_OSD_Charset_224_typeD0Ev>:
 800e714:	4b03      	ldr	r3, [pc, #12]	; (800e724 <_ZN12_GLOBAL__N_125font_OSD_Charset_224_typeD0Ev+0x10>)
 800e716:	b510      	push	{r4, lr}
 800e718:	4604      	mov	r4, r0
 800e71a:	6003      	str	r3, [r0, #0]
 800e71c:	f004 fafe 	bl	8012d1c <_ZdlPv>
 800e720:	4620      	mov	r0, r4
 800e722:	bd10      	pop	{r4, pc}
 800e724:	08015cf8 	.word	0x08015cf8

0800e728 <_ZN12_GLOBAL__N_125font_OSD_Charset_223_typeD0Ev>:
 800e728:	4b03      	ldr	r3, [pc, #12]	; (800e738 <_ZN12_GLOBAL__N_125font_OSD_Charset_223_typeD0Ev+0x10>)
 800e72a:	b510      	push	{r4, lr}
 800e72c:	4604      	mov	r4, r0
 800e72e:	6003      	str	r3, [r0, #0]
 800e730:	f004 faf4 	bl	8012d1c <_ZdlPv>
 800e734:	4620      	mov	r0, r4
 800e736:	bd10      	pop	{r4, pc}
 800e738:	08015cf8 	.word	0x08015cf8

0800e73c <_ZN12_GLOBAL__N_125font_OSD_Charset_222_typeD0Ev>:
 800e73c:	4b03      	ldr	r3, [pc, #12]	; (800e74c <_ZN12_GLOBAL__N_125font_OSD_Charset_222_typeD0Ev+0x10>)
 800e73e:	b510      	push	{r4, lr}
 800e740:	4604      	mov	r4, r0
 800e742:	6003      	str	r3, [r0, #0]
 800e744:	f004 faea 	bl	8012d1c <_ZdlPv>
 800e748:	4620      	mov	r0, r4
 800e74a:	bd10      	pop	{r4, pc}
 800e74c:	08015cf8 	.word	0x08015cf8

0800e750 <_ZN12_GLOBAL__N_125font_OSD_Charset_221_typeD0Ev>:
 800e750:	4b03      	ldr	r3, [pc, #12]	; (800e760 <_ZN12_GLOBAL__N_125font_OSD_Charset_221_typeD0Ev+0x10>)
 800e752:	b510      	push	{r4, lr}
 800e754:	4604      	mov	r4, r0
 800e756:	6003      	str	r3, [r0, #0]
 800e758:	f004 fae0 	bl	8012d1c <_ZdlPv>
 800e75c:	4620      	mov	r0, r4
 800e75e:	bd10      	pop	{r4, pc}
 800e760:	08015cf8 	.word	0x08015cf8

0800e764 <_ZN12_GLOBAL__N_125font_OSD_Charset_220_typeD0Ev>:
 800e764:	4b03      	ldr	r3, [pc, #12]	; (800e774 <_ZN12_GLOBAL__N_125font_OSD_Charset_220_typeD0Ev+0x10>)
 800e766:	b510      	push	{r4, lr}
 800e768:	4604      	mov	r4, r0
 800e76a:	6003      	str	r3, [r0, #0]
 800e76c:	f004 fad6 	bl	8012d1c <_ZdlPv>
 800e770:	4620      	mov	r0, r4
 800e772:	bd10      	pop	{r4, pc}
 800e774:	08015cf8 	.word	0x08015cf8

0800e778 <_ZN12_GLOBAL__N_125font_OSD_Charset_219_typeD0Ev>:
 800e778:	4b03      	ldr	r3, [pc, #12]	; (800e788 <_ZN12_GLOBAL__N_125font_OSD_Charset_219_typeD0Ev+0x10>)
 800e77a:	b510      	push	{r4, lr}
 800e77c:	4604      	mov	r4, r0
 800e77e:	6003      	str	r3, [r0, #0]
 800e780:	f004 facc 	bl	8012d1c <_ZdlPv>
 800e784:	4620      	mov	r0, r4
 800e786:	bd10      	pop	{r4, pc}
 800e788:	08015cf8 	.word	0x08015cf8

0800e78c <_ZN12_GLOBAL__N_125font_OSD_Charset_218_typeD0Ev>:
 800e78c:	4b03      	ldr	r3, [pc, #12]	; (800e79c <_ZN12_GLOBAL__N_125font_OSD_Charset_218_typeD0Ev+0x10>)
 800e78e:	b510      	push	{r4, lr}
 800e790:	4604      	mov	r4, r0
 800e792:	6003      	str	r3, [r0, #0]
 800e794:	f004 fac2 	bl	8012d1c <_ZdlPv>
 800e798:	4620      	mov	r0, r4
 800e79a:	bd10      	pop	{r4, pc}
 800e79c:	08015cf8 	.word	0x08015cf8

0800e7a0 <_ZN12_GLOBAL__N_125font_OSD_Charset_217_typeD0Ev>:
 800e7a0:	4b03      	ldr	r3, [pc, #12]	; (800e7b0 <_ZN12_GLOBAL__N_125font_OSD_Charset_217_typeD0Ev+0x10>)
 800e7a2:	b510      	push	{r4, lr}
 800e7a4:	4604      	mov	r4, r0
 800e7a6:	6003      	str	r3, [r0, #0]
 800e7a8:	f004 fab8 	bl	8012d1c <_ZdlPv>
 800e7ac:	4620      	mov	r0, r4
 800e7ae:	bd10      	pop	{r4, pc}
 800e7b0:	08015cf8 	.word	0x08015cf8

0800e7b4 <_ZN12_GLOBAL__N_125font_OSD_Charset_216_typeD0Ev>:
 800e7b4:	4b03      	ldr	r3, [pc, #12]	; (800e7c4 <_ZN12_GLOBAL__N_125font_OSD_Charset_216_typeD0Ev+0x10>)
 800e7b6:	b510      	push	{r4, lr}
 800e7b8:	4604      	mov	r4, r0
 800e7ba:	6003      	str	r3, [r0, #0]
 800e7bc:	f004 faae 	bl	8012d1c <_ZdlPv>
 800e7c0:	4620      	mov	r0, r4
 800e7c2:	bd10      	pop	{r4, pc}
 800e7c4:	08015cf8 	.word	0x08015cf8

0800e7c8 <_ZN12_GLOBAL__N_125font_OSD_Charset_215_typeD0Ev>:
 800e7c8:	4b03      	ldr	r3, [pc, #12]	; (800e7d8 <_ZN12_GLOBAL__N_125font_OSD_Charset_215_typeD0Ev+0x10>)
 800e7ca:	b510      	push	{r4, lr}
 800e7cc:	4604      	mov	r4, r0
 800e7ce:	6003      	str	r3, [r0, #0]
 800e7d0:	f004 faa4 	bl	8012d1c <_ZdlPv>
 800e7d4:	4620      	mov	r0, r4
 800e7d6:	bd10      	pop	{r4, pc}
 800e7d8:	08015cf8 	.word	0x08015cf8

0800e7dc <_ZN12_GLOBAL__N_125font_OSD_Charset_214_typeD0Ev>:
 800e7dc:	4b03      	ldr	r3, [pc, #12]	; (800e7ec <_ZN12_GLOBAL__N_125font_OSD_Charset_214_typeD0Ev+0x10>)
 800e7de:	b510      	push	{r4, lr}
 800e7e0:	4604      	mov	r4, r0
 800e7e2:	6003      	str	r3, [r0, #0]
 800e7e4:	f004 fa9a 	bl	8012d1c <_ZdlPv>
 800e7e8:	4620      	mov	r0, r4
 800e7ea:	bd10      	pop	{r4, pc}
 800e7ec:	08015cf8 	.word	0x08015cf8

0800e7f0 <_ZN12_GLOBAL__N_125font_OSD_Charset_213_typeD0Ev>:
 800e7f0:	4b03      	ldr	r3, [pc, #12]	; (800e800 <_ZN12_GLOBAL__N_125font_OSD_Charset_213_typeD0Ev+0x10>)
 800e7f2:	b510      	push	{r4, lr}
 800e7f4:	4604      	mov	r4, r0
 800e7f6:	6003      	str	r3, [r0, #0]
 800e7f8:	f004 fa90 	bl	8012d1c <_ZdlPv>
 800e7fc:	4620      	mov	r0, r4
 800e7fe:	bd10      	pop	{r4, pc}
 800e800:	08015cf8 	.word	0x08015cf8

0800e804 <_ZN12_GLOBAL__N_125font_OSD_Charset_212_typeD0Ev>:
 800e804:	4b03      	ldr	r3, [pc, #12]	; (800e814 <_ZN12_GLOBAL__N_125font_OSD_Charset_212_typeD0Ev+0x10>)
 800e806:	b510      	push	{r4, lr}
 800e808:	4604      	mov	r4, r0
 800e80a:	6003      	str	r3, [r0, #0]
 800e80c:	f004 fa86 	bl	8012d1c <_ZdlPv>
 800e810:	4620      	mov	r0, r4
 800e812:	bd10      	pop	{r4, pc}
 800e814:	08015cf8 	.word	0x08015cf8

0800e818 <_ZN12_GLOBAL__N_125font_OSD_Charset_211_typeD0Ev>:
 800e818:	4b03      	ldr	r3, [pc, #12]	; (800e828 <_ZN12_GLOBAL__N_125font_OSD_Charset_211_typeD0Ev+0x10>)
 800e81a:	b510      	push	{r4, lr}
 800e81c:	4604      	mov	r4, r0
 800e81e:	6003      	str	r3, [r0, #0]
 800e820:	f004 fa7c 	bl	8012d1c <_ZdlPv>
 800e824:	4620      	mov	r0, r4
 800e826:	bd10      	pop	{r4, pc}
 800e828:	08015cf8 	.word	0x08015cf8

0800e82c <_ZN12_GLOBAL__N_125font_OSD_Charset_210_typeD0Ev>:
 800e82c:	4b03      	ldr	r3, [pc, #12]	; (800e83c <_ZN12_GLOBAL__N_125font_OSD_Charset_210_typeD0Ev+0x10>)
 800e82e:	b510      	push	{r4, lr}
 800e830:	4604      	mov	r4, r0
 800e832:	6003      	str	r3, [r0, #0]
 800e834:	f004 fa72 	bl	8012d1c <_ZdlPv>
 800e838:	4620      	mov	r0, r4
 800e83a:	bd10      	pop	{r4, pc}
 800e83c:	08015cf8 	.word	0x08015cf8

0800e840 <_ZN12_GLOBAL__N_125font_OSD_Charset_209_typeD0Ev>:
 800e840:	4b03      	ldr	r3, [pc, #12]	; (800e850 <_ZN12_GLOBAL__N_125font_OSD_Charset_209_typeD0Ev+0x10>)
 800e842:	b510      	push	{r4, lr}
 800e844:	4604      	mov	r4, r0
 800e846:	6003      	str	r3, [r0, #0]
 800e848:	f004 fa68 	bl	8012d1c <_ZdlPv>
 800e84c:	4620      	mov	r0, r4
 800e84e:	bd10      	pop	{r4, pc}
 800e850:	08015cf8 	.word	0x08015cf8

0800e854 <_ZN12_GLOBAL__N_125font_OSD_Charset_208_typeD0Ev>:
 800e854:	4b03      	ldr	r3, [pc, #12]	; (800e864 <_ZN12_GLOBAL__N_125font_OSD_Charset_208_typeD0Ev+0x10>)
 800e856:	b510      	push	{r4, lr}
 800e858:	4604      	mov	r4, r0
 800e85a:	6003      	str	r3, [r0, #0]
 800e85c:	f004 fa5e 	bl	8012d1c <_ZdlPv>
 800e860:	4620      	mov	r0, r4
 800e862:	bd10      	pop	{r4, pc}
 800e864:	08015cf8 	.word	0x08015cf8

0800e868 <_ZN12_GLOBAL__N_125font_OSD_Charset_207_typeD0Ev>:
 800e868:	4b03      	ldr	r3, [pc, #12]	; (800e878 <_ZN12_GLOBAL__N_125font_OSD_Charset_207_typeD0Ev+0x10>)
 800e86a:	b510      	push	{r4, lr}
 800e86c:	4604      	mov	r4, r0
 800e86e:	6003      	str	r3, [r0, #0]
 800e870:	f004 fa54 	bl	8012d1c <_ZdlPv>
 800e874:	4620      	mov	r0, r4
 800e876:	bd10      	pop	{r4, pc}
 800e878:	08015cf8 	.word	0x08015cf8

0800e87c <_ZN12_GLOBAL__N_125font_OSD_Charset_206_typeD0Ev>:
 800e87c:	4b03      	ldr	r3, [pc, #12]	; (800e88c <_ZN12_GLOBAL__N_125font_OSD_Charset_206_typeD0Ev+0x10>)
 800e87e:	b510      	push	{r4, lr}
 800e880:	4604      	mov	r4, r0
 800e882:	6003      	str	r3, [r0, #0]
 800e884:	f004 fa4a 	bl	8012d1c <_ZdlPv>
 800e888:	4620      	mov	r0, r4
 800e88a:	bd10      	pop	{r4, pc}
 800e88c:	08015cf8 	.word	0x08015cf8

0800e890 <_ZN12_GLOBAL__N_125font_OSD_Charset_205_typeD0Ev>:
 800e890:	4b03      	ldr	r3, [pc, #12]	; (800e8a0 <_ZN12_GLOBAL__N_125font_OSD_Charset_205_typeD0Ev+0x10>)
 800e892:	b510      	push	{r4, lr}
 800e894:	4604      	mov	r4, r0
 800e896:	6003      	str	r3, [r0, #0]
 800e898:	f004 fa40 	bl	8012d1c <_ZdlPv>
 800e89c:	4620      	mov	r0, r4
 800e89e:	bd10      	pop	{r4, pc}
 800e8a0:	08015cf8 	.word	0x08015cf8

0800e8a4 <_ZN12_GLOBAL__N_125font_OSD_Charset_204_typeD0Ev>:
 800e8a4:	4b03      	ldr	r3, [pc, #12]	; (800e8b4 <_ZN12_GLOBAL__N_125font_OSD_Charset_204_typeD0Ev+0x10>)
 800e8a6:	b510      	push	{r4, lr}
 800e8a8:	4604      	mov	r4, r0
 800e8aa:	6003      	str	r3, [r0, #0]
 800e8ac:	f004 fa36 	bl	8012d1c <_ZdlPv>
 800e8b0:	4620      	mov	r0, r4
 800e8b2:	bd10      	pop	{r4, pc}
 800e8b4:	08015cf8 	.word	0x08015cf8

0800e8b8 <_ZN12_GLOBAL__N_125font_OSD_Charset_203_typeD0Ev>:
 800e8b8:	4b03      	ldr	r3, [pc, #12]	; (800e8c8 <_ZN12_GLOBAL__N_125font_OSD_Charset_203_typeD0Ev+0x10>)
 800e8ba:	b510      	push	{r4, lr}
 800e8bc:	4604      	mov	r4, r0
 800e8be:	6003      	str	r3, [r0, #0]
 800e8c0:	f004 fa2c 	bl	8012d1c <_ZdlPv>
 800e8c4:	4620      	mov	r0, r4
 800e8c6:	bd10      	pop	{r4, pc}
 800e8c8:	08015cf8 	.word	0x08015cf8

0800e8cc <_ZN12_GLOBAL__N_125font_OSD_Charset_202_typeD0Ev>:
 800e8cc:	4b03      	ldr	r3, [pc, #12]	; (800e8dc <_ZN12_GLOBAL__N_125font_OSD_Charset_202_typeD0Ev+0x10>)
 800e8ce:	b510      	push	{r4, lr}
 800e8d0:	4604      	mov	r4, r0
 800e8d2:	6003      	str	r3, [r0, #0]
 800e8d4:	f004 fa22 	bl	8012d1c <_ZdlPv>
 800e8d8:	4620      	mov	r0, r4
 800e8da:	bd10      	pop	{r4, pc}
 800e8dc:	08015cf8 	.word	0x08015cf8

0800e8e0 <_ZN12_GLOBAL__N_125font_OSD_Charset_201_typeD0Ev>:
 800e8e0:	4b03      	ldr	r3, [pc, #12]	; (800e8f0 <_ZN12_GLOBAL__N_125font_OSD_Charset_201_typeD0Ev+0x10>)
 800e8e2:	b510      	push	{r4, lr}
 800e8e4:	4604      	mov	r4, r0
 800e8e6:	6003      	str	r3, [r0, #0]
 800e8e8:	f004 fa18 	bl	8012d1c <_ZdlPv>
 800e8ec:	4620      	mov	r0, r4
 800e8ee:	bd10      	pop	{r4, pc}
 800e8f0:	08015cf8 	.word	0x08015cf8

0800e8f4 <_ZN12_GLOBAL__N_125font_OSD_Charset_200_typeD0Ev>:
 800e8f4:	4b03      	ldr	r3, [pc, #12]	; (800e904 <_ZN12_GLOBAL__N_125font_OSD_Charset_200_typeD0Ev+0x10>)
 800e8f6:	b510      	push	{r4, lr}
 800e8f8:	4604      	mov	r4, r0
 800e8fa:	6003      	str	r3, [r0, #0]
 800e8fc:	f004 fa0e 	bl	8012d1c <_ZdlPv>
 800e900:	4620      	mov	r0, r4
 800e902:	bd10      	pop	{r4, pc}
 800e904:	08015cf8 	.word	0x08015cf8

0800e908 <_ZN12_GLOBAL__N_125font_OSD_Charset_199_typeD0Ev>:
 800e908:	4b03      	ldr	r3, [pc, #12]	; (800e918 <_ZN12_GLOBAL__N_125font_OSD_Charset_199_typeD0Ev+0x10>)
 800e90a:	b510      	push	{r4, lr}
 800e90c:	4604      	mov	r4, r0
 800e90e:	6003      	str	r3, [r0, #0]
 800e910:	f004 fa04 	bl	8012d1c <_ZdlPv>
 800e914:	4620      	mov	r0, r4
 800e916:	bd10      	pop	{r4, pc}
 800e918:	08015cf8 	.word	0x08015cf8

0800e91c <_ZN12_GLOBAL__N_125font_OSD_Charset_198_typeD0Ev>:
 800e91c:	4b03      	ldr	r3, [pc, #12]	; (800e92c <_ZN12_GLOBAL__N_125font_OSD_Charset_198_typeD0Ev+0x10>)
 800e91e:	b510      	push	{r4, lr}
 800e920:	4604      	mov	r4, r0
 800e922:	6003      	str	r3, [r0, #0]
 800e924:	f004 f9fa 	bl	8012d1c <_ZdlPv>
 800e928:	4620      	mov	r0, r4
 800e92a:	bd10      	pop	{r4, pc}
 800e92c:	08015cf8 	.word	0x08015cf8

0800e930 <_ZN12_GLOBAL__N_125font_OSD_Charset_197_typeD0Ev>:
 800e930:	4b03      	ldr	r3, [pc, #12]	; (800e940 <_ZN12_GLOBAL__N_125font_OSD_Charset_197_typeD0Ev+0x10>)
 800e932:	b510      	push	{r4, lr}
 800e934:	4604      	mov	r4, r0
 800e936:	6003      	str	r3, [r0, #0]
 800e938:	f004 f9f0 	bl	8012d1c <_ZdlPv>
 800e93c:	4620      	mov	r0, r4
 800e93e:	bd10      	pop	{r4, pc}
 800e940:	08015cf8 	.word	0x08015cf8

0800e944 <_ZN12_GLOBAL__N_125font_OSD_Charset_196_typeD0Ev>:
 800e944:	4b03      	ldr	r3, [pc, #12]	; (800e954 <_ZN12_GLOBAL__N_125font_OSD_Charset_196_typeD0Ev+0x10>)
 800e946:	b510      	push	{r4, lr}
 800e948:	4604      	mov	r4, r0
 800e94a:	6003      	str	r3, [r0, #0]
 800e94c:	f004 f9e6 	bl	8012d1c <_ZdlPv>
 800e950:	4620      	mov	r0, r4
 800e952:	bd10      	pop	{r4, pc}
 800e954:	08015cf8 	.word	0x08015cf8

0800e958 <_ZN12_GLOBAL__N_125font_OSD_Charset_195_typeD0Ev>:
 800e958:	4b03      	ldr	r3, [pc, #12]	; (800e968 <_ZN12_GLOBAL__N_125font_OSD_Charset_195_typeD0Ev+0x10>)
 800e95a:	b510      	push	{r4, lr}
 800e95c:	4604      	mov	r4, r0
 800e95e:	6003      	str	r3, [r0, #0]
 800e960:	f004 f9dc 	bl	8012d1c <_ZdlPv>
 800e964:	4620      	mov	r0, r4
 800e966:	bd10      	pop	{r4, pc}
 800e968:	08015cf8 	.word	0x08015cf8

0800e96c <_ZN12_GLOBAL__N_125font_OSD_Charset_194_typeD0Ev>:
 800e96c:	4b03      	ldr	r3, [pc, #12]	; (800e97c <_ZN12_GLOBAL__N_125font_OSD_Charset_194_typeD0Ev+0x10>)
 800e96e:	b510      	push	{r4, lr}
 800e970:	4604      	mov	r4, r0
 800e972:	6003      	str	r3, [r0, #0]
 800e974:	f004 f9d2 	bl	8012d1c <_ZdlPv>
 800e978:	4620      	mov	r0, r4
 800e97a:	bd10      	pop	{r4, pc}
 800e97c:	08015cf8 	.word	0x08015cf8

0800e980 <_ZN12_GLOBAL__N_125font_OSD_Charset_193_typeD0Ev>:
 800e980:	4b03      	ldr	r3, [pc, #12]	; (800e990 <_ZN12_GLOBAL__N_125font_OSD_Charset_193_typeD0Ev+0x10>)
 800e982:	b510      	push	{r4, lr}
 800e984:	4604      	mov	r4, r0
 800e986:	6003      	str	r3, [r0, #0]
 800e988:	f004 f9c8 	bl	8012d1c <_ZdlPv>
 800e98c:	4620      	mov	r0, r4
 800e98e:	bd10      	pop	{r4, pc}
 800e990:	08015cf8 	.word	0x08015cf8

0800e994 <_ZN12_GLOBAL__N_125font_OSD_Charset_192_typeD0Ev>:
 800e994:	4b03      	ldr	r3, [pc, #12]	; (800e9a4 <_ZN12_GLOBAL__N_125font_OSD_Charset_192_typeD0Ev+0x10>)
 800e996:	b510      	push	{r4, lr}
 800e998:	4604      	mov	r4, r0
 800e99a:	6003      	str	r3, [r0, #0]
 800e99c:	f004 f9be 	bl	8012d1c <_ZdlPv>
 800e9a0:	4620      	mov	r0, r4
 800e9a2:	bd10      	pop	{r4, pc}
 800e9a4:	08015cf8 	.word	0x08015cf8

0800e9a8 <_ZN12_GLOBAL__N_125font_OSD_Charset_191_typeD0Ev>:
 800e9a8:	4b03      	ldr	r3, [pc, #12]	; (800e9b8 <_ZN12_GLOBAL__N_125font_OSD_Charset_191_typeD0Ev+0x10>)
 800e9aa:	b510      	push	{r4, lr}
 800e9ac:	4604      	mov	r4, r0
 800e9ae:	6003      	str	r3, [r0, #0]
 800e9b0:	f004 f9b4 	bl	8012d1c <_ZdlPv>
 800e9b4:	4620      	mov	r0, r4
 800e9b6:	bd10      	pop	{r4, pc}
 800e9b8:	08015cf8 	.word	0x08015cf8

0800e9bc <_ZN12_GLOBAL__N_125font_OSD_Charset_190_typeD0Ev>:
 800e9bc:	4b03      	ldr	r3, [pc, #12]	; (800e9cc <_ZN12_GLOBAL__N_125font_OSD_Charset_190_typeD0Ev+0x10>)
 800e9be:	b510      	push	{r4, lr}
 800e9c0:	4604      	mov	r4, r0
 800e9c2:	6003      	str	r3, [r0, #0]
 800e9c4:	f004 f9aa 	bl	8012d1c <_ZdlPv>
 800e9c8:	4620      	mov	r0, r4
 800e9ca:	bd10      	pop	{r4, pc}
 800e9cc:	08015cf8 	.word	0x08015cf8

0800e9d0 <_ZN12_GLOBAL__N_125font_OSD_Charset_189_typeD0Ev>:
 800e9d0:	4b03      	ldr	r3, [pc, #12]	; (800e9e0 <_ZN12_GLOBAL__N_125font_OSD_Charset_189_typeD0Ev+0x10>)
 800e9d2:	b510      	push	{r4, lr}
 800e9d4:	4604      	mov	r4, r0
 800e9d6:	6003      	str	r3, [r0, #0]
 800e9d8:	f004 f9a0 	bl	8012d1c <_ZdlPv>
 800e9dc:	4620      	mov	r0, r4
 800e9de:	bd10      	pop	{r4, pc}
 800e9e0:	08015cf8 	.word	0x08015cf8

0800e9e4 <_ZN12_GLOBAL__N_125font_OSD_Charset_188_typeD0Ev>:
 800e9e4:	4b03      	ldr	r3, [pc, #12]	; (800e9f4 <_ZN12_GLOBAL__N_125font_OSD_Charset_188_typeD0Ev+0x10>)
 800e9e6:	b510      	push	{r4, lr}
 800e9e8:	4604      	mov	r4, r0
 800e9ea:	6003      	str	r3, [r0, #0]
 800e9ec:	f004 f996 	bl	8012d1c <_ZdlPv>
 800e9f0:	4620      	mov	r0, r4
 800e9f2:	bd10      	pop	{r4, pc}
 800e9f4:	08015cf8 	.word	0x08015cf8

0800e9f8 <_ZN12_GLOBAL__N_125font_OSD_Charset_187_typeD0Ev>:
 800e9f8:	4b03      	ldr	r3, [pc, #12]	; (800ea08 <_ZN12_GLOBAL__N_125font_OSD_Charset_187_typeD0Ev+0x10>)
 800e9fa:	b510      	push	{r4, lr}
 800e9fc:	4604      	mov	r4, r0
 800e9fe:	6003      	str	r3, [r0, #0]
 800ea00:	f004 f98c 	bl	8012d1c <_ZdlPv>
 800ea04:	4620      	mov	r0, r4
 800ea06:	bd10      	pop	{r4, pc}
 800ea08:	08015cf8 	.word	0x08015cf8

0800ea0c <_ZN12_GLOBAL__N_125font_OSD_Charset_186_typeD0Ev>:
 800ea0c:	4b03      	ldr	r3, [pc, #12]	; (800ea1c <_ZN12_GLOBAL__N_125font_OSD_Charset_186_typeD0Ev+0x10>)
 800ea0e:	b510      	push	{r4, lr}
 800ea10:	4604      	mov	r4, r0
 800ea12:	6003      	str	r3, [r0, #0]
 800ea14:	f004 f982 	bl	8012d1c <_ZdlPv>
 800ea18:	4620      	mov	r0, r4
 800ea1a:	bd10      	pop	{r4, pc}
 800ea1c:	08015cf8 	.word	0x08015cf8

0800ea20 <_ZN12_GLOBAL__N_125font_OSD_Charset_185_typeD0Ev>:
 800ea20:	4b03      	ldr	r3, [pc, #12]	; (800ea30 <_ZN12_GLOBAL__N_125font_OSD_Charset_185_typeD0Ev+0x10>)
 800ea22:	b510      	push	{r4, lr}
 800ea24:	4604      	mov	r4, r0
 800ea26:	6003      	str	r3, [r0, #0]
 800ea28:	f004 f978 	bl	8012d1c <_ZdlPv>
 800ea2c:	4620      	mov	r0, r4
 800ea2e:	bd10      	pop	{r4, pc}
 800ea30:	08015cf8 	.word	0x08015cf8

0800ea34 <_ZN12_GLOBAL__N_125font_OSD_Charset_184_typeD0Ev>:
 800ea34:	4b03      	ldr	r3, [pc, #12]	; (800ea44 <_ZN12_GLOBAL__N_125font_OSD_Charset_184_typeD0Ev+0x10>)
 800ea36:	b510      	push	{r4, lr}
 800ea38:	4604      	mov	r4, r0
 800ea3a:	6003      	str	r3, [r0, #0]
 800ea3c:	f004 f96e 	bl	8012d1c <_ZdlPv>
 800ea40:	4620      	mov	r0, r4
 800ea42:	bd10      	pop	{r4, pc}
 800ea44:	08015cf8 	.word	0x08015cf8

0800ea48 <_ZN12_GLOBAL__N_125font_OSD_Charset_183_typeD0Ev>:
 800ea48:	4b03      	ldr	r3, [pc, #12]	; (800ea58 <_ZN12_GLOBAL__N_125font_OSD_Charset_183_typeD0Ev+0x10>)
 800ea4a:	b510      	push	{r4, lr}
 800ea4c:	4604      	mov	r4, r0
 800ea4e:	6003      	str	r3, [r0, #0]
 800ea50:	f004 f964 	bl	8012d1c <_ZdlPv>
 800ea54:	4620      	mov	r0, r4
 800ea56:	bd10      	pop	{r4, pc}
 800ea58:	08015cf8 	.word	0x08015cf8

0800ea5c <_ZN12_GLOBAL__N_125font_OSD_Charset_182_typeD0Ev>:
 800ea5c:	4b03      	ldr	r3, [pc, #12]	; (800ea6c <_ZN12_GLOBAL__N_125font_OSD_Charset_182_typeD0Ev+0x10>)
 800ea5e:	b510      	push	{r4, lr}
 800ea60:	4604      	mov	r4, r0
 800ea62:	6003      	str	r3, [r0, #0]
 800ea64:	f004 f95a 	bl	8012d1c <_ZdlPv>
 800ea68:	4620      	mov	r0, r4
 800ea6a:	bd10      	pop	{r4, pc}
 800ea6c:	08015cf8 	.word	0x08015cf8

0800ea70 <_ZN12_GLOBAL__N_125font_OSD_Charset_181_typeD0Ev>:
 800ea70:	4b03      	ldr	r3, [pc, #12]	; (800ea80 <_ZN12_GLOBAL__N_125font_OSD_Charset_181_typeD0Ev+0x10>)
 800ea72:	b510      	push	{r4, lr}
 800ea74:	4604      	mov	r4, r0
 800ea76:	6003      	str	r3, [r0, #0]
 800ea78:	f004 f950 	bl	8012d1c <_ZdlPv>
 800ea7c:	4620      	mov	r0, r4
 800ea7e:	bd10      	pop	{r4, pc}
 800ea80:	08015cf8 	.word	0x08015cf8

0800ea84 <_ZN12_GLOBAL__N_125font_OSD_Charset_180_typeD0Ev>:
 800ea84:	4b03      	ldr	r3, [pc, #12]	; (800ea94 <_ZN12_GLOBAL__N_125font_OSD_Charset_180_typeD0Ev+0x10>)
 800ea86:	b510      	push	{r4, lr}
 800ea88:	4604      	mov	r4, r0
 800ea8a:	6003      	str	r3, [r0, #0]
 800ea8c:	f004 f946 	bl	8012d1c <_ZdlPv>
 800ea90:	4620      	mov	r0, r4
 800ea92:	bd10      	pop	{r4, pc}
 800ea94:	08015cf8 	.word	0x08015cf8

0800ea98 <_ZN12_GLOBAL__N_125font_OSD_Charset_179_typeD0Ev>:
 800ea98:	4b03      	ldr	r3, [pc, #12]	; (800eaa8 <_ZN12_GLOBAL__N_125font_OSD_Charset_179_typeD0Ev+0x10>)
 800ea9a:	b510      	push	{r4, lr}
 800ea9c:	4604      	mov	r4, r0
 800ea9e:	6003      	str	r3, [r0, #0]
 800eaa0:	f004 f93c 	bl	8012d1c <_ZdlPv>
 800eaa4:	4620      	mov	r0, r4
 800eaa6:	bd10      	pop	{r4, pc}
 800eaa8:	08015cf8 	.word	0x08015cf8

0800eaac <_ZN12_GLOBAL__N_125font_OSD_Charset_178_typeD0Ev>:
 800eaac:	4b03      	ldr	r3, [pc, #12]	; (800eabc <_ZN12_GLOBAL__N_125font_OSD_Charset_178_typeD0Ev+0x10>)
 800eaae:	b510      	push	{r4, lr}
 800eab0:	4604      	mov	r4, r0
 800eab2:	6003      	str	r3, [r0, #0]
 800eab4:	f004 f932 	bl	8012d1c <_ZdlPv>
 800eab8:	4620      	mov	r0, r4
 800eaba:	bd10      	pop	{r4, pc}
 800eabc:	08015cf8 	.word	0x08015cf8

0800eac0 <_ZN12_GLOBAL__N_125font_OSD_Charset_177_typeD0Ev>:
 800eac0:	4b03      	ldr	r3, [pc, #12]	; (800ead0 <_ZN12_GLOBAL__N_125font_OSD_Charset_177_typeD0Ev+0x10>)
 800eac2:	b510      	push	{r4, lr}
 800eac4:	4604      	mov	r4, r0
 800eac6:	6003      	str	r3, [r0, #0]
 800eac8:	f004 f928 	bl	8012d1c <_ZdlPv>
 800eacc:	4620      	mov	r0, r4
 800eace:	bd10      	pop	{r4, pc}
 800ead0:	08015cf8 	.word	0x08015cf8

0800ead4 <_ZN12_GLOBAL__N_125font_OSD_Charset_176_typeD0Ev>:
 800ead4:	4b03      	ldr	r3, [pc, #12]	; (800eae4 <_ZN12_GLOBAL__N_125font_OSD_Charset_176_typeD0Ev+0x10>)
 800ead6:	b510      	push	{r4, lr}
 800ead8:	4604      	mov	r4, r0
 800eada:	6003      	str	r3, [r0, #0]
 800eadc:	f004 f91e 	bl	8012d1c <_ZdlPv>
 800eae0:	4620      	mov	r0, r4
 800eae2:	bd10      	pop	{r4, pc}
 800eae4:	08015cf8 	.word	0x08015cf8

0800eae8 <_ZN12_GLOBAL__N_125font_OSD_Charset_175_typeD0Ev>:
 800eae8:	4b03      	ldr	r3, [pc, #12]	; (800eaf8 <_ZN12_GLOBAL__N_125font_OSD_Charset_175_typeD0Ev+0x10>)
 800eaea:	b510      	push	{r4, lr}
 800eaec:	4604      	mov	r4, r0
 800eaee:	6003      	str	r3, [r0, #0]
 800eaf0:	f004 f914 	bl	8012d1c <_ZdlPv>
 800eaf4:	4620      	mov	r0, r4
 800eaf6:	bd10      	pop	{r4, pc}
 800eaf8:	08015cf8 	.word	0x08015cf8

0800eafc <_ZN12_GLOBAL__N_125font_OSD_Charset_174_typeD0Ev>:
 800eafc:	4b03      	ldr	r3, [pc, #12]	; (800eb0c <_ZN12_GLOBAL__N_125font_OSD_Charset_174_typeD0Ev+0x10>)
 800eafe:	b510      	push	{r4, lr}
 800eb00:	4604      	mov	r4, r0
 800eb02:	6003      	str	r3, [r0, #0]
 800eb04:	f004 f90a 	bl	8012d1c <_ZdlPv>
 800eb08:	4620      	mov	r0, r4
 800eb0a:	bd10      	pop	{r4, pc}
 800eb0c:	08015cf8 	.word	0x08015cf8

0800eb10 <_ZN12_GLOBAL__N_125font_OSD_Charset_173_typeD0Ev>:
 800eb10:	4b03      	ldr	r3, [pc, #12]	; (800eb20 <_ZN12_GLOBAL__N_125font_OSD_Charset_173_typeD0Ev+0x10>)
 800eb12:	b510      	push	{r4, lr}
 800eb14:	4604      	mov	r4, r0
 800eb16:	6003      	str	r3, [r0, #0]
 800eb18:	f004 f900 	bl	8012d1c <_ZdlPv>
 800eb1c:	4620      	mov	r0, r4
 800eb1e:	bd10      	pop	{r4, pc}
 800eb20:	08015cf8 	.word	0x08015cf8

0800eb24 <_ZN12_GLOBAL__N_125font_OSD_Charset_172_typeD0Ev>:
 800eb24:	4b03      	ldr	r3, [pc, #12]	; (800eb34 <_ZN12_GLOBAL__N_125font_OSD_Charset_172_typeD0Ev+0x10>)
 800eb26:	b510      	push	{r4, lr}
 800eb28:	4604      	mov	r4, r0
 800eb2a:	6003      	str	r3, [r0, #0]
 800eb2c:	f004 f8f6 	bl	8012d1c <_ZdlPv>
 800eb30:	4620      	mov	r0, r4
 800eb32:	bd10      	pop	{r4, pc}
 800eb34:	08015cf8 	.word	0x08015cf8

0800eb38 <_ZN12_GLOBAL__N_125font_OSD_Charset_171_typeD0Ev>:
 800eb38:	4b03      	ldr	r3, [pc, #12]	; (800eb48 <_ZN12_GLOBAL__N_125font_OSD_Charset_171_typeD0Ev+0x10>)
 800eb3a:	b510      	push	{r4, lr}
 800eb3c:	4604      	mov	r4, r0
 800eb3e:	6003      	str	r3, [r0, #0]
 800eb40:	f004 f8ec 	bl	8012d1c <_ZdlPv>
 800eb44:	4620      	mov	r0, r4
 800eb46:	bd10      	pop	{r4, pc}
 800eb48:	08015cf8 	.word	0x08015cf8

0800eb4c <_ZN12_GLOBAL__N_125font_OSD_Charset_170_typeD0Ev>:
 800eb4c:	4b03      	ldr	r3, [pc, #12]	; (800eb5c <_ZN12_GLOBAL__N_125font_OSD_Charset_170_typeD0Ev+0x10>)
 800eb4e:	b510      	push	{r4, lr}
 800eb50:	4604      	mov	r4, r0
 800eb52:	6003      	str	r3, [r0, #0]
 800eb54:	f004 f8e2 	bl	8012d1c <_ZdlPv>
 800eb58:	4620      	mov	r0, r4
 800eb5a:	bd10      	pop	{r4, pc}
 800eb5c:	08015cf8 	.word	0x08015cf8

0800eb60 <_ZN12_GLOBAL__N_125font_OSD_Charset_169_typeD0Ev>:
 800eb60:	4b03      	ldr	r3, [pc, #12]	; (800eb70 <_ZN12_GLOBAL__N_125font_OSD_Charset_169_typeD0Ev+0x10>)
 800eb62:	b510      	push	{r4, lr}
 800eb64:	4604      	mov	r4, r0
 800eb66:	6003      	str	r3, [r0, #0]
 800eb68:	f004 f8d8 	bl	8012d1c <_ZdlPv>
 800eb6c:	4620      	mov	r0, r4
 800eb6e:	bd10      	pop	{r4, pc}
 800eb70:	08015cf8 	.word	0x08015cf8

0800eb74 <_ZN12_GLOBAL__N_125font_OSD_Charset_168_typeD0Ev>:
 800eb74:	4b03      	ldr	r3, [pc, #12]	; (800eb84 <_ZN12_GLOBAL__N_125font_OSD_Charset_168_typeD0Ev+0x10>)
 800eb76:	b510      	push	{r4, lr}
 800eb78:	4604      	mov	r4, r0
 800eb7a:	6003      	str	r3, [r0, #0]
 800eb7c:	f004 f8ce 	bl	8012d1c <_ZdlPv>
 800eb80:	4620      	mov	r0, r4
 800eb82:	bd10      	pop	{r4, pc}
 800eb84:	08015cf8 	.word	0x08015cf8

0800eb88 <_ZN12_GLOBAL__N_125font_OSD_Charset_167_typeD0Ev>:
 800eb88:	4b03      	ldr	r3, [pc, #12]	; (800eb98 <_ZN12_GLOBAL__N_125font_OSD_Charset_167_typeD0Ev+0x10>)
 800eb8a:	b510      	push	{r4, lr}
 800eb8c:	4604      	mov	r4, r0
 800eb8e:	6003      	str	r3, [r0, #0]
 800eb90:	f004 f8c4 	bl	8012d1c <_ZdlPv>
 800eb94:	4620      	mov	r0, r4
 800eb96:	bd10      	pop	{r4, pc}
 800eb98:	08015cf8 	.word	0x08015cf8

0800eb9c <_ZN12_GLOBAL__N_125font_OSD_Charset_166_typeD0Ev>:
 800eb9c:	4b03      	ldr	r3, [pc, #12]	; (800ebac <_ZN12_GLOBAL__N_125font_OSD_Charset_166_typeD0Ev+0x10>)
 800eb9e:	b510      	push	{r4, lr}
 800eba0:	4604      	mov	r4, r0
 800eba2:	6003      	str	r3, [r0, #0]
 800eba4:	f004 f8ba 	bl	8012d1c <_ZdlPv>
 800eba8:	4620      	mov	r0, r4
 800ebaa:	bd10      	pop	{r4, pc}
 800ebac:	08015cf8 	.word	0x08015cf8

0800ebb0 <_ZN12_GLOBAL__N_125font_OSD_Charset_165_typeD0Ev>:
 800ebb0:	4b03      	ldr	r3, [pc, #12]	; (800ebc0 <_ZN12_GLOBAL__N_125font_OSD_Charset_165_typeD0Ev+0x10>)
 800ebb2:	b510      	push	{r4, lr}
 800ebb4:	4604      	mov	r4, r0
 800ebb6:	6003      	str	r3, [r0, #0]
 800ebb8:	f004 f8b0 	bl	8012d1c <_ZdlPv>
 800ebbc:	4620      	mov	r0, r4
 800ebbe:	bd10      	pop	{r4, pc}
 800ebc0:	08015cf8 	.word	0x08015cf8

0800ebc4 <_ZN12_GLOBAL__N_125font_OSD_Charset_164_typeD0Ev>:
 800ebc4:	4b03      	ldr	r3, [pc, #12]	; (800ebd4 <_ZN12_GLOBAL__N_125font_OSD_Charset_164_typeD0Ev+0x10>)
 800ebc6:	b510      	push	{r4, lr}
 800ebc8:	4604      	mov	r4, r0
 800ebca:	6003      	str	r3, [r0, #0]
 800ebcc:	f004 f8a6 	bl	8012d1c <_ZdlPv>
 800ebd0:	4620      	mov	r0, r4
 800ebd2:	bd10      	pop	{r4, pc}
 800ebd4:	08015cf8 	.word	0x08015cf8

0800ebd8 <_ZN12_GLOBAL__N_125font_OSD_Charset_163_typeD0Ev>:
 800ebd8:	4b03      	ldr	r3, [pc, #12]	; (800ebe8 <_ZN12_GLOBAL__N_125font_OSD_Charset_163_typeD0Ev+0x10>)
 800ebda:	b510      	push	{r4, lr}
 800ebdc:	4604      	mov	r4, r0
 800ebde:	6003      	str	r3, [r0, #0]
 800ebe0:	f004 f89c 	bl	8012d1c <_ZdlPv>
 800ebe4:	4620      	mov	r0, r4
 800ebe6:	bd10      	pop	{r4, pc}
 800ebe8:	08015cf8 	.word	0x08015cf8

0800ebec <_ZN12_GLOBAL__N_125font_OSD_Charset_162_typeD0Ev>:
 800ebec:	4b03      	ldr	r3, [pc, #12]	; (800ebfc <_ZN12_GLOBAL__N_125font_OSD_Charset_162_typeD0Ev+0x10>)
 800ebee:	b510      	push	{r4, lr}
 800ebf0:	4604      	mov	r4, r0
 800ebf2:	6003      	str	r3, [r0, #0]
 800ebf4:	f004 f892 	bl	8012d1c <_ZdlPv>
 800ebf8:	4620      	mov	r0, r4
 800ebfa:	bd10      	pop	{r4, pc}
 800ebfc:	08015cf8 	.word	0x08015cf8

0800ec00 <_ZN12_GLOBAL__N_125font_OSD_Charset_161_typeD0Ev>:
 800ec00:	4b03      	ldr	r3, [pc, #12]	; (800ec10 <_ZN12_GLOBAL__N_125font_OSD_Charset_161_typeD0Ev+0x10>)
 800ec02:	b510      	push	{r4, lr}
 800ec04:	4604      	mov	r4, r0
 800ec06:	6003      	str	r3, [r0, #0]
 800ec08:	f004 f888 	bl	8012d1c <_ZdlPv>
 800ec0c:	4620      	mov	r0, r4
 800ec0e:	bd10      	pop	{r4, pc}
 800ec10:	08015cf8 	.word	0x08015cf8

0800ec14 <_ZN12_GLOBAL__N_125font_OSD_Charset_160_typeD0Ev>:
 800ec14:	4b03      	ldr	r3, [pc, #12]	; (800ec24 <_ZN12_GLOBAL__N_125font_OSD_Charset_160_typeD0Ev+0x10>)
 800ec16:	b510      	push	{r4, lr}
 800ec18:	4604      	mov	r4, r0
 800ec1a:	6003      	str	r3, [r0, #0]
 800ec1c:	f004 f87e 	bl	8012d1c <_ZdlPv>
 800ec20:	4620      	mov	r0, r4
 800ec22:	bd10      	pop	{r4, pc}
 800ec24:	08015cf8 	.word	0x08015cf8

0800ec28 <_ZN12_GLOBAL__N_125font_OSD_Charset_159_typeD0Ev>:
 800ec28:	4b03      	ldr	r3, [pc, #12]	; (800ec38 <_ZN12_GLOBAL__N_125font_OSD_Charset_159_typeD0Ev+0x10>)
 800ec2a:	b510      	push	{r4, lr}
 800ec2c:	4604      	mov	r4, r0
 800ec2e:	6003      	str	r3, [r0, #0]
 800ec30:	f004 f874 	bl	8012d1c <_ZdlPv>
 800ec34:	4620      	mov	r0, r4
 800ec36:	bd10      	pop	{r4, pc}
 800ec38:	08015cf8 	.word	0x08015cf8

0800ec3c <_ZN12_GLOBAL__N_125font_OSD_Charset_158_typeD0Ev>:
 800ec3c:	4b03      	ldr	r3, [pc, #12]	; (800ec4c <_ZN12_GLOBAL__N_125font_OSD_Charset_158_typeD0Ev+0x10>)
 800ec3e:	b510      	push	{r4, lr}
 800ec40:	4604      	mov	r4, r0
 800ec42:	6003      	str	r3, [r0, #0]
 800ec44:	f004 f86a 	bl	8012d1c <_ZdlPv>
 800ec48:	4620      	mov	r0, r4
 800ec4a:	bd10      	pop	{r4, pc}
 800ec4c:	08015cf8 	.word	0x08015cf8

0800ec50 <_ZN12_GLOBAL__N_125font_OSD_Charset_157_typeD0Ev>:
 800ec50:	4b03      	ldr	r3, [pc, #12]	; (800ec60 <_ZN12_GLOBAL__N_125font_OSD_Charset_157_typeD0Ev+0x10>)
 800ec52:	b510      	push	{r4, lr}
 800ec54:	4604      	mov	r4, r0
 800ec56:	6003      	str	r3, [r0, #0]
 800ec58:	f004 f860 	bl	8012d1c <_ZdlPv>
 800ec5c:	4620      	mov	r0, r4
 800ec5e:	bd10      	pop	{r4, pc}
 800ec60:	08015cf8 	.word	0x08015cf8

0800ec64 <_ZN12_GLOBAL__N_125font_OSD_Charset_156_typeD0Ev>:
 800ec64:	4b03      	ldr	r3, [pc, #12]	; (800ec74 <_ZN12_GLOBAL__N_125font_OSD_Charset_156_typeD0Ev+0x10>)
 800ec66:	b510      	push	{r4, lr}
 800ec68:	4604      	mov	r4, r0
 800ec6a:	6003      	str	r3, [r0, #0]
 800ec6c:	f004 f856 	bl	8012d1c <_ZdlPv>
 800ec70:	4620      	mov	r0, r4
 800ec72:	bd10      	pop	{r4, pc}
 800ec74:	08015cf8 	.word	0x08015cf8

0800ec78 <_ZN12_GLOBAL__N_125font_OSD_Charset_155_typeD0Ev>:
 800ec78:	4b03      	ldr	r3, [pc, #12]	; (800ec88 <_ZN12_GLOBAL__N_125font_OSD_Charset_155_typeD0Ev+0x10>)
 800ec7a:	b510      	push	{r4, lr}
 800ec7c:	4604      	mov	r4, r0
 800ec7e:	6003      	str	r3, [r0, #0]
 800ec80:	f004 f84c 	bl	8012d1c <_ZdlPv>
 800ec84:	4620      	mov	r0, r4
 800ec86:	bd10      	pop	{r4, pc}
 800ec88:	08015cf8 	.word	0x08015cf8

0800ec8c <_ZN12_GLOBAL__N_125font_OSD_Charset_154_typeD0Ev>:
 800ec8c:	4b03      	ldr	r3, [pc, #12]	; (800ec9c <_ZN12_GLOBAL__N_125font_OSD_Charset_154_typeD0Ev+0x10>)
 800ec8e:	b510      	push	{r4, lr}
 800ec90:	4604      	mov	r4, r0
 800ec92:	6003      	str	r3, [r0, #0]
 800ec94:	f004 f842 	bl	8012d1c <_ZdlPv>
 800ec98:	4620      	mov	r0, r4
 800ec9a:	bd10      	pop	{r4, pc}
 800ec9c:	08015cf8 	.word	0x08015cf8

0800eca0 <_ZN12_GLOBAL__N_125font_OSD_Charset_153_typeD0Ev>:
 800eca0:	4b03      	ldr	r3, [pc, #12]	; (800ecb0 <_ZN12_GLOBAL__N_125font_OSD_Charset_153_typeD0Ev+0x10>)
 800eca2:	b510      	push	{r4, lr}
 800eca4:	4604      	mov	r4, r0
 800eca6:	6003      	str	r3, [r0, #0]
 800eca8:	f004 f838 	bl	8012d1c <_ZdlPv>
 800ecac:	4620      	mov	r0, r4
 800ecae:	bd10      	pop	{r4, pc}
 800ecb0:	08015cf8 	.word	0x08015cf8

0800ecb4 <_ZN12_GLOBAL__N_125font_OSD_Charset_152_typeD0Ev>:
 800ecb4:	4b03      	ldr	r3, [pc, #12]	; (800ecc4 <_ZN12_GLOBAL__N_125font_OSD_Charset_152_typeD0Ev+0x10>)
 800ecb6:	b510      	push	{r4, lr}
 800ecb8:	4604      	mov	r4, r0
 800ecba:	6003      	str	r3, [r0, #0]
 800ecbc:	f004 f82e 	bl	8012d1c <_ZdlPv>
 800ecc0:	4620      	mov	r0, r4
 800ecc2:	bd10      	pop	{r4, pc}
 800ecc4:	08015cf8 	.word	0x08015cf8

0800ecc8 <_ZN12_GLOBAL__N_125font_OSD_Charset_151_typeD0Ev>:
 800ecc8:	4b03      	ldr	r3, [pc, #12]	; (800ecd8 <_ZN12_GLOBAL__N_125font_OSD_Charset_151_typeD0Ev+0x10>)
 800ecca:	b510      	push	{r4, lr}
 800eccc:	4604      	mov	r4, r0
 800ecce:	6003      	str	r3, [r0, #0]
 800ecd0:	f004 f824 	bl	8012d1c <_ZdlPv>
 800ecd4:	4620      	mov	r0, r4
 800ecd6:	bd10      	pop	{r4, pc}
 800ecd8:	08015cf8 	.word	0x08015cf8

0800ecdc <_ZN12_GLOBAL__N_125font_OSD_Charset_150_typeD0Ev>:
 800ecdc:	4b03      	ldr	r3, [pc, #12]	; (800ecec <_ZN12_GLOBAL__N_125font_OSD_Charset_150_typeD0Ev+0x10>)
 800ecde:	b510      	push	{r4, lr}
 800ece0:	4604      	mov	r4, r0
 800ece2:	6003      	str	r3, [r0, #0]
 800ece4:	f004 f81a 	bl	8012d1c <_ZdlPv>
 800ece8:	4620      	mov	r0, r4
 800ecea:	bd10      	pop	{r4, pc}
 800ecec:	08015cf8 	.word	0x08015cf8

0800ecf0 <_ZN12_GLOBAL__N_125font_OSD_Charset_149_typeD0Ev>:
 800ecf0:	4b03      	ldr	r3, [pc, #12]	; (800ed00 <_ZN12_GLOBAL__N_125font_OSD_Charset_149_typeD0Ev+0x10>)
 800ecf2:	b510      	push	{r4, lr}
 800ecf4:	4604      	mov	r4, r0
 800ecf6:	6003      	str	r3, [r0, #0]
 800ecf8:	f004 f810 	bl	8012d1c <_ZdlPv>
 800ecfc:	4620      	mov	r0, r4
 800ecfe:	bd10      	pop	{r4, pc}
 800ed00:	08015cf8 	.word	0x08015cf8

0800ed04 <_ZN12_GLOBAL__N_125font_OSD_Charset_148_typeD0Ev>:
 800ed04:	4b03      	ldr	r3, [pc, #12]	; (800ed14 <_ZN12_GLOBAL__N_125font_OSD_Charset_148_typeD0Ev+0x10>)
 800ed06:	b510      	push	{r4, lr}
 800ed08:	4604      	mov	r4, r0
 800ed0a:	6003      	str	r3, [r0, #0]
 800ed0c:	f004 f806 	bl	8012d1c <_ZdlPv>
 800ed10:	4620      	mov	r0, r4
 800ed12:	bd10      	pop	{r4, pc}
 800ed14:	08015cf8 	.word	0x08015cf8

0800ed18 <_ZN12_GLOBAL__N_125font_OSD_Charset_147_typeD0Ev>:
 800ed18:	4b03      	ldr	r3, [pc, #12]	; (800ed28 <_ZN12_GLOBAL__N_125font_OSD_Charset_147_typeD0Ev+0x10>)
 800ed1a:	b510      	push	{r4, lr}
 800ed1c:	4604      	mov	r4, r0
 800ed1e:	6003      	str	r3, [r0, #0]
 800ed20:	f003 fffc 	bl	8012d1c <_ZdlPv>
 800ed24:	4620      	mov	r0, r4
 800ed26:	bd10      	pop	{r4, pc}
 800ed28:	08015cf8 	.word	0x08015cf8

0800ed2c <_ZN12_GLOBAL__N_125font_OSD_Charset_146_typeD0Ev>:
 800ed2c:	4b03      	ldr	r3, [pc, #12]	; (800ed3c <_ZN12_GLOBAL__N_125font_OSD_Charset_146_typeD0Ev+0x10>)
 800ed2e:	b510      	push	{r4, lr}
 800ed30:	4604      	mov	r4, r0
 800ed32:	6003      	str	r3, [r0, #0]
 800ed34:	f003 fff2 	bl	8012d1c <_ZdlPv>
 800ed38:	4620      	mov	r0, r4
 800ed3a:	bd10      	pop	{r4, pc}
 800ed3c:	08015cf8 	.word	0x08015cf8

0800ed40 <_ZN12_GLOBAL__N_125font_OSD_Charset_145_typeD0Ev>:
 800ed40:	4b03      	ldr	r3, [pc, #12]	; (800ed50 <_ZN12_GLOBAL__N_125font_OSD_Charset_145_typeD0Ev+0x10>)
 800ed42:	b510      	push	{r4, lr}
 800ed44:	4604      	mov	r4, r0
 800ed46:	6003      	str	r3, [r0, #0]
 800ed48:	f003 ffe8 	bl	8012d1c <_ZdlPv>
 800ed4c:	4620      	mov	r0, r4
 800ed4e:	bd10      	pop	{r4, pc}
 800ed50:	08015cf8 	.word	0x08015cf8

0800ed54 <_ZN12_GLOBAL__N_125font_OSD_Charset_144_typeD0Ev>:
 800ed54:	4b03      	ldr	r3, [pc, #12]	; (800ed64 <_ZN12_GLOBAL__N_125font_OSD_Charset_144_typeD0Ev+0x10>)
 800ed56:	b510      	push	{r4, lr}
 800ed58:	4604      	mov	r4, r0
 800ed5a:	6003      	str	r3, [r0, #0]
 800ed5c:	f003 ffde 	bl	8012d1c <_ZdlPv>
 800ed60:	4620      	mov	r0, r4
 800ed62:	bd10      	pop	{r4, pc}
 800ed64:	08015cf8 	.word	0x08015cf8

0800ed68 <_ZN12_GLOBAL__N_125font_OSD_Charset_143_typeD0Ev>:
 800ed68:	4b03      	ldr	r3, [pc, #12]	; (800ed78 <_ZN12_GLOBAL__N_125font_OSD_Charset_143_typeD0Ev+0x10>)
 800ed6a:	b510      	push	{r4, lr}
 800ed6c:	4604      	mov	r4, r0
 800ed6e:	6003      	str	r3, [r0, #0]
 800ed70:	f003 ffd4 	bl	8012d1c <_ZdlPv>
 800ed74:	4620      	mov	r0, r4
 800ed76:	bd10      	pop	{r4, pc}
 800ed78:	08015cf8 	.word	0x08015cf8

0800ed7c <_ZN12_GLOBAL__N_125font_OSD_Charset_142_typeD0Ev>:
 800ed7c:	4b03      	ldr	r3, [pc, #12]	; (800ed8c <_ZN12_GLOBAL__N_125font_OSD_Charset_142_typeD0Ev+0x10>)
 800ed7e:	b510      	push	{r4, lr}
 800ed80:	4604      	mov	r4, r0
 800ed82:	6003      	str	r3, [r0, #0]
 800ed84:	f003 ffca 	bl	8012d1c <_ZdlPv>
 800ed88:	4620      	mov	r0, r4
 800ed8a:	bd10      	pop	{r4, pc}
 800ed8c:	08015cf8 	.word	0x08015cf8

0800ed90 <_ZN12_GLOBAL__N_125font_OSD_Charset_141_typeD0Ev>:
 800ed90:	4b03      	ldr	r3, [pc, #12]	; (800eda0 <_ZN12_GLOBAL__N_125font_OSD_Charset_141_typeD0Ev+0x10>)
 800ed92:	b510      	push	{r4, lr}
 800ed94:	4604      	mov	r4, r0
 800ed96:	6003      	str	r3, [r0, #0]
 800ed98:	f003 ffc0 	bl	8012d1c <_ZdlPv>
 800ed9c:	4620      	mov	r0, r4
 800ed9e:	bd10      	pop	{r4, pc}
 800eda0:	08015cf8 	.word	0x08015cf8

0800eda4 <_ZN12_GLOBAL__N_125font_OSD_Charset_140_typeD0Ev>:
 800eda4:	4b03      	ldr	r3, [pc, #12]	; (800edb4 <_ZN12_GLOBAL__N_125font_OSD_Charset_140_typeD0Ev+0x10>)
 800eda6:	b510      	push	{r4, lr}
 800eda8:	4604      	mov	r4, r0
 800edaa:	6003      	str	r3, [r0, #0]
 800edac:	f003 ffb6 	bl	8012d1c <_ZdlPv>
 800edb0:	4620      	mov	r0, r4
 800edb2:	bd10      	pop	{r4, pc}
 800edb4:	08015cf8 	.word	0x08015cf8

0800edb8 <_ZN12_GLOBAL__N_125font_OSD_Charset_139_typeD0Ev>:
 800edb8:	4b03      	ldr	r3, [pc, #12]	; (800edc8 <_ZN12_GLOBAL__N_125font_OSD_Charset_139_typeD0Ev+0x10>)
 800edba:	b510      	push	{r4, lr}
 800edbc:	4604      	mov	r4, r0
 800edbe:	6003      	str	r3, [r0, #0]
 800edc0:	f003 ffac 	bl	8012d1c <_ZdlPv>
 800edc4:	4620      	mov	r0, r4
 800edc6:	bd10      	pop	{r4, pc}
 800edc8:	08015cf8 	.word	0x08015cf8

0800edcc <_ZN12_GLOBAL__N_125font_OSD_Charset_138_typeD0Ev>:
 800edcc:	4b03      	ldr	r3, [pc, #12]	; (800eddc <_ZN12_GLOBAL__N_125font_OSD_Charset_138_typeD0Ev+0x10>)
 800edce:	b510      	push	{r4, lr}
 800edd0:	4604      	mov	r4, r0
 800edd2:	6003      	str	r3, [r0, #0]
 800edd4:	f003 ffa2 	bl	8012d1c <_ZdlPv>
 800edd8:	4620      	mov	r0, r4
 800edda:	bd10      	pop	{r4, pc}
 800eddc:	08015cf8 	.word	0x08015cf8

0800ede0 <_ZN12_GLOBAL__N_125font_OSD_Charset_137_typeD0Ev>:
 800ede0:	4b03      	ldr	r3, [pc, #12]	; (800edf0 <_ZN12_GLOBAL__N_125font_OSD_Charset_137_typeD0Ev+0x10>)
 800ede2:	b510      	push	{r4, lr}
 800ede4:	4604      	mov	r4, r0
 800ede6:	6003      	str	r3, [r0, #0]
 800ede8:	f003 ff98 	bl	8012d1c <_ZdlPv>
 800edec:	4620      	mov	r0, r4
 800edee:	bd10      	pop	{r4, pc}
 800edf0:	08015cf8 	.word	0x08015cf8

0800edf4 <_ZN12_GLOBAL__N_125font_OSD_Charset_136_typeD0Ev>:
 800edf4:	4b03      	ldr	r3, [pc, #12]	; (800ee04 <_ZN12_GLOBAL__N_125font_OSD_Charset_136_typeD0Ev+0x10>)
 800edf6:	b510      	push	{r4, lr}
 800edf8:	4604      	mov	r4, r0
 800edfa:	6003      	str	r3, [r0, #0]
 800edfc:	f003 ff8e 	bl	8012d1c <_ZdlPv>
 800ee00:	4620      	mov	r0, r4
 800ee02:	bd10      	pop	{r4, pc}
 800ee04:	08015cf8 	.word	0x08015cf8

0800ee08 <_ZN12_GLOBAL__N_125font_OSD_Charset_135_typeD0Ev>:
 800ee08:	4b03      	ldr	r3, [pc, #12]	; (800ee18 <_ZN12_GLOBAL__N_125font_OSD_Charset_135_typeD0Ev+0x10>)
 800ee0a:	b510      	push	{r4, lr}
 800ee0c:	4604      	mov	r4, r0
 800ee0e:	6003      	str	r3, [r0, #0]
 800ee10:	f003 ff84 	bl	8012d1c <_ZdlPv>
 800ee14:	4620      	mov	r0, r4
 800ee16:	bd10      	pop	{r4, pc}
 800ee18:	08015cf8 	.word	0x08015cf8

0800ee1c <_ZN12_GLOBAL__N_125font_OSD_Charset_134_typeD0Ev>:
 800ee1c:	4b03      	ldr	r3, [pc, #12]	; (800ee2c <_ZN12_GLOBAL__N_125font_OSD_Charset_134_typeD0Ev+0x10>)
 800ee1e:	b510      	push	{r4, lr}
 800ee20:	4604      	mov	r4, r0
 800ee22:	6003      	str	r3, [r0, #0]
 800ee24:	f003 ff7a 	bl	8012d1c <_ZdlPv>
 800ee28:	4620      	mov	r0, r4
 800ee2a:	bd10      	pop	{r4, pc}
 800ee2c:	08015cf8 	.word	0x08015cf8

0800ee30 <_ZN12_GLOBAL__N_125font_OSD_Charset_133_typeD0Ev>:
 800ee30:	4b03      	ldr	r3, [pc, #12]	; (800ee40 <_ZN12_GLOBAL__N_125font_OSD_Charset_133_typeD0Ev+0x10>)
 800ee32:	b510      	push	{r4, lr}
 800ee34:	4604      	mov	r4, r0
 800ee36:	6003      	str	r3, [r0, #0]
 800ee38:	f003 ff70 	bl	8012d1c <_ZdlPv>
 800ee3c:	4620      	mov	r0, r4
 800ee3e:	bd10      	pop	{r4, pc}
 800ee40:	08015cf8 	.word	0x08015cf8

0800ee44 <_ZN12_GLOBAL__N_125font_OSD_Charset_132_typeD0Ev>:
 800ee44:	4b03      	ldr	r3, [pc, #12]	; (800ee54 <_ZN12_GLOBAL__N_125font_OSD_Charset_132_typeD0Ev+0x10>)
 800ee46:	b510      	push	{r4, lr}
 800ee48:	4604      	mov	r4, r0
 800ee4a:	6003      	str	r3, [r0, #0]
 800ee4c:	f003 ff66 	bl	8012d1c <_ZdlPv>
 800ee50:	4620      	mov	r0, r4
 800ee52:	bd10      	pop	{r4, pc}
 800ee54:	08015cf8 	.word	0x08015cf8

0800ee58 <_ZN12_GLOBAL__N_125font_OSD_Charset_131_typeD0Ev>:
 800ee58:	4b03      	ldr	r3, [pc, #12]	; (800ee68 <_ZN12_GLOBAL__N_125font_OSD_Charset_131_typeD0Ev+0x10>)
 800ee5a:	b510      	push	{r4, lr}
 800ee5c:	4604      	mov	r4, r0
 800ee5e:	6003      	str	r3, [r0, #0]
 800ee60:	f003 ff5c 	bl	8012d1c <_ZdlPv>
 800ee64:	4620      	mov	r0, r4
 800ee66:	bd10      	pop	{r4, pc}
 800ee68:	08015cf8 	.word	0x08015cf8

0800ee6c <_ZN12_GLOBAL__N_125font_OSD_Charset_130_typeD0Ev>:
 800ee6c:	4b03      	ldr	r3, [pc, #12]	; (800ee7c <_ZN12_GLOBAL__N_125font_OSD_Charset_130_typeD0Ev+0x10>)
 800ee6e:	b510      	push	{r4, lr}
 800ee70:	4604      	mov	r4, r0
 800ee72:	6003      	str	r3, [r0, #0]
 800ee74:	f003 ff52 	bl	8012d1c <_ZdlPv>
 800ee78:	4620      	mov	r0, r4
 800ee7a:	bd10      	pop	{r4, pc}
 800ee7c:	08015cf8 	.word	0x08015cf8

0800ee80 <_ZN12_GLOBAL__N_125font_OSD_Charset_129_typeD0Ev>:
 800ee80:	4b03      	ldr	r3, [pc, #12]	; (800ee90 <_ZN12_GLOBAL__N_125font_OSD_Charset_129_typeD0Ev+0x10>)
 800ee82:	b510      	push	{r4, lr}
 800ee84:	4604      	mov	r4, r0
 800ee86:	6003      	str	r3, [r0, #0]
 800ee88:	f003 ff48 	bl	8012d1c <_ZdlPv>
 800ee8c:	4620      	mov	r0, r4
 800ee8e:	bd10      	pop	{r4, pc}
 800ee90:	08015cf8 	.word	0x08015cf8

0800ee94 <_ZN12_GLOBAL__N_125font_OSD_Charset_128_typeD0Ev>:
 800ee94:	4b03      	ldr	r3, [pc, #12]	; (800eea4 <_ZN12_GLOBAL__N_125font_OSD_Charset_128_typeD0Ev+0x10>)
 800ee96:	b510      	push	{r4, lr}
 800ee98:	4604      	mov	r4, r0
 800ee9a:	6003      	str	r3, [r0, #0]
 800ee9c:	f003 ff3e 	bl	8012d1c <_ZdlPv>
 800eea0:	4620      	mov	r0, r4
 800eea2:	bd10      	pop	{r4, pc}
 800eea4:	08015cf8 	.word	0x08015cf8

0800eea8 <_ZN12_GLOBAL__N_125font_OSD_Charset_127_typeD0Ev>:
 800eea8:	4b03      	ldr	r3, [pc, #12]	; (800eeb8 <_ZN12_GLOBAL__N_125font_OSD_Charset_127_typeD0Ev+0x10>)
 800eeaa:	b510      	push	{r4, lr}
 800eeac:	4604      	mov	r4, r0
 800eeae:	6003      	str	r3, [r0, #0]
 800eeb0:	f003 ff34 	bl	8012d1c <_ZdlPv>
 800eeb4:	4620      	mov	r0, r4
 800eeb6:	bd10      	pop	{r4, pc}
 800eeb8:	08015cf8 	.word	0x08015cf8

0800eebc <_ZN12_GLOBAL__N_125font_OSD_Charset_126_typeD0Ev>:
 800eebc:	4b03      	ldr	r3, [pc, #12]	; (800eecc <_ZN12_GLOBAL__N_125font_OSD_Charset_126_typeD0Ev+0x10>)
 800eebe:	b510      	push	{r4, lr}
 800eec0:	4604      	mov	r4, r0
 800eec2:	6003      	str	r3, [r0, #0]
 800eec4:	f003 ff2a 	bl	8012d1c <_ZdlPv>
 800eec8:	4620      	mov	r0, r4
 800eeca:	bd10      	pop	{r4, pc}
 800eecc:	08015cf8 	.word	0x08015cf8

0800eed0 <_ZN12_GLOBAL__N_125font_OSD_Charset_125_typeD0Ev>:
 800eed0:	4b03      	ldr	r3, [pc, #12]	; (800eee0 <_ZN12_GLOBAL__N_125font_OSD_Charset_125_typeD0Ev+0x10>)
 800eed2:	b510      	push	{r4, lr}
 800eed4:	4604      	mov	r4, r0
 800eed6:	6003      	str	r3, [r0, #0]
 800eed8:	f003 ff20 	bl	8012d1c <_ZdlPv>
 800eedc:	4620      	mov	r0, r4
 800eede:	bd10      	pop	{r4, pc}
 800eee0:	08015cf8 	.word	0x08015cf8

0800eee4 <_ZN12_GLOBAL__N_125font_OSD_Charset_124_typeD0Ev>:
 800eee4:	4b03      	ldr	r3, [pc, #12]	; (800eef4 <_ZN12_GLOBAL__N_125font_OSD_Charset_124_typeD0Ev+0x10>)
 800eee6:	b510      	push	{r4, lr}
 800eee8:	4604      	mov	r4, r0
 800eeea:	6003      	str	r3, [r0, #0]
 800eeec:	f003 ff16 	bl	8012d1c <_ZdlPv>
 800eef0:	4620      	mov	r0, r4
 800eef2:	bd10      	pop	{r4, pc}
 800eef4:	08015cf8 	.word	0x08015cf8

0800eef8 <_ZN12_GLOBAL__N_125font_OSD_Charset_123_typeD0Ev>:
 800eef8:	4b03      	ldr	r3, [pc, #12]	; (800ef08 <_ZN12_GLOBAL__N_125font_OSD_Charset_123_typeD0Ev+0x10>)
 800eefa:	b510      	push	{r4, lr}
 800eefc:	4604      	mov	r4, r0
 800eefe:	6003      	str	r3, [r0, #0]
 800ef00:	f003 ff0c 	bl	8012d1c <_ZdlPv>
 800ef04:	4620      	mov	r0, r4
 800ef06:	bd10      	pop	{r4, pc}
 800ef08:	08015cf8 	.word	0x08015cf8

0800ef0c <_ZN12_GLOBAL__N_125font_OSD_Charset_122_typeD0Ev>:
 800ef0c:	4b03      	ldr	r3, [pc, #12]	; (800ef1c <_ZN12_GLOBAL__N_125font_OSD_Charset_122_typeD0Ev+0x10>)
 800ef0e:	b510      	push	{r4, lr}
 800ef10:	4604      	mov	r4, r0
 800ef12:	6003      	str	r3, [r0, #0]
 800ef14:	f003 ff02 	bl	8012d1c <_ZdlPv>
 800ef18:	4620      	mov	r0, r4
 800ef1a:	bd10      	pop	{r4, pc}
 800ef1c:	08015cf8 	.word	0x08015cf8

0800ef20 <_ZN12_GLOBAL__N_125font_OSD_Charset_121_typeD0Ev>:
 800ef20:	4b03      	ldr	r3, [pc, #12]	; (800ef30 <_ZN12_GLOBAL__N_125font_OSD_Charset_121_typeD0Ev+0x10>)
 800ef22:	b510      	push	{r4, lr}
 800ef24:	4604      	mov	r4, r0
 800ef26:	6003      	str	r3, [r0, #0]
 800ef28:	f003 fef8 	bl	8012d1c <_ZdlPv>
 800ef2c:	4620      	mov	r0, r4
 800ef2e:	bd10      	pop	{r4, pc}
 800ef30:	08015cf8 	.word	0x08015cf8

0800ef34 <_ZN12_GLOBAL__N_125font_OSD_Charset_120_typeD0Ev>:
 800ef34:	4b03      	ldr	r3, [pc, #12]	; (800ef44 <_ZN12_GLOBAL__N_125font_OSD_Charset_120_typeD0Ev+0x10>)
 800ef36:	b510      	push	{r4, lr}
 800ef38:	4604      	mov	r4, r0
 800ef3a:	6003      	str	r3, [r0, #0]
 800ef3c:	f003 feee 	bl	8012d1c <_ZdlPv>
 800ef40:	4620      	mov	r0, r4
 800ef42:	bd10      	pop	{r4, pc}
 800ef44:	08015cf8 	.word	0x08015cf8

0800ef48 <_ZN12_GLOBAL__N_125font_OSD_Charset_119_typeD0Ev>:
 800ef48:	4b03      	ldr	r3, [pc, #12]	; (800ef58 <_ZN12_GLOBAL__N_125font_OSD_Charset_119_typeD0Ev+0x10>)
 800ef4a:	b510      	push	{r4, lr}
 800ef4c:	4604      	mov	r4, r0
 800ef4e:	6003      	str	r3, [r0, #0]
 800ef50:	f003 fee4 	bl	8012d1c <_ZdlPv>
 800ef54:	4620      	mov	r0, r4
 800ef56:	bd10      	pop	{r4, pc}
 800ef58:	08015cf8 	.word	0x08015cf8

0800ef5c <_ZN12_GLOBAL__N_125font_OSD_Charset_118_typeD0Ev>:
 800ef5c:	4b03      	ldr	r3, [pc, #12]	; (800ef6c <_ZN12_GLOBAL__N_125font_OSD_Charset_118_typeD0Ev+0x10>)
 800ef5e:	b510      	push	{r4, lr}
 800ef60:	4604      	mov	r4, r0
 800ef62:	6003      	str	r3, [r0, #0]
 800ef64:	f003 feda 	bl	8012d1c <_ZdlPv>
 800ef68:	4620      	mov	r0, r4
 800ef6a:	bd10      	pop	{r4, pc}
 800ef6c:	08015cf8 	.word	0x08015cf8

0800ef70 <_ZN12_GLOBAL__N_125font_OSD_Charset_117_typeD0Ev>:
 800ef70:	4b03      	ldr	r3, [pc, #12]	; (800ef80 <_ZN12_GLOBAL__N_125font_OSD_Charset_117_typeD0Ev+0x10>)
 800ef72:	b510      	push	{r4, lr}
 800ef74:	4604      	mov	r4, r0
 800ef76:	6003      	str	r3, [r0, #0]
 800ef78:	f003 fed0 	bl	8012d1c <_ZdlPv>
 800ef7c:	4620      	mov	r0, r4
 800ef7e:	bd10      	pop	{r4, pc}
 800ef80:	08015cf8 	.word	0x08015cf8

0800ef84 <_ZN12_GLOBAL__N_125font_OSD_Charset_116_typeD0Ev>:
 800ef84:	4b03      	ldr	r3, [pc, #12]	; (800ef94 <_ZN12_GLOBAL__N_125font_OSD_Charset_116_typeD0Ev+0x10>)
 800ef86:	b510      	push	{r4, lr}
 800ef88:	4604      	mov	r4, r0
 800ef8a:	6003      	str	r3, [r0, #0]
 800ef8c:	f003 fec6 	bl	8012d1c <_ZdlPv>
 800ef90:	4620      	mov	r0, r4
 800ef92:	bd10      	pop	{r4, pc}
 800ef94:	08015cf8 	.word	0x08015cf8

0800ef98 <_ZN12_GLOBAL__N_125font_OSD_Charset_115_typeD0Ev>:
 800ef98:	4b03      	ldr	r3, [pc, #12]	; (800efa8 <_ZN12_GLOBAL__N_125font_OSD_Charset_115_typeD0Ev+0x10>)
 800ef9a:	b510      	push	{r4, lr}
 800ef9c:	4604      	mov	r4, r0
 800ef9e:	6003      	str	r3, [r0, #0]
 800efa0:	f003 febc 	bl	8012d1c <_ZdlPv>
 800efa4:	4620      	mov	r0, r4
 800efa6:	bd10      	pop	{r4, pc}
 800efa8:	08015cf8 	.word	0x08015cf8

0800efac <_ZN12_GLOBAL__N_125font_OSD_Charset_114_typeD0Ev>:
 800efac:	4b03      	ldr	r3, [pc, #12]	; (800efbc <_ZN12_GLOBAL__N_125font_OSD_Charset_114_typeD0Ev+0x10>)
 800efae:	b510      	push	{r4, lr}
 800efb0:	4604      	mov	r4, r0
 800efb2:	6003      	str	r3, [r0, #0]
 800efb4:	f003 feb2 	bl	8012d1c <_ZdlPv>
 800efb8:	4620      	mov	r0, r4
 800efba:	bd10      	pop	{r4, pc}
 800efbc:	08015cf8 	.word	0x08015cf8

0800efc0 <_ZN12_GLOBAL__N_125font_OSD_Charset_113_typeD0Ev>:
 800efc0:	4b03      	ldr	r3, [pc, #12]	; (800efd0 <_ZN12_GLOBAL__N_125font_OSD_Charset_113_typeD0Ev+0x10>)
 800efc2:	b510      	push	{r4, lr}
 800efc4:	4604      	mov	r4, r0
 800efc6:	6003      	str	r3, [r0, #0]
 800efc8:	f003 fea8 	bl	8012d1c <_ZdlPv>
 800efcc:	4620      	mov	r0, r4
 800efce:	bd10      	pop	{r4, pc}
 800efd0:	08015cf8 	.word	0x08015cf8

0800efd4 <_ZN12_GLOBAL__N_125font_OSD_Charset_112_typeD0Ev>:
 800efd4:	4b03      	ldr	r3, [pc, #12]	; (800efe4 <_ZN12_GLOBAL__N_125font_OSD_Charset_112_typeD0Ev+0x10>)
 800efd6:	b510      	push	{r4, lr}
 800efd8:	4604      	mov	r4, r0
 800efda:	6003      	str	r3, [r0, #0]
 800efdc:	f003 fe9e 	bl	8012d1c <_ZdlPv>
 800efe0:	4620      	mov	r0, r4
 800efe2:	bd10      	pop	{r4, pc}
 800efe4:	08015cf8 	.word	0x08015cf8

0800efe8 <_ZN12_GLOBAL__N_125font_OSD_Charset_111_typeD0Ev>:
 800efe8:	4b03      	ldr	r3, [pc, #12]	; (800eff8 <_ZN12_GLOBAL__N_125font_OSD_Charset_111_typeD0Ev+0x10>)
 800efea:	b510      	push	{r4, lr}
 800efec:	4604      	mov	r4, r0
 800efee:	6003      	str	r3, [r0, #0]
 800eff0:	f003 fe94 	bl	8012d1c <_ZdlPv>
 800eff4:	4620      	mov	r0, r4
 800eff6:	bd10      	pop	{r4, pc}
 800eff8:	08015cf8 	.word	0x08015cf8

0800effc <_ZN12_GLOBAL__N_125font_OSD_Charset_110_typeD0Ev>:
 800effc:	4b03      	ldr	r3, [pc, #12]	; (800f00c <_ZN12_GLOBAL__N_125font_OSD_Charset_110_typeD0Ev+0x10>)
 800effe:	b510      	push	{r4, lr}
 800f000:	4604      	mov	r4, r0
 800f002:	6003      	str	r3, [r0, #0]
 800f004:	f003 fe8a 	bl	8012d1c <_ZdlPv>
 800f008:	4620      	mov	r0, r4
 800f00a:	bd10      	pop	{r4, pc}
 800f00c:	08015cf8 	.word	0x08015cf8

0800f010 <_ZN12_GLOBAL__N_125font_OSD_Charset_109_typeD0Ev>:
 800f010:	4b03      	ldr	r3, [pc, #12]	; (800f020 <_ZN12_GLOBAL__N_125font_OSD_Charset_109_typeD0Ev+0x10>)
 800f012:	b510      	push	{r4, lr}
 800f014:	4604      	mov	r4, r0
 800f016:	6003      	str	r3, [r0, #0]
 800f018:	f003 fe80 	bl	8012d1c <_ZdlPv>
 800f01c:	4620      	mov	r0, r4
 800f01e:	bd10      	pop	{r4, pc}
 800f020:	08015cf8 	.word	0x08015cf8

0800f024 <_ZN12_GLOBAL__N_125font_OSD_Charset_108_typeD0Ev>:
 800f024:	4b03      	ldr	r3, [pc, #12]	; (800f034 <_ZN12_GLOBAL__N_125font_OSD_Charset_108_typeD0Ev+0x10>)
 800f026:	b510      	push	{r4, lr}
 800f028:	4604      	mov	r4, r0
 800f02a:	6003      	str	r3, [r0, #0]
 800f02c:	f003 fe76 	bl	8012d1c <_ZdlPv>
 800f030:	4620      	mov	r0, r4
 800f032:	bd10      	pop	{r4, pc}
 800f034:	08015cf8 	.word	0x08015cf8

0800f038 <_ZN12_GLOBAL__N_125font_OSD_Charset_107_typeD0Ev>:
 800f038:	4b03      	ldr	r3, [pc, #12]	; (800f048 <_ZN12_GLOBAL__N_125font_OSD_Charset_107_typeD0Ev+0x10>)
 800f03a:	b510      	push	{r4, lr}
 800f03c:	4604      	mov	r4, r0
 800f03e:	6003      	str	r3, [r0, #0]
 800f040:	f003 fe6c 	bl	8012d1c <_ZdlPv>
 800f044:	4620      	mov	r0, r4
 800f046:	bd10      	pop	{r4, pc}
 800f048:	08015cf8 	.word	0x08015cf8

0800f04c <_ZN12_GLOBAL__N_125font_OSD_Charset_106_typeD0Ev>:
 800f04c:	4b03      	ldr	r3, [pc, #12]	; (800f05c <_ZN12_GLOBAL__N_125font_OSD_Charset_106_typeD0Ev+0x10>)
 800f04e:	b510      	push	{r4, lr}
 800f050:	4604      	mov	r4, r0
 800f052:	6003      	str	r3, [r0, #0]
 800f054:	f003 fe62 	bl	8012d1c <_ZdlPv>
 800f058:	4620      	mov	r0, r4
 800f05a:	bd10      	pop	{r4, pc}
 800f05c:	08015cf8 	.word	0x08015cf8

0800f060 <_ZN12_GLOBAL__N_125font_OSD_Charset_105_typeD0Ev>:
 800f060:	4b03      	ldr	r3, [pc, #12]	; (800f070 <_ZN12_GLOBAL__N_125font_OSD_Charset_105_typeD0Ev+0x10>)
 800f062:	b510      	push	{r4, lr}
 800f064:	4604      	mov	r4, r0
 800f066:	6003      	str	r3, [r0, #0]
 800f068:	f003 fe58 	bl	8012d1c <_ZdlPv>
 800f06c:	4620      	mov	r0, r4
 800f06e:	bd10      	pop	{r4, pc}
 800f070:	08015cf8 	.word	0x08015cf8

0800f074 <_ZN12_GLOBAL__N_125font_OSD_Charset_104_typeD0Ev>:
 800f074:	4b03      	ldr	r3, [pc, #12]	; (800f084 <_ZN12_GLOBAL__N_125font_OSD_Charset_104_typeD0Ev+0x10>)
 800f076:	b510      	push	{r4, lr}
 800f078:	4604      	mov	r4, r0
 800f07a:	6003      	str	r3, [r0, #0]
 800f07c:	f003 fe4e 	bl	8012d1c <_ZdlPv>
 800f080:	4620      	mov	r0, r4
 800f082:	bd10      	pop	{r4, pc}
 800f084:	08015cf8 	.word	0x08015cf8

0800f088 <_ZN12_GLOBAL__N_125font_OSD_Charset_103_typeD0Ev>:
 800f088:	4b03      	ldr	r3, [pc, #12]	; (800f098 <_ZN12_GLOBAL__N_125font_OSD_Charset_103_typeD0Ev+0x10>)
 800f08a:	b510      	push	{r4, lr}
 800f08c:	4604      	mov	r4, r0
 800f08e:	6003      	str	r3, [r0, #0]
 800f090:	f003 fe44 	bl	8012d1c <_ZdlPv>
 800f094:	4620      	mov	r0, r4
 800f096:	bd10      	pop	{r4, pc}
 800f098:	08015cf8 	.word	0x08015cf8

0800f09c <_ZN12_GLOBAL__N_125font_OSD_Charset_102_typeD0Ev>:
 800f09c:	4b03      	ldr	r3, [pc, #12]	; (800f0ac <_ZN12_GLOBAL__N_125font_OSD_Charset_102_typeD0Ev+0x10>)
 800f09e:	b510      	push	{r4, lr}
 800f0a0:	4604      	mov	r4, r0
 800f0a2:	6003      	str	r3, [r0, #0]
 800f0a4:	f003 fe3a 	bl	8012d1c <_ZdlPv>
 800f0a8:	4620      	mov	r0, r4
 800f0aa:	bd10      	pop	{r4, pc}
 800f0ac:	08015cf8 	.word	0x08015cf8

0800f0b0 <_ZN12_GLOBAL__N_125font_OSD_Charset_101_typeD0Ev>:
 800f0b0:	4b03      	ldr	r3, [pc, #12]	; (800f0c0 <_ZN12_GLOBAL__N_125font_OSD_Charset_101_typeD0Ev+0x10>)
 800f0b2:	b510      	push	{r4, lr}
 800f0b4:	4604      	mov	r4, r0
 800f0b6:	6003      	str	r3, [r0, #0]
 800f0b8:	f003 fe30 	bl	8012d1c <_ZdlPv>
 800f0bc:	4620      	mov	r0, r4
 800f0be:	bd10      	pop	{r4, pc}
 800f0c0:	08015cf8 	.word	0x08015cf8

0800f0c4 <_ZN12_GLOBAL__N_125font_OSD_Charset_100_typeD0Ev>:
 800f0c4:	4b03      	ldr	r3, [pc, #12]	; (800f0d4 <_ZN12_GLOBAL__N_125font_OSD_Charset_100_typeD0Ev+0x10>)
 800f0c6:	b510      	push	{r4, lr}
 800f0c8:	4604      	mov	r4, r0
 800f0ca:	6003      	str	r3, [r0, #0]
 800f0cc:	f003 fe26 	bl	8012d1c <_ZdlPv>
 800f0d0:	4620      	mov	r0, r4
 800f0d2:	bd10      	pop	{r4, pc}
 800f0d4:	08015cf8 	.word	0x08015cf8

0800f0d8 <_ZN12_GLOBAL__N_124font_OSD_Charset_99_typeD0Ev>:
 800f0d8:	4b03      	ldr	r3, [pc, #12]	; (800f0e8 <_ZN12_GLOBAL__N_124font_OSD_Charset_99_typeD0Ev+0x10>)
 800f0da:	b510      	push	{r4, lr}
 800f0dc:	4604      	mov	r4, r0
 800f0de:	6003      	str	r3, [r0, #0]
 800f0e0:	f003 fe1c 	bl	8012d1c <_ZdlPv>
 800f0e4:	4620      	mov	r0, r4
 800f0e6:	bd10      	pop	{r4, pc}
 800f0e8:	08015cf8 	.word	0x08015cf8

0800f0ec <_ZN12_GLOBAL__N_124font_OSD_Charset_98_typeD0Ev>:
 800f0ec:	4b03      	ldr	r3, [pc, #12]	; (800f0fc <_ZN12_GLOBAL__N_124font_OSD_Charset_98_typeD0Ev+0x10>)
 800f0ee:	b510      	push	{r4, lr}
 800f0f0:	4604      	mov	r4, r0
 800f0f2:	6003      	str	r3, [r0, #0]
 800f0f4:	f003 fe12 	bl	8012d1c <_ZdlPv>
 800f0f8:	4620      	mov	r0, r4
 800f0fa:	bd10      	pop	{r4, pc}
 800f0fc:	08015cf8 	.word	0x08015cf8

0800f100 <_ZN12_GLOBAL__N_124font_OSD_Charset_97_typeD0Ev>:
 800f100:	4b03      	ldr	r3, [pc, #12]	; (800f110 <_ZN12_GLOBAL__N_124font_OSD_Charset_97_typeD0Ev+0x10>)
 800f102:	b510      	push	{r4, lr}
 800f104:	4604      	mov	r4, r0
 800f106:	6003      	str	r3, [r0, #0]
 800f108:	f003 fe08 	bl	8012d1c <_ZdlPv>
 800f10c:	4620      	mov	r0, r4
 800f10e:	bd10      	pop	{r4, pc}
 800f110:	08015cf8 	.word	0x08015cf8

0800f114 <_ZN12_GLOBAL__N_124font_OSD_Charset_96_typeD0Ev>:
 800f114:	4b03      	ldr	r3, [pc, #12]	; (800f124 <_ZN12_GLOBAL__N_124font_OSD_Charset_96_typeD0Ev+0x10>)
 800f116:	b510      	push	{r4, lr}
 800f118:	4604      	mov	r4, r0
 800f11a:	6003      	str	r3, [r0, #0]
 800f11c:	f003 fdfe 	bl	8012d1c <_ZdlPv>
 800f120:	4620      	mov	r0, r4
 800f122:	bd10      	pop	{r4, pc}
 800f124:	08015cf8 	.word	0x08015cf8

0800f128 <_ZN12_GLOBAL__N_124font_OSD_Charset_95_typeD0Ev>:
 800f128:	4b03      	ldr	r3, [pc, #12]	; (800f138 <_ZN12_GLOBAL__N_124font_OSD_Charset_95_typeD0Ev+0x10>)
 800f12a:	b510      	push	{r4, lr}
 800f12c:	4604      	mov	r4, r0
 800f12e:	6003      	str	r3, [r0, #0]
 800f130:	f003 fdf4 	bl	8012d1c <_ZdlPv>
 800f134:	4620      	mov	r0, r4
 800f136:	bd10      	pop	{r4, pc}
 800f138:	08015cf8 	.word	0x08015cf8

0800f13c <_ZN12_GLOBAL__N_124font_OSD_Charset_94_typeD0Ev>:
 800f13c:	4b03      	ldr	r3, [pc, #12]	; (800f14c <_ZN12_GLOBAL__N_124font_OSD_Charset_94_typeD0Ev+0x10>)
 800f13e:	b510      	push	{r4, lr}
 800f140:	4604      	mov	r4, r0
 800f142:	6003      	str	r3, [r0, #0]
 800f144:	f003 fdea 	bl	8012d1c <_ZdlPv>
 800f148:	4620      	mov	r0, r4
 800f14a:	bd10      	pop	{r4, pc}
 800f14c:	08015cf8 	.word	0x08015cf8

0800f150 <_ZN12_GLOBAL__N_124font_OSD_Charset_93_typeD0Ev>:
 800f150:	4b03      	ldr	r3, [pc, #12]	; (800f160 <_ZN12_GLOBAL__N_124font_OSD_Charset_93_typeD0Ev+0x10>)
 800f152:	b510      	push	{r4, lr}
 800f154:	4604      	mov	r4, r0
 800f156:	6003      	str	r3, [r0, #0]
 800f158:	f003 fde0 	bl	8012d1c <_ZdlPv>
 800f15c:	4620      	mov	r0, r4
 800f15e:	bd10      	pop	{r4, pc}
 800f160:	08015cf8 	.word	0x08015cf8

0800f164 <_ZN12_GLOBAL__N_124font_OSD_Charset_92_typeD0Ev>:
 800f164:	4b03      	ldr	r3, [pc, #12]	; (800f174 <_ZN12_GLOBAL__N_124font_OSD_Charset_92_typeD0Ev+0x10>)
 800f166:	b510      	push	{r4, lr}
 800f168:	4604      	mov	r4, r0
 800f16a:	6003      	str	r3, [r0, #0]
 800f16c:	f003 fdd6 	bl	8012d1c <_ZdlPv>
 800f170:	4620      	mov	r0, r4
 800f172:	bd10      	pop	{r4, pc}
 800f174:	08015cf8 	.word	0x08015cf8

0800f178 <_ZN12_GLOBAL__N_124font_OSD_Charset_91_typeD0Ev>:
 800f178:	4b03      	ldr	r3, [pc, #12]	; (800f188 <_ZN12_GLOBAL__N_124font_OSD_Charset_91_typeD0Ev+0x10>)
 800f17a:	b510      	push	{r4, lr}
 800f17c:	4604      	mov	r4, r0
 800f17e:	6003      	str	r3, [r0, #0]
 800f180:	f003 fdcc 	bl	8012d1c <_ZdlPv>
 800f184:	4620      	mov	r0, r4
 800f186:	bd10      	pop	{r4, pc}
 800f188:	08015cf8 	.word	0x08015cf8

0800f18c <_ZN12_GLOBAL__N_124font_OSD_Charset_90_typeD0Ev>:
 800f18c:	4b03      	ldr	r3, [pc, #12]	; (800f19c <_ZN12_GLOBAL__N_124font_OSD_Charset_90_typeD0Ev+0x10>)
 800f18e:	b510      	push	{r4, lr}
 800f190:	4604      	mov	r4, r0
 800f192:	6003      	str	r3, [r0, #0]
 800f194:	f003 fdc2 	bl	8012d1c <_ZdlPv>
 800f198:	4620      	mov	r0, r4
 800f19a:	bd10      	pop	{r4, pc}
 800f19c:	08015cf8 	.word	0x08015cf8

0800f1a0 <_ZN12_GLOBAL__N_124font_OSD_Charset_89_typeD0Ev>:
 800f1a0:	4b03      	ldr	r3, [pc, #12]	; (800f1b0 <_ZN12_GLOBAL__N_124font_OSD_Charset_89_typeD0Ev+0x10>)
 800f1a2:	b510      	push	{r4, lr}
 800f1a4:	4604      	mov	r4, r0
 800f1a6:	6003      	str	r3, [r0, #0]
 800f1a8:	f003 fdb8 	bl	8012d1c <_ZdlPv>
 800f1ac:	4620      	mov	r0, r4
 800f1ae:	bd10      	pop	{r4, pc}
 800f1b0:	08015cf8 	.word	0x08015cf8

0800f1b4 <_ZN12_GLOBAL__N_124font_OSD_Charset_88_typeD0Ev>:
 800f1b4:	4b03      	ldr	r3, [pc, #12]	; (800f1c4 <_ZN12_GLOBAL__N_124font_OSD_Charset_88_typeD0Ev+0x10>)
 800f1b6:	b510      	push	{r4, lr}
 800f1b8:	4604      	mov	r4, r0
 800f1ba:	6003      	str	r3, [r0, #0]
 800f1bc:	f003 fdae 	bl	8012d1c <_ZdlPv>
 800f1c0:	4620      	mov	r0, r4
 800f1c2:	bd10      	pop	{r4, pc}
 800f1c4:	08015cf8 	.word	0x08015cf8

0800f1c8 <_ZN12_GLOBAL__N_124font_OSD_Charset_87_typeD0Ev>:
 800f1c8:	4b03      	ldr	r3, [pc, #12]	; (800f1d8 <_ZN12_GLOBAL__N_124font_OSD_Charset_87_typeD0Ev+0x10>)
 800f1ca:	b510      	push	{r4, lr}
 800f1cc:	4604      	mov	r4, r0
 800f1ce:	6003      	str	r3, [r0, #0]
 800f1d0:	f003 fda4 	bl	8012d1c <_ZdlPv>
 800f1d4:	4620      	mov	r0, r4
 800f1d6:	bd10      	pop	{r4, pc}
 800f1d8:	08015cf8 	.word	0x08015cf8

0800f1dc <_ZN12_GLOBAL__N_124font_OSD_Charset_86_typeD0Ev>:
 800f1dc:	4b03      	ldr	r3, [pc, #12]	; (800f1ec <_ZN12_GLOBAL__N_124font_OSD_Charset_86_typeD0Ev+0x10>)
 800f1de:	b510      	push	{r4, lr}
 800f1e0:	4604      	mov	r4, r0
 800f1e2:	6003      	str	r3, [r0, #0]
 800f1e4:	f003 fd9a 	bl	8012d1c <_ZdlPv>
 800f1e8:	4620      	mov	r0, r4
 800f1ea:	bd10      	pop	{r4, pc}
 800f1ec:	08015cf8 	.word	0x08015cf8

0800f1f0 <_ZN12_GLOBAL__N_124font_OSD_Charset_85_typeD0Ev>:
 800f1f0:	4b03      	ldr	r3, [pc, #12]	; (800f200 <_ZN12_GLOBAL__N_124font_OSD_Charset_85_typeD0Ev+0x10>)
 800f1f2:	b510      	push	{r4, lr}
 800f1f4:	4604      	mov	r4, r0
 800f1f6:	6003      	str	r3, [r0, #0]
 800f1f8:	f003 fd90 	bl	8012d1c <_ZdlPv>
 800f1fc:	4620      	mov	r0, r4
 800f1fe:	bd10      	pop	{r4, pc}
 800f200:	08015cf8 	.word	0x08015cf8

0800f204 <_ZN12_GLOBAL__N_124font_OSD_Charset_84_typeD0Ev>:
 800f204:	4b03      	ldr	r3, [pc, #12]	; (800f214 <_ZN12_GLOBAL__N_124font_OSD_Charset_84_typeD0Ev+0x10>)
 800f206:	b510      	push	{r4, lr}
 800f208:	4604      	mov	r4, r0
 800f20a:	6003      	str	r3, [r0, #0]
 800f20c:	f003 fd86 	bl	8012d1c <_ZdlPv>
 800f210:	4620      	mov	r0, r4
 800f212:	bd10      	pop	{r4, pc}
 800f214:	08015cf8 	.word	0x08015cf8

0800f218 <_ZN12_GLOBAL__N_124font_OSD_Charset_83_typeD0Ev>:
 800f218:	4b03      	ldr	r3, [pc, #12]	; (800f228 <_ZN12_GLOBAL__N_124font_OSD_Charset_83_typeD0Ev+0x10>)
 800f21a:	b510      	push	{r4, lr}
 800f21c:	4604      	mov	r4, r0
 800f21e:	6003      	str	r3, [r0, #0]
 800f220:	f003 fd7c 	bl	8012d1c <_ZdlPv>
 800f224:	4620      	mov	r0, r4
 800f226:	bd10      	pop	{r4, pc}
 800f228:	08015cf8 	.word	0x08015cf8

0800f22c <_ZN12_GLOBAL__N_124font_OSD_Charset_82_typeD0Ev>:
 800f22c:	4b03      	ldr	r3, [pc, #12]	; (800f23c <_ZN12_GLOBAL__N_124font_OSD_Charset_82_typeD0Ev+0x10>)
 800f22e:	b510      	push	{r4, lr}
 800f230:	4604      	mov	r4, r0
 800f232:	6003      	str	r3, [r0, #0]
 800f234:	f003 fd72 	bl	8012d1c <_ZdlPv>
 800f238:	4620      	mov	r0, r4
 800f23a:	bd10      	pop	{r4, pc}
 800f23c:	08015cf8 	.word	0x08015cf8

0800f240 <_ZN12_GLOBAL__N_124font_OSD_Charset_81_typeD0Ev>:
 800f240:	4b03      	ldr	r3, [pc, #12]	; (800f250 <_ZN12_GLOBAL__N_124font_OSD_Charset_81_typeD0Ev+0x10>)
 800f242:	b510      	push	{r4, lr}
 800f244:	4604      	mov	r4, r0
 800f246:	6003      	str	r3, [r0, #0]
 800f248:	f003 fd68 	bl	8012d1c <_ZdlPv>
 800f24c:	4620      	mov	r0, r4
 800f24e:	bd10      	pop	{r4, pc}
 800f250:	08015cf8 	.word	0x08015cf8

0800f254 <_ZN12_GLOBAL__N_124font_OSD_Charset_80_typeD0Ev>:
 800f254:	4b03      	ldr	r3, [pc, #12]	; (800f264 <_ZN12_GLOBAL__N_124font_OSD_Charset_80_typeD0Ev+0x10>)
 800f256:	b510      	push	{r4, lr}
 800f258:	4604      	mov	r4, r0
 800f25a:	6003      	str	r3, [r0, #0]
 800f25c:	f003 fd5e 	bl	8012d1c <_ZdlPv>
 800f260:	4620      	mov	r0, r4
 800f262:	bd10      	pop	{r4, pc}
 800f264:	08015cf8 	.word	0x08015cf8

0800f268 <_ZN12_GLOBAL__N_124font_OSD_Charset_79_typeD0Ev>:
 800f268:	4b03      	ldr	r3, [pc, #12]	; (800f278 <_ZN12_GLOBAL__N_124font_OSD_Charset_79_typeD0Ev+0x10>)
 800f26a:	b510      	push	{r4, lr}
 800f26c:	4604      	mov	r4, r0
 800f26e:	6003      	str	r3, [r0, #0]
 800f270:	f003 fd54 	bl	8012d1c <_ZdlPv>
 800f274:	4620      	mov	r0, r4
 800f276:	bd10      	pop	{r4, pc}
 800f278:	08015cf8 	.word	0x08015cf8

0800f27c <_ZN12_GLOBAL__N_124font_OSD_Charset_78_typeD0Ev>:
 800f27c:	4b03      	ldr	r3, [pc, #12]	; (800f28c <_ZN12_GLOBAL__N_124font_OSD_Charset_78_typeD0Ev+0x10>)
 800f27e:	b510      	push	{r4, lr}
 800f280:	4604      	mov	r4, r0
 800f282:	6003      	str	r3, [r0, #0]
 800f284:	f003 fd4a 	bl	8012d1c <_ZdlPv>
 800f288:	4620      	mov	r0, r4
 800f28a:	bd10      	pop	{r4, pc}
 800f28c:	08015cf8 	.word	0x08015cf8

0800f290 <_ZN12_GLOBAL__N_124font_OSD_Charset_77_typeD0Ev>:
 800f290:	4b03      	ldr	r3, [pc, #12]	; (800f2a0 <_ZN12_GLOBAL__N_124font_OSD_Charset_77_typeD0Ev+0x10>)
 800f292:	b510      	push	{r4, lr}
 800f294:	4604      	mov	r4, r0
 800f296:	6003      	str	r3, [r0, #0]
 800f298:	f003 fd40 	bl	8012d1c <_ZdlPv>
 800f29c:	4620      	mov	r0, r4
 800f29e:	bd10      	pop	{r4, pc}
 800f2a0:	08015cf8 	.word	0x08015cf8

0800f2a4 <_ZN12_GLOBAL__N_124font_OSD_Charset_76_typeD0Ev>:
 800f2a4:	4b03      	ldr	r3, [pc, #12]	; (800f2b4 <_ZN12_GLOBAL__N_124font_OSD_Charset_76_typeD0Ev+0x10>)
 800f2a6:	b510      	push	{r4, lr}
 800f2a8:	4604      	mov	r4, r0
 800f2aa:	6003      	str	r3, [r0, #0]
 800f2ac:	f003 fd36 	bl	8012d1c <_ZdlPv>
 800f2b0:	4620      	mov	r0, r4
 800f2b2:	bd10      	pop	{r4, pc}
 800f2b4:	08015cf8 	.word	0x08015cf8

0800f2b8 <_ZN12_GLOBAL__N_124font_OSD_Charset_75_typeD0Ev>:
 800f2b8:	4b03      	ldr	r3, [pc, #12]	; (800f2c8 <_ZN12_GLOBAL__N_124font_OSD_Charset_75_typeD0Ev+0x10>)
 800f2ba:	b510      	push	{r4, lr}
 800f2bc:	4604      	mov	r4, r0
 800f2be:	6003      	str	r3, [r0, #0]
 800f2c0:	f003 fd2c 	bl	8012d1c <_ZdlPv>
 800f2c4:	4620      	mov	r0, r4
 800f2c6:	bd10      	pop	{r4, pc}
 800f2c8:	08015cf8 	.word	0x08015cf8

0800f2cc <_ZN12_GLOBAL__N_124font_OSD_Charset_74_typeD0Ev>:
 800f2cc:	4b03      	ldr	r3, [pc, #12]	; (800f2dc <_ZN12_GLOBAL__N_124font_OSD_Charset_74_typeD0Ev+0x10>)
 800f2ce:	b510      	push	{r4, lr}
 800f2d0:	4604      	mov	r4, r0
 800f2d2:	6003      	str	r3, [r0, #0]
 800f2d4:	f003 fd22 	bl	8012d1c <_ZdlPv>
 800f2d8:	4620      	mov	r0, r4
 800f2da:	bd10      	pop	{r4, pc}
 800f2dc:	08015cf8 	.word	0x08015cf8

0800f2e0 <_ZN12_GLOBAL__N_124font_OSD_Charset_73_typeD0Ev>:
 800f2e0:	4b03      	ldr	r3, [pc, #12]	; (800f2f0 <_ZN12_GLOBAL__N_124font_OSD_Charset_73_typeD0Ev+0x10>)
 800f2e2:	b510      	push	{r4, lr}
 800f2e4:	4604      	mov	r4, r0
 800f2e6:	6003      	str	r3, [r0, #0]
 800f2e8:	f003 fd18 	bl	8012d1c <_ZdlPv>
 800f2ec:	4620      	mov	r0, r4
 800f2ee:	bd10      	pop	{r4, pc}
 800f2f0:	08015cf8 	.word	0x08015cf8

0800f2f4 <_ZN12_GLOBAL__N_124font_OSD_Charset_72_typeD0Ev>:
 800f2f4:	4b03      	ldr	r3, [pc, #12]	; (800f304 <_ZN12_GLOBAL__N_124font_OSD_Charset_72_typeD0Ev+0x10>)
 800f2f6:	b510      	push	{r4, lr}
 800f2f8:	4604      	mov	r4, r0
 800f2fa:	6003      	str	r3, [r0, #0]
 800f2fc:	f003 fd0e 	bl	8012d1c <_ZdlPv>
 800f300:	4620      	mov	r0, r4
 800f302:	bd10      	pop	{r4, pc}
 800f304:	08015cf8 	.word	0x08015cf8

0800f308 <_ZN12_GLOBAL__N_124font_OSD_Charset_71_typeD0Ev>:
 800f308:	4b03      	ldr	r3, [pc, #12]	; (800f318 <_ZN12_GLOBAL__N_124font_OSD_Charset_71_typeD0Ev+0x10>)
 800f30a:	b510      	push	{r4, lr}
 800f30c:	4604      	mov	r4, r0
 800f30e:	6003      	str	r3, [r0, #0]
 800f310:	f003 fd04 	bl	8012d1c <_ZdlPv>
 800f314:	4620      	mov	r0, r4
 800f316:	bd10      	pop	{r4, pc}
 800f318:	08015cf8 	.word	0x08015cf8

0800f31c <_ZN12_GLOBAL__N_124font_OSD_Charset_70_typeD0Ev>:
 800f31c:	4b03      	ldr	r3, [pc, #12]	; (800f32c <_ZN12_GLOBAL__N_124font_OSD_Charset_70_typeD0Ev+0x10>)
 800f31e:	b510      	push	{r4, lr}
 800f320:	4604      	mov	r4, r0
 800f322:	6003      	str	r3, [r0, #0]
 800f324:	f003 fcfa 	bl	8012d1c <_ZdlPv>
 800f328:	4620      	mov	r0, r4
 800f32a:	bd10      	pop	{r4, pc}
 800f32c:	08015cf8 	.word	0x08015cf8

0800f330 <_ZN12_GLOBAL__N_124font_OSD_Charset_69_typeD0Ev>:
 800f330:	4b03      	ldr	r3, [pc, #12]	; (800f340 <_ZN12_GLOBAL__N_124font_OSD_Charset_69_typeD0Ev+0x10>)
 800f332:	b510      	push	{r4, lr}
 800f334:	4604      	mov	r4, r0
 800f336:	6003      	str	r3, [r0, #0]
 800f338:	f003 fcf0 	bl	8012d1c <_ZdlPv>
 800f33c:	4620      	mov	r0, r4
 800f33e:	bd10      	pop	{r4, pc}
 800f340:	08015cf8 	.word	0x08015cf8

0800f344 <_ZN12_GLOBAL__N_124font_OSD_Charset_68_typeD0Ev>:
 800f344:	4b03      	ldr	r3, [pc, #12]	; (800f354 <_ZN12_GLOBAL__N_124font_OSD_Charset_68_typeD0Ev+0x10>)
 800f346:	b510      	push	{r4, lr}
 800f348:	4604      	mov	r4, r0
 800f34a:	6003      	str	r3, [r0, #0]
 800f34c:	f003 fce6 	bl	8012d1c <_ZdlPv>
 800f350:	4620      	mov	r0, r4
 800f352:	bd10      	pop	{r4, pc}
 800f354:	08015cf8 	.word	0x08015cf8

0800f358 <_ZN12_GLOBAL__N_124font_OSD_Charset_67_typeD0Ev>:
 800f358:	4b03      	ldr	r3, [pc, #12]	; (800f368 <_ZN12_GLOBAL__N_124font_OSD_Charset_67_typeD0Ev+0x10>)
 800f35a:	b510      	push	{r4, lr}
 800f35c:	4604      	mov	r4, r0
 800f35e:	6003      	str	r3, [r0, #0]
 800f360:	f003 fcdc 	bl	8012d1c <_ZdlPv>
 800f364:	4620      	mov	r0, r4
 800f366:	bd10      	pop	{r4, pc}
 800f368:	08015cf8 	.word	0x08015cf8

0800f36c <_ZN12_GLOBAL__N_124font_OSD_Charset_66_typeD0Ev>:
 800f36c:	4b03      	ldr	r3, [pc, #12]	; (800f37c <_ZN12_GLOBAL__N_124font_OSD_Charset_66_typeD0Ev+0x10>)
 800f36e:	b510      	push	{r4, lr}
 800f370:	4604      	mov	r4, r0
 800f372:	6003      	str	r3, [r0, #0]
 800f374:	f003 fcd2 	bl	8012d1c <_ZdlPv>
 800f378:	4620      	mov	r0, r4
 800f37a:	bd10      	pop	{r4, pc}
 800f37c:	08015cf8 	.word	0x08015cf8

0800f380 <_ZN12_GLOBAL__N_124font_OSD_Charset_65_typeD0Ev>:
 800f380:	4b03      	ldr	r3, [pc, #12]	; (800f390 <_ZN12_GLOBAL__N_124font_OSD_Charset_65_typeD0Ev+0x10>)
 800f382:	b510      	push	{r4, lr}
 800f384:	4604      	mov	r4, r0
 800f386:	6003      	str	r3, [r0, #0]
 800f388:	f003 fcc8 	bl	8012d1c <_ZdlPv>
 800f38c:	4620      	mov	r0, r4
 800f38e:	bd10      	pop	{r4, pc}
 800f390:	08015cf8 	.word	0x08015cf8

0800f394 <_ZN12_GLOBAL__N_124font_OSD_Charset_64_typeD0Ev>:
 800f394:	4b03      	ldr	r3, [pc, #12]	; (800f3a4 <_ZN12_GLOBAL__N_124font_OSD_Charset_64_typeD0Ev+0x10>)
 800f396:	b510      	push	{r4, lr}
 800f398:	4604      	mov	r4, r0
 800f39a:	6003      	str	r3, [r0, #0]
 800f39c:	f003 fcbe 	bl	8012d1c <_ZdlPv>
 800f3a0:	4620      	mov	r0, r4
 800f3a2:	bd10      	pop	{r4, pc}
 800f3a4:	08015cf8 	.word	0x08015cf8

0800f3a8 <_ZN12_GLOBAL__N_124font_OSD_Charset_63_typeD0Ev>:
 800f3a8:	4b03      	ldr	r3, [pc, #12]	; (800f3b8 <_ZN12_GLOBAL__N_124font_OSD_Charset_63_typeD0Ev+0x10>)
 800f3aa:	b510      	push	{r4, lr}
 800f3ac:	4604      	mov	r4, r0
 800f3ae:	6003      	str	r3, [r0, #0]
 800f3b0:	f003 fcb4 	bl	8012d1c <_ZdlPv>
 800f3b4:	4620      	mov	r0, r4
 800f3b6:	bd10      	pop	{r4, pc}
 800f3b8:	08015cf8 	.word	0x08015cf8

0800f3bc <_ZN12_GLOBAL__N_124font_OSD_Charset_62_typeD0Ev>:
 800f3bc:	4b03      	ldr	r3, [pc, #12]	; (800f3cc <_ZN12_GLOBAL__N_124font_OSD_Charset_62_typeD0Ev+0x10>)
 800f3be:	b510      	push	{r4, lr}
 800f3c0:	4604      	mov	r4, r0
 800f3c2:	6003      	str	r3, [r0, #0]
 800f3c4:	f003 fcaa 	bl	8012d1c <_ZdlPv>
 800f3c8:	4620      	mov	r0, r4
 800f3ca:	bd10      	pop	{r4, pc}
 800f3cc:	08015cf8 	.word	0x08015cf8

0800f3d0 <_ZN12_GLOBAL__N_124font_OSD_Charset_61_typeD0Ev>:
 800f3d0:	4b03      	ldr	r3, [pc, #12]	; (800f3e0 <_ZN12_GLOBAL__N_124font_OSD_Charset_61_typeD0Ev+0x10>)
 800f3d2:	b510      	push	{r4, lr}
 800f3d4:	4604      	mov	r4, r0
 800f3d6:	6003      	str	r3, [r0, #0]
 800f3d8:	f003 fca0 	bl	8012d1c <_ZdlPv>
 800f3dc:	4620      	mov	r0, r4
 800f3de:	bd10      	pop	{r4, pc}
 800f3e0:	08015cf8 	.word	0x08015cf8

0800f3e4 <_ZN12_GLOBAL__N_124font_OSD_Charset_60_typeD0Ev>:
 800f3e4:	4b03      	ldr	r3, [pc, #12]	; (800f3f4 <_ZN12_GLOBAL__N_124font_OSD_Charset_60_typeD0Ev+0x10>)
 800f3e6:	b510      	push	{r4, lr}
 800f3e8:	4604      	mov	r4, r0
 800f3ea:	6003      	str	r3, [r0, #0]
 800f3ec:	f003 fc96 	bl	8012d1c <_ZdlPv>
 800f3f0:	4620      	mov	r0, r4
 800f3f2:	bd10      	pop	{r4, pc}
 800f3f4:	08015cf8 	.word	0x08015cf8

0800f3f8 <_ZN12_GLOBAL__N_124font_OSD_Charset_59_typeD0Ev>:
 800f3f8:	4b03      	ldr	r3, [pc, #12]	; (800f408 <_ZN12_GLOBAL__N_124font_OSD_Charset_59_typeD0Ev+0x10>)
 800f3fa:	b510      	push	{r4, lr}
 800f3fc:	4604      	mov	r4, r0
 800f3fe:	6003      	str	r3, [r0, #0]
 800f400:	f003 fc8c 	bl	8012d1c <_ZdlPv>
 800f404:	4620      	mov	r0, r4
 800f406:	bd10      	pop	{r4, pc}
 800f408:	08015cf8 	.word	0x08015cf8

0800f40c <_ZN12_GLOBAL__N_124font_OSD_Charset_58_typeD0Ev>:
 800f40c:	4b03      	ldr	r3, [pc, #12]	; (800f41c <_ZN12_GLOBAL__N_124font_OSD_Charset_58_typeD0Ev+0x10>)
 800f40e:	b510      	push	{r4, lr}
 800f410:	4604      	mov	r4, r0
 800f412:	6003      	str	r3, [r0, #0]
 800f414:	f003 fc82 	bl	8012d1c <_ZdlPv>
 800f418:	4620      	mov	r0, r4
 800f41a:	bd10      	pop	{r4, pc}
 800f41c:	08015cf8 	.word	0x08015cf8

0800f420 <_ZN12_GLOBAL__N_124font_OSD_Charset_57_typeD0Ev>:
 800f420:	4b03      	ldr	r3, [pc, #12]	; (800f430 <_ZN12_GLOBAL__N_124font_OSD_Charset_57_typeD0Ev+0x10>)
 800f422:	b510      	push	{r4, lr}
 800f424:	4604      	mov	r4, r0
 800f426:	6003      	str	r3, [r0, #0]
 800f428:	f003 fc78 	bl	8012d1c <_ZdlPv>
 800f42c:	4620      	mov	r0, r4
 800f42e:	bd10      	pop	{r4, pc}
 800f430:	08015cf8 	.word	0x08015cf8

0800f434 <_ZN12_GLOBAL__N_124font_OSD_Charset_56_typeD0Ev>:
 800f434:	4b03      	ldr	r3, [pc, #12]	; (800f444 <_ZN12_GLOBAL__N_124font_OSD_Charset_56_typeD0Ev+0x10>)
 800f436:	b510      	push	{r4, lr}
 800f438:	4604      	mov	r4, r0
 800f43a:	6003      	str	r3, [r0, #0]
 800f43c:	f003 fc6e 	bl	8012d1c <_ZdlPv>
 800f440:	4620      	mov	r0, r4
 800f442:	bd10      	pop	{r4, pc}
 800f444:	08015cf8 	.word	0x08015cf8

0800f448 <_ZN12_GLOBAL__N_124font_OSD_Charset_55_typeD0Ev>:
 800f448:	4b03      	ldr	r3, [pc, #12]	; (800f458 <_ZN12_GLOBAL__N_124font_OSD_Charset_55_typeD0Ev+0x10>)
 800f44a:	b510      	push	{r4, lr}
 800f44c:	4604      	mov	r4, r0
 800f44e:	6003      	str	r3, [r0, #0]
 800f450:	f003 fc64 	bl	8012d1c <_ZdlPv>
 800f454:	4620      	mov	r0, r4
 800f456:	bd10      	pop	{r4, pc}
 800f458:	08015cf8 	.word	0x08015cf8

0800f45c <_ZN12_GLOBAL__N_124font_OSD_Charset_54_typeD0Ev>:
 800f45c:	4b03      	ldr	r3, [pc, #12]	; (800f46c <_ZN12_GLOBAL__N_124font_OSD_Charset_54_typeD0Ev+0x10>)
 800f45e:	b510      	push	{r4, lr}
 800f460:	4604      	mov	r4, r0
 800f462:	6003      	str	r3, [r0, #0]
 800f464:	f003 fc5a 	bl	8012d1c <_ZdlPv>
 800f468:	4620      	mov	r0, r4
 800f46a:	bd10      	pop	{r4, pc}
 800f46c:	08015cf8 	.word	0x08015cf8

0800f470 <_ZN12_GLOBAL__N_124font_OSD_Charset_53_typeD0Ev>:
 800f470:	4b03      	ldr	r3, [pc, #12]	; (800f480 <_ZN12_GLOBAL__N_124font_OSD_Charset_53_typeD0Ev+0x10>)
 800f472:	b510      	push	{r4, lr}
 800f474:	4604      	mov	r4, r0
 800f476:	6003      	str	r3, [r0, #0]
 800f478:	f003 fc50 	bl	8012d1c <_ZdlPv>
 800f47c:	4620      	mov	r0, r4
 800f47e:	bd10      	pop	{r4, pc}
 800f480:	08015cf8 	.word	0x08015cf8

0800f484 <_ZN12_GLOBAL__N_124font_OSD_Charset_52_typeD0Ev>:
 800f484:	4b03      	ldr	r3, [pc, #12]	; (800f494 <_ZN12_GLOBAL__N_124font_OSD_Charset_52_typeD0Ev+0x10>)
 800f486:	b510      	push	{r4, lr}
 800f488:	4604      	mov	r4, r0
 800f48a:	6003      	str	r3, [r0, #0]
 800f48c:	f003 fc46 	bl	8012d1c <_ZdlPv>
 800f490:	4620      	mov	r0, r4
 800f492:	bd10      	pop	{r4, pc}
 800f494:	08015cf8 	.word	0x08015cf8

0800f498 <_ZN12_GLOBAL__N_124font_OSD_Charset_51_typeD0Ev>:
 800f498:	4b03      	ldr	r3, [pc, #12]	; (800f4a8 <_ZN12_GLOBAL__N_124font_OSD_Charset_51_typeD0Ev+0x10>)
 800f49a:	b510      	push	{r4, lr}
 800f49c:	4604      	mov	r4, r0
 800f49e:	6003      	str	r3, [r0, #0]
 800f4a0:	f003 fc3c 	bl	8012d1c <_ZdlPv>
 800f4a4:	4620      	mov	r0, r4
 800f4a6:	bd10      	pop	{r4, pc}
 800f4a8:	08015cf8 	.word	0x08015cf8

0800f4ac <_ZN12_GLOBAL__N_124font_OSD_Charset_50_typeD0Ev>:
 800f4ac:	4b03      	ldr	r3, [pc, #12]	; (800f4bc <_ZN12_GLOBAL__N_124font_OSD_Charset_50_typeD0Ev+0x10>)
 800f4ae:	b510      	push	{r4, lr}
 800f4b0:	4604      	mov	r4, r0
 800f4b2:	6003      	str	r3, [r0, #0]
 800f4b4:	f003 fc32 	bl	8012d1c <_ZdlPv>
 800f4b8:	4620      	mov	r0, r4
 800f4ba:	bd10      	pop	{r4, pc}
 800f4bc:	08015cf8 	.word	0x08015cf8

0800f4c0 <_ZN12_GLOBAL__N_124font_OSD_Charset_49_typeD0Ev>:
 800f4c0:	4b03      	ldr	r3, [pc, #12]	; (800f4d0 <_ZN12_GLOBAL__N_124font_OSD_Charset_49_typeD0Ev+0x10>)
 800f4c2:	b510      	push	{r4, lr}
 800f4c4:	4604      	mov	r4, r0
 800f4c6:	6003      	str	r3, [r0, #0]
 800f4c8:	f003 fc28 	bl	8012d1c <_ZdlPv>
 800f4cc:	4620      	mov	r0, r4
 800f4ce:	bd10      	pop	{r4, pc}
 800f4d0:	08015cf8 	.word	0x08015cf8

0800f4d4 <_ZN12_GLOBAL__N_124font_OSD_Charset_48_typeD0Ev>:
 800f4d4:	4b03      	ldr	r3, [pc, #12]	; (800f4e4 <_ZN12_GLOBAL__N_124font_OSD_Charset_48_typeD0Ev+0x10>)
 800f4d6:	b510      	push	{r4, lr}
 800f4d8:	4604      	mov	r4, r0
 800f4da:	6003      	str	r3, [r0, #0]
 800f4dc:	f003 fc1e 	bl	8012d1c <_ZdlPv>
 800f4e0:	4620      	mov	r0, r4
 800f4e2:	bd10      	pop	{r4, pc}
 800f4e4:	08015cf8 	.word	0x08015cf8

0800f4e8 <_ZN12_GLOBAL__N_124font_OSD_Charset_47_typeD0Ev>:
 800f4e8:	4b03      	ldr	r3, [pc, #12]	; (800f4f8 <_ZN12_GLOBAL__N_124font_OSD_Charset_47_typeD0Ev+0x10>)
 800f4ea:	b510      	push	{r4, lr}
 800f4ec:	4604      	mov	r4, r0
 800f4ee:	6003      	str	r3, [r0, #0]
 800f4f0:	f003 fc14 	bl	8012d1c <_ZdlPv>
 800f4f4:	4620      	mov	r0, r4
 800f4f6:	bd10      	pop	{r4, pc}
 800f4f8:	08015cf8 	.word	0x08015cf8

0800f4fc <_ZN12_GLOBAL__N_124font_OSD_Charset_46_typeD0Ev>:
 800f4fc:	4b03      	ldr	r3, [pc, #12]	; (800f50c <_ZN12_GLOBAL__N_124font_OSD_Charset_46_typeD0Ev+0x10>)
 800f4fe:	b510      	push	{r4, lr}
 800f500:	4604      	mov	r4, r0
 800f502:	6003      	str	r3, [r0, #0]
 800f504:	f003 fc0a 	bl	8012d1c <_ZdlPv>
 800f508:	4620      	mov	r0, r4
 800f50a:	bd10      	pop	{r4, pc}
 800f50c:	08015cf8 	.word	0x08015cf8

0800f510 <_ZN12_GLOBAL__N_124font_OSD_Charset_45_typeD0Ev>:
 800f510:	4b03      	ldr	r3, [pc, #12]	; (800f520 <_ZN12_GLOBAL__N_124font_OSD_Charset_45_typeD0Ev+0x10>)
 800f512:	b510      	push	{r4, lr}
 800f514:	4604      	mov	r4, r0
 800f516:	6003      	str	r3, [r0, #0]
 800f518:	f003 fc00 	bl	8012d1c <_ZdlPv>
 800f51c:	4620      	mov	r0, r4
 800f51e:	bd10      	pop	{r4, pc}
 800f520:	08015cf8 	.word	0x08015cf8

0800f524 <_ZN12_GLOBAL__N_124font_OSD_Charset_44_typeD0Ev>:
 800f524:	4b03      	ldr	r3, [pc, #12]	; (800f534 <_ZN12_GLOBAL__N_124font_OSD_Charset_44_typeD0Ev+0x10>)
 800f526:	b510      	push	{r4, lr}
 800f528:	4604      	mov	r4, r0
 800f52a:	6003      	str	r3, [r0, #0]
 800f52c:	f003 fbf6 	bl	8012d1c <_ZdlPv>
 800f530:	4620      	mov	r0, r4
 800f532:	bd10      	pop	{r4, pc}
 800f534:	08015cf8 	.word	0x08015cf8

0800f538 <_ZN12_GLOBAL__N_124font_OSD_Charset_43_typeD0Ev>:
 800f538:	4b03      	ldr	r3, [pc, #12]	; (800f548 <_ZN12_GLOBAL__N_124font_OSD_Charset_43_typeD0Ev+0x10>)
 800f53a:	b510      	push	{r4, lr}
 800f53c:	4604      	mov	r4, r0
 800f53e:	6003      	str	r3, [r0, #0]
 800f540:	f003 fbec 	bl	8012d1c <_ZdlPv>
 800f544:	4620      	mov	r0, r4
 800f546:	bd10      	pop	{r4, pc}
 800f548:	08015cf8 	.word	0x08015cf8

0800f54c <_ZN12_GLOBAL__N_124font_OSD_Charset_42_typeD0Ev>:
 800f54c:	4b03      	ldr	r3, [pc, #12]	; (800f55c <_ZN12_GLOBAL__N_124font_OSD_Charset_42_typeD0Ev+0x10>)
 800f54e:	b510      	push	{r4, lr}
 800f550:	4604      	mov	r4, r0
 800f552:	6003      	str	r3, [r0, #0]
 800f554:	f003 fbe2 	bl	8012d1c <_ZdlPv>
 800f558:	4620      	mov	r0, r4
 800f55a:	bd10      	pop	{r4, pc}
 800f55c:	08015cf8 	.word	0x08015cf8

0800f560 <_ZN12_GLOBAL__N_124font_OSD_Charset_41_typeD0Ev>:
 800f560:	4b03      	ldr	r3, [pc, #12]	; (800f570 <_ZN12_GLOBAL__N_124font_OSD_Charset_41_typeD0Ev+0x10>)
 800f562:	b510      	push	{r4, lr}
 800f564:	4604      	mov	r4, r0
 800f566:	6003      	str	r3, [r0, #0]
 800f568:	f003 fbd8 	bl	8012d1c <_ZdlPv>
 800f56c:	4620      	mov	r0, r4
 800f56e:	bd10      	pop	{r4, pc}
 800f570:	08015cf8 	.word	0x08015cf8

0800f574 <_ZN12_GLOBAL__N_124font_OSD_Charset_40_typeD0Ev>:
 800f574:	4b03      	ldr	r3, [pc, #12]	; (800f584 <_ZN12_GLOBAL__N_124font_OSD_Charset_40_typeD0Ev+0x10>)
 800f576:	b510      	push	{r4, lr}
 800f578:	4604      	mov	r4, r0
 800f57a:	6003      	str	r3, [r0, #0]
 800f57c:	f003 fbce 	bl	8012d1c <_ZdlPv>
 800f580:	4620      	mov	r0, r4
 800f582:	bd10      	pop	{r4, pc}
 800f584:	08015cf8 	.word	0x08015cf8

0800f588 <_ZN12_GLOBAL__N_124font_OSD_Charset_39_typeD0Ev>:
 800f588:	4b03      	ldr	r3, [pc, #12]	; (800f598 <_ZN12_GLOBAL__N_124font_OSD_Charset_39_typeD0Ev+0x10>)
 800f58a:	b510      	push	{r4, lr}
 800f58c:	4604      	mov	r4, r0
 800f58e:	6003      	str	r3, [r0, #0]
 800f590:	f003 fbc4 	bl	8012d1c <_ZdlPv>
 800f594:	4620      	mov	r0, r4
 800f596:	bd10      	pop	{r4, pc}
 800f598:	08015cf8 	.word	0x08015cf8

0800f59c <_ZN12_GLOBAL__N_124font_OSD_Charset_38_typeD0Ev>:
 800f59c:	4b03      	ldr	r3, [pc, #12]	; (800f5ac <_ZN12_GLOBAL__N_124font_OSD_Charset_38_typeD0Ev+0x10>)
 800f59e:	b510      	push	{r4, lr}
 800f5a0:	4604      	mov	r4, r0
 800f5a2:	6003      	str	r3, [r0, #0]
 800f5a4:	f003 fbba 	bl	8012d1c <_ZdlPv>
 800f5a8:	4620      	mov	r0, r4
 800f5aa:	bd10      	pop	{r4, pc}
 800f5ac:	08015cf8 	.word	0x08015cf8

0800f5b0 <_ZN12_GLOBAL__N_124font_OSD_Charset_37_typeD0Ev>:
 800f5b0:	4b03      	ldr	r3, [pc, #12]	; (800f5c0 <_ZN12_GLOBAL__N_124font_OSD_Charset_37_typeD0Ev+0x10>)
 800f5b2:	b510      	push	{r4, lr}
 800f5b4:	4604      	mov	r4, r0
 800f5b6:	6003      	str	r3, [r0, #0]
 800f5b8:	f003 fbb0 	bl	8012d1c <_ZdlPv>
 800f5bc:	4620      	mov	r0, r4
 800f5be:	bd10      	pop	{r4, pc}
 800f5c0:	08015cf8 	.word	0x08015cf8

0800f5c4 <_ZN12_GLOBAL__N_124font_OSD_Charset_36_typeD0Ev>:
 800f5c4:	4b03      	ldr	r3, [pc, #12]	; (800f5d4 <_ZN12_GLOBAL__N_124font_OSD_Charset_36_typeD0Ev+0x10>)
 800f5c6:	b510      	push	{r4, lr}
 800f5c8:	4604      	mov	r4, r0
 800f5ca:	6003      	str	r3, [r0, #0]
 800f5cc:	f003 fba6 	bl	8012d1c <_ZdlPv>
 800f5d0:	4620      	mov	r0, r4
 800f5d2:	bd10      	pop	{r4, pc}
 800f5d4:	08015cf8 	.word	0x08015cf8

0800f5d8 <_ZN12_GLOBAL__N_124font_OSD_Charset_35_typeD0Ev>:
 800f5d8:	4b03      	ldr	r3, [pc, #12]	; (800f5e8 <_ZN12_GLOBAL__N_124font_OSD_Charset_35_typeD0Ev+0x10>)
 800f5da:	b510      	push	{r4, lr}
 800f5dc:	4604      	mov	r4, r0
 800f5de:	6003      	str	r3, [r0, #0]
 800f5e0:	f003 fb9c 	bl	8012d1c <_ZdlPv>
 800f5e4:	4620      	mov	r0, r4
 800f5e6:	bd10      	pop	{r4, pc}
 800f5e8:	08015cf8 	.word	0x08015cf8

0800f5ec <_ZN12_GLOBAL__N_124font_OSD_Charset_34_typeD0Ev>:
 800f5ec:	4b03      	ldr	r3, [pc, #12]	; (800f5fc <_ZN12_GLOBAL__N_124font_OSD_Charset_34_typeD0Ev+0x10>)
 800f5ee:	b510      	push	{r4, lr}
 800f5f0:	4604      	mov	r4, r0
 800f5f2:	6003      	str	r3, [r0, #0]
 800f5f4:	f003 fb92 	bl	8012d1c <_ZdlPv>
 800f5f8:	4620      	mov	r0, r4
 800f5fa:	bd10      	pop	{r4, pc}
 800f5fc:	08015cf8 	.word	0x08015cf8

0800f600 <_ZN12_GLOBAL__N_124font_OSD_Charset_33_typeD0Ev>:
 800f600:	4b03      	ldr	r3, [pc, #12]	; (800f610 <_ZN12_GLOBAL__N_124font_OSD_Charset_33_typeD0Ev+0x10>)
 800f602:	b510      	push	{r4, lr}
 800f604:	4604      	mov	r4, r0
 800f606:	6003      	str	r3, [r0, #0]
 800f608:	f003 fb88 	bl	8012d1c <_ZdlPv>
 800f60c:	4620      	mov	r0, r4
 800f60e:	bd10      	pop	{r4, pc}
 800f610:	08015cf8 	.word	0x08015cf8

0800f614 <_ZN12_GLOBAL__N_124font_OSD_Charset_32_typeD0Ev>:
 800f614:	4b03      	ldr	r3, [pc, #12]	; (800f624 <_ZN12_GLOBAL__N_124font_OSD_Charset_32_typeD0Ev+0x10>)
 800f616:	b510      	push	{r4, lr}
 800f618:	4604      	mov	r4, r0
 800f61a:	6003      	str	r3, [r0, #0]
 800f61c:	f003 fb7e 	bl	8012d1c <_ZdlPv>
 800f620:	4620      	mov	r0, r4
 800f622:	bd10      	pop	{r4, pc}
 800f624:	08015cf8 	.word	0x08015cf8

0800f628 <_ZN12_GLOBAL__N_124font_OSD_Charset_31_typeD0Ev>:
 800f628:	4b03      	ldr	r3, [pc, #12]	; (800f638 <_ZN12_GLOBAL__N_124font_OSD_Charset_31_typeD0Ev+0x10>)
 800f62a:	b510      	push	{r4, lr}
 800f62c:	4604      	mov	r4, r0
 800f62e:	6003      	str	r3, [r0, #0]
 800f630:	f003 fb74 	bl	8012d1c <_ZdlPv>
 800f634:	4620      	mov	r0, r4
 800f636:	bd10      	pop	{r4, pc}
 800f638:	08015cf8 	.word	0x08015cf8

0800f63c <_ZN12_GLOBAL__N_124font_OSD_Charset_30_typeD0Ev>:
 800f63c:	4b03      	ldr	r3, [pc, #12]	; (800f64c <_ZN12_GLOBAL__N_124font_OSD_Charset_30_typeD0Ev+0x10>)
 800f63e:	b510      	push	{r4, lr}
 800f640:	4604      	mov	r4, r0
 800f642:	6003      	str	r3, [r0, #0]
 800f644:	f003 fb6a 	bl	8012d1c <_ZdlPv>
 800f648:	4620      	mov	r0, r4
 800f64a:	bd10      	pop	{r4, pc}
 800f64c:	08015cf8 	.word	0x08015cf8

0800f650 <_ZN12_GLOBAL__N_124font_OSD_Charset_29_typeD0Ev>:
 800f650:	4b03      	ldr	r3, [pc, #12]	; (800f660 <_ZN12_GLOBAL__N_124font_OSD_Charset_29_typeD0Ev+0x10>)
 800f652:	b510      	push	{r4, lr}
 800f654:	4604      	mov	r4, r0
 800f656:	6003      	str	r3, [r0, #0]
 800f658:	f003 fb60 	bl	8012d1c <_ZdlPv>
 800f65c:	4620      	mov	r0, r4
 800f65e:	bd10      	pop	{r4, pc}
 800f660:	08015cf8 	.word	0x08015cf8

0800f664 <_ZN12_GLOBAL__N_124font_OSD_Charset_28_typeD0Ev>:
 800f664:	4b03      	ldr	r3, [pc, #12]	; (800f674 <_ZN12_GLOBAL__N_124font_OSD_Charset_28_typeD0Ev+0x10>)
 800f666:	b510      	push	{r4, lr}
 800f668:	4604      	mov	r4, r0
 800f66a:	6003      	str	r3, [r0, #0]
 800f66c:	f003 fb56 	bl	8012d1c <_ZdlPv>
 800f670:	4620      	mov	r0, r4
 800f672:	bd10      	pop	{r4, pc}
 800f674:	08015cf8 	.word	0x08015cf8

0800f678 <_ZN12_GLOBAL__N_124font_OSD_Charset_27_typeD0Ev>:
 800f678:	4b03      	ldr	r3, [pc, #12]	; (800f688 <_ZN12_GLOBAL__N_124font_OSD_Charset_27_typeD0Ev+0x10>)
 800f67a:	b510      	push	{r4, lr}
 800f67c:	4604      	mov	r4, r0
 800f67e:	6003      	str	r3, [r0, #0]
 800f680:	f003 fb4c 	bl	8012d1c <_ZdlPv>
 800f684:	4620      	mov	r0, r4
 800f686:	bd10      	pop	{r4, pc}
 800f688:	08015cf8 	.word	0x08015cf8

0800f68c <_ZN12_GLOBAL__N_124font_OSD_Charset_26_typeD0Ev>:
 800f68c:	4b03      	ldr	r3, [pc, #12]	; (800f69c <_ZN12_GLOBAL__N_124font_OSD_Charset_26_typeD0Ev+0x10>)
 800f68e:	b510      	push	{r4, lr}
 800f690:	4604      	mov	r4, r0
 800f692:	6003      	str	r3, [r0, #0]
 800f694:	f003 fb42 	bl	8012d1c <_ZdlPv>
 800f698:	4620      	mov	r0, r4
 800f69a:	bd10      	pop	{r4, pc}
 800f69c:	08015cf8 	.word	0x08015cf8

0800f6a0 <_ZN12_GLOBAL__N_124font_OSD_Charset_25_typeD0Ev>:
 800f6a0:	4b03      	ldr	r3, [pc, #12]	; (800f6b0 <_ZN12_GLOBAL__N_124font_OSD_Charset_25_typeD0Ev+0x10>)
 800f6a2:	b510      	push	{r4, lr}
 800f6a4:	4604      	mov	r4, r0
 800f6a6:	6003      	str	r3, [r0, #0]
 800f6a8:	f003 fb38 	bl	8012d1c <_ZdlPv>
 800f6ac:	4620      	mov	r0, r4
 800f6ae:	bd10      	pop	{r4, pc}
 800f6b0:	08015cf8 	.word	0x08015cf8

0800f6b4 <_ZN12_GLOBAL__N_124font_OSD_Charset_24_typeD0Ev>:
 800f6b4:	4b03      	ldr	r3, [pc, #12]	; (800f6c4 <_ZN12_GLOBAL__N_124font_OSD_Charset_24_typeD0Ev+0x10>)
 800f6b6:	b510      	push	{r4, lr}
 800f6b8:	4604      	mov	r4, r0
 800f6ba:	6003      	str	r3, [r0, #0]
 800f6bc:	f003 fb2e 	bl	8012d1c <_ZdlPv>
 800f6c0:	4620      	mov	r0, r4
 800f6c2:	bd10      	pop	{r4, pc}
 800f6c4:	08015cf8 	.word	0x08015cf8

0800f6c8 <_ZN12_GLOBAL__N_124font_OSD_Charset_23_typeD0Ev>:
 800f6c8:	4b03      	ldr	r3, [pc, #12]	; (800f6d8 <_ZN12_GLOBAL__N_124font_OSD_Charset_23_typeD0Ev+0x10>)
 800f6ca:	b510      	push	{r4, lr}
 800f6cc:	4604      	mov	r4, r0
 800f6ce:	6003      	str	r3, [r0, #0]
 800f6d0:	f003 fb24 	bl	8012d1c <_ZdlPv>
 800f6d4:	4620      	mov	r0, r4
 800f6d6:	bd10      	pop	{r4, pc}
 800f6d8:	08015cf8 	.word	0x08015cf8

0800f6dc <_ZN12_GLOBAL__N_124font_OSD_Charset_22_typeD0Ev>:
 800f6dc:	4b03      	ldr	r3, [pc, #12]	; (800f6ec <_ZN12_GLOBAL__N_124font_OSD_Charset_22_typeD0Ev+0x10>)
 800f6de:	b510      	push	{r4, lr}
 800f6e0:	4604      	mov	r4, r0
 800f6e2:	6003      	str	r3, [r0, #0]
 800f6e4:	f003 fb1a 	bl	8012d1c <_ZdlPv>
 800f6e8:	4620      	mov	r0, r4
 800f6ea:	bd10      	pop	{r4, pc}
 800f6ec:	08015cf8 	.word	0x08015cf8

0800f6f0 <_ZN12_GLOBAL__N_124font_OSD_Charset_21_typeD0Ev>:
 800f6f0:	4b03      	ldr	r3, [pc, #12]	; (800f700 <_ZN12_GLOBAL__N_124font_OSD_Charset_21_typeD0Ev+0x10>)
 800f6f2:	b510      	push	{r4, lr}
 800f6f4:	4604      	mov	r4, r0
 800f6f6:	6003      	str	r3, [r0, #0]
 800f6f8:	f003 fb10 	bl	8012d1c <_ZdlPv>
 800f6fc:	4620      	mov	r0, r4
 800f6fe:	bd10      	pop	{r4, pc}
 800f700:	08015cf8 	.word	0x08015cf8

0800f704 <_ZN12_GLOBAL__N_124font_OSD_Charset_20_typeD0Ev>:
 800f704:	4b03      	ldr	r3, [pc, #12]	; (800f714 <_ZN12_GLOBAL__N_124font_OSD_Charset_20_typeD0Ev+0x10>)
 800f706:	b510      	push	{r4, lr}
 800f708:	4604      	mov	r4, r0
 800f70a:	6003      	str	r3, [r0, #0]
 800f70c:	f003 fb06 	bl	8012d1c <_ZdlPv>
 800f710:	4620      	mov	r0, r4
 800f712:	bd10      	pop	{r4, pc}
 800f714:	08015cf8 	.word	0x08015cf8

0800f718 <_ZN12_GLOBAL__N_124font_OSD_Charset_19_typeD0Ev>:
 800f718:	4b03      	ldr	r3, [pc, #12]	; (800f728 <_ZN12_GLOBAL__N_124font_OSD_Charset_19_typeD0Ev+0x10>)
 800f71a:	b510      	push	{r4, lr}
 800f71c:	4604      	mov	r4, r0
 800f71e:	6003      	str	r3, [r0, #0]
 800f720:	f003 fafc 	bl	8012d1c <_ZdlPv>
 800f724:	4620      	mov	r0, r4
 800f726:	bd10      	pop	{r4, pc}
 800f728:	08015cf8 	.word	0x08015cf8

0800f72c <_ZN12_GLOBAL__N_124font_OSD_Charset_18_typeD0Ev>:
 800f72c:	4b03      	ldr	r3, [pc, #12]	; (800f73c <_ZN12_GLOBAL__N_124font_OSD_Charset_18_typeD0Ev+0x10>)
 800f72e:	b510      	push	{r4, lr}
 800f730:	4604      	mov	r4, r0
 800f732:	6003      	str	r3, [r0, #0]
 800f734:	f003 faf2 	bl	8012d1c <_ZdlPv>
 800f738:	4620      	mov	r0, r4
 800f73a:	bd10      	pop	{r4, pc}
 800f73c:	08015cf8 	.word	0x08015cf8

0800f740 <_ZN12_GLOBAL__N_124font_OSD_Charset_17_typeD0Ev>:
 800f740:	4b03      	ldr	r3, [pc, #12]	; (800f750 <_ZN12_GLOBAL__N_124font_OSD_Charset_17_typeD0Ev+0x10>)
 800f742:	b510      	push	{r4, lr}
 800f744:	4604      	mov	r4, r0
 800f746:	6003      	str	r3, [r0, #0]
 800f748:	f003 fae8 	bl	8012d1c <_ZdlPv>
 800f74c:	4620      	mov	r0, r4
 800f74e:	bd10      	pop	{r4, pc}
 800f750:	08015cf8 	.word	0x08015cf8

0800f754 <_ZN12_GLOBAL__N_124font_OSD_Charset_16_typeD0Ev>:
 800f754:	4b03      	ldr	r3, [pc, #12]	; (800f764 <_ZN12_GLOBAL__N_124font_OSD_Charset_16_typeD0Ev+0x10>)
 800f756:	b510      	push	{r4, lr}
 800f758:	4604      	mov	r4, r0
 800f75a:	6003      	str	r3, [r0, #0]
 800f75c:	f003 fade 	bl	8012d1c <_ZdlPv>
 800f760:	4620      	mov	r0, r4
 800f762:	bd10      	pop	{r4, pc}
 800f764:	08015cf8 	.word	0x08015cf8

0800f768 <_ZN12_GLOBAL__N_124font_OSD_Charset_15_typeD0Ev>:
 800f768:	4b03      	ldr	r3, [pc, #12]	; (800f778 <_ZN12_GLOBAL__N_124font_OSD_Charset_15_typeD0Ev+0x10>)
 800f76a:	b510      	push	{r4, lr}
 800f76c:	4604      	mov	r4, r0
 800f76e:	6003      	str	r3, [r0, #0]
 800f770:	f003 fad4 	bl	8012d1c <_ZdlPv>
 800f774:	4620      	mov	r0, r4
 800f776:	bd10      	pop	{r4, pc}
 800f778:	08015cf8 	.word	0x08015cf8

0800f77c <_ZN12_GLOBAL__N_124font_OSD_Charset_14_typeD0Ev>:
 800f77c:	4b03      	ldr	r3, [pc, #12]	; (800f78c <_ZN12_GLOBAL__N_124font_OSD_Charset_14_typeD0Ev+0x10>)
 800f77e:	b510      	push	{r4, lr}
 800f780:	4604      	mov	r4, r0
 800f782:	6003      	str	r3, [r0, #0]
 800f784:	f003 faca 	bl	8012d1c <_ZdlPv>
 800f788:	4620      	mov	r0, r4
 800f78a:	bd10      	pop	{r4, pc}
 800f78c:	08015cf8 	.word	0x08015cf8

0800f790 <_ZN12_GLOBAL__N_124font_OSD_Charset_13_typeD0Ev>:
 800f790:	4b03      	ldr	r3, [pc, #12]	; (800f7a0 <_ZN12_GLOBAL__N_124font_OSD_Charset_13_typeD0Ev+0x10>)
 800f792:	b510      	push	{r4, lr}
 800f794:	4604      	mov	r4, r0
 800f796:	6003      	str	r3, [r0, #0]
 800f798:	f003 fac0 	bl	8012d1c <_ZdlPv>
 800f79c:	4620      	mov	r0, r4
 800f79e:	bd10      	pop	{r4, pc}
 800f7a0:	08015cf8 	.word	0x08015cf8

0800f7a4 <_ZN12_GLOBAL__N_124font_OSD_Charset_12_typeD0Ev>:
 800f7a4:	4b03      	ldr	r3, [pc, #12]	; (800f7b4 <_ZN12_GLOBAL__N_124font_OSD_Charset_12_typeD0Ev+0x10>)
 800f7a6:	b510      	push	{r4, lr}
 800f7a8:	4604      	mov	r4, r0
 800f7aa:	6003      	str	r3, [r0, #0]
 800f7ac:	f003 fab6 	bl	8012d1c <_ZdlPv>
 800f7b0:	4620      	mov	r0, r4
 800f7b2:	bd10      	pop	{r4, pc}
 800f7b4:	08015cf8 	.word	0x08015cf8

0800f7b8 <_ZN12_GLOBAL__N_124font_OSD_Charset_11_typeD0Ev>:
 800f7b8:	4b03      	ldr	r3, [pc, #12]	; (800f7c8 <_ZN12_GLOBAL__N_124font_OSD_Charset_11_typeD0Ev+0x10>)
 800f7ba:	b510      	push	{r4, lr}
 800f7bc:	4604      	mov	r4, r0
 800f7be:	6003      	str	r3, [r0, #0]
 800f7c0:	f003 faac 	bl	8012d1c <_ZdlPv>
 800f7c4:	4620      	mov	r0, r4
 800f7c6:	bd10      	pop	{r4, pc}
 800f7c8:	08015cf8 	.word	0x08015cf8

0800f7cc <_ZN12_GLOBAL__N_124font_OSD_Charset_10_typeD0Ev>:
 800f7cc:	4b03      	ldr	r3, [pc, #12]	; (800f7dc <_ZN12_GLOBAL__N_124font_OSD_Charset_10_typeD0Ev+0x10>)
 800f7ce:	b510      	push	{r4, lr}
 800f7d0:	4604      	mov	r4, r0
 800f7d2:	6003      	str	r3, [r0, #0]
 800f7d4:	f003 faa2 	bl	8012d1c <_ZdlPv>
 800f7d8:	4620      	mov	r0, r4
 800f7da:	bd10      	pop	{r4, pc}
 800f7dc:	08015cf8 	.word	0x08015cf8

0800f7e0 <_ZN12_GLOBAL__N_123font_OSD_Charset_9_typeD0Ev>:
 800f7e0:	4b03      	ldr	r3, [pc, #12]	; (800f7f0 <_ZN12_GLOBAL__N_123font_OSD_Charset_9_typeD0Ev+0x10>)
 800f7e2:	b510      	push	{r4, lr}
 800f7e4:	4604      	mov	r4, r0
 800f7e6:	6003      	str	r3, [r0, #0]
 800f7e8:	f003 fa98 	bl	8012d1c <_ZdlPv>
 800f7ec:	4620      	mov	r0, r4
 800f7ee:	bd10      	pop	{r4, pc}
 800f7f0:	08015cf8 	.word	0x08015cf8

0800f7f4 <_ZN12_GLOBAL__N_123font_OSD_Charset_8_typeD0Ev>:
 800f7f4:	4b03      	ldr	r3, [pc, #12]	; (800f804 <_ZN12_GLOBAL__N_123font_OSD_Charset_8_typeD0Ev+0x10>)
 800f7f6:	b510      	push	{r4, lr}
 800f7f8:	4604      	mov	r4, r0
 800f7fa:	6003      	str	r3, [r0, #0]
 800f7fc:	f003 fa8e 	bl	8012d1c <_ZdlPv>
 800f800:	4620      	mov	r0, r4
 800f802:	bd10      	pop	{r4, pc}
 800f804:	08015cf8 	.word	0x08015cf8

0800f808 <_ZN12_GLOBAL__N_123font_OSD_Charset_7_typeD0Ev>:
 800f808:	4b03      	ldr	r3, [pc, #12]	; (800f818 <_ZN12_GLOBAL__N_123font_OSD_Charset_7_typeD0Ev+0x10>)
 800f80a:	b510      	push	{r4, lr}
 800f80c:	4604      	mov	r4, r0
 800f80e:	6003      	str	r3, [r0, #0]
 800f810:	f003 fa84 	bl	8012d1c <_ZdlPv>
 800f814:	4620      	mov	r0, r4
 800f816:	bd10      	pop	{r4, pc}
 800f818:	08015cf8 	.word	0x08015cf8

0800f81c <_ZN12_GLOBAL__N_123font_OSD_Charset_6_typeD0Ev>:
 800f81c:	4b03      	ldr	r3, [pc, #12]	; (800f82c <_ZN12_GLOBAL__N_123font_OSD_Charset_6_typeD0Ev+0x10>)
 800f81e:	b510      	push	{r4, lr}
 800f820:	4604      	mov	r4, r0
 800f822:	6003      	str	r3, [r0, #0]
 800f824:	f003 fa7a 	bl	8012d1c <_ZdlPv>
 800f828:	4620      	mov	r0, r4
 800f82a:	bd10      	pop	{r4, pc}
 800f82c:	08015cf8 	.word	0x08015cf8

0800f830 <_ZN12_GLOBAL__N_123font_OSD_Charset_5_typeD0Ev>:
 800f830:	4b03      	ldr	r3, [pc, #12]	; (800f840 <_ZN12_GLOBAL__N_123font_OSD_Charset_5_typeD0Ev+0x10>)
 800f832:	b510      	push	{r4, lr}
 800f834:	4604      	mov	r4, r0
 800f836:	6003      	str	r3, [r0, #0]
 800f838:	f003 fa70 	bl	8012d1c <_ZdlPv>
 800f83c:	4620      	mov	r0, r4
 800f83e:	bd10      	pop	{r4, pc}
 800f840:	08015cf8 	.word	0x08015cf8

0800f844 <_ZN12_GLOBAL__N_123font_OSD_Charset_4_typeD0Ev>:
 800f844:	4b03      	ldr	r3, [pc, #12]	; (800f854 <_ZN12_GLOBAL__N_123font_OSD_Charset_4_typeD0Ev+0x10>)
 800f846:	b510      	push	{r4, lr}
 800f848:	4604      	mov	r4, r0
 800f84a:	6003      	str	r3, [r0, #0]
 800f84c:	f003 fa66 	bl	8012d1c <_ZdlPv>
 800f850:	4620      	mov	r0, r4
 800f852:	bd10      	pop	{r4, pc}
 800f854:	08015cf8 	.word	0x08015cf8

0800f858 <_ZN12_GLOBAL__N_123font_OSD_Charset_3_typeD0Ev>:
 800f858:	4b03      	ldr	r3, [pc, #12]	; (800f868 <_ZN12_GLOBAL__N_123font_OSD_Charset_3_typeD0Ev+0x10>)
 800f85a:	b510      	push	{r4, lr}
 800f85c:	4604      	mov	r4, r0
 800f85e:	6003      	str	r3, [r0, #0]
 800f860:	f003 fa5c 	bl	8012d1c <_ZdlPv>
 800f864:	4620      	mov	r0, r4
 800f866:	bd10      	pop	{r4, pc}
 800f868:	08015cf8 	.word	0x08015cf8

0800f86c <_ZN12_GLOBAL__N_123font_OSD_Charset_2_typeD0Ev>:
 800f86c:	4b03      	ldr	r3, [pc, #12]	; (800f87c <_ZN12_GLOBAL__N_123font_OSD_Charset_2_typeD0Ev+0x10>)
 800f86e:	b510      	push	{r4, lr}
 800f870:	4604      	mov	r4, r0
 800f872:	6003      	str	r3, [r0, #0]
 800f874:	f003 fa52 	bl	8012d1c <_ZdlPv>
 800f878:	4620      	mov	r0, r4
 800f87a:	bd10      	pop	{r4, pc}
 800f87c:	08015cf8 	.word	0x08015cf8

0800f880 <_ZN12_GLOBAL__N_123font_OSD_Charset_1_typeD0Ev>:
 800f880:	4b03      	ldr	r3, [pc, #12]	; (800f890 <_ZN12_GLOBAL__N_123font_OSD_Charset_1_typeD0Ev+0x10>)
 800f882:	b510      	push	{r4, lr}
 800f884:	4604      	mov	r4, r0
 800f886:	6003      	str	r3, [r0, #0]
 800f888:	f003 fa48 	bl	8012d1c <_ZdlPv>
 800f88c:	4620      	mov	r0, r4
 800f88e:	bd10      	pop	{r4, pc}
 800f890:	08015cf8 	.word	0x08015cf8

0800f894 <_ZN12_GLOBAL__N_123font_OSD_Charset_0_typeD0Ev>:
 800f894:	4b03      	ldr	r3, [pc, #12]	; (800f8a4 <_ZN12_GLOBAL__N_123font_OSD_Charset_0_typeD0Ev+0x10>)
 800f896:	b510      	push	{r4, lr}
 800f898:	4604      	mov	r4, r0
 800f89a:	6003      	str	r3, [r0, #0]
 800f89c:	f003 fa3e 	bl	8012d1c <_ZdlPv>
 800f8a0:	4620      	mov	r0, r4
 800f8a2:	bd10      	pop	{r4, pc}
 800f8a4:	08015cf8 	.word	0x08015cf8

0800f8a8 <_ZN4quan3uav3osd10basic_fontD0Ev>:
 800f8a8:	4b03      	ldr	r3, [pc, #12]	; (800f8b8 <_ZN4quan3uav3osd10basic_fontD0Ev+0x10>)
 800f8aa:	b510      	push	{r4, lr}
 800f8ac:	4604      	mov	r4, r0
 800f8ae:	6003      	str	r3, [r0, #0]
 800f8b0:	f003 fa34 	bl	8012d1c <_ZdlPv>
 800f8b4:	4620      	mov	r0, r4
 800f8b6:	bd10      	pop	{r4, pc}
 800f8b8:	08015d10 	.word	0x08015d10

0800f8bc <_ZN4quan3uav3osd12basic_bitmapD0Ev>:
 800f8bc:	4b03      	ldr	r3, [pc, #12]	; (800f8cc <_ZN4quan3uav3osd12basic_bitmapD0Ev+0x10>)
 800f8be:	b510      	push	{r4, lr}
 800f8c0:	4604      	mov	r4, r0
 800f8c2:	6003      	str	r3, [r0, #0]
 800f8c4:	f003 fa2a 	bl	8012d1c <_ZdlPv>
 800f8c8:	4620      	mov	r0, r4
 800f8ca:	bd10      	pop	{r4, pc}
 800f8cc:	08015cf8 	.word	0x08015cf8

0800f8d0 <_ZN4quan3uav3osd8get_fontEm>:
 800f8d0:	f640 13f8 	movw	r3, #2552	; 0x9f8
 800f8d4:	f2c1 0300 	movt	r3, #4096	; 0x1000
 800f8d8:	2800      	cmp	r0, #0
 800f8da:	bf0c      	ite	eq
 800f8dc:	4618      	moveq	r0, r3
 800f8de:	2000      	movne	r0, #0
 800f8e0:	4770      	bx	lr
 800f8e2:	bf00      	nop

0800f8e4 <_GLOBAL__sub_I__ZN4quan3uav3osd8get_fontEm>:
 800f8e4:	b538      	push	{r3, r4, r5, lr}
 800f8e6:	f640 130c 	movw	r3, #2316	; 0x90c
 800f8ea:	f640 54a4 	movw	r4, #3492	; 0xda4
 800f8ee:	f2c1 0400 	movt	r4, #4096	; 0x1000
 800f8f2:	f2c1 0300 	movt	r3, #4096	; 0x1000
 800f8f6:	4dc6      	ldr	r5, [pc, #792]	; (800fc10 <_GLOBAL__sub_I__ZN4quan3uav3osd8get_fontEm+0x32c>)
 800f8f8:	f24e 4189 	movw	r1, #58505	; 0xe489
 800f8fc:	4622      	mov	r2, r4
 800f8fe:	f6c0 0100 	movt	r1, #2048	; 0x800
 800f902:	4618      	mov	r0, r3
 800f904:	601d      	str	r5, [r3, #0]
 800f906:	f005 fbb9 	bl	801507c <__aeabi_atexit>
 800f90a:	f640 1338 	movw	r3, #2360	; 0x938
 800f90e:	f2c1 0300 	movt	r3, #4096	; 0x1000
 800f912:	4dc0      	ldr	r5, [pc, #768]	; (800fc14 <_GLOBAL__sub_I__ZN4quan3uav3osd8get_fontEm+0x330>)
 800f914:	f24e 417d 	movw	r1, #58493	; 0xe47d
 800f918:	4622      	mov	r2, r4
 800f91a:	f6c0 0100 	movt	r1, #2048	; 0x800
 800f91e:	4618      	mov	r0, r3
 800f920:	601d      	str	r5, [r3, #0]
 800f922:	f005 fbab 	bl	801507c <__aeabi_atexit>
 800f926:	f640 135c 	movw	r3, #2396	; 0x95c
 800f92a:	f2c1 0300 	movt	r3, #4096	; 0x1000
 800f92e:	4dba      	ldr	r5, [pc, #744]	; (800fc18 <_GLOBAL__sub_I__ZN4quan3uav3osd8get_fontEm+0x334>)
 800f930:	f24e 4171 	movw	r1, #58481	; 0xe471
 800f934:	4622      	mov	r2, r4
 800f936:	f6c0 0100 	movt	r1, #2048	; 0x800
 800f93a:	4618      	mov	r0, r3
 800f93c:	601d      	str	r5, [r3, #0]
 800f93e:	f005 fb9d 	bl	801507c <__aeabi_atexit>
 800f942:	f640 137c 	movw	r3, #2428	; 0x97c
 800f946:	f2c1 0300 	movt	r3, #4096	; 0x1000
 800f94a:	4db4      	ldr	r5, [pc, #720]	; (800fc1c <_GLOBAL__sub_I__ZN4quan3uav3osd8get_fontEm+0x338>)
 800f94c:	f24e 4165 	movw	r1, #58469	; 0xe465
 800f950:	4622      	mov	r2, r4
 800f952:	f6c0 0100 	movt	r1, #2048	; 0x800
 800f956:	4618      	mov	r0, r3
 800f958:	601d      	str	r5, [r3, #0]
 800f95a:	f005 fb8f 	bl	801507c <__aeabi_atexit>
 800f95e:	f640 13ac 	movw	r3, #2476	; 0x9ac
 800f962:	f2c1 0300 	movt	r3, #4096	; 0x1000
 800f966:	4dae      	ldr	r5, [pc, #696]	; (800fc20 <_GLOBAL__sub_I__ZN4quan3uav3osd8get_fontEm+0x33c>)
 800f968:	f24e 4159 	movw	r1, #58457	; 0xe459
 800f96c:	4622      	mov	r2, r4
 800f96e:	f6c0 0100 	movt	r1, #2048	; 0x800
 800f972:	4618      	mov	r0, r3
 800f974:	601d      	str	r5, [r3, #0]
 800f976:	f005 fb81 	bl	801507c <__aeabi_atexit>
 800f97a:	f640 13cc 	movw	r3, #2508	; 0x9cc
 800f97e:	f2c1 0300 	movt	r3, #4096	; 0x1000
 800f982:	4da8      	ldr	r5, [pc, #672]	; (800fc24 <_GLOBAL__sub_I__ZN4quan3uav3osd8get_fontEm+0x340>)
 800f984:	f24e 414d 	movw	r1, #58445	; 0xe44d
 800f988:	4622      	mov	r2, r4
 800f98a:	f6c0 0100 	movt	r1, #2048	; 0x800
 800f98e:	4618      	mov	r0, r3
 800f990:	601d      	str	r5, [r3, #0]
 800f992:	f005 fb73 	bl	801507c <__aeabi_atexit>
 800f996:	f640 13ec 	movw	r3, #2540	; 0x9ec
 800f99a:	f2c1 0300 	movt	r3, #4096	; 0x1000
 800f99e:	4da2      	ldr	r5, [pc, #648]	; (800fc28 <_GLOBAL__sub_I__ZN4quan3uav3osd8get_fontEm+0x344>)
 800f9a0:	f24e 4141 	movw	r1, #58433	; 0xe441
 800f9a4:	4622      	mov	r2, r4
 800f9a6:	f6c0 0100 	movt	r1, #2048	; 0x800
 800f9aa:	4618      	mov	r0, r3
 800f9ac:	601d      	str	r5, [r3, #0]
 800f9ae:	f005 fb65 	bl	801507c <__aeabi_atexit>
 800f9b2:	f640 1330 	movw	r3, #2352	; 0x930
 800f9b6:	f2c1 0300 	movt	r3, #4096	; 0x1000
 800f9ba:	4d9c      	ldr	r5, [pc, #624]	; (800fc2c <_GLOBAL__sub_I__ZN4quan3uav3osd8get_fontEm+0x348>)
 800f9bc:	f24e 4135 	movw	r1, #58421	; 0xe435
 800f9c0:	4622      	mov	r2, r4
 800f9c2:	f6c0 0100 	movt	r1, #2048	; 0x800
 800f9c6:	4618      	mov	r0, r3
 800f9c8:	601d      	str	r5, [r3, #0]
 800f9ca:	f005 fb57 	bl	801507c <__aeabi_atexit>
 800f9ce:	f640 1374 	movw	r3, #2420	; 0x974
 800f9d2:	f2c1 0300 	movt	r3, #4096	; 0x1000
 800f9d6:	4d96      	ldr	r5, [pc, #600]	; (800fc30 <_GLOBAL__sub_I__ZN4quan3uav3osd8get_fontEm+0x34c>)
 800f9d8:	f24e 4129 	movw	r1, #58409	; 0xe429
 800f9dc:	4622      	mov	r2, r4
 800f9de:	f6c0 0100 	movt	r1, #2048	; 0x800
 800f9e2:	4618      	mov	r0, r3
 800f9e4:	601d      	str	r5, [r3, #0]
 800f9e6:	f005 fb49 	bl	801507c <__aeabi_atexit>
 800f9ea:	f640 2360 	movw	r3, #2656	; 0xa60
 800f9ee:	f2c1 0300 	movt	r3, #4096	; 0x1000
 800f9f2:	4d90      	ldr	r5, [pc, #576]	; (800fc34 <_GLOBAL__sub_I__ZN4quan3uav3osd8get_fontEm+0x350>)
 800f9f4:	f24e 411d 	movw	r1, #58397	; 0xe41d
 800f9f8:	4622      	mov	r2, r4
 800f9fa:	f6c0 0100 	movt	r1, #2048	; 0x800
 800f9fe:	4618      	mov	r0, r3
 800fa00:	601d      	str	r5, [r3, #0]
 800fa02:	f005 fb3b 	bl	801507c <__aeabi_atexit>
 800fa06:	f640 2318 	movw	r3, #2584	; 0xa18
 800fa0a:	f2c1 0300 	movt	r3, #4096	; 0x1000
 800fa0e:	4d8a      	ldr	r5, [pc, #552]	; (800fc38 <_GLOBAL__sub_I__ZN4quan3uav3osd8get_fontEm+0x354>)
 800fa10:	f24e 4111 	movw	r1, #58385	; 0xe411
 800fa14:	4622      	mov	r2, r4
 800fa16:	f6c0 0100 	movt	r1, #2048	; 0x800
 800fa1a:	4618      	mov	r0, r3
 800fa1c:	601d      	str	r5, [r3, #0]
 800fa1e:	f005 fb2d 	bl	801507c <__aeabi_atexit>
 800fa22:	f640 233c 	movw	r3, #2620	; 0xa3c
 800fa26:	f2c1 0300 	movt	r3, #4096	; 0x1000
 800fa2a:	4d84      	ldr	r5, [pc, #528]	; (800fc3c <_GLOBAL__sub_I__ZN4quan3uav3osd8get_fontEm+0x358>)
 800fa2c:	f24e 4105 	movw	r1, #58373	; 0xe405
 800fa30:	4622      	mov	r2, r4
 800fa32:	f6c0 0100 	movt	r1, #2048	; 0x800
 800fa36:	4618      	mov	r0, r3
 800fa38:	601d      	str	r5, [r3, #0]
 800fa3a:	f005 fb1f 	bl	801507c <__aeabi_atexit>
 800fa3e:	f640 235c 	movw	r3, #2652	; 0xa5c
 800fa42:	f2c1 0300 	movt	r3, #4096	; 0x1000
 800fa46:	4d7e      	ldr	r5, [pc, #504]	; (800fc40 <_GLOBAL__sub_I__ZN4quan3uav3osd8get_fontEm+0x35c>)
 800fa48:	f24e 31f9 	movw	r1, #58361	; 0xe3f9
 800fa4c:	4622      	mov	r2, r4
 800fa4e:	f6c0 0100 	movt	r1, #2048	; 0x800
 800fa52:	4618      	mov	r0, r3
 800fa54:	601d      	str	r5, [r3, #0]
 800fa56:	f005 fb11 	bl	801507c <__aeabi_atexit>
 800fa5a:	f640 2388 	movw	r3, #2696	; 0xa88
 800fa5e:	f2c1 0300 	movt	r3, #4096	; 0x1000
 800fa62:	4d78      	ldr	r5, [pc, #480]	; (800fc44 <_GLOBAL__sub_I__ZN4quan3uav3osd8get_fontEm+0x360>)
 800fa64:	f24e 31ed 	movw	r1, #58349	; 0xe3ed
 800fa68:	4622      	mov	r2, r4
 800fa6a:	f6c0 0100 	movt	r1, #2048	; 0x800
 800fa6e:	4618      	mov	r0, r3
 800fa70:	601d      	str	r5, [r3, #0]
 800fa72:	f005 fb03 	bl	801507c <__aeabi_atexit>
 800fa76:	f640 23a8 	movw	r3, #2728	; 0xaa8
 800fa7a:	f2c1 0300 	movt	r3, #4096	; 0x1000
 800fa7e:	4d72      	ldr	r5, [pc, #456]	; (800fc48 <_GLOBAL__sub_I__ZN4quan3uav3osd8get_fontEm+0x364>)
 800fa80:	f24e 31e1 	movw	r1, #58337	; 0xe3e1
 800fa84:	4622      	mov	r2, r4
 800fa86:	f6c0 0100 	movt	r1, #2048	; 0x800
 800fa8a:	4618      	mov	r0, r3
 800fa8c:	601d      	str	r5, [r3, #0]
 800fa8e:	f005 faf5 	bl	801507c <__aeabi_atexit>
 800fa92:	f640 23cc 	movw	r3, #2764	; 0xacc
 800fa96:	f2c1 0300 	movt	r3, #4096	; 0x1000
 800fa9a:	4d6c      	ldr	r5, [pc, #432]	; (800fc4c <_GLOBAL__sub_I__ZN4quan3uav3osd8get_fontEm+0x368>)
 800fa9c:	f24e 31d5 	movw	r1, #58325	; 0xe3d5
 800faa0:	4622      	mov	r2, r4
 800faa2:	f6c0 0100 	movt	r1, #2048	; 0x800
 800faa6:	4618      	mov	r0, r3
 800faa8:	601d      	str	r5, [r3, #0]
 800faaa:	f005 fae7 	bl	801507c <__aeabi_atexit>
 800faae:	f640 23e8 	movw	r3, #2792	; 0xae8
 800fab2:	f2c1 0300 	movt	r3, #4096	; 0x1000
 800fab6:	4d66      	ldr	r5, [pc, #408]	; (800fc50 <_GLOBAL__sub_I__ZN4quan3uav3osd8get_fontEm+0x36c>)
 800fab8:	f24e 31c9 	movw	r1, #58313	; 0xe3c9
 800fabc:	4622      	mov	r2, r4
 800fabe:	f6c0 0100 	movt	r1, #2048	; 0x800
 800fac2:	4618      	mov	r0, r3
 800fac4:	601d      	str	r5, [r3, #0]
 800fac6:	f005 fad9 	bl	801507c <__aeabi_atexit>
 800faca:	f640 2314 	movw	r3, #2580	; 0xa14
 800face:	f2c1 0300 	movt	r3, #4096	; 0x1000
 800fad2:	4d60      	ldr	r5, [pc, #384]	; (800fc54 <_GLOBAL__sub_I__ZN4quan3uav3osd8get_fontEm+0x370>)
 800fad4:	f24e 31bd 	movw	r1, #58301	; 0xe3bd
 800fad8:	4622      	mov	r2, r4
 800fada:	f6c0 0100 	movt	r1, #2048	; 0x800
 800fade:	4618      	mov	r0, r3
 800fae0:	601d      	str	r5, [r3, #0]
 800fae2:	f005 facb 	bl	801507c <__aeabi_atexit>
 800fae6:	f640 3310 	movw	r3, #2832	; 0xb10
 800faea:	f2c1 0300 	movt	r3, #4096	; 0x1000
 800faee:	4d5a      	ldr	r5, [pc, #360]	; (800fc58 <_GLOBAL__sub_I__ZN4quan3uav3osd8get_fontEm+0x374>)
 800faf0:	f24e 31b1 	movw	r1, #58289	; 0xe3b1
 800faf4:	4622      	mov	r2, r4
 800faf6:	f6c0 0100 	movt	r1, #2048	; 0x800
 800fafa:	4618      	mov	r0, r3
 800fafc:	601d      	str	r5, [r3, #0]
 800fafe:	f005 fabd 	bl	801507c <__aeabi_atexit>
 800fb02:	f640 3334 	movw	r3, #2868	; 0xb34
 800fb06:	f2c1 0300 	movt	r3, #4096	; 0x1000
 800fb0a:	4d54      	ldr	r5, [pc, #336]	; (800fc5c <_GLOBAL__sub_I__ZN4quan3uav3osd8get_fontEm+0x378>)
 800fb0c:	f24e 31a5 	movw	r1, #58277	; 0xe3a5
 800fb10:	4622      	mov	r2, r4
 800fb12:	f6c0 0100 	movt	r1, #2048	; 0x800
 800fb16:	4618      	mov	r0, r3
 800fb18:	601d      	str	r5, [r3, #0]
 800fb1a:	f005 faaf 	bl	801507c <__aeabi_atexit>
 800fb1e:	f640 13a0 	movw	r3, #2464	; 0x9a0
 800fb22:	f2c1 0300 	movt	r3, #4096	; 0x1000
 800fb26:	4d4e      	ldr	r5, [pc, #312]	; (800fc60 <_GLOBAL__sub_I__ZN4quan3uav3osd8get_fontEm+0x37c>)
 800fb28:	f24e 3199 	movw	r1, #58265	; 0xe399
 800fb2c:	4622      	mov	r2, r4
 800fb2e:	f6c0 0100 	movt	r1, #2048	; 0x800
 800fb32:	4618      	mov	r0, r3
 800fb34:	601d      	str	r5, [r3, #0]
 800fb36:	f005 faa1 	bl	801507c <__aeabi_atexit>
 800fb3a:	f640 2334 	movw	r3, #2612	; 0xa34
 800fb3e:	f2c1 0300 	movt	r3, #4096	; 0x1000
 800fb42:	4d48      	ldr	r5, [pc, #288]	; (800fc64 <_GLOBAL__sub_I__ZN4quan3uav3osd8get_fontEm+0x380>)
 800fb44:	f24e 318d 	movw	r1, #58253	; 0xe38d
 800fb48:	4622      	mov	r2, r4
 800fb4a:	f6c0 0100 	movt	r1, #2048	; 0x800
 800fb4e:	4618      	mov	r0, r3
 800fb50:	601d      	str	r5, [r3, #0]
 800fb52:	f005 fa93 	bl	801507c <__aeabi_atexit>
 800fb56:	f640 23c8 	movw	r3, #2760	; 0xac8
 800fb5a:	f2c1 0300 	movt	r3, #4096	; 0x1000
 800fb5e:	4d42      	ldr	r5, [pc, #264]	; (800fc68 <_GLOBAL__sub_I__ZN4quan3uav3osd8get_fontEm+0x384>)
 800fb60:	f24e 3181 	movw	r1, #58241	; 0xe381
 800fb64:	4622      	mov	r2, r4
 800fb66:	f6c0 0100 	movt	r1, #2048	; 0x800
 800fb6a:	4618      	mov	r0, r3
 800fb6c:	601d      	str	r5, [r3, #0]
 800fb6e:	f005 fa85 	bl	801507c <__aeabi_atexit>
 800fb72:	f640 0370 	movw	r3, #2160	; 0x870
 800fb76:	f2c1 0300 	movt	r3, #4096	; 0x1000
 800fb7a:	4d3c      	ldr	r5, [pc, #240]	; (800fc6c <_GLOBAL__sub_I__ZN4quan3uav3osd8get_fontEm+0x388>)
 800fb7c:	f24e 3175 	movw	r1, #58229	; 0xe375
 800fb80:	4622      	mov	r2, r4
 800fb82:	f6c0 0100 	movt	r1, #2048	; 0x800
 800fb86:	4618      	mov	r0, r3
 800fb88:	601d      	str	r5, [r3, #0]
 800fb8a:	f005 fa77 	bl	801507c <__aeabi_atexit>
 800fb8e:	f640 334c 	movw	r3, #2892	; 0xb4c
 800fb92:	f2c1 0300 	movt	r3, #4096	; 0x1000
 800fb96:	4d36      	ldr	r5, [pc, #216]	; (800fc70 <_GLOBAL__sub_I__ZN4quan3uav3osd8get_fontEm+0x38c>)
 800fb98:	f24e 3169 	movw	r1, #58217	; 0xe369
 800fb9c:	4622      	mov	r2, r4
 800fb9e:	f6c0 0100 	movt	r1, #2048	; 0x800
 800fba2:	4618      	mov	r0, r3
 800fba4:	601d      	str	r5, [r3, #0]
 800fba6:	f005 fa69 	bl	801507c <__aeabi_atexit>
 800fbaa:	f640 336c 	movw	r3, #2924	; 0xb6c
 800fbae:	f2c1 0300 	movt	r3, #4096	; 0x1000
 800fbb2:	4d30      	ldr	r5, [pc, #192]	; (800fc74 <_GLOBAL__sub_I__ZN4quan3uav3osd8get_fontEm+0x390>)
 800fbb4:	f24e 315d 	movw	r1, #58205	; 0xe35d
 800fbb8:	4622      	mov	r2, r4
 800fbba:	f6c0 0100 	movt	r1, #2048	; 0x800
 800fbbe:	4618      	mov	r0, r3
 800fbc0:	601d      	str	r5, [r3, #0]
 800fbc2:	f005 fa5b 	bl	801507c <__aeabi_atexit>
 800fbc6:	f640 3384 	movw	r3, #2948	; 0xb84
 800fbca:	f2c1 0300 	movt	r3, #4096	; 0x1000
 800fbce:	4d2a      	ldr	r5, [pc, #168]	; (800fc78 <_GLOBAL__sub_I__ZN4quan3uav3osd8get_fontEm+0x394>)
 800fbd0:	f24e 3151 	movw	r1, #58193	; 0xe351
 800fbd4:	4622      	mov	r2, r4
 800fbd6:	f6c0 0100 	movt	r1, #2048	; 0x800
 800fbda:	4618      	mov	r0, r3
 800fbdc:	601d      	str	r5, [r3, #0]
 800fbde:	f005 fa4d 	bl	801507c <__aeabi_atexit>
 800fbe2:	f640 33ac 	movw	r3, #2988	; 0xbac
 800fbe6:	f2c1 0300 	movt	r3, #4096	; 0x1000
 800fbea:	4d24      	ldr	r5, [pc, #144]	; (800fc7c <_GLOBAL__sub_I__ZN4quan3uav3osd8get_fontEm+0x398>)
 800fbec:	f24e 3145 	movw	r1, #58181	; 0xe345
 800fbf0:	4622      	mov	r2, r4
 800fbf2:	f6c0 0100 	movt	r1, #2048	; 0x800
 800fbf6:	4618      	mov	r0, r3
 800fbf8:	601d      	str	r5, [r3, #0]
 800fbfa:	f005 fa3f 	bl	801507c <__aeabi_atexit>
 800fbfe:	f640 13e8 	movw	r3, #2536	; 0x9e8
 800fc02:	f2c1 0300 	movt	r3, #4096	; 0x1000
 800fc06:	4d1e      	ldr	r5, [pc, #120]	; (800fc80 <_GLOBAL__sub_I__ZN4quan3uav3osd8get_fontEm+0x39c>)
 800fc08:	f24e 3139 	movw	r1, #58169	; 0xe339
 800fc0c:	e03a      	b.n	800fc84 <_GLOBAL__sub_I__ZN4quan3uav3osd8get_fontEm+0x3a0>
 800fc0e:	bf00      	nop
 800fc10:	0801ab00 	.word	0x0801ab00
 800fc14:	0801ae90 	.word	0x0801ae90
 800fc18:	08017798 	.word	0x08017798
 800fc1c:	08017c58 	.word	0x08017c58
 800fc20:	08018008 	.word	0x08018008
 800fc24:	08019a20 	.word	0x08019a20
 800fc28:	08018868 	.word	0x08018868
 800fc2c:	08016f30 	.word	0x08016f30
 800fc30:	08018fe8 	.word	0x08018fe8
 800fc34:	08019860 	.word	0x08019860
 800fc38:	080184e8 	.word	0x080184e8
 800fc3c:	08018850 	.word	0x08018850
 800fc40:	08018b78 	.word	0x08018b78
 800fc44:	08018f68 	.word	0x08018f68
 800fc48:	080197a8 	.word	0x080197a8
 800fc4c:	08016200 	.word	0x08016200
 800fc50:	0801ad50 	.word	0x0801ad50
 800fc54:	080169e0 	.word	0x080169e0
 800fc58:	08016d68 	.word	0x08016d68
 800fc5c:	080171c8 	.word	0x080171c8
 800fc60:	080166c8 	.word	0x080166c8
 800fc64:	08016ae0 	.word	0x08016ae0
 800fc68:	08016f18 	.word	0x08016f18
 800fc6c:	08018c68 	.word	0x08018c68
 800fc70:	08019038 	.word	0x08019038
 800fc74:	080198b0 	.word	0x080198b0
 800fc78:	08019cb8 	.word	0x08019cb8
 800fc7c:	0801a1c8 	.word	0x0801a1c8
 800fc80:	0801a4d0 	.word	0x0801a4d0
 800fc84:	4622      	mov	r2, r4
 800fc86:	f6c0 0100 	movt	r1, #2048	; 0x800
 800fc8a:	4618      	mov	r0, r3
 800fc8c:	601d      	str	r5, [r3, #0]
 800fc8e:	f005 f9f5 	bl	801507c <__aeabi_atexit>
 800fc92:	f640 33ec 	movw	r3, #3052	; 0xbec
 800fc96:	f2c1 0300 	movt	r3, #4096	; 0x1000
 800fc9a:	4dc6      	ldr	r5, [pc, #792]	; (800ffb4 <_GLOBAL__sub_I__ZN4quan3uav3osd8get_fontEm+0x6d0>)
 800fc9c:	f24e 312d 	movw	r1, #58157	; 0xe32d
 800fca0:	4622      	mov	r2, r4
 800fca2:	f6c0 0100 	movt	r1, #2048	; 0x800
 800fca6:	4618      	mov	r0, r3
 800fca8:	601d      	str	r5, [r3, #0]
 800fcaa:	f005 f9e7 	bl	801507c <__aeabi_atexit>
 800fcae:	f640 3388 	movw	r3, #2952	; 0xb88
 800fcb2:	f2c1 0300 	movt	r3, #4096	; 0x1000
 800fcb6:	4dc0      	ldr	r5, [pc, #768]	; (800ffb8 <_GLOBAL__sub_I__ZN4quan3uav3osd8get_fontEm+0x6d4>)
 800fcb8:	f24e 3121 	movw	r1, #58145	; 0xe321
 800fcbc:	4622      	mov	r2, r4
 800fcbe:	f6c0 0100 	movt	r1, #2048	; 0x800
 800fcc2:	4618      	mov	r0, r3
 800fcc4:	601d      	str	r5, [r3, #0]
 800fcc6:	f005 f9d9 	bl	801507c <__aeabi_atexit>
 800fcca:	f640 33b0 	movw	r3, #2992	; 0xbb0
 800fcce:	f2c1 0300 	movt	r3, #4096	; 0x1000
 800fcd2:	4dba      	ldr	r5, [pc, #744]	; (800ffbc <_GLOBAL__sub_I__ZN4quan3uav3osd8get_fontEm+0x6d8>)
 800fcd4:	f24e 3115 	movw	r1, #58133	; 0xe315
 800fcd8:	4622      	mov	r2, r4
 800fcda:	f6c0 0100 	movt	r1, #2048	; 0x800
 800fcde:	4618      	mov	r0, r3
 800fce0:	601d      	str	r5, [r3, #0]
 800fce2:	f005 f9cb 	bl	801507c <__aeabi_atexit>
 800fce6:	f640 33c8 	movw	r3, #3016	; 0xbc8
 800fcea:	f2c1 0300 	movt	r3, #4096	; 0x1000
 800fcee:	4db4      	ldr	r5, [pc, #720]	; (800ffc0 <_GLOBAL__sub_I__ZN4quan3uav3osd8get_fontEm+0x6dc>)
 800fcf0:	f24e 3109 	movw	r1, #58121	; 0xe309
 800fcf4:	4622      	mov	r2, r4
 800fcf6:	f6c0 0100 	movt	r1, #2048	; 0x800
 800fcfa:	4618      	mov	r0, r3
 800fcfc:	601d      	str	r5, [r3, #0]
 800fcfe:	f005 f9bd 	bl	801507c <__aeabi_atexit>
 800fd02:	f640 33f0 	movw	r3, #3056	; 0xbf0
 800fd06:	f2c1 0300 	movt	r3, #4096	; 0x1000
 800fd0a:	4dae      	ldr	r5, [pc, #696]	; (800ffc4 <_GLOBAL__sub_I__ZN4quan3uav3osd8get_fontEm+0x6e0>)
 800fd0c:	f24e 21fd 	movw	r1, #58109	; 0xe2fd
 800fd10:	4622      	mov	r2, r4
 800fd12:	f6c0 0100 	movt	r1, #2048	; 0x800
 800fd16:	4618      	mov	r0, r3
 800fd18:	601d      	str	r5, [r3, #0]
 800fd1a:	f005 f9af 	bl	801507c <__aeabi_atexit>
 800fd1e:	f640 4314 	movw	r3, #3092	; 0xc14
 800fd22:	f2c1 0300 	movt	r3, #4096	; 0x1000
 800fd26:	4da8      	ldr	r5, [pc, #672]	; (800ffc8 <_GLOBAL__sub_I__ZN4quan3uav3osd8get_fontEm+0x6e4>)
 800fd28:	f24e 21f1 	movw	r1, #58097	; 0xe2f1
 800fd2c:	4622      	mov	r2, r4
 800fd2e:	f6c0 0100 	movt	r1, #2048	; 0x800
 800fd32:	4618      	mov	r0, r3
 800fd34:	601d      	str	r5, [r3, #0]
 800fd36:	f005 f9a1 	bl	801507c <__aeabi_atexit>
 800fd3a:	f640 4334 	movw	r3, #3124	; 0xc34
 800fd3e:	f2c1 0300 	movt	r3, #4096	; 0x1000
 800fd42:	4da2      	ldr	r5, [pc, #648]	; (800ffcc <_GLOBAL__sub_I__ZN4quan3uav3osd8get_fontEm+0x6e8>)
 800fd44:	f24e 21e5 	movw	r1, #58085	; 0xe2e5
 800fd48:	4622      	mov	r2, r4
 800fd4a:	f6c0 0100 	movt	r1, #2048	; 0x800
 800fd4e:	4618      	mov	r0, r3
 800fd50:	601d      	str	r5, [r3, #0]
 800fd52:	f005 f993 	bl	801507c <__aeabi_atexit>
 800fd56:	f640 4358 	movw	r3, #3160	; 0xc58
 800fd5a:	f2c1 0300 	movt	r3, #4096	; 0x1000
 800fd5e:	4d9c      	ldr	r5, [pc, #624]	; (800ffd0 <_GLOBAL__sub_I__ZN4quan3uav3osd8get_fontEm+0x6ec>)
 800fd60:	f24e 21d9 	movw	r1, #58073	; 0xe2d9
 800fd64:	4622      	mov	r2, r4
 800fd66:	f6c0 0100 	movt	r1, #2048	; 0x800
 800fd6a:	4618      	mov	r0, r3
 800fd6c:	601d      	str	r5, [r3, #0]
 800fd6e:	f005 f985 	bl	801507c <__aeabi_atexit>
 800fd72:	f640 0374 	movw	r3, #2164	; 0x874
 800fd76:	f2c1 0300 	movt	r3, #4096	; 0x1000
 800fd7a:	4d96      	ldr	r5, [pc, #600]	; (800ffd4 <_GLOBAL__sub_I__ZN4quan3uav3osd8get_fontEm+0x6f0>)
 800fd7c:	f24e 21cd 	movw	r1, #58061	; 0xe2cd
 800fd80:	4622      	mov	r2, r4
 800fd82:	f6c0 0100 	movt	r1, #2048	; 0x800
 800fd86:	4618      	mov	r0, r3
 800fd88:	601d      	str	r5, [r3, #0]
 800fd8a:	f005 f977 	bl	801507c <__aeabi_atexit>
 800fd8e:	f640 0394 	movw	r3, #2196	; 0x894
 800fd92:	f2c1 0300 	movt	r3, #4096	; 0x1000
 800fd96:	4d90      	ldr	r5, [pc, #576]	; (800ffd8 <_GLOBAL__sub_I__ZN4quan3uav3osd8get_fontEm+0x6f4>)
 800fd98:	f24e 21c1 	movw	r1, #58049	; 0xe2c1
 800fd9c:	4622      	mov	r2, r4
 800fd9e:	f6c0 0100 	movt	r1, #2048	; 0x800
 800fda2:	4618      	mov	r0, r3
 800fda4:	601d      	str	r5, [r3, #0]
 800fda6:	f005 f969 	bl	801507c <__aeabi_atexit>
 800fdaa:	f640 03bc 	movw	r3, #2236	; 0x8bc
 800fdae:	f2c1 0300 	movt	r3, #4096	; 0x1000
 800fdb2:	4d8a      	ldr	r5, [pc, #552]	; (800ffdc <_GLOBAL__sub_I__ZN4quan3uav3osd8get_fontEm+0x6f8>)
 800fdb4:	f24e 21b5 	movw	r1, #58037	; 0xe2b5
 800fdb8:	4622      	mov	r2, r4
 800fdba:	f6c0 0100 	movt	r1, #2048	; 0x800
 800fdbe:	4618      	mov	r0, r3
 800fdc0:	601d      	str	r5, [r3, #0]
 800fdc2:	f005 f95b 	bl	801507c <__aeabi_atexit>
 800fdc6:	f640 435c 	movw	r3, #3164	; 0xc5c
 800fdca:	f2c1 0300 	movt	r3, #4096	; 0x1000
 800fdce:	4d84      	ldr	r5, [pc, #528]	; (800ffe0 <_GLOBAL__sub_I__ZN4quan3uav3osd8get_fontEm+0x6fc>)
 800fdd0:	f24e 21a9 	movw	r1, #58025	; 0xe2a9
 800fdd4:	4622      	mov	r2, r4
 800fdd6:	f6c0 0100 	movt	r1, #2048	; 0x800
 800fdda:	4618      	mov	r0, r3
 800fddc:	601d      	str	r5, [r3, #0]
 800fdde:	f005 f94d 	bl	801507c <__aeabi_atexit>
 800fde2:	f640 0378 	movw	r3, #2168	; 0x878
 800fde6:	f2c1 0300 	movt	r3, #4096	; 0x1000
 800fdea:	4d7e      	ldr	r5, [pc, #504]	; (800ffe4 <_GLOBAL__sub_I__ZN4quan3uav3osd8get_fontEm+0x700>)
 800fdec:	f24e 219d 	movw	r1, #58013	; 0xe29d
 800fdf0:	4622      	mov	r2, r4
 800fdf2:	f6c0 0100 	movt	r1, #2048	; 0x800
 800fdf6:	4618      	mov	r0, r3
 800fdf8:	601d      	str	r5, [r3, #0]
 800fdfa:	f005 f93f 	bl	801507c <__aeabi_atexit>
 800fdfe:	f640 0398 	movw	r3, #2200	; 0x898
 800fe02:	f2c1 0300 	movt	r3, #4096	; 0x1000
 800fe06:	4d78      	ldr	r5, [pc, #480]	; (800ffe8 <_GLOBAL__sub_I__ZN4quan3uav3osd8get_fontEm+0x704>)
 800fe08:	f24e 2191 	movw	r1, #58001	; 0xe291
 800fe0c:	4622      	mov	r2, r4
 800fe0e:	f6c0 0100 	movt	r1, #2048	; 0x800
 800fe12:	4618      	mov	r0, r3
 800fe14:	601d      	str	r5, [r3, #0]
 800fe16:	f005 f931 	bl	801507c <__aeabi_atexit>
 800fe1a:	f640 03c4 	movw	r3, #2244	; 0x8c4
 800fe1e:	f2c1 0300 	movt	r3, #4096	; 0x1000
 800fe22:	4d72      	ldr	r5, [pc, #456]	; (800ffec <_GLOBAL__sub_I__ZN4quan3uav3osd8get_fontEm+0x708>)
 800fe24:	f24e 2185 	movw	r1, #57989	; 0xe285
 800fe28:	4622      	mov	r2, r4
 800fe2a:	f6c0 0100 	movt	r1, #2048	; 0x800
 800fe2e:	4618      	mov	r0, r3
 800fe30:	601d      	str	r5, [r3, #0]
 800fe32:	f005 f923 	bl	801507c <__aeabi_atexit>
 800fe36:	f640 33f4 	movw	r3, #3060	; 0xbf4
 800fe3a:	f2c1 0300 	movt	r3, #4096	; 0x1000
 800fe3e:	4d6c      	ldr	r5, [pc, #432]	; (800fff0 <_GLOBAL__sub_I__ZN4quan3uav3osd8get_fontEm+0x70c>)
 800fe40:	f24e 2179 	movw	r1, #57977	; 0xe279
 800fe44:	4622      	mov	r2, r4
 800fe46:	f6c0 0100 	movt	r1, #2048	; 0x800
 800fe4a:	4618      	mov	r0, r3
 800fe4c:	601d      	str	r5, [r3, #0]
 800fe4e:	f005 f915 	bl	801507c <__aeabi_atexit>
 800fe52:	f640 1308 	movw	r3, #2312	; 0x908
 800fe56:	f2c1 0300 	movt	r3, #4096	; 0x1000
 800fe5a:	4d66      	ldr	r5, [pc, #408]	; (800fff4 <_GLOBAL__sub_I__ZN4quan3uav3osd8get_fontEm+0x710>)
 800fe5c:	f24e 216d 	movw	r1, #57965	; 0xe26d
 800fe60:	4622      	mov	r2, r4
 800fe62:	f6c0 0100 	movt	r1, #2048	; 0x800
 800fe66:	4618      	mov	r0, r3
 800fe68:	601d      	str	r5, [r3, #0]
 800fe6a:	f005 f907 	bl	801507c <__aeabi_atexit>
 800fe6e:	f640 1334 	movw	r3, #2356	; 0x934
 800fe72:	f2c1 0300 	movt	r3, #4096	; 0x1000
 800fe76:	4d60      	ldr	r5, [pc, #384]	; (800fff8 <_GLOBAL__sub_I__ZN4quan3uav3osd8get_fontEm+0x714>)
 800fe78:	f24e 2161 	movw	r1, #57953	; 0xe261
 800fe7c:	4622      	mov	r2, r4
 800fe7e:	f6c0 0100 	movt	r1, #2048	; 0x800
 800fe82:	4618      	mov	r0, r3
 800fe84:	601d      	str	r5, [r3, #0]
 800fe86:	f005 f8f9 	bl	801507c <__aeabi_atexit>
 800fe8a:	f640 1358 	movw	r3, #2392	; 0x958
 800fe8e:	f2c1 0300 	movt	r3, #4096	; 0x1000
 800fe92:	4d5a      	ldr	r5, [pc, #360]	; (800fffc <_GLOBAL__sub_I__ZN4quan3uav3osd8get_fontEm+0x718>)
 800fe94:	f24e 2155 	movw	r1, #57941	; 0xe255
 800fe98:	4622      	mov	r2, r4
 800fe9a:	f6c0 0100 	movt	r1, #2048	; 0x800
 800fe9e:	4618      	mov	r0, r3
 800fea0:	601d      	str	r5, [r3, #0]
 800fea2:	f005 f8eb 	bl	801507c <__aeabi_atexit>
 800fea6:	f640 1378 	movw	r3, #2424	; 0x978
 800feaa:	f2c1 0300 	movt	r3, #4096	; 0x1000
 800feae:	4d54      	ldr	r5, [pc, #336]	; (8010000 <_GLOBAL__sub_I__ZN4quan3uav3osd8get_fontEm+0x71c>)
 800feb0:	f24e 2149 	movw	r1, #57929	; 0xe249
 800feb4:	4622      	mov	r2, r4
 800feb6:	f6c0 0100 	movt	r1, #2048	; 0x800
 800feba:	4618      	mov	r0, r3
 800febc:	601d      	str	r5, [r3, #0]
 800febe:	f005 f8dd 	bl	801507c <__aeabi_atexit>
 800fec2:	f640 13a8 	movw	r3, #2472	; 0x9a8
 800fec6:	f2c1 0300 	movt	r3, #4096	; 0x1000
 800feca:	4d4e      	ldr	r5, [pc, #312]	; (8010004 <_GLOBAL__sub_I__ZN4quan3uav3osd8get_fontEm+0x720>)
 800fecc:	f24e 213d 	movw	r1, #57917	; 0xe23d
 800fed0:	4622      	mov	r2, r4
 800fed2:	f6c0 0100 	movt	r1, #2048	; 0x800
 800fed6:	4618      	mov	r0, r3
 800fed8:	601d      	str	r5, [r3, #0]
 800feda:	f005 f8cf 	bl	801507c <__aeabi_atexit>
 800fede:	f640 133c 	movw	r3, #2364	; 0x93c
 800fee2:	f2c1 0300 	movt	r3, #4096	; 0x1000
 800fee6:	4d48      	ldr	r5, [pc, #288]	; (8010008 <_GLOBAL__sub_I__ZN4quan3uav3osd8get_fontEm+0x724>)
 800fee8:	f24e 2131 	movw	r1, #57905	; 0xe231
 800feec:	4622      	mov	r2, r4
 800feee:	f6c0 0100 	movt	r1, #2048	; 0x800
 800fef2:	4618      	mov	r0, r3
 800fef4:	601d      	str	r5, [r3, #0]
 800fef6:	f005 f8c1 	bl	801507c <__aeabi_atexit>
 800fefa:	f640 1360 	movw	r3, #2400	; 0x960
 800fefe:	f2c1 0300 	movt	r3, #4096	; 0x1000
 800ff02:	4d42      	ldr	r5, [pc, #264]	; (801000c <_GLOBAL__sub_I__ZN4quan3uav3osd8get_fontEm+0x728>)
 800ff04:	f24e 2125 	movw	r1, #57893	; 0xe225
 800ff08:	4622      	mov	r2, r4
 800ff0a:	f6c0 0100 	movt	r1, #2048	; 0x800
 800ff0e:	4618      	mov	r0, r3
 800ff10:	601d      	str	r5, [r3, #0]
 800ff12:	f005 f8b3 	bl	801507c <__aeabi_atexit>
 800ff16:	f640 1380 	movw	r3, #2432	; 0x980
 800ff1a:	f2c1 0300 	movt	r3, #4096	; 0x1000
 800ff1e:	4d3c      	ldr	r5, [pc, #240]	; (8010010 <_GLOBAL__sub_I__ZN4quan3uav3osd8get_fontEm+0x72c>)
 800ff20:	f24e 2119 	movw	r1, #57881	; 0xe219
 800ff24:	4622      	mov	r2, r4
 800ff26:	f6c0 0100 	movt	r1, #2048	; 0x800
 800ff2a:	4618      	mov	r0, r3
 800ff2c:	601d      	str	r5, [r3, #0]
 800ff2e:	f005 f8a5 	bl	801507c <__aeabi_atexit>
 800ff32:	f640 13b0 	movw	r3, #2480	; 0x9b0
 800ff36:	f2c1 0300 	movt	r3, #4096	; 0x1000
 800ff3a:	4d36      	ldr	r5, [pc, #216]	; (8010014 <_GLOBAL__sub_I__ZN4quan3uav3osd8get_fontEm+0x730>)
 800ff3c:	f24e 210d 	movw	r1, #57869	; 0xe20d
 800ff40:	4622      	mov	r2, r4
 800ff42:	f6c0 0100 	movt	r1, #2048	; 0x800
 800ff46:	4618      	mov	r0, r3
 800ff48:	601d      	str	r5, [r3, #0]
 800ff4a:	f005 f897 	bl	801507c <__aeabi_atexit>
 800ff4e:	f640 13d0 	movw	r3, #2512	; 0x9d0
 800ff52:	f2c1 0300 	movt	r3, #4096	; 0x1000
 800ff56:	4d30      	ldr	r5, [pc, #192]	; (8010018 <_GLOBAL__sub_I__ZN4quan3uav3osd8get_fontEm+0x734>)
 800ff58:	f24e 2101 	movw	r1, #57857	; 0xe201
 800ff5c:	4622      	mov	r2, r4
 800ff5e:	f6c0 0100 	movt	r1, #2048	; 0x800
 800ff62:	4618      	mov	r0, r3
 800ff64:	601d      	str	r5, [r3, #0]
 800ff66:	f005 f889 	bl	801507c <__aeabi_atexit>
 800ff6a:	f640 13f0 	movw	r3, #2544	; 0x9f0
 800ff6e:	f2c1 0300 	movt	r3, #4096	; 0x1000
 800ff72:	4d2a      	ldr	r5, [pc, #168]	; (801001c <_GLOBAL__sub_I__ZN4quan3uav3osd8get_fontEm+0x738>)
 800ff74:	f24e 11f5 	movw	r1, #57845	; 0xe1f5
 800ff78:	4622      	mov	r2, r4
 800ff7a:	f6c0 0100 	movt	r1, #2048	; 0x800
 800ff7e:	4618      	mov	r0, r3
 800ff80:	601d      	str	r5, [r3, #0]
 800ff82:	f005 f87b 	bl	801507c <__aeabi_atexit>
 800ff86:	f640 231c 	movw	r3, #2588	; 0xa1c
 800ff8a:	f2c1 0300 	movt	r3, #4096	; 0x1000
 800ff8e:	4d24      	ldr	r5, [pc, #144]	; (8010020 <_GLOBAL__sub_I__ZN4quan3uav3osd8get_fontEm+0x73c>)
 800ff90:	f24e 11e9 	movw	r1, #57833	; 0xe1e9
 800ff94:	4622      	mov	r2, r4
 800ff96:	f6c0 0100 	movt	r1, #2048	; 0x800
 800ff9a:	4618      	mov	r0, r3
 800ff9c:	601d      	str	r5, [r3, #0]
 800ff9e:	f005 f86d 	bl	801507c <__aeabi_atexit>
 800ffa2:	f640 2340 	movw	r3, #2624	; 0xa40
 800ffa6:	f2c1 0300 	movt	r3, #4096	; 0x1000
 800ffaa:	4d1e      	ldr	r5, [pc, #120]	; (8010024 <_GLOBAL__sub_I__ZN4quan3uav3osd8get_fontEm+0x740>)
 800ffac:	f24e 11dd 	movw	r1, #57821	; 0xe1dd
 800ffb0:	e03a      	b.n	8010028 <_GLOBAL__sub_I__ZN4quan3uav3osd8get_fontEm+0x744>
 800ffb2:	bf00      	nop
 800ffb4:	0801a900 	.word	0x0801a900
 800ffb8:	08019e30 	.word	0x08019e30
 800ffbc:	08015ec8 	.word	0x08015ec8
 800ffc0:	08016b30 	.word	0x08016b30
 800ffc4:	08016fd0 	.word	0x08016fd0
 800ffc8:	080173c8 	.word	0x080173c8
 800ffcc:	080176e8 	.word	0x080176e8
 800ffd0:	08017af8 	.word	0x08017af8
 800ffd4:	08017fa8 	.word	0x08017fa8
 800ffd8:	080183d0 	.word	0x080183d0
 800ffdc:	08018808 	.word	0x08018808
 800ffe0:	08019a70 	.word	0x08019a70
 800ffe4:	08019eb0 	.word	0x08019eb0
 800ffe8:	0801a330 	.word	0x0801a330
 800ffec:	0801a6d0 	.word	0x0801a6d0
 800fff0:	08015f18 	.word	0x08015f18
 800fff4:	0801ae60 	.word	0x0801ae60
 800fff8:	08015e48 	.word	0x08015e48
 800fffc:	08016268 	.word	0x08016268
 8010000:	08016668 	.word	0x08016668
 8010004:	08016a60 	.word	0x08016a60
 8010008:	080178e0 	.word	0x080178e0
 801000c:	08017d08 	.word	0x08017d08
 8010010:	080181f0 	.word	0x080181f0
 8010014:	08018628 	.word	0x08018628
 8010018:	08018998 	.word	0x08018998
 801001c:	08018c80 	.word	0x08018c80
 8010020:	080190a0 	.word	0x080190a0
 8010024:	08019950 	.word	0x08019950
 8010028:	4622      	mov	r2, r4
 801002a:	f6c0 0100 	movt	r1, #2048	; 0x800
 801002e:	4618      	mov	r0, r3
 8010030:	601d      	str	r5, [r3, #0]
 8010032:	f005 f823 	bl	801507c <__aeabi_atexit>
 8010036:	f640 2364 	movw	r3, #2660	; 0xa64
 801003a:	f2c1 0300 	movt	r3, #4096	; 0x1000
 801003e:	4dc6      	ldr	r5, [pc, #792]	; (8010358 <_GLOBAL__sub_I__ZN4quan3uav3osd8get_fontEm+0xa74>)
 8010040:	f24e 11d1 	movw	r1, #57809	; 0xe1d1
 8010044:	4622      	mov	r2, r4
 8010046:	f6c0 0100 	movt	r1, #2048	; 0x800
 801004a:	4618      	mov	r0, r3
 801004c:	601d      	str	r5, [r3, #0]
 801004e:	f005 f815 	bl	801507c <__aeabi_atexit>
 8010052:	f640 238c 	movw	r3, #2700	; 0xa8c
 8010056:	f2c1 0300 	movt	r3, #4096	; 0x1000
 801005a:	4dc0      	ldr	r5, [pc, #768]	; (801035c <_GLOBAL__sub_I__ZN4quan3uav3osd8get_fontEm+0xa78>)
 801005c:	f24e 11c5 	movw	r1, #57797	; 0xe1c5
 8010060:	4622      	mov	r2, r4
 8010062:	f6c0 0100 	movt	r1, #2048	; 0x800
 8010066:	4618      	mov	r0, r3
 8010068:	601d      	str	r5, [r3, #0]
 801006a:	f005 f807 	bl	801507c <__aeabi_atexit>
 801006e:	f640 2320 	movw	r3, #2592	; 0xa20
 8010072:	f2c1 0300 	movt	r3, #4096	; 0x1000
 8010076:	4dba      	ldr	r5, [pc, #744]	; (8010360 <_GLOBAL__sub_I__ZN4quan3uav3osd8get_fontEm+0xa7c>)
 8010078:	f24e 11b9 	movw	r1, #57785	; 0xe1b9
 801007c:	4622      	mov	r2, r4
 801007e:	f6c0 0100 	movt	r1, #2048	; 0x800
 8010082:	4618      	mov	r0, r3
 8010084:	601d      	str	r5, [r3, #0]
 8010086:	f004 fff9 	bl	801507c <__aeabi_atexit>
 801008a:	f640 2344 	movw	r3, #2628	; 0xa44
 801008e:	f2c1 0300 	movt	r3, #4096	; 0x1000
 8010092:	4db4      	ldr	r5, [pc, #720]	; (8010364 <_GLOBAL__sub_I__ZN4quan3uav3osd8get_fontEm+0xa80>)
 8010094:	f24e 11ad 	movw	r1, #57773	; 0xe1ad
 8010098:	4622      	mov	r2, r4
 801009a:	f6c0 0100 	movt	r1, #2048	; 0x800
 801009e:	4618      	mov	r0, r3
 80100a0:	601d      	str	r5, [r3, #0]
 80100a2:	f004 ffeb 	bl	801507c <__aeabi_atexit>
 80100a6:	f640 2368 	movw	r3, #2664	; 0xa68
 80100aa:	f2c1 0300 	movt	r3, #4096	; 0x1000
 80100ae:	4dae      	ldr	r5, [pc, #696]	; (8010368 <_GLOBAL__sub_I__ZN4quan3uav3osd8get_fontEm+0xa84>)
 80100b0:	f24e 11a1 	movw	r1, #57761	; 0xe1a1
 80100b4:	4622      	mov	r2, r4
 80100b6:	f6c0 0100 	movt	r1, #2048	; 0x800
 80100ba:	4618      	mov	r0, r3
 80100bc:	601d      	str	r5, [r3, #0]
 80100be:	f004 ffdd 	bl	801507c <__aeabi_atexit>
 80100c2:	f640 2390 	movw	r3, #2704	; 0xa90
 80100c6:	f2c1 0300 	movt	r3, #4096	; 0x1000
 80100ca:	4da8      	ldr	r5, [pc, #672]	; (801036c <_GLOBAL__sub_I__ZN4quan3uav3osd8get_fontEm+0xa88>)
 80100cc:	f24e 1195 	movw	r1, #57749	; 0xe195
 80100d0:	4622      	mov	r2, r4
 80100d2:	f6c0 0100 	movt	r1, #2048	; 0x800
 80100d6:	4618      	mov	r0, r3
 80100d8:	601d      	str	r5, [r3, #0]
 80100da:	f004 ffcf 	bl	801507c <__aeabi_atexit>
 80100de:	f640 23ac 	movw	r3, #2732	; 0xaac
 80100e2:	f2c1 0300 	movt	r3, #4096	; 0x1000
 80100e6:	4da2      	ldr	r5, [pc, #648]	; (8010370 <_GLOBAL__sub_I__ZN4quan3uav3osd8get_fontEm+0xa8c>)
 80100e8:	f24e 1189 	movw	r1, #57737	; 0xe189
 80100ec:	4622      	mov	r2, r4
 80100ee:	f6c0 0100 	movt	r1, #2048	; 0x800
 80100f2:	4618      	mov	r0, r3
 80100f4:	601d      	str	r5, [r3, #0]
 80100f6:	f004 ffc1 	bl	801507c <__aeabi_atexit>
 80100fa:	f640 23d0 	movw	r3, #2768	; 0xad0
 80100fe:	f2c1 0300 	movt	r3, #4096	; 0x1000
 8010102:	4d9c      	ldr	r5, [pc, #624]	; (8010374 <_GLOBAL__sub_I__ZN4quan3uav3osd8get_fontEm+0xa90>)
 8010104:	f24e 117d 	movw	r1, #57725	; 0xe17d
 8010108:	4622      	mov	r2, r4
 801010a:	f6c0 0100 	movt	r1, #2048	; 0x800
 801010e:	4618      	mov	r0, r3
 8010110:	601d      	str	r5, [r3, #0]
 8010112:	f004 ffb3 	bl	801507c <__aeabi_atexit>
 8010116:	f640 23f0 	movw	r3, #2800	; 0xaf0
 801011a:	f2c1 0300 	movt	r3, #4096	; 0x1000
 801011e:	4d96      	ldr	r5, [pc, #600]	; (8010378 <_GLOBAL__sub_I__ZN4quan3uav3osd8get_fontEm+0xa94>)
 8010120:	f24e 1171 	movw	r1, #57713	; 0xe171
 8010124:	4622      	mov	r2, r4
 8010126:	f6c0 0100 	movt	r1, #2048	; 0x800
 801012a:	4618      	mov	r0, r3
 801012c:	601d      	str	r5, [r3, #0]
 801012e:	f004 ffa5 	bl	801507c <__aeabi_atexit>
 8010132:	f640 23fc 	movw	r3, #2812	; 0xafc
 8010136:	f2c1 0300 	movt	r3, #4096	; 0x1000
 801013a:	4d90      	ldr	r5, [pc, #576]	; (801037c <_GLOBAL__sub_I__ZN4quan3uav3osd8get_fontEm+0xa98>)
 801013c:	f24e 1165 	movw	r1, #57701	; 0xe165
 8010140:	4622      	mov	r2, r4
 8010142:	f6c0 0100 	movt	r1, #2048	; 0x800
 8010146:	4618      	mov	r0, r3
 8010148:	601d      	str	r5, [r3, #0]
 801014a:	f004 ff97 	bl	801507c <__aeabi_atexit>
 801014e:	f640 4340 	movw	r3, #3136	; 0xc40
 8010152:	f2c1 0300 	movt	r3, #4096	; 0x1000
 8010156:	4d8a      	ldr	r5, [pc, #552]	; (8010380 <_GLOBAL__sub_I__ZN4quan3uav3osd8get_fontEm+0xa9c>)
 8010158:	f24e 1159 	movw	r1, #57689	; 0xe159
 801015c:	4622      	mov	r2, r4
 801015e:	f6c0 0100 	movt	r1, #2048	; 0x800
 8010162:	4618      	mov	r0, r3
 8010164:	601d      	str	r5, [r3, #0]
 8010166:	f004 ff89 	bl	801507c <__aeabi_atexit>
 801016a:	f640 3338 	movw	r3, #2872	; 0xb38
 801016e:	f2c1 0300 	movt	r3, #4096	; 0x1000
 8010172:	4d84      	ldr	r5, [pc, #528]	; (8010384 <_GLOBAL__sub_I__ZN4quan3uav3osd8get_fontEm+0xaa0>)
 8010174:	f24e 114d 	movw	r1, #57677	; 0xe14d
 8010178:	4622      	mov	r2, r4
 801017a:	f6c0 0100 	movt	r1, #2048	; 0x800
 801017e:	4618      	mov	r0, r3
 8010180:	601d      	str	r5, [r3, #0]
 8010182:	f004 ff7b 	bl	801507c <__aeabi_atexit>
 8010186:	f640 23f4 	movw	r3, #2804	; 0xaf4
 801018a:	f2c1 0300 	movt	r3, #4096	; 0x1000
 801018e:	4d7e      	ldr	r5, [pc, #504]	; (8010388 <_GLOBAL__sub_I__ZN4quan3uav3osd8get_fontEm+0xaa4>)
 8010190:	f24e 1141 	movw	r1, #57665	; 0xe141
 8010194:	4622      	mov	r2, r4
 8010196:	f6c0 0100 	movt	r1, #2048	; 0x800
 801019a:	4618      	mov	r0, r3
 801019c:	601d      	str	r5, [r3, #0]
 801019e:	f004 ff6d 	bl	801507c <__aeabi_atexit>
 80101a2:	f640 3300 	movw	r3, #2816	; 0xb00
 80101a6:	f2c1 0300 	movt	r3, #4096	; 0x1000
 80101aa:	4d78      	ldr	r5, [pc, #480]	; (801038c <_GLOBAL__sub_I__ZN4quan3uav3osd8get_fontEm+0xaa8>)
 80101ac:	f24e 1135 	movw	r1, #57653	; 0xe135
 80101b0:	4622      	mov	r2, r4
 80101b2:	f6c0 0100 	movt	r1, #2048	; 0x800
 80101b6:	4618      	mov	r0, r3
 80101b8:	601d      	str	r5, [r3, #0]
 80101ba:	f004 ff5f 	bl	801507c <__aeabi_atexit>
 80101be:	f640 3314 	movw	r3, #2836	; 0xb14
 80101c2:	f2c1 0300 	movt	r3, #4096	; 0x1000
 80101c6:	4d72      	ldr	r5, [pc, #456]	; (8010390 <_GLOBAL__sub_I__ZN4quan3uav3osd8get_fontEm+0xaac>)
 80101c8:	f24e 1129 	movw	r1, #57641	; 0xe129
 80101cc:	4622      	mov	r2, r4
 80101ce:	f6c0 0100 	movt	r1, #2048	; 0x800
 80101d2:	4618      	mov	r0, r3
 80101d4:	601d      	str	r5, [r3, #0]
 80101d6:	f004 ff51 	bl	801507c <__aeabi_atexit>
 80101da:	f640 333c 	movw	r3, #2876	; 0xb3c
 80101de:	f2c1 0300 	movt	r3, #4096	; 0x1000
 80101e2:	4d6c      	ldr	r5, [pc, #432]	; (8010394 <_GLOBAL__sub_I__ZN4quan3uav3osd8get_fontEm+0xab0>)
 80101e4:	f24e 111d 	movw	r1, #57629	; 0xe11d
 80101e8:	4622      	mov	r2, r4
 80101ea:	f6c0 0100 	movt	r1, #2048	; 0x800
 80101ee:	4618      	mov	r0, r3
 80101f0:	601d      	str	r5, [r3, #0]
 80101f2:	f004 ff43 	bl	801507c <__aeabi_atexit>
 80101f6:	f640 3350 	movw	r3, #2896	; 0xb50
 80101fa:	f2c1 0300 	movt	r3, #4096	; 0x1000
 80101fe:	4d66      	ldr	r5, [pc, #408]	; (8010398 <_GLOBAL__sub_I__ZN4quan3uav3osd8get_fontEm+0xab4>)
 8010200:	f24e 1111 	movw	r1, #57617	; 0xe111
 8010204:	4622      	mov	r2, r4
 8010206:	f6c0 0100 	movt	r1, #2048	; 0x800
 801020a:	4618      	mov	r0, r3
 801020c:	601d      	str	r5, [r3, #0]
 801020e:	f004 ff35 	bl	801507c <__aeabi_atexit>
 8010212:	f640 3370 	movw	r3, #2928	; 0xb70
 8010216:	f2c1 0300 	movt	r3, #4096	; 0x1000
 801021a:	4d60      	ldr	r5, [pc, #384]	; (801039c <_GLOBAL__sub_I__ZN4quan3uav3osd8get_fontEm+0xab8>)
 801021c:	f24e 1105 	movw	r1, #57605	; 0xe105
 8010220:	4622      	mov	r2, r4
 8010222:	f6c0 0100 	movt	r1, #2048	; 0x800
 8010226:	4618      	mov	r0, r3
 8010228:	601d      	str	r5, [r3, #0]
 801022a:	f004 ff27 	bl	801507c <__aeabi_atexit>
 801022e:	f640 338c 	movw	r3, #2956	; 0xb8c
 8010232:	f2c1 0300 	movt	r3, #4096	; 0x1000
 8010236:	4d5a      	ldr	r5, [pc, #360]	; (80103a0 <_GLOBAL__sub_I__ZN4quan3uav3osd8get_fontEm+0xabc>)
 8010238:	f24e 01f9 	movw	r1, #57593	; 0xe0f9
 801023c:	4622      	mov	r2, r4
 801023e:	f6c0 0100 	movt	r1, #2048	; 0x800
 8010242:	4618      	mov	r0, r3
 8010244:	601d      	str	r5, [r3, #0]
 8010246:	f004 ff19 	bl	801507c <__aeabi_atexit>
 801024a:	f640 33b4 	movw	r3, #2996	; 0xbb4
 801024e:	f2c1 0300 	movt	r3, #4096	; 0x1000
 8010252:	4d54      	ldr	r5, [pc, #336]	; (80103a4 <_GLOBAL__sub_I__ZN4quan3uav3osd8get_fontEm+0xac0>)
 8010254:	f24e 01ed 	movw	r1, #57581	; 0xe0ed
 8010258:	4622      	mov	r2, r4
 801025a:	f6c0 0100 	movt	r1, #2048	; 0x800
 801025e:	4618      	mov	r0, r3
 8010260:	601d      	str	r5, [r3, #0]
 8010262:	f004 ff0b 	bl	801507c <__aeabi_atexit>
 8010266:	f640 33cc 	movw	r3, #3020	; 0xbcc
 801026a:	f2c1 0300 	movt	r3, #4096	; 0x1000
 801026e:	4d4e      	ldr	r5, [pc, #312]	; (80103a8 <_GLOBAL__sub_I__ZN4quan3uav3osd8get_fontEm+0xac4>)
 8010270:	f24e 01e1 	movw	r1, #57569	; 0xe0e1
 8010274:	4622      	mov	r2, r4
 8010276:	f6c0 0100 	movt	r1, #2048	; 0x800
 801027a:	4618      	mov	r0, r3
 801027c:	601d      	str	r5, [r3, #0]
 801027e:	f004 fefd 	bl	801507c <__aeabi_atexit>
 8010282:	f640 33f8 	movw	r3, #3064	; 0xbf8
 8010286:	f2c1 0300 	movt	r3, #4096	; 0x1000
 801028a:	4d48      	ldr	r5, [pc, #288]	; (80103ac <_GLOBAL__sub_I__ZN4quan3uav3osd8get_fontEm+0xac8>)
 801028c:	f24e 01d5 	movw	r1, #57557	; 0xe0d5
 8010290:	4622      	mov	r2, r4
 8010292:	f6c0 0100 	movt	r1, #2048	; 0x800
 8010296:	4618      	mov	r0, r3
 8010298:	601d      	str	r5, [r3, #0]
 801029a:	f004 feef 	bl	801507c <__aeabi_atexit>
 801029e:	f640 3394 	movw	r3, #2964	; 0xb94
 80102a2:	f2c1 0300 	movt	r3, #4096	; 0x1000
 80102a6:	4d42      	ldr	r5, [pc, #264]	; (80103b0 <_GLOBAL__sub_I__ZN4quan3uav3osd8get_fontEm+0xacc>)
 80102a8:	f24e 01c9 	movw	r1, #57545	; 0xe0c9
 80102ac:	4622      	mov	r2, r4
 80102ae:	f6c0 0100 	movt	r1, #2048	; 0x800
 80102b2:	4618      	mov	r0, r3
 80102b4:	601d      	str	r5, [r3, #0]
 80102b6:	f004 fee1 	bl	801507c <__aeabi_atexit>
 80102ba:	f640 33b8 	movw	r3, #3000	; 0xbb8
 80102be:	f2c1 0300 	movt	r3, #4096	; 0x1000
 80102c2:	4d3c      	ldr	r5, [pc, #240]	; (80103b4 <_GLOBAL__sub_I__ZN4quan3uav3osd8get_fontEm+0xad0>)
 80102c4:	f24e 01bd 	movw	r1, #57533	; 0xe0bd
 80102c8:	4622      	mov	r2, r4
 80102ca:	f6c0 0100 	movt	r1, #2048	; 0x800
 80102ce:	4618      	mov	r0, r3
 80102d0:	601d      	str	r5, [r3, #0]
 80102d2:	f004 fed3 	bl	801507c <__aeabi_atexit>
 80102d6:	f640 33d4 	movw	r3, #3028	; 0xbd4
 80102da:	f2c1 0300 	movt	r3, #4096	; 0x1000
 80102de:	4d36      	ldr	r5, [pc, #216]	; (80103b8 <_GLOBAL__sub_I__ZN4quan3uav3osd8get_fontEm+0xad4>)
 80102e0:	f24e 01b1 	movw	r1, #57521	; 0xe0b1
 80102e4:	4622      	mov	r2, r4
 80102e6:	f6c0 0100 	movt	r1, #2048	; 0x800
 80102ea:	4618      	mov	r0, r3
 80102ec:	601d      	str	r5, [r3, #0]
 80102ee:	f004 fec5 	bl	801507c <__aeabi_atexit>
 80102f2:	f640 33fc 	movw	r3, #3068	; 0xbfc
 80102f6:	f2c1 0300 	movt	r3, #4096	; 0x1000
 80102fa:	4d30      	ldr	r5, [pc, #192]	; (80103bc <_GLOBAL__sub_I__ZN4quan3uav3osd8get_fontEm+0xad8>)
 80102fc:	f24e 01a5 	movw	r1, #57509	; 0xe0a5
 8010300:	4622      	mov	r2, r4
 8010302:	f6c0 0100 	movt	r1, #2048	; 0x800
 8010306:	4618      	mov	r0, r3
 8010308:	601d      	str	r5, [r3, #0]
 801030a:	f004 feb7 	bl	801507c <__aeabi_atexit>
 801030e:	f640 4320 	movw	r3, #3104	; 0xc20
 8010312:	f2c1 0300 	movt	r3, #4096	; 0x1000
 8010316:	4d2a      	ldr	r5, [pc, #168]	; (80103c0 <_GLOBAL__sub_I__ZN4quan3uav3osd8get_fontEm+0xadc>)
 8010318:	f24e 0199 	movw	r1, #57497	; 0xe099
 801031c:	4622      	mov	r2, r4
 801031e:	f6c0 0100 	movt	r1, #2048	; 0x800
 8010322:	4618      	mov	r0, r3
 8010324:	601d      	str	r5, [r3, #0]
 8010326:	f004 fea9 	bl	801507c <__aeabi_atexit>
 801032a:	f640 433c 	movw	r3, #3132	; 0xc3c
 801032e:	f2c1 0300 	movt	r3, #4096	; 0x1000
 8010332:	4d24      	ldr	r5, [pc, #144]	; (80103c4 <_GLOBAL__sub_I__ZN4quan3uav3osd8get_fontEm+0xae0>)
 8010334:	f24e 018d 	movw	r1, #57485	; 0xe08d
 8010338:	4622      	mov	r2, r4
 801033a:	f6c0 0100 	movt	r1, #2048	; 0x800
 801033e:	4618      	mov	r0, r3
 8010340:	601d      	str	r5, [r3, #0]
 8010342:	f004 fe9b 	bl	801507c <__aeabi_atexit>
 8010346:	f640 4364 	movw	r3, #3172	; 0xc64
 801034a:	f2c1 0300 	movt	r3, #4096	; 0x1000
 801034e:	4d1e      	ldr	r5, [pc, #120]	; (80103c8 <_GLOBAL__sub_I__ZN4quan3uav3osd8get_fontEm+0xae4>)
 8010350:	f24e 0181 	movw	r1, #57473	; 0xe081
 8010354:	e03a      	b.n	80103cc <_GLOBAL__sub_I__ZN4quan3uav3osd8get_fontEm+0xae8>
 8010356:	bf00      	nop
 8010358:	08019db0 	.word	0x08019db0
 801035c:	0801a250 	.word	0x0801a250
 8010360:	0801b038 	.word	0x0801b038
 8010364:	08018cc8 	.word	0x08018cc8
 8010368:	08016450 	.word	0x08016450
 801036c:	080167d8 	.word	0x080167d8
 8010370:	08016c78 	.word	0x08016c78
 8010374:	08017050 	.word	0x08017050
 8010378:	080174b8 	.word	0x080174b8
 801037c:	08017768 	.word	0x08017768
 8010380:	08017890 	.word	0x08017890
 8010384:	08017fd8 	.word	0x08017fd8
 8010388:	08018ee8 	.word	0x08018ee8
 801038c:	08019698 	.word	0x08019698
 8010390:	0801afe8 	.word	0x0801afe8
 8010394:	08019fc0 	.word	0x08019fc0
 8010398:	0801a420 	.word	0x0801a420
 801039c:	0801a750 	.word	0x0801a750
 80103a0:	08015df8 	.word	0x08015df8
 80103a4:	0801af18 	.word	0x0801af18
 80103a8:	08015f68 	.word	0x08015f68
 80103ac:	08017cd8 	.word	0x08017cd8
 80103b0:	08017250 	.word	0x08017250
 80103b4:	08017588 	.word	0x08017588
 80103b8:	08017980 	.word	0x08017980
 80103bc:	08017dd8 	.word	0x08017dd8
 80103c0:	080182e0 	.word	0x080182e0
 80103c4:	08018700 	.word	0x08018700
 80103c8:	08018a38 	.word	0x08018a38
 80103cc:	4622      	mov	r2, r4
 80103ce:	f6c0 0100 	movt	r1, #2048	; 0x800
 80103d2:	4618      	mov	r0, r3
 80103d4:	601d      	str	r5, [r3, #0]
 80103d6:	f004 fe51 	bl	801507c <__aeabi_atexit>
 80103da:	f640 0384 	movw	r3, #2180	; 0x884
 80103de:	f2c1 0300 	movt	r3, #4096	; 0x1000
 80103e2:	4dc6      	ldr	r5, [pc, #792]	; (80106fc <_GLOBAL__sub_I__ZN4quan3uav3osd8get_fontEm+0xe18>)
 80103e4:	f24e 0175 	movw	r1, #57461	; 0xe075
 80103e8:	4622      	mov	r2, r4
 80103ea:	f6c0 0100 	movt	r1, #2048	; 0x800
 80103ee:	4618      	mov	r0, r3
 80103f0:	601d      	str	r5, [r3, #0]
 80103f2:	f004 fe43 	bl	801507c <__aeabi_atexit>
 80103f6:	f640 03a0 	movw	r3, #2208	; 0x8a0
 80103fa:	f2c1 0300 	movt	r3, #4096	; 0x1000
 80103fe:	4dc0      	ldr	r5, [pc, #768]	; (8010700 <_GLOBAL__sub_I__ZN4quan3uav3osd8get_fontEm+0xe1c>)
 8010400:	f24e 0169 	movw	r1, #57449	; 0xe069
 8010404:	4622      	mov	r2, r4
 8010406:	f6c0 0100 	movt	r1, #2048	; 0x800
 801040a:	4618      	mov	r0, r3
 801040c:	601d      	str	r5, [r3, #0]
 801040e:	f004 fe35 	bl	801507c <__aeabi_atexit>
 8010412:	f640 03cc 	movw	r3, #2252	; 0x8cc
 8010416:	f2c1 0300 	movt	r3, #4096	; 0x1000
 801041a:	4dba      	ldr	r5, [pc, #744]	; (8010704 <_GLOBAL__sub_I__ZN4quan3uav3osd8get_fontEm+0xe20>)
 801041c:	f24e 015d 	movw	r1, #57437	; 0xe05d
 8010420:	4622      	mov	r2, r4
 8010422:	f6c0 0100 	movt	r1, #2048	; 0x800
 8010426:	4618      	mov	r0, r3
 8010428:	601d      	str	r5, [r3, #0]
 801042a:	f004 fe27 	bl	801507c <__aeabi_atexit>
 801042e:	f640 0364 	movw	r3, #2148	; 0x864
 8010432:	f2c1 0300 	movt	r3, #4096	; 0x1000
 8010436:	4db4      	ldr	r5, [pc, #720]	; (8010708 <_GLOBAL__sub_I__ZN4quan3uav3osd8get_fontEm+0xe24>)
 8010438:	f24e 0151 	movw	r1, #57425	; 0xe051
 801043c:	4622      	mov	r2, r4
 801043e:	f6c0 0100 	movt	r1, #2048	; 0x800
 8010442:	4618      	mov	r0, r3
 8010444:	601d      	str	r5, [r3, #0]
 8010446:	f004 fe19 	bl	801507c <__aeabi_atexit>
 801044a:	f640 0388 	movw	r3, #2184	; 0x888
 801044e:	f2c1 0300 	movt	r3, #4096	; 0x1000
 8010452:	4dae      	ldr	r5, [pc, #696]	; (801070c <_GLOBAL__sub_I__ZN4quan3uav3osd8get_fontEm+0xe28>)
 8010454:	f24e 0145 	movw	r1, #57413	; 0xe045
 8010458:	4622      	mov	r2, r4
 801045a:	f6c0 0100 	movt	r1, #2048	; 0x800
 801045e:	4618      	mov	r0, r3
 8010460:	601d      	str	r5, [r3, #0]
 8010462:	f004 fe0b 	bl	801507c <__aeabi_atexit>
 8010466:	f640 03ac 	movw	r3, #2220	; 0x8ac
 801046a:	f2c1 0300 	movt	r3, #4096	; 0x1000
 801046e:	4da8      	ldr	r5, [pc, #672]	; (8010710 <_GLOBAL__sub_I__ZN4quan3uav3osd8get_fontEm+0xe2c>)
 8010470:	f24e 0139 	movw	r1, #57401	; 0xe039
 8010474:	4622      	mov	r2, r4
 8010476:	f6c0 0100 	movt	r1, #2048	; 0x800
 801047a:	4618      	mov	r0, r3
 801047c:	601d      	str	r5, [r3, #0]
 801047e:	f004 fdfd 	bl	801507c <__aeabi_atexit>
 8010482:	f640 03d4 	movw	r3, #2260	; 0x8d4
 8010486:	f2c1 0300 	movt	r3, #4096	; 0x1000
 801048a:	4da2      	ldr	r5, [pc, #648]	; (8010714 <_GLOBAL__sub_I__ZN4quan3uav3osd8get_fontEm+0xe30>)
 801048c:	f24e 012d 	movw	r1, #57389	; 0xe02d
 8010490:	4622      	mov	r2, r4
 8010492:	f6c0 0100 	movt	r1, #2048	; 0x800
 8010496:	4618      	mov	r0, r3
 8010498:	601d      	str	r5, [r3, #0]
 801049a:	f004 fdef 	bl	801507c <__aeabi_atexit>
 801049e:	f640 4310 	movw	r3, #3088	; 0xc10
 80104a2:	f2c1 0300 	movt	r3, #4096	; 0x1000
 80104a6:	4d9c      	ldr	r5, [pc, #624]	; (8010718 <_GLOBAL__sub_I__ZN4quan3uav3osd8get_fontEm+0xe34>)
 80104a8:	f24e 0121 	movw	r1, #57377	; 0xe021
 80104ac:	4622      	mov	r2, r4
 80104ae:	f6c0 0100 	movt	r1, #2048	; 0x800
 80104b2:	4618      	mov	r0, r3
 80104b4:	601d      	str	r5, [r3, #0]
 80104b6:	f004 fde1 	bl	801507c <__aeabi_atexit>
 80104ba:	f640 1318 	movw	r3, #2328	; 0x918
 80104be:	f2c1 0300 	movt	r3, #4096	; 0x1000
 80104c2:	4d96      	ldr	r5, [pc, #600]	; (801071c <_GLOBAL__sub_I__ZN4quan3uav3osd8get_fontEm+0xe38>)
 80104c4:	f24e 0115 	movw	r1, #57365	; 0xe015
 80104c8:	4622      	mov	r2, r4
 80104ca:	f6c0 0100 	movt	r1, #2048	; 0x800
 80104ce:	4618      	mov	r0, r3
 80104d0:	601d      	str	r5, [r3, #0]
 80104d2:	f004 fdd3 	bl	801507c <__aeabi_atexit>
 80104d6:	f640 1344 	movw	r3, #2372	; 0x944
 80104da:	f2c1 0300 	movt	r3, #4096	; 0x1000
 80104de:	4d90      	ldr	r5, [pc, #576]	; (8010720 <_GLOBAL__sub_I__ZN4quan3uav3osd8get_fontEm+0xe3c>)
 80104e0:	f24e 0109 	movw	r1, #57353	; 0xe009
 80104e4:	4622      	mov	r2, r4
 80104e6:	f6c0 0100 	movt	r1, #2048	; 0x800
 80104ea:	4618      	mov	r0, r3
 80104ec:	601d      	str	r5, [r3, #0]
 80104ee:	f004 fdc5 	bl	801507c <__aeabi_atexit>
 80104f2:	f640 1368 	movw	r3, #2408	; 0x968
 80104f6:	f2c1 0300 	movt	r3, #4096	; 0x1000
 80104fa:	4d8a      	ldr	r5, [pc, #552]	; (8010724 <_GLOBAL__sub_I__ZN4quan3uav3osd8get_fontEm+0xe40>)
 80104fc:	f64d 71fd 	movw	r1, #57341	; 0xdffd
 8010500:	4622      	mov	r2, r4
 8010502:	f6c0 0100 	movt	r1, #2048	; 0x800
 8010506:	4618      	mov	r0, r3
 8010508:	601d      	str	r5, [r3, #0]
 801050a:	f004 fdb7 	bl	801507c <__aeabi_atexit>
 801050e:	f640 1388 	movw	r3, #2440	; 0x988
 8010512:	f2c1 0300 	movt	r3, #4096	; 0x1000
 8010516:	4d84      	ldr	r5, [pc, #528]	; (8010728 <_GLOBAL__sub_I__ZN4quan3uav3osd8get_fontEm+0xe44>)
 8010518:	f64d 71f1 	movw	r1, #57329	; 0xdff1
 801051c:	4622      	mov	r2, r4
 801051e:	f6c0 0100 	movt	r1, #2048	; 0x800
 8010522:	4618      	mov	r0, r3
 8010524:	601d      	str	r5, [r3, #0]
 8010526:	f004 fda9 	bl	801507c <__aeabi_atexit>
 801052a:	f640 13b8 	movw	r3, #2488	; 0x9b8
 801052e:	f2c1 0300 	movt	r3, #4096	; 0x1000
 8010532:	4d7e      	ldr	r5, [pc, #504]	; (801072c <_GLOBAL__sub_I__ZN4quan3uav3osd8get_fontEm+0xe48>)
 8010534:	f64d 71e5 	movw	r1, #57317	; 0xdfe5
 8010538:	4622      	mov	r2, r4
 801053a:	f6c0 0100 	movt	r1, #2048	; 0x800
 801053e:	4618      	mov	r0, r3
 8010540:	601d      	str	r5, [r3, #0]
 8010542:	f004 fd9b 	bl	801507c <__aeabi_atexit>
 8010546:	f640 33d0 	movw	r3, #3024	; 0xbd0
 801054a:	f2c1 0300 	movt	r3, #4096	; 0x1000
 801054e:	4d78      	ldr	r5, [pc, #480]	; (8010730 <_GLOBAL__sub_I__ZN4quan3uav3osd8get_fontEm+0xe4c>)
 8010550:	f64d 71d9 	movw	r1, #57305	; 0xdfd9
 8010554:	4622      	mov	r2, r4
 8010556:	f6c0 0100 	movt	r1, #2048	; 0x800
 801055a:	4618      	mov	r0, r3
 801055c:	601d      	str	r5, [r3, #0]
 801055e:	f004 fd8d 	bl	801507c <__aeabi_atexit>
 8010562:	f640 4350 	movw	r3, #3152	; 0xc50
 8010566:	f2c1 0300 	movt	r3, #4096	; 0x1000
 801056a:	4d72      	ldr	r5, [pc, #456]	; (8010734 <_GLOBAL__sub_I__ZN4quan3uav3osd8get_fontEm+0xe50>)
 801056c:	f64d 71cd 	movw	r1, #57293	; 0xdfcd
 8010570:	4622      	mov	r2, r4
 8010572:	f6c0 0100 	movt	r1, #2048	; 0x800
 8010576:	4618      	mov	r0, r3
 8010578:	601d      	str	r5, [r3, #0]
 801057a:	f004 fd7f 	bl	801507c <__aeabi_atexit>
 801057e:	f640 431c 	movw	r3, #3100	; 0xc1c
 8010582:	f2c1 0300 	movt	r3, #4096	; 0x1000
 8010586:	4d6c      	ldr	r5, [pc, #432]	; (8010738 <_GLOBAL__sub_I__ZN4quan3uav3osd8get_fontEm+0xe54>)
 8010588:	f64d 71c1 	movw	r1, #57281	; 0xdfc1
 801058c:	4622      	mov	r2, r4
 801058e:	f6c0 0100 	movt	r1, #2048	; 0x800
 8010592:	4618      	mov	r0, r3
 8010594:	601d      	str	r5, [r3, #0]
 8010596:	f004 fd71 	bl	801507c <__aeabi_atexit>
 801059a:	f640 4338 	movw	r3, #3128	; 0xc38
 801059e:	f2c1 0300 	movt	r3, #4096	; 0x1000
 80105a2:	4d66      	ldr	r5, [pc, #408]	; (801073c <_GLOBAL__sub_I__ZN4quan3uav3osd8get_fontEm+0xe58>)
 80105a4:	f64d 71b5 	movw	r1, #57269	; 0xdfb5
 80105a8:	4622      	mov	r2, r4
 80105aa:	f6c0 0100 	movt	r1, #2048	; 0x800
 80105ae:	4618      	mov	r0, r3
 80105b0:	601d      	str	r5, [r3, #0]
 80105b2:	f004 fd63 	bl	801507c <__aeabi_atexit>
 80105b6:	f640 4360 	movw	r3, #3168	; 0xc60
 80105ba:	f2c1 0300 	movt	r3, #4096	; 0x1000
 80105be:	4d60      	ldr	r5, [pc, #384]	; (8010740 <_GLOBAL__sub_I__ZN4quan3uav3osd8get_fontEm+0xe5c>)
 80105c0:	f64d 71a9 	movw	r1, #57257	; 0xdfa9
 80105c4:	4622      	mov	r2, r4
 80105c6:	f6c0 0100 	movt	r1, #2048	; 0x800
 80105ca:	4618      	mov	r0, r3
 80105cc:	601d      	str	r5, [r3, #0]
 80105ce:	f004 fd55 	bl	801507c <__aeabi_atexit>
 80105d2:	f640 0380 	movw	r3, #2176	; 0x880
 80105d6:	f2c1 0300 	movt	r3, #4096	; 0x1000
 80105da:	4d5a      	ldr	r5, [pc, #360]	; (8010744 <_GLOBAL__sub_I__ZN4quan3uav3osd8get_fontEm+0xe60>)
 80105dc:	f64d 719d 	movw	r1, #57245	; 0xdf9d
 80105e0:	4622      	mov	r2, r4
 80105e2:	f6c0 0100 	movt	r1, #2048	; 0x800
 80105e6:	4618      	mov	r0, r3
 80105e8:	601d      	str	r5, [r3, #0]
 80105ea:	f004 fd47 	bl	801507c <__aeabi_atexit>
 80105ee:	f640 039c 	movw	r3, #2204	; 0x89c
 80105f2:	f2c1 0300 	movt	r3, #4096	; 0x1000
 80105f6:	4d54      	ldr	r5, [pc, #336]	; (8010748 <_GLOBAL__sub_I__ZN4quan3uav3osd8get_fontEm+0xe64>)
 80105f8:	f64d 7191 	movw	r1, #57233	; 0xdf91
 80105fc:	4622      	mov	r2, r4
 80105fe:	f6c0 0100 	movt	r1, #2048	; 0x800
 8010602:	4618      	mov	r0, r3
 8010604:	601d      	str	r5, [r3, #0]
 8010606:	f004 fd39 	bl	801507c <__aeabi_atexit>
 801060a:	f640 03c8 	movw	r3, #2248	; 0x8c8
 801060e:	f2c1 0300 	movt	r3, #4096	; 0x1000
 8010612:	4d4e      	ldr	r5, [pc, #312]	; (801074c <_GLOBAL__sub_I__ZN4quan3uav3osd8get_fontEm+0xe68>)
 8010614:	f64d 7185 	movw	r1, #57221	; 0xdf85
 8010618:	4622      	mov	r2, r4
 801061a:	f6c0 0100 	movt	r1, #2048	; 0x800
 801061e:	4618      	mov	r0, r3
 8010620:	601d      	str	r5, [r3, #0]
 8010622:	f004 fd2b 	bl	801507c <__aeabi_atexit>
 8010626:	f640 03ec 	movw	r3, #2284	; 0x8ec
 801062a:	f2c1 0300 	movt	r3, #4096	; 0x1000
 801062e:	4d48      	ldr	r5, [pc, #288]	; (8010750 <_GLOBAL__sub_I__ZN4quan3uav3osd8get_fontEm+0xe6c>)
 8010630:	f64d 7179 	movw	r1, #57209	; 0xdf79
 8010634:	4622      	mov	r2, r4
 8010636:	f6c0 0100 	movt	r1, #2048	; 0x800
 801063a:	4618      	mov	r0, r3
 801063c:	601d      	str	r5, [r3, #0]
 801063e:	f004 fd1d 	bl	801507c <__aeabi_atexit>
 8010642:	f640 1310 	movw	r3, #2320	; 0x910
 8010646:	f2c1 0300 	movt	r3, #4096	; 0x1000
 801064a:	4d42      	ldr	r5, [pc, #264]	; (8010754 <_GLOBAL__sub_I__ZN4quan3uav3osd8get_fontEm+0xe70>)
 801064c:	f64d 716d 	movw	r1, #57197	; 0xdf6d
 8010650:	4622      	mov	r2, r4
 8010652:	f6c0 0100 	movt	r1, #2048	; 0x800
 8010656:	4618      	mov	r0, r3
 8010658:	601d      	str	r5, [r3, #0]
 801065a:	f004 fd0f 	bl	801507c <__aeabi_atexit>
 801065e:	f640 03a8 	movw	r3, #2216	; 0x8a8
 8010662:	f2c1 0300 	movt	r3, #4096	; 0x1000
 8010666:	4d3c      	ldr	r5, [pc, #240]	; (8010758 <_GLOBAL__sub_I__ZN4quan3uav3osd8get_fontEm+0xe74>)
 8010668:	f64d 7161 	movw	r1, #57185	; 0xdf61
 801066c:	4622      	mov	r2, r4
 801066e:	f6c0 0100 	movt	r1, #2048	; 0x800
 8010672:	4618      	mov	r0, r3
 8010674:	601d      	str	r5, [r3, #0]
 8010676:	f004 fd01 	bl	801507c <__aeabi_atexit>
 801067a:	f640 03d0 	movw	r3, #2256	; 0x8d0
 801067e:	f2c1 0300 	movt	r3, #4096	; 0x1000
 8010682:	4d36      	ldr	r5, [pc, #216]	; (801075c <_GLOBAL__sub_I__ZN4quan3uav3osd8get_fontEm+0xe78>)
 8010684:	f64d 7155 	movw	r1, #57173	; 0xdf55
 8010688:	4622      	mov	r2, r4
 801068a:	f6c0 0100 	movt	r1, #2048	; 0x800
 801068e:	4618      	mov	r0, r3
 8010690:	601d      	str	r5, [r3, #0]
 8010692:	f004 fcf3 	bl	801507c <__aeabi_atexit>
 8010696:	f640 03f4 	movw	r3, #2292	; 0x8f4
 801069a:	f2c1 0300 	movt	r3, #4096	; 0x1000
 801069e:	4d30      	ldr	r5, [pc, #192]	; (8010760 <_GLOBAL__sub_I__ZN4quan3uav3osd8get_fontEm+0xe7c>)
 80106a0:	f64d 7149 	movw	r1, #57161	; 0xdf49
 80106a4:	4622      	mov	r2, r4
 80106a6:	f6c0 0100 	movt	r1, #2048	; 0x800
 80106aa:	4618      	mov	r0, r3
 80106ac:	601d      	str	r5, [r3, #0]
 80106ae:	f004 fce5 	bl	801507c <__aeabi_atexit>
 80106b2:	f640 1314 	movw	r3, #2324	; 0x914
 80106b6:	f2c1 0300 	movt	r3, #4096	; 0x1000
 80106ba:	4d2a      	ldr	r5, [pc, #168]	; (8010764 <_GLOBAL__sub_I__ZN4quan3uav3osd8get_fontEm+0xe80>)
 80106bc:	f64d 713d 	movw	r1, #57149	; 0xdf3d
 80106c0:	4622      	mov	r2, r4
 80106c2:	f6c0 0100 	movt	r1, #2048	; 0x800
 80106c6:	4618      	mov	r0, r3
 80106c8:	601d      	str	r5, [r3, #0]
 80106ca:	f004 fcd7 	bl	801507c <__aeabi_atexit>
 80106ce:	f640 1340 	movw	r3, #2368	; 0x940
 80106d2:	f2c1 0300 	movt	r3, #4096	; 0x1000
 80106d6:	4d24      	ldr	r5, [pc, #144]	; (8010768 <_GLOBAL__sub_I__ZN4quan3uav3osd8get_fontEm+0xe84>)
 80106d8:	f64d 7131 	movw	r1, #57137	; 0xdf31
 80106dc:	4622      	mov	r2, r4
 80106de:	f6c0 0100 	movt	r1, #2048	; 0x800
 80106e2:	4618      	mov	r0, r3
 80106e4:	601d      	str	r5, [r3, #0]
 80106e6:	f004 fcc9 	bl	801507c <__aeabi_atexit>
 80106ea:	f640 1364 	movw	r3, #2404	; 0x964
 80106ee:	f2c1 0300 	movt	r3, #4096	; 0x1000
 80106f2:	4d1e      	ldr	r5, [pc, #120]	; (801076c <_GLOBAL__sub_I__ZN4quan3uav3osd8get_fontEm+0xe88>)
 80106f4:	f64d 7125 	movw	r1, #57125	; 0xdf25
 80106f8:	e03a      	b.n	8010770 <_GLOBAL__sub_I__ZN4quan3uav3osd8get_fontEm+0xe8c>
 80106fa:	bf00      	nop
 80106fc:	0801acd0 	.word	0x0801acd0
 8010700:	0801af98 	.word	0x0801af98
 8010704:	08015fe8 	.word	0x08015fe8
 8010708:	0801a918 	.word	0x0801a918
 801070c:	0801ad38 	.word	0x0801ad38
 8010710:	0801b148 	.word	0x0801b148
 8010714:	08016198 	.word	0x08016198
 8010718:	080164e8 	.word	0x080164e8
 801071c:	08018348 	.word	0x08018348
 8010720:	08018780 	.word	0x08018780
 8010724:	080166b0 	.word	0x080166b0
 8010728:	08017aa8 	.word	0x08017aa8
 801072c:	08018f50 	.word	0x08018f50
 8010730:	0801a860 	.word	0x0801a860
 8010734:	08018bc8 	.word	0x08018bc8
 8010738:	08018f80 	.word	0x08018f80
 801073c:	08019108 	.word	0x08019108
 8010740:	08019c38 	.word	0x08019c38
 8010744:	080195e0 	.word	0x080195e0
 8010748:	080169f8 	.word	0x080169f8
 801074c:	08016d80 	.word	0x08016d80
 8010750:	08018d18 	.word	0x08018d18
 8010754:	08017558 	.word	0x08017558
 8010758:	08016218 	.word	0x08016218
 801075c:	08016f80 	.word	0x08016f80
 8010760:	08017308 	.word	0x08017308
 8010764:	08019050 	.word	0x08019050
 8010768:	080198c8 	.word	0x080198c8
 801076c:	0801a4b8 	.word	0x0801a4b8
 8010770:	4622      	mov	r2, r4
 8010772:	f6c0 0100 	movt	r1, #2048	; 0x800
 8010776:	4618      	mov	r0, r3
 8010778:	601d      	str	r5, [r3, #0]
 801077a:	f004 fc7f 	bl	801507c <__aeabi_atexit>
 801077e:	f640 1384 	movw	r3, #2436	; 0x984
 8010782:	f2c1 0300 	movt	r3, #4096	; 0x1000
 8010786:	4dc6      	ldr	r5, [pc, #792]	; (8010aa0 <_GLOBAL__sub_I__ZN4quan3uav3osd8get_fontEm+0x11bc>)
 8010788:	f64d 7119 	movw	r1, #57113	; 0xdf19
 801078c:	4622      	mov	r2, r4
 801078e:	f6c0 0100 	movt	r1, #2048	; 0x800
 8010792:	4618      	mov	r0, r3
 8010794:	601d      	str	r5, [r3, #0]
 8010796:	f004 fc71 	bl	801507c <__aeabi_atexit>
 801079a:	f640 13b4 	movw	r3, #2484	; 0x9b4
 801079e:	f2c1 0300 	movt	r3, #4096	; 0x1000
 80107a2:	4dc0      	ldr	r5, [pc, #768]	; (8010aa4 <_GLOBAL__sub_I__ZN4quan3uav3osd8get_fontEm+0x11c0>)
 80107a4:	f64d 710d 	movw	r1, #57101	; 0xdf0d
 80107a8:	4622      	mov	r2, r4
 80107aa:	f6c0 0100 	movt	r1, #2048	; 0x800
 80107ae:	4618      	mov	r0, r3
 80107b0:	601d      	str	r5, [r3, #0]
 80107b2:	f004 fc63 	bl	801507c <__aeabi_atexit>
 80107b6:	f640 13d4 	movw	r3, #2516	; 0x9d4
 80107ba:	f2c1 0300 	movt	r3, #4096	; 0x1000
 80107be:	4dba      	ldr	r5, [pc, #744]	; (8010aa8 <_GLOBAL__sub_I__ZN4quan3uav3osd8get_fontEm+0x11c4>)
 80107c0:	f64d 7101 	movw	r1, #57089	; 0xdf01
 80107c4:	4622      	mov	r2, r4
 80107c6:	f6c0 0100 	movt	r1, #2048	; 0x800
 80107ca:	4618      	mov	r0, r3
 80107cc:	601d      	str	r5, [r3, #0]
 80107ce:	f004 fc55 	bl	801507c <__aeabi_atexit>
 80107d2:	f640 13f4 	movw	r3, #2548	; 0x9f4
 80107d6:	f2c1 0300 	movt	r3, #4096	; 0x1000
 80107da:	4db4      	ldr	r5, [pc, #720]	; (8010aac <_GLOBAL__sub_I__ZN4quan3uav3osd8get_fontEm+0x11c8>)
 80107dc:	f64d 61f5 	movw	r1, #57077	; 0xdef5
 80107e0:	4622      	mov	r2, r4
 80107e2:	f6c0 0100 	movt	r1, #2048	; 0x800
 80107e6:	4618      	mov	r0, r3
 80107e8:	601d      	str	r5, [r3, #0]
 80107ea:	f004 fc47 	bl	801507c <__aeabi_atexit>
 80107ee:	f640 1390 	movw	r3, #2448	; 0x990
 80107f2:	f2c1 0300 	movt	r3, #4096	; 0x1000
 80107f6:	4dae      	ldr	r5, [pc, #696]	; (8010ab0 <_GLOBAL__sub_I__ZN4quan3uav3osd8get_fontEm+0x11cc>)
 80107f8:	f64d 61e9 	movw	r1, #57065	; 0xdee9
 80107fc:	4622      	mov	r2, r4
 80107fe:	f6c0 0100 	movt	r1, #2048	; 0x800
 8010802:	4618      	mov	r0, r3
 8010804:	601d      	str	r5, [r3, #0]
 8010806:	f004 fc39 	bl	801507c <__aeabi_atexit>
 801080a:	f640 13bc 	movw	r3, #2492	; 0x9bc
 801080e:	f2c1 0300 	movt	r3, #4096	; 0x1000
 8010812:	4da8      	ldr	r5, [pc, #672]	; (8010ab4 <_GLOBAL__sub_I__ZN4quan3uav3osd8get_fontEm+0x11d0>)
 8010814:	f64d 61dd 	movw	r1, #57053	; 0xdedd
 8010818:	4622      	mov	r2, r4
 801081a:	f6c0 0100 	movt	r1, #2048	; 0x800
 801081e:	4618      	mov	r0, r3
 8010820:	601d      	str	r5, [r3, #0]
 8010822:	f004 fc2b 	bl	801507c <__aeabi_atexit>
 8010826:	f640 13d8 	movw	r3, #2520	; 0x9d8
 801082a:	f2c1 0300 	movt	r3, #4096	; 0x1000
 801082e:	4da2      	ldr	r5, [pc, #648]	; (8010ab8 <_GLOBAL__sub_I__ZN4quan3uav3osd8get_fontEm+0x11d4>)
 8010830:	f64d 61d1 	movw	r1, #57041	; 0xded1
 8010834:	4622      	mov	r2, r4
 8010836:	f6c0 0100 	movt	r1, #2048	; 0x800
 801083a:	4618      	mov	r0, r3
 801083c:	601d      	str	r5, [r3, #0]
 801083e:	f004 fc1d 	bl	801507c <__aeabi_atexit>
 8010842:	f640 13fc 	movw	r3, #2556	; 0x9fc
 8010846:	f2c1 0300 	movt	r3, #4096	; 0x1000
 801084a:	4d9c      	ldr	r5, [pc, #624]	; (8010abc <_GLOBAL__sub_I__ZN4quan3uav3osd8get_fontEm+0x11d8>)
 801084c:	f64d 61c5 	movw	r1, #57029	; 0xdec5
 8010850:	4622      	mov	r2, r4
 8010852:	f6c0 0100 	movt	r1, #2048	; 0x800
 8010856:	4618      	mov	r0, r3
 8010858:	601d      	str	r5, [r3, #0]
 801085a:	f004 fc0f 	bl	801507c <__aeabi_atexit>
 801085e:	f640 2328 	movw	r3, #2600	; 0xa28
 8010862:	f2c1 0300 	movt	r3, #4096	; 0x1000
 8010866:	4d96      	ldr	r5, [pc, #600]	; (8010ac0 <_GLOBAL__sub_I__ZN4quan3uav3osd8get_fontEm+0x11dc>)
 8010868:	f64d 61b9 	movw	r1, #57017	; 0xdeb9
 801086c:	4622      	mov	r2, r4
 801086e:	f6c0 0100 	movt	r1, #2048	; 0x800
 8010872:	4618      	mov	r0, r3
 8010874:	601d      	str	r5, [r3, #0]
 8010876:	f004 fc01 	bl	801507c <__aeabi_atexit>
 801087a:	f640 2348 	movw	r3, #2632	; 0xa48
 801087e:	f2c1 0300 	movt	r3, #4096	; 0x1000
 8010882:	4d90      	ldr	r5, [pc, #576]	; (8010ac4 <_GLOBAL__sub_I__ZN4quan3uav3osd8get_fontEm+0x11e0>)
 8010884:	f64d 61ad 	movw	r1, #57005	; 0xdead
 8010888:	4622      	mov	r2, r4
 801088a:	f6c0 0100 	movt	r1, #2048	; 0x800
 801088e:	4618      	mov	r0, r3
 8010890:	601d      	str	r5, [r3, #0]
 8010892:	f004 fbf3 	bl	801507c <__aeabi_atexit>
 8010896:	f640 236c 	movw	r3, #2668	; 0xa6c
 801089a:	f2c1 0300 	movt	r3, #4096	; 0x1000
 801089e:	4d8a      	ldr	r5, [pc, #552]	; (8010ac8 <_GLOBAL__sub_I__ZN4quan3uav3osd8get_fontEm+0x11e4>)
 80108a0:	f64d 61a1 	movw	r1, #56993	; 0xdea1
 80108a4:	4622      	mov	r2, r4
 80108a6:	f6c0 0100 	movt	r1, #2048	; 0x800
 80108aa:	4618      	mov	r0, r3
 80108ac:	601d      	str	r5, [r3, #0]
 80108ae:	f004 fbe5 	bl	801507c <__aeabi_atexit>
 80108b2:	f640 2394 	movw	r3, #2708	; 0xa94
 80108b6:	f2c1 0300 	movt	r3, #4096	; 0x1000
 80108ba:	4d84      	ldr	r5, [pc, #528]	; (8010acc <_GLOBAL__sub_I__ZN4quan3uav3osd8get_fontEm+0x11e8>)
 80108bc:	f64d 6195 	movw	r1, #56981	; 0xde95
 80108c0:	4622      	mov	r2, r4
 80108c2:	f6c0 0100 	movt	r1, #2048	; 0x800
 80108c6:	4618      	mov	r0, r3
 80108c8:	601d      	str	r5, [r3, #0]
 80108ca:	f004 fbd7 	bl	801507c <__aeabi_atexit>
 80108ce:	f640 23b0 	movw	r3, #2736	; 0xab0
 80108d2:	f2c1 0300 	movt	r3, #4096	; 0x1000
 80108d6:	4d7e      	ldr	r5, [pc, #504]	; (8010ad0 <_GLOBAL__sub_I__ZN4quan3uav3osd8get_fontEm+0x11ec>)
 80108d8:	f64d 6189 	movw	r1, #56969	; 0xde89
 80108dc:	4622      	mov	r2, r4
 80108de:	f6c0 0100 	movt	r1, #2048	; 0x800
 80108e2:	4618      	mov	r0, r3
 80108e4:	601d      	str	r5, [r3, #0]
 80108e6:	f004 fbc9 	bl	801507c <__aeabi_atexit>
 80108ea:	f640 23d4 	movw	r3, #2772	; 0xad4
 80108ee:	f2c1 0300 	movt	r3, #4096	; 0x1000
 80108f2:	4d78      	ldr	r5, [pc, #480]	; (8010ad4 <_GLOBAL__sub_I__ZN4quan3uav3osd8get_fontEm+0x11f0>)
 80108f4:	f64d 617d 	movw	r1, #56957	; 0xde7d
 80108f8:	4622      	mov	r2, r4
 80108fa:	f6c0 0100 	movt	r1, #2048	; 0x800
 80108fe:	4618      	mov	r0, r3
 8010900:	601d      	str	r5, [r3, #0]
 8010902:	f004 fbbb 	bl	801507c <__aeabi_atexit>
 8010906:	f640 03e8 	movw	r3, #2280	; 0x8e8
 801090a:	f2c1 0300 	movt	r3, #4096	; 0x1000
 801090e:	4d72      	ldr	r5, [pc, #456]	; (8010ad8 <_GLOBAL__sub_I__ZN4quan3uav3osd8get_fontEm+0x11f4>)
 8010910:	f64d 6171 	movw	r1, #56945	; 0xde71
 8010914:	4622      	mov	r2, r4
 8010916:	f6c0 0100 	movt	r1, #2048	; 0x800
 801091a:	4618      	mov	r0, r3
 801091c:	601d      	str	r5, [r3, #0]
 801091e:	f004 fbad 	bl	801507c <__aeabi_atexit>
 8010922:	f640 3304 	movw	r3, #2820	; 0xb04
 8010926:	f2c1 0300 	movt	r3, #4096	; 0x1000
 801092a:	4d6c      	ldr	r5, [pc, #432]	; (8010adc <_GLOBAL__sub_I__ZN4quan3uav3osd8get_fontEm+0x11f8>)
 801092c:	f64d 6165 	movw	r1, #56933	; 0xde65
 8010930:	4622      	mov	r2, r4
 8010932:	f6c0 0100 	movt	r1, #2048	; 0x800
 8010936:	4618      	mov	r0, r3
 8010938:	601d      	str	r5, [r3, #0]
 801093a:	f004 fb9f 	bl	801507c <__aeabi_atexit>
 801093e:	f640 23b8 	movw	r3, #2744	; 0xab8
 8010942:	f2c1 0300 	movt	r3, #4096	; 0x1000
 8010946:	4d66      	ldr	r5, [pc, #408]	; (8010ae0 <_GLOBAL__sub_I__ZN4quan3uav3osd8get_fontEm+0x11fc>)
 8010948:	f64d 6159 	movw	r1, #56921	; 0xde59
 801094c:	4622      	mov	r2, r4
 801094e:	f6c0 0100 	movt	r1, #2048	; 0x800
 8010952:	4618      	mov	r0, r3
 8010954:	601d      	str	r5, [r3, #0]
 8010956:	f004 fb91 	bl	801507c <__aeabi_atexit>
 801095a:	f640 23dc 	movw	r3, #2780	; 0xadc
 801095e:	f2c1 0300 	movt	r3, #4096	; 0x1000
 8010962:	4d60      	ldr	r5, [pc, #384]	; (8010ae4 <_GLOBAL__sub_I__ZN4quan3uav3osd8get_fontEm+0x1200>)
 8010964:	f64d 614d 	movw	r1, #56909	; 0xde4d
 8010968:	4622      	mov	r2, r4
 801096a:	f6c0 0100 	movt	r1, #2048	; 0x800
 801096e:	4618      	mov	r0, r3
 8010970:	601d      	str	r5, [r3, #0]
 8010972:	f004 fb83 	bl	801507c <__aeabi_atexit>
 8010976:	f640 1328 	movw	r3, #2344	; 0x928
 801097a:	f2c1 0300 	movt	r3, #4096	; 0x1000
 801097e:	4d5a      	ldr	r5, [pc, #360]	; (8010ae8 <_GLOBAL__sub_I__ZN4quan3uav3osd8get_fontEm+0x1204>)
 8010980:	f64d 6141 	movw	r1, #56897	; 0xde41
 8010984:	4622      	mov	r2, r4
 8010986:	f6c0 0100 	movt	r1, #2048	; 0x800
 801098a:	4618      	mov	r0, r3
 801098c:	601d      	str	r5, [r3, #0]
 801098e:	f004 fb75 	bl	801507c <__aeabi_atexit>
 8010992:	f640 2358 	movw	r3, #2648	; 0xa58
 8010996:	f2c1 0300 	movt	r3, #4096	; 0x1000
 801099a:	4d54      	ldr	r5, [pc, #336]	; (8010aec <_GLOBAL__sub_I__ZN4quan3uav3osd8get_fontEm+0x1208>)
 801099c:	f64d 6135 	movw	r1, #56885	; 0xde35
 80109a0:	4622      	mov	r2, r4
 80109a2:	f6c0 0100 	movt	r1, #2048	; 0x800
 80109a6:	4618      	mov	r0, r3
 80109a8:	601d      	str	r5, [r3, #0]
 80109aa:	f004 fb67 	bl	801507c <__aeabi_atexit>
 80109ae:	f640 331c 	movw	r3, #2844	; 0xb1c
 80109b2:	f2c1 0300 	movt	r3, #4096	; 0x1000
 80109b6:	4d4e      	ldr	r5, [pc, #312]	; (8010af0 <_GLOBAL__sub_I__ZN4quan3uav3osd8get_fontEm+0x120c>)
 80109b8:	f64d 6129 	movw	r1, #56873	; 0xde29
 80109bc:	4622      	mov	r2, r4
 80109be:	f6c0 0100 	movt	r1, #2048	; 0x800
 80109c2:	4618      	mov	r0, r3
 80109c4:	601d      	str	r5, [r3, #0]
 80109c6:	f004 fb59 	bl	801507c <__aeabi_atexit>
 80109ca:	f640 2378 	movw	r3, #2680	; 0xa78
 80109ce:	f2c1 0300 	movt	r3, #4096	; 0x1000
 80109d2:	4d48      	ldr	r5, [pc, #288]	; (8010af4 <_GLOBAL__sub_I__ZN4quan3uav3osd8get_fontEm+0x1210>)
 80109d4:	f64d 611d 	movw	r1, #56861	; 0xde1d
 80109d8:	4622      	mov	r2, r4
 80109da:	f6c0 0100 	movt	r1, #2048	; 0x800
 80109de:	4618      	mov	r0, r3
 80109e0:	601d      	str	r5, [r3, #0]
 80109e2:	f004 fb4b 	bl	801507c <__aeabi_atexit>
 80109e6:	f640 3354 	movw	r3, #2900	; 0xb54
 80109ea:	f2c1 0300 	movt	r3, #4096	; 0x1000
 80109ee:	4d42      	ldr	r5, [pc, #264]	; (8010af8 <_GLOBAL__sub_I__ZN4quan3uav3osd8get_fontEm+0x1214>)
 80109f0:	f64d 6111 	movw	r1, #56849	; 0xde11
 80109f4:	4622      	mov	r2, r4
 80109f6:	f6c0 0100 	movt	r1, #2048	; 0x800
 80109fa:	4618      	mov	r0, r3
 80109fc:	601d      	str	r5, [r3, #0]
 80109fe:	f004 fb3d 	bl	801507c <__aeabi_atexit>
 8010a02:	f640 3320 	movw	r3, #2848	; 0xb20
 8010a06:	f2c1 0300 	movt	r3, #4096	; 0x1000
 8010a0a:	4d3c      	ldr	r5, [pc, #240]	; (8010afc <_GLOBAL__sub_I__ZN4quan3uav3osd8get_fontEm+0x1218>)
 8010a0c:	f64d 6105 	movw	r1, #56837	; 0xde05
 8010a10:	4622      	mov	r2, r4
 8010a12:	f6c0 0100 	movt	r1, #2048	; 0x800
 8010a16:	4618      	mov	r0, r3
 8010a18:	601d      	str	r5, [r3, #0]
 8010a1a:	f004 fb2f 	bl	801507c <__aeabi_atexit>
 8010a1e:	f640 3328 	movw	r3, #2856	; 0xb28
 8010a22:	f2c1 0300 	movt	r3, #4096	; 0x1000
 8010a26:	4d36      	ldr	r5, [pc, #216]	; (8010b00 <_GLOBAL__sub_I__ZN4quan3uav3osd8get_fontEm+0x121c>)
 8010a28:	f64d 51f9 	movw	r1, #56825	; 0xddf9
 8010a2c:	4622      	mov	r2, r4
 8010a2e:	f6c0 0100 	movt	r1, #2048	; 0x800
 8010a32:	4618      	mov	r0, r3
 8010a34:	601d      	str	r5, [r3, #0]
 8010a36:	f004 fb21 	bl	801507c <__aeabi_atexit>
 8010a3a:	f640 3340 	movw	r3, #2880	; 0xb40
 8010a3e:	f2c1 0300 	movt	r3, #4096	; 0x1000
 8010a42:	4d30      	ldr	r5, [pc, #192]	; (8010b04 <_GLOBAL__sub_I__ZN4quan3uav3osd8get_fontEm+0x1220>)
 8010a44:	f64d 51ed 	movw	r1, #56813	; 0xdded
 8010a48:	4622      	mov	r2, r4
 8010a4a:	f6c0 0100 	movt	r1, #2048	; 0x800
 8010a4e:	4618      	mov	r0, r3
 8010a50:	601d      	str	r5, [r3, #0]
 8010a52:	f004 fb13 	bl	801507c <__aeabi_atexit>
 8010a56:	f640 335c 	movw	r3, #2908	; 0xb5c
 8010a5a:	f2c1 0300 	movt	r3, #4096	; 0x1000
 8010a5e:	4d2a      	ldr	r5, [pc, #168]	; (8010b08 <_GLOBAL__sub_I__ZN4quan3uav3osd8get_fontEm+0x1224>)
 8010a60:	f64d 51e1 	movw	r1, #56801	; 0xdde1
 8010a64:	4622      	mov	r2, r4
 8010a66:	f6c0 0100 	movt	r1, #2048	; 0x800
 8010a6a:	4618      	mov	r0, r3
 8010a6c:	601d      	str	r5, [r3, #0]
 8010a6e:	f004 fb05 	bl	801507c <__aeabi_atexit>
 8010a72:	f640 3378 	movw	r3, #2936	; 0xb78
 8010a76:	f2c1 0300 	movt	r3, #4096	; 0x1000
 8010a7a:	4d24      	ldr	r5, [pc, #144]	; (8010b0c <_GLOBAL__sub_I__ZN4quan3uav3osd8get_fontEm+0x1228>)
 8010a7c:	f64d 51d5 	movw	r1, #56789	; 0xddd5
 8010a80:	4622      	mov	r2, r4
 8010a82:	f6c0 0100 	movt	r1, #2048	; 0x800
 8010a86:	4618      	mov	r0, r3
 8010a88:	601d      	str	r5, [r3, #0]
 8010a8a:	f004 faf7 	bl	801507c <__aeabi_atexit>
 8010a8e:	f640 339c 	movw	r3, #2972	; 0xb9c
 8010a92:	f2c1 0300 	movt	r3, #4096	; 0x1000
 8010a96:	4d1e      	ldr	r5, [pc, #120]	; (8010b10 <_GLOBAL__sub_I__ZN4quan3uav3osd8get_fontEm+0x122c>)
 8010a98:	f64d 51c9 	movw	r1, #56777	; 0xddc9
 8010a9c:	e03a      	b.n	8010b14 <_GLOBAL__sub_I__ZN4quan3uav3osd8get_fontEm+0x1230>
 8010a9e:	bf00      	nop
 8010aa0:	08017cf0 	.word	0x08017cf0
 8010aa4:	0801a520 	.word	0x0801a520
 8010aa8:	0801a8e8 	.word	0x0801a8e8
 8010aac:	0801ace8 	.word	0x0801ace8
 8010ab0:	0801a2e0 	.word	0x0801a2e0
 8010ab4:	08016b80 	.word	0x08016b80
 8010ab8:	08017000 	.word	0x08017000
 8010abc:	08017418 	.word	0x08017418
 8010ac0:	08017718 	.word	0x08017718
 8010ac4:	08017b48 	.word	0x08017b48
 8010ac8:	08016698 	.word	0x08016698
 8010acc:	08018498 	.word	0x08018498
 8010ad0:	08018838 	.word	0x08018838
 8010ad4:	08018b60 	.word	0x08018b60
 8010ad8:	08019f00 	.word	0x08019f00
 8010adc:	0801a380 	.word	0x0801a380
 8010ae0:	0801a700 	.word	0x0801a700
 8010ae4:	0801aae8 	.word	0x0801aae8
 8010ae8:	0801ae78 	.word	0x0801ae78
 8010aec:	08015eb0 	.word	0x08015eb0
 8010af0:	080181d8 	.word	0x080181d8
 8010af4:	08019a08 	.word	0x08019a08
 8010af8:	08016a90 	.word	0x08016a90
 8010afc:	08016e90 	.word	0x08016e90
 8010b00:	08017d70 	.word	0x08017d70
 8010b04:	08018258 	.word	0x08018258
 8010b08:	080186b0 	.word	0x080186b0
 8010b0c:	0801a6b8 	.word	0x0801a6b8
 8010b10:	08018cb0 	.word	0x08018cb0
 8010b14:	4622      	mov	r2, r4
 8010b16:	f6c0 0100 	movt	r1, #2048	; 0x800
 8010b1a:	4618      	mov	r0, r3
 8010b1c:	601d      	str	r5, [r3, #0]
 8010b1e:	f004 faad 	bl	801507c <__aeabi_atexit>
 8010b22:	f640 33c0 	movw	r3, #3008	; 0xbc0
 8010b26:	f2c1 0300 	movt	r3, #4096	; 0x1000
 8010b2a:	4dc6      	ldr	r5, [pc, #792]	; (8010e44 <_GLOBAL__sub_I__ZN4quan3uav3osd8get_fontEm+0x1560>)
 8010b2c:	f64d 51bd 	movw	r1, #56765	; 0xddbd
 8010b30:	4622      	mov	r2, r4
 8010b32:	f6c0 0100 	movt	r1, #2048	; 0x800
 8010b36:	4618      	mov	r0, r3
 8010b38:	601d      	str	r5, [r3, #0]
 8010b3a:	f004 fa9f 	bl	801507c <__aeabi_atexit>
 8010b3e:	f640 33dc 	movw	r3, #3036	; 0xbdc
 8010b42:	f2c1 0300 	movt	r3, #4096	; 0x1000
 8010b46:	4dc0      	ldr	r5, [pc, #768]	; (8010e48 <_GLOBAL__sub_I__ZN4quan3uav3osd8get_fontEm+0x1564>)
 8010b48:	f64d 51b1 	movw	r1, #56753	; 0xddb1
 8010b4c:	4622      	mov	r2, r4
 8010b4e:	f6c0 0100 	movt	r1, #2048	; 0x800
 8010b52:	4618      	mov	r0, r3
 8010b54:	601d      	str	r5, [r3, #0]
 8010b56:	f004 fa91 	bl	801507c <__aeabi_atexit>
 8010b5a:	f640 4300 	movw	r3, #3072	; 0xc00
 8010b5e:	f2c1 0300 	movt	r3, #4096	; 0x1000
 8010b62:	4dba      	ldr	r5, [pc, #744]	; (8010e4c <_GLOBAL__sub_I__ZN4quan3uav3osd8get_fontEm+0x1568>)
 8010b64:	f64d 51a5 	movw	r1, #56741	; 0xdda5
 8010b68:	4622      	mov	r2, r4
 8010b6a:	f6c0 0100 	movt	r1, #2048	; 0x800
 8010b6e:	4618      	mov	r0, r3
 8010b70:	601d      	str	r5, [r3, #0]
 8010b72:	f004 fa83 	bl	801507c <__aeabi_atexit>
 8010b76:	f640 4324 	movw	r3, #3108	; 0xc24
 8010b7a:	f2c1 0300 	movt	r3, #4096	; 0x1000
 8010b7e:	4db4      	ldr	r5, [pc, #720]	; (8010e50 <_GLOBAL__sub_I__ZN4quan3uav3osd8get_fontEm+0x156c>)
 8010b80:	f64d 5199 	movw	r1, #56729	; 0xdd99
 8010b84:	4622      	mov	r2, r4
 8010b86:	f6c0 0100 	movt	r1, #2048	; 0x800
 8010b8a:	4618      	mov	r0, r3
 8010b8c:	601d      	str	r5, [r3, #0]
 8010b8e:	f004 fa75 	bl	801507c <__aeabi_atexit>
 8010b92:	f640 03e4 	movw	r3, #2276	; 0x8e4
 8010b96:	f2c1 0300 	movt	r3, #4096	; 0x1000
 8010b9a:	4dae      	ldr	r5, [pc, #696]	; (8010e54 <_GLOBAL__sub_I__ZN4quan3uav3osd8get_fontEm+0x1570>)
 8010b9c:	f64d 518d 	movw	r1, #56717	; 0xdd8d
 8010ba0:	4622      	mov	r2, r4
 8010ba2:	f6c0 0100 	movt	r1, #2048	; 0x800
 8010ba6:	4618      	mov	r0, r3
 8010ba8:	601d      	str	r5, [r3, #0]
 8010baa:	f004 fa67 	bl	801507c <__aeabi_atexit>
 8010bae:	f640 33e4 	movw	r3, #3044	; 0xbe4
 8010bb2:	f2c1 0300 	movt	r3, #4096	; 0x1000
 8010bb6:	4da8      	ldr	r5, [pc, #672]	; (8010e58 <_GLOBAL__sub_I__ZN4quan3uav3osd8get_fontEm+0x1574>)
 8010bb8:	f64d 5181 	movw	r1, #56705	; 0xdd81
 8010bbc:	4622      	mov	r2, r4
 8010bbe:	f6c0 0100 	movt	r1, #2048	; 0x800
 8010bc2:	4618      	mov	r0, r3
 8010bc4:	601d      	str	r5, [r3, #0]
 8010bc6:	f004 fa59 	bl	801507c <__aeabi_atexit>
 8010bca:	f640 4308 	movw	r3, #3080	; 0xc08
 8010bce:	f2c1 0300 	movt	r3, #4096	; 0x1000
 8010bd2:	4da2      	ldr	r5, [pc, #648]	; (8010e5c <_GLOBAL__sub_I__ZN4quan3uav3osd8get_fontEm+0x1578>)
 8010bd4:	f64d 5175 	movw	r1, #56693	; 0xdd75
 8010bd8:	4622      	mov	r2, r4
 8010bda:	f6c0 0100 	movt	r1, #2048	; 0x800
 8010bde:	4618      	mov	r0, r3
 8010be0:	601d      	str	r5, [r3, #0]
 8010be2:	f004 fa4b 	bl	801507c <__aeabi_atexit>
 8010be6:	f640 432c 	movw	r3, #3116	; 0xc2c
 8010bea:	f2c1 0300 	movt	r3, #4096	; 0x1000
 8010bee:	4d9c      	ldr	r5, [pc, #624]	; (8010e60 <_GLOBAL__sub_I__ZN4quan3uav3osd8get_fontEm+0x157c>)
 8010bf0:	f64d 5169 	movw	r1, #56681	; 0xdd69
 8010bf4:	4622      	mov	r2, r4
 8010bf6:	f6c0 0100 	movt	r1, #2048	; 0x800
 8010bfa:	4618      	mov	r0, r3
 8010bfc:	601d      	str	r5, [r3, #0]
 8010bfe:	f004 fa3d 	bl	801507c <__aeabi_atexit>
 8010c02:	f640 4348 	movw	r3, #3144	; 0xc48
 8010c06:	f2c1 0300 	movt	r3, #4096	; 0x1000
 8010c0a:	4d96      	ldr	r5, [pc, #600]	; (8010e64 <_GLOBAL__sub_I__ZN4quan3uav3osd8get_fontEm+0x1580>)
 8010c0c:	f64d 515d 	movw	r1, #56669	; 0xdd5d
 8010c10:	4622      	mov	r2, r4
 8010c12:	f6c0 0100 	movt	r1, #2048	; 0x800
 8010c16:	4618      	mov	r0, r3
 8010c18:	601d      	str	r5, [r3, #0]
 8010c1a:	f004 fa2f 	bl	801507c <__aeabi_atexit>
 8010c1e:	f640 0368 	movw	r3, #2152	; 0x868
 8010c22:	f2c1 0300 	movt	r3, #4096	; 0x1000
 8010c26:	4d90      	ldr	r5, [pc, #576]	; (8010e68 <_GLOBAL__sub_I__ZN4quan3uav3osd8get_fontEm+0x1584>)
 8010c28:	f64d 5151 	movw	r1, #56657	; 0xdd51
 8010c2c:	4622      	mov	r2, r4
 8010c2e:	f6c0 0100 	movt	r1, #2048	; 0x800
 8010c32:	4618      	mov	r0, r3
 8010c34:	601d      	str	r5, [r3, #0]
 8010c36:	f004 fa21 	bl	801507c <__aeabi_atexit>
 8010c3a:	f640 138c 	movw	r3, #2444	; 0x98c
 8010c3e:	f2c1 0300 	movt	r3, #4096	; 0x1000
 8010c42:	4d8a      	ldr	r5, [pc, #552]	; (8010e6c <_GLOBAL__sub_I__ZN4quan3uav3osd8get_fontEm+0x1588>)
 8010c44:	f64d 5145 	movw	r1, #56645	; 0xdd45
 8010c48:	4622      	mov	r2, r4
 8010c4a:	f6c0 0100 	movt	r1, #2048	; 0x800
 8010c4e:	4618      	mov	r0, r3
 8010c50:	601d      	str	r5, [r3, #0]
 8010c52:	f004 fa13 	bl	801507c <__aeabi_atexit>
 8010c56:	f640 03b4 	movw	r3, #2228	; 0x8b4
 8010c5a:	f2c1 0300 	movt	r3, #4096	; 0x1000
 8010c5e:	4d84      	ldr	r5, [pc, #528]	; (8010e70 <_GLOBAL__sub_I__ZN4quan3uav3osd8get_fontEm+0x158c>)
 8010c60:	f64d 5139 	movw	r1, #56633	; 0xdd39
 8010c64:	4622      	mov	r2, r4
 8010c66:	f6c0 0100 	movt	r1, #2048	; 0x800
 8010c6a:	4618      	mov	r0, r3
 8010c6c:	601d      	str	r5, [r3, #0]
 8010c6e:	f004 fa05 	bl	801507c <__aeabi_atexit>
 8010c72:	f640 03d8 	movw	r3, #2264	; 0x8d8
 8010c76:	f2c1 0300 	movt	r3, #4096	; 0x1000
 8010c7a:	4d7e      	ldr	r5, [pc, #504]	; (8010e74 <_GLOBAL__sub_I__ZN4quan3uav3osd8get_fontEm+0x1590>)
 8010c7c:	f64d 512d 	movw	r1, #56621	; 0xdd2d
 8010c80:	4622      	mov	r2, r4
 8010c82:	f6c0 0100 	movt	r1, #2048	; 0x800
 8010c86:	4618      	mov	r0, r3
 8010c88:	601d      	str	r5, [r3, #0]
 8010c8a:	f004 f9f7 	bl	801507c <__aeabi_atexit>
 8010c8e:	f640 03f8 	movw	r3, #2296	; 0x8f8
 8010c92:	f2c1 0300 	movt	r3, #4096	; 0x1000
 8010c96:	4d78      	ldr	r5, [pc, #480]	; (8010e78 <_GLOBAL__sub_I__ZN4quan3uav3osd8get_fontEm+0x1594>)
 8010c98:	f64d 5121 	movw	r1, #56609	; 0xdd21
 8010c9c:	4622      	mov	r2, r4
 8010c9e:	f6c0 0100 	movt	r1, #2048	; 0x800
 8010ca2:	4618      	mov	r0, r3
 8010ca4:	601d      	str	r5, [r3, #0]
 8010ca6:	f004 f9e9 	bl	801507c <__aeabi_atexit>
 8010caa:	f640 131c 	movw	r3, #2332	; 0x91c
 8010cae:	f2c1 0300 	movt	r3, #4096	; 0x1000
 8010cb2:	4d72      	ldr	r5, [pc, #456]	; (8010e7c <_GLOBAL__sub_I__ZN4quan3uav3osd8get_fontEm+0x1598>)
 8010cb4:	f64d 5115 	movw	r1, #56597	; 0xdd15
 8010cb8:	4622      	mov	r2, r4
 8010cba:	f6c0 0100 	movt	r1, #2048	; 0x800
 8010cbe:	4618      	mov	r0, r3
 8010cc0:	601d      	str	r5, [r3, #0]
 8010cc2:	f004 f9db 	bl	801507c <__aeabi_atexit>
 8010cc6:	f640 33e8 	movw	r3, #3048	; 0xbe8
 8010cca:	f2c1 0300 	movt	r3, #4096	; 0x1000
 8010cce:	4d6c      	ldr	r5, [pc, #432]	; (8010e80 <_GLOBAL__sub_I__ZN4quan3uav3osd8get_fontEm+0x159c>)
 8010cd0:	f64d 5109 	movw	r1, #56585	; 0xdd09
 8010cd4:	4622      	mov	r2, r4
 8010cd6:	f6c0 0100 	movt	r1, #2048	; 0x800
 8010cda:	4618      	mov	r0, r3
 8010cdc:	601d      	str	r5, [r3, #0]
 8010cde:	f004 f9cd 	bl	801507c <__aeabi_atexit>
 8010ce2:	f640 03e0 	movw	r3, #2272	; 0x8e0
 8010ce6:	f2c1 0300 	movt	r3, #4096	; 0x1000
 8010cea:	4d66      	ldr	r5, [pc, #408]	; (8010e84 <_GLOBAL__sub_I__ZN4quan3uav3osd8get_fontEm+0x15a0>)
 8010cec:	f64d 41fd 	movw	r1, #56573	; 0xdcfd
 8010cf0:	4622      	mov	r2, r4
 8010cf2:	f6c0 0100 	movt	r1, #2048	; 0x800
 8010cf6:	4618      	mov	r0, r3
 8010cf8:	601d      	str	r5, [r3, #0]
 8010cfa:	f004 f9bf 	bl	801507c <__aeabi_atexit>
 8010cfe:	f640 33a0 	movw	r3, #2976	; 0xba0
 8010d02:	f2c1 0300 	movt	r3, #4096	; 0x1000
 8010d06:	4d60      	ldr	r5, [pc, #384]	; (8010e88 <_GLOBAL__sub_I__ZN4quan3uav3osd8get_fontEm+0x15a4>)
 8010d08:	f64d 41f1 	movw	r1, #56561	; 0xdcf1
 8010d0c:	4622      	mov	r2, r4
 8010d0e:	f6c0 0100 	movt	r1, #2048	; 0x800
 8010d12:	4618      	mov	r0, r3
 8010d14:	601d      	str	r5, [r3, #0]
 8010d16:	f004 f9b1 	bl	801507c <__aeabi_atexit>
 8010d1a:	f640 1324 	movw	r3, #2340	; 0x924
 8010d1e:	f2c1 0300 	movt	r3, #4096	; 0x1000
 8010d22:	4d5a      	ldr	r5, [pc, #360]	; (8010e8c <_GLOBAL__sub_I__ZN4quan3uav3osd8get_fontEm+0x15a8>)
 8010d24:	f64d 41e5 	movw	r1, #56549	; 0xdce5
 8010d28:	4622      	mov	r2, r4
 8010d2a:	f6c0 0100 	movt	r1, #2048	; 0x800
 8010d2e:	4618      	mov	r0, r3
 8010d30:	601d      	str	r5, [r3, #0]
 8010d32:	f004 f9a3 	bl	801507c <__aeabi_atexit>
 8010d36:	f640 134c 	movw	r3, #2380	; 0x94c
 8010d3a:	f2c1 0300 	movt	r3, #4096	; 0x1000
 8010d3e:	4d54      	ldr	r5, [pc, #336]	; (8010e90 <_GLOBAL__sub_I__ZN4quan3uav3osd8get_fontEm+0x15ac>)
 8010d40:	f64d 41d9 	movw	r1, #56537	; 0xdcd9
 8010d44:	4622      	mov	r2, r4
 8010d46:	f6c0 0100 	movt	r1, #2048	; 0x800
 8010d4a:	4618      	mov	r0, r3
 8010d4c:	601d      	str	r5, [r3, #0]
 8010d4e:	f004 f995 	bl	801507c <__aeabi_atexit>
 8010d52:	f640 136c 	movw	r3, #2412	; 0x96c
 8010d56:	f2c1 0300 	movt	r3, #4096	; 0x1000
 8010d5a:	4d4e      	ldr	r5, [pc, #312]	; (8010e94 <_GLOBAL__sub_I__ZN4quan3uav3osd8get_fontEm+0x15b0>)
 8010d5c:	f64d 41cd 	movw	r1, #56525	; 0xdccd
 8010d60:	4622      	mov	r2, r4
 8010d62:	f6c0 0100 	movt	r1, #2048	; 0x800
 8010d66:	4618      	mov	r0, r3
 8010d68:	601d      	str	r5, [r3, #0]
 8010d6a:	f004 f987 	bl	801507c <__aeabi_atexit>
 8010d6e:	f640 1394 	movw	r3, #2452	; 0x994
 8010d72:	f2c1 0300 	movt	r3, #4096	; 0x1000
 8010d76:	4d48      	ldr	r5, [pc, #288]	; (8010e98 <_GLOBAL__sub_I__ZN4quan3uav3osd8get_fontEm+0x15b4>)
 8010d78:	f64d 41c1 	movw	r1, #56513	; 0xdcc1
 8010d7c:	4622      	mov	r2, r4
 8010d7e:	f6c0 0100 	movt	r1, #2048	; 0x800
 8010d82:	4618      	mov	r0, r3
 8010d84:	601d      	str	r5, [r3, #0]
 8010d86:	f004 f979 	bl	801507c <__aeabi_atexit>
 8010d8a:	f640 13c0 	movw	r3, #2496	; 0x9c0
 8010d8e:	f2c1 0300 	movt	r3, #4096	; 0x1000
 8010d92:	4d42      	ldr	r5, [pc, #264]	; (8010e9c <_GLOBAL__sub_I__ZN4quan3uav3osd8get_fontEm+0x15b8>)
 8010d94:	f64d 41b5 	movw	r1, #56501	; 0xdcb5
 8010d98:	4622      	mov	r2, r4
 8010d9a:	f6c0 0100 	movt	r1, #2048	; 0x800
 8010d9e:	4618      	mov	r0, r3
 8010da0:	601d      	str	r5, [r3, #0]
 8010da2:	f004 f96b 	bl	801507c <__aeabi_atexit>
 8010da6:	f640 2324 	movw	r3, #2596	; 0xa24
 8010daa:	f2c1 0300 	movt	r3, #4096	; 0x1000
 8010dae:	4d3c      	ldr	r5, [pc, #240]	; (8010ea0 <_GLOBAL__sub_I__ZN4quan3uav3osd8get_fontEm+0x15bc>)
 8010db0:	f64d 41a9 	movw	r1, #56489	; 0xdca9
 8010db4:	4622      	mov	r2, r4
 8010db6:	f6c0 0100 	movt	r1, #2048	; 0x800
 8010dba:	4618      	mov	r0, r3
 8010dbc:	601d      	str	r5, [r3, #0]
 8010dbe:	f004 f95d 	bl	801507c <__aeabi_atexit>
 8010dc2:	f640 2304 	movw	r3, #2564	; 0xa04
 8010dc6:	f2c1 0300 	movt	r3, #4096	; 0x1000
 8010dca:	4d36      	ldr	r5, [pc, #216]	; (8010ea4 <_GLOBAL__sub_I__ZN4quan3uav3osd8get_fontEm+0x15c0>)
 8010dcc:	f64d 419d 	movw	r1, #56477	; 0xdc9d
 8010dd0:	4622      	mov	r2, r4
 8010dd2:	f6c0 0100 	movt	r1, #2048	; 0x800
 8010dd6:	4618      	mov	r0, r3
 8010dd8:	601d      	str	r5, [r3, #0]
 8010dda:	f004 f94f 	bl	801507c <__aeabi_atexit>
 8010dde:	f640 139c 	movw	r3, #2460	; 0x99c
 8010de2:	f2c1 0300 	movt	r3, #4096	; 0x1000
 8010de6:	4d30      	ldr	r5, [pc, #192]	; (8010ea8 <_GLOBAL__sub_I__ZN4quan3uav3osd8get_fontEm+0x15c4>)
 8010de8:	f64d 4191 	movw	r1, #56465	; 0xdc91
 8010dec:	4622      	mov	r2, r4
 8010dee:	f6c0 0100 	movt	r1, #2048	; 0x800
 8010df2:	4618      	mov	r0, r3
 8010df4:	601d      	str	r5, [r3, #0]
 8010df6:	f004 f941 	bl	801507c <__aeabi_atexit>
 8010dfa:	f640 13c8 	movw	r3, #2504	; 0x9c8
 8010dfe:	f2c1 0300 	movt	r3, #4096	; 0x1000
 8010e02:	4d2a      	ldr	r5, [pc, #168]	; (8010eac <_GLOBAL__sub_I__ZN4quan3uav3osd8get_fontEm+0x15c8>)
 8010e04:	f64d 4185 	movw	r1, #56453	; 0xdc85
 8010e08:	4622      	mov	r2, r4
 8010e0a:	f6c0 0100 	movt	r1, #2048	; 0x800
 8010e0e:	4618      	mov	r0, r3
 8010e10:	601d      	str	r5, [r3, #0]
 8010e12:	f004 f933 	bl	801507c <__aeabi_atexit>
 8010e16:	f640 13e4 	movw	r3, #2532	; 0x9e4
 8010e1a:	f2c1 0300 	movt	r3, #4096	; 0x1000
 8010e1e:	4d24      	ldr	r5, [pc, #144]	; (8010eb0 <_GLOBAL__sub_I__ZN4quan3uav3osd8get_fontEm+0x15cc>)
 8010e20:	f64d 4179 	movw	r1, #56441	; 0xdc79
 8010e24:	4622      	mov	r2, r4
 8010e26:	f6c0 0100 	movt	r1, #2048	; 0x800
 8010e2a:	4618      	mov	r0, r3
 8010e2c:	601d      	str	r5, [r3, #0]
 8010e2e:	f004 f925 	bl	801507c <__aeabi_atexit>
 8010e32:	f640 230c 	movw	r3, #2572	; 0xa0c
 8010e36:	f2c1 0300 	movt	r3, #4096	; 0x1000
 8010e3a:	4d1e      	ldr	r5, [pc, #120]	; (8010eb4 <_GLOBAL__sub_I__ZN4quan3uav3osd8get_fontEm+0x15d0>)
 8010e3c:	f64d 416d 	movw	r1, #56429	; 0xdc6d
 8010e40:	e03a      	b.n	8010eb8 <_GLOBAL__sub_I__ZN4quan3uav3osd8get_fontEm+0x15d4>
 8010e42:	bf00      	nop
 8010e44:	080190f0 	.word	0x080190f0
 8010e48:	08019980 	.word	0x08019980
 8010e4c:	08019e18 	.word	0x08019e18
 8010e50:	0801a280 	.word	0x0801a280
 8010e54:	0801a618 	.word	0x0801a618
 8010e58:	080160a0 	.word	0x080160a0
 8010e5c:	080164b8 	.word	0x080164b8
 8010e60:	08016808 	.word	0x08016808
 8010e64:	08016cc8 	.word	0x08016cc8
 8010e68:	08017098 	.word	0x08017098
 8010e6c:	0801a2b0 	.word	0x0801a2b0
 8010e70:	0801a298 	.word	0x0801a298
 8010e74:	08017c70 	.word	0x08017c70
 8010e78:	08018020 	.word	0x08018020
 8010e7c:	080185a8 	.word	0x080185a8
 8010e80:	080196e8 	.word	0x080196e8
 8010e84:	08019b98 	.word	0x08019b98
 8010e88:	0801a028 	.word	0x0801a028
 8010e8c:	0801a450 	.word	0x0801a450
 8010e90:	08018330 	.word	0x08018330
 8010e94:	0801ac48 	.word	0x0801ac48
 8010e98:	0801af48 	.word	0x0801af48
 8010e9c:	08017080 	.word	0x08017080
 8010ea0:	08016340 	.word	0x08016340
 8010ea4:	08016750 	.word	0x08016750
 8010ea8:	08016fe8 	.word	0x08016fe8
 8010eac:	080179e8 	.word	0x080179e8
 8010eb0:	08017e78 	.word	0x08017e78
 8010eb4:	08017610 	.word	0x08017610
 8010eb8:	4622      	mov	r2, r4
 8010eba:	f6c0 0100 	movt	r1, #2048	; 0x800
 8010ebe:	4618      	mov	r0, r3
 8010ec0:	601d      	str	r5, [r3, #0]
 8010ec2:	f004 f8db 	bl	801507c <__aeabi_atexit>
 8010ec6:	f640 2330 	movw	r3, #2608	; 0xa30
 8010eca:	f2c1 0300 	movt	r3, #4096	; 0x1000
 8010ece:	4dc6      	ldr	r5, [pc, #792]	; (80111e8 <_GLOBAL__sub_I__ZN4quan3uav3osd8get_fontEm+0x1904>)
 8010ed0:	f64d 4161 	movw	r1, #56417	; 0xdc61
 8010ed4:	4622      	mov	r2, r4
 8010ed6:	f6c0 0100 	movt	r1, #2048	; 0x800
 8010eda:	4618      	mov	r0, r3
 8010edc:	601d      	str	r5, [r3, #0]
 8010ede:	f004 f8cd 	bl	801507c <__aeabi_atexit>
 8010ee2:	f640 2354 	movw	r3, #2644	; 0xa54
 8010ee6:	f2c1 0300 	movt	r3, #4096	; 0x1000
 8010eea:	4dc0      	ldr	r5, [pc, #768]	; (80111ec <_GLOBAL__sub_I__ZN4quan3uav3osd8get_fontEm+0x1908>)
 8010eec:	f64d 4155 	movw	r1, #56405	; 0xdc55
 8010ef0:	4622      	mov	r2, r4
 8010ef2:	f6c0 0100 	movt	r1, #2048	; 0x800
 8010ef6:	4618      	mov	r0, r3
 8010ef8:	601d      	str	r5, [r3, #0]
 8010efa:	f004 f8bf 	bl	801507c <__aeabi_atexit>
 8010efe:	f640 2380 	movw	r3, #2688	; 0xa80
 8010f02:	f2c1 0300 	movt	r3, #4096	; 0x1000
 8010f06:	4dba      	ldr	r5, [pc, #744]	; (80111f0 <_GLOBAL__sub_I__ZN4quan3uav3osd8get_fontEm+0x190c>)
 8010f08:	f64d 4149 	movw	r1, #56393	; 0xdc49
 8010f0c:	4622      	mov	r2, r4
 8010f0e:	f6c0 0100 	movt	r1, #2048	; 0x800
 8010f12:	4618      	mov	r0, r3
 8010f14:	601d      	str	r5, [r3, #0]
 8010f16:	f004 f8b1 	bl	801507c <__aeabi_atexit>
 8010f1a:	f640 23a0 	movw	r3, #2720	; 0xaa0
 8010f1e:	f2c1 0300 	movt	r3, #4096	; 0x1000
 8010f22:	4db4      	ldr	r5, [pc, #720]	; (80111f4 <_GLOBAL__sub_I__ZN4quan3uav3osd8get_fontEm+0x1910>)
 8010f24:	f64d 413d 	movw	r1, #56381	; 0xdc3d
 8010f28:	4622      	mov	r2, r4
 8010f2a:	f6c0 0100 	movt	r1, #2048	; 0x800
 8010f2e:	4618      	mov	r0, r3
 8010f30:	601d      	str	r5, [r3, #0]
 8010f32:	f004 f8a3 	bl	801507c <__aeabi_atexit>
 8010f36:	f640 23bc 	movw	r3, #2748	; 0xabc
 8010f3a:	f2c1 0300 	movt	r3, #4096	; 0x1000
 8010f3e:	4dae      	ldr	r5, [pc, #696]	; (80111f8 <_GLOBAL__sub_I__ZN4quan3uav3osd8get_fontEm+0x1914>)
 8010f40:	f64d 4131 	movw	r1, #56369	; 0xdc31
 8010f44:	4622      	mov	r2, r4
 8010f46:	f6c0 0100 	movt	r1, #2048	; 0x800
 8010f4a:	4618      	mov	r0, r3
 8010f4c:	601d      	str	r5, [r3, #0]
 8010f4e:	f004 f895 	bl	801507c <__aeabi_atexit>
 8010f52:	f640 23e0 	movw	r3, #2784	; 0xae0
 8010f56:	f2c1 0300 	movt	r3, #4096	; 0x1000
 8010f5a:	4da8      	ldr	r5, [pc, #672]	; (80111fc <_GLOBAL__sub_I__ZN4quan3uav3osd8get_fontEm+0x1918>)
 8010f5c:	f64d 4125 	movw	r1, #56357	; 0xdc25
 8010f60:	4622      	mov	r2, r4
 8010f62:	f6c0 0100 	movt	r1, #2048	; 0x800
 8010f66:	4618      	mov	r0, r3
 8010f68:	601d      	str	r5, [r3, #0]
 8010f6a:	f004 f887 	bl	801507c <__aeabi_atexit>
 8010f6e:	f640 1304 	movw	r3, #2308	; 0x904
 8010f72:	f2c1 0300 	movt	r3, #4096	; 0x1000
 8010f76:	4da2      	ldr	r5, [pc, #648]	; (8011200 <_GLOBAL__sub_I__ZN4quan3uav3osd8get_fontEm+0x191c>)
 8010f78:	f64d 4119 	movw	r1, #56345	; 0xdc19
 8010f7c:	4622      	mov	r2, r4
 8010f7e:	f6c0 0100 	movt	r1, #2048	; 0x800
 8010f82:	4618      	mov	r0, r3
 8010f84:	601d      	str	r5, [r3, #0]
 8010f86:	f004 f879 	bl	801507c <__aeabi_atexit>
 8010f8a:	f640 1350 	movw	r3, #2384	; 0x950
 8010f8e:	f2c1 0300 	movt	r3, #4096	; 0x1000
 8010f92:	4d9c      	ldr	r5, [pc, #624]	; (8011204 <_GLOBAL__sub_I__ZN4quan3uav3osd8get_fontEm+0x1920>)
 8010f94:	f64d 410d 	movw	r1, #56333	; 0xdc0d
 8010f98:	4622      	mov	r2, r4
 8010f9a:	f6c0 0100 	movt	r1, #2048	; 0x800
 8010f9e:	4618      	mov	r0, r3
 8010fa0:	601d      	str	r5, [r3, #0]
 8010fa2:	f004 f86b 	bl	801507c <__aeabi_atexit>
 8010fa6:	f640 23c4 	movw	r3, #2756	; 0xac4
 8010faa:	f2c1 0300 	movt	r3, #4096	; 0x1000
 8010fae:	4d96      	ldr	r5, [pc, #600]	; (8011208 <_GLOBAL__sub_I__ZN4quan3uav3osd8get_fontEm+0x1924>)
 8010fb0:	f64d 4101 	movw	r1, #56321	; 0xdc01
 8010fb4:	4622      	mov	r2, r4
 8010fb6:	f6c0 0100 	movt	r1, #2048	; 0x800
 8010fba:	4618      	mov	r0, r3
 8010fbc:	601d      	str	r5, [r3, #0]
 8010fbe:	f004 f85d 	bl	801507c <__aeabi_atexit>
 8010fc2:	f640 23e4 	movw	r3, #2788	; 0xae4
 8010fc6:	f2c1 0300 	movt	r3, #4096	; 0x1000
 8010fca:	4d90      	ldr	r5, [pc, #576]	; (801120c <_GLOBAL__sub_I__ZN4quan3uav3osd8get_fontEm+0x1928>)
 8010fcc:	f64d 31f5 	movw	r1, #56309	; 0xdbf5
 8010fd0:	4622      	mov	r2, r4
 8010fd2:	f6c0 0100 	movt	r1, #2048	; 0x800
 8010fd6:	4618      	mov	r0, r3
 8010fd8:	601d      	str	r5, [r3, #0]
 8010fda:	f004 f84f 	bl	801507c <__aeabi_atexit>
 8010fde:	f640 2338 	movw	r3, #2616	; 0xa38
 8010fe2:	f2c1 0300 	movt	r3, #4096	; 0x1000
 8010fe6:	4d8a      	ldr	r5, [pc, #552]	; (8011210 <_GLOBAL__sub_I__ZN4quan3uav3osd8get_fontEm+0x192c>)
 8010fe8:	f64d 31e9 	movw	r1, #56297	; 0xdbe9
 8010fec:	4622      	mov	r2, r4
 8010fee:	f6c0 0100 	movt	r1, #2048	; 0x800
 8010ff2:	4618      	mov	r0, r3
 8010ff4:	601d      	str	r5, [r3, #0]
 8010ff6:	f004 f841 	bl	801507c <__aeabi_atexit>
 8010ffa:	f640 330c 	movw	r3, #2828	; 0xb0c
 8010ffe:	f2c1 0300 	movt	r3, #4096	; 0x1000
 8011002:	4d84      	ldr	r5, [pc, #528]	; (8011214 <_GLOBAL__sub_I__ZN4quan3uav3osd8get_fontEm+0x1930>)
 8011004:	f64d 31dd 	movw	r1, #56285	; 0xdbdd
 8011008:	4622      	mov	r2, r4
 801100a:	f6c0 0100 	movt	r1, #2048	; 0x800
 801100e:	4618      	mov	r0, r3
 8011010:	601d      	str	r5, [r3, #0]
 8011012:	f004 f833 	bl	801507c <__aeabi_atexit>
 8011016:	f640 332c 	movw	r3, #2860	; 0xb2c
 801101a:	f2c1 0300 	movt	r3, #4096	; 0x1000
 801101e:	4d7e      	ldr	r5, [pc, #504]	; (8011218 <_GLOBAL__sub_I__ZN4quan3uav3osd8get_fontEm+0x1934>)
 8011020:	f64d 31d1 	movw	r1, #56273	; 0xdbd1
 8011024:	4622      	mov	r2, r4
 8011026:	f6c0 0100 	movt	r1, #2048	; 0x800
 801102a:	4618      	mov	r0, r3
 801102c:	601d      	str	r5, [r3, #0]
 801102e:	f004 f825 	bl	801507c <__aeabi_atexit>
 8011032:	f640 3344 	movw	r3, #2884	; 0xb44
 8011036:	f2c1 0300 	movt	r3, #4096	; 0x1000
 801103a:	4d78      	ldr	r5, [pc, #480]	; (801121c <_GLOBAL__sub_I__ZN4quan3uav3osd8get_fontEm+0x1938>)
 801103c:	f64d 31c5 	movw	r1, #56261	; 0xdbc5
 8011040:	4622      	mov	r2, r4
 8011042:	f6c0 0100 	movt	r1, #2048	; 0x800
 8011046:	4618      	mov	r0, r3
 8011048:	601d      	str	r5, [r3, #0]
 801104a:	f004 f817 	bl	801507c <__aeabi_atexit>
 801104e:	f640 3360 	movw	r3, #2912	; 0xb60
 8011052:	f2c1 0300 	movt	r3, #4096	; 0x1000
 8011056:	4d72      	ldr	r5, [pc, #456]	; (8011220 <_GLOBAL__sub_I__ZN4quan3uav3osd8get_fontEm+0x193c>)
 8011058:	f64d 31b9 	movw	r1, #56249	; 0xdbb9
 801105c:	4622      	mov	r2, r4
 801105e:	f6c0 0100 	movt	r1, #2048	; 0x800
 8011062:	4618      	mov	r0, r3
 8011064:	601d      	str	r5, [r3, #0]
 8011066:	f004 f809 	bl	801507c <__aeabi_atexit>
 801106a:	f640 337c 	movw	r3, #2940	; 0xb7c
 801106e:	f2c1 0300 	movt	r3, #4096	; 0x1000
 8011072:	4d6c      	ldr	r5, [pc, #432]	; (8011224 <_GLOBAL__sub_I__ZN4quan3uav3osd8get_fontEm+0x1940>)
 8011074:	f64d 31ad 	movw	r1, #56237	; 0xdbad
 8011078:	4622      	mov	r2, r4
 801107a:	f6c0 0100 	movt	r1, #2048	; 0x800
 801107e:	4618      	mov	r0, r3
 8011080:	601d      	str	r5, [r3, #0]
 8011082:	f003 fffb 	bl	801507c <__aeabi_atexit>
 8011086:	f640 3330 	movw	r3, #2864	; 0xb30
 801108a:	f2c1 0300 	movt	r3, #4096	; 0x1000
 801108e:	4d66      	ldr	r5, [pc, #408]	; (8011228 <_GLOBAL__sub_I__ZN4quan3uav3osd8get_fontEm+0x1944>)
 8011090:	f64d 31a1 	movw	r1, #56225	; 0xdba1
 8011094:	4622      	mov	r2, r4
 8011096:	f6c0 0100 	movt	r1, #2048	; 0x800
 801109a:	4618      	mov	r0, r3
 801109c:	601d      	str	r5, [r3, #0]
 801109e:	f003 ffed 	bl	801507c <__aeabi_atexit>
 80110a2:	f640 3348 	movw	r3, #2888	; 0xb48
 80110a6:	f2c1 0300 	movt	r3, #4096	; 0x1000
 80110aa:	4d60      	ldr	r5, [pc, #384]	; (801122c <_GLOBAL__sub_I__ZN4quan3uav3osd8get_fontEm+0x1948>)
 80110ac:	f64d 3195 	movw	r1, #56213	; 0xdb95
 80110b0:	4622      	mov	r2, r4
 80110b2:	f6c0 0100 	movt	r1, #2048	; 0x800
 80110b6:	4618      	mov	r0, r3
 80110b8:	601d      	str	r5, [r3, #0]
 80110ba:	f003 ffdf 	bl	801507c <__aeabi_atexit>
 80110be:	f640 3364 	movw	r3, #2916	; 0xb64
 80110c2:	f2c1 0300 	movt	r3, #4096	; 0x1000
 80110c6:	4d5a      	ldr	r5, [pc, #360]	; (8011230 <_GLOBAL__sub_I__ZN4quan3uav3osd8get_fontEm+0x194c>)
 80110c8:	f64d 3189 	movw	r1, #56201	; 0xdb89
 80110cc:	4622      	mov	r2, r4
 80110ce:	f6c0 0100 	movt	r1, #2048	; 0x800
 80110d2:	4618      	mov	r0, r3
 80110d4:	601d      	str	r5, [r3, #0]
 80110d6:	f003 ffd1 	bl	801507c <__aeabi_atexit>
 80110da:	f640 3380 	movw	r3, #2944	; 0xb80
 80110de:	f2c1 0300 	movt	r3, #4096	; 0x1000
 80110e2:	4d54      	ldr	r5, [pc, #336]	; (8011234 <_GLOBAL__sub_I__ZN4quan3uav3osd8get_fontEm+0x1950>)
 80110e4:	f64d 317d 	movw	r1, #56189	; 0xdb7d
 80110e8:	4622      	mov	r2, r4
 80110ea:	f6c0 0100 	movt	r1, #2048	; 0x800
 80110ee:	4618      	mov	r0, r3
 80110f0:	601d      	str	r5, [r3, #0]
 80110f2:	f003 ffc3 	bl	801507c <__aeabi_atexit>
 80110f6:	f640 33a8 	movw	r3, #2984	; 0xba8
 80110fa:	f2c1 0300 	movt	r3, #4096	; 0x1000
 80110fe:	4d4e      	ldr	r5, [pc, #312]	; (8011238 <_GLOBAL__sub_I__ZN4quan3uav3osd8get_fontEm+0x1954>)
 8011100:	f64d 3171 	movw	r1, #56177	; 0xdb71
 8011104:	4622      	mov	r2, r4
 8011106:	f6c0 0100 	movt	r1, #2048	; 0x800
 801110a:	4618      	mov	r0, r3
 801110c:	601d      	str	r5, [r3, #0]
 801110e:	f003 ffb5 	bl	801507c <__aeabi_atexit>
 8011112:	f640 4318 	movw	r3, #3096	; 0xc18
 8011116:	f2c1 0300 	movt	r3, #4096	; 0x1000
 801111a:	4d48      	ldr	r5, [pc, #288]	; (801123c <_GLOBAL__sub_I__ZN4quan3uav3osd8get_fontEm+0x1958>)
 801111c:	f64d 3165 	movw	r1, #56165	; 0xdb65
 8011120:	4622      	mov	r2, r4
 8011122:	f6c0 0100 	movt	r1, #2048	; 0x800
 8011126:	4618      	mov	r0, r3
 8011128:	601d      	str	r5, [r3, #0]
 801112a:	f003 ffa7 	bl	801507c <__aeabi_atexit>
 801112e:	f640 037c 	movw	r3, #2172	; 0x87c
 8011132:	f2c1 0300 	movt	r3, #4096	; 0x1000
 8011136:	4d42      	ldr	r5, [pc, #264]	; (8011240 <_GLOBAL__sub_I__ZN4quan3uav3osd8get_fontEm+0x195c>)
 8011138:	f64d 3159 	movw	r1, #56153	; 0xdb59
 801113c:	4622      	mov	r2, r4
 801113e:	f6c0 0100 	movt	r1, #2048	; 0x800
 8011142:	4618      	mov	r0, r3
 8011144:	601d      	str	r5, [r3, #0]
 8011146:	f003 ff99 	bl	801507c <__aeabi_atexit>
 801114a:	f640 430c 	movw	r3, #3084	; 0xc0c
 801114e:	f2c1 0300 	movt	r3, #4096	; 0x1000
 8011152:	4d3c      	ldr	r5, [pc, #240]	; (8011244 <_GLOBAL__sub_I__ZN4quan3uav3osd8get_fontEm+0x1960>)
 8011154:	f64d 314d 	movw	r1, #56141	; 0xdb4d
 8011158:	4622      	mov	r2, r4
 801115a:	f6c0 0100 	movt	r1, #2048	; 0x800
 801115e:	4618      	mov	r0, r3
 8011160:	601d      	str	r5, [r3, #0]
 8011162:	f003 ff8b 	bl	801507c <__aeabi_atexit>
 8011166:	f640 4330 	movw	r3, #3120	; 0xc30
 801116a:	f2c1 0300 	movt	r3, #4096	; 0x1000
 801116e:	4d36      	ldr	r5, [pc, #216]	; (8011248 <_GLOBAL__sub_I__ZN4quan3uav3osd8get_fontEm+0x1964>)
 8011170:	f64d 3141 	movw	r1, #56129	; 0xdb41
 8011174:	4622      	mov	r2, r4
 8011176:	f6c0 0100 	movt	r1, #2048	; 0x800
 801117a:	4618      	mov	r0, r3
 801117c:	601d      	str	r5, [r3, #0]
 801117e:	f003 ff7d 	bl	801507c <__aeabi_atexit>
 8011182:	f640 2398 	movw	r3, #2712	; 0xa98
 8011186:	f2c1 0300 	movt	r3, #4096	; 0x1000
 801118a:	4d30      	ldr	r5, [pc, #192]	; (801124c <_GLOBAL__sub_I__ZN4quan3uav3osd8get_fontEm+0x1968>)
 801118c:	f64d 3135 	movw	r1, #56117	; 0xdb35
 8011190:	4622      	mov	r2, r4
 8011192:	f6c0 0100 	movt	r1, #2048	; 0x800
 8011196:	4618      	mov	r0, r3
 8011198:	601d      	str	r5, [r3, #0]
 801119a:	f003 ff6f 	bl	801507c <__aeabi_atexit>
 801119e:	f640 03a4 	movw	r3, #2212	; 0x8a4
 80111a2:	f2c1 0300 	movt	r3, #4096	; 0x1000
 80111a6:	4d2a      	ldr	r5, [pc, #168]	; (8011250 <_GLOBAL__sub_I__ZN4quan3uav3osd8get_fontEm+0x196c>)
 80111a8:	f64d 3129 	movw	r1, #56105	; 0xdb29
 80111ac:	4622      	mov	r2, r4
 80111ae:	f6c0 0100 	movt	r1, #2048	; 0x800
 80111b2:	4618      	mov	r0, r3
 80111b4:	601d      	str	r5, [r3, #0]
 80111b6:	f003 ff61 	bl	801507c <__aeabi_atexit>
 80111ba:	f640 03f0 	movw	r3, #2288	; 0x8f0
 80111be:	f2c1 0300 	movt	r3, #4096	; 0x1000
 80111c2:	4d24      	ldr	r5, [pc, #144]	; (8011254 <_GLOBAL__sub_I__ZN4quan3uav3osd8get_fontEm+0x1970>)
 80111c4:	f64d 311d 	movw	r1, #56093	; 0xdb1d
 80111c8:	4622      	mov	r2, r4
 80111ca:	f6c0 0100 	movt	r1, #2048	; 0x800
 80111ce:	4618      	mov	r0, r3
 80111d0:	601d      	str	r5, [r3, #0]
 80111d2:	f003 ff53 	bl	801507c <__aeabi_atexit>
 80111d6:	f640 234c 	movw	r3, #2636	; 0xa4c
 80111da:	f2c1 0300 	movt	r3, #4096	; 0x1000
 80111de:	4d1e      	ldr	r5, [pc, #120]	; (8011258 <_GLOBAL__sub_I__ZN4quan3uav3osd8get_fontEm+0x1974>)
 80111e0:	f64d 3111 	movw	r1, #56081	; 0xdb11
 80111e4:	e03a      	b.n	801125c <_GLOBAL__sub_I__ZN4quan3uav3osd8get_fontEm+0x1978>
 80111e6:	bf00      	nop
 80111e8:	08018730 	.word	0x08018730
 80111ec:	08018a50 	.word	0x08018a50
 80111f0:	08018da0 	.word	0x08018da0
 80111f4:	08019630 	.word	0x08019630
 80111f8:	08016000 	.word	0x08016000
 80111fc:	08016438 	.word	0x08016438
 8011200:	0801ad68 	.word	0x0801ad68
 8011204:	08015d38 	.word	0x08015d38
 8011208:	080161b0 	.word	0x080161b0
 801120c:	08018a68 	.word	0x08018a68
 8011210:	0801a3d0 	.word	0x0801a3d0
 8011214:	08016d50 	.word	0x08016d50
 8011218:	0801a468 	.word	0x0801a468
 801121c:	08018e98 	.word	0x08018e98
 8011220:	08019680 	.word	0x08019680
 8011224:	08019b30 	.word	0x08019b30
 8011228:	08018be0 	.word	0x08018be0
 801122c:	08018f98 	.word	0x08018f98
 8011230:	080197f8 	.word	0x080197f8
 8011234:	08019c50 	.word	0x08019c50
 8011238:	080185d8 	.word	0x080185d8
 801123c:	08016a10 	.word	0x08016a10
 8011240:	08016d98 	.word	0x08016d98
 8011244:	08017280 	.word	0x08017280
 8011248:	08017570 	.word	0x08017570
 801124c:	08017930 	.word	0x08017930
 8011250:	08019e48 	.word	0x08019e48
 8011254:	0801a2c8 	.word	0x0801a2c8
 8011258:	0801a6a0 	.word	0x0801a6a0
 801125c:	4622      	mov	r2, r4
 801125e:	f6c0 0100 	movt	r1, #2048	; 0x800
 8011262:	4618      	mov	r0, r3
 8011264:	601d      	str	r5, [r3, #0]
 8011266:	f003 ff09 	bl	801507c <__aeabi_atexit>
 801126a:	f640 2374 	movw	r3, #2676	; 0xa74
 801126e:	f2c1 0300 	movt	r3, #4096	; 0x1000
 8011272:	4dc6      	ldr	r5, [pc, #792]	; (801158c <_GLOBAL__sub_I__ZN4quan3uav3osd8get_fontEm+0x1ca8>)
 8011274:	f64d 3105 	movw	r1, #56069	; 0xdb05
 8011278:	4622      	mov	r2, r4
 801127a:	f6c0 0100 	movt	r1, #2048	; 0x800
 801127e:	4618      	mov	r0, r3
 8011280:	601d      	str	r5, [r3, #0]
 8011282:	f003 fefb 	bl	801507c <__aeabi_atexit>
 8011286:	f640 239c 	movw	r3, #2716	; 0xa9c
 801128a:	f2c1 0300 	movt	r3, #4096	; 0x1000
 801128e:	4dc0      	ldr	r5, [pc, #768]	; (8011590 <_GLOBAL__sub_I__ZN4quan3uav3osd8get_fontEm+0x1cac>)
 8011290:	f64d 21f9 	movw	r1, #56057	; 0xdaf9
 8011294:	4622      	mov	r2, r4
 8011296:	f6c0 0100 	movt	r1, #2048	; 0x800
 801129a:	4618      	mov	r0, r3
 801129c:	601d      	str	r5, [r3, #0]
 801129e:	f003 feed 	bl	801507c <__aeabi_atexit>
 80112a2:	f640 23b4 	movw	r3, #2740	; 0xab4
 80112a6:	f2c1 0300 	movt	r3, #4096	; 0x1000
 80112aa:	4dba      	ldr	r5, [pc, #744]	; (8011594 <_GLOBAL__sub_I__ZN4quan3uav3osd8get_fontEm+0x1cb0>)
 80112ac:	f64d 21ed 	movw	r1, #56045	; 0xdaed
 80112b0:	4622      	mov	r2, r4
 80112b2:	f6c0 0100 	movt	r1, #2048	; 0x800
 80112b6:	4618      	mov	r0, r3
 80112b8:	601d      	str	r5, [r3, #0]
 80112ba:	f003 fedf 	bl	801507c <__aeabi_atexit>
 80112be:	f640 23d8 	movw	r3, #2776	; 0xad8
 80112c2:	f2c1 0300 	movt	r3, #4096	; 0x1000
 80112c6:	4db4      	ldr	r5, [pc, #720]	; (8011598 <_GLOBAL__sub_I__ZN4quan3uav3osd8get_fontEm+0x1cb4>)
 80112c8:	f64d 21e1 	movw	r1, #56033	; 0xdae1
 80112cc:	4622      	mov	r2, r4
 80112ce:	f6c0 0100 	movt	r1, #2048	; 0x800
 80112d2:	4618      	mov	r0, r3
 80112d4:	601d      	str	r5, [r3, #0]
 80112d6:	f003 fed1 	bl	801507c <__aeabi_atexit>
 80112da:	f640 23f8 	movw	r3, #2808	; 0xaf8
 80112de:	f2c1 0300 	movt	r3, #4096	; 0x1000
 80112e2:	4dae      	ldr	r5, [pc, #696]	; (801159c <_GLOBAL__sub_I__ZN4quan3uav3osd8get_fontEm+0x1cb8>)
 80112e4:	f64d 21d5 	movw	r1, #56021	; 0xdad5
 80112e8:	4622      	mov	r2, r4
 80112ea:	f6c0 0100 	movt	r1, #2048	; 0x800
 80112ee:	4618      	mov	r0, r3
 80112f0:	601d      	str	r5, [r3, #0]
 80112f2:	f003 fec3 	bl	801507c <__aeabi_atexit>
 80112f6:	f640 23ec 	movw	r3, #2796	; 0xaec
 80112fa:	f2c1 0300 	movt	r3, #4096	; 0x1000
 80112fe:	4da8      	ldr	r5, [pc, #672]	; (80115a0 <_GLOBAL__sub_I__ZN4quan3uav3osd8get_fontEm+0x1cbc>)
 8011300:	f64d 21c9 	movw	r1, #56009	; 0xdac9
 8011304:	4622      	mov	r2, r4
 8011306:	f6c0 0100 	movt	r1, #2048	; 0x800
 801130a:	4618      	mov	r0, r3
 801130c:	601d      	str	r5, [r3, #0]
 801130e:	f003 feb5 	bl	801507c <__aeabi_atexit>
 8011312:	f640 3318 	movw	r3, #2840	; 0xb18
 8011316:	f2c1 0300 	movt	r3, #4096	; 0x1000
 801131a:	4da2      	ldr	r5, [pc, #648]	; (80115a4 <_GLOBAL__sub_I__ZN4quan3uav3osd8get_fontEm+0x1cc0>)
 801131c:	f64d 21bd 	movw	r1, #55997	; 0xdabd
 8011320:	4622      	mov	r2, r4
 8011322:	f6c0 0100 	movt	r1, #2048	; 0x800
 8011326:	4618      	mov	r0, r3
 8011328:	601d      	str	r5, [r3, #0]
 801132a:	f003 fea7 	bl	801507c <__aeabi_atexit>
 801132e:	f640 2300 	movw	r3, #2560	; 0xa00
 8011332:	f2c1 0300 	movt	r3, #4096	; 0x1000
 8011336:	4d9c      	ldr	r5, [pc, #624]	; (80115a8 <_GLOBAL__sub_I__ZN4quan3uav3osd8get_fontEm+0x1cc4>)
 8011338:	f64d 21b1 	movw	r1, #55985	; 0xdab1
 801133c:	4622      	mov	r2, r4
 801133e:	f6c0 0100 	movt	r1, #2048	; 0x800
 8011342:	4618      	mov	r0, r3
 8011344:	601d      	str	r5, [r3, #0]
 8011346:	f003 fe99 	bl	801507c <__aeabi_atexit>
 801134a:	f640 2370 	movw	r3, #2672	; 0xa70
 801134e:	f2c1 0300 	movt	r3, #4096	; 0x1000
 8011352:	4d96      	ldr	r5, [pc, #600]	; (80115ac <_GLOBAL__sub_I__ZN4quan3uav3osd8get_fontEm+0x1cc8>)
 8011354:	f64d 21a5 	movw	r1, #55973	; 0xdaa5
 8011358:	4622      	mov	r2, r4
 801135a:	f6c0 0100 	movt	r1, #2048	; 0x800
 801135e:	4618      	mov	r0, r3
 8011360:	601d      	str	r5, [r3, #0]
 8011362:	f003 fe8b 	bl	801507c <__aeabi_atexit>
 8011366:	f640 3308 	movw	r3, #2824	; 0xb08
 801136a:	f2c1 0300 	movt	r3, #4096	; 0x1000
 801136e:	4d90      	ldr	r5, [pc, #576]	; (80115b0 <_GLOBAL__sub_I__ZN4quan3uav3osd8get_fontEm+0x1ccc>)
 8011370:	f64d 2199 	movw	r1, #55961	; 0xda99
 8011374:	4622      	mov	r2, r4
 8011376:	f6c0 0100 	movt	r1, #2048	; 0x800
 801137a:	4618      	mov	r0, r3
 801137c:	601d      	str	r5, [r3, #0]
 801137e:	f003 fe7d 	bl	801507c <__aeabi_atexit>
 8011382:	f640 3324 	movw	r3, #2852	; 0xb24
 8011386:	f2c1 0300 	movt	r3, #4096	; 0x1000
 801138a:	4d8a      	ldr	r5, [pc, #552]	; (80115b4 <_GLOBAL__sub_I__ZN4quan3uav3osd8get_fontEm+0x1cd0>)
 801138c:	f64d 218d 	movw	r1, #55949	; 0xda8d
 8011390:	4622      	mov	r2, r4
 8011392:	f6c0 0100 	movt	r1, #2048	; 0x800
 8011396:	4618      	mov	r0, r3
 8011398:	601d      	str	r5, [r3, #0]
 801139a:	f003 fe6f 	bl	801507c <__aeabi_atexit>
 801139e:	f640 3358 	movw	r3, #2904	; 0xb58
 80113a2:	f2c1 0300 	movt	r3, #4096	; 0x1000
 80113a6:	4d84      	ldr	r5, [pc, #528]	; (80115b8 <_GLOBAL__sub_I__ZN4quan3uav3osd8get_fontEm+0x1cd4>)
 80113a8:	f64d 2181 	movw	r1, #55937	; 0xda81
 80113ac:	4622      	mov	r2, r4
 80113ae:	f6c0 0100 	movt	r1, #2048	; 0x800
 80113b2:	4618      	mov	r0, r3
 80113b4:	601d      	str	r5, [r3, #0]
 80113b6:	f003 fe61 	bl	801507c <__aeabi_atexit>
 80113ba:	f640 3390 	movw	r3, #2960	; 0xb90
 80113be:	f2c1 0300 	movt	r3, #4096	; 0x1000
 80113c2:	4d7e      	ldr	r5, [pc, #504]	; (80115bc <_GLOBAL__sub_I__ZN4quan3uav3osd8get_fontEm+0x1cd8>)
 80113c4:	f64d 2175 	movw	r1, #55925	; 0xda75
 80113c8:	4622      	mov	r2, r4
 80113ca:	f6c0 0100 	movt	r1, #2048	; 0x800
 80113ce:	4618      	mov	r0, r3
 80113d0:	601d      	str	r5, [r3, #0]
 80113d2:	f003 fe53 	bl	801507c <__aeabi_atexit>
 80113d6:	f640 3374 	movw	r3, #2932	; 0xb74
 80113da:	f2c1 0300 	movt	r3, #4096	; 0x1000
 80113de:	4d78      	ldr	r5, [pc, #480]	; (80115c0 <_GLOBAL__sub_I__ZN4quan3uav3osd8get_fontEm+0x1cdc>)
 80113e0:	f64d 2169 	movw	r1, #55913	; 0xda69
 80113e4:	4622      	mov	r2, r4
 80113e6:	f6c0 0100 	movt	r1, #2048	; 0x800
 80113ea:	4618      	mov	r0, r3
 80113ec:	601d      	str	r5, [r3, #0]
 80113ee:	f003 fe45 	bl	801507c <__aeabi_atexit>
 80113f2:	f640 3398 	movw	r3, #2968	; 0xb98
 80113f6:	f2c1 0300 	movt	r3, #4096	; 0x1000
 80113fa:	4d72      	ldr	r5, [pc, #456]	; (80115c4 <_GLOBAL__sub_I__ZN4quan3uav3osd8get_fontEm+0x1ce0>)
 80113fc:	f64d 215d 	movw	r1, #55901	; 0xda5d
 8011400:	4622      	mov	r2, r4
 8011402:	f6c0 0100 	movt	r1, #2048	; 0x800
 8011406:	4618      	mov	r0, r3
 8011408:	601d      	str	r5, [r3, #0]
 801140a:	f003 fe37 	bl	801507c <__aeabi_atexit>
 801140e:	f640 33bc 	movw	r3, #3004	; 0xbbc
 8011412:	f2c1 0300 	movt	r3, #4096	; 0x1000
 8011416:	4d6c      	ldr	r5, [pc, #432]	; (80115c8 <_GLOBAL__sub_I__ZN4quan3uav3osd8get_fontEm+0x1ce4>)
 8011418:	f64d 2151 	movw	r1, #55889	; 0xda51
 801141c:	4622      	mov	r2, r4
 801141e:	f6c0 0100 	movt	r1, #2048	; 0x800
 8011422:	4618      	mov	r0, r3
 8011424:	601d      	str	r5, [r3, #0]
 8011426:	f003 fe29 	bl	801507c <__aeabi_atexit>
 801142a:	f640 33d8 	movw	r3, #3032	; 0xbd8
 801142e:	f2c1 0300 	movt	r3, #4096	; 0x1000
 8011432:	4d66      	ldr	r5, [pc, #408]	; (80115cc <_GLOBAL__sub_I__ZN4quan3uav3osd8get_fontEm+0x1ce8>)
 8011434:	f64d 2145 	movw	r1, #55877	; 0xda45
 8011438:	4622      	mov	r2, r4
 801143a:	f6c0 0100 	movt	r1, #2048	; 0x800
 801143e:	4618      	mov	r0, r3
 8011440:	601d      	str	r5, [r3, #0]
 8011442:	f003 fe1b 	bl	801507c <__aeabi_atexit>
 8011446:	f640 4354 	movw	r3, #3156	; 0xc54
 801144a:	f2c1 0300 	movt	r3, #4096	; 0x1000
 801144e:	4d60      	ldr	r5, [pc, #384]	; (80115d0 <_GLOBAL__sub_I__ZN4quan3uav3osd8get_fontEm+0x1cec>)
 8011450:	f64d 2139 	movw	r1, #55865	; 0xda39
 8011454:	4622      	mov	r2, r4
 8011456:	f6c0 0100 	movt	r1, #2048	; 0x800
 801145a:	4618      	mov	r0, r3
 801145c:	601d      	str	r5, [r3, #0]
 801145e:	f003 fe0d 	bl	801507c <__aeabi_atexit>
 8011462:	f640 33a4 	movw	r3, #2980	; 0xba4
 8011466:	f2c1 0300 	movt	r3, #4096	; 0x1000
 801146a:	4d5a      	ldr	r5, [pc, #360]	; (80115d4 <_GLOBAL__sub_I__ZN4quan3uav3osd8get_fontEm+0x1cf0>)
 801146c:	f64d 212d 	movw	r1, #55853	; 0xda2d
 8011470:	4622      	mov	r2, r4
 8011472:	f6c0 0100 	movt	r1, #2048	; 0x800
 8011476:	4618      	mov	r0, r3
 8011478:	601d      	str	r5, [r3, #0]
 801147a:	f003 fdff 	bl	801507c <__aeabi_atexit>
 801147e:	f640 33c4 	movw	r3, #3012	; 0xbc4
 8011482:	f2c1 0300 	movt	r3, #4096	; 0x1000
 8011486:	4d54      	ldr	r5, [pc, #336]	; (80115d8 <_GLOBAL__sub_I__ZN4quan3uav3osd8get_fontEm+0x1cf4>)
 8011488:	f64d 2121 	movw	r1, #55841	; 0xda21
 801148c:	4622      	mov	r2, r4
 801148e:	f6c0 0100 	movt	r1, #2048	; 0x800
 8011492:	4618      	mov	r0, r3
 8011494:	601d      	str	r5, [r3, #0]
 8011496:	f003 fdf1 	bl	801507c <__aeabi_atexit>
 801149a:	f640 33e0 	movw	r3, #3040	; 0xbe0
 801149e:	f2c1 0300 	movt	r3, #4096	; 0x1000
 80114a2:	4d4e      	ldr	r5, [pc, #312]	; (80115dc <_GLOBAL__sub_I__ZN4quan3uav3osd8get_fontEm+0x1cf8>)
 80114a4:	f64d 2115 	movw	r1, #55829	; 0xda15
 80114a8:	4622      	mov	r2, r4
 80114aa:	f6c0 0100 	movt	r1, #2048	; 0x800
 80114ae:	4618      	mov	r0, r3
 80114b0:	601d      	str	r5, [r3, #0]
 80114b2:	f003 fde3 	bl	801507c <__aeabi_atexit>
 80114b6:	f640 03fc 	movw	r3, #2300	; 0x8fc
 80114ba:	f2c1 0300 	movt	r3, #4096	; 0x1000
 80114be:	4d48      	ldr	r5, [pc, #288]	; (80115e0 <_GLOBAL__sub_I__ZN4quan3uav3osd8get_fontEm+0x1cfc>)
 80114c0:	f64d 2109 	movw	r1, #55817	; 0xda09
 80114c4:	4622      	mov	r2, r4
 80114c6:	f6c0 0100 	movt	r1, #2048	; 0x800
 80114ca:	4618      	mov	r0, r3
 80114cc:	601d      	str	r5, [r3, #0]
 80114ce:	f003 fdd5 	bl	801507c <__aeabi_atexit>
 80114d2:	f640 4328 	movw	r3, #3112	; 0xc28
 80114d6:	f2c1 0300 	movt	r3, #4096	; 0x1000
 80114da:	4d42      	ldr	r5, [pc, #264]	; (80115e4 <_GLOBAL__sub_I__ZN4quan3uav3osd8get_fontEm+0x1d00>)
 80114dc:	f64d 11fd 	movw	r1, #55805	; 0xd9fd
 80114e0:	4622      	mov	r2, r4
 80114e2:	f6c0 0100 	movt	r1, #2048	; 0x800
 80114e6:	4618      	mov	r0, r3
 80114e8:	601d      	str	r5, [r3, #0]
 80114ea:	f003 fdc7 	bl	801507c <__aeabi_atexit>
 80114ee:	f640 4344 	movw	r3, #3140	; 0xc44
 80114f2:	f2c1 0300 	movt	r3, #4096	; 0x1000
 80114f6:	4d3c      	ldr	r5, [pc, #240]	; (80115e8 <_GLOBAL__sub_I__ZN4quan3uav3osd8get_fontEm+0x1d04>)
 80114f8:	f64d 11f1 	movw	r1, #55793	; 0xd9f1
 80114fc:	4622      	mov	r2, r4
 80114fe:	f6c0 0100 	movt	r1, #2048	; 0x800
 8011502:	4618      	mov	r0, r3
 8011504:	601d      	str	r5, [r3, #0]
 8011506:	f003 fdb9 	bl	801507c <__aeabi_atexit>
 801150a:	f640 13dc 	movw	r3, #2524	; 0x9dc
 801150e:	f2c1 0300 	movt	r3, #4096	; 0x1000
 8011512:	4d36      	ldr	r5, [pc, #216]	; (80115ec <_GLOBAL__sub_I__ZN4quan3uav3osd8get_fontEm+0x1d08>)
 8011514:	f64d 11e5 	movw	r1, #55781	; 0xd9e5
 8011518:	4622      	mov	r2, r4
 801151a:	f6c0 0100 	movt	r1, #2048	; 0x800
 801151e:	4618      	mov	r0, r3
 8011520:	601d      	str	r5, [r3, #0]
 8011522:	f003 fdab 	bl	801507c <__aeabi_atexit>
 8011526:	f640 038c 	movw	r3, #2188	; 0x88c
 801152a:	f2c1 0300 	movt	r3, #4096	; 0x1000
 801152e:	4d30      	ldr	r5, [pc, #192]	; (80115f0 <_GLOBAL__sub_I__ZN4quan3uav3osd8get_fontEm+0x1d0c>)
 8011530:	f64d 11d9 	movw	r1, #55769	; 0xd9d9
 8011534:	4622      	mov	r2, r4
 8011536:	f6c0 0100 	movt	r1, #2048	; 0x800
 801153a:	4618      	mov	r0, r3
 801153c:	601d      	str	r5, [r3, #0]
 801153e:	f003 fd9d 	bl	801507c <__aeabi_atexit>
 8011542:	f640 03b0 	movw	r3, #2224	; 0x8b0
 8011546:	f2c1 0300 	movt	r3, #4096	; 0x1000
 801154a:	4d2a      	ldr	r5, [pc, #168]	; (80115f4 <_GLOBAL__sub_I__ZN4quan3uav3osd8get_fontEm+0x1d10>)
 801154c:	f64d 11cd 	movw	r1, #55757	; 0xd9cd
 8011550:	4622      	mov	r2, r4
 8011552:	f6c0 0100 	movt	r1, #2048	; 0x800
 8011556:	4618      	mov	r0, r3
 8011558:	601d      	str	r5, [r3, #0]
 801155a:	f003 fd8f 	bl	801507c <__aeabi_atexit>
 801155e:	f640 434c 	movw	r3, #3148	; 0xc4c
 8011562:	f2c1 0300 	movt	r3, #4096	; 0x1000
 8011566:	4d24      	ldr	r5, [pc, #144]	; (80115f8 <_GLOBAL__sub_I__ZN4quan3uav3osd8get_fontEm+0x1d14>)
 8011568:	f64d 11c1 	movw	r1, #55745	; 0xd9c1
 801156c:	4622      	mov	r2, r4
 801156e:	f6c0 0100 	movt	r1, #2048	; 0x800
 8011572:	4618      	mov	r0, r3
 8011574:	601d      	str	r5, [r3, #0]
 8011576:	f003 fd81 	bl	801507c <__aeabi_atexit>
 801157a:	f640 036c 	movw	r3, #2156	; 0x86c
 801157e:	f2c1 0300 	movt	r3, #4096	; 0x1000
 8011582:	4d1e      	ldr	r5, [pc, #120]	; (80115fc <_GLOBAL__sub_I__ZN4quan3uav3osd8get_fontEm+0x1d18>)
 8011584:	f64d 11b5 	movw	r1, #55733	; 0xd9b5
 8011588:	e03a      	b.n	8011600 <_GLOBAL__sub_I__ZN4quan3uav3osd8get_fontEm+0x1d1c>
 801158a:	bf00      	nop
 801158c:	0801a9a0 	.word	0x0801a9a0
 8011590:	08019c20 	.word	0x08019c20
 8011594:	08017700 	.word	0x08017700
 8011598:	08019ca0 	.word	0x08019ca0
 801159c:	08017fc0 	.word	0x08017fc0
 80115a0:	080183e8 	.word	0x080183e8
 80115a4:	08018820 	.word	0x08018820
 80115a8:	08017cc0 	.word	0x08017cc0
 80115ac:	08018070 	.word	0x08018070
 80115b0:	080185c0 	.word	0x080185c0
 80115b4:	0801a6e8 	.word	0x0801a6e8
 80115b8:	0801aad0 	.word	0x0801aad0
 80115bc:	080195c8 	.word	0x080195c8
 80115c0:	08015e60 	.word	0x08015e60
 80115c4:	08017430 	.word	0x08017430
 80115c8:	08016680 	.word	0x08016680
 80115cc:	08019810 	.word	0x08019810
 80115d0:	08015fd0 	.word	0x08015fd0
 80115d4:	08017d20 	.word	0x08017d20
 80115d8:	08018208 	.word	0x08018208
 80115dc:	080176d0 	.word	0x080176d0
 80115e0:	080189b0 	.word	0x080189b0
 80115e4:	08018c98 	.word	0x08018c98
 80115e8:	080164d0 	.word	0x080164d0
 80115ec:	08019968 	.word	0x08019968
 80115f0:	08019dc8 	.word	0x08019dc8
 80115f4:	0801a268 	.word	0x0801a268
 80115f8:	0801b050 	.word	0x0801b050
 80115fc:	08016050 	.word	0x08016050
 8011600:	4622      	mov	r2, r4
 8011602:	f6c0 0100 	movt	r1, #2048	; 0x800
 8011606:	4618      	mov	r0, r3
 8011608:	601d      	str	r5, [r3, #0]
 801160a:	f003 fd37 	bl	801507c <__aeabi_atexit>
 801160e:	f640 0390 	movw	r3, #2192	; 0x890
 8011612:	f2c1 0300 	movt	r3, #4096	; 0x1000
 8011616:	4dae      	ldr	r5, [pc, #696]	; (80118d0 <_GLOBAL__sub_I__ZN4quan3uav3osd8get_fontEm+0x1fec>)
 8011618:	f64d 11a9 	movw	r1, #55721	; 0xd9a9
 801161c:	4622      	mov	r2, r4
 801161e:	f6c0 0100 	movt	r1, #2048	; 0x800
 8011622:	4618      	mov	r0, r3
 8011624:	601d      	str	r5, [r3, #0]
 8011626:	f003 fd29 	bl	801507c <__aeabi_atexit>
 801162a:	f640 03b8 	movw	r3, #2232	; 0x8b8
 801162e:	f2c1 0300 	movt	r3, #4096	; 0x1000
 8011632:	4da8      	ldr	r5, [pc, #672]	; (80118d4 <_GLOBAL__sub_I__ZN4quan3uav3osd8get_fontEm+0x1ff0>)
 8011634:	f64d 119d 	movw	r1, #55709	; 0xd99d
 8011638:	4622      	mov	r2, r4
 801163a:	f6c0 0100 	movt	r1, #2048	; 0x800
 801163e:	4618      	mov	r0, r3
 8011640:	601d      	str	r5, [r3, #0]
 8011642:	f003 fd1b 	bl	801507c <__aeabi_atexit>
 8011646:	f640 03dc 	movw	r3, #2268	; 0x8dc
 801164a:	f2c1 0300 	movt	r3, #4096	; 0x1000
 801164e:	4da2      	ldr	r5, [pc, #648]	; (80118d8 <_GLOBAL__sub_I__ZN4quan3uav3osd8get_fontEm+0x1ff4>)
 8011650:	f64d 1191 	movw	r1, #55697	; 0xd991
 8011654:	4622      	mov	r2, r4
 8011656:	f6c0 0100 	movt	r1, #2048	; 0x800
 801165a:	4618      	mov	r0, r3
 801165c:	601d      	str	r5, [r3, #0]
 801165e:	f003 fd0d 	bl	801507c <__aeabi_atexit>
 8011662:	f640 1300 	movw	r3, #2304	; 0x900
 8011666:	f2c1 0300 	movt	r3, #4096	; 0x1000
 801166a:	4d9c      	ldr	r5, [pc, #624]	; (80118dc <_GLOBAL__sub_I__ZN4quan3uav3osd8get_fontEm+0x1ff8>)
 801166c:	f64d 1185 	movw	r1, #55685	; 0xd985
 8011670:	4622      	mov	r2, r4
 8011672:	f6c0 0100 	movt	r1, #2048	; 0x800
 8011676:	4618      	mov	r0, r3
 8011678:	601d      	str	r5, [r3, #0]
 801167a:	f003 fcff 	bl	801507c <__aeabi_atexit>
 801167e:	f640 1320 	movw	r3, #2336	; 0x920
 8011682:	f2c1 0300 	movt	r3, #4096	; 0x1000
 8011686:	4d96      	ldr	r5, [pc, #600]	; (80118e0 <_GLOBAL__sub_I__ZN4quan3uav3osd8get_fontEm+0x1ffc>)
 8011688:	f64d 1179 	movw	r1, #55673	; 0xd979
 801168c:	4622      	mov	r2, r4
 801168e:	f6c0 0100 	movt	r1, #2048	; 0x800
 8011692:	4618      	mov	r0, r3
 8011694:	601d      	str	r5, [r3, #0]
 8011696:	f003 fcf1 	bl	801507c <__aeabi_atexit>
 801169a:	f640 1348 	movw	r3, #2376	; 0x948
 801169e:	f2c1 0300 	movt	r3, #4096	; 0x1000
 80116a2:	4d90      	ldr	r5, [pc, #576]	; (80118e4 <_GLOBAL__sub_I__ZN4quan3uav3osd8get_fontEm+0x2000>)
 80116a4:	f64d 116d 	movw	r1, #55661	; 0xd96d
 80116a8:	4622      	mov	r2, r4
 80116aa:	f6c0 0100 	movt	r1, #2048	; 0x800
 80116ae:	4618      	mov	r0, r3
 80116b0:	601d      	str	r5, [r3, #0]
 80116b2:	f003 fce3 	bl	801507c <__aeabi_atexit>
 80116b6:	f640 2310 	movw	r3, #2576	; 0xa10
 80116ba:	f2c1 0300 	movt	r3, #4096	; 0x1000
 80116be:	4d8a      	ldr	r5, [pc, #552]	; (80118e8 <_GLOBAL__sub_I__ZN4quan3uav3osd8get_fontEm+0x2004>)
 80116c0:	f64d 1161 	movw	r1, #55649	; 0xd961
 80116c4:	4622      	mov	r2, r4
 80116c6:	f6c0 0100 	movt	r1, #2048	; 0x800
 80116ca:	4618      	mov	r0, r3
 80116cc:	601d      	str	r5, [r3, #0]
 80116ce:	f003 fcd5 	bl	801507c <__aeabi_atexit>
 80116d2:	f640 2384 	movw	r3, #2692	; 0xa84
 80116d6:	f2c1 0300 	movt	r3, #4096	; 0x1000
 80116da:	4d84      	ldr	r5, [pc, #528]	; (80118ec <_GLOBAL__sub_I__ZN4quan3uav3osd8get_fontEm+0x2008>)
 80116dc:	f64d 1155 	movw	r1, #55637	; 0xd955
 80116e0:	4622      	mov	r2, r4
 80116e2:	f6c0 0100 	movt	r1, #2048	; 0x800
 80116e6:	4618      	mov	r0, r3
 80116e8:	601d      	str	r5, [r3, #0]
 80116ea:	f003 fcc7 	bl	801507c <__aeabi_atexit>
 80116ee:	f640 132c 	movw	r3, #2348	; 0x92c
 80116f2:	f2c1 0300 	movt	r3, #4096	; 0x1000
 80116f6:	4d7e      	ldr	r5, [pc, #504]	; (80118f0 <_GLOBAL__sub_I__ZN4quan3uav3osd8get_fontEm+0x200c>)
 80116f8:	f64d 1149 	movw	r1, #55625	; 0xd949
 80116fc:	4622      	mov	r2, r4
 80116fe:	f6c0 0100 	movt	r1, #2048	; 0x800
 8011702:	4618      	mov	r0, r3
 8011704:	601d      	str	r5, [r3, #0]
 8011706:	f003 fcb9 	bl	801507c <__aeabi_atexit>
 801170a:	f640 3368 	movw	r3, #2920	; 0xb68
 801170e:	f2c1 0300 	movt	r3, #4096	; 0x1000
 8011712:	4d78      	ldr	r5, [pc, #480]	; (80118f4 <_GLOBAL__sub_I__ZN4quan3uav3osd8get_fontEm+0x2010>)
 8011714:	f64d 113d 	movw	r1, #55613	; 0xd93d
 8011718:	4622      	mov	r2, r4
 801171a:	f6c0 0100 	movt	r1, #2048	; 0x800
 801171e:	4618      	mov	r0, r3
 8011720:	601d      	str	r5, [r3, #0]
 8011722:	f003 fcab 	bl	801507c <__aeabi_atexit>
 8011726:	f640 1370 	movw	r3, #2416	; 0x970
 801172a:	f2c1 0300 	movt	r3, #4096	; 0x1000
 801172e:	4d72      	ldr	r5, [pc, #456]	; (80118f8 <_GLOBAL__sub_I__ZN4quan3uav3osd8get_fontEm+0x2014>)
 8011730:	f64d 1131 	movw	r1, #55601	; 0xd931
 8011734:	4622      	mov	r2, r4
 8011736:	f6c0 0100 	movt	r1, #2048	; 0x800
 801173a:	4618      	mov	r0, r3
 801173c:	601d      	str	r5, [r3, #0]
 801173e:	f003 fc9d 	bl	801507c <__aeabi_atexit>
 8011742:	f640 1398 	movw	r3, #2456	; 0x998
 8011746:	f2c1 0300 	movt	r3, #4096	; 0x1000
 801174a:	4d6c      	ldr	r5, [pc, #432]	; (80118fc <_GLOBAL__sub_I__ZN4quan3uav3osd8get_fontEm+0x2018>)
 801174c:	f64d 1125 	movw	r1, #55589	; 0xd925
 8011750:	4622      	mov	r2, r4
 8011752:	f6c0 0100 	movt	r1, #2048	; 0x800
 8011756:	4618      	mov	r0, r3
 8011758:	601d      	str	r5, [r3, #0]
 801175a:	f003 fc8f 	bl	801507c <__aeabi_atexit>
 801175e:	f640 13c4 	movw	r3, #2500	; 0x9c4
 8011762:	f2c1 0300 	movt	r3, #4096	; 0x1000
 8011766:	4d66      	ldr	r5, [pc, #408]	; (8011900 <_GLOBAL__sub_I__ZN4quan3uav3osd8get_fontEm+0x201c>)
 8011768:	f64d 1119 	movw	r1, #55577	; 0xd919
 801176c:	4622      	mov	r2, r4
 801176e:	f6c0 0100 	movt	r1, #2048	; 0x800
 8011772:	4618      	mov	r0, r3
 8011774:	601d      	str	r5, [r3, #0]
 8011776:	f003 fc81 	bl	801507c <__aeabi_atexit>
 801177a:	f640 13e0 	movw	r3, #2528	; 0x9e0
 801177e:	f2c1 0300 	movt	r3, #4096	; 0x1000
 8011782:	4d60      	ldr	r5, [pc, #384]	; (8011904 <_GLOBAL__sub_I__ZN4quan3uav3osd8get_fontEm+0x2020>)
 8011784:	f64d 110d 	movw	r1, #55565	; 0xd90d
 8011788:	4622      	mov	r2, r4
 801178a:	f6c0 0100 	movt	r1, #2048	; 0x800
 801178e:	4618      	mov	r0, r3
 8011790:	601d      	str	r5, [r3, #0]
 8011792:	f003 fc73 	bl	801507c <__aeabi_atexit>
 8011796:	f640 2308 	movw	r3, #2568	; 0xa08
 801179a:	f2c1 0300 	movt	r3, #4096	; 0x1000
 801179e:	4d5a      	ldr	r5, [pc, #360]	; (8011908 <_GLOBAL__sub_I__ZN4quan3uav3osd8get_fontEm+0x2024>)
 80117a0:	f64d 1101 	movw	r1, #55553	; 0xd901
 80117a4:	4622      	mov	r2, r4
 80117a6:	f6c0 0100 	movt	r1, #2048	; 0x800
 80117aa:	4618      	mov	r0, r3
 80117ac:	601d      	str	r5, [r3, #0]
 80117ae:	f003 fc65 	bl	801507c <__aeabi_atexit>
 80117b2:	f640 232c 	movw	r3, #2604	; 0xa2c
 80117b6:	f2c1 0300 	movt	r3, #4096	; 0x1000
 80117ba:	4d54      	ldr	r5, [pc, #336]	; (801190c <_GLOBAL__sub_I__ZN4quan3uav3osd8get_fontEm+0x2028>)
 80117bc:	f64d 01f5 	movw	r1, #55541	; 0xd8f5
 80117c0:	4622      	mov	r2, r4
 80117c2:	f6c0 0100 	movt	r1, #2048	; 0x800
 80117c6:	4618      	mov	r0, r3
 80117c8:	601d      	str	r5, [r3, #0]
 80117ca:	f003 fc57 	bl	801507c <__aeabi_atexit>
 80117ce:	f640 2350 	movw	r3, #2640	; 0xa50
 80117d2:	f2c1 0300 	movt	r3, #4096	; 0x1000
 80117d6:	4d4e      	ldr	r5, [pc, #312]	; (8011910 <_GLOBAL__sub_I__ZN4quan3uav3osd8get_fontEm+0x202c>)
 80117d8:	f64d 01e9 	movw	r1, #55529	; 0xd8e9
 80117dc:	4622      	mov	r2, r4
 80117de:	f6c0 0100 	movt	r1, #2048	; 0x800
 80117e2:	4618      	mov	r0, r3
 80117e4:	601d      	str	r5, [r3, #0]
 80117e6:	f003 fc49 	bl	801507c <__aeabi_atexit>
 80117ea:	f640 237c 	movw	r3, #2684	; 0xa7c
 80117ee:	f2c1 0300 	movt	r3, #4096	; 0x1000
 80117f2:	4d48      	ldr	r5, [pc, #288]	; (8011914 <_GLOBAL__sub_I__ZN4quan3uav3osd8get_fontEm+0x2030>)
 80117f4:	f64d 01dd 	movw	r1, #55517	; 0xd8dd
 80117f8:	4622      	mov	r2, r4
 80117fa:	f6c0 0100 	movt	r1, #2048	; 0x800
 80117fe:	4618      	mov	r0, r3
 8011800:	601d      	str	r5, [r3, #0]
 8011802:	f003 fc3b 	bl	801507c <__aeabi_atexit>
 8011806:	f640 03c0 	movw	r3, #2240	; 0x8c0
 801180a:	f2c1 0300 	movt	r3, #4096	; 0x1000
 801180e:	4d42      	ldr	r5, [pc, #264]	; (8011918 <_GLOBAL__sub_I__ZN4quan3uav3osd8get_fontEm+0x2034>)
 8011810:	f64d 01d1 	movw	r1, #55505	; 0xd8d1
 8011814:	4622      	mov	r2, r4
 8011816:	f6c0 0100 	movt	r1, #2048	; 0x800
 801181a:	4618      	mov	r0, r3
 801181c:	601d      	str	r5, [r3, #0]
 801181e:	f003 fc2d 	bl	801507c <__aeabi_atexit>
 8011822:	f640 4304 	movw	r3, #3076	; 0xc04
 8011826:	f2c1 0300 	movt	r3, #4096	; 0x1000
 801182a:	4d3c      	ldr	r5, [pc, #240]	; (801191c <_GLOBAL__sub_I__ZN4quan3uav3osd8get_fontEm+0x2038>)
 801182c:	f64d 01c5 	movw	r1, #55493	; 0xd8c5
 8011830:	4622      	mov	r2, r4
 8011832:	f6c0 0100 	movt	r1, #2048	; 0x800
 8011836:	4618      	mov	r0, r3
 8011838:	601d      	str	r5, [r3, #0]
 801183a:	f003 fc1f 	bl	801507c <__aeabi_atexit>
 801183e:	f640 1354 	movw	r3, #2388	; 0x954
 8011842:	f2c1 0300 	movt	r3, #4096	; 0x1000
 8011846:	4d36      	ldr	r5, [pc, #216]	; (8011920 <_GLOBAL__sub_I__ZN4quan3uav3osd8get_fontEm+0x203c>)
 8011848:	f64d 01b9 	movw	r1, #55481	; 0xd8b9
 801184c:	4622      	mov	r2, r4
 801184e:	f6c0 0100 	movt	r1, #2048	; 0x800
 8011852:	4618      	mov	r0, r3
 8011854:	601d      	str	r5, [r3, #0]
 8011856:	f003 fc11 	bl	801507c <__aeabi_atexit>
 801185a:	f640 13a4 	movw	r3, #2468	; 0x9a4
 801185e:	f2c1 0300 	movt	r3, #4096	; 0x1000
 8011862:	4d30      	ldr	r5, [pc, #192]	; (8011924 <_GLOBAL__sub_I__ZN4quan3uav3osd8get_fontEm+0x2040>)
 8011864:	f64d 01ad 	movw	r1, #55469	; 0xd8ad
 8011868:	4622      	mov	r2, r4
 801186a:	f6c0 0100 	movt	r1, #2048	; 0x800
 801186e:	4618      	mov	r0, r3
 8011870:	601d      	str	r5, [r3, #0]
 8011872:	f003 fc03 	bl	801507c <__aeabi_atexit>
 8011876:	f640 23a4 	movw	r3, #2724	; 0xaa4
 801187a:	f2c1 0300 	movt	r3, #4096	; 0x1000
 801187e:	4d2a      	ldr	r5, [pc, #168]	; (8011928 <_GLOBAL__sub_I__ZN4quan3uav3osd8get_fontEm+0x2044>)
 8011880:	f64d 01a1 	movw	r1, #55457	; 0xd8a1
 8011884:	4622      	mov	r2, r4
 8011886:	f6c0 0100 	movt	r1, #2048	; 0x800
 801188a:	4618      	mov	r0, r3
 801188c:	601d      	str	r5, [r3, #0]
 801188e:	f003 fbf5 	bl	801507c <__aeabi_atexit>
 8011892:	f640 23c0 	movw	r3, #2752	; 0xac0
 8011896:	f2c1 0300 	movt	r3, #4096	; 0x1000
 801189a:	4d24      	ldr	r5, [pc, #144]	; (801192c <_GLOBAL__sub_I__ZN4quan3uav3osd8get_fontEm+0x2048>)
 801189c:	f64d 0195 	movw	r1, #55445	; 0xd895
 80118a0:	4622      	mov	r2, r4
 80118a2:	f6c0 0100 	movt	r1, #2048	; 0x800
 80118a6:	4618      	mov	r0, r3
 80118a8:	601d      	str	r5, [r3, #0]
 80118aa:	f003 fbe7 	bl	801507c <__aeabi_atexit>
 80118ae:	f640 13f8 	movw	r3, #2552	; 0x9f8
 80118b2:	f2c1 0300 	movt	r3, #4096	; 0x1000
 80118b6:	4622      	mov	r2, r4
 80118b8:	f64d 0189 	movw	r1, #55433	; 0xd889
 80118bc:	4c1c      	ldr	r4, [pc, #112]	; (8011930 <_GLOBAL__sub_I__ZN4quan3uav3osd8get_fontEm+0x204c>)
 80118be:	4618      	mov	r0, r3
 80118c0:	f6c0 0100 	movt	r1, #2048	; 0x800
 80118c4:	601c      	str	r4, [r3, #0]
 80118c6:	e8bd 4038 	ldmia.w	sp!, {r3, r4, r5, lr}
 80118ca:	f003 bbd7 	b.w	801507c <__aeabi_atexit>
 80118ce:	bf00      	nop
 80118d0:	08016468 	.word	0x08016468
 80118d4:	080167f0 	.word	0x080167f0
 80118d8:	08019e60 	.word	0x08019e60
 80118dc:	08017068 	.word	0x08017068
 80118e0:	080174d0 	.word	0x080174d0
 80118e4:	08017780 	.word	0x08017780
 80118e8:	08017c40 	.word	0x08017c40
 80118ec:	08017ff0 	.word	0x08017ff0
 80118f0:	08018f00 	.word	0x08018f00
 80118f4:	08016a78 	.word	0x08016a78
 80118f8:	08019b80 	.word	0x08019b80
 80118fc:	08019fd8 	.word	0x08019fd8
 8011900:	0801a438 	.word	0x0801a438
 8011904:	0801a768 	.word	0x0801a768
 8011908:	0801abf8 	.word	0x0801abf8
 801190c:	0801af30 	.word	0x0801af30
 8011910:	08015f80 	.word	0x08015f80
 8011914:	080162f0 	.word	0x080162f0
 8011918:	08017268 	.word	0x08017268
 801191c:	08017d88 	.word	0x08017d88
 8011920:	08017998 	.word	0x08017998
 8011924:	08017df0 	.word	0x08017df0
 8011928:	080165e0 	.word	0x080165e0
 801192c:	08018718 	.word	0x08018718
 8011930:	08018470 	.word	0x08018470

08011934 <_ZN4quan3uav3osd9draw_textEPKcRKNS_5two_d4vectIlEEPKNS1_10basic_fontE>:
 8011934:	b5f0      	push	{r4, r5, r6, r7, lr}
 8011936:	4617      	mov	r7, r2
 8011938:	b085      	sub	sp, #20
 801193a:	4605      	mov	r5, r0
 801193c:	b1e2      	cbz	r2, 8011978 <_ZN4quan3uav3osd9draw_textEPKcRKNS_5two_d4vectIlEEPKNS1_10basic_fontE+0x44>
 801193e:	b1d8      	cbz	r0, 8011978 <_ZN4quan3uav3osd9draw_textEPKcRKNS_5two_d4vectIlEEPKNS1_10basic_fontE+0x44>
 8011940:	c903      	ldmia	r1, {r0, r1}
 8011942:	782a      	ldrb	r2, [r5, #0]
 8011944:	466e      	mov	r6, sp
 8011946:	e88d 0003 	stmia.w	sp, {r0, r1}
 801194a:	b1aa      	cbz	r2, 8011978 <_ZN4quan3uav3osd9draw_textEPKcRKNS_5two_d4vectIlEEPKNS1_10basic_fontE+0x44>
 801194c:	4611      	mov	r1, r2
 801194e:	4638      	mov	r0, r7
 8011950:	f002 f95e 	bl	8013c10 <_ZN4quan3uav3osd8get_charEPKNS1_10basic_fontEl>
 8011954:	4604      	mov	r4, r0
 8011956:	4621      	mov	r1, r4
 8011958:	a802      	add	r0, sp, #8
 801195a:	f002 f95f 	bl	8013c1c <_ZN4quan3uav3osd8get_sizeEPKNS1_12basic_bitmapE>
 801195e:	4620      	mov	r0, r4
 8011960:	4669      	mov	r1, sp
 8011962:	b12c      	cbz	r4, 8011970 <_ZN4quan3uav3osd9draw_textEPKcRKNS_5two_d4vectIlEEPKNS1_10basic_fontE+0x3c>
 8011964:	f000 f80a 	bl	801197c <_ZN4quan3uav3osd11draw_bitmapEPKNS1_12basic_bitmapERKNS_5two_d4vectIlEE>
 8011968:	9c00      	ldr	r4, [sp, #0]
 801196a:	9b02      	ldr	r3, [sp, #8]
 801196c:	18e0      	adds	r0, r4, r3
 801196e:	9000      	str	r0, [sp, #0]
 8011970:	f815 2f01 	ldrb.w	r2, [r5, #1]!
 8011974:	2a00      	cmp	r2, #0
 8011976:	d1e9      	bne.n	801194c <_ZN4quan3uav3osd9draw_textEPKcRKNS_5two_d4vectIlEEPKNS1_10basic_fontE+0x18>
 8011978:	b005      	add	sp, #20
 801197a:	bdf0      	pop	{r4, r5, r6, r7, pc}

0801197c <_ZN4quan3uav3osd11draw_bitmapEPKNS1_12basic_bitmapERKNS_5two_d4vectIlEE>:
 801197c:	e92d 4ff0 	stmdb	sp!, {r4, r5, r6, r7, r8, r9, sl, fp, lr}
 8011980:	4607      	mov	r7, r0
 8011982:	b087      	sub	sp, #28
 8011984:	460c      	mov	r4, r1
 8011986:	2800      	cmp	r0, #0
 8011988:	d06e      	beq.n	8011a68 <_ZN4quan3uav3osd11draw_bitmapEPKNS1_12basic_bitmapERKNS_5two_d4vectIlEE+0xec>
 801198a:	4668      	mov	r0, sp
 801198c:	4639      	mov	r1, r7
 801198e:	f002 f945 	bl	8013c1c <_ZN4quan3uav3osd8get_sizeEPKNS1_12basic_bitmapE>
 8011992:	f8dd 9004 	ldr.w	r9, [sp, #4]
 8011996:	6862      	ldr	r2, [r4, #4]
 8011998:	6823      	ldr	r3, [r4, #0]
 801199a:	f8dd 8000 	ldr.w	r8, [sp]
 801199e:	9304      	str	r3, [sp, #16]
 80119a0:	444a      	add	r2, r9
 80119a2:	a802      	add	r0, sp, #8
 80119a4:	a904      	add	r1, sp, #16
 80119a6:	9205      	str	r2, [sp, #20]
 80119a8:	f002 f8b8 	bl	8013b1c <_ZN4quan3uav3osd16transform_to_rawERKNS_5two_d4vectIlEE>
 80119ac:	f1b9 0f00 	cmp.w	r9, #0
 80119b0:	f8dd a008 	ldr.w	sl, [sp, #8]
 80119b4:	dd58      	ble.n	8011a68 <_ZN4quan3uav3osd11draw_bitmapEPKNS1_12basic_bitmapERKNS_5two_d4vectIlEE+0xec>
 80119b6:	2500      	movs	r5, #0
 80119b8:	46ab      	mov	fp, r5
 80119ba:	f1b8 0f00 	cmp.w	r8, #0
 80119be:	f8cd a008 	str.w	sl, [sp, #8]
 80119c2:	dd4b      	ble.n	8011a5c <_ZN4quan3uav3osd11draw_bitmapEPKNS1_12basic_bitmapERKNS_5two_d4vectIlEE+0xe0>
 80119c4:	a904      	add	r1, sp, #16
 80119c6:	4638      	mov	r0, r7
 80119c8:	f8cd b010 	str.w	fp, [sp, #16]
 80119cc:	9505      	str	r5, [sp, #20]
 80119ce:	f002 f8f7 	bl	8013bc0 <_ZN4quan3uav3osd13get_pixel_rawEPKNS1_12basic_bitmapERKNS_5two_d4vectIlEE>
 80119d2:	f108 36ff 	add.w	r6, r8, #4294967295
 80119d6:	2803      	cmp	r0, #3
 80119d8:	f006 0601 	and.w	r6, r6, #1
 80119dc:	4601      	mov	r1, r0
 80119de:	d002      	beq.n	80119e6 <_ZN4quan3uav3osd11draw_bitmapEPKNS1_12basic_bitmapERKNS_5two_d4vectIlEE+0x6a>
 80119e0:	a802      	add	r0, sp, #8
 80119e2:	f002 f8c5 	bl	8013b70 <_ZN4quan3uav3osd13set_pixel_rawERKNS_5two_d4vectIlEENS1_11colour_typeE>
 80119e6:	9802      	ldr	r0, [sp, #8]
 80119e8:	2401      	movs	r4, #1
 80119ea:	1901      	adds	r1, r0, r4
 80119ec:	4544      	cmp	r4, r8
 80119ee:	9102      	str	r1, [sp, #8]
 80119f0:	d034      	beq.n	8011a5c <_ZN4quan3uav3osd11draw_bitmapEPKNS1_12basic_bitmapERKNS_5two_d4vectIlEE+0xe0>
 80119f2:	b18e      	cbz	r6, 8011a18 <_ZN4quan3uav3osd11draw_bitmapEPKNS1_12basic_bitmapERKNS_5two_d4vectIlEE+0x9c>
 80119f4:	a904      	add	r1, sp, #16
 80119f6:	4638      	mov	r0, r7
 80119f8:	9404      	str	r4, [sp, #16]
 80119fa:	9505      	str	r5, [sp, #20]
 80119fc:	f002 f8e0 	bl	8013bc0 <_ZN4quan3uav3osd13get_pixel_rawEPKNS1_12basic_bitmapERKNS_5two_d4vectIlEE>
 8011a00:	2803      	cmp	r0, #3
 8011a02:	4601      	mov	r1, r0
 8011a04:	d002      	beq.n	8011a0c <_ZN4quan3uav3osd11draw_bitmapEPKNS1_12basic_bitmapERKNS_5two_d4vectIlEE+0x90>
 8011a06:	a802      	add	r0, sp, #8
 8011a08:	f002 f8b2 	bl	8013b70 <_ZN4quan3uav3osd13set_pixel_rawERKNS_5two_d4vectIlEENS1_11colour_typeE>
 8011a0c:	9b02      	ldr	r3, [sp, #8]
 8011a0e:	3401      	adds	r4, #1
 8011a10:	1c5a      	adds	r2, r3, #1
 8011a12:	4544      	cmp	r4, r8
 8011a14:	9202      	str	r2, [sp, #8]
 8011a16:	d021      	beq.n	8011a5c <_ZN4quan3uav3osd11draw_bitmapEPKNS1_12basic_bitmapERKNS_5two_d4vectIlEE+0xe0>
 8011a18:	a904      	add	r1, sp, #16
 8011a1a:	4638      	mov	r0, r7
 8011a1c:	9404      	str	r4, [sp, #16]
 8011a1e:	9505      	str	r5, [sp, #20]
 8011a20:	f002 f8ce 	bl	8013bc0 <_ZN4quan3uav3osd13get_pixel_rawEPKNS1_12basic_bitmapERKNS_5two_d4vectIlEE>
 8011a24:	1c66      	adds	r6, r4, #1
 8011a26:	2803      	cmp	r0, #3
 8011a28:	4601      	mov	r1, r0
 8011a2a:	a802      	add	r0, sp, #8
 8011a2c:	d001      	beq.n	8011a32 <_ZN4quan3uav3osd11draw_bitmapEPKNS1_12basic_bitmapERKNS_5two_d4vectIlEE+0xb6>
 8011a2e:	f002 f89f 	bl	8013b70 <_ZN4quan3uav3osd13set_pixel_rawERKNS_5two_d4vectIlEENS1_11colour_typeE>
 8011a32:	9c02      	ldr	r4, [sp, #8]
 8011a34:	9604      	str	r6, [sp, #16]
 8011a36:	1c63      	adds	r3, r4, #1
 8011a38:	a904      	add	r1, sp, #16
 8011a3a:	4638      	mov	r0, r7
 8011a3c:	9302      	str	r3, [sp, #8]
 8011a3e:	9505      	str	r5, [sp, #20]
 8011a40:	f002 f8be 	bl	8013bc0 <_ZN4quan3uav3osd13get_pixel_rawEPKNS1_12basic_bitmapERKNS_5two_d4vectIlEE>
 8011a44:	2803      	cmp	r0, #3
 8011a46:	4601      	mov	r1, r0
 8011a48:	a802      	add	r0, sp, #8
 8011a4a:	d001      	beq.n	8011a50 <_ZN4quan3uav3osd11draw_bitmapEPKNS1_12basic_bitmapERKNS_5two_d4vectIlEE+0xd4>
 8011a4c:	f002 f890 	bl	8013b70 <_ZN4quan3uav3osd13set_pixel_rawERKNS_5two_d4vectIlEENS1_11colour_typeE>
 8011a50:	9b02      	ldr	r3, [sp, #8]
 8011a52:	1c74      	adds	r4, r6, #1
 8011a54:	1c5a      	adds	r2, r3, #1
 8011a56:	4544      	cmp	r4, r8
 8011a58:	9202      	str	r2, [sp, #8]
 8011a5a:	d1dd      	bne.n	8011a18 <_ZN4quan3uav3osd11draw_bitmapEPKNS1_12basic_bitmapERKNS_5two_d4vectIlEE+0x9c>
 8011a5c:	9803      	ldr	r0, [sp, #12]
 8011a5e:	3501      	adds	r5, #1
 8011a60:	1c41      	adds	r1, r0, #1
 8011a62:	454d      	cmp	r5, r9
 8011a64:	9103      	str	r1, [sp, #12]
 8011a66:	d1a8      	bne.n	80119ba <_ZN4quan3uav3osd11draw_bitmapEPKNS1_12basic_bitmapERKNS_5two_d4vectIlEE+0x3e>
 8011a68:	b007      	add	sp, #28
 8011a6a:	e8bd 8ff0 	ldmia.w	sp!, {r4, r5, r6, r7, r8, r9, sl, fp, pc}
 8011a6e:	bf00      	nop

08011a70 <xTaskGenericCreate>:
 8011a70:	e92d 4ff8 	stmdb	sp!, {r3, r4, r5, r6, r7, r8, r9, sl, fp, lr}
 8011a74:	9e0a      	ldr	r6, [sp, #40]	; 0x28
 8011a76:	f8dd b030 	ldr.w	fp, [sp, #48]	; 0x30
 8011a7a:	4607      	mov	r7, r0
 8011a7c:	460d      	mov	r5, r1
 8011a7e:	4691      	mov	r9, r2
 8011a80:	469a      	mov	sl, r3
 8011a82:	2800      	cmp	r0, #0
 8011a84:	f000 80a4 	beq.w	8011bd0 <xTaskGenericCreate+0x160>
 8011a88:	2e04      	cmp	r6, #4
 8011a8a:	d902      	bls.n	8011a92 <xTaskGenericCreate+0x22>
 8011a8c:	f000 ffd8 	bl	8012a40 <ulPortSetInterruptMask>
 8011a90:	e7fe      	b.n	8011a90 <xTaskGenericCreate+0x20>
 8011a92:	2050      	movs	r0, #80	; 0x50
 8011a94:	f001 f8ee 	bl	8012c74 <pvPortMalloc>
 8011a98:	4604      	mov	r4, r0
 8011a9a:	2800      	cmp	r0, #0
 8011a9c:	f000 80dc 	beq.w	8011c58 <xTaskGenericCreate+0x1e8>
 8011aa0:	f1bb 0f00 	cmp.w	fp, #0
 8011aa4:	f000 80cc 	beq.w	8011c40 <xTaskGenericCreate+0x1d0>
 8011aa8:	f8c0 b030 	str.w	fp, [r0, #48]	; 0x30
 8011aac:	ea4f 0889 	mov.w	r8, r9, lsl #2
 8011ab0:	4658      	mov	r0, fp
 8011ab2:	21a5      	movs	r1, #165	; 0xa5
 8011ab4:	4642      	mov	r2, r8
 8011ab6:	f003 fefd 	bl	80158b4 <memset>
 8011aba:	782a      	ldrb	r2, [r5, #0]
 8011abc:	6b23      	ldr	r3, [r4, #48]	; 0x30
 8011abe:	f884 2034 	strb.w	r2, [r4, #52]	; 0x34
 8011ac2:	f109 39ff 	add.w	r9, r9, #4294967295
 8011ac6:	7828      	ldrb	r0, [r5, #0]
 8011ac8:	eb03 0189 	add.w	r1, r3, r9, lsl #2
 8011acc:	f021 0b07 	bic.w	fp, r1, #7
 8011ad0:	b328      	cbz	r0, 8011b1e <xTaskGenericCreate+0xae>
 8011ad2:	786a      	ldrb	r2, [r5, #1]
 8011ad4:	f884 2035 	strb.w	r2, [r4, #53]	; 0x35
 8011ad8:	786b      	ldrb	r3, [r5, #1]
 8011ada:	b303      	cbz	r3, 8011b1e <xTaskGenericCreate+0xae>
 8011adc:	78a8      	ldrb	r0, [r5, #2]
 8011ade:	f884 0036 	strb.w	r0, [r4, #54]	; 0x36
 8011ae2:	78a9      	ldrb	r1, [r5, #2]
 8011ae4:	b1d9      	cbz	r1, 8011b1e <xTaskGenericCreate+0xae>
 8011ae6:	78ea      	ldrb	r2, [r5, #3]
 8011ae8:	f884 2037 	strb.w	r2, [r4, #55]	; 0x37
 8011aec:	78eb      	ldrb	r3, [r5, #3]
 8011aee:	b1b3      	cbz	r3, 8011b1e <xTaskGenericCreate+0xae>
 8011af0:	7928      	ldrb	r0, [r5, #4]
 8011af2:	f884 0038 	strb.w	r0, [r4, #56]	; 0x38
 8011af6:	7929      	ldrb	r1, [r5, #4]
 8011af8:	b189      	cbz	r1, 8011b1e <xTaskGenericCreate+0xae>
 8011afa:	796a      	ldrb	r2, [r5, #5]
 8011afc:	f884 2039 	strb.w	r2, [r4, #57]	; 0x39
 8011b00:	796b      	ldrb	r3, [r5, #5]
 8011b02:	b163      	cbz	r3, 8011b1e <xTaskGenericCreate+0xae>
 8011b04:	79a8      	ldrb	r0, [r5, #6]
 8011b06:	f884 003a 	strb.w	r0, [r4, #58]	; 0x3a
 8011b0a:	79a9      	ldrb	r1, [r5, #6]
 8011b0c:	b139      	cbz	r1, 8011b1e <xTaskGenericCreate+0xae>
 8011b0e:	79ea      	ldrb	r2, [r5, #7]
 8011b10:	f884 203b 	strb.w	r2, [r4, #59]	; 0x3b
 8011b14:	79eb      	ldrb	r3, [r5, #7]
 8011b16:	b113      	cbz	r3, 8011b1e <xTaskGenericCreate+0xae>
 8011b18:	7a2d      	ldrb	r5, [r5, #8]
 8011b1a:	f884 503c 	strb.w	r5, [r4, #60]	; 0x3c
 8011b1e:	2100      	movs	r1, #0
 8011b20:	f104 0904 	add.w	r9, r4, #4
 8011b24:	f884 103d 	strb.w	r1, [r4, #61]	; 0x3d
 8011b28:	64e1      	str	r1, [r4, #76]	; 0x4c
 8011b2a:	4648      	mov	r0, r9
 8011b2c:	62e6      	str	r6, [r4, #44]	; 0x2c
 8011b2e:	64a6      	str	r6, [r4, #72]	; 0x48
 8011b30:	f000 fc90 	bl	8012454 <vListInitialiseItem>
 8011b34:	f104 0018 	add.w	r0, r4, #24
 8011b38:	f000 fc8c 	bl	8012454 <vListInitialiseItem>
 8011b3c:	f1c6 0005 	rsb	r0, r6, #5
 8011b40:	61a0      	str	r0, [r4, #24]
 8011b42:	4639      	mov	r1, r7
 8011b44:	6124      	str	r4, [r4, #16]
 8011b46:	6264      	str	r4, [r4, #36]	; 0x24
 8011b48:	4658      	mov	r0, fp
 8011b4a:	4652      	mov	r2, sl
 8011b4c:	f000 ff4a 	bl	80129e4 <pxPortInitialiseStack>
 8011b50:	9f0b      	ldr	r7, [sp, #44]	; 0x2c
 8011b52:	6020      	str	r0, [r4, #0]
 8011b54:	b107      	cbz	r7, 8011b58 <xTaskGenericCreate+0xe8>
 8011b56:	603c      	str	r4, [r7, #0]
 8011b58:	f000 ff7a 	bl	8012a50 <vPortEnterCritical>
 8011b5c:	4b40      	ldr	r3, [pc, #256]	; (8011c60 <xTaskGenericCreate+0x1f0>)
 8011b5e:	4d41      	ldr	r5, [pc, #260]	; (8011c64 <xTaskGenericCreate+0x1f4>)
 8011b60:	681a      	ldr	r2, [r3, #0]
 8011b62:	1c51      	adds	r1, r2, #1
 8011b64:	6019      	str	r1, [r3, #0]
 8011b66:	6828      	ldr	r0, [r5, #0]
 8011b68:	2800      	cmp	r0, #0
 8011b6a:	d039      	beq.n	8011be0 <xTaskGenericCreate+0x170>
 8011b6c:	f8df 8128 	ldr.w	r8, [pc, #296]	; 8011c98 <xTaskGenericCreate+0x228>
 8011b70:	f8d8 7000 	ldr.w	r7, [r8]
 8011b74:	b927      	cbnz	r7, 8011b80 <xTaskGenericCreate+0x110>
 8011b76:	682b      	ldr	r3, [r5, #0]
 8011b78:	6ada      	ldr	r2, [r3, #44]	; 0x2c
 8011b7a:	4296      	cmp	r6, r2
 8011b7c:	bf28      	it	cs
 8011b7e:	602c      	strcs	r4, [r5, #0]
 8011b80:	f8df e118 	ldr.w	lr, [pc, #280]	; 8011c9c <xTaskGenericCreate+0x22c>
 8011b84:	4a38      	ldr	r2, [pc, #224]	; (8011c68 <xTaskGenericCreate+0x1f8>)
 8011b86:	f8de 1000 	ldr.w	r1, [lr]
 8011b8a:	6ae3      	ldr	r3, [r4, #44]	; 0x2c
 8011b8c:	6810      	ldr	r0, [r2, #0]
 8011b8e:	2701      	movs	r7, #1
 8011b90:	eb01 0c07 	add.w	ip, r1, r7
 8011b94:	fa07 fa03 	lsl.w	sl, r7, r3
 8011b98:	eb03 0183 	add.w	r1, r3, r3, lsl #2
 8011b9c:	4b33      	ldr	r3, [pc, #204]	; (8011c6c <xTaskGenericCreate+0x1fc>)
 8011b9e:	f8c4 c040 	str.w	ip, [r4, #64]	; 0x40
 8011ba2:	ea4a 0a00 	orr.w	sl, sl, r0
 8011ba6:	eb03 0081 	add.w	r0, r3, r1, lsl #2
 8011baa:	4649      	mov	r1, r9
 8011bac:	f8c2 a000 	str.w	sl, [r2]
 8011bb0:	f8ce c000 	str.w	ip, [lr]
 8011bb4:	f000 fc52 	bl	801245c <vListInsertEnd>
 8011bb8:	f000 ff76 	bl	8012aa8 <vPortExitCritical>
 8011bbc:	f8d8 2000 	ldr.w	r2, [r8]
 8011bc0:	b11a      	cbz	r2, 8011bca <xTaskGenericCreate+0x15a>
 8011bc2:	6828      	ldr	r0, [r5, #0]
 8011bc4:	6ac1      	ldr	r1, [r0, #44]	; 0x2c
 8011bc6:	428e      	cmp	r6, r1
 8011bc8:	d805      	bhi.n	8011bd6 <xTaskGenericCreate+0x166>
 8011bca:	4638      	mov	r0, r7
 8011bcc:	e8bd 8ff8 	ldmia.w	sp!, {r3, r4, r5, r6, r7, r8, r9, sl, fp, pc}
 8011bd0:	f000 ff36 	bl	8012a40 <ulPortSetInterruptMask>
 8011bd4:	e7fe      	b.n	8011bd4 <xTaskGenericCreate+0x164>
 8011bd6:	f000 ff27 	bl	8012a28 <vPortYield>
 8011bda:	4638      	mov	r0, r7
 8011bdc:	e8bd 8ff8 	ldmia.w	sp!, {r3, r4, r5, r6, r7, r8, r9, sl, fp, pc}
 8011be0:	602c      	str	r4, [r5, #0]
 8011be2:	6819      	ldr	r1, [r3, #0]
 8011be4:	2901      	cmp	r1, #1
 8011be6:	d002      	beq.n	8011bee <xTaskGenericCreate+0x17e>
 8011be8:	f8df 80ac 	ldr.w	r8, [pc, #172]	; 8011c98 <xTaskGenericCreate+0x228>
 8011bec:	e7c8      	b.n	8011b80 <xTaskGenericCreate+0x110>
 8011bee:	481f      	ldr	r0, [pc, #124]	; (8011c6c <xTaskGenericCreate+0x1fc>)
 8011bf0:	f8df a0ac 	ldr.w	sl, [pc, #172]	; 8011ca0 <xTaskGenericCreate+0x230>
 8011bf4:	4f1e      	ldr	r7, [pc, #120]	; (8011c70 <xTaskGenericCreate+0x200>)
 8011bf6:	f8df 80a0 	ldr.w	r8, [pc, #160]	; 8011c98 <xTaskGenericCreate+0x228>
 8011bfa:	f000 fc1f 	bl	801243c <vListInitialise>
 8011bfe:	481d      	ldr	r0, [pc, #116]	; (8011c74 <xTaskGenericCreate+0x204>)
 8011c00:	f000 fc1c 	bl	801243c <vListInitialise>
 8011c04:	481c      	ldr	r0, [pc, #112]	; (8011c78 <xTaskGenericCreate+0x208>)
 8011c06:	f000 fc19 	bl	801243c <vListInitialise>
 8011c0a:	481c      	ldr	r0, [pc, #112]	; (8011c7c <xTaskGenericCreate+0x20c>)
 8011c0c:	f000 fc16 	bl	801243c <vListInitialise>
 8011c10:	481b      	ldr	r0, [pc, #108]	; (8011c80 <xTaskGenericCreate+0x210>)
 8011c12:	f000 fc13 	bl	801243c <vListInitialise>
 8011c16:	4650      	mov	r0, sl
 8011c18:	f000 fc10 	bl	801243c <vListInitialise>
 8011c1c:	4638      	mov	r0, r7
 8011c1e:	f000 fc0d 	bl	801243c <vListInitialise>
 8011c22:	4818      	ldr	r0, [pc, #96]	; (8011c84 <xTaskGenericCreate+0x214>)
 8011c24:	f000 fc0a 	bl	801243c <vListInitialise>
 8011c28:	4817      	ldr	r0, [pc, #92]	; (8011c88 <xTaskGenericCreate+0x218>)
 8011c2a:	f000 fc07 	bl	801243c <vListInitialise>
 8011c2e:	4817      	ldr	r0, [pc, #92]	; (8011c8c <xTaskGenericCreate+0x21c>)
 8011c30:	f000 fc04 	bl	801243c <vListInitialise>
 8011c34:	4816      	ldr	r0, [pc, #88]	; (8011c90 <xTaskGenericCreate+0x220>)
 8011c36:	4b17      	ldr	r3, [pc, #92]	; (8011c94 <xTaskGenericCreate+0x224>)
 8011c38:	f8c0 a000 	str.w	sl, [r0]
 8011c3c:	601f      	str	r7, [r3, #0]
 8011c3e:	e79f      	b.n	8011b80 <xTaskGenericCreate+0x110>
 8011c40:	ea4f 0889 	mov.w	r8, r9, lsl #2
 8011c44:	4640      	mov	r0, r8
 8011c46:	f001 f815 	bl	8012c74 <pvPortMalloc>
 8011c4a:	6320      	str	r0, [r4, #48]	; 0x30
 8011c4c:	2800      	cmp	r0, #0
 8011c4e:	f47f af30 	bne.w	8011ab2 <xTaskGenericCreate+0x42>
 8011c52:	4620      	mov	r0, r4
 8011c54:	f001 f820 	bl	8012c98 <vPortFree>
 8011c58:	f04f 30ff 	mov.w	r0, #4294967295
 8011c5c:	e8bd 8ff8 	ldmia.w	sp!, {r3, r4, r5, r6, r7, r8, r9, sl, fp, pc}
 8011c60:	10000d58 	.word	0x10000d58
 8011c64:	10000d04 	.word	0x10000d04
 8011c68:	10000d5c 	.word	0x10000d5c
 8011c6c:	10000c9c 	.word	0x10000c9c
 8011c70:	10000d40 	.word	0x10000d40
 8011c74:	10000cb0 	.word	0x10000cb0
 8011c78:	10000cc4 	.word	0x10000cc4
 8011c7c:	10000cd8 	.word	0x10000cd8
 8011c80:	10000cec 	.word	0x10000cec
 8011c84:	10000d08 	.word	0x10000d08
 8011c88:	10000c74 	.word	0x10000c74
 8011c8c:	10000c88 	.word	0x10000c88
 8011c90:	10000c68 	.word	0x10000c68
 8011c94:	10000d24 	.word	0x10000d24
 8011c98:	10000c6c 	.word	0x10000c6c
 8011c9c:	10000d28 	.word	0x10000d28
 8011ca0:	10000d2c 	.word	0x10000d2c

08011ca4 <vTaskStartScheduler>:
 8011ca4:	b530      	push	{r4, r5, lr}
 8011ca6:	b085      	sub	sp, #20
 8011ca8:	2400      	movs	r4, #0
 8011caa:	2282      	movs	r2, #130	; 0x82
 8011cac:	9400      	str	r4, [sp, #0]
 8011cae:	9401      	str	r4, [sp, #4]
 8011cb0:	9402      	str	r4, [sp, #8]
 8011cb2:	9403      	str	r4, [sp, #12]
 8011cb4:	480e      	ldr	r0, [pc, #56]	; (8011cf0 <vTaskStartScheduler+0x4c>)
 8011cb6:	490f      	ldr	r1, [pc, #60]	; (8011cf4 <vTaskStartScheduler+0x50>)
 8011cb8:	4623      	mov	r3, r4
 8011cba:	f7ff fed9 	bl	8011a70 <xTaskGenericCreate>
 8011cbe:	2801      	cmp	r0, #1
 8011cc0:	4605      	mov	r5, r0
 8011cc2:	d005      	beq.n	8011cd0 <vTaskStartScheduler+0x2c>
 8011cc4:	b10d      	cbz	r5, 8011cca <vTaskStartScheduler+0x26>
 8011cc6:	b005      	add	sp, #20
 8011cc8:	bd30      	pop	{r4, r5, pc}
 8011cca:	f000 feb9 	bl	8012a40 <ulPortSetInterruptMask>
 8011cce:	e7fe      	b.n	8011cce <vTaskStartScheduler+0x2a>
 8011cd0:	f000 fd58 	bl	8012784 <xTimerCreateTimerTask>
 8011cd4:	2801      	cmp	r0, #1
 8011cd6:	4605      	mov	r5, r0
 8011cd8:	d1f4      	bne.n	8011cc4 <vTaskStartScheduler+0x20>
 8011cda:	f000 feb1 	bl	8012a40 <ulPortSetInterruptMask>
 8011cde:	4b06      	ldr	r3, [pc, #24]	; (8011cf8 <vTaskStartScheduler+0x54>)
 8011ce0:	4806      	ldr	r0, [pc, #24]	; (8011cfc <vTaskStartScheduler+0x58>)
 8011ce2:	601d      	str	r5, [r3, #0]
 8011ce4:	6004      	str	r4, [r0, #0]
 8011ce6:	b005      	add	sp, #20
 8011ce8:	e8bd 4030 	ldmia.w	sp!, {r4, r5, lr}
 8011cec:	f000 bf46 	b.w	8012b7c <xPortStartScheduler>
 8011cf0:	08011f75 	.word	0x08011f75
 8011cf4:	0801b16c 	.word	0x0801b16c
 8011cf8:	10000c6c 	.word	0x10000c6c
 8011cfc:	10000d20 	.word	0x10000d20

08011d00 <vTaskSuspendAll>:
 8011d00:	f640 5300 	movw	r3, #3328	; 0xd00
 8011d04:	f2c1 0300 	movt	r3, #4096	; 0x1000
 8011d08:	681a      	ldr	r2, [r3, #0]
 8011d0a:	1c50      	adds	r0, r2, #1
 8011d0c:	6018      	str	r0, [r3, #0]
 8011d0e:	4770      	bx	lr

08011d10 <xTaskGetTickCount>:
 8011d10:	b510      	push	{r4, lr}
 8011d12:	f000 fe9d 	bl	8012a50 <vPortEnterCritical>
 8011d16:	f640 5320 	movw	r3, #3360	; 0xd20
 8011d1a:	f2c1 0300 	movt	r3, #4096	; 0x1000
 8011d1e:	681c      	ldr	r4, [r3, #0]
 8011d20:	f000 fec2 	bl	8012aa8 <vPortExitCritical>
 8011d24:	4620      	mov	r0, r4
 8011d26:	bd10      	pop	{r4, pc}

08011d28 <xTaskIncrementTick>:
 8011d28:	e92d 4ff8 	stmdb	sp!, {r3, r4, r5, r6, r7, r8, r9, sl, fp, lr}
 8011d2c:	4b4d      	ldr	r3, [pc, #308]	; (8011e64 <xTaskIncrementTick+0x13c>)
 8011d2e:	6818      	ldr	r0, [r3, #0]
 8011d30:	2800      	cmp	r0, #0
 8011d32:	d16f      	bne.n	8011e14 <xTaskIncrementTick+0xec>
 8011d34:	4d4c      	ldr	r5, [pc, #304]	; (8011e68 <xTaskIncrementTick+0x140>)
 8011d36:	682e      	ldr	r6, [r5, #0]
 8011d38:	1c77      	adds	r7, r6, #1
 8011d3a:	602f      	str	r7, [r5, #0]
 8011d3c:	682f      	ldr	r7, [r5, #0]
 8011d3e:	b1f7      	cbz	r7, 8011d7e <xTaskIncrementTick+0x56>
 8011d40:	f8df b144 	ldr.w	fp, [pc, #324]	; 8011e88 <xTaskIncrementTick+0x160>
 8011d44:	f8db 5000 	ldr.w	r5, [fp]
 8011d48:	42af      	cmp	r7, r5
 8011d4a:	d220      	bcs.n	8011d8e <xTaskIncrementTick+0x66>
 8011d4c:	4e47      	ldr	r6, [pc, #284]	; (8011e6c <xTaskIncrementTick+0x144>)
 8011d4e:	4d48      	ldr	r5, [pc, #288]	; (8011e70 <xTaskIncrementTick+0x148>)
 8011d50:	2400      	movs	r4, #0
 8011d52:	6828      	ldr	r0, [r5, #0]
 8011d54:	4a47      	ldr	r2, [pc, #284]	; (8011e74 <xTaskIncrementTick+0x14c>)
 8011d56:	6ac1      	ldr	r1, [r0, #44]	; 0x2c
 8011d58:	6810      	ldr	r0, [r2, #0]
 8011d5a:	eb01 0381 	add.w	r3, r1, r1, lsl #2
 8011d5e:	f856 1023 	ldr.w	r1, [r6, r3, lsl #2]
 8011d62:	2901      	cmp	r1, #1
 8011d64:	bf88      	it	hi
 8011d66:	2401      	movhi	r4, #1
 8011d68:	b908      	cbnz	r0, 8011d6e <xTaskIncrementTick+0x46>
 8011d6a:	f000 ffa5 	bl	8012cb8 <vApplicationTickHook>
 8011d6e:	4a42      	ldr	r2, [pc, #264]	; (8011e78 <xTaskIncrementTick+0x150>)
 8011d70:	6810      	ldr	r0, [r2, #0]
 8011d72:	2800      	cmp	r0, #0
 8011d74:	bf0c      	ite	eq
 8011d76:	4620      	moveq	r0, r4
 8011d78:	2001      	movne	r0, #1
 8011d7a:	e8bd 8ff8 	ldmia.w	sp!, {r3, r4, r5, r6, r7, r8, r9, sl, fp, pc}
 8011d7e:	4b3f      	ldr	r3, [pc, #252]	; (8011e7c <xTaskIncrementTick+0x154>)
 8011d80:	6818      	ldr	r0, [r3, #0]
 8011d82:	6801      	ldr	r1, [r0, #0]
 8011d84:	2900      	cmp	r1, #0
 8011d86:	d050      	beq.n	8011e2a <xTaskIncrementTick+0x102>
 8011d88:	f000 fe5a 	bl	8012a40 <ulPortSetInterruptMask>
 8011d8c:	e7fe      	b.n	8011d8c <xTaskIncrementTick+0x64>
 8011d8e:	4e37      	ldr	r6, [pc, #220]	; (8011e6c <xTaskIncrementTick+0x144>)
 8011d90:	4d37      	ldr	r5, [pc, #220]	; (8011e70 <xTaskIncrementTick+0x148>)
 8011d92:	f8df 90f8 	ldr.w	r9, [pc, #248]	; 8011e8c <xTaskIncrementTick+0x164>
 8011d96:	2400      	movs	r4, #0
 8011d98:	f640 4368 	movw	r3, #3176	; 0xc68
 8011d9c:	f2c1 0300 	movt	r3, #4096	; 0x1000
 8011da0:	681a      	ldr	r2, [r3, #0]
 8011da2:	6810      	ldr	r0, [r2, #0]
 8011da4:	b920      	cbnz	r0, 8011db0 <xTaskIncrementTick+0x88>
 8011da6:	f04f 33ff 	mov.w	r3, #4294967295
 8011daa:	f8cb 3000 	str.w	r3, [fp]
 8011dae:	e7d0      	b.n	8011d52 <xTaskIncrementTick+0x2a>
 8011db0:	f640 4168 	movw	r1, #3176	; 0xc68
 8011db4:	f2c1 0100 	movt	r1, #4096	; 0x1000
 8011db8:	680b      	ldr	r3, [r1, #0]
 8011dba:	68da      	ldr	r2, [r3, #12]
 8011dbc:	f8d2 800c 	ldr.w	r8, [r2, #12]
 8011dc0:	f8d8 1004 	ldr.w	r1, [r8, #4]
 8011dc4:	f108 0a04 	add.w	sl, r8, #4
 8011dc8:	428f      	cmp	r7, r1
 8011dca:	4650      	mov	r0, sl
 8011dcc:	d32a      	bcc.n	8011e24 <xTaskIncrementTick+0xfc>
 8011dce:	f000 fb6d 	bl	80124ac <uxListRemove>
 8011dd2:	f8d8 3028 	ldr.w	r3, [r8, #40]	; 0x28
 8011dd6:	f108 0018 	add.w	r0, r8, #24
 8011dda:	b10b      	cbz	r3, 8011de0 <xTaskIncrementTick+0xb8>
 8011ddc:	f000 fb66 	bl	80124ac <uxListRemove>
 8011de0:	f8d8 202c 	ldr.w	r2, [r8, #44]	; 0x2c
 8011de4:	f8d9 0000 	ldr.w	r0, [r9]
 8011de8:	2101      	movs	r1, #1
 8011dea:	fa01 fe02 	lsl.w	lr, r1, r2
 8011dee:	eb02 0282 	add.w	r2, r2, r2, lsl #2
 8011df2:	ea4e 0300 	orr.w	r3, lr, r0
 8011df6:	4651      	mov	r1, sl
 8011df8:	eb06 0082 	add.w	r0, r6, r2, lsl #2
 8011dfc:	f8c9 3000 	str.w	r3, [r9]
 8011e00:	f000 fb2c 	bl	801245c <vListInsertEnd>
 8011e04:	6828      	ldr	r0, [r5, #0]
 8011e06:	f8d8 102c 	ldr.w	r1, [r8, #44]	; 0x2c
 8011e0a:	6ac2      	ldr	r2, [r0, #44]	; 0x2c
 8011e0c:	4291      	cmp	r1, r2
 8011e0e:	bf28      	it	cs
 8011e10:	2401      	movcs	r4, #1
 8011e12:	e7c1      	b.n	8011d98 <xTaskIncrementTick+0x70>
 8011e14:	4917      	ldr	r1, [pc, #92]	; (8011e74 <xTaskIncrementTick+0x14c>)
 8011e16:	680a      	ldr	r2, [r1, #0]
 8011e18:	1c54      	adds	r4, r2, #1
 8011e1a:	600c      	str	r4, [r1, #0]
 8011e1c:	f000 ff4c 	bl	8012cb8 <vApplicationTickHook>
 8011e20:	2400      	movs	r4, #0
 8011e22:	e7a4      	b.n	8011d6e <xTaskIncrementTick+0x46>
 8011e24:	f8cb 1000 	str.w	r1, [fp]
 8011e28:	e793      	b.n	8011d52 <xTaskIncrementTick+0x2a>
 8011e2a:	4d15      	ldr	r5, [pc, #84]	; (8011e80 <xTaskIncrementTick+0x158>)
 8011e2c:	681e      	ldr	r6, [r3, #0]
 8011e2e:	682c      	ldr	r4, [r5, #0]
 8011e30:	4a14      	ldr	r2, [pc, #80]	; (8011e84 <xTaskIncrementTick+0x15c>)
 8011e32:	601c      	str	r4, [r3, #0]
 8011e34:	602e      	str	r6, [r5, #0]
 8011e36:	6810      	ldr	r0, [r2, #0]
 8011e38:	1c41      	adds	r1, r0, #1
 8011e3a:	6011      	str	r1, [r2, #0]
 8011e3c:	681d      	ldr	r5, [r3, #0]
 8011e3e:	682e      	ldr	r6, [r5, #0]
 8011e40:	b146      	cbz	r6, 8011e54 <xTaskIncrementTick+0x12c>
 8011e42:	681b      	ldr	r3, [r3, #0]
 8011e44:	f8df b040 	ldr.w	fp, [pc, #64]	; 8011e88 <xTaskIncrementTick+0x160>
 8011e48:	68dc      	ldr	r4, [r3, #12]
 8011e4a:	68e2      	ldr	r2, [r4, #12]
 8011e4c:	6850      	ldr	r0, [r2, #4]
 8011e4e:	f8cb 0000 	str.w	r0, [fp]
 8011e52:	e777      	b.n	8011d44 <xTaskIncrementTick+0x1c>
 8011e54:	f8df b030 	ldr.w	fp, [pc, #48]	; 8011e88 <xTaskIncrementTick+0x160>
 8011e58:	f04f 31ff 	mov.w	r1, #4294967295
 8011e5c:	f8cb 1000 	str.w	r1, [fp]
 8011e60:	e770      	b.n	8011d44 <xTaskIncrementTick+0x1c>
 8011e62:	bf00      	nop
 8011e64:	10000d00 	.word	0x10000d00
 8011e68:	10000d20 	.word	0x10000d20
 8011e6c:	10000c9c 	.word	0x10000c9c
 8011e70:	10000d04 	.word	0x10000d04
 8011e74:	10000d54 	.word	0x10000d54
 8011e78:	10000d60 	.word	0x10000d60
 8011e7c:	10000c68 	.word	0x10000c68
 8011e80:	10000d24 	.word	0x10000d24
 8011e84:	10000d1c 	.word	0x10000d1c
 8011e88:	10000000 	.word	0x10000000
 8011e8c:	10000d5c 	.word	0x10000d5c

08011e90 <xTaskResumeAll>:
 8011e90:	e92d 4ff8 	stmdb	sp!, {r3, r4, r5, r6, r7, r8, r9, sl, fp, lr}
 8011e94:	4c30      	ldr	r4, [pc, #192]	; (8011f58 <xTaskResumeAll+0xc8>)
 8011e96:	6823      	ldr	r3, [r4, #0]
 8011e98:	b913      	cbnz	r3, 8011ea0 <xTaskResumeAll+0x10>
 8011e9a:	f000 fdd1 	bl	8012a40 <ulPortSetInterruptMask>
 8011e9e:	e7fe      	b.n	8011e9e <xTaskResumeAll+0xe>
 8011ea0:	f000 fdd6 	bl	8012a50 <vPortEnterCritical>
 8011ea4:	6820      	ldr	r0, [r4, #0]
 8011ea6:	1e41      	subs	r1, r0, #1
 8011ea8:	6021      	str	r1, [r4, #0]
 8011eaa:	6822      	ldr	r2, [r4, #0]
 8011eac:	2a00      	cmp	r2, #0
 8011eae:	d13b      	bne.n	8011f28 <xTaskResumeAll+0x98>
 8011eb0:	4c2a      	ldr	r4, [pc, #168]	; (8011f5c <xTaskResumeAll+0xcc>)
 8011eb2:	6823      	ldr	r3, [r4, #0]
 8011eb4:	2b00      	cmp	r3, #0
 8011eb6:	d037      	beq.n	8011f28 <xTaskResumeAll+0x98>
 8011eb8:	f8df 90b0 	ldr.w	r9, [pc, #176]	; 8011f6c <xTaskResumeAll+0xdc>
 8011ebc:	4d28      	ldr	r5, [pc, #160]	; (8011f60 <xTaskResumeAll+0xd0>)
 8011ebe:	4f29      	ldr	r7, [pc, #164]	; (8011f64 <xTaskResumeAll+0xd4>)
 8011ec0:	f8df b0ac 	ldr.w	fp, [pc, #172]	; 8011f70 <xTaskResumeAll+0xe0>
 8011ec4:	46ca      	mov	sl, r9
 8011ec6:	2601      	movs	r6, #1
 8011ec8:	e024      	b.n	8011f14 <xTaskResumeAll+0x84>
 8011eca:	f8da 400c 	ldr.w	r4, [sl, #12]
 8011ece:	68e4      	ldr	r4, [r4, #12]
 8011ed0:	f104 0804 	add.w	r8, r4, #4
 8011ed4:	f104 0018 	add.w	r0, r4, #24
 8011ed8:	f000 fae8 	bl	80124ac <uxListRemove>
 8011edc:	4640      	mov	r0, r8
 8011ede:	f000 fae5 	bl	80124ac <uxListRemove>
 8011ee2:	6ae2      	ldr	r2, [r4, #44]	; 0x2c
 8011ee4:	683b      	ldr	r3, [r7, #0]
 8011ee6:	f640 419c 	movw	r1, #3228	; 0xc9c
 8011eea:	fa06 fe02 	lsl.w	lr, r6, r2
 8011eee:	eb02 0082 	add.w	r0, r2, r2, lsl #2
 8011ef2:	f2c1 0100 	movt	r1, #4096	; 0x1000
 8011ef6:	ea4e 0203 	orr.w	r2, lr, r3
 8011efa:	eb01 0080 	add.w	r0, r1, r0, lsl #2
 8011efe:	4641      	mov	r1, r8
 8011f00:	603a      	str	r2, [r7, #0]
 8011f02:	f000 faab 	bl	801245c <vListInsertEnd>
 8011f06:	f8db 3000 	ldr.w	r3, [fp]
 8011f0a:	6ae4      	ldr	r4, [r4, #44]	; 0x2c
 8011f0c:	6ad8      	ldr	r0, [r3, #44]	; 0x2c
 8011f0e:	4284      	cmp	r4, r0
 8011f10:	bf28      	it	cs
 8011f12:	602e      	strcs	r6, [r5, #0]
 8011f14:	f8d9 0000 	ldr.w	r0, [r9]
 8011f18:	2800      	cmp	r0, #0
 8011f1a:	d1d6      	bne.n	8011eca <xTaskResumeAll+0x3a>
 8011f1c:	4c12      	ldr	r4, [pc, #72]	; (8011f68 <xTaskResumeAll+0xd8>)
 8011f1e:	6821      	ldr	r1, [r4, #0]
 8011f20:	b941      	cbnz	r1, 8011f34 <xTaskResumeAll+0xa4>
 8011f22:	682c      	ldr	r4, [r5, #0]
 8011f24:	2c01      	cmp	r4, #1
 8011f26:	d014      	beq.n	8011f52 <xTaskResumeAll+0xc2>
 8011f28:	2400      	movs	r4, #0
 8011f2a:	f000 fdbd 	bl	8012aa8 <vPortExitCritical>
 8011f2e:	4620      	mov	r0, r4
 8011f30:	e8bd 8ff8 	ldmia.w	sp!, {r3, r4, r5, r6, r7, r8, r9, sl, fp, pc}
 8011f34:	6822      	ldr	r2, [r4, #0]
 8011f36:	2a00      	cmp	r2, #0
 8011f38:	d0f3      	beq.n	8011f22 <xTaskResumeAll+0x92>
 8011f3a:	2601      	movs	r6, #1
 8011f3c:	f7ff fef4 	bl	8011d28 <xTaskIncrementTick>
 8011f40:	b100      	cbz	r0, 8011f44 <xTaskResumeAll+0xb4>
 8011f42:	602e      	str	r6, [r5, #0]
 8011f44:	6823      	ldr	r3, [r4, #0]
 8011f46:	1e58      	subs	r0, r3, #1
 8011f48:	6020      	str	r0, [r4, #0]
 8011f4a:	6821      	ldr	r1, [r4, #0]
 8011f4c:	2900      	cmp	r1, #0
 8011f4e:	d1f5      	bne.n	8011f3c <xTaskResumeAll+0xac>
 8011f50:	e7e7      	b.n	8011f22 <xTaskResumeAll+0x92>
 8011f52:	f000 fd69 	bl	8012a28 <vPortYield>
 8011f56:	e7e8      	b.n	8011f2a <xTaskResumeAll+0x9a>
 8011f58:	10000d00 	.word	0x10000d00
 8011f5c:	10000d58 	.word	0x10000d58
 8011f60:	10000d60 	.word	0x10000d60
 8011f64:	10000d5c 	.word	0x10000d5c
 8011f68:	10000d54 	.word	0x10000d54
 8011f6c:	10000d08 	.word	0x10000d08
 8011f70:	10000d04 	.word	0x10000d04

08011f74 <prvIdleTask>:
 8011f74:	e92d 4ff8 	stmdb	sp!, {r3, r4, r5, r6, r7, r8, r9, sl, fp, lr}
 8011f78:	4e1d      	ldr	r6, [pc, #116]	; (8011ff0 <prvIdleTask+0x7c>)
 8011f7a:	4d1e      	ldr	r5, [pc, #120]	; (8011ff4 <prvIdleTask+0x80>)
 8011f7c:	4c1e      	ldr	r4, [pc, #120]	; (8011ff8 <prvIdleTask+0x84>)
 8011f7e:	f8df 807c 	ldr.w	r8, [pc, #124]	; 8011ffc <prvIdleTask+0x88>
 8011f82:	f8df 907c 	ldr.w	r9, [pc, #124]	; 8012000 <prvIdleTask+0x8c>
 8011f86:	46b2      	mov	sl, r6
 8011f88:	e006      	b.n	8011f98 <prvIdleTask+0x24>
 8011f8a:	6821      	ldr	r1, [r4, #0]
 8011f8c:	6837      	ldr	r7, [r6, #0]
 8011f8e:	1c4a      	adds	r2, r1, #1
 8011f90:	6022      	str	r2, [r4, #0]
 8011f92:	f7ff ff7d 	bl	8011e90 <xTaskResumeAll>
 8011f96:	b95f      	cbnz	r7, 8011fb0 <prvIdleTask+0x3c>
 8011f98:	682b      	ldr	r3, [r5, #0]
 8011f9a:	2b00      	cmp	r3, #0
 8011f9c:	d1f5      	bne.n	8011f8a <prvIdleTask+0x16>
 8011f9e:	f8d9 0000 	ldr.w	r0, [r9]
 8011fa2:	2801      	cmp	r0, #1
 8011fa4:	d901      	bls.n	8011faa <prvIdleTask+0x36>
 8011fa6:	f000 fd3f 	bl	8012a28 <vPortYield>
 8011faa:	f000 fe83 	bl	8012cb4 <vApplicationIdleHook>
 8011fae:	e7f3      	b.n	8011f98 <prvIdleTask+0x24>
 8011fb0:	f000 fd4e 	bl	8012a50 <vPortEnterCritical>
 8011fb4:	f8da 300c 	ldr.w	r3, [sl, #12]
 8011fb8:	f8d3 b00c 	ldr.w	fp, [r3, #12]
 8011fbc:	f10b 0004 	add.w	r0, fp, #4
 8011fc0:	f000 fa74 	bl	80124ac <uxListRemove>
 8011fc4:	f8d8 0000 	ldr.w	r0, [r8]
 8011fc8:	f640 4770 	movw	r7, #3184	; 0xc70
 8011fcc:	1e41      	subs	r1, r0, #1
 8011fce:	f2c1 0700 	movt	r7, #4096	; 0x1000
 8011fd2:	f8c8 1000 	str.w	r1, [r8]
 8011fd6:	683a      	ldr	r2, [r7, #0]
 8011fd8:	1e53      	subs	r3, r2, #1
 8011fda:	603b      	str	r3, [r7, #0]
 8011fdc:	f000 fd64 	bl	8012aa8 <vPortExitCritical>
 8011fe0:	f8db 0030 	ldr.w	r0, [fp, #48]	; 0x30
 8011fe4:	f000 fe58 	bl	8012c98 <vPortFree>
 8011fe8:	4658      	mov	r0, fp
 8011fea:	f000 fe55 	bl	8012c98 <vPortFree>
 8011fee:	e7d3      	b.n	8011f98 <prvIdleTask+0x24>
 8011ff0:	10000c74 	.word	0x10000c74
 8011ff4:	10000c70 	.word	0x10000c70
 8011ff8:	10000d00 	.word	0x10000d00
 8011ffc:	10000d58 	.word	0x10000d58
 8012000:	10000c9c 	.word	0x10000c9c

08012004 <vTaskSwitchContext>:
 8012004:	b538      	push	{r3, r4, r5, lr}
 8012006:	4b21      	ldr	r3, [pc, #132]	; (801208c <vTaskSwitchContext+0x88>)
 8012008:	6818      	ldr	r0, [r3, #0]
 801200a:	2800      	cmp	r0, #0
 801200c:	d139      	bne.n	8012082 <vTaskSwitchContext+0x7e>
 801200e:	4a20      	ldr	r2, [pc, #128]	; (8012090 <vTaskSwitchContext+0x8c>)
 8012010:	4c20      	ldr	r4, [pc, #128]	; (8012094 <vTaskSwitchContext+0x90>)
 8012012:	6010      	str	r0, [r2, #0]
 8012014:	6821      	ldr	r1, [r4, #0]
 8012016:	6825      	ldr	r5, [r4, #0]
 8012018:	6808      	ldr	r0, [r1, #0]
 801201a:	6b2b      	ldr	r3, [r5, #48]	; 0x30
 801201c:	4298      	cmp	r0, r3
 801201e:	d92a      	bls.n	8012076 <vTaskSwitchContext+0x72>
 8012020:	6822      	ldr	r2, [r4, #0]
 8012022:	491d      	ldr	r1, [pc, #116]	; (8012098 <vTaskSwitchContext+0x94>)
 8012024:	6b10      	ldr	r0, [r2, #48]	; 0x30
 8012026:	4d1b      	ldr	r5, [pc, #108]	; (8012094 <vTaskSwitchContext+0x90>)
 8012028:	2214      	movs	r2, #20
 801202a:	f003 fb45 	bl	80156b8 <memcmp>
 801202e:	b9e0      	cbnz	r0, 801206a <vTaskSwitchContext+0x66>
 8012030:	491a      	ldr	r1, [pc, #104]	; (801209c <vTaskSwitchContext+0x98>)
 8012032:	6808      	ldr	r0, [r1, #0]
 8012034:	fab0 f380 	clz	r3, r0
 8012038:	b2da      	uxtb	r2, r3
 801203a:	f1c2 011f 	rsb	r1, r2, #31
 801203e:	eb01 0081 	add.w	r0, r1, r1, lsl #2
 8012042:	0083      	lsls	r3, r0, #2
 8012044:	4916      	ldr	r1, [pc, #88]	; (80120a0 <vTaskSwitchContext+0x9c>)
 8012046:	58c8      	ldr	r0, [r1, r3]
 8012048:	18ca      	adds	r2, r1, r3
 801204a:	b158      	cbz	r0, 8012064 <vTaskSwitchContext+0x60>
 801204c:	6851      	ldr	r1, [r2, #4]
 801204e:	684b      	ldr	r3, [r1, #4]
 8012050:	f102 0008 	add.w	r0, r2, #8
 8012054:	4283      	cmp	r3, r0
 8012056:	6053      	str	r3, [r2, #4]
 8012058:	bf04      	itt	eq
 801205a:	685b      	ldreq	r3, [r3, #4]
 801205c:	6053      	streq	r3, [r2, #4]
 801205e:	68da      	ldr	r2, [r3, #12]
 8012060:	6022      	str	r2, [r4, #0]
 8012062:	bd38      	pop	{r3, r4, r5, pc}
 8012064:	f000 fcec 	bl	8012a40 <ulPortSetInterruptMask>
 8012068:	e7fe      	b.n	8012068 <vTaskSwitchContext+0x64>
 801206a:	6828      	ldr	r0, [r5, #0]
 801206c:	6829      	ldr	r1, [r5, #0]
 801206e:	3134      	adds	r1, #52	; 0x34
 8012070:	f000 fe30 	bl	8012cd4 <vApplicationStackOverflowHook>
 8012074:	e7dc      	b.n	8012030 <vTaskSwitchContext+0x2c>
 8012076:	6820      	ldr	r0, [r4, #0]
 8012078:	6821      	ldr	r1, [r4, #0]
 801207a:	3134      	adds	r1, #52	; 0x34
 801207c:	f000 fe2a 	bl	8012cd4 <vApplicationStackOverflowHook>
 8012080:	e7ce      	b.n	8012020 <vTaskSwitchContext+0x1c>
 8012082:	4b03      	ldr	r3, [pc, #12]	; (8012090 <vTaskSwitchContext+0x8c>)
 8012084:	2101      	movs	r1, #1
 8012086:	6019      	str	r1, [r3, #0]
 8012088:	bd38      	pop	{r3, r4, r5, pc}
 801208a:	bf00      	nop
 801208c:	10000d00 	.word	0x10000d00
 8012090:	10000d60 	.word	0x10000d60
 8012094:	10000d04 	.word	0x10000d04
 8012098:	0801b158 	.word	0x0801b158
 801209c:	10000d5c 	.word	0x10000d5c
 80120a0:	10000c9c 	.word	0x10000c9c

080120a4 <vTaskPlaceOnEventList>:
 80120a4:	b538      	push	{r3, r4, r5, lr}
 80120a6:	460d      	mov	r5, r1
 80120a8:	2800      	cmp	r0, #0
 80120aa:	d039      	beq.n	8012120 <vTaskPlaceOnEventList+0x7c>
 80120ac:	4c1e      	ldr	r4, [pc, #120]	; (8012128 <vTaskPlaceOnEventList+0x84>)
 80120ae:	6821      	ldr	r1, [r4, #0]
 80120b0:	3118      	adds	r1, #24
 80120b2:	f000 f9e1 	bl	8012478 <vListInsert>
 80120b6:	6820      	ldr	r0, [r4, #0]
 80120b8:	3004      	adds	r0, #4
 80120ba:	f000 f9f7 	bl	80124ac <uxListRemove>
 80120be:	b948      	cbnz	r0, 80120d4 <vTaskPlaceOnEventList+0x30>
 80120c0:	6822      	ldr	r2, [r4, #0]
 80120c2:	4b1a      	ldr	r3, [pc, #104]	; (801212c <vTaskPlaceOnEventList+0x88>)
 80120c4:	6ad1      	ldr	r1, [r2, #44]	; 0x2c
 80120c6:	681a      	ldr	r2, [r3, #0]
 80120c8:	2001      	movs	r0, #1
 80120ca:	fa00 f101 	lsl.w	r1, r0, r1
 80120ce:	ea22 0201 	bic.w	r2, r2, r1
 80120d2:	601a      	str	r2, [r3, #0]
 80120d4:	1c69      	adds	r1, r5, #1
 80120d6:	d01c      	beq.n	8012112 <vTaskPlaceOnEventList+0x6e>
 80120d8:	4a15      	ldr	r2, [pc, #84]	; (8012130 <vTaskPlaceOnEventList+0x8c>)
 80120da:	4b13      	ldr	r3, [pc, #76]	; (8012128 <vTaskPlaceOnEventList+0x84>)
 80120dc:	6810      	ldr	r0, [r2, #0]
 80120de:	6821      	ldr	r1, [r4, #0]
 80120e0:	6812      	ldr	r2, [r2, #0]
 80120e2:	182c      	adds	r4, r5, r0
 80120e4:	4294      	cmp	r4, r2
 80120e6:	604c      	str	r4, [r1, #4]
 80120e8:	d30b      	bcc.n	8012102 <vTaskPlaceOnEventList+0x5e>
 80120ea:	4812      	ldr	r0, [pc, #72]	; (8012134 <vTaskPlaceOnEventList+0x90>)
 80120ec:	6800      	ldr	r0, [r0, #0]
 80120ee:	681b      	ldr	r3, [r3, #0]
 80120f0:	1d19      	adds	r1, r3, #4
 80120f2:	f000 f9c1 	bl	8012478 <vListInsert>
 80120f6:	4910      	ldr	r1, [pc, #64]	; (8012138 <vTaskPlaceOnEventList+0x94>)
 80120f8:	680a      	ldr	r2, [r1, #0]
 80120fa:	4294      	cmp	r4, r2
 80120fc:	bf38      	it	cc
 80120fe:	600c      	strcc	r4, [r1, #0]
 8012100:	bd38      	pop	{r3, r4, r5, pc}
 8012102:	480e      	ldr	r0, [pc, #56]	; (801213c <vTaskPlaceOnEventList+0x98>)
 8012104:	6800      	ldr	r0, [r0, #0]
 8012106:	681b      	ldr	r3, [r3, #0]
 8012108:	1d19      	adds	r1, r3, #4
 801210a:	e8bd 4038 	ldmia.w	sp!, {r3, r4, r5, lr}
 801210e:	f000 b9b3 	b.w	8012478 <vListInsert>
 8012112:	6821      	ldr	r1, [r4, #0]
 8012114:	480a      	ldr	r0, [pc, #40]	; (8012140 <vTaskPlaceOnEventList+0x9c>)
 8012116:	3104      	adds	r1, #4
 8012118:	e8bd 4038 	ldmia.w	sp!, {r3, r4, r5, lr}
 801211c:	f000 b99e 	b.w	801245c <vListInsertEnd>
 8012120:	f000 fc8e 	bl	8012a40 <ulPortSetInterruptMask>
 8012124:	e7fe      	b.n	8012124 <vTaskPlaceOnEventList+0x80>
 8012126:	bf00      	nop
 8012128:	10000d04 	.word	0x10000d04
 801212c:	10000d5c 	.word	0x10000d5c
 8012130:	10000d20 	.word	0x10000d20
 8012134:	10000c68 	.word	0x10000c68
 8012138:	10000000 	.word	0x10000000
 801213c:	10000d24 	.word	0x10000d24
 8012140:	10000c88 	.word	0x10000c88

08012144 <vTaskPlaceOnEventListRestricted>:
 8012144:	b538      	push	{r3, r4, r5, lr}
 8012146:	460c      	mov	r4, r1
 8012148:	2800      	cmp	r0, #0
 801214a:	d030      	beq.n	80121ae <vTaskPlaceOnEventListRestricted+0x6a>
 801214c:	4d19      	ldr	r5, [pc, #100]	; (80121b4 <vTaskPlaceOnEventListRestricted+0x70>)
 801214e:	6829      	ldr	r1, [r5, #0]
 8012150:	3118      	adds	r1, #24
 8012152:	f000 f983 	bl	801245c <vListInsertEnd>
 8012156:	6828      	ldr	r0, [r5, #0]
 8012158:	3004      	adds	r0, #4
 801215a:	f000 f9a7 	bl	80124ac <uxListRemove>
 801215e:	b948      	cbnz	r0, 8012174 <vTaskPlaceOnEventListRestricted+0x30>
 8012160:	682a      	ldr	r2, [r5, #0]
 8012162:	4b15      	ldr	r3, [pc, #84]	; (80121b8 <vTaskPlaceOnEventListRestricted+0x74>)
 8012164:	6ad1      	ldr	r1, [r2, #44]	; 0x2c
 8012166:	681a      	ldr	r2, [r3, #0]
 8012168:	2001      	movs	r0, #1
 801216a:	fa00 f101 	lsl.w	r1, r0, r1
 801216e:	ea22 0201 	bic.w	r2, r2, r1
 8012172:	601a      	str	r2, [r3, #0]
 8012174:	4a11      	ldr	r2, [pc, #68]	; (80121bc <vTaskPlaceOnEventListRestricted+0x78>)
 8012176:	4b0f      	ldr	r3, [pc, #60]	; (80121b4 <vTaskPlaceOnEventListRestricted+0x70>)
 8012178:	6810      	ldr	r0, [r2, #0]
 801217a:	6829      	ldr	r1, [r5, #0]
 801217c:	6812      	ldr	r2, [r2, #0]
 801217e:	1824      	adds	r4, r4, r0
 8012180:	4294      	cmp	r4, r2
 8012182:	604c      	str	r4, [r1, #4]
 8012184:	d30b      	bcc.n	801219e <vTaskPlaceOnEventListRestricted+0x5a>
 8012186:	480e      	ldr	r0, [pc, #56]	; (80121c0 <vTaskPlaceOnEventListRestricted+0x7c>)
 8012188:	6800      	ldr	r0, [r0, #0]
 801218a:	681b      	ldr	r3, [r3, #0]
 801218c:	1d19      	adds	r1, r3, #4
 801218e:	f000 f973 	bl	8012478 <vListInsert>
 8012192:	490c      	ldr	r1, [pc, #48]	; (80121c4 <vTaskPlaceOnEventListRestricted+0x80>)
 8012194:	680a      	ldr	r2, [r1, #0]
 8012196:	4294      	cmp	r4, r2
 8012198:	bf38      	it	cc
 801219a:	600c      	strcc	r4, [r1, #0]
 801219c:	bd38      	pop	{r3, r4, r5, pc}
 801219e:	480a      	ldr	r0, [pc, #40]	; (80121c8 <vTaskPlaceOnEventListRestricted+0x84>)
 80121a0:	6800      	ldr	r0, [r0, #0]
 80121a2:	681b      	ldr	r3, [r3, #0]
 80121a4:	1d19      	adds	r1, r3, #4
 80121a6:	e8bd 4038 	ldmia.w	sp!, {r3, r4, r5, lr}
 80121aa:	f000 b965 	b.w	8012478 <vListInsert>
 80121ae:	f000 fc47 	bl	8012a40 <ulPortSetInterruptMask>
 80121b2:	e7fe      	b.n	80121b2 <vTaskPlaceOnEventListRestricted+0x6e>
 80121b4:	10000d04 	.word	0x10000d04
 80121b8:	10000d5c 	.word	0x10000d5c
 80121bc:	10000d20 	.word	0x10000d20
 80121c0:	10000c68 	.word	0x10000c68
 80121c4:	10000000 	.word	0x10000000
 80121c8:	10000d24 	.word	0x10000d24

080121cc <xTaskRemoveFromEventList>:
 80121cc:	68c3      	ldr	r3, [r0, #12]
 80121ce:	b570      	push	{r4, r5, r6, lr}
 80121d0:	68dc      	ldr	r4, [r3, #12]
 80121d2:	2c00      	cmp	r4, #0
 80121d4:	d02c      	beq.n	8012230 <xTaskRemoveFromEventList+0x64>
 80121d6:	f104 0518 	add.w	r5, r4, #24
 80121da:	4628      	mov	r0, r5
 80121dc:	f000 f966 	bl	80124ac <uxListRemove>
 80121e0:	4815      	ldr	r0, [pc, #84]	; (8012238 <xTaskRemoveFromEventList+0x6c>)
 80121e2:	6801      	ldr	r1, [r0, #0]
 80121e4:	b9e9      	cbnz	r1, 8012222 <xTaskRemoveFromEventList+0x56>
 80121e6:	1d25      	adds	r5, r4, #4
 80121e8:	4628      	mov	r0, r5
 80121ea:	f000 f95f 	bl	80124ac <uxListRemove>
 80121ee:	6ae3      	ldr	r3, [r4, #44]	; 0x2c
 80121f0:	4a12      	ldr	r2, [pc, #72]	; (801223c <xTaskRemoveFromEventList+0x70>)
 80121f2:	2601      	movs	r6, #1
 80121f4:	6810      	ldr	r0, [r2, #0]
 80121f6:	eb03 0183 	add.w	r1, r3, r3, lsl #2
 80121fa:	fa06 f603 	lsl.w	r6, r6, r3
 80121fe:	4b10      	ldr	r3, [pc, #64]	; (8012240 <xTaskRemoveFromEventList+0x74>)
 8012200:	4306      	orrs	r6, r0
 8012202:	eb03 0081 	add.w	r0, r3, r1, lsl #2
 8012206:	4629      	mov	r1, r5
 8012208:	6016      	str	r6, [r2, #0]
 801220a:	f000 f927 	bl	801245c <vListInsertEnd>
 801220e:	480d      	ldr	r0, [pc, #52]	; (8012244 <xTaskRemoveFromEventList+0x78>)
 8012210:	6ae2      	ldr	r2, [r4, #44]	; 0x2c
 8012212:	6801      	ldr	r1, [r0, #0]
 8012214:	6acb      	ldr	r3, [r1, #44]	; 0x2c
 8012216:	429a      	cmp	r2, r3
 8012218:	d908      	bls.n	801222c <xTaskRemoveFromEventList+0x60>
 801221a:	4a0b      	ldr	r2, [pc, #44]	; (8012248 <xTaskRemoveFromEventList+0x7c>)
 801221c:	2001      	movs	r0, #1
 801221e:	6010      	str	r0, [r2, #0]
 8012220:	bd70      	pop	{r4, r5, r6, pc}
 8012222:	480a      	ldr	r0, [pc, #40]	; (801224c <xTaskRemoveFromEventList+0x80>)
 8012224:	4629      	mov	r1, r5
 8012226:	f000 f919 	bl	801245c <vListInsertEnd>
 801222a:	e7f0      	b.n	801220e <xTaskRemoveFromEventList+0x42>
 801222c:	2000      	movs	r0, #0
 801222e:	bd70      	pop	{r4, r5, r6, pc}
 8012230:	f000 fc06 	bl	8012a40 <ulPortSetInterruptMask>
 8012234:	e7fe      	b.n	8012234 <xTaskRemoveFromEventList+0x68>
 8012236:	bf00      	nop
 8012238:	10000d00 	.word	0x10000d00
 801223c:	10000d5c 	.word	0x10000d5c
 8012240:	10000c9c 	.word	0x10000c9c
 8012244:	10000d04 	.word	0x10000d04
 8012248:	10000d60 	.word	0x10000d60
 801224c:	10000d08 	.word	0x10000d08

08012250 <vTaskSetTimeOutState>:
 8012250:	b508      	push	{r3, lr}
 8012252:	b130      	cbz	r0, 8012262 <vTaskSetTimeOutState+0x12>
 8012254:	4b04      	ldr	r3, [pc, #16]	; (8012268 <vTaskSetTimeOutState+0x18>)
 8012256:	4905      	ldr	r1, [pc, #20]	; (801226c <vTaskSetTimeOutState+0x1c>)
 8012258:	681a      	ldr	r2, [r3, #0]
 801225a:	680b      	ldr	r3, [r1, #0]
 801225c:	e880 000c 	stmia.w	r0, {r2, r3}
 8012260:	bd08      	pop	{r3, pc}
 8012262:	f000 fbed 	bl	8012a40 <ulPortSetInterruptMask>
 8012266:	e7fe      	b.n	8012266 <vTaskSetTimeOutState+0x16>
 8012268:	10000d1c 	.word	0x10000d1c
 801226c:	10000d20 	.word	0x10000d20

08012270 <xTaskCheckForTimeOut>:
 8012270:	b5f8      	push	{r3, r4, r5, r6, r7, lr}
 8012272:	4604      	mov	r4, r0
 8012274:	460d      	mov	r5, r1
 8012276:	b328      	cbz	r0, 80122c4 <xTaskCheckForTimeOut+0x54>
 8012278:	b309      	cbz	r1, 80122be <xTaskCheckForTimeOut+0x4e>
 801227a:	f000 fbe9 	bl	8012a50 <vPortEnterCritical>
 801227e:	6829      	ldr	r1, [r5, #0]
 8012280:	4812      	ldr	r0, [pc, #72]	; (80122cc <xTaskCheckForTimeOut+0x5c>)
 8012282:	1c4b      	adds	r3, r1, #1
 8012284:	6802      	ldr	r2, [r0, #0]
 8012286:	d018      	beq.n	80122ba <xTaskCheckForTimeOut+0x4a>
 8012288:	4e11      	ldr	r6, [pc, #68]	; (80122d0 <xTaskCheckForTimeOut+0x60>)
 801228a:	6823      	ldr	r3, [r4, #0]
 801228c:	6837      	ldr	r7, [r6, #0]
 801228e:	42bb      	cmp	r3, r7
 8012290:	6863      	ldr	r3, [r4, #4]
 8012292:	d001      	beq.n	8012298 <xTaskCheckForTimeOut+0x28>
 8012294:	429a      	cmp	r2, r3
 8012296:	d202      	bcs.n	801229e <xTaskCheckForTimeOut+0x2e>
 8012298:	1ad7      	subs	r7, r2, r3
 801229a:	42b9      	cmp	r1, r7
 801229c:	d804      	bhi.n	80122a8 <xTaskCheckForTimeOut+0x38>
 801229e:	2501      	movs	r5, #1
 80122a0:	f000 fc02 	bl	8012aa8 <vPortExitCritical>
 80122a4:	4628      	mov	r0, r5
 80122a6:	bdf8      	pop	{r3, r4, r5, r6, r7, pc}
 80122a8:	6836      	ldr	r6, [r6, #0]
 80122aa:	6800      	ldr	r0, [r0, #0]
 80122ac:	1a89      	subs	r1, r1, r2
 80122ae:	18ca      	adds	r2, r1, r3
 80122b0:	602a      	str	r2, [r5, #0]
 80122b2:	2500      	movs	r5, #0
 80122b4:	6026      	str	r6, [r4, #0]
 80122b6:	6060      	str	r0, [r4, #4]
 80122b8:	e7f2      	b.n	80122a0 <xTaskCheckForTimeOut+0x30>
 80122ba:	2500      	movs	r5, #0
 80122bc:	e7f0      	b.n	80122a0 <xTaskCheckForTimeOut+0x30>
 80122be:	f000 fbbf 	bl	8012a40 <ulPortSetInterruptMask>
 80122c2:	e7fe      	b.n	80122c2 <xTaskCheckForTimeOut+0x52>
 80122c4:	f000 fbbc 	bl	8012a40 <ulPortSetInterruptMask>
 80122c8:	e7fe      	b.n	80122c8 <xTaskCheckForTimeOut+0x58>
 80122ca:	bf00      	nop
 80122cc:	10000d20 	.word	0x10000d20
 80122d0:	10000d1c 	.word	0x10000d1c

080122d4 <vTaskMissedYield>:
 80122d4:	f640 5360 	movw	r3, #3424	; 0xd60
 80122d8:	f2c1 0300 	movt	r3, #4096	; 0x1000
 80122dc:	2201      	movs	r2, #1
 80122de:	601a      	str	r2, [r3, #0]
 80122e0:	4770      	bx	lr
 80122e2:	bf00      	nop

080122e4 <xTaskGetSchedulerState>:
 80122e4:	4b05      	ldr	r3, [pc, #20]	; (80122fc <xTaskGetSchedulerState+0x18>)
 80122e6:	6818      	ldr	r0, [r3, #0]
 80122e8:	b130      	cbz	r0, 80122f8 <xTaskGetSchedulerState+0x14>
 80122ea:	4905      	ldr	r1, [pc, #20]	; (8012300 <xTaskGetSchedulerState+0x1c>)
 80122ec:	680a      	ldr	r2, [r1, #0]
 80122ee:	2a00      	cmp	r2, #0
 80122f0:	bf0c      	ite	eq
 80122f2:	2002      	moveq	r0, #2
 80122f4:	2000      	movne	r0, #0
 80122f6:	4770      	bx	lr
 80122f8:	2001      	movs	r0, #1
 80122fa:	4770      	bx	lr
 80122fc:	10000c6c 	.word	0x10000c6c
 8012300:	10000d00 	.word	0x10000d00

08012304 <vTaskPriorityInherit>:
 8012304:	b5f8      	push	{r3, r4, r5, r6, r7, lr}
 8012306:	4604      	mov	r4, r0
 8012308:	b1c0      	cbz	r0, 801233c <vTaskPriorityInherit+0x38>
 801230a:	4d20      	ldr	r5, [pc, #128]	; (801238c <vTaskPriorityInherit+0x88>)
 801230c:	6ac3      	ldr	r3, [r0, #44]	; 0x2c
 801230e:	682a      	ldr	r2, [r5, #0]
 8012310:	6ad0      	ldr	r0, [r2, #44]	; 0x2c
 8012312:	4283      	cmp	r3, r0
 8012314:	d212      	bcs.n	801233c <vTaskPriorityInherit+0x38>
 8012316:	69a1      	ldr	r1, [r4, #24]
 8012318:	2900      	cmp	r1, #0
 801231a:	db04      	blt.n	8012326 <vTaskPriorityInherit+0x22>
 801231c:	682e      	ldr	r6, [r5, #0]
 801231e:	6af2      	ldr	r2, [r6, #44]	; 0x2c
 8012320:	f1c2 0005 	rsb	r0, r2, #5
 8012324:	61a0      	str	r0, [r4, #24]
 8012326:	4e1a      	ldr	r6, [pc, #104]	; (8012390 <vTaskPriorityInherit+0x8c>)
 8012328:	6961      	ldr	r1, [r4, #20]
 801232a:	eb03 0383 	add.w	r3, r3, r3, lsl #2
 801232e:	eb06 0283 	add.w	r2, r6, r3, lsl #2
 8012332:	4291      	cmp	r1, r2
 8012334:	d003      	beq.n	801233e <vTaskPriorityInherit+0x3a>
 8012336:	6828      	ldr	r0, [r5, #0]
 8012338:	6ac1      	ldr	r1, [r0, #44]	; 0x2c
 801233a:	62e1      	str	r1, [r4, #44]	; 0x2c
 801233c:	bdf8      	pop	{r3, r4, r5, r6, r7, pc}
 801233e:	1d27      	adds	r7, r4, #4
 8012340:	4638      	mov	r0, r7
 8012342:	f000 f8b3 	bl	80124ac <uxListRemove>
 8012346:	b9f8      	cbnz	r0, 8012388 <vTaskPriorityInherit+0x84>
 8012348:	6ae3      	ldr	r3, [r4, #44]	; 0x2c
 801234a:	eb03 0283 	add.w	r2, r3, r3, lsl #2
 801234e:	f856 0022 	ldr.w	r0, [r6, r2, lsl #2]
 8012352:	b9c8      	cbnz	r0, 8012388 <vTaskPriorityInherit+0x84>
 8012354:	4a0f      	ldr	r2, [pc, #60]	; (8012394 <vTaskPriorityInherit+0x90>)
 8012356:	2001      	movs	r0, #1
 8012358:	6811      	ldr	r1, [r2, #0]
 801235a:	fa00 f303 	lsl.w	r3, r0, r3
 801235e:	ea21 0103 	bic.w	r1, r1, r3
 8012362:	6011      	str	r1, [r2, #0]
 8012364:	682d      	ldr	r5, [r5, #0]
 8012366:	6811      	ldr	r1, [r2, #0]
 8012368:	6aeb      	ldr	r3, [r5, #44]	; 0x2c
 801236a:	2501      	movs	r5, #1
 801236c:	fa05 f503 	lsl.w	r5, r5, r3
 8012370:	eb03 0083 	add.w	r0, r3, r3, lsl #2
 8012374:	430d      	orrs	r5, r1
 8012376:	eb06 0080 	add.w	r0, r6, r0, lsl #2
 801237a:	4639      	mov	r1, r7
 801237c:	62e3      	str	r3, [r4, #44]	; 0x2c
 801237e:	6015      	str	r5, [r2, #0]
 8012380:	e8bd 40f8 	ldmia.w	sp!, {r3, r4, r5, r6, r7, lr}
 8012384:	f000 b86a 	b.w	801245c <vListInsertEnd>
 8012388:	4a02      	ldr	r2, [pc, #8]	; (8012394 <vTaskPriorityInherit+0x90>)
 801238a:	e7eb      	b.n	8012364 <vTaskPriorityInherit+0x60>
 801238c:	10000d04 	.word	0x10000d04
 8012390:	10000c9c 	.word	0x10000c9c
 8012394:	10000d5c 	.word	0x10000d5c

08012398 <xTaskPriorityDisinherit>:
 8012398:	b5f8      	push	{r3, r4, r5, r6, r7, lr}
 801239a:	4604      	mov	r4, r0
 801239c:	b148      	cbz	r0, 80123b2 <xTaskPriorityDisinherit+0x1a>
 801239e:	6cc3      	ldr	r3, [r0, #76]	; 0x4c
 80123a0:	2b00      	cmp	r3, #0
 80123a2:	d02b      	beq.n	80123fc <xTaskPriorityDisinherit+0x64>
 80123a4:	6ac1      	ldr	r1, [r0, #44]	; 0x2c
 80123a6:	6c82      	ldr	r2, [r0, #72]	; 0x48
 80123a8:	1e58      	subs	r0, r3, #1
 80123aa:	4291      	cmp	r1, r2
 80123ac:	64e0      	str	r0, [r4, #76]	; 0x4c
 80123ae:	d000      	beq.n	80123b2 <xTaskPriorityDisinherit+0x1a>
 80123b0:	b108      	cbz	r0, 80123b6 <xTaskPriorityDisinherit+0x1e>
 80123b2:	2000      	movs	r0, #0
 80123b4:	bdf8      	pop	{r3, r4, r5, r6, r7, pc}
 80123b6:	1d27      	adds	r7, r4, #4
 80123b8:	4638      	mov	r0, r7
 80123ba:	f000 f877 	bl	80124ac <uxListRemove>
 80123be:	bb00      	cbnz	r0, 8012402 <xTaskPriorityDisinherit+0x6a>
 80123c0:	6ae6      	ldr	r6, [r4, #44]	; 0x2c
 80123c2:	4d16      	ldr	r5, [pc, #88]	; (801241c <xTaskPriorityDisinherit+0x84>)
 80123c4:	eb06 0386 	add.w	r3, r6, r6, lsl #2
 80123c8:	f855 1023 	ldr.w	r1, [r5, r3, lsl #2]
 80123cc:	b1e1      	cbz	r1, 8012408 <xTaskPriorityDisinherit+0x70>
 80123ce:	4b14      	ldr	r3, [pc, #80]	; (8012420 <xTaskPriorityDisinherit+0x88>)
 80123d0:	6ca2      	ldr	r2, [r4, #72]	; 0x48
 80123d2:	6818      	ldr	r0, [r3, #0]
 80123d4:	62e2      	str	r2, [r4, #44]	; 0x2c
 80123d6:	2601      	movs	r6, #1
 80123d8:	fa06 fe02 	lsl.w	lr, r6, r2
 80123dc:	f1c2 0105 	rsb	r1, r2, #5
 80123e0:	eb02 0282 	add.w	r2, r2, r2, lsl #2
 80123e4:	ea4e 0c00 	orr.w	ip, lr, r0
 80123e8:	61a1      	str	r1, [r4, #24]
 80123ea:	eb05 0082 	add.w	r0, r5, r2, lsl #2
 80123ee:	4639      	mov	r1, r7
 80123f0:	f8c3 c000 	str.w	ip, [r3]
 80123f4:	f000 f832 	bl	801245c <vListInsertEnd>
 80123f8:	4630      	mov	r0, r6
 80123fa:	bdf8      	pop	{r3, r4, r5, r6, r7, pc}
 80123fc:	f000 fb20 	bl	8012a40 <ulPortSetInterruptMask>
 8012400:	e7fe      	b.n	8012400 <xTaskPriorityDisinherit+0x68>
 8012402:	4d06      	ldr	r5, [pc, #24]	; (801241c <xTaskPriorityDisinherit+0x84>)
 8012404:	4b06      	ldr	r3, [pc, #24]	; (8012420 <xTaskPriorityDisinherit+0x88>)
 8012406:	e7e3      	b.n	80123d0 <xTaskPriorityDisinherit+0x38>
 8012408:	4b05      	ldr	r3, [pc, #20]	; (8012420 <xTaskPriorityDisinherit+0x88>)
 801240a:	2201      	movs	r2, #1
 801240c:	6819      	ldr	r1, [r3, #0]
 801240e:	fa02 f006 	lsl.w	r0, r2, r6
 8012412:	ea21 0600 	bic.w	r6, r1, r0
 8012416:	601e      	str	r6, [r3, #0]
 8012418:	e7da      	b.n	80123d0 <xTaskPriorityDisinherit+0x38>
 801241a:	bf00      	nop
 801241c:	10000c9c 	.word	0x10000c9c
 8012420:	10000d5c 	.word	0x10000d5c

08012424 <pvTaskIncrementMutexHeldCount>:
 8012424:	4b04      	ldr	r3, [pc, #16]	; (8012438 <pvTaskIncrementMutexHeldCount+0x14>)
 8012426:	681a      	ldr	r2, [r3, #0]
 8012428:	b11a      	cbz	r2, 8012432 <pvTaskIncrementMutexHeldCount+0xe>
 801242a:	6818      	ldr	r0, [r3, #0]
 801242c:	6cc1      	ldr	r1, [r0, #76]	; 0x4c
 801242e:	1c4a      	adds	r2, r1, #1
 8012430:	64c2      	str	r2, [r0, #76]	; 0x4c
 8012432:	6818      	ldr	r0, [r3, #0]
 8012434:	4770      	bx	lr
 8012436:	bf00      	nop
 8012438:	10000d04 	.word	0x10000d04

0801243c <vListInitialise>:
 801243c:	f100 0308 	add.w	r3, r0, #8
 8012440:	f04f 32ff 	mov.w	r2, #4294967295
 8012444:	2100      	movs	r1, #0
 8012446:	6043      	str	r3, [r0, #4]
 8012448:	6082      	str	r2, [r0, #8]
 801244a:	60c3      	str	r3, [r0, #12]
 801244c:	6103      	str	r3, [r0, #16]
 801244e:	6001      	str	r1, [r0, #0]
 8012450:	4770      	bx	lr
 8012452:	bf00      	nop

08012454 <vListInitialiseItem>:
 8012454:	2300      	movs	r3, #0
 8012456:	6103      	str	r3, [r0, #16]
 8012458:	4770      	bx	lr
 801245a:	bf00      	nop

0801245c <vListInsertEnd>:
 801245c:	6843      	ldr	r3, [r0, #4]
 801245e:	689a      	ldr	r2, [r3, #8]
 8012460:	b410      	push	{r4}
 8012462:	6804      	ldr	r4, [r0, #0]
 8012464:	608a      	str	r2, [r1, #8]
 8012466:	689a      	ldr	r2, [r3, #8]
 8012468:	604b      	str	r3, [r1, #4]
 801246a:	3401      	adds	r4, #1
 801246c:	6108      	str	r0, [r1, #16]
 801246e:	6051      	str	r1, [r2, #4]
 8012470:	6099      	str	r1, [r3, #8]
 8012472:	6004      	str	r4, [r0, #0]
 8012474:	bc10      	pop	{r4}
 8012476:	4770      	bx	lr

08012478 <vListInsert>:
 8012478:	b430      	push	{r4, r5}
 801247a:	680d      	ldr	r5, [r1, #0]
 801247c:	1c6b      	adds	r3, r5, #1
 801247e:	d011      	beq.n	80124a4 <vListInsert+0x2c>
 8012480:	f100 0208 	add.w	r2, r0, #8
 8012484:	e000      	b.n	8012488 <vListInsert+0x10>
 8012486:	461a      	mov	r2, r3
 8012488:	6853      	ldr	r3, [r2, #4]
 801248a:	681c      	ldr	r4, [r3, #0]
 801248c:	42a5      	cmp	r5, r4
 801248e:	d2fa      	bcs.n	8012486 <vListInsert+0xe>
 8012490:	6804      	ldr	r4, [r0, #0]
 8012492:	604b      	str	r3, [r1, #4]
 8012494:	3401      	adds	r4, #1
 8012496:	6099      	str	r1, [r3, #8]
 8012498:	6051      	str	r1, [r2, #4]
 801249a:	608a      	str	r2, [r1, #8]
 801249c:	6108      	str	r0, [r1, #16]
 801249e:	6004      	str	r4, [r0, #0]
 80124a0:	bc30      	pop	{r4, r5}
 80124a2:	4770      	bx	lr
 80124a4:	6902      	ldr	r2, [r0, #16]
 80124a6:	6853      	ldr	r3, [r2, #4]
 80124a8:	e7f2      	b.n	8012490 <vListInsert+0x18>
 80124aa:	bf00      	nop

080124ac <uxListRemove>:
 80124ac:	6842      	ldr	r2, [r0, #4]
 80124ae:	6881      	ldr	r1, [r0, #8]
 80124b0:	6903      	ldr	r3, [r0, #16]
 80124b2:	b410      	push	{r4}
 80124b4:	6091      	str	r1, [r2, #8]
 80124b6:	6881      	ldr	r1, [r0, #8]
 80124b8:	685c      	ldr	r4, [r3, #4]
 80124ba:	604a      	str	r2, [r1, #4]
 80124bc:	681a      	ldr	r2, [r3, #0]
 80124be:	4284      	cmp	r4, r0
 80124c0:	bf08      	it	eq
 80124c2:	6059      	streq	r1, [r3, #4]
 80124c4:	3a01      	subs	r2, #1
 80124c6:	2100      	movs	r1, #0
 80124c8:	6101      	str	r1, [r0, #16]
 80124ca:	4610      	mov	r0, r2
 80124cc:	601a      	str	r2, [r3, #0]
 80124ce:	bc10      	pop	{r4}
 80124d0:	4770      	bx	lr
 80124d2:	bf00      	nop

080124d4 <prvSwitchTimerLists>:
 80124d4:	e92d 47f0 	stmdb	sp!, {r4, r5, r6, r7, r8, r9, sl, lr}
 80124d8:	4d1f      	ldr	r5, [pc, #124]	; (8012558 <prvSwitchTimerLists+0x84>)
 80124da:	4e20      	ldr	r6, [pc, #128]	; (801255c <prvSwitchTimerLists+0x88>)
 80124dc:	b084      	sub	sp, #16
 80124de:	46a8      	mov	r8, r5
 80124e0:	f04f 0a00 	mov.w	sl, #0
 80124e4:	e00d      	b.n	8012502 <prvSwitchTimerLists+0x2e>
 80124e6:	68df      	ldr	r7, [r3, #12]
 80124e8:	68fc      	ldr	r4, [r7, #12]
 80124ea:	683f      	ldr	r7, [r7, #0]
 80124ec:	f104 0904 	add.w	r9, r4, #4
 80124f0:	4648      	mov	r0, r9
 80124f2:	f7ff ffdb 	bl	80124ac <uxListRemove>
 80124f6:	4620      	mov	r0, r4
 80124f8:	6a62      	ldr	r2, [r4, #36]	; 0x24
 80124fa:	4790      	blx	r2
 80124fc:	69e0      	ldr	r0, [r4, #28]
 80124fe:	2801      	cmp	r0, #1
 8012500:	d00b      	beq.n	801251a <prvSwitchTimerLists+0x46>
 8012502:	682b      	ldr	r3, [r5, #0]
 8012504:	681a      	ldr	r2, [r3, #0]
 8012506:	2a00      	cmp	r2, #0
 8012508:	d1ed      	bne.n	80124e6 <prvSwitchTimerLists+0x12>
 801250a:	4815      	ldr	r0, [pc, #84]	; (8012560 <prvSwitchTimerLists+0x8c>)
 801250c:	6801      	ldr	r1, [r0, #0]
 801250e:	6003      	str	r3, [r0, #0]
 8012510:	4b11      	ldr	r3, [pc, #68]	; (8012558 <prvSwitchTimerLists+0x84>)
 8012512:	6019      	str	r1, [r3, #0]
 8012514:	b004      	add	sp, #16
 8012516:	e8bd 87f0 	ldmia.w	sp!, {r4, r5, r6, r7, r8, r9, sl, pc}
 801251a:	69a1      	ldr	r1, [r4, #24]
 801251c:	187b      	adds	r3, r7, r1
 801251e:	42bb      	cmp	r3, r7
 8012520:	d812      	bhi.n	8012548 <prvSwitchTimerLists+0x74>
 8012522:	6832      	ldr	r2, [r6, #0]
 8012524:	b16a      	cbz	r2, 8012542 <prvSwitchTimerLists+0x6e>
 8012526:	f8cd a004 	str.w	sl, [sp, #4]
 801252a:	9702      	str	r7, [sp, #8]
 801252c:	9403      	str	r4, [sp, #12]
 801252e:	f7ff fed9 	bl	80122e4 <xTaskGetSchedulerState>
 8012532:	2200      	movs	r2, #0
 8012534:	6830      	ldr	r0, [r6, #0]
 8012536:	a901      	add	r1, sp, #4
 8012538:	4613      	mov	r3, r2
 801253a:	f000 fc83 	bl	8012e44 <xQueueGenericSend>
 801253e:	2800      	cmp	r0, #0
 8012540:	d1df      	bne.n	8012502 <prvSwitchTimerLists+0x2e>
 8012542:	f000 fa7d 	bl	8012a40 <ulPortSetInterruptMask>
 8012546:	e7fe      	b.n	8012546 <prvSwitchTimerLists+0x72>
 8012548:	6063      	str	r3, [r4, #4]
 801254a:	6124      	str	r4, [r4, #16]
 801254c:	f8d8 0000 	ldr.w	r0, [r8]
 8012550:	4649      	mov	r1, r9
 8012552:	f7ff ff91 	bl	8012478 <vListInsert>
 8012556:	e7d4      	b.n	8012502 <prvSwitchTimerLists+0x2e>
 8012558:	10000d64 	.word	0x10000d64
 801255c:	10000d94 	.word	0x10000d94
 8012560:	10000d98 	.word	0x10000d98

08012564 <prvTimerTask>:
 8012564:	e92d 4ff0 	stmdb	sp!, {r4, r5, r6, r7, r8, r9, sl, fp, lr}
 8012568:	4d83      	ldr	r5, [pc, #524]	; (8012778 <prvTimerTask+0x214>)
 801256a:	4e84      	ldr	r6, [pc, #528]	; (801277c <prvTimerTask+0x218>)
 801256c:	4c84      	ldr	r4, [pc, #528]	; (8012780 <prvTimerTask+0x21c>)
 801256e:	b08d      	sub	sp, #52	; 0x34
 8012570:	462f      	mov	r7, r5
 8012572:	f04f 0901 	mov.w	r9, #1
 8012576:	6833      	ldr	r3, [r6, #0]
 8012578:	681a      	ldr	r2, [r3, #0]
 801257a:	f1d2 0a01 	rsbs	sl, r2, #1
 801257e:	bf38      	it	cc
 8012580:	f04f 0a00 	movcc.w	sl, #0
 8012584:	f1ba 0f00 	cmp.w	sl, #0
 8012588:	d147      	bne.n	801261a <prvTimerTask+0xb6>
 801258a:	68d8      	ldr	r0, [r3, #12]
 801258c:	f8d0 b000 	ldr.w	fp, [r0]
 8012590:	f7ff fbb6 	bl	8011d00 <vTaskSuspendAll>
 8012594:	f7ff fbbc 	bl	8011d10 <xTaskGetTickCount>
 8012598:	6829      	ldr	r1, [r5, #0]
 801259a:	4288      	cmp	r0, r1
 801259c:	4680      	mov	r8, r0
 801259e:	f0c0 8086 	bcc.w	80126ae <prvTimerTask+0x14a>
 80125a2:	6038      	str	r0, [r7, #0]
 80125a4:	f1ba 0f00 	cmp.w	sl, #0
 80125a8:	d102      	bne.n	80125b0 <prvTimerTask+0x4c>
 80125aa:	45c3      	cmp	fp, r8
 80125ac:	f240 8098 	bls.w	80126e0 <prvTimerTask+0x17c>
 80125b0:	6820      	ldr	r0, [r4, #0]
 80125b2:	ebc8 010b 	rsb	r1, r8, fp
 80125b6:	f000 ff93 	bl	80134e0 <vQueueWaitForMessageRestricted>
 80125ba:	f7ff fc69 	bl	8011e90 <xTaskResumeAll>
 80125be:	2800      	cmp	r0, #0
 80125c0:	f000 808b 	beq.w	80126da <prvTimerTask+0x176>
 80125c4:	2200      	movs	r2, #0
 80125c6:	6820      	ldr	r0, [r4, #0]
 80125c8:	a906      	add	r1, sp, #24
 80125ca:	4613      	mov	r3, r2
 80125cc:	f000 fe06 	bl	80131dc <xQueueGenericReceive>
 80125d0:	2800      	cmp	r0, #0
 80125d2:	d0d0      	beq.n	8012576 <prvTimerTask+0x12>
 80125d4:	9906      	ldr	r1, [sp, #24]
 80125d6:	2900      	cmp	r1, #0
 80125d8:	dbf4      	blt.n	80125c4 <prvTimerTask+0x60>
 80125da:	f8dd a020 	ldr.w	sl, [sp, #32]
 80125de:	f8da 0014 	ldr.w	r0, [sl, #20]
 80125e2:	b118      	cbz	r0, 80125ec <prvTimerTask+0x88>
 80125e4:	f10a 0004 	add.w	r0, sl, #4
 80125e8:	f7ff ff60 	bl	80124ac <uxListRemove>
 80125ec:	f7ff fb90 	bl	8011d10 <xTaskGetTickCount>
 80125f0:	682b      	ldr	r3, [r5, #0]
 80125f2:	4298      	cmp	r0, r3
 80125f4:	d362      	bcc.n	80126bc <prvTimerTask+0x158>
 80125f6:	9a06      	ldr	r2, [sp, #24]
 80125f8:	6028      	str	r0, [r5, #0]
 80125fa:	2a09      	cmp	r2, #9
 80125fc:	d8e2      	bhi.n	80125c4 <prvTimerTask+0x60>
 80125fe:	fa09 f102 	lsl.w	r1, r9, r2
 8012602:	f411 7f04 	tst.w	r1, #528	; 0x210
 8012606:	d13c      	bne.n	8012682 <prvTimerTask+0x11e>
 8012608:	f011 0fc7 	tst.w	r1, #199	; 0xc7
 801260c:	d108      	bne.n	8012620 <prvTimerTask+0xbc>
 801260e:	068b      	lsls	r3, r1, #26
 8012610:	d5d8      	bpl.n	80125c4 <prvTimerTask+0x60>
 8012612:	4650      	mov	r0, sl
 8012614:	f000 fb40 	bl	8012c98 <vPortFree>
 8012618:	e7d4      	b.n	80125c4 <prvTimerTask+0x60>
 801261a:	f04f 0b00 	mov.w	fp, #0
 801261e:	e7b7      	b.n	8012590 <prvTimerTask+0x2c>
 8012620:	9a07      	ldr	r2, [sp, #28]
 8012622:	f8da 1018 	ldr.w	r1, [sl, #24]
 8012626:	f8ca a010 	str.w	sl, [sl, #16]
 801262a:	188b      	adds	r3, r1, r2
 801262c:	4283      	cmp	r3, r0
 801262e:	f8ca 3004 	str.w	r3, [sl, #4]
 8012632:	d848      	bhi.n	80126c6 <prvTimerTask+0x162>
 8012634:	1a80      	subs	r0, r0, r2
 8012636:	4281      	cmp	r1, r0
 8012638:	d82f      	bhi.n	801269a <prvTimerTask+0x136>
 801263a:	f8da 2024 	ldr.w	r2, [sl, #36]	; 0x24
 801263e:	4650      	mov	r0, sl
 8012640:	4790      	blx	r2
 8012642:	f8da 101c 	ldr.w	r1, [sl, #28]
 8012646:	2901      	cmp	r1, #1
 8012648:	d1bc      	bne.n	80125c4 <prvTimerTask+0x60>
 801264a:	f8da 0018 	ldr.w	r0, [sl, #24]
 801264e:	9a07      	ldr	r2, [sp, #28]
 8012650:	6823      	ldr	r3, [r4, #0]
 8012652:	1881      	adds	r1, r0, r2
 8012654:	b193      	cbz	r3, 801267c <prvTimerTask+0x118>
 8012656:	2000      	movs	r0, #0
 8012658:	910a      	str	r1, [sp, #40]	; 0x28
 801265a:	9009      	str	r0, [sp, #36]	; 0x24
 801265c:	f8cd a02c 	str.w	sl, [sp, #44]	; 0x2c
 8012660:	f7ff fe40 	bl	80122e4 <xTaskGetSchedulerState>
 8012664:	f640 5394 	movw	r3, #3476	; 0xd94
 8012668:	f2c1 0300 	movt	r3, #4096	; 0x1000
 801266c:	2200      	movs	r2, #0
 801266e:	6818      	ldr	r0, [r3, #0]
 8012670:	a909      	add	r1, sp, #36	; 0x24
 8012672:	4613      	mov	r3, r2
 8012674:	f000 fbe6 	bl	8012e44 <xQueueGenericSend>
 8012678:	2800      	cmp	r0, #0
 801267a:	d1a3      	bne.n	80125c4 <prvTimerTask+0x60>
 801267c:	f000 f9e0 	bl	8012a40 <ulPortSetInterruptMask>
 8012680:	e7fe      	b.n	8012680 <prvTimerTask+0x11c>
 8012682:	9a07      	ldr	r2, [sp, #28]
 8012684:	f8ca 2018 	str.w	r2, [sl, #24]
 8012688:	2a00      	cmp	r2, #0
 801268a:	d06a      	beq.n	8012762 <prvTimerTask+0x1fe>
 801268c:	1881      	adds	r1, r0, r2
 801268e:	4288      	cmp	r0, r1
 8012690:	f8ca 1004 	str.w	r1, [sl, #4]
 8012694:	f8ca a010 	str.w	sl, [sl, #16]
 8012698:	d319      	bcc.n	80126ce <prvTimerTask+0x16a>
 801269a:	f640 5098 	movw	r0, #3480	; 0xd98
 801269e:	f2c1 0000 	movt	r0, #4096	; 0x1000
 80126a2:	f10a 0104 	add.w	r1, sl, #4
 80126a6:	6800      	ldr	r0, [r0, #0]
 80126a8:	f7ff fee6 	bl	8012478 <vListInsert>
 80126ac:	e78a      	b.n	80125c4 <prvTimerTask+0x60>
 80126ae:	f7ff ff11 	bl	80124d4 <prvSwitchTimerLists>
 80126b2:	f8c7 8000 	str.w	r8, [r7]
 80126b6:	f7ff fbeb 	bl	8011e90 <xTaskResumeAll>
 80126ba:	e783      	b.n	80125c4 <prvTimerTask+0x60>
 80126bc:	9000      	str	r0, [sp, #0]
 80126be:	f7ff ff09 	bl	80124d4 <prvSwitchTimerLists>
 80126c2:	9800      	ldr	r0, [sp, #0]
 80126c4:	e797      	b.n	80125f6 <prvTimerTask+0x92>
 80126c6:	4282      	cmp	r2, r0
 80126c8:	d901      	bls.n	80126ce <prvTimerTask+0x16a>
 80126ca:	429a      	cmp	r2, r3
 80126cc:	d9b5      	bls.n	801263a <prvTimerTask+0xd6>
 80126ce:	6830      	ldr	r0, [r6, #0]
 80126d0:	f10a 0104 	add.w	r1, sl, #4
 80126d4:	f7ff fed0 	bl	8012478 <vListInsert>
 80126d8:	e774      	b.n	80125c4 <prvTimerTask+0x60>
 80126da:	f000 f9a5 	bl	8012a28 <vPortYield>
 80126de:	e771      	b.n	80125c4 <prvTimerTask+0x60>
 80126e0:	f7ff fbd6 	bl	8011e90 <xTaskResumeAll>
 80126e4:	6833      	ldr	r3, [r6, #0]
 80126e6:	68da      	ldr	r2, [r3, #12]
 80126e8:	68d0      	ldr	r0, [r2, #12]
 80126ea:	1d03      	adds	r3, r0, #4
 80126ec:	9001      	str	r0, [sp, #4]
 80126ee:	4618      	mov	r0, r3
 80126f0:	9300      	str	r3, [sp, #0]
 80126f2:	f7ff fedb 	bl	80124ac <uxListRemove>
 80126f6:	9801      	ldr	r0, [sp, #4]
 80126f8:	9900      	ldr	r1, [sp, #0]
 80126fa:	69c2      	ldr	r2, [r0, #28]
 80126fc:	2a01      	cmp	r2, #1
 80126fe:	d003      	beq.n	8012708 <prvTimerTask+0x1a4>
 8012700:	9801      	ldr	r0, [sp, #4]
 8012702:	6a42      	ldr	r2, [r0, #36]	; 0x24
 8012704:	4790      	blx	r2
 8012706:	e75d      	b.n	80125c4 <prvTimerTask+0x60>
 8012708:	6982      	ldr	r2, [r0, #24]
 801270a:	6100      	str	r0, [r0, #16]
 801270c:	4603      	mov	r3, r0
 801270e:	eb0b 0002 	add.w	r0, fp, r2
 8012712:	4580      	cmp	r8, r0
 8012714:	6058      	str	r0, [r3, #4]
 8012716:	d207      	bcs.n	8012728 <prvTimerTask+0x1c4>
 8012718:	f640 5364 	movw	r3, #3428	; 0xd64
 801271c:	f2c1 0300 	movt	r3, #4096	; 0x1000
 8012720:	6818      	ldr	r0, [r3, #0]
 8012722:	f7ff fea9 	bl	8012478 <vListInsert>
 8012726:	e7eb      	b.n	8012700 <prvTimerTask+0x19c>
 8012728:	ebcb 0c08 	rsb	ip, fp, r8
 801272c:	4562      	cmp	r2, ip
 801272e:	d81b      	bhi.n	8012768 <prvTimerTask+0x204>
 8012730:	6821      	ldr	r1, [r4, #0]
 8012732:	b199      	cbz	r1, 801275c <prvTimerTask+0x1f8>
 8012734:	9801      	ldr	r0, [sp, #4]
 8012736:	f8cd a00c 	str.w	sl, [sp, #12]
 801273a:	f8cd b010 	str.w	fp, [sp, #16]
 801273e:	9005      	str	r0, [sp, #20]
 8012740:	f7ff fdd0 	bl	80122e4 <xTaskGetSchedulerState>
 8012744:	f640 5394 	movw	r3, #3476	; 0xd94
 8012748:	f2c1 0300 	movt	r3, #4096	; 0x1000
 801274c:	4652      	mov	r2, sl
 801274e:	6818      	ldr	r0, [r3, #0]
 8012750:	a903      	add	r1, sp, #12
 8012752:	4653      	mov	r3, sl
 8012754:	f000 fb76 	bl	8012e44 <xQueueGenericSend>
 8012758:	2800      	cmp	r0, #0
 801275a:	d1d1      	bne.n	8012700 <prvTimerTask+0x19c>
 801275c:	f000 f970 	bl	8012a40 <ulPortSetInterruptMask>
 8012760:	e7fe      	b.n	8012760 <prvTimerTask+0x1fc>
 8012762:	f000 f96d 	bl	8012a40 <ulPortSetInterruptMask>
 8012766:	e7fe      	b.n	8012766 <prvTimerTask+0x202>
 8012768:	f640 5298 	movw	r2, #3480	; 0xd98
 801276c:	f2c1 0200 	movt	r2, #4096	; 0x1000
 8012770:	6810      	ldr	r0, [r2, #0]
 8012772:	f7ff fe81 	bl	8012478 <vListInsert>
 8012776:	e7c3      	b.n	8012700 <prvTimerTask+0x19c>
 8012778:	10000d90 	.word	0x10000d90
 801277c:	10000d64 	.word	0x10000d64
 8012780:	10000d94 	.word	0x10000d94

08012784 <xTimerCreateTimerTask>:
 8012784:	b5f0      	push	{r4, r5, r6, r7, lr}
 8012786:	4c1d      	ldr	r4, [pc, #116]	; (80127fc <xTimerCreateTimerTask+0x78>)
 8012788:	b085      	sub	sp, #20
 801278a:	f000 f961 	bl	8012a50 <vPortEnterCritical>
 801278e:	6826      	ldr	r6, [r4, #0]
 8012790:	b19e      	cbz	r6, 80127ba <xTimerCreateTimerTask+0x36>
 8012792:	f000 f989 	bl	8012aa8 <vPortExitCritical>
 8012796:	6820      	ldr	r0, [r4, #0]
 8012798:	2800      	cmp	r0, #0
 801279a:	d029      	beq.n	80127f0 <xTimerCreateTimerTask+0x6c>
 801279c:	2300      	movs	r3, #0
 801279e:	2202      	movs	r2, #2
 80127a0:	e88d 000c 	stmia.w	sp, {r2, r3}
 80127a4:	9302      	str	r3, [sp, #8]
 80127a6:	9303      	str	r3, [sp, #12]
 80127a8:	4815      	ldr	r0, [pc, #84]	; (8012800 <xTimerCreateTimerTask+0x7c>)
 80127aa:	4916      	ldr	r1, [pc, #88]	; (8012804 <xTimerCreateTimerTask+0x80>)
 80127ac:	f44f 7282 	mov.w	r2, #260	; 0x104
 80127b0:	f7ff f95e 	bl	8011a70 <xTaskGenericCreate>
 80127b4:	b1e0      	cbz	r0, 80127f0 <xTimerCreateTimerTask+0x6c>
 80127b6:	b005      	add	sp, #20
 80127b8:	bdf0      	pop	{r4, r5, r6, r7, pc}
 80127ba:	4f13      	ldr	r7, [pc, #76]	; (8012808 <xTimerCreateTimerTask+0x84>)
 80127bc:	4d13      	ldr	r5, [pc, #76]	; (801280c <xTimerCreateTimerTask+0x88>)
 80127be:	4638      	mov	r0, r7
 80127c0:	f7ff fe3c 	bl	801243c <vListInitialise>
 80127c4:	4628      	mov	r0, r5
 80127c6:	f7ff fe39 	bl	801243c <vListInitialise>
 80127ca:	4b11      	ldr	r3, [pc, #68]	; (8012810 <xTimerCreateTimerTask+0x8c>)
 80127cc:	601f      	str	r7, [r3, #0]
 80127ce:	4b11      	ldr	r3, [pc, #68]	; (8012814 <xTimerCreateTimerTask+0x90>)
 80127d0:	200a      	movs	r0, #10
 80127d2:	210c      	movs	r1, #12
 80127d4:	4632      	mov	r2, r6
 80127d6:	601d      	str	r5, [r3, #0]
 80127d8:	f000 faf8 	bl	8012dcc <xQueueGenericCreate>
 80127dc:	6020      	str	r0, [r4, #0]
 80127de:	b150      	cbz	r0, 80127f6 <xTimerCreateTimerTask+0x72>
 80127e0:	490d      	ldr	r1, [pc, #52]	; (8012818 <xTimerCreateTimerTask+0x94>)
 80127e2:	f000 fe53 	bl	801348c <vQueueAddToRegistry>
 80127e6:	f000 f95f 	bl	8012aa8 <vPortExitCritical>
 80127ea:	6820      	ldr	r0, [r4, #0]
 80127ec:	2800      	cmp	r0, #0
 80127ee:	d1d5      	bne.n	801279c <xTimerCreateTimerTask+0x18>
 80127f0:	f000 f926 	bl	8012a40 <ulPortSetInterruptMask>
 80127f4:	e7fe      	b.n	80127f4 <xTimerCreateTimerTask+0x70>
 80127f6:	f000 f923 	bl	8012a40 <ulPortSetInterruptMask>
 80127fa:	e7fe      	b.n	80127fa <xTimerCreateTimerTask+0x76>
 80127fc:	10000d94 	.word	0x10000d94
 8012800:	08012565 	.word	0x08012565
 8012804:	0801b17c 	.word	0x0801b17c
 8012808:	10000d68 	.word	0x10000d68
 801280c:	10000d7c 	.word	0x10000d7c
 8012810:	10000d64 	.word	0x10000d64
 8012814:	10000d98 	.word	0x10000d98
 8012818:	0801b174 	.word	0x0801b174

0801281c <Reset_Handler>:
 801281c:	2100      	movs	r1, #0
 801281e:	f000 b804 	b.w	801282a <LoopCopyDataInit>

08012822 <CopyDataInit>:
 8012822:	4b0d      	ldr	r3, [pc, #52]	; (8012858 <LoopFillZerobss+0x16>)
 8012824:	585b      	ldr	r3, [r3, r1]
 8012826:	5043      	str	r3, [r0, r1]
 8012828:	3104      	adds	r1, #4

0801282a <LoopCopyDataInit>:
 801282a:	480c      	ldr	r0, [pc, #48]	; (801285c <LoopFillZerobss+0x1a>)
 801282c:	4b0c      	ldr	r3, [pc, #48]	; (8012860 <LoopFillZerobss+0x1e>)
 801282e:	1842      	adds	r2, r0, r1
 8012830:	429a      	cmp	r2, r3
 8012832:	f4ff aff6 	bcc.w	8012822 <CopyDataInit>
 8012836:	4a0b      	ldr	r2, [pc, #44]	; (8012864 <LoopFillZerobss+0x22>)
 8012838:	f000 b803 	b.w	8012842 <LoopFillZerobss>

0801283c <FillZerobss>:
 801283c:	2300      	movs	r3, #0
 801283e:	f842 3b04 	str.w	r3, [r2], #4

08012842 <LoopFillZerobss>:
 8012842:	4b09      	ldr	r3, [pc, #36]	; (8012868 <LoopFillZerobss+0x26>)
 8012844:	429a      	cmp	r2, r3
 8012846:	f4ff aff9 	bcc.w	801283c <FillZerobss>
 801284a:	f000 f811 	bl	8012870 <SystemInit>
 801284e:	f002 fc2b 	bl	80150a8 <__libc_init_array>
 8012852:	f7f9 fbd5 	bl	800c000 <main>
 8012856:	4770      	bx	lr
 8012858:	0801b228 	.word	0x0801b228
 801285c:	10000000 	.word	0x10000000
 8012860:	10000864 	.word	0x10000864
 8012864:	10000864 	.word	0x10000864
 8012868:	10000eb0 	.word	0x10000eb0

0801286c <ADC_IRQHandler>:
 801286c:	f7ff bffe 	b.w	801286c <ADC_IRQHandler>

08012870 <SystemInit>:
 8012870:	f44f 426d 	mov.w	r2, #60672	; 0xed00
 8012874:	f2ce 0200 	movt	r2, #57344	; 0xe000
 8012878:	f64e 7330 	movw	r3, #61232	; 0xef30
 801287c:	f8d2 1088 	ldr.w	r1, [r2, #136]	; 0x88
 8012880:	f2ce 0300 	movt	r3, #57344	; 0xe000
 8012884:	f441 0070 	orr.w	r0, r1, #15728640	; 0xf00000
 8012888:	f8c2 0088 	str.w	r0, [r2, #136]	; 0x88
 801288c:	685a      	ldr	r2, [r3, #4]
 801288e:	f022 4140 	bic.w	r1, r2, #3221225472	; 0xc0000000
 8012892:	b082      	sub	sp, #8
 8012894:	6059      	str	r1, [r3, #4]
 8012896:	f3ef 8314 	mrs	r3, CONTROL
 801289a:	f023 0004 	bic.w	r0, r3, #4
 801289e:	f380 8814 	msr	CONTROL, r0
 80128a2:	f44f 5360 	mov.w	r3, #14336	; 0x3800
 80128a6:	f2c4 0302 	movt	r3, #16386	; 0x4002
 80128aa:	2200      	movs	r2, #0
 80128ac:	6819      	ldr	r1, [r3, #0]
 80128ae:	f041 0001 	orr.w	r0, r1, #1
 80128b2:	6018      	str	r0, [r3, #0]
 80128b4:	609a      	str	r2, [r3, #8]
 80128b6:	6818      	ldr	r0, [r3, #0]
 80128b8:	f243 0110 	movw	r1, #12304	; 0x3010
 80128bc:	f020 7084 	bic.w	r0, r0, #17301504	; 0x1080000
 80128c0:	f420 3080 	bic.w	r0, r0, #65536	; 0x10000
 80128c4:	f2c2 4100 	movt	r1, #9216	; 0x2400
 80128c8:	6018      	str	r0, [r3, #0]
 80128ca:	6059      	str	r1, [r3, #4]
 80128cc:	6819      	ldr	r1, [r3, #0]
 80128ce:	f421 2080 	bic.w	r0, r1, #262144	; 0x40000
 80128d2:	6018      	str	r0, [r3, #0]
 80128d4:	60da      	str	r2, [r3, #12]
 80128d6:	9200      	str	r2, [sp, #0]
 80128d8:	9201      	str	r2, [sp, #4]
 80128da:	681a      	ldr	r2, [r3, #0]
 80128dc:	f442 3180 	orr.w	r1, r2, #65536	; 0x10000
 80128e0:	6019      	str	r1, [r3, #0]
 80128e2:	6818      	ldr	r0, [r3, #0]
 80128e4:	f400 3200 	and.w	r2, r0, #131072	; 0x20000
 80128e8:	9201      	str	r2, [sp, #4]
 80128ea:	9900      	ldr	r1, [sp, #0]
 80128ec:	1c48      	adds	r0, r1, #1
 80128ee:	9000      	str	r0, [sp, #0]
 80128f0:	9a01      	ldr	r2, [sp, #4]
 80128f2:	b91a      	cbnz	r2, 80128fc <SystemInit+0x8c>
 80128f4:	9900      	ldr	r1, [sp, #0]
 80128f6:	f5b1 6fa0 	cmp.w	r1, #1280	; 0x500
 80128fa:	d1f2      	bne.n	80128e2 <SystemInit+0x72>
 80128fc:	f44f 5360 	mov.w	r3, #14336	; 0x3800
 8012900:	f2c4 0302 	movt	r3, #16386	; 0x4002
 8012904:	6818      	ldr	r0, [r3, #0]
 8012906:	f410 3200 	ands.w	r2, r0, #131072	; 0x20000
 801290a:	d005      	beq.n	8012918 <SystemInit+0xa8>
 801290c:	2101      	movs	r1, #1
 801290e:	9101      	str	r1, [sp, #4]
 8012910:	9b01      	ldr	r3, [sp, #4]
 8012912:	2b01      	cmp	r3, #1
 8012914:	d004      	beq.n	8012920 <SystemInit+0xb0>
 8012916:	e7fe      	b.n	8012916 <SystemInit+0xa6>
 8012918:	9201      	str	r2, [sp, #4]
 801291a:	9b01      	ldr	r3, [sp, #4]
 801291c:	2b01      	cmp	r3, #1
 801291e:	d1fa      	bne.n	8012916 <SystemInit+0xa6>
 8012920:	f44f 5060 	mov.w	r0, #14336	; 0x3800
 8012924:	f2c4 0002 	movt	r0, #16386	; 0x4002
 8012928:	f44f 42e0 	mov.w	r2, #28672	; 0x7000
 801292c:	6c01      	ldr	r1, [r0, #64]	; 0x40
 801292e:	f2c4 0200 	movt	r2, #16384	; 0x4000
 8012932:	f041 5380 	orr.w	r3, r1, #268435456	; 0x10000000
 8012936:	6403      	str	r3, [r0, #64]	; 0x40
 8012938:	6811      	ldr	r1, [r2, #0]
 801293a:	f441 4380 	orr.w	r3, r1, #16384	; 0x4000
 801293e:	6013      	str	r3, [r2, #0]
 8012940:	6882      	ldr	r2, [r0, #8]
 8012942:	6082      	str	r2, [r0, #8]
 8012944:	6881      	ldr	r1, [r0, #8]
 8012946:	f441 4300 	orr.w	r3, r1, #32768	; 0x8000
 801294a:	6083      	str	r3, [r0, #8]
 801294c:	6881      	ldr	r1, [r0, #8]
 801294e:	f642 2204 	movw	r2, #10756	; 0x2a04
 8012952:	f441 53a0 	orr.w	r3, r1, #5120	; 0x1400
 8012956:	f2c0 7240 	movt	r2, #1856	; 0x740
 801295a:	6083      	str	r3, [r0, #8]
 801295c:	6042      	str	r2, [r0, #4]
 801295e:	6801      	ldr	r1, [r0, #0]
 8012960:	f041 7280 	orr.w	r2, r1, #16777216	; 0x1000000
 8012964:	6002      	str	r2, [r0, #0]
 8012966:	6803      	ldr	r3, [r0, #0]
 8012968:	f44f 5260 	mov.w	r2, #14336	; 0x3800
 801296c:	0199      	lsls	r1, r3, #6
 801296e:	f2c4 0202 	movt	r2, #16386	; 0x4002
 8012972:	d5f8      	bpl.n	8012966 <SystemInit+0xf6>
 8012974:	f44f 5070 	mov.w	r0, #15360	; 0x3c00
 8012978:	f2c4 0002 	movt	r0, #16386	; 0x4002
 801297c:	f240 6105 	movw	r1, #1541	; 0x605
 8012980:	6001      	str	r1, [r0, #0]
 8012982:	6893      	ldr	r3, [r2, #8]
 8012984:	f023 0003 	bic.w	r0, r3, #3
 8012988:	6090      	str	r0, [r2, #8]
 801298a:	6891      	ldr	r1, [r2, #8]
 801298c:	f041 0302 	orr.w	r3, r1, #2
 8012990:	6093      	str	r3, [r2, #8]
 8012992:	6890      	ldr	r0, [r2, #8]
 8012994:	f000 010c 	and.w	r1, r0, #12
 8012998:	2908      	cmp	r1, #8
 801299a:	d1fa      	bne.n	8012992 <SystemInit+0x122>
 801299c:	f44f 436d 	mov.w	r3, #60672	; 0xed00
 80129a0:	f2ce 0300 	movt	r3, #57344	; 0xe000
 80129a4:	f04f 6200 	mov.w	r2, #134217728	; 0x8000000
 80129a8:	609a      	str	r2, [r3, #8]
 80129aa:	b002      	add	sp, #8
 80129ac:	4770      	bx	lr
 80129ae:	bf00      	nop

080129b0 <prvPortStartFirstTask>:
 80129b0:	4806      	ldr	r0, [pc, #24]	; (80129cc <prvPortStartFirstTask+0x1c>)
 80129b2:	6800      	ldr	r0, [r0, #0]
 80129b4:	6800      	ldr	r0, [r0, #0]
 80129b6:	f380 8808 	msr	MSP, r0
 80129ba:	b662      	cpsie	i
 80129bc:	b661      	cpsie	f
 80129be:	f3bf 8f4f 	dsb	sy
 80129c2:	f3bf 8f6f 	isb	sy
 80129c6:	df00      	svc	0
 80129c8:	bf00      	nop
 80129ca:	0000      	.short	0x0000
 80129cc:	e000ed08 	.word	0xe000ed08

080129d0 <vPortEnableVFP>:
 80129d0:	f8df 000c 	ldr.w	r0, [pc, #12]	; 80129e0 <vPortEnableVFP+0x10>
 80129d4:	6801      	ldr	r1, [r0, #0]
 80129d6:	f441 0170 	orr.w	r1, r1, #15728640	; 0xf00000
 80129da:	6001      	str	r1, [r0, #0]
 80129dc:	4770      	bx	lr
 80129de:	0000      	.short	0x0000
 80129e0:	e000ed88 	.word	0xe000ed88

080129e4 <pxPortInitialiseStack>:
 80129e4:	f04f 7380 	mov.w	r3, #16777216	; 0x1000000
 80129e8:	e900 000a 	stmdb	r0, {r1, r3}
 80129ec:	f642 2385 	movw	r3, #10885	; 0x2a85
 80129f0:	f6c0 0301 	movt	r3, #2049	; 0x801
 80129f4:	f06f 0102 	mvn.w	r1, #2
 80129f8:	f840 3c0c 	str.w	r3, [r0, #-12]
 80129fc:	f840 2c20 	str.w	r2, [r0, #-32]
 8012a00:	f840 1c24 	str.w	r1, [r0, #-36]
 8012a04:	3844      	subs	r0, #68	; 0x44
 8012a06:	4770      	bx	lr

08012a08 <SVC_Handler>:
 8012a08:	4b06      	ldr	r3, [pc, #24]	; (8012a24 <pxCurrentTCBConst2>)
 8012a0a:	6819      	ldr	r1, [r3, #0]
 8012a0c:	6808      	ldr	r0, [r1, #0]
 8012a0e:	e8b0 4ff0 	ldmia.w	r0!, {r4, r5, r6, r7, r8, r9, sl, fp, lr}
 8012a12:	f380 8809 	msr	PSP, r0
 8012a16:	f3bf 8f6f 	isb	sy
 8012a1a:	f04f 0000 	mov.w	r0, #0
 8012a1e:	f380 8811 	msr	BASEPRI, r0
 8012a22:	4770      	bx	lr

08012a24 <pxCurrentTCBConst2>:
 8012a24:	10000d04 	.word	0x10000d04

08012a28 <vPortYield>:
 8012a28:	f64e 5304 	movw	r3, #60676	; 0xed04
 8012a2c:	f2ce 0300 	movt	r3, #57344	; 0xe000
 8012a30:	f04f 5280 	mov.w	r2, #268435456	; 0x10000000
 8012a34:	601a      	str	r2, [r3, #0]
 8012a36:	f3bf 8f4f 	dsb	sy
 8012a3a:	f3bf 8f6f 	isb	sy
 8012a3e:	4770      	bx	lr

08012a40 <ulPortSetInterruptMask>:
 8012a40:	f3ef 8011 	mrs	r0, BASEPRI
 8012a44:	f04f 0150 	mov.w	r1, #80	; 0x50
 8012a48:	f381 8811 	msr	BASEPRI, r1
 8012a4c:	4770      	bx	lr
 8012a4e:	2000      	movs	r0, #0

08012a50 <vPortEnterCritical>:
 8012a50:	b508      	push	{r3, lr}
 8012a52:	f7ff fff5 	bl	8012a40 <ulPortSetInterruptMask>
 8012a56:	4a0a      	ldr	r2, [pc, #40]	; (8012a80 <vPortEnterCritical+0x30>)
 8012a58:	6813      	ldr	r3, [r2, #0]
 8012a5a:	1c58      	adds	r0, r3, #1
 8012a5c:	6010      	str	r0, [r2, #0]
 8012a5e:	f3bf 8f4f 	dsb	sy
 8012a62:	f3bf 8f6f 	isb	sy
 8012a66:	2801      	cmp	r0, #1
 8012a68:	d000      	beq.n	8012a6c <vPortEnterCritical+0x1c>
 8012a6a:	bd08      	pop	{r3, pc}
 8012a6c:	f64e 5104 	movw	r1, #60676	; 0xed04
 8012a70:	f2ce 0100 	movt	r1, #57344	; 0xe000
 8012a74:	680a      	ldr	r2, [r1, #0]
 8012a76:	06d3      	lsls	r3, r2, #27
 8012a78:	d0f7      	beq.n	8012a6a <vPortEnterCritical+0x1a>
 8012a7a:	f7ff ffe1 	bl	8012a40 <ulPortSetInterruptMask>
 8012a7e:	e7fe      	b.n	8012a7e <vPortEnterCritical+0x2e>
 8012a80:	10000008 	.word	0x10000008

08012a84 <prvTaskExitError>:
 8012a84:	b508      	push	{r3, lr}
 8012a86:	4b05      	ldr	r3, [pc, #20]	; (8012a9c <prvTaskExitError+0x18>)
 8012a88:	6818      	ldr	r0, [r3, #0]
 8012a8a:	1c43      	adds	r3, r0, #1
 8012a8c:	d002      	beq.n	8012a94 <prvTaskExitError+0x10>
 8012a8e:	f7ff ffd7 	bl	8012a40 <ulPortSetInterruptMask>
 8012a92:	e7fe      	b.n	8012a92 <prvTaskExitError+0xe>
 8012a94:	f7ff ffd4 	bl	8012a40 <ulPortSetInterruptMask>
 8012a98:	e7fe      	b.n	8012a98 <prvTaskExitError+0x14>
 8012a9a:	bf00      	nop
 8012a9c:	10000008 	.word	0x10000008

08012aa0 <vPortClearInterruptMask>:
 8012aa0:	f380 8811 	msr	BASEPRI, r0
 8012aa4:	4770      	bx	lr
 8012aa6:	bf00      	nop

08012aa8 <vPortExitCritical>:
 8012aa8:	b508      	push	{r3, lr}
 8012aaa:	4b07      	ldr	r3, [pc, #28]	; (8012ac8 <vPortExitCritical+0x20>)
 8012aac:	6818      	ldr	r0, [r3, #0]
 8012aae:	b118      	cbz	r0, 8012ab8 <vPortExitCritical+0x10>
 8012ab0:	3801      	subs	r0, #1
 8012ab2:	6018      	str	r0, [r3, #0]
 8012ab4:	b118      	cbz	r0, 8012abe <vPortExitCritical+0x16>
 8012ab6:	bd08      	pop	{r3, pc}
 8012ab8:	f7ff ffc2 	bl	8012a40 <ulPortSetInterruptMask>
 8012abc:	e7fe      	b.n	8012abc <vPortExitCritical+0x14>
 8012abe:	e8bd 4008 	ldmia.w	sp!, {r3, lr}
 8012ac2:	f7ff bfed 	b.w	8012aa0 <vPortClearInterruptMask>
 8012ac6:	bf00      	nop
 8012ac8:	10000008 	.word	0x10000008

08012acc <PendSV_Handler>:
 8012acc:	f3ef 8009 	mrs	r0, PSP
 8012ad0:	f3bf 8f6f 	isb	sy
 8012ad4:	4b12      	ldr	r3, [pc, #72]	; (8012b20 <pxCurrentTCBConst>)
 8012ad6:	681a      	ldr	r2, [r3, #0]
 8012ad8:	f01e 0f10 	tst.w	lr, #16
 8012adc:	bf08      	it	eq
 8012ade:	ed20 8a10 	vstmdbeq	r0!, {s16-s31}
 8012ae2:	e920 4ff0 	stmdb	r0!, {r4, r5, r6, r7, r8, r9, sl, fp, lr}
 8012ae6:	6010      	str	r0, [r2, #0]
 8012ae8:	f84d 3d04 	str.w	r3, [sp, #-4]!
 8012aec:	f04f 0050 	mov.w	r0, #80	; 0x50
 8012af0:	f380 8811 	msr	BASEPRI, r0
 8012af4:	f7ff fa86 	bl	8012004 <vTaskSwitchContext>
 8012af8:	f04f 0000 	mov.w	r0, #0
 8012afc:	f380 8811 	msr	BASEPRI, r0
 8012b00:	bc08      	pop	{r3}
 8012b02:	6819      	ldr	r1, [r3, #0]
 8012b04:	6808      	ldr	r0, [r1, #0]
 8012b06:	e8b0 4ff0 	ldmia.w	r0!, {r4, r5, r6, r7, r8, r9, sl, fp, lr}
 8012b0a:	f01e 0f10 	tst.w	lr, #16
 8012b0e:	bf08      	it	eq
 8012b10:	ecb0 8a10 	vldmiaeq	r0!, {s16-s31}
 8012b14:	f380 8809 	msr	PSP, r0
 8012b18:	f3bf 8f6f 	isb	sy
 8012b1c:	4770      	bx	lr
 8012b1e:	bf00      	nop

08012b20 <pxCurrentTCBConst>:
 8012b20:	10000d04 	.word	0x10000d04

08012b24 <SysTick_Handler>:
 8012b24:	b508      	push	{r3, lr}
 8012b26:	f7ff ff8b 	bl	8012a40 <ulPortSetInterruptMask>
 8012b2a:	f7ff f8fd 	bl	8011d28 <xTaskIncrementTick>
 8012b2e:	b130      	cbz	r0, 8012b3e <SysTick_Handler+0x1a>
 8012b30:	f64e 5304 	movw	r3, #60676	; 0xed04
 8012b34:	f2ce 0300 	movt	r3, #57344	; 0xe000
 8012b38:	f04f 5280 	mov.w	r2, #268435456	; 0x10000000
 8012b3c:	601a      	str	r2, [r3, #0]
 8012b3e:	2000      	movs	r0, #0
 8012b40:	e8bd 4008 	ldmia.w	sp!, {r3, lr}
 8012b44:	f7ff bfac 	b.w	8012aa0 <vPortClearInterruptMask>

08012b48 <vPortSetupTimerInterrupt>:
 8012b48:	f240 0304 	movw	r3, #4
 8012b4c:	f2c1 0300 	movt	r3, #4096	; 0x1000
 8012b50:	f644 52d3 	movw	r2, #19923	; 0x4dd3
 8012b54:	6819      	ldr	r1, [r3, #0]
 8012b56:	f2c1 0262 	movt	r2, #4194	; 0x1062
 8012b5a:	fba2 3001 	umull	r3, r0, r2, r1
 8012b5e:	f24e 0214 	movw	r2, #57364	; 0xe014
 8012b62:	f2ce 0200 	movt	r2, #57344	; 0xe000
 8012b66:	f24e 0310 	movw	r3, #57360	; 0xe010
 8012b6a:	0981      	lsrs	r1, r0, #6
 8012b6c:	f2ce 0300 	movt	r3, #57344	; 0xe000
 8012b70:	1e48      	subs	r0, r1, #1
 8012b72:	6010      	str	r0, [r2, #0]
 8012b74:	2207      	movs	r2, #7
 8012b76:	601a      	str	r2, [r3, #0]
 8012b78:	4770      	bx	lr
 8012b7a:	bf00      	nop

08012b7c <xPortStartScheduler>:
 8012b7c:	b510      	push	{r4, lr}
 8012b7e:	f44f 4364 	mov.w	r3, #58368	; 0xe400
 8012b82:	f2ce 0300 	movt	r3, #57344	; 0xe000
 8012b86:	b082      	sub	sp, #8
 8012b88:	781a      	ldrb	r2, [r3, #0]
 8012b8a:	4825      	ldr	r0, [pc, #148]	; (8012c20 <xPortStartScheduler+0xa4>)
 8012b8c:	9201      	str	r2, [sp, #4]
 8012b8e:	21ff      	movs	r1, #255	; 0xff
 8012b90:	7019      	strb	r1, [r3, #0]
 8012b92:	781c      	ldrb	r4, [r3, #0]
 8012b94:	4923      	ldr	r1, [pc, #140]	; (8012c24 <xPortStartScheduler+0xa8>)
 8012b96:	f88d 4003 	strb.w	r4, [sp, #3]
 8012b9a:	f89d 3003 	ldrb.w	r3, [sp, #3]
 8012b9e:	f89d 2003 	ldrb.w	r2, [sp, #3]
 8012ba2:	f003 0450 	and.w	r4, r3, #80	; 0x50
 8012ba6:	700c      	strb	r4, [r1, #0]
 8012ba8:	2307      	movs	r3, #7
 8012baa:	0611      	lsls	r1, r2, #24
 8012bac:	6003      	str	r3, [r0, #0]
 8012bae:	d50d      	bpl.n	8012bcc <xPortStartScheduler+0x50>
 8012bb0:	2306      	movs	r3, #6
 8012bb2:	e000      	b.n	8012bb6 <xPortStartScheduler+0x3a>
 8012bb4:	4623      	mov	r3, r4
 8012bb6:	f89d 2003 	ldrb.w	r2, [sp, #3]
 8012bba:	0054      	lsls	r4, r2, #1
 8012bbc:	b2e1      	uxtb	r1, r4
 8012bbe:	f88d 1003 	strb.w	r1, [sp, #3]
 8012bc2:	f89d 2003 	ldrb.w	r2, [sp, #3]
 8012bc6:	1e5c      	subs	r4, r3, #1
 8012bc8:	0612      	lsls	r2, r2, #24
 8012bca:	d4f3      	bmi.n	8012bb4 <xPortStartScheduler+0x38>
 8012bcc:	9c01      	ldr	r4, [sp, #4]
 8012bce:	f44f 4164 	mov.w	r1, #58368	; 0xe400
 8012bd2:	f2ce 0100 	movt	r1, #57344	; 0xe000
 8012bd6:	021b      	lsls	r3, r3, #8
 8012bd8:	f64e 5220 	movw	r2, #60704	; 0xed20
 8012bdc:	f2ce 0200 	movt	r2, #57344	; 0xe000
 8012be0:	f403 63e0 	and.w	r3, r3, #1792	; 0x700
 8012be4:	b2e4      	uxtb	r4, r4
 8012be6:	6003      	str	r3, [r0, #0]
 8012be8:	700c      	strb	r4, [r1, #0]
 8012bea:	6810      	ldr	r0, [r2, #0]
 8012bec:	f440 0170 	orr.w	r1, r0, #15728640	; 0xf00000
 8012bf0:	6011      	str	r1, [r2, #0]
 8012bf2:	6813      	ldr	r3, [r2, #0]
 8012bf4:	f043 4470 	orr.w	r4, r3, #4026531840	; 0xf0000000
 8012bf8:	6014      	str	r4, [r2, #0]
 8012bfa:	f7ff ffa5 	bl	8012b48 <vPortSetupTimerInterrupt>
 8012bfe:	480a      	ldr	r0, [pc, #40]	; (8012c28 <xPortStartScheduler+0xac>)
 8012c00:	2200      	movs	r2, #0
 8012c02:	6002      	str	r2, [r0, #0]
 8012c04:	f7ff fee4 	bl	80129d0 <vPortEnableVFP>
 8012c08:	f64e 7134 	movw	r1, #61236	; 0xef34
 8012c0c:	f2ce 0100 	movt	r1, #57344	; 0xe000
 8012c10:	680b      	ldr	r3, [r1, #0]
 8012c12:	f043 4440 	orr.w	r4, r3, #3221225472	; 0xc0000000
 8012c16:	600c      	str	r4, [r1, #0]
 8012c18:	f7ff feca 	bl	80129b0 <prvPortStartFirstTask>
 8012c1c:	f7ff ff32 	bl	8012a84 <prvTaskExitError>
 8012c20:	10000da0 	.word	0x10000da0
 8012c24:	10000d9c 	.word	0x10000d9c
 8012c28:	10000008 	.word	0x10000008

08012c2c <vPortValidateInterruptPriority>:
 8012c2c:	b508      	push	{r3, lr}
 8012c2e:	f3ef 8205 	mrs	r2, IPSR
 8012c32:	2a0f      	cmp	r2, #15
 8012c34:	d908      	bls.n	8012c48 <vPortValidateInterruptPriority+0x1c>
 8012c36:	f24e 33f0 	movw	r3, #58352	; 0xe3f0
 8012c3a:	f2ce 0300 	movt	r3, #57344	; 0xe000
 8012c3e:	490b      	ldr	r1, [pc, #44]	; (8012c6c <vPortValidateInterruptPriority+0x40>)
 8012c40:	5cd0      	ldrb	r0, [r2, r3]
 8012c42:	780a      	ldrb	r2, [r1, #0]
 8012c44:	4282      	cmp	r2, r0
 8012c46:	d80e      	bhi.n	8012c66 <vPortValidateInterruptPriority+0x3a>
 8012c48:	f64e 530c 	movw	r3, #60684	; 0xed0c
 8012c4c:	f2ce 0300 	movt	r3, #57344	; 0xe000
 8012c50:	4907      	ldr	r1, [pc, #28]	; (8012c70 <vPortValidateInterruptPriority+0x44>)
 8012c52:	6818      	ldr	r0, [r3, #0]
 8012c54:	680b      	ldr	r3, [r1, #0]
 8012c56:	f400 62e0 	and.w	r2, r0, #1792	; 0x700
 8012c5a:	429a      	cmp	r2, r3
 8012c5c:	d800      	bhi.n	8012c60 <vPortValidateInterruptPriority+0x34>
 8012c5e:	bd08      	pop	{r3, pc}
 8012c60:	f7ff feee 	bl	8012a40 <ulPortSetInterruptMask>
 8012c64:	e7fe      	b.n	8012c64 <vPortValidateInterruptPriority+0x38>
 8012c66:	f7ff feeb 	bl	8012a40 <ulPortSetInterruptMask>
 8012c6a:	e7fe      	b.n	8012c6a <vPortValidateInterruptPriority+0x3e>
 8012c6c:	10000d9c 	.word	0x10000d9c
 8012c70:	10000da0 	.word	0x10000da0

08012c74 <pvPortMalloc>:
 8012c74:	b510      	push	{r4, lr}
 8012c76:	4604      	mov	r4, r0
 8012c78:	f7ff f842 	bl	8011d00 <vTaskSuspendAll>
 8012c7c:	4620      	mov	r0, r4
 8012c7e:	f002 fa5d 	bl	801513c <malloc>
 8012c82:	4604      	mov	r4, r0
 8012c84:	f7ff f904 	bl	8011e90 <xTaskResumeAll>
 8012c88:	b10c      	cbz	r4, 8012c8e <pvPortMalloc+0x1a>
 8012c8a:	4620      	mov	r0, r4
 8012c8c:	bd10      	pop	{r4, pc}
 8012c8e:	f000 f815 	bl	8012cbc <vApplicationMallocFailedHook>
 8012c92:	4620      	mov	r0, r4
 8012c94:	bd10      	pop	{r4, pc}
 8012c96:	bf00      	nop

08012c98 <vPortFree>:
 8012c98:	b510      	push	{r4, lr}
 8012c9a:	4604      	mov	r4, r0
 8012c9c:	b140      	cbz	r0, 8012cb0 <vPortFree+0x18>
 8012c9e:	f7ff f82f 	bl	8011d00 <vTaskSuspendAll>
 8012ca2:	4620      	mov	r0, r4
 8012ca4:	f002 fa52 	bl	801514c <free>
 8012ca8:	e8bd 4010 	ldmia.w	sp!, {r4, lr}
 8012cac:	f7ff b8f0 	b.w	8011e90 <xTaskResumeAll>
 8012cb0:	bd10      	pop	{r4, pc}
 8012cb2:	bf00      	nop

08012cb4 <vApplicationIdleHook>:
 8012cb4:	4770      	bx	lr
 8012cb6:	bf00      	nop

08012cb8 <vApplicationTickHook>:
 8012cb8:	4770      	bx	lr
 8012cba:	bf00      	nop

08012cbc <vApplicationMallocFailedHook>:
 8012cbc:	b508      	push	{r3, lr}
 8012cbe:	f7ff febf 	bl	8012a40 <ulPortSetInterruptMask>
 8012cc2:	bf00      	nop
 8012cc4:	f248 23b0 	movw	r3, #33456	; 0x82b0
 8012cc8:	f2c4 2340 	movt	r3, #16960	; 0x4240
 8012ccc:	2201      	movs	r2, #1
 8012cce:	601a      	str	r2, [r3, #0]
 8012cd0:	e7fe      	b.n	8012cd0 <vApplicationMallocFailedHook+0x14>
 8012cd2:	bf00      	nop

08012cd4 <vApplicationStackOverflowHook>:
 8012cd4:	b508      	push	{r3, lr}
 8012cd6:	f7ff feb3 	bl	8012a40 <ulPortSetInterruptMask>
 8012cda:	bf00      	nop
 8012cdc:	f248 23b0 	movw	r3, #33456	; 0x82b0
 8012ce0:	f2c4 2340 	movt	r3, #16960	; 0x4240
 8012ce4:	2201      	movs	r2, #1
 8012ce6:	601a      	str	r2, [r3, #0]
 8012ce8:	e7fe      	b.n	8012ce8 <vApplicationStackOverflowHook+0x14>
 8012cea:	bf00      	nop

08012cec <_sbrk>:
 8012cec:	4a08      	ldr	r2, [pc, #32]	; (8012d10 <_sbrk+0x24>)
 8012cee:	4909      	ldr	r1, [pc, #36]	; (8012d14 <_sbrk+0x28>)
 8012cf0:	b508      	push	{r3, lr}
 8012cf2:	6813      	ldr	r3, [r2, #0]
 8012cf4:	1818      	adds	r0, r3, r0
 8012cf6:	4288      	cmp	r0, r1
 8012cf8:	d802      	bhi.n	8012d00 <_sbrk+0x14>
 8012cfa:	6010      	str	r0, [r2, #0]
 8012cfc:	4618      	mov	r0, r3
 8012cfe:	bd08      	pop	{r3, pc}
 8012d00:	f002 f9cc 	bl	801509c <__errno>
 8012d04:	220c      	movs	r2, #12
 8012d06:	f04f 33ff 	mov.w	r3, #4294967295
 8012d0a:	6002      	str	r2, [r0, #0]
 8012d0c:	4618      	mov	r0, r3
 8012d0e:	bd08      	pop	{r3, pc}
 8012d10:	1000000c 	.word	0x1000000c
 8012d14:	20012000 	.word	0x20012000

08012d18 <__cxa_pure_virtual>:
 8012d18:	e7fe      	b.n	8012d18 <__cxa_pure_virtual>
 8012d1a:	bf00      	nop

08012d1c <_ZdlPv>:
 8012d1c:	f7ff bfbc 	b.w	8012c98 <vPortFree>

08012d20 <prvUnlockQueue>:
 8012d20:	b538      	push	{r3, r4, r5, lr}
 8012d22:	4604      	mov	r4, r0
 8012d24:	f7ff fe94 	bl	8012a50 <vPortEnterCritical>
 8012d28:	6ca3      	ldr	r3, [r4, #72]	; 0x48
 8012d2a:	2b00      	cmp	r3, #0
 8012d2c:	dd14      	ble.n	8012d58 <prvUnlockQueue+0x38>
 8012d2e:	6a60      	ldr	r0, [r4, #36]	; 0x24
 8012d30:	b190      	cbz	r0, 8012d58 <prvUnlockQueue+0x38>
 8012d32:	f104 0524 	add.w	r5, r4, #36	; 0x24
 8012d36:	e007      	b.n	8012d48 <prvUnlockQueue+0x28>
 8012d38:	6ca1      	ldr	r1, [r4, #72]	; 0x48
 8012d3a:	1e4a      	subs	r2, r1, #1
 8012d3c:	64a2      	str	r2, [r4, #72]	; 0x48
 8012d3e:	6ca3      	ldr	r3, [r4, #72]	; 0x48
 8012d40:	2b00      	cmp	r3, #0
 8012d42:	dd09      	ble.n	8012d58 <prvUnlockQueue+0x38>
 8012d44:	6a60      	ldr	r0, [r4, #36]	; 0x24
 8012d46:	b138      	cbz	r0, 8012d58 <prvUnlockQueue+0x38>
 8012d48:	4628      	mov	r0, r5
 8012d4a:	f7ff fa3f 	bl	80121cc <xTaskRemoveFromEventList>
 8012d4e:	2800      	cmp	r0, #0
 8012d50:	d0f2      	beq.n	8012d38 <prvUnlockQueue+0x18>
 8012d52:	f7ff fabf 	bl	80122d4 <vTaskMissedYield>
 8012d56:	e7ef      	b.n	8012d38 <prvUnlockQueue+0x18>
 8012d58:	f04f 31ff 	mov.w	r1, #4294967295
 8012d5c:	64a1      	str	r1, [r4, #72]	; 0x48
 8012d5e:	f7ff fea3 	bl	8012aa8 <vPortExitCritical>
 8012d62:	f7ff fe75 	bl	8012a50 <vPortEnterCritical>
 8012d66:	6c62      	ldr	r2, [r4, #68]	; 0x44
 8012d68:	2a00      	cmp	r2, #0
 8012d6a:	dd14      	ble.n	8012d96 <prvUnlockQueue+0x76>
 8012d6c:	6923      	ldr	r3, [r4, #16]
 8012d6e:	b193      	cbz	r3, 8012d96 <prvUnlockQueue+0x76>
 8012d70:	f104 0510 	add.w	r5, r4, #16
 8012d74:	e007      	b.n	8012d86 <prvUnlockQueue+0x66>
 8012d76:	6c60      	ldr	r0, [r4, #68]	; 0x44
 8012d78:	1e41      	subs	r1, r0, #1
 8012d7a:	6461      	str	r1, [r4, #68]	; 0x44
 8012d7c:	6c62      	ldr	r2, [r4, #68]	; 0x44
 8012d7e:	2a00      	cmp	r2, #0
 8012d80:	dd09      	ble.n	8012d96 <prvUnlockQueue+0x76>
 8012d82:	6923      	ldr	r3, [r4, #16]
 8012d84:	b13b      	cbz	r3, 8012d96 <prvUnlockQueue+0x76>
 8012d86:	4628      	mov	r0, r5
 8012d88:	f7ff fa20 	bl	80121cc <xTaskRemoveFromEventList>
 8012d8c:	2800      	cmp	r0, #0
 8012d8e:	d0f2      	beq.n	8012d76 <prvUnlockQueue+0x56>
 8012d90:	f7ff faa0 	bl	80122d4 <vTaskMissedYield>
 8012d94:	e7ef      	b.n	8012d76 <prvUnlockQueue+0x56>
 8012d96:	f04f 30ff 	mov.w	r0, #4294967295
 8012d9a:	6460      	str	r0, [r4, #68]	; 0x44
 8012d9c:	e8bd 4038 	ldmia.w	sp!, {r3, r4, r5, lr}
 8012da0:	f7ff be82 	b.w	8012aa8 <vPortExitCritical>

08012da4 <prvCopyDataFromQueue>:
 8012da4:	6c02      	ldr	r2, [r0, #64]	; 0x40
 8012da6:	b410      	push	{r4}
 8012da8:	4603      	mov	r3, r0
 8012daa:	b16a      	cbz	r2, 8012dc8 <prvCopyDataFromQueue+0x24>
 8012dac:	68c4      	ldr	r4, [r0, #12]
 8012dae:	6840      	ldr	r0, [r0, #4]
 8012db0:	18a4      	adds	r4, r4, r2
 8012db2:	4284      	cmp	r4, r0
 8012db4:	bf28      	it	cs
 8012db6:	6818      	ldrcs	r0, [r3, #0]
 8012db8:	60dc      	str	r4, [r3, #12]
 8012dba:	bf28      	it	cs
 8012dbc:	60d8      	strcs	r0, [r3, #12]
 8012dbe:	4608      	mov	r0, r1
 8012dc0:	68d9      	ldr	r1, [r3, #12]
 8012dc2:	bc10      	pop	{r4}
 8012dc4:	f002 bcd4 	b.w	8015770 <memcpy>
 8012dc8:	bc10      	pop	{r4}
 8012dca:	4770      	bx	lr

08012dcc <xQueueGenericCreate>:
 8012dcc:	b5f8      	push	{r3, r4, r5, r6, r7, lr}
 8012dce:	4605      	mov	r5, r0
 8012dd0:	460e      	mov	r6, r1
 8012dd2:	4617      	mov	r7, r2
 8012dd4:	2800      	cmp	r0, #0
 8012dd6:	d031      	beq.n	8012e3c <xQueueGenericCreate+0x70>
 8012dd8:	2054      	movs	r0, #84	; 0x54
 8012dda:	f7ff ff4b 	bl	8012c74 <pvPortMalloc>
 8012dde:	4604      	mov	r4, r0
 8012de0:	b360      	cbz	r0, 8012e3c <xQueueGenericCreate+0x70>
 8012de2:	fb05 f006 	mul.w	r0, r5, r6
 8012de6:	3001      	adds	r0, #1
 8012de8:	f7ff ff44 	bl	8012c74 <pvPortMalloc>
 8012dec:	6020      	str	r0, [r4, #0]
 8012dee:	b310      	cbz	r0, 8012e36 <xQueueGenericCreate+0x6a>
 8012df0:	63e5      	str	r5, [r4, #60]	; 0x3c
 8012df2:	6426      	str	r6, [r4, #64]	; 0x40
 8012df4:	f7ff fe2c 	bl	8012a50 <vPortEnterCritical>
 8012df8:	6be2      	ldr	r2, [r4, #60]	; 0x3c
 8012dfa:	6823      	ldr	r3, [r4, #0]
 8012dfc:	6c21      	ldr	r1, [r4, #64]	; 0x40
 8012dfe:	60a3      	str	r3, [r4, #8]
 8012e00:	1e55      	subs	r5, r2, #1
 8012e02:	2000      	movs	r0, #0
 8012e04:	fb02 3201 	mla	r2, r2, r1, r3
 8012e08:	fb01 3305 	mla	r3, r1, r5, r3
 8012e0c:	f04f 31ff 	mov.w	r1, #4294967295
 8012e10:	63a0      	str	r0, [r4, #56]	; 0x38
 8012e12:	6062      	str	r2, [r4, #4]
 8012e14:	6461      	str	r1, [r4, #68]	; 0x44
 8012e16:	60e3      	str	r3, [r4, #12]
 8012e18:	64a1      	str	r1, [r4, #72]	; 0x48
 8012e1a:	f104 0010 	add.w	r0, r4, #16
 8012e1e:	f7ff fb0d 	bl	801243c <vListInitialise>
 8012e22:	f104 0024 	add.w	r0, r4, #36	; 0x24
 8012e26:	f7ff fb09 	bl	801243c <vListInitialise>
 8012e2a:	f7ff fe3d 	bl	8012aa8 <vPortExitCritical>
 8012e2e:	f884 7050 	strb.w	r7, [r4, #80]	; 0x50
 8012e32:	4620      	mov	r0, r4
 8012e34:	bdf8      	pop	{r3, r4, r5, r6, r7, pc}
 8012e36:	4620      	mov	r0, r4
 8012e38:	f7ff ff2e 	bl	8012c98 <vPortFree>
 8012e3c:	f7ff fe00 	bl	8012a40 <ulPortSetInterruptMask>
 8012e40:	e7fe      	b.n	8012e40 <xQueueGenericCreate+0x74>
 8012e42:	bf00      	nop

08012e44 <xQueueGenericSend>:
 8012e44:	e92d 4ff0 	stmdb	sp!, {r4, r5, r6, r7, r8, r9, sl, fp, lr}
 8012e48:	b085      	sub	sp, #20
 8012e4a:	4604      	mov	r4, r0
 8012e4c:	4689      	mov	r9, r1
 8012e4e:	9201      	str	r2, [sp, #4]
 8012e50:	461f      	mov	r7, r3
 8012e52:	2800      	cmp	r0, #0
 8012e54:	f000 80e6 	beq.w	8013024 <xQueueGenericSend+0x1e0>
 8012e58:	2900      	cmp	r1, #0
 8012e5a:	f000 8132 	beq.w	80130c2 <xQueueGenericSend+0x27e>
 8012e5e:	2f02      	cmp	r7, #2
 8012e60:	d057      	beq.n	8012f12 <xQueueGenericSend+0xce>
 8012e62:	f7ff fa3f 	bl	80122e4 <xTaskGetSchedulerState>
 8012e66:	b918      	cbnz	r0, 8012e70 <xQueueGenericSend+0x2c>
 8012e68:	9901      	ldr	r1, [sp, #4]
 8012e6a:	2900      	cmp	r1, #0
 8012e6c:	f040 810e 	bne.w	801308c <xQueueGenericSend+0x248>
 8012e70:	f7ff fdee 	bl	8012a50 <vPortEnterCritical>
 8012e74:	6ba2      	ldr	r2, [r4, #56]	; 0x38
 8012e76:	6be3      	ldr	r3, [r4, #60]	; 0x3c
 8012e78:	429a      	cmp	r2, r3
 8012e7a:	f04f 0b00 	mov.w	fp, #0
 8012e7e:	f04f 0a00 	mov.w	sl, #0
 8012e82:	f104 0510 	add.w	r5, r4, #16
 8012e86:	f104 0624 	add.w	r6, r4, #36	; 0x24
 8012e8a:	f04f 38ff 	mov.w	r8, #4294967295
 8012e8e:	d370      	bcc.n	8012f72 <xQueueGenericSend+0x12e>
 8012e90:	2f02      	cmp	r7, #2
 8012e92:	f000 80d8 	beq.w	8013046 <xQueueGenericSend+0x202>
 8012e96:	9801      	ldr	r0, [sp, #4]
 8012e98:	2800      	cmp	r0, #0
 8012e9a:	f000 80cf 	beq.w	801303c <xQueueGenericSend+0x1f8>
 8012e9e:	f1bb 0f00 	cmp.w	fp, #0
 8012ea2:	d07a      	beq.n	8012f9a <xQueueGenericSend+0x156>
 8012ea4:	f7ff fe00 	bl	8012aa8 <vPortExitCritical>
 8012ea8:	f7fe ff2a 	bl	8011d00 <vTaskSuspendAll>
 8012eac:	f7ff fdd0 	bl	8012a50 <vPortEnterCritical>
 8012eb0:	6c61      	ldr	r1, [r4, #68]	; 0x44
 8012eb2:	1c4b      	adds	r3, r1, #1
 8012eb4:	bf08      	it	eq
 8012eb6:	f8c4 a044 	streq.w	sl, [r4, #68]	; 0x44
 8012eba:	6ca2      	ldr	r2, [r4, #72]	; 0x48
 8012ebc:	1c53      	adds	r3, r2, #1
 8012ebe:	bf08      	it	eq
 8012ec0:	f8c4 a048 	streq.w	sl, [r4, #72]	; 0x48
 8012ec4:	f7ff fdf0 	bl	8012aa8 <vPortExitCritical>
 8012ec8:	a802      	add	r0, sp, #8
 8012eca:	a901      	add	r1, sp, #4
 8012ecc:	f7ff f9d0 	bl	8012270 <xTaskCheckForTimeOut>
 8012ed0:	2800      	cmp	r0, #0
 8012ed2:	f040 80aa 	bne.w	801302a <xQueueGenericSend+0x1e6>
 8012ed6:	f7ff fdbb 	bl	8012a50 <vPortEnterCritical>
 8012eda:	6ba0      	ldr	r0, [r4, #56]	; 0x38
 8012edc:	6be3      	ldr	r3, [r4, #60]	; 0x3c
 8012ede:	4298      	cmp	r0, r3
 8012ee0:	d05f      	beq.n	8012fa2 <xQueueGenericSend+0x15e>
 8012ee2:	f7ff fde1 	bl	8012aa8 <vPortExitCritical>
 8012ee6:	f7ff fdb3 	bl	8012a50 <vPortEnterCritical>
 8012eea:	6ca1      	ldr	r1, [r4, #72]	; 0x48
 8012eec:	2900      	cmp	r1, #0
 8012eee:	dc06      	bgt.n	8012efe <xQueueGenericSend+0xba>
 8012ef0:	e015      	b.n	8012f1e <xQueueGenericSend+0xda>
 8012ef2:	6ca0      	ldr	r0, [r4, #72]	; 0x48
 8012ef4:	1e43      	subs	r3, r0, #1
 8012ef6:	64a3      	str	r3, [r4, #72]	; 0x48
 8012ef8:	6ca1      	ldr	r1, [r4, #72]	; 0x48
 8012efa:	2900      	cmp	r1, #0
 8012efc:	dd0f      	ble.n	8012f1e <xQueueGenericSend+0xda>
 8012efe:	6a62      	ldr	r2, [r4, #36]	; 0x24
 8012f00:	b16a      	cbz	r2, 8012f1e <xQueueGenericSend+0xda>
 8012f02:	4630      	mov	r0, r6
 8012f04:	f7ff f962 	bl	80121cc <xTaskRemoveFromEventList>
 8012f08:	2800      	cmp	r0, #0
 8012f0a:	d0f2      	beq.n	8012ef2 <xQueueGenericSend+0xae>
 8012f0c:	f7ff f9e2 	bl	80122d4 <vTaskMissedYield>
 8012f10:	e7ef      	b.n	8012ef2 <xQueueGenericSend+0xae>
 8012f12:	6be0      	ldr	r0, [r4, #60]	; 0x3c
 8012f14:	2801      	cmp	r0, #1
 8012f16:	d0a4      	beq.n	8012e62 <xQueueGenericSend+0x1e>
 8012f18:	f7ff fd92 	bl	8012a40 <ulPortSetInterruptMask>
 8012f1c:	e7fe      	b.n	8012f1c <xQueueGenericSend+0xd8>
 8012f1e:	f8c4 8048 	str.w	r8, [r4, #72]	; 0x48
 8012f22:	f7ff fdc1 	bl	8012aa8 <vPortExitCritical>
 8012f26:	f7ff fd93 	bl	8012a50 <vPortEnterCritical>
 8012f2a:	6c62      	ldr	r2, [r4, #68]	; 0x44
 8012f2c:	2a00      	cmp	r2, #0
 8012f2e:	dd12      	ble.n	8012f56 <xQueueGenericSend+0x112>
 8012f30:	6920      	ldr	r0, [r4, #16]
 8012f32:	b940      	cbnz	r0, 8012f46 <xQueueGenericSend+0x102>
 8012f34:	e00f      	b.n	8012f56 <xQueueGenericSend+0x112>
 8012f36:	6c63      	ldr	r3, [r4, #68]	; 0x44
 8012f38:	1e59      	subs	r1, r3, #1
 8012f3a:	6461      	str	r1, [r4, #68]	; 0x44
 8012f3c:	6c62      	ldr	r2, [r4, #68]	; 0x44
 8012f3e:	2a00      	cmp	r2, #0
 8012f40:	dd09      	ble.n	8012f56 <xQueueGenericSend+0x112>
 8012f42:	6920      	ldr	r0, [r4, #16]
 8012f44:	b138      	cbz	r0, 8012f56 <xQueueGenericSend+0x112>
 8012f46:	4628      	mov	r0, r5
 8012f48:	f7ff f940 	bl	80121cc <xTaskRemoveFromEventList>
 8012f4c:	2800      	cmp	r0, #0
 8012f4e:	d0f2      	beq.n	8012f36 <xQueueGenericSend+0xf2>
 8012f50:	f7ff f9c0 	bl	80122d4 <vTaskMissedYield>
 8012f54:	e7ef      	b.n	8012f36 <xQueueGenericSend+0xf2>
 8012f56:	f8c4 8044 	str.w	r8, [r4, #68]	; 0x44
 8012f5a:	f7ff fda5 	bl	8012aa8 <vPortExitCritical>
 8012f5e:	f7fe ff97 	bl	8011e90 <xTaskResumeAll>
 8012f62:	f7ff fd75 	bl	8012a50 <vPortEnterCritical>
 8012f66:	6ba2      	ldr	r2, [r4, #56]	; 0x38
 8012f68:	6be3      	ldr	r3, [r4, #60]	; 0x3c
 8012f6a:	429a      	cmp	r2, r3
 8012f6c:	f04f 0b01 	mov.w	fp, #1
 8012f70:	d28e      	bcs.n	8012e90 <xQueueGenericSend+0x4c>
 8012f72:	6c22      	ldr	r2, [r4, #64]	; 0x40
 8012f74:	2a00      	cmp	r2, #0
 8012f76:	d068      	beq.n	801304a <xQueueGenericSend+0x206>
 8012f78:	2f00      	cmp	r7, #0
 8012f7a:	f040 808a 	bne.w	8013092 <xQueueGenericSend+0x24e>
 8012f7e:	4649      	mov	r1, r9
 8012f80:	68a0      	ldr	r0, [r4, #8]
 8012f82:	f002 fbf5 	bl	8015770 <memcpy>
 8012f86:	68a1      	ldr	r1, [r4, #8]
 8012f88:	6c23      	ldr	r3, [r4, #64]	; 0x40
 8012f8a:	6860      	ldr	r0, [r4, #4]
 8012f8c:	18ca      	adds	r2, r1, r3
 8012f8e:	4282      	cmp	r2, r0
 8012f90:	60a2      	str	r2, [r4, #8]
 8012f92:	d35c      	bcc.n	801304e <xQueueGenericSend+0x20a>
 8012f94:	6821      	ldr	r1, [r4, #0]
 8012f96:	60a1      	str	r1, [r4, #8]
 8012f98:	e059      	b.n	801304e <xQueueGenericSend+0x20a>
 8012f9a:	a802      	add	r0, sp, #8
 8012f9c:	f7ff f958 	bl	8012250 <vTaskSetTimeOutState>
 8012fa0:	e780      	b.n	8012ea4 <xQueueGenericSend+0x60>
 8012fa2:	f7ff fd81 	bl	8012aa8 <vPortExitCritical>
 8012fa6:	4628      	mov	r0, r5
 8012fa8:	9901      	ldr	r1, [sp, #4]
 8012faa:	f7ff f87b 	bl	80120a4 <vTaskPlaceOnEventList>
 8012fae:	f7ff fd4f 	bl	8012a50 <vPortEnterCritical>
 8012fb2:	6ca3      	ldr	r3, [r4, #72]	; 0x48
 8012fb4:	2b00      	cmp	r3, #0
 8012fb6:	dc06      	bgt.n	8012fc6 <xQueueGenericSend+0x182>
 8012fb8:	e00f      	b.n	8012fda <xQueueGenericSend+0x196>
 8012fba:	6ca2      	ldr	r2, [r4, #72]	; 0x48
 8012fbc:	1e50      	subs	r0, r2, #1
 8012fbe:	64a0      	str	r0, [r4, #72]	; 0x48
 8012fc0:	6ca3      	ldr	r3, [r4, #72]	; 0x48
 8012fc2:	2b00      	cmp	r3, #0
 8012fc4:	dd09      	ble.n	8012fda <xQueueGenericSend+0x196>
 8012fc6:	6a61      	ldr	r1, [r4, #36]	; 0x24
 8012fc8:	b139      	cbz	r1, 8012fda <xQueueGenericSend+0x196>
 8012fca:	4630      	mov	r0, r6
 8012fcc:	f7ff f8fe 	bl	80121cc <xTaskRemoveFromEventList>
 8012fd0:	2800      	cmp	r0, #0
 8012fd2:	d0f2      	beq.n	8012fba <xQueueGenericSend+0x176>
 8012fd4:	f7ff f97e 	bl	80122d4 <vTaskMissedYield>
 8012fd8:	e7ef      	b.n	8012fba <xQueueGenericSend+0x176>
 8012fda:	f8c4 8048 	str.w	r8, [r4, #72]	; 0x48
 8012fde:	f7ff fd63 	bl	8012aa8 <vPortExitCritical>
 8012fe2:	f7ff fd35 	bl	8012a50 <vPortEnterCritical>
 8012fe6:	6c61      	ldr	r1, [r4, #68]	; 0x44
 8012fe8:	2900      	cmp	r1, #0
 8012fea:	dc06      	bgt.n	8012ffa <xQueueGenericSend+0x1b6>
 8012fec:	e00f      	b.n	801300e <xQueueGenericSend+0x1ca>
 8012fee:	6c60      	ldr	r0, [r4, #68]	; 0x44
 8012ff0:	1e43      	subs	r3, r0, #1
 8012ff2:	6463      	str	r3, [r4, #68]	; 0x44
 8012ff4:	6c61      	ldr	r1, [r4, #68]	; 0x44
 8012ff6:	2900      	cmp	r1, #0
 8012ff8:	dd09      	ble.n	801300e <xQueueGenericSend+0x1ca>
 8012ffa:	6922      	ldr	r2, [r4, #16]
 8012ffc:	b13a      	cbz	r2, 801300e <xQueueGenericSend+0x1ca>
 8012ffe:	4628      	mov	r0, r5
 8013000:	f7ff f8e4 	bl	80121cc <xTaskRemoveFromEventList>
 8013004:	2800      	cmp	r0, #0
 8013006:	d0f2      	beq.n	8012fee <xQueueGenericSend+0x1aa>
 8013008:	f7ff f964 	bl	80122d4 <vTaskMissedYield>
 801300c:	e7ef      	b.n	8012fee <xQueueGenericSend+0x1aa>
 801300e:	f8c4 8044 	str.w	r8, [r4, #68]	; 0x44
 8013012:	f7ff fd49 	bl	8012aa8 <vPortExitCritical>
 8013016:	f7fe ff3b 	bl	8011e90 <xTaskResumeAll>
 801301a:	2800      	cmp	r0, #0
 801301c:	d1a1      	bne.n	8012f62 <xQueueGenericSend+0x11e>
 801301e:	f7ff fd03 	bl	8012a28 <vPortYield>
 8013022:	e79e      	b.n	8012f62 <xQueueGenericSend+0x11e>
 8013024:	f7ff fd0c 	bl	8012a40 <ulPortSetInterruptMask>
 8013028:	e7fe      	b.n	8013028 <xQueueGenericSend+0x1e4>
 801302a:	4620      	mov	r0, r4
 801302c:	f7ff fe78 	bl	8012d20 <prvUnlockQueue>
 8013030:	f7fe ff2e 	bl	8011e90 <xTaskResumeAll>
 8013034:	2000      	movs	r0, #0
 8013036:	b005      	add	sp, #20
 8013038:	e8bd 8ff0 	ldmia.w	sp!, {r4, r5, r6, r7, r8, r9, sl, fp, pc}
 801303c:	9000      	str	r0, [sp, #0]
 801303e:	f7ff fd33 	bl	8012aa8 <vPortExitCritical>
 8013042:	9800      	ldr	r0, [sp, #0]
 8013044:	e7f7      	b.n	8013036 <xQueueGenericSend+0x1f2>
 8013046:	6c22      	ldr	r2, [r4, #64]	; 0x40
 8013048:	bb1a      	cbnz	r2, 8013092 <xQueueGenericSend+0x24e>
 801304a:	6825      	ldr	r5, [r4, #0]
 801304c:	b17d      	cbz	r5, 801306e <xQueueGenericSend+0x22a>
 801304e:	6ba0      	ldr	r0, [r4, #56]	; 0x38
 8013050:	6a63      	ldr	r3, [r4, #36]	; 0x24
 8013052:	1c42      	adds	r2, r0, #1
 8013054:	63a2      	str	r2, [r4, #56]	; 0x38
 8013056:	b91b      	cbnz	r3, 8013060 <xQueueGenericSend+0x21c>
 8013058:	f7ff fd26 	bl	8012aa8 <vPortExitCritical>
 801305c:	2001      	movs	r0, #1
 801305e:	e7ea      	b.n	8013036 <xQueueGenericSend+0x1f2>
 8013060:	f104 0024 	add.w	r0, r4, #36	; 0x24
 8013064:	f7ff f8b2 	bl	80121cc <xTaskRemoveFromEventList>
 8013068:	2801      	cmp	r0, #1
 801306a:	d1f5      	bne.n	8013058 <xQueueGenericSend+0x214>
 801306c:	e00b      	b.n	8013086 <xQueueGenericSend+0x242>
 801306e:	6860      	ldr	r0, [r4, #4]
 8013070:	f7ff f992 	bl	8012398 <xTaskPriorityDisinherit>
 8013074:	6ba1      	ldr	r1, [r4, #56]	; 0x38
 8013076:	6a63      	ldr	r3, [r4, #36]	; 0x24
 8013078:	6065      	str	r5, [r4, #4]
 801307a:	1c4a      	adds	r2, r1, #1
 801307c:	63a2      	str	r2, [r4, #56]	; 0x38
 801307e:	2b00      	cmp	r3, #0
 8013080:	d1ee      	bne.n	8013060 <xQueueGenericSend+0x21c>
 8013082:	2800      	cmp	r0, #0
 8013084:	d0e8      	beq.n	8013058 <xQueueGenericSend+0x214>
 8013086:	f7ff fccf 	bl	8012a28 <vPortYield>
 801308a:	e7e5      	b.n	8013058 <xQueueGenericSend+0x214>
 801308c:	f7ff fcd8 	bl	8012a40 <ulPortSetInterruptMask>
 8013090:	e7fe      	b.n	8013090 <xQueueGenericSend+0x24c>
 8013092:	4649      	mov	r1, r9
 8013094:	68e0      	ldr	r0, [r4, #12]
 8013096:	f002 fb6b 	bl	8015770 <memcpy>
 801309a:	6c20      	ldr	r0, [r4, #64]	; 0x40
 801309c:	68e2      	ldr	r2, [r4, #12]
 801309e:	6821      	ldr	r1, [r4, #0]
 80130a0:	4243      	negs	r3, r0
 80130a2:	18d0      	adds	r0, r2, r3
 80130a4:	4288      	cmp	r0, r1
 80130a6:	60e0      	str	r0, [r4, #12]
 80130a8:	d202      	bcs.n	80130b0 <xQueueGenericSend+0x26c>
 80130aa:	6862      	ldr	r2, [r4, #4]
 80130ac:	18d1      	adds	r1, r2, r3
 80130ae:	60e1      	str	r1, [r4, #12]
 80130b0:	2f02      	cmp	r7, #2
 80130b2:	d1cc      	bne.n	801304e <xQueueGenericSend+0x20a>
 80130b4:	6ba3      	ldr	r3, [r4, #56]	; 0x38
 80130b6:	2b00      	cmp	r3, #0
 80130b8:	d0c9      	beq.n	801304e <xQueueGenericSend+0x20a>
 80130ba:	6ba0      	ldr	r0, [r4, #56]	; 0x38
 80130bc:	1e42      	subs	r2, r0, #1
 80130be:	63a2      	str	r2, [r4, #56]	; 0x38
 80130c0:	e7c5      	b.n	801304e <xQueueGenericSend+0x20a>
 80130c2:	6c03      	ldr	r3, [r0, #64]	; 0x40
 80130c4:	2b00      	cmp	r3, #0
 80130c6:	f43f aeca 	beq.w	8012e5e <xQueueGenericSend+0x1a>
 80130ca:	f7ff fcb9 	bl	8012a40 <ulPortSetInterruptMask>
 80130ce:	e7fe      	b.n	80130ce <xQueueGenericSend+0x28a>

080130d0 <xQueueGenericSendFromISR>:
 80130d0:	e92d 41f0 	stmdb	sp!, {r4, r5, r6, r7, r8, lr}
 80130d4:	4604      	mov	r4, r0
 80130d6:	460f      	mov	r7, r1
 80130d8:	4615      	mov	r5, r2
 80130da:	461e      	mov	r6, r3
 80130dc:	b358      	cbz	r0, 8013136 <xQueueGenericSendFromISR+0x66>
 80130de:	2900      	cmp	r1, #0
 80130e0:	d06b      	beq.n	80131ba <xQueueGenericSendFromISR+0xea>
 80130e2:	2e02      	cmp	r6, #2
 80130e4:	d00a      	beq.n	80130fc <xQueueGenericSendFromISR+0x2c>
 80130e6:	f7ff fda1 	bl	8012c2c <vPortValidateInterruptPriority>
 80130ea:	f7ff fca9 	bl	8012a40 <ulPortSetInterruptMask>
 80130ee:	6ba2      	ldr	r2, [r4, #56]	; 0x38
 80130f0:	6be1      	ldr	r1, [r4, #60]	; 0x3c
 80130f2:	4291      	cmp	r1, r2
 80130f4:	4680      	mov	r8, r0
 80130f6:	d807      	bhi.n	8013108 <xQueueGenericSendFromISR+0x38>
 80130f8:	2400      	movs	r4, #0
 80130fa:	e037      	b.n	801316c <xQueueGenericSendFromISR+0x9c>
 80130fc:	6be0      	ldr	r0, [r4, #60]	; 0x3c
 80130fe:	2801      	cmp	r0, #1
 8013100:	d03a      	beq.n	8013178 <xQueueGenericSendFromISR+0xa8>
 8013102:	f7ff fc9d 	bl	8012a40 <ulPortSetInterruptMask>
 8013106:	e7fe      	b.n	8013106 <xQueueGenericSendFromISR+0x36>
 8013108:	6c22      	ldr	r2, [r4, #64]	; 0x40
 801310a:	b9ba      	cbnz	r2, 801313c <xQueueGenericSendFromISR+0x6c>
 801310c:	6826      	ldr	r6, [r4, #0]
 801310e:	bb1e      	cbnz	r6, 8013158 <xQueueGenericSendFromISR+0x88>
 8013110:	6860      	ldr	r0, [r4, #4]
 8013112:	f7ff f941 	bl	8012398 <xTaskPriorityDisinherit>
 8013116:	6ba1      	ldr	r1, [r4, #56]	; 0x38
 8013118:	6066      	str	r6, [r4, #4]
 801311a:	1c4b      	adds	r3, r1, #1
 801311c:	63a3      	str	r3, [r4, #56]	; 0x38
 801311e:	b1f0      	cbz	r0, 801315e <xQueueGenericSendFromISR+0x8e>
 8013120:	b1ed      	cbz	r5, 801315e <xQueueGenericSendFromISR+0x8e>
 8013122:	2001      	movs	r0, #1
 8013124:	6028      	str	r0, [r5, #0]
 8013126:	6ca2      	ldr	r2, [r4, #72]	; 0x48
 8013128:	1c53      	adds	r3, r2, #1
 801312a:	d11b      	bne.n	8013164 <xQueueGenericSendFromISR+0x94>
 801312c:	6a60      	ldr	r0, [r4, #36]	; 0x24
 801312e:	2800      	cmp	r0, #0
 8013130:	d149      	bne.n	80131c6 <xQueueGenericSendFromISR+0xf6>
 8013132:	2401      	movs	r4, #1
 8013134:	e01a      	b.n	801316c <xQueueGenericSendFromISR+0x9c>
 8013136:	f7ff fc83 	bl	8012a40 <ulPortSetInterruptMask>
 801313a:	e7fe      	b.n	801313a <xQueueGenericSendFromISR+0x6a>
 801313c:	bb2e      	cbnz	r6, 801318a <xQueueGenericSendFromISR+0xba>
 801313e:	4639      	mov	r1, r7
 8013140:	68a0      	ldr	r0, [r4, #8]
 8013142:	f002 fb15 	bl	8015770 <memcpy>
 8013146:	68a1      	ldr	r1, [r4, #8]
 8013148:	6c23      	ldr	r3, [r4, #64]	; 0x40
 801314a:	6862      	ldr	r2, [r4, #4]
 801314c:	18c8      	adds	r0, r1, r3
 801314e:	4290      	cmp	r0, r2
 8013150:	60a0      	str	r0, [r4, #8]
 8013152:	d301      	bcc.n	8013158 <xQueueGenericSendFromISR+0x88>
 8013154:	6821      	ldr	r1, [r4, #0]
 8013156:	60a1      	str	r1, [r4, #8]
 8013158:	6ba3      	ldr	r3, [r4, #56]	; 0x38
 801315a:	1c5a      	adds	r2, r3, #1
 801315c:	63a2      	str	r2, [r4, #56]	; 0x38
 801315e:	6ca2      	ldr	r2, [r4, #72]	; 0x48
 8013160:	1c53      	adds	r3, r2, #1
 8013162:	d0e3      	beq.n	801312c <xQueueGenericSendFromISR+0x5c>
 8013164:	6ca1      	ldr	r1, [r4, #72]	; 0x48
 8013166:	1c4b      	adds	r3, r1, #1
 8013168:	64a3      	str	r3, [r4, #72]	; 0x48
 801316a:	2401      	movs	r4, #1
 801316c:	4640      	mov	r0, r8
 801316e:	f7ff fc97 	bl	8012aa0 <vPortClearInterruptMask>
 8013172:	4620      	mov	r0, r4
 8013174:	e8bd 81f0 	ldmia.w	sp!, {r4, r5, r6, r7, r8, pc}
 8013178:	f7ff fd58 	bl	8012c2c <vPortValidateInterruptPriority>
 801317c:	f7ff fc60 	bl	8012a40 <ulPortSetInterruptMask>
 8013180:	6ba2      	ldr	r2, [r4, #56]	; 0x38
 8013182:	6c22      	ldr	r2, [r4, #64]	; 0x40
 8013184:	4680      	mov	r8, r0
 8013186:	2a00      	cmp	r2, #0
 8013188:	d0c0      	beq.n	801310c <xQueueGenericSendFromISR+0x3c>
 801318a:	4639      	mov	r1, r7
 801318c:	68e0      	ldr	r0, [r4, #12]
 801318e:	f002 faef 	bl	8015770 <memcpy>
 8013192:	6c23      	ldr	r3, [r4, #64]	; 0x40
 8013194:	68e0      	ldr	r0, [r4, #12]
 8013196:	6821      	ldr	r1, [r4, #0]
 8013198:	425b      	negs	r3, r3
 801319a:	18c2      	adds	r2, r0, r3
 801319c:	428a      	cmp	r2, r1
 801319e:	60e2      	str	r2, [r4, #12]
 80131a0:	d202      	bcs.n	80131a8 <xQueueGenericSendFromISR+0xd8>
 80131a2:	6860      	ldr	r0, [r4, #4]
 80131a4:	18c1      	adds	r1, r0, r3
 80131a6:	60e1      	str	r1, [r4, #12]
 80131a8:	2e02      	cmp	r6, #2
 80131aa:	d1d5      	bne.n	8013158 <xQueueGenericSendFromISR+0x88>
 80131ac:	6ba3      	ldr	r3, [r4, #56]	; 0x38
 80131ae:	2b00      	cmp	r3, #0
 80131b0:	d0d2      	beq.n	8013158 <xQueueGenericSendFromISR+0x88>
 80131b2:	6ba2      	ldr	r2, [r4, #56]	; 0x38
 80131b4:	1e50      	subs	r0, r2, #1
 80131b6:	63a0      	str	r0, [r4, #56]	; 0x38
 80131b8:	e7ce      	b.n	8013158 <xQueueGenericSendFromISR+0x88>
 80131ba:	6c03      	ldr	r3, [r0, #64]	; 0x40
 80131bc:	2b00      	cmp	r3, #0
 80131be:	d090      	beq.n	80130e2 <xQueueGenericSendFromISR+0x12>
 80131c0:	f7ff fc3e 	bl	8012a40 <ulPortSetInterruptMask>
 80131c4:	e7fe      	b.n	80131c4 <xQueueGenericSendFromISR+0xf4>
 80131c6:	f104 0024 	add.w	r0, r4, #36	; 0x24
 80131ca:	f7fe ffff 	bl	80121cc <xTaskRemoveFromEventList>
 80131ce:	2800      	cmp	r0, #0
 80131d0:	d0af      	beq.n	8013132 <xQueueGenericSendFromISR+0x62>
 80131d2:	2401      	movs	r4, #1
 80131d4:	2d00      	cmp	r5, #0
 80131d6:	d0c9      	beq.n	801316c <xQueueGenericSendFromISR+0x9c>
 80131d8:	602c      	str	r4, [r5, #0]
 80131da:	e7c7      	b.n	801316c <xQueueGenericSendFromISR+0x9c>

080131dc <xQueueGenericReceive>:
 80131dc:	e92d 4ff0 	stmdb	sp!, {r4, r5, r6, r7, r8, r9, sl, fp, lr}
 80131e0:	b085      	sub	sp, #20
 80131e2:	4604      	mov	r4, r0
 80131e4:	4688      	mov	r8, r1
 80131e6:	9201      	str	r2, [sp, #4]
 80131e8:	469a      	mov	sl, r3
 80131ea:	2800      	cmp	r0, #0
 80131ec:	f000 80dd 	beq.w	80133aa <xQueueGenericReceive+0x1ce>
 80131f0:	2900      	cmp	r1, #0
 80131f2:	f000 810a 	beq.w	801340a <xQueueGenericReceive+0x22e>
 80131f6:	f7ff f875 	bl	80122e4 <xTaskGetSchedulerState>
 80131fa:	b918      	cbnz	r0, 8013204 <xQueueGenericReceive+0x28>
 80131fc:	9801      	ldr	r0, [sp, #4]
 80131fe:	2800      	cmp	r0, #0
 8013200:	f040 8100 	bne.w	8013404 <xQueueGenericReceive+0x228>
 8013204:	f7ff fc24 	bl	8012a50 <vPortEnterCritical>
 8013208:	6ba1      	ldr	r1, [r4, #56]	; 0x38
 801320a:	f04f 0b00 	mov.w	fp, #0
 801320e:	f04f 0900 	mov.w	r9, #0
 8013212:	f104 0524 	add.w	r5, r4, #36	; 0x24
 8013216:	f04f 37ff 	mov.w	r7, #4294967295
 801321a:	f104 0610 	add.w	r6, r4, #16
 801321e:	2900      	cmp	r1, #0
 8013220:	f040 8089 	bne.w	8013336 <xQueueGenericReceive+0x15a>
 8013224:	9a01      	ldr	r2, [sp, #4]
 8013226:	2a00      	cmp	r2, #0
 8013228:	f000 80d3 	beq.w	80133d2 <xQueueGenericReceive+0x1f6>
 801322c:	f1bb 0f00 	cmp.w	fp, #0
 8013230:	f000 80b7 	beq.w	80133a2 <xQueueGenericReceive+0x1c6>
 8013234:	f7ff fc38 	bl	8012aa8 <vPortExitCritical>
 8013238:	f7fe fd62 	bl	8011d00 <vTaskSuspendAll>
 801323c:	f7ff fc08 	bl	8012a50 <vPortEnterCritical>
 8013240:	6c63      	ldr	r3, [r4, #68]	; 0x44
 8013242:	3301      	adds	r3, #1
 8013244:	bf08      	it	eq
 8013246:	f8c4 9044 	streq.w	r9, [r4, #68]	; 0x44
 801324a:	6ca0      	ldr	r0, [r4, #72]	; 0x48
 801324c:	1c43      	adds	r3, r0, #1
 801324e:	bf08      	it	eq
 8013250:	f8c4 9048 	streq.w	r9, [r4, #72]	; 0x48
 8013254:	f7ff fc28 	bl	8012aa8 <vPortExitCritical>
 8013258:	a802      	add	r0, sp, #8
 801325a:	a901      	add	r1, sp, #4
 801325c:	f7ff f808 	bl	8012270 <xTaskCheckForTimeOut>
 8013260:	2800      	cmp	r0, #0
 8013262:	f040 80ad 	bne.w	80133c0 <xQueueGenericReceive+0x1e4>
 8013266:	f7ff fbf3 	bl	8012a50 <vPortEnterCritical>
 801326a:	6ba1      	ldr	r1, [r4, #56]	; 0x38
 801326c:	b1c1      	cbz	r1, 80132a0 <xQueueGenericReceive+0xc4>
 801326e:	f7ff fc1b 	bl	8012aa8 <vPortExitCritical>
 8013272:	f7ff fbed 	bl	8012a50 <vPortEnterCritical>
 8013276:	6ca2      	ldr	r2, [r4, #72]	; 0x48
 8013278:	2a00      	cmp	r2, #0
 801327a:	dc06      	bgt.n	801328a <xQueueGenericReceive+0xae>
 801327c:	e072      	b.n	8013364 <xQueueGenericReceive+0x188>
 801327e:	6ca0      	ldr	r0, [r4, #72]	; 0x48
 8013280:	1e41      	subs	r1, r0, #1
 8013282:	64a1      	str	r1, [r4, #72]	; 0x48
 8013284:	6ca2      	ldr	r2, [r4, #72]	; 0x48
 8013286:	2a00      	cmp	r2, #0
 8013288:	dd6c      	ble.n	8013364 <xQueueGenericReceive+0x188>
 801328a:	6a63      	ldr	r3, [r4, #36]	; 0x24
 801328c:	2b00      	cmp	r3, #0
 801328e:	d069      	beq.n	8013364 <xQueueGenericReceive+0x188>
 8013290:	4628      	mov	r0, r5
 8013292:	f7fe ff9b 	bl	80121cc <xTaskRemoveFromEventList>
 8013296:	2800      	cmp	r0, #0
 8013298:	d0f1      	beq.n	801327e <xQueueGenericReceive+0xa2>
 801329a:	f7ff f81b 	bl	80122d4 <vTaskMissedYield>
 801329e:	e7ee      	b.n	801327e <xQueueGenericReceive+0xa2>
 80132a0:	f7ff fc02 	bl	8012aa8 <vPortExitCritical>
 80132a4:	6820      	ldr	r0, [r4, #0]
 80132a6:	2800      	cmp	r0, #0
 80132a8:	f000 8082 	beq.w	80133b0 <xQueueGenericReceive+0x1d4>
 80132ac:	9901      	ldr	r1, [sp, #4]
 80132ae:	4628      	mov	r0, r5
 80132b0:	f7fe fef8 	bl	80120a4 <vTaskPlaceOnEventList>
 80132b4:	f7ff fbcc 	bl	8012a50 <vPortEnterCritical>
 80132b8:	6ca1      	ldr	r1, [r4, #72]	; 0x48
 80132ba:	2900      	cmp	r1, #0
 80132bc:	dc06      	bgt.n	80132cc <xQueueGenericReceive+0xf0>
 80132be:	e00f      	b.n	80132e0 <xQueueGenericReceive+0x104>
 80132c0:	6ca3      	ldr	r3, [r4, #72]	; 0x48
 80132c2:	1e58      	subs	r0, r3, #1
 80132c4:	64a0      	str	r0, [r4, #72]	; 0x48
 80132c6:	6ca1      	ldr	r1, [r4, #72]	; 0x48
 80132c8:	2900      	cmp	r1, #0
 80132ca:	dd09      	ble.n	80132e0 <xQueueGenericReceive+0x104>
 80132cc:	6a62      	ldr	r2, [r4, #36]	; 0x24
 80132ce:	b13a      	cbz	r2, 80132e0 <xQueueGenericReceive+0x104>
 80132d0:	4628      	mov	r0, r5
 80132d2:	f7fe ff7b 	bl	80121cc <xTaskRemoveFromEventList>
 80132d6:	2800      	cmp	r0, #0
 80132d8:	d0f2      	beq.n	80132c0 <xQueueGenericReceive+0xe4>
 80132da:	f7fe fffb 	bl	80122d4 <vTaskMissedYield>
 80132de:	e7ef      	b.n	80132c0 <xQueueGenericReceive+0xe4>
 80132e0:	64a7      	str	r7, [r4, #72]	; 0x48
 80132e2:	f7ff fbe1 	bl	8012aa8 <vPortExitCritical>
 80132e6:	f7ff fbb3 	bl	8012a50 <vPortEnterCritical>
 80132ea:	6c62      	ldr	r2, [r4, #68]	; 0x44
 80132ec:	2a00      	cmp	r2, #0
 80132ee:	dd12      	ble.n	8013316 <xQueueGenericReceive+0x13a>
 80132f0:	6923      	ldr	r3, [r4, #16]
 80132f2:	b943      	cbnz	r3, 8013306 <xQueueGenericReceive+0x12a>
 80132f4:	e00f      	b.n	8013316 <xQueueGenericReceive+0x13a>
 80132f6:	6c60      	ldr	r0, [r4, #68]	; 0x44
 80132f8:	1e41      	subs	r1, r0, #1
 80132fa:	6461      	str	r1, [r4, #68]	; 0x44
 80132fc:	6c62      	ldr	r2, [r4, #68]	; 0x44
 80132fe:	2a00      	cmp	r2, #0
 8013300:	dd09      	ble.n	8013316 <xQueueGenericReceive+0x13a>
 8013302:	6923      	ldr	r3, [r4, #16]
 8013304:	b13b      	cbz	r3, 8013316 <xQueueGenericReceive+0x13a>
 8013306:	4630      	mov	r0, r6
 8013308:	f7fe ff60 	bl	80121cc <xTaskRemoveFromEventList>
 801330c:	2800      	cmp	r0, #0
 801330e:	d0f2      	beq.n	80132f6 <xQueueGenericReceive+0x11a>
 8013310:	f7fe ffe0 	bl	80122d4 <vTaskMissedYield>
 8013314:	e7ef      	b.n	80132f6 <xQueueGenericReceive+0x11a>
 8013316:	6467      	str	r7, [r4, #68]	; 0x44
 8013318:	f7ff fbc6 	bl	8012aa8 <vPortExitCritical>
 801331c:	f7fe fdb8 	bl	8011e90 <xTaskResumeAll>
 8013320:	b908      	cbnz	r0, 8013326 <xQueueGenericReceive+0x14a>
 8013322:	f7ff fb81 	bl	8012a28 <vPortYield>
 8013326:	f7ff fb93 	bl	8012a50 <vPortEnterCritical>
 801332a:	6ba1      	ldr	r1, [r4, #56]	; 0x38
 801332c:	f04f 0b01 	mov.w	fp, #1
 8013330:	2900      	cmp	r1, #0
 8013332:	f43f af77 	beq.w	8013224 <xQueueGenericReceive+0x48>
 8013336:	4620      	mov	r0, r4
 8013338:	4641      	mov	r1, r8
 801333a:	68e5      	ldr	r5, [r4, #12]
 801333c:	f7ff fd32 	bl	8012da4 <prvCopyDataFromQueue>
 8013340:	f1ba 0f00 	cmp.w	sl, #0
 8013344:	d14a      	bne.n	80133dc <xQueueGenericReceive+0x200>
 8013346:	6ba1      	ldr	r1, [r4, #56]	; 0x38
 8013348:	6823      	ldr	r3, [r4, #0]
 801334a:	1e4a      	subs	r2, r1, #1
 801334c:	63a2      	str	r2, [r4, #56]	; 0x38
 801334e:	b913      	cbnz	r3, 8013356 <xQueueGenericReceive+0x17a>
 8013350:	f7ff f868 	bl	8012424 <pvTaskIncrementMutexHeldCount>
 8013354:	6060      	str	r0, [r4, #4]
 8013356:	6920      	ldr	r0, [r4, #16]
 8013358:	2800      	cmp	r0, #0
 801335a:	d14c      	bne.n	80133f6 <xQueueGenericReceive+0x21a>
 801335c:	f7ff fba4 	bl	8012aa8 <vPortExitCritical>
 8013360:	2001      	movs	r0, #1
 8013362:	e033      	b.n	80133cc <xQueueGenericReceive+0x1f0>
 8013364:	64a7      	str	r7, [r4, #72]	; 0x48
 8013366:	f7ff fb9f 	bl	8012aa8 <vPortExitCritical>
 801336a:	f7ff fb71 	bl	8012a50 <vPortEnterCritical>
 801336e:	6c63      	ldr	r3, [r4, #68]	; 0x44
 8013370:	2b00      	cmp	r3, #0
 8013372:	dc06      	bgt.n	8013382 <xQueueGenericReceive+0x1a6>
 8013374:	e00f      	b.n	8013396 <xQueueGenericReceive+0x1ba>
 8013376:	6c61      	ldr	r1, [r4, #68]	; 0x44
 8013378:	1e4a      	subs	r2, r1, #1
 801337a:	6462      	str	r2, [r4, #68]	; 0x44
 801337c:	6c63      	ldr	r3, [r4, #68]	; 0x44
 801337e:	2b00      	cmp	r3, #0
 8013380:	dd09      	ble.n	8013396 <xQueueGenericReceive+0x1ba>
 8013382:	6920      	ldr	r0, [r4, #16]
 8013384:	b138      	cbz	r0, 8013396 <xQueueGenericReceive+0x1ba>
 8013386:	4630      	mov	r0, r6
 8013388:	f7fe ff20 	bl	80121cc <xTaskRemoveFromEventList>
 801338c:	2800      	cmp	r0, #0
 801338e:	d0f2      	beq.n	8013376 <xQueueGenericReceive+0x19a>
 8013390:	f7fe ffa0 	bl	80122d4 <vTaskMissedYield>
 8013394:	e7ef      	b.n	8013376 <xQueueGenericReceive+0x19a>
 8013396:	6467      	str	r7, [r4, #68]	; 0x44
 8013398:	f7ff fb86 	bl	8012aa8 <vPortExitCritical>
 801339c:	f7fe fd78 	bl	8011e90 <xTaskResumeAll>
 80133a0:	e7c1      	b.n	8013326 <xQueueGenericReceive+0x14a>
 80133a2:	a802      	add	r0, sp, #8
 80133a4:	f7fe ff54 	bl	8012250 <vTaskSetTimeOutState>
 80133a8:	e744      	b.n	8013234 <xQueueGenericReceive+0x58>
 80133aa:	f7ff fb49 	bl	8012a40 <ulPortSetInterruptMask>
 80133ae:	e7fe      	b.n	80133ae <xQueueGenericReceive+0x1d2>
 80133b0:	f7ff fb4e 	bl	8012a50 <vPortEnterCritical>
 80133b4:	6860      	ldr	r0, [r4, #4]
 80133b6:	f7fe ffa5 	bl	8012304 <vTaskPriorityInherit>
 80133ba:	f7ff fb75 	bl	8012aa8 <vPortExitCritical>
 80133be:	e775      	b.n	80132ac <xQueueGenericReceive+0xd0>
 80133c0:	4620      	mov	r0, r4
 80133c2:	f7ff fcad 	bl	8012d20 <prvUnlockQueue>
 80133c6:	f7fe fd63 	bl	8011e90 <xTaskResumeAll>
 80133ca:	2000      	movs	r0, #0
 80133cc:	b005      	add	sp, #20
 80133ce:	e8bd 8ff0 	ldmia.w	sp!, {r4, r5, r6, r7, r8, r9, sl, fp, pc}
 80133d2:	9200      	str	r2, [sp, #0]
 80133d4:	f7ff fb68 	bl	8012aa8 <vPortExitCritical>
 80133d8:	9800      	ldr	r0, [sp, #0]
 80133da:	e7f7      	b.n	80133cc <xQueueGenericReceive+0x1f0>
 80133dc:	6a60      	ldr	r0, [r4, #36]	; 0x24
 80133de:	60e5      	str	r5, [r4, #12]
 80133e0:	2800      	cmp	r0, #0
 80133e2:	d0bb      	beq.n	801335c <xQueueGenericReceive+0x180>
 80133e4:	f104 0024 	add.w	r0, r4, #36	; 0x24
 80133e8:	f7fe fef0 	bl	80121cc <xTaskRemoveFromEventList>
 80133ec:	2800      	cmp	r0, #0
 80133ee:	d0b5      	beq.n	801335c <xQueueGenericReceive+0x180>
 80133f0:	f7ff fb1a 	bl	8012a28 <vPortYield>
 80133f4:	e7b2      	b.n	801335c <xQueueGenericReceive+0x180>
 80133f6:	f104 0010 	add.w	r0, r4, #16
 80133fa:	f7fe fee7 	bl	80121cc <xTaskRemoveFromEventList>
 80133fe:	2801      	cmp	r0, #1
 8013400:	d1ac      	bne.n	801335c <xQueueGenericReceive+0x180>
 8013402:	e7f5      	b.n	80133f0 <xQueueGenericReceive+0x214>
 8013404:	f7ff fb1c 	bl	8012a40 <ulPortSetInterruptMask>
 8013408:	e7fe      	b.n	8013408 <xQueueGenericReceive+0x22c>
 801340a:	6c03      	ldr	r3, [r0, #64]	; 0x40
 801340c:	2b00      	cmp	r3, #0
 801340e:	f43f aef2 	beq.w	80131f6 <xQueueGenericReceive+0x1a>
 8013412:	f7ff fb15 	bl	8012a40 <ulPortSetInterruptMask>
 8013416:	e7fe      	b.n	8013416 <xQueueGenericReceive+0x23a>

08013418 <xQueueReceiveFromISR>:
 8013418:	b5f8      	push	{r3, r4, r5, r6, r7, lr}
 801341a:	4604      	mov	r4, r0
 801341c:	460e      	mov	r6, r1
 801341e:	4615      	mov	r5, r2
 8013420:	b168      	cbz	r0, 801343e <xQueueReceiveFromISR+0x26>
 8013422:	b1f1      	cbz	r1, 8013462 <xQueueReceiveFromISR+0x4a>
 8013424:	f7ff fc02 	bl	8012c2c <vPortValidateInterruptPriority>
 8013428:	f7ff fb0a 	bl	8012a40 <ulPortSetInterruptMask>
 801342c:	4607      	mov	r7, r0
 801342e:	6ba0      	ldr	r0, [r4, #56]	; 0x38
 8013430:	b940      	cbnz	r0, 8013444 <xQueueReceiveFromISR+0x2c>
 8013432:	4604      	mov	r4, r0
 8013434:	4638      	mov	r0, r7
 8013436:	f7ff fb33 	bl	8012aa0 <vPortClearInterruptMask>
 801343a:	4620      	mov	r0, r4
 801343c:	bdf8      	pop	{r3, r4, r5, r6, r7, pc}
 801343e:	f7ff faff 	bl	8012a40 <ulPortSetInterruptMask>
 8013442:	e7fe      	b.n	8013442 <xQueueReceiveFromISR+0x2a>
 8013444:	4631      	mov	r1, r6
 8013446:	4620      	mov	r0, r4
 8013448:	f7ff fcac 	bl	8012da4 <prvCopyDataFromQueue>
 801344c:	6ba1      	ldr	r1, [r4, #56]	; 0x38
 801344e:	1e4a      	subs	r2, r1, #1
 8013450:	63a2      	str	r2, [r4, #56]	; 0x38
 8013452:	6c63      	ldr	r3, [r4, #68]	; 0x44
 8013454:	3301      	adds	r3, #1
 8013456:	d00a      	beq.n	801346e <xQueueReceiveFromISR+0x56>
 8013458:	6c60      	ldr	r0, [r4, #68]	; 0x44
 801345a:	1c41      	adds	r1, r0, #1
 801345c:	6461      	str	r1, [r4, #68]	; 0x44
 801345e:	2401      	movs	r4, #1
 8013460:	e7e8      	b.n	8013434 <xQueueReceiveFromISR+0x1c>
 8013462:	6c03      	ldr	r3, [r0, #64]	; 0x40
 8013464:	2b00      	cmp	r3, #0
 8013466:	d0dd      	beq.n	8013424 <xQueueReceiveFromISR+0xc>
 8013468:	f7ff faea 	bl	8012a40 <ulPortSetInterruptMask>
 801346c:	e7fe      	b.n	801346c <xQueueReceiveFromISR+0x54>
 801346e:	6922      	ldr	r2, [r4, #16]
 8013470:	2a00      	cmp	r2, #0
 8013472:	d0f4      	beq.n	801345e <xQueueReceiveFromISR+0x46>
 8013474:	f104 0010 	add.w	r0, r4, #16
 8013478:	f7fe fea8 	bl	80121cc <xTaskRemoveFromEventList>
 801347c:	2800      	cmp	r0, #0
 801347e:	d0ee      	beq.n	801345e <xQueueReceiveFromISR+0x46>
 8013480:	2d00      	cmp	r5, #0
 8013482:	d0ec      	beq.n	801345e <xQueueReceiveFromISR+0x46>
 8013484:	2401      	movs	r4, #1
 8013486:	602c      	str	r4, [r5, #0]
 8013488:	e7d4      	b.n	8013434 <xQueueReceiveFromISR+0x1c>
 801348a:	bf00      	nop

0801348c <vQueueAddToRegistry>:
 801348c:	4b13      	ldr	r3, [pc, #76]	; (80134dc <vQueueAddToRegistry+0x50>)
 801348e:	681a      	ldr	r2, [r3, #0]
 8013490:	b410      	push	{r4}
 8013492:	b182      	cbz	r2, 80134b6 <vQueueAddToRegistry+0x2a>
 8013494:	689a      	ldr	r2, [r3, #8]
 8013496:	b1a2      	cbz	r2, 80134c2 <vQueueAddToRegistry+0x36>
 8013498:	691a      	ldr	r2, [r3, #16]
 801349a:	b1a2      	cbz	r2, 80134c6 <vQueueAddToRegistry+0x3a>
 801349c:	699a      	ldr	r2, [r3, #24]
 801349e:	b1a2      	cbz	r2, 80134ca <vQueueAddToRegistry+0x3e>
 80134a0:	6a1a      	ldr	r2, [r3, #32]
 80134a2:	b1a2      	cbz	r2, 80134ce <vQueueAddToRegistry+0x42>
 80134a4:	6a9a      	ldr	r2, [r3, #40]	; 0x28
 80134a6:	b1a2      	cbz	r2, 80134d2 <vQueueAddToRegistry+0x46>
 80134a8:	6b1a      	ldr	r2, [r3, #48]	; 0x30
 80134aa:	b11a      	cbz	r2, 80134b4 <vQueueAddToRegistry+0x28>
 80134ac:	6b9a      	ldr	r2, [r3, #56]	; 0x38
 80134ae:	b192      	cbz	r2, 80134d6 <vQueueAddToRegistry+0x4a>
 80134b0:	bc10      	pop	{r4}
 80134b2:	4770      	bx	lr
 80134b4:	2206      	movs	r2, #6
 80134b6:	eb03 04c2 	add.w	r4, r3, r2, lsl #3
 80134ba:	f843 1032 	str.w	r1, [r3, r2, lsl #3]
 80134be:	6060      	str	r0, [r4, #4]
 80134c0:	e7f6      	b.n	80134b0 <vQueueAddToRegistry+0x24>
 80134c2:	2201      	movs	r2, #1
 80134c4:	e7f7      	b.n	80134b6 <vQueueAddToRegistry+0x2a>
 80134c6:	2202      	movs	r2, #2
 80134c8:	e7f5      	b.n	80134b6 <vQueueAddToRegistry+0x2a>
 80134ca:	2203      	movs	r2, #3
 80134cc:	e7f3      	b.n	80134b6 <vQueueAddToRegistry+0x2a>
 80134ce:	2204      	movs	r2, #4
 80134d0:	e7f1      	b.n	80134b6 <vQueueAddToRegistry+0x2a>
 80134d2:	2205      	movs	r2, #5
 80134d4:	e7ef      	b.n	80134b6 <vQueueAddToRegistry+0x2a>
 80134d6:	2207      	movs	r2, #7
 80134d8:	e7ed      	b.n	80134b6 <vQueueAddToRegistry+0x2a>
 80134da:	bf00      	nop
 80134dc:	10000e6c 	.word	0x10000e6c

080134e0 <vQueueWaitForMessageRestricted>:
 80134e0:	b538      	push	{r3, r4, r5, lr}
 80134e2:	4604      	mov	r4, r0
 80134e4:	460d      	mov	r5, r1
 80134e6:	f7ff fab3 	bl	8012a50 <vPortEnterCritical>
 80134ea:	6c63      	ldr	r3, [r4, #68]	; 0x44
 80134ec:	3301      	adds	r3, #1
 80134ee:	d04e      	beq.n	801358e <vQueueWaitForMessageRestricted+0xae>
 80134f0:	6ca1      	ldr	r1, [r4, #72]	; 0x48
 80134f2:	1c4b      	adds	r3, r1, #1
 80134f4:	d048      	beq.n	8013588 <vQueueWaitForMessageRestricted+0xa8>
 80134f6:	f7ff fad7 	bl	8012aa8 <vPortExitCritical>
 80134fa:	6ba3      	ldr	r3, [r4, #56]	; 0x38
 80134fc:	b923      	cbnz	r3, 8013508 <vQueueWaitForMessageRestricted+0x28>
 80134fe:	f104 0024 	add.w	r0, r4, #36	; 0x24
 8013502:	4629      	mov	r1, r5
 8013504:	f7fe fe1e 	bl	8012144 <vTaskPlaceOnEventListRestricted>
 8013508:	f7ff faa2 	bl	8012a50 <vPortEnterCritical>
 801350c:	6ca0      	ldr	r0, [r4, #72]	; 0x48
 801350e:	2800      	cmp	r0, #0
 8013510:	dd14      	ble.n	801353c <vQueueWaitForMessageRestricted+0x5c>
 8013512:	6a61      	ldr	r1, [r4, #36]	; 0x24
 8013514:	b191      	cbz	r1, 801353c <vQueueWaitForMessageRestricted+0x5c>
 8013516:	f104 0524 	add.w	r5, r4, #36	; 0x24
 801351a:	e007      	b.n	801352c <vQueueWaitForMessageRestricted+0x4c>
 801351c:	6ca2      	ldr	r2, [r4, #72]	; 0x48
 801351e:	1e53      	subs	r3, r2, #1
 8013520:	64a3      	str	r3, [r4, #72]	; 0x48
 8013522:	6ca0      	ldr	r0, [r4, #72]	; 0x48
 8013524:	2800      	cmp	r0, #0
 8013526:	dd09      	ble.n	801353c <vQueueWaitForMessageRestricted+0x5c>
 8013528:	6a61      	ldr	r1, [r4, #36]	; 0x24
 801352a:	b139      	cbz	r1, 801353c <vQueueWaitForMessageRestricted+0x5c>
 801352c:	4628      	mov	r0, r5
 801352e:	f7fe fe4d 	bl	80121cc <xTaskRemoveFromEventList>
 8013532:	2800      	cmp	r0, #0
 8013534:	d0f2      	beq.n	801351c <vQueueWaitForMessageRestricted+0x3c>
 8013536:	f7fe fecd 	bl	80122d4 <vTaskMissedYield>
 801353a:	e7ef      	b.n	801351c <vQueueWaitForMessageRestricted+0x3c>
 801353c:	f04f 32ff 	mov.w	r2, #4294967295
 8013540:	64a2      	str	r2, [r4, #72]	; 0x48
 8013542:	f7ff fab1 	bl	8012aa8 <vPortExitCritical>
 8013546:	f7ff fa83 	bl	8012a50 <vPortEnterCritical>
 801354a:	6c63      	ldr	r3, [r4, #68]	; 0x44
 801354c:	2b00      	cmp	r3, #0
 801354e:	dd14      	ble.n	801357a <vQueueWaitForMessageRestricted+0x9a>
 8013550:	6920      	ldr	r0, [r4, #16]
 8013552:	b190      	cbz	r0, 801357a <vQueueWaitForMessageRestricted+0x9a>
 8013554:	f104 0510 	add.w	r5, r4, #16
 8013558:	e007      	b.n	801356a <vQueueWaitForMessageRestricted+0x8a>
 801355a:	6c61      	ldr	r1, [r4, #68]	; 0x44
 801355c:	1e4a      	subs	r2, r1, #1
 801355e:	6462      	str	r2, [r4, #68]	; 0x44
 8013560:	6c63      	ldr	r3, [r4, #68]	; 0x44
 8013562:	2b00      	cmp	r3, #0
 8013564:	dd09      	ble.n	801357a <vQueueWaitForMessageRestricted+0x9a>
 8013566:	6920      	ldr	r0, [r4, #16]
 8013568:	b138      	cbz	r0, 801357a <vQueueWaitForMessageRestricted+0x9a>
 801356a:	4628      	mov	r0, r5
 801356c:	f7fe fe2e 	bl	80121cc <xTaskRemoveFromEventList>
 8013570:	2800      	cmp	r0, #0
 8013572:	d0f2      	beq.n	801355a <vQueueWaitForMessageRestricted+0x7a>
 8013574:	f7fe feae 	bl	80122d4 <vTaskMissedYield>
 8013578:	e7ef      	b.n	801355a <vQueueWaitForMessageRestricted+0x7a>
 801357a:	f04f 31ff 	mov.w	r1, #4294967295
 801357e:	6461      	str	r1, [r4, #68]	; 0x44
 8013580:	e8bd 4038 	ldmia.w	sp!, {r3, r4, r5, lr}
 8013584:	f7ff ba90 	b.w	8012aa8 <vPortExitCritical>
 8013588:	2200      	movs	r2, #0
 801358a:	64a2      	str	r2, [r4, #72]	; 0x48
 801358c:	e7b3      	b.n	80134f6 <vQueueWaitForMessageRestricted+0x16>
 801358e:	2000      	movs	r0, #0
 8013590:	6460      	str	r0, [r4, #68]	; 0x44
 8013592:	e7ad      	b.n	80134f0 <vQueueWaitForMessageRestricted+0x10>

08013594 <_Z9osd_setupv>:
 8013594:	e92d 4ff0 	stmdb	sp!, {r4, r5, r6, r7, r8, r9, sl, fp, lr}
 8013598:	f44f 5160 	mov.w	r1, #14336	; 0x3800
 801359c:	b089      	sub	sp, #36	; 0x24
 801359e:	f2c4 0102 	movt	r1, #16386	; 0x4002
 80135a2:	f44f 7040 	mov.w	r0, #768	; 0x300
 80135a6:	9101      	str	r1, [sp, #4]
 80135a8:	f000 ff88 	bl	80144bc <NVIC_PriorityGroupConfig>
 80135ac:	f000 ff62 	bl	8014474 <_ZN6detail10setup_ledsEv>
 80135b0:	9a01      	ldr	r2, [sp, #4]
 80135b2:	49e0      	ldr	r1, [pc, #896]	; (8013934 <_Z9osd_setupv+0x3a0>)
 80135b4:	6b13      	ldr	r3, [r2, #48]	; 0x30
 80135b6:	9c01      	ldr	r4, [sp, #4]
 80135b8:	48df      	ldr	r0, [pc, #892]	; (8013938 <_Z9osd_setupv+0x3a4>)
 80135ba:	1d0e      	adds	r6, r1, #4
 80135bc:	f043 0501 	orr.w	r5, r3, #1
 80135c0:	6325      	str	r5, [r4, #48]	; 0x30
 80135c2:	f856 3b04 	ldr.w	r3, [r6], #4
 80135c6:	68cd      	ldr	r5, [r1, #12]
 80135c8:	6832      	ldr	r2, [r6, #0]
 80135ca:	6a0e      	ldr	r6, [r1, #32]
 80135cc:	9605      	str	r6, [sp, #20]
 80135ce:	6a4e      	ldr	r6, [r1, #36]	; 0x24
 80135d0:	f101 0710 	add.w	r7, r1, #16
 80135d4:	9602      	str	r6, [sp, #8]
 80135d6:	6a8e      	ldr	r6, [r1, #40]	; 0x28
 80135d8:	6ac9      	ldr	r1, [r1, #44]	; 0x2c
 80135da:	9606      	str	r6, [sp, #24]
 80135dc:	e897 1190 	ldmia.w	r7, {r4, r7, r8, ip}
 80135e0:	9107      	str	r1, [sp, #28]
 80135e2:	ea4f 0a42 	mov.w	sl, r2, lsl #1
 80135e6:	2103      	movs	r1, #3
 80135e8:	fa01 fe0a 	lsl.w	lr, r1, sl
 80135ec:	ea4f 0b43 	mov.w	fp, r3, lsl #1
 80135f0:	fa01 f30b 	lsl.w	r3, r1, fp
 80135f4:	ea6f 020e 	mvn.w	r2, lr
 80135f8:	006d      	lsls	r5, r5, #1
 80135fa:	ea22 0603 	bic.w	r6, r2, r3
 80135fe:	2201      	movs	r2, #1
 8013600:	0064      	lsls	r4, r4, #1
 8013602:	fa01 f305 	lsl.w	r3, r1, r5
 8013606:	fa08 f802 	lsl.w	r8, r8, r2
 801360a:	f8cd 800c 	str.w	r8, [sp, #12]
 801360e:	fa07 f702 	lsl.w	r7, r7, r2
 8013612:	ea26 0903 	bic.w	r9, r6, r3
 8013616:	fa01 f604 	lsl.w	r6, r1, r4
 801361a:	ea29 0e06 	bic.w	lr, r9, r6
 801361e:	fa01 f607 	lsl.w	r6, r1, r7
 8013622:	f8dd 900c 	ldr.w	r9, [sp, #12]
 8013626:	ea2e 0e06 	bic.w	lr, lr, r6
 801362a:	9e05      	ldr	r6, [sp, #20]
 801362c:	fa02 f80a 	lsl.w	r8, r2, sl
 8013630:	fa0c fc02 	lsl.w	ip, ip, r2
 8013634:	fa01 f909 	lsl.w	r9, r1, r9
 8013638:	f8cd 9000 	str.w	r9, [sp]
 801363c:	f8cd c010 	str.w	ip, [sp, #16]
 8013640:	4096      	lsls	r6, r2
 8013642:	fa02 fc0b 	lsl.w	ip, r2, fp
 8013646:	ea6f 0808 	mvn.w	r8, r8
 801364a:	9605      	str	r6, [sp, #20]
 801364c:	ea28 080c 	bic.w	r8, r8, ip
 8013650:	9e04      	ldr	r6, [sp, #16]
 8013652:	f8dd c000 	ldr.w	ip, [sp]
 8013656:	ea2e 0e0c 	bic.w	lr, lr, ip
 801365a:	fa01 fc06 	lsl.w	ip, r1, r6
 801365e:	9e02      	ldr	r6, [sp, #8]
 8013660:	2302      	movs	r3, #2
 8013662:	4096      	lsls	r6, r2
 8013664:	9600      	str	r6, [sp, #0]
 8013666:	fa03 fb0b 	lsl.w	fp, r3, fp
 801366a:	fa03 fa0a 	lsl.w	sl, r3, sl
 801366e:	2600      	movs	r6, #0
 8013670:	fa02 f905 	lsl.w	r9, r2, r5
 8013674:	ea4b 0a0a 	orr.w	sl, fp, sl
 8013678:	f2c4 0602 	movt	r6, #16386	; 0x4002
 801367c:	fa03 fb05 	lsl.w	fp, r3, r5
 8013680:	9d05      	ldr	r5, [sp, #20]
 8013682:	9602      	str	r6, [sp, #8]
 8013684:	ea28 0809 	bic.w	r8, r8, r9
 8013688:	9e07      	ldr	r6, [sp, #28]
 801368a:	fa02 f904 	lsl.w	r9, r2, r4
 801368e:	ea4a 0a0b 	orr.w	sl, sl, fp
 8013692:	fa03 fb04 	lsl.w	fp, r3, r4
 8013696:	9c00      	ldr	r4, [sp, #0]
 8013698:	ea2e 0e0c 	bic.w	lr, lr, ip
 801369c:	fa01 fc05 	lsl.w	ip, r1, r5
 80136a0:	ea28 0809 	bic.w	r8, r8, r9
 80136a4:	ea2e 0e0c 	bic.w	lr, lr, ip
 80136a8:	fa02 f907 	lsl.w	r9, r2, r7
 80136ac:	fa01 fc04 	lsl.w	ip, r1, r4
 80136b0:	ea4a 0a0b 	orr.w	sl, sl, fp
 80136b4:	fa06 f402 	lsl.w	r4, r6, r2
 80136b8:	fa03 fb07 	lsl.w	fp, r3, r7
 80136bc:	9e02      	ldr	r6, [sp, #8]
 80136be:	9f03      	ldr	r7, [sp, #12]
 80136c0:	9d06      	ldr	r5, [sp, #24]
 80136c2:	ea4a 0a0b 	orr.w	sl, sl, fp
 80136c6:	f8dd b00c 	ldr.w	fp, [sp, #12]
 80136ca:	ea28 0809 	bic.w	r8, r8, r9
 80136ce:	fa02 f907 	lsl.w	r9, r2, r7
 80136d2:	6837      	ldr	r7, [r6, #0]
 80136d4:	9e04      	ldr	r6, [sp, #16]
 80136d6:	fa05 f502 	lsl.w	r5, r5, r2
 80136da:	fa03 fb0b 	lsl.w	fp, r3, fp
 80136de:	ea2e 0e0c 	bic.w	lr, lr, ip
 80136e2:	ea28 0809 	bic.w	r8, r8, r9
 80136e6:	fa01 fc05 	lsl.w	ip, r1, r5
 80136ea:	fa02 f906 	lsl.w	r9, r2, r6
 80136ee:	ea4a 0a0b 	orr.w	sl, sl, fp
 80136f2:	fa03 fb06 	lsl.w	fp, r3, r6
 80136f6:	9e05      	ldr	r6, [sp, #20]
 80136f8:	ea2e 0e0c 	bic.w	lr, lr, ip
 80136fc:	fa01 fc04 	lsl.w	ip, r1, r4
 8013700:	ea2e 0e0c 	bic.w	lr, lr, ip
 8013704:	ea4a 0a0b 	orr.w	sl, sl, fp
 8013708:	f8dd c000 	ldr.w	ip, [sp]
 801370c:	fa03 fb06 	lsl.w	fp, r3, r6
 8013710:	ea28 0809 	bic.w	r8, r8, r9
 8013714:	fa02 f906 	lsl.w	r9, r2, r6
 8013718:	9e02      	ldr	r6, [sp, #8]
 801371a:	ea0e 0707 	and.w	r7, lr, r7
 801371e:	6037      	str	r7, [r6, #0]
 8013720:	ea4a 0e0b 	orr.w	lr, sl, fp
 8013724:	ea28 0809 	bic.w	r8, r8, r9
 8013728:	f8dd b008 	ldr.w	fp, [sp, #8]
 801372c:	fa02 f90c 	lsl.w	r9, r2, ip
 8013730:	fa03 f60c 	lsl.w	r6, r3, ip
 8013734:	ea28 0809 	bic.w	r8, r8, r9
 8013738:	fa02 fc05 	lsl.w	ip, r2, r5
 801373c:	f8db 700c 	ldr.w	r7, [fp, #12]
 8013740:	ea4e 0a06 	orr.w	sl, lr, r6
 8013744:	ea28 090c 	bic.w	r9, r8, ip
 8013748:	fa02 fe04 	lsl.w	lr, r2, r4
 801374c:	fa03 f505 	lsl.w	r5, r3, r5
 8013750:	ea29 080e 	bic.w	r8, r9, lr
 8013754:	ea4a 0605 	orr.w	r6, sl, r5
 8013758:	fa03 f404 	lsl.w	r4, r3, r4
 801375c:	4326      	orrs	r6, r4
 801375e:	ea08 0707 	and.w	r7, r8, r7
 8013762:	f8dd c004 	ldr.w	ip, [sp, #4]
 8013766:	4337      	orrs	r7, r6
 8013768:	f8cb 700c 	str.w	r7, [fp, #12]
 801376c:	f8dc 6030 	ldr.w	r6, [ip, #48]	; 0x30
 8013770:	1d05      	adds	r5, r0, #4
 8013772:	431e      	orrs	r6, r3
 8013774:	f8cc 6030 	str.w	r6, [ip, #48]	; 0x30
 8013778:	f855 bb04 	ldr.w	fp, [r5], #4
 801377c:	f8d0 8018 	ldr.w	r8, [r0, #24]
 8013780:	f8d5 a000 	ldr.w	sl, [r5]
 8013784:	69c5      	ldr	r5, [r0, #28]
 8013786:	68c4      	ldr	r4, [r0, #12]
 8013788:	9504      	str	r5, [sp, #16]
 801378a:	fa0a fa02 	lsl.w	sl, sl, r2
 801378e:	6a45      	ldr	r5, [r0, #36]	; 0x24
 8013790:	6907      	ldr	r7, [r0, #16]
 8013792:	6946      	ldr	r6, [r0, #20]
 8013794:	f8d0 9020 	ldr.w	r9, [r0, #32]
 8013798:	6a80      	ldr	r0, [r0, #40]	; 0x28
 801379a:	9506      	str	r5, [sp, #24]
 801379c:	fa0b fb02 	lsl.w	fp, fp, r2
 80137a0:	fa01 fe0a 	lsl.w	lr, r1, sl
 80137a4:	fa04 f402 	lsl.w	r4, r4, r2
 80137a8:	9007      	str	r0, [sp, #28]
 80137aa:	fa01 f50b 	lsl.w	r5, r1, fp
 80137ae:	ea6f 000e 	mvn.w	r0, lr
 80137b2:	fa07 f702 	lsl.w	r7, r7, r2
 80137b6:	ea20 0c05 	bic.w	ip, r0, r5
 80137ba:	fa01 f504 	lsl.w	r5, r1, r4
 80137be:	fa06 f602 	lsl.w	r6, r6, r2
 80137c2:	fa01 f007 	lsl.w	r0, r1, r7
 80137c6:	ea2c 0e05 	bic.w	lr, ip, r5
 80137ca:	9600      	str	r6, [sp, #0]
 80137cc:	ea2e 0e00 	bic.w	lr, lr, r0
 80137d0:	fa01 f006 	lsl.w	r0, r1, r6
 80137d4:	9e04      	ldr	r6, [sp, #16]
 80137d6:	fa08 fc02 	lsl.w	ip, r8, r2
 80137da:	4096      	lsls	r6, r2
 80137dc:	fa02 f50b 	lsl.w	r5, r2, fp
 80137e0:	fa02 f80a 	lsl.w	r8, r2, sl
 80137e4:	fa03 fb0b 	lsl.w	fp, r3, fp
 80137e8:	fa03 fa0a 	lsl.w	sl, r3, sl
 80137ec:	f8cd c00c 	str.w	ip, [sp, #12]
 80137f0:	9604      	str	r6, [sp, #16]
 80137f2:	fa09 f902 	lsl.w	r9, r9, r2
 80137f6:	ea2e 0e00 	bic.w	lr, lr, r0
 80137fa:	ea4b 0a0a 	orr.w	sl, fp, sl
 80137fe:	fa01 f00c 	lsl.w	r0, r1, ip
 8013802:	fa03 fb04 	lsl.w	fp, r3, r4
 8013806:	fa01 fc06 	lsl.w	ip, r1, r6
 801380a:	9e06      	ldr	r6, [sp, #24]
 801380c:	f8cd 9014 	str.w	r9, [sp, #20]
 8013810:	ea4a 0a0b 	orr.w	sl, sl, fp
 8013814:	ea6f 0808 	mvn.w	r8, r8
 8013818:	fa03 fb07 	lsl.w	fp, r3, r7
 801381c:	fa02 f904 	lsl.w	r9, r2, r4
 8013820:	ea28 0805 	bic.w	r8, r8, r5
 8013824:	9c05      	ldr	r4, [sp, #20]
 8013826:	fa06 f502 	lsl.w	r5, r6, r2
 801382a:	ea4a 0a0b 	orr.w	sl, sl, fp
 801382e:	9e07      	ldr	r6, [sp, #28]
 8013830:	f8dd b000 	ldr.w	fp, [sp]
 8013834:	ea2e 0e00 	bic.w	lr, lr, r0
 8013838:	ea28 0809 	bic.w	r8, r8, r9
 801383c:	fa02 f907 	lsl.w	r9, r2, r7
 8013840:	9f00      	ldr	r7, [sp, #0]
 8013842:	ea2e 0e0c 	bic.w	lr, lr, ip
 8013846:	fa01 fc04 	lsl.w	ip, r1, r4
 801384a:	fa06 f402 	lsl.w	r4, r6, r2
 801384e:	fa03 f60b 	lsl.w	r6, r3, fp
 8013852:	f8dd b00c 	ldr.w	fp, [sp, #12]
 8013856:	ea28 0809 	bic.w	r8, r8, r9
 801385a:	ea2e 0e0c 	bic.w	lr, lr, ip
 801385e:	fa02 f907 	lsl.w	r9, r2, r7
 8013862:	fa01 fc05 	lsl.w	ip, r1, r5
 8013866:	f44f 6080 	mov.w	r0, #1024	; 0x400
 801386a:	f2c4 0002 	movt	r0, #16386	; 0x4002
 801386e:	ea28 0809 	bic.w	r8, r8, r9
 8013872:	ea2e 0e0c 	bic.w	lr, lr, ip
 8013876:	fa02 f90b 	lsl.w	r9, r2, fp
 801387a:	fa01 fc04 	lsl.w	ip, r1, r4
 801387e:	ea4a 0a06 	orr.w	sl, sl, r6
 8013882:	fa03 f60b 	lsl.w	r6, r3, fp
 8013886:	f8dd b010 	ldr.w	fp, [sp, #16]
 801388a:	6807      	ldr	r7, [r0, #0]
 801388c:	ea2e 0e0c 	bic.w	lr, lr, ip
 8013890:	f8dd c014 	ldr.w	ip, [sp, #20]
 8013894:	ea28 0809 	bic.w	r8, r8, r9
 8013898:	fa02 f90b 	lsl.w	r9, r2, fp
 801389c:	ea4a 0a06 	orr.w	sl, sl, r6
 80138a0:	ea28 0809 	bic.w	r8, r8, r9
 80138a4:	fa03 f60b 	lsl.w	r6, r3, fp
 80138a8:	fa02 fb0c 	lsl.w	fp, r2, ip
 80138ac:	fa02 f905 	lsl.w	r9, r2, r5
 80138b0:	ea0e 0707 	and.w	r7, lr, r7
 80138b4:	ea4a 0e06 	orr.w	lr, sl, r6
 80138b8:	ea28 0a0b 	bic.w	sl, r8, fp
 80138bc:	fa03 f60c 	lsl.w	r6, r3, ip
 80138c0:	6007      	str	r7, [r0, #0]
 80138c2:	ea2a 0809 	bic.w	r8, sl, r9
 80138c6:	68c7      	ldr	r7, [r0, #12]
 80138c8:	fa02 fc04 	lsl.w	ip, r2, r4
 80138cc:	fa03 f505 	lsl.w	r5, r3, r5
 80138d0:	ea4e 0606 	orr.w	r6, lr, r6
 80138d4:	ea28 0b0c 	bic.w	fp, r8, ip
 80138d8:	fa03 f404 	lsl.w	r4, r3, r4
 80138dc:	432e      	orrs	r6, r5
 80138de:	4326      	orrs	r6, r4
 80138e0:	ea0b 0707 	and.w	r7, fp, r7
 80138e4:	9d01      	ldr	r5, [sp, #4]
 80138e6:	4c15      	ldr	r4, [pc, #84]	; (801393c <_Z9osd_setupv+0x3a8>)
 80138e8:	f8df e050 	ldr.w	lr, [pc, #80]	; 801393c <_Z9osd_setupv+0x3a8>
 80138ec:	4337      	orrs	r7, r6
 80138ee:	60c7      	str	r7, [r0, #12]
 80138f0:	6b2e      	ldr	r6, [r5, #48]	; 0x30
 80138f2:	f046 0704 	orr.w	r7, r6, #4
 80138f6:	9e01      	ldr	r6, [sp, #4]
 80138f8:	1d25      	adds	r5, r4, #4
 80138fa:	6337      	str	r7, [r6, #48]	; 0x30
 80138fc:	f855 4b04 	ldr.w	r4, [r5], #4
 8013900:	f8de 700c 	ldr.w	r7, [lr, #12]
 8013904:	f8d5 a000 	ldr.w	sl, [r5]
 8013908:	f8de 501c 	ldr.w	r5, [lr, #28]
 801390c:	f8de 9020 	ldr.w	r9, [lr, #32]
 8013910:	9506      	str	r5, [sp, #24]
 8013912:	4d0a      	ldr	r5, [pc, #40]	; (801393c <_Z9osd_setupv+0x3a8>)
 8013914:	f8de 8010 	ldr.w	r8, [lr, #16]
 8013918:	6a6d      	ldr	r5, [r5, #36]	; 0x24
 801391a:	f8de c014 	ldr.w	ip, [lr, #20]
 801391e:	f8de 6018 	ldr.w	r6, [lr, #24]
 8013922:	9507      	str	r5, [sp, #28]
 8013924:	fa0a fa02 	lsl.w	sl, sl, r2
 8013928:	fa04 fb02 	lsl.w	fp, r4, r2
 801392c:	fa01 fe0a 	lsl.w	lr, r1, sl
 8013930:	e006      	b.n	8013940 <_Z9osd_setupv+0x3ac>
 8013932:	bf00      	nop
 8013934:	0801b1a4 	.word	0x0801b1a4
 8013938:	0801b1d0 	.word	0x0801b1d0
 801393c:	0801b180 	.word	0x0801b180
 8013940:	fa01 f40b 	lsl.w	r4, r1, fp
 8013944:	fa07 f702 	lsl.w	r7, r7, r2
 8013948:	ea6f 050e 	mvn.w	r5, lr
 801394c:	9700      	str	r7, [sp, #0]
 801394e:	fa08 f802 	lsl.w	r8, r8, r2
 8013952:	ea25 0e04 	bic.w	lr, r5, r4
 8013956:	fa01 f707 	lsl.w	r7, r1, r7
 801395a:	fa06 f602 	lsl.w	r6, r6, r2
 801395e:	9605      	str	r6, [sp, #20]
 8013960:	fa01 f408 	lsl.w	r4, r1, r8
 8013964:	9e06      	ldr	r6, [sp, #24]
 8013966:	f8cd 800c 	str.w	r8, [sp, #12]
 801396a:	ea2e 0507 	bic.w	r5, lr, r7
 801396e:	fa0c fc02 	lsl.w	ip, ip, r2
 8013972:	ea25 0e04 	bic.w	lr, r5, r4
 8013976:	9d05      	ldr	r5, [sp, #20]
 8013978:	f8cd c010 	str.w	ip, [sp, #16]
 801397c:	fa01 f70c 	lsl.w	r7, r1, ip
 8013980:	4096      	lsls	r6, r2
 8013982:	9606      	str	r6, [sp, #24]
 8013984:	ea2e 0e07 	bic.w	lr, lr, r7
 8013988:	fa01 f705 	lsl.w	r7, r1, r5
 801398c:	fa02 f80a 	lsl.w	r8, r2, sl
 8013990:	9d06      	ldr	r5, [sp, #24]
 8013992:	ea2e 0e07 	bic.w	lr, lr, r7
 8013996:	9f07      	ldr	r7, [sp, #28]
 8013998:	fa09 f602 	lsl.w	r6, r9, r2
 801399c:	fa02 fc0b 	lsl.w	ip, r2, fp
 80139a0:	f8dd 9000 	ldr.w	r9, [sp]
 80139a4:	ea6f 0808 	mvn.w	r8, r8
 80139a8:	f44f 6400 	mov.w	r4, #2048	; 0x800
 80139ac:	f2c4 0402 	movt	r4, #16386	; 0x4002
 80139b0:	fa03 fb0b 	lsl.w	fp, r3, fp
 80139b4:	ea28 080c 	bic.w	r8, r8, ip
 80139b8:	fa03 fa0a 	lsl.w	sl, r3, sl
 80139bc:	fa01 fc05 	lsl.w	ip, r1, r5
 80139c0:	fa07 f502 	lsl.w	r5, r7, r2
 80139c4:	9f03      	ldr	r7, [sp, #12]
 80139c6:	fa02 f909 	lsl.w	r9, r2, r9
 80139ca:	ea4b 0a0a 	orr.w	sl, fp, sl
 80139ce:	f8dd b000 	ldr.w	fp, [sp]
 80139d2:	ea28 0809 	bic.w	r8, r8, r9
 80139d6:	fa02 f907 	lsl.w	r9, r2, r7
 80139da:	6827      	ldr	r7, [r4, #0]
 80139dc:	fa03 fb0b 	lsl.w	fp, r3, fp
 80139e0:	9707      	str	r7, [sp, #28]
 80139e2:	ea2e 0e0c 	bic.w	lr, lr, ip
 80139e6:	9f04      	ldr	r7, [sp, #16]
 80139e8:	fa01 fc06 	lsl.w	ip, r1, r6
 80139ec:	ea4a 0a0b 	orr.w	sl, sl, fp
 80139f0:	f8dd b00c 	ldr.w	fp, [sp, #12]
 80139f4:	ea2e 0e0c 	bic.w	lr, lr, ip
 80139f8:	f8dd c014 	ldr.w	ip, [sp, #20]
 80139fc:	fa03 fb0b 	lsl.w	fp, r3, fp
 8013a00:	ea28 0809 	bic.w	r8, r8, r9
 8013a04:	fa02 f907 	lsl.w	r9, r2, r7
 8013a08:	fa01 f105 	lsl.w	r1, r1, r5
 8013a0c:	ea4a 0a0b 	orr.w	sl, sl, fp
 8013a10:	ea28 0809 	bic.w	r8, r8, r9
 8013a14:	fa03 fb07 	lsl.w	fp, r3, r7
 8013a18:	fa02 f70c 	lsl.w	r7, r2, ip
 8013a1c:	ea2e 0e01 	bic.w	lr, lr, r1
 8013a20:	ea28 0807 	bic.w	r8, r8, r7
 8013a24:	9906      	ldr	r1, [sp, #24]
 8013a26:	9f07      	ldr	r7, [sp, #28]
 8013a28:	fa02 f901 	lsl.w	r9, r2, r1
 8013a2c:	ea0e 0107 	and.w	r1, lr, r7
 8013a30:	6021      	str	r1, [r4, #0]
 8013a32:	9f06      	ldr	r7, [sp, #24]
 8013a34:	68e1      	ldr	r1, [r4, #12]
 8013a36:	ea4a 0a0b 	orr.w	sl, sl, fp
 8013a3a:	fa03 fb0c 	lsl.w	fp, r3, ip
 8013a3e:	ea4a 0c0b 	orr.w	ip, sl, fp
 8013a42:	ea28 0e09 	bic.w	lr, r8, r9
 8013a46:	fa03 fa07 	lsl.w	sl, r3, r7
 8013a4a:	fa02 f806 	lsl.w	r8, r2, r6
 8013a4e:	ea4c 0a0a 	orr.w	sl, ip, sl
 8013a52:	ea2e 0808 	bic.w	r8, lr, r8
 8013a56:	fa03 f606 	lsl.w	r6, r3, r6
 8013a5a:	fa02 f205 	lsl.w	r2, r2, r5
 8013a5e:	ea28 0202 	bic.w	r2, r8, r2
 8013a62:	ea4a 0606 	orr.w	r6, sl, r6
 8013a66:	fa03 f305 	lsl.w	r3, r3, r5
 8013a6a:	ea46 0503 	orr.w	r5, r6, r3
 8013a6e:	ea02 0301 	and.w	r3, r2, r1
 8013a72:	f8dd 9004 	ldr.w	r9, [sp, #4]
 8013a76:	432b      	orrs	r3, r5
 8013a78:	60e3      	str	r3, [r4, #12]
 8013a7a:	f8d9 1030 	ldr.w	r1, [r9, #48]	; 0x30
 8013a7e:	f041 0202 	orr.w	r2, r1, #2
 8013a82:	f8c9 2030 	str.w	r2, [r9, #48]	; 0x30
 8013a86:	6803      	ldr	r3, [r0, #0]
 8013a88:	f043 0103 	orr.w	r1, r3, #3
 8013a8c:	6001      	str	r1, [r0, #0]
 8013a8e:	68c2      	ldr	r2, [r0, #12]
 8013a90:	f022 0303 	bic.w	r3, r2, #3
 8013a94:	60c3      	str	r3, [r0, #12]
 8013a96:	f001 fa0d 	bl	8014eb4 <_ZN6detail9spi_setupEv>
 8013a9a:	f001 fa89 	bl	8014fb0 <_ZN6detail15pixel_dma_setupEv>
 8013a9e:	f8d9 0030 	ldr.w	r0, [r9, #48]	; 0x30
 8013aa2:	f8dd b008 	ldr.w	fp, [sp, #8]
 8013aa6:	f040 0101 	orr.w	r1, r0, #1
 8013aaa:	f8c9 1030 	str.w	r1, [r9, #48]	; 0x30
 8013aae:	f8db 2000 	ldr.w	r2, [fp]
 8013ab2:	f022 4340 	bic.w	r3, r2, #3221225472	; 0xc0000000
 8013ab6:	f043 4000 	orr.w	r0, r3, #2147483648	; 0x80000000
 8013aba:	f8cb 0000 	str.w	r0, [fp]
 8013abe:	f8db 1024 	ldr.w	r1, [fp, #36]	; 0x24
 8013ac2:	f021 4270 	bic.w	r2, r1, #4026531840	; 0xf0000000
 8013ac6:	f042 5380 	orr.w	r3, r2, #268435456	; 0x10000000
 8013aca:	f8cb 3024 	str.w	r3, [fp, #36]	; 0x24
 8013ace:	f8d9 0030 	ldr.w	r0, [r9, #48]	; 0x30
 8013ad2:	f44f 6140 	mov.w	r1, #3072	; 0xc00
 8013ad6:	f2c4 0102 	movt	r1, #16386	; 0x4002
 8013ada:	f040 0208 	orr.w	r2, r0, #8
 8013ade:	f8c9 2030 	str.w	r2, [r9, #48]	; 0x30
 8013ae2:	680b      	ldr	r3, [r1, #0]
 8013ae4:	f023 0030 	bic.w	r0, r3, #48	; 0x30
 8013ae8:	f040 0220 	orr.w	r2, r0, #32
 8013aec:	600a      	str	r2, [r1, #0]
 8013aee:	6a0b      	ldr	r3, [r1, #32]
 8013af0:	f423 6070 	bic.w	r0, r3, #3840	; 0xf00
 8013af4:	f440 7200 	orr.w	r2, r0, #512	; 0x200
 8013af8:	620a      	str	r2, [r1, #32]
 8013afa:	f001 f967 	bl	8014dcc <_ZN9video_cfg9spi_clock5setupEv>
 8013afe:	f000 ffdb 	bl	8014ab8 <_ZN9video_cfg7columns5setupEv>
 8013b02:	f001 f8a7 	bl	8014c54 <_ZN9video_cfg4rows5setupEv>
 8013b06:	f000 fce3 	bl	80144d0 <_ZN13video_buffers4initEv>
 8013b0a:	f000 f8ed 	bl	8013ce8 <_ZN6detail14sync_sep_setupEv>
 8013b0e:	f000 f8b9 	bl	8013c84 <_ZN6detail15sync_sep_enableEv>
 8013b12:	b009      	add	sp, #36	; 0x24
 8013b14:	e8bd 4ff0 	ldmia.w	sp!, {r4, r5, r6, r7, r8, r9, sl, fp, lr}
 8013b18:	f000 bb7a 	b.w	8014210 <_ZN6detail9dac_setupEv>

08013b1c <_ZN4quan3uav3osd16transform_to_rawERKNS_5two_d4vectIlEE>:
 8013b1c:	b570      	push	{r4, r5, r6, lr}
 8013b1e:	4b0f      	ldr	r3, [pc, #60]	; (8013b5c <_ZN4quan3uav3osd16transform_to_rawERKNS_5two_d4vectIlEE+0x40>)
 8013b20:	4c0f      	ldr	r4, [pc, #60]	; (8013b60 <_ZN4quan3uav3osd16transform_to_rawERKNS_5two_d4vectIlEE+0x44>)
 8013b22:	881a      	ldrh	r2, [r3, #0]
 8013b24:	8826      	ldrh	r6, [r4, #0]
 8013b26:	f64f 75f8 	movw	r5, #65528	; 0xfff8
 8013b2a:	1b93      	subs	r3, r2, r6
 8013b2c:	4604      	mov	r4, r0
 8013b2e:	460e      	mov	r6, r1
 8013b30:	401d      	ands	r5, r3
 8013b32:	f000 f8a1 	bl	8013c78 <_ZN9video_cfg14get_video_modeEv>
 8013b36:	2801      	cmp	r0, #1
 8013b38:	bf0c      	ite	eq
 8013b3a:	480a      	ldreq	r0, [pc, #40]	; (8013b64 <_ZN4quan3uav3osd16transform_to_rawERKNS_5two_d4vectIlEE+0x48>)
 8013b3c:	480a      	ldrne	r0, [pc, #40]	; (8013b68 <_ZN4quan3uav3osd16transform_to_rawERKNS_5two_d4vectIlEE+0x4c>)
 8013b3e:	4a0b      	ldr	r2, [pc, #44]	; (8013b6c <_ZN4quan3uav3osd16transform_to_rawERKNS_5two_d4vectIlEE+0x50>)
 8013b40:	8800      	ldrh	r0, [r0, #0]
 8013b42:	8813      	ldrh	r3, [r2, #0]
 8013b44:	6871      	ldr	r1, [r6, #4]
 8013b46:	6832      	ldr	r2, [r6, #0]
 8013b48:	1ac0      	subs	r0, r0, r3
 8013b4a:	f3c0 038d 	ubfx	r3, r0, #2, #14
 8013b4e:	1a59      	subs	r1, r3, r1
 8013b50:	eb02 0555 	add.w	r5, r2, r5, lsr #1
 8013b54:	6025      	str	r5, [r4, #0]
 8013b56:	6061      	str	r1, [r4, #4]
 8013b58:	4620      	mov	r0, r4
 8013b5a:	bd70      	pop	{r4, r5, r6, pc}
 8013b5c:	10000018 	.word	0x10000018
 8013b60:	10000016 	.word	0x10000016
 8013b64:	1000001e 	.word	0x1000001e
 8013b68:	1000001a 	.word	0x1000001a
 8013b6c:	10000022 	.word	0x10000022

08013b70 <_ZN4quan3uav3osd13set_pixel_rawERKNS_5two_d4vectIlEENS1_11colour_typeE>:
 8013b70:	6803      	ldr	r3, [r0, #0]
 8013b72:	2b00      	cmp	r3, #0
 8013b74:	b470      	push	{r4, r5, r6}
 8013b76:	db1c      	blt.n	8013bb2 <_ZN4quan3uav3osd13set_pixel_rawERKNS_5two_d4vectIlEENS1_11colour_typeE+0x42>
 8013b78:	6842      	ldr	r2, [r0, #4]
 8013b7a:	2a00      	cmp	r2, #0
 8013b7c:	db19      	blt.n	8013bb2 <_ZN4quan3uav3osd13set_pixel_rawERKNS_5two_d4vectIlEENS1_11colour_typeE+0x42>
 8013b7e:	480e      	ldr	r0, [pc, #56]	; (8013bb8 <_ZN4quan3uav3osd13set_pixel_rawERKNS_5two_d4vectIlEENS1_11colour_typeE+0x48>)
 8013b80:	6844      	ldr	r4, [r0, #4]
 8013b82:	3c01      	subs	r4, #1
 8013b84:	42a2      	cmp	r2, r4
 8013b86:	d814      	bhi.n	8013bb2 <_ZN4quan3uav3osd13set_pixel_rawERKNS_5two_d4vectIlEENS1_11colour_typeE+0x42>
 8013b88:	6800      	ldr	r0, [r0, #0]
 8013b8a:	1e44      	subs	r4, r0, #1
 8013b8c:	42a3      	cmp	r3, r4
 8013b8e:	d810      	bhi.n	8013bb2 <_ZN4quan3uav3osd13set_pixel_rawERKNS_5two_d4vectIlEENS1_11colour_typeE+0x42>
 8013b90:	4d0a      	ldr	r5, [pc, #40]	; (8013bbc <_ZN4quan3uav3osd13set_pixel_rawERKNS_5two_d4vectIlEENS1_11colour_typeE+0x4c>)
 8013b92:	686e      	ldr	r6, [r5, #4]
 8013b94:	686d      	ldr	r5, [r5, #4]
 8013b96:	6834      	ldr	r4, [r6, #0]
 8013b98:	f505 5550 	add.w	r5, r5, #13312	; 0x3400
 8013b9c:	3301      	adds	r3, #1
 8013b9e:	3008      	adds	r0, #8
 8013ba0:	fb02 3200 	mla	r2, r2, r0, r3
 8013ba4:	b2c9      	uxtb	r1, r1
 8013ba6:	6828      	ldr	r0, [r5, #0]
 8013ba8:	f844 1022 	str.w	r1, [r4, r2, lsl #2]
 8013bac:	104b      	asrs	r3, r1, #1
 8013bae:	f840 3022 	str.w	r3, [r0, r2, lsl #2]
 8013bb2:	bc70      	pop	{r4, r5, r6}
 8013bb4:	4770      	bx	lr
 8013bb6:	bf00      	nop
 8013bb8:	10000e20 	.word	0x10000e20
 8013bbc:	10000e00 	.word	0x10000e00

08013bc0 <_ZN4quan3uav3osd13get_pixel_rawEPKNS1_12basic_bitmapERKNS_5two_d4vectIlEE>:
 8013bc0:	b530      	push	{r4, r5, lr}
 8013bc2:	6803      	ldr	r3, [r0, #0]
 8013bc4:	b083      	sub	sp, #12
 8013bc6:	4604      	mov	r4, r0
 8013bc8:	460d      	mov	r5, r1
 8013bca:	681a      	ldr	r2, [r3, #0]
 8013bcc:	4668      	mov	r0, sp
 8013bce:	4621      	mov	r1, r4
 8013bd0:	4790      	blx	r2
 8013bd2:	682b      	ldr	r3, [r5, #0]
 8013bd4:	9a00      	ldr	r2, [sp, #0]
 8013bd6:	2b00      	cmp	r3, #0
 8013bd8:	db01      	blt.n	8013bde <_ZN4quan3uav3osd13get_pixel_rawEPKNS1_12basic_bitmapERKNS_5two_d4vectIlEE+0x1e>
 8013bda:	429a      	cmp	r2, r3
 8013bdc:	dc02      	bgt.n	8013be4 <_ZN4quan3uav3osd13get_pixel_rawEPKNS1_12basic_bitmapERKNS_5two_d4vectIlEE+0x24>
 8013bde:	2003      	movs	r0, #3
 8013be0:	b003      	add	sp, #12
 8013be2:	bd30      	pop	{r4, r5, pc}
 8013be4:	6869      	ldr	r1, [r5, #4]
 8013be6:	2900      	cmp	r1, #0
 8013be8:	dbf9      	blt.n	8013bde <_ZN4quan3uav3osd13get_pixel_rawEPKNS1_12basic_bitmapERKNS_5two_d4vectIlEE+0x1e>
 8013bea:	9801      	ldr	r0, [sp, #4]
 8013bec:	4281      	cmp	r1, r0
 8013bee:	daf6      	bge.n	8013bde <_ZN4quan3uav3osd13get_pixel_rawEPKNS1_12basic_bitmapERKNS_5two_d4vectIlEE+0x1e>
 8013bf0:	6825      	ldr	r5, [r4, #0]
 8013bf2:	fb01 3302 	mla	r3, r1, r2, r3
 8013bf6:	4620      	mov	r0, r4
 8013bf8:	686d      	ldr	r5, [r5, #4]
 8013bfa:	005c      	lsls	r4, r3, #1
 8013bfc:	47a8      	blx	r5
 8013bfe:	08e2      	lsrs	r2, r4, #3
 8013c00:	f004 0107 	and.w	r1, r4, #7
 8013c04:	5c80      	ldrb	r0, [r0, r2]
 8013c06:	fa40 f401 	asr.w	r4, r0, r1
 8013c0a:	f004 0003 	and.w	r0, r4, #3
 8013c0e:	e7e7      	b.n	8013be0 <_ZN4quan3uav3osd13get_pixel_rawEPKNS1_12basic_bitmapERKNS_5two_d4vectIlEE+0x20>

08013c10 <_ZN4quan3uav3osd8get_charEPKNS1_10basic_fontEl>:
 8013c10:	b508      	push	{r3, lr}
 8013c12:	6803      	ldr	r3, [r0, #0]
 8013c14:	691a      	ldr	r2, [r3, #16]
 8013c16:	4790      	blx	r2
 8013c18:	bd08      	pop	{r3, pc}
 8013c1a:	bf00      	nop

08013c1c <_ZN4quan3uav3osd8get_sizeEPKNS1_12basic_bitmapE>:
 8013c1c:	680b      	ldr	r3, [r1, #0]
 8013c1e:	b510      	push	{r4, lr}
 8013c20:	681a      	ldr	r2, [r3, #0]
 8013c22:	4604      	mov	r4, r0
 8013c24:	4790      	blx	r2
 8013c26:	4620      	mov	r0, r4
 8013c28:	bd10      	pop	{r4, pc}
 8013c2a:	bf00      	nop

08013c2c <_ZN12_GLOBAL__N_19draw_taskEPv>:
 8013c2c:	b508      	push	{r3, lr}
 8013c2e:	f7f8 f9f1 	bl	800c014 <_ZN4quan3uav3osd7on_drawEv>
 8013c32:	f000 fda1 	bl	8014778 <_ZN6detail16swap_osd_buffersEv>
 8013c36:	e7fa      	b.n	8013c2e <_ZN12_GLOBAL__N_19draw_taskEPv+0x2>

08013c38 <_Z16create_draw_taskv>:
 8013c38:	b500      	push	{lr}
 8013c3a:	b085      	sub	sp, #20
 8013c3c:	f000 fd86 	bl	801474c <_ZN6detail26create_osd_swap_semaphoresEv>
 8013c40:	f640 50ac 	movw	r0, #3500	; 0xdac
 8013c44:	2300      	movs	r3, #0
 8013c46:	f2c1 0000 	movt	r0, #4096	; 0x1000
 8013c4a:	2202      	movs	r2, #2
 8013c4c:	9001      	str	r0, [sp, #4]
 8013c4e:	9302      	str	r3, [sp, #8]
 8013c50:	9303      	str	r3, [sp, #12]
 8013c52:	f643 402d 	movw	r0, #15405	; 0x3c2d
 8013c56:	f24b 11fc 	movw	r1, #45564	; 0xb1fc
 8013c5a:	f640 53a8 	movw	r3, #3496	; 0xda8
 8013c5e:	9200      	str	r2, [sp, #0]
 8013c60:	f6c0 0101 	movt	r1, #2049	; 0x801
 8013c64:	f241 3288 	movw	r2, #5000	; 0x1388
 8013c68:	f2c1 0300 	movt	r3, #4096	; 0x1000
 8013c6c:	f6c0 0001 	movt	r0, #2049	; 0x801
 8013c70:	f7fd fefe 	bl	8011a70 <xTaskGenericCreate>
 8013c74:	b005      	add	sp, #20
 8013c76:	bd00      	pop	{pc}

08013c78 <_ZN9video_cfg14get_video_modeEv>:
 8013c78:	f640 53c8 	movw	r3, #3528	; 0xdc8
 8013c7c:	f2c1 0300 	movt	r3, #4096	; 0x1000
 8013c80:	6818      	ldr	r0, [r3, #0]
 8013c82:	4770      	bx	lr

08013c84 <_ZN6detail15sync_sep_enableEv>:
 8013c84:	4910      	ldr	r1, [pc, #64]	; (8013cc8 <_ZN6detail15sync_sep_enableEv+0x44>)
 8013c86:	4811      	ldr	r0, [pc, #68]	; (8013ccc <_ZN6detail15sync_sep_enableEv+0x48>)
 8013c88:	2300      	movs	r3, #0
 8013c8a:	700b      	strb	r3, [r1, #0]
 8013c8c:	7003      	strb	r3, [r0, #0]
 8013c8e:	4910      	ldr	r1, [pc, #64]	; (8013cd0 <_ZN6detail15sync_sep_enableEv+0x4c>)
 8013c90:	4810      	ldr	r0, [pc, #64]	; (8013cd4 <_ZN6detail15sync_sep_enableEv+0x50>)
 8013c92:	600b      	str	r3, [r1, #0]
 8013c94:	f44f 52c0 	mov.w	r2, #6144	; 0x1800
 8013c98:	6003      	str	r3, [r0, #0]
 8013c9a:	f2c4 0200 	movt	r2, #16384	; 0x4000
 8013c9e:	490e      	ldr	r1, [pc, #56]	; (8013cd8 <_ZN6detail15sync_sep_enableEv+0x54>)
 8013ca0:	480e      	ldr	r0, [pc, #56]	; (8013cdc <_ZN6detail15sync_sep_enableEv+0x58>)
 8013ca2:	800b      	strh	r3, [r1, #0]
 8013ca4:	6003      	str	r3, [r0, #0]
 8013ca6:	6113      	str	r3, [r2, #16]
 8013ca8:	68d3      	ldr	r3, [r2, #12]
 8013caa:	f043 0106 	orr.w	r1, r3, #6
 8013cae:	60d1      	str	r1, [r2, #12]
 8013cb0:	bf00      	nop
 8013cb2:	2000      	movs	r0, #0
 8013cb4:	f2c4 2003 	movt	r0, #16899	; 0x4203
 8013cb8:	2201      	movs	r2, #1
 8013cba:	4b09      	ldr	r3, [pc, #36]	; (8013ce0 <_ZN6detail15sync_sep_enableEv+0x5c>)
 8013cbc:	6002      	str	r2, [r0, #0]
 8013cbe:	7819      	ldrb	r1, [r3, #0]
 8013cc0:	b109      	cbz	r1, 8013cc6 <_ZN6detail15sync_sep_enableEv+0x42>
 8013cc2:	4808      	ldr	r0, [pc, #32]	; (8013ce4 <_ZN6detail15sync_sep_enableEv+0x60>)
 8013cc4:	7002      	strb	r2, [r0, #0]
 8013cc6:	4770      	bx	lr
 8013cc8:	10000db2 	.word	0x10000db2
 8013ccc:	10000dc1 	.word	0x10000dc1
 8013cd0:	10000dbc 	.word	0x10000dbc
 8013cd4:	10000dc4 	.word	0x10000dc4
 8013cd8:	10000db0 	.word	0x10000db0
 8013cdc:	10000db4 	.word	0x10000db4
 8013ce0:	10000dc0 	.word	0x10000dc0
 8013ce4:	10000010 	.word	0x10000010

08013ce8 <_ZN6detail14sync_sep_setupEv>:
 8013ce8:	f44f 5260 	mov.w	r2, #14336	; 0x3800
 8013cec:	f2c4 0202 	movt	r2, #16386	; 0x4002
 8013cf0:	b470      	push	{r4, r5, r6}
 8013cf2:	6b11      	ldr	r1, [r2, #48]	; 0x30
 8013cf4:	f041 0002 	orr.w	r0, r1, #2
 8013cf8:	6310      	str	r0, [r2, #48]	; 0x30
 8013cfa:	6b14      	ldr	r4, [r2, #48]	; 0x30
 8013cfc:	f44f 6380 	mov.w	r3, #1024	; 0x400
 8013d00:	f2c4 0302 	movt	r3, #16386	; 0x4002
 8013d04:	f044 0502 	orr.w	r5, r4, #2
 8013d08:	6315      	str	r5, [r2, #48]	; 0x30
 8013d0a:	681e      	ldr	r6, [r3, #0]
 8013d0c:	f026 5140 	bic.w	r1, r6, #805306368	; 0x30000000
 8013d10:	f041 5000 	orr.w	r0, r1, #536870912	; 0x20000000
 8013d14:	6018      	str	r0, [r3, #0]
 8013d16:	68dc      	ldr	r4, [r3, #12]
 8013d18:	f024 5540 	bic.w	r5, r4, #805306368	; 0x30000000
 8013d1c:	f045 5680 	orr.w	r6, r5, #268435456	; 0x10000000
 8013d20:	60de      	str	r6, [r3, #12]
 8013d22:	6a59      	ldr	r1, [r3, #36]	; 0x24
 8013d24:	f021 6070 	bic.w	r0, r1, #251658240	; 0xf000000
 8013d28:	f040 6410 	orr.w	r4, r0, #150994944	; 0x9000000
 8013d2c:	625c      	str	r4, [r3, #36]	; 0x24
 8013d2e:	681d      	ldr	r5, [r3, #0]
 8013d30:	f025 4640 	bic.w	r6, r5, #3221225472	; 0xc0000000
 8013d34:	f046 4100 	orr.w	r1, r6, #2147483648	; 0x80000000
 8013d38:	6019      	str	r1, [r3, #0]
 8013d3a:	68d8      	ldr	r0, [r3, #12]
 8013d3c:	f020 4440 	bic.w	r4, r0, #3221225472	; 0xc0000000
 8013d40:	f044 4580 	orr.w	r5, r4, #1073741824	; 0x40000000
 8013d44:	60dd      	str	r5, [r3, #12]
 8013d46:	6a5e      	ldr	r6, [r3, #36]	; 0x24
 8013d48:	f026 4170 	bic.w	r1, r6, #4026531840	; 0xf0000000
 8013d4c:	f041 4010 	orr.w	r0, r1, #2415919104	; 0x90000000
 8013d50:	6258      	str	r0, [r3, #36]	; 0x24
 8013d52:	6c13      	ldr	r3, [r2, #64]	; 0x40
 8013d54:	f043 0440 	orr.w	r4, r3, #64	; 0x40
 8013d58:	6414      	str	r4, [r2, #64]	; 0x40
 8013d5a:	6a15      	ldr	r5, [r2, #32]
 8013d5c:	2000      	movs	r0, #0
 8013d5e:	f045 0640 	orr.w	r6, r5, #64	; 0x40
 8013d62:	2102      	movs	r1, #2
 8013d64:	6216      	str	r6, [r2, #32]
 8013d66:	f360 01c3 	bfi	r1, r0, #3, #1
 8013d6a:	6a16      	ldr	r6, [r2, #32]
 8013d6c:	2501      	movs	r5, #1
 8013d6e:	4604      	mov	r4, r0
 8013d70:	f360 1145 	bfi	r1, r0, #5, #1
 8013d74:	f365 0401 	bfi	r4, r5, #0, #2
 8013d78:	f360 11c7 	bfi	r1, r0, #7, #1
 8013d7c:	f44f 53c0 	mov.w	r3, #6144	; 0x1800
 8013d80:	f2c4 0300 	movt	r3, #16384	; 0x4000
 8013d84:	f365 2409 	bfi	r4, r5, #8, #2
 8013d88:	f44f 4061 	mov.w	r0, #57600	; 0xe100
 8013d8c:	f041 0111 	orr.w	r1, r1, #17
 8013d90:	f026 0540 	bic.w	r5, r6, #64	; 0x40
 8013d94:	6215      	str	r5, [r2, #32]
 8013d96:	f2ce 0000 	movt	r0, #57344	; 0xe000
 8013d9a:	b289      	uxth	r1, r1
 8013d9c:	b2a4      	uxth	r4, r4
 8013d9e:	f64f 72ff 	movw	r2, #65535	; 0xffff
 8013da2:	62da      	str	r2, [r3, #44]	; 0x2c
 8013da4:	619c      	str	r4, [r3, #24]
 8013da6:	6219      	str	r1, [r3, #32]
 8013da8:	23b0      	movs	r3, #176	; 0xb0
 8013daa:	f44f 6100 	mov.w	r1, #2048	; 0x800
 8013dae:	f880 332b 	strb.w	r3, [r0, #811]	; 0x32b
 8013db2:	6041      	str	r1, [r0, #4]
 8013db4:	bc70      	pop	{r4, r5, r6}
 8013db6:	4770      	bx	lr

08013db8 <TIM8_BRK_TIM12_IRQHandler>:
 8013db8:	f44f 52c0 	mov.w	r2, #6144	; 0x1800
 8013dbc:	f2c4 0200 	movt	r2, #16384	; 0x4000
 8013dc0:	4668      	mov	r0, sp
 8013dc2:	6913      	ldr	r3, [r2, #16]
 8013dc4:	f020 0107 	bic.w	r1, r0, #7
 8013dc8:	468d      	mov	sp, r1
 8013dca:	f013 0102 	ands.w	r1, r3, #2
 8013dce:	b4f1      	push	{r0, r4, r5, r6, r7}
 8013dd0:	d129      	bne.n	8013e26 <TIM8_BRK_TIM12_IRQHandler+0x6e>
 8013dd2:	075b      	lsls	r3, r3, #29
 8013dd4:	d402      	bmi.n	8013ddc <TIM8_BRK_TIM12_IRQHandler+0x24>
 8013dd6:	bcf1      	pop	{r0, r4, r5, r6, r7}
 8013dd8:	4685      	mov	sp, r0
 8013dda:	4770      	bx	lr
 8013ddc:	48a0      	ldr	r0, [pc, #640]	; (8014060 <TIM8_BRK_TIM12_IRQHandler+0x2a8>)
 8013dde:	f44f 7302 	mov.w	r3, #520	; 0x208
 8013de2:	f2c4 2303 	movt	r3, #16899	; 0x4203
 8013de6:	7804      	ldrb	r4, [r0, #0]
 8013de8:	6019      	str	r1, [r3, #0]
 8013dea:	2c00      	cmp	r4, #0
 8013dec:	d03d      	beq.n	8013e6a <TIM8_BRK_TIM12_IRQHandler+0xb2>
 8013dee:	4c9d      	ldr	r4, [pc, #628]	; (8014064 <TIM8_BRK_TIM12_IRQHandler+0x2ac>)
 8013df0:	6b95      	ldr	r5, [r2, #56]	; 0x38
 8013df2:	8822      	ldrh	r2, [r4, #0]
 8013df4:	1aab      	subs	r3, r5, r2
 8013df6:	b29b      	uxth	r3, r3
 8013df8:	f5a3 65d2 	sub.w	r5, r3, #1680	; 0x690
 8013dfc:	b2ad      	uxth	r5, r5
 8013dfe:	f240 42ec 	movw	r2, #1260	; 0x4ec
 8013e02:	4295      	cmp	r5, r2
 8013e04:	d94c      	bls.n	8013ea0 <TIM8_BRK_TIM12_IRQHandler+0xe8>
 8013e06:	3b54      	subs	r3, #84	; 0x54
 8013e08:	f5b3 7f3d 	cmp.w	r3, #756	; 0x2f4
 8013e0c:	f240 809c 	bls.w	8013f48 <TIM8_BRK_TIM12_IRQHandler+0x190>
 8013e10:	7001      	strb	r1, [r0, #0]
 8013e12:	4895      	ldr	r0, [pc, #596]	; (8014068 <TIM8_BRK_TIM12_IRQHandler+0x2b0>)
 8013e14:	4b95      	ldr	r3, [pc, #596]	; (801406c <TIM8_BRK_TIM12_IRQHandler+0x2b4>)
 8013e16:	6001      	str	r1, [r0, #0]
 8013e18:	4a95      	ldr	r2, [pc, #596]	; (8014070 <TIM8_BRK_TIM12_IRQHandler+0x2b8>)
 8013e1a:	4896      	ldr	r0, [pc, #600]	; (8014074 <TIM8_BRK_TIM12_IRQHandler+0x2bc>)
 8013e1c:	6019      	str	r1, [r3, #0]
 8013e1e:	8021      	strh	r1, [r4, #0]
 8013e20:	7011      	strb	r1, [r2, #0]
 8013e22:	6001      	str	r1, [r0, #0]
 8013e24:	e7d7      	b.n	8013dd6 <TIM8_BRK_TIM12_IRQHandler+0x1e>
 8013e26:	488e      	ldr	r0, [pc, #568]	; (8014060 <TIM8_BRK_TIM12_IRQHandler+0x2a8>)
 8013e28:	f44f 7301 	mov.w	r3, #516	; 0x204
 8013e2c:	f2c4 2303 	movt	r3, #16899	; 0x4203
 8013e30:	7804      	ldrb	r4, [r0, #0]
 8013e32:	2100      	movs	r1, #0
 8013e34:	6019      	str	r1, [r3, #0]
 8013e36:	2c00      	cmp	r4, #0
 8013e38:	d028      	beq.n	8013e8c <TIM8_BRK_TIM12_IRQHandler+0xd4>
 8013e3a:	4b8a      	ldr	r3, [pc, #552]	; (8014064 <TIM8_BRK_TIM12_IRQHandler+0x2ac>)
 8013e3c:	6b55      	ldr	r5, [r2, #52]	; 0x34
 8013e3e:	881c      	ldrh	r4, [r3, #0]
 8013e40:	b2aa      	uxth	r2, r5
 8013e42:	1b15      	subs	r5, r2, r4
 8013e44:	b2ac      	uxth	r4, r5
 8013e46:	f46f 65a8 	mvn.w	r5, #1344	; 0x540
 8013e4a:	1965      	adds	r5, r4, r5
 8013e4c:	b2ad      	uxth	r5, r5
 8013e4e:	801a      	strh	r2, [r3, #0]
 8013e50:	f640 227e 	movw	r2, #2686	; 0xa7e
 8013e54:	4295      	cmp	r5, r2
 8013e56:	d97b      	bls.n	8013f50 <TIM8_BRK_TIM12_IRQHandler+0x198>
 8013e58:	f5a4 647c 	sub.w	r4, r4, #4032	; 0xfc0
 8013e5c:	f5b4 6f28 	cmp.w	r4, #2688	; 0xa80
 8013e60:	d222      	bcs.n	8013ea8 <TIM8_BRK_TIM12_IRQHandler+0xf0>
 8013e62:	4a82      	ldr	r2, [pc, #520]	; (801406c <TIM8_BRK_TIM12_IRQHandler+0x2b4>)
 8013e64:	2102      	movs	r1, #2
 8013e66:	6011      	str	r1, [r2, #0]
 8013e68:	e7b5      	b.n	8013dd6 <TIM8_BRK_TIM12_IRQHandler+0x1e>
 8013e6a:	4b7f      	ldr	r3, [pc, #508]	; (8014068 <TIM8_BRK_TIM12_IRQHandler+0x2b0>)
 8013e6c:	681c      	ldr	r4, [r3, #0]
 8013e6e:	2c00      	cmp	r4, #0
 8013e70:	d0b1      	beq.n	8013dd6 <TIM8_BRK_TIM12_IRQHandler+0x1e>
 8013e72:	497e      	ldr	r1, [pc, #504]	; (801406c <TIM8_BRK_TIM12_IRQHandler+0x2b4>)
 8013e74:	680a      	ldr	r2, [r1, #0]
 8013e76:	2a00      	cmp	r2, #0
 8013e78:	d0ad      	beq.n	8013dd6 <TIM8_BRK_TIM12_IRQHandler+0x1e>
 8013e7a:	4e7e      	ldr	r6, [pc, #504]	; (8014074 <TIM8_BRK_TIM12_IRQHandler+0x2bc>)
 8013e7c:	6835      	ldr	r5, [r6, #0]
 8013e7e:	2d04      	cmp	r5, #4
 8013e80:	d8a9      	bhi.n	8013dd6 <TIM8_BRK_TIM12_IRQHandler+0x1e>
 8013e82:	e8df f005 	tbb	[pc, r5]
 8013e86:	4259      	.short	0x4259
 8013e88:	2a4c      	.short	0x2a4c
 8013e8a:	1c          	.byte	0x1c
 8013e8b:	00          	.byte	0x00
 8013e8c:	4b7a      	ldr	r3, [pc, #488]	; (8014078 <TIM8_BRK_TIM12_IRQHandler+0x2c0>)
 8013e8e:	7819      	ldrb	r1, [r3, #0]
 8013e90:	2900      	cmp	r1, #0
 8013e92:	d061      	beq.n	8013f58 <TIM8_BRK_TIM12_IRQHandler+0x1a0>
 8013e94:	4a79      	ldr	r2, [pc, #484]	; (801407c <TIM8_BRK_TIM12_IRQHandler+0x2c4>)
 8013e96:	7812      	ldrb	r2, [r2, #0]
 8013e98:	2a00      	cmp	r2, #0
 8013e9a:	d19c      	bne.n	8013dd6 <TIM8_BRK_TIM12_IRQHandler+0x1e>
 8013e9c:	701a      	strb	r2, [r3, #0]
 8013e9e:	e79a      	b.n	8013dd6 <TIM8_BRK_TIM12_IRQHandler+0x1e>
 8013ea0:	4b71      	ldr	r3, [pc, #452]	; (8014068 <TIM8_BRK_TIM12_IRQHandler+0x2b0>)
 8013ea2:	2402      	movs	r4, #2
 8013ea4:	601c      	str	r4, [r3, #0]
 8013ea6:	e7e4      	b.n	8013e72 <TIM8_BRK_TIM12_IRQHandler+0xba>
 8013ea8:	7001      	strb	r1, [r0, #0]
 8013eaa:	486f      	ldr	r0, [pc, #444]	; (8014068 <TIM8_BRK_TIM12_IRQHandler+0x2b0>)
 8013eac:	8019      	strh	r1, [r3, #0]
 8013eae:	6001      	str	r1, [r0, #0]
 8013eb0:	4a6e      	ldr	r2, [pc, #440]	; (801406c <TIM8_BRK_TIM12_IRQHandler+0x2b4>)
 8013eb2:	4b6f      	ldr	r3, [pc, #444]	; (8014070 <TIM8_BRK_TIM12_IRQHandler+0x2b8>)
 8013eb4:	486f      	ldr	r0, [pc, #444]	; (8014074 <TIM8_BRK_TIM12_IRQHandler+0x2bc>)
 8013eb6:	6011      	str	r1, [r2, #0]
 8013eb8:	7019      	strb	r1, [r3, #0]
 8013eba:	6001      	str	r1, [r0, #0]
 8013ebc:	e78b      	b.n	8013dd6 <TIM8_BRK_TIM12_IRQHandler+0x1e>
 8013ebe:	2a01      	cmp	r2, #1
 8013ec0:	d050      	beq.n	8013f64 <TIM8_BRK_TIM12_IRQHandler+0x1ac>
 8013ec2:	2700      	movs	r7, #0
 8013ec4:	600f      	str	r7, [r1, #0]
 8013ec6:	601f      	str	r7, [r3, #0]
 8013ec8:	4a66      	ldr	r2, [pc, #408]	; (8014064 <TIM8_BRK_TIM12_IRQHandler+0x2ac>)
 8013eca:	4969      	ldr	r1, [pc, #420]	; (8014070 <TIM8_BRK_TIM12_IRQHandler+0x2b8>)
 8013ecc:	4b6c      	ldr	r3, [pc, #432]	; (8014080 <TIM8_BRK_TIM12_IRQHandler+0x2c8>)
 8013ece:	7007      	strb	r7, [r0, #0]
 8013ed0:	8017      	strh	r7, [r2, #0]
 8013ed2:	700f      	strb	r7, [r1, #0]
 8013ed4:	6037      	str	r7, [r6, #0]
 8013ed6:	601f      	str	r7, [r3, #0]
 8013ed8:	e77d      	b.n	8013dd6 <TIM8_BRK_TIM12_IRQHandler+0x1e>
 8013eda:	2a01      	cmp	r2, #1
 8013edc:	d1f1      	bne.n	8013ec2 <TIM8_BRK_TIM12_IRQHandler+0x10a>
 8013ede:	2c01      	cmp	r4, #1
 8013ee0:	4a63      	ldr	r2, [pc, #396]	; (8014070 <TIM8_BRK_TIM12_IRQHandler+0x2b8>)
 8013ee2:	f000 808a 	beq.w	8013ffa <TIM8_BRK_TIM12_IRQHandler+0x242>
 8013ee6:	7817      	ldrb	r7, [r2, #0]
 8013ee8:	1c7c      	adds	r4, r7, #1
 8013eea:	b2e4      	uxtb	r4, r4
 8013eec:	2c08      	cmp	r4, #8
 8013eee:	7014      	strb	r4, [r2, #0]
 8013ef0:	f67f af71 	bls.w	8013dd6 <TIM8_BRK_TIM12_IRQHandler+0x1e>
 8013ef4:	2400      	movs	r4, #0
 8013ef6:	7004      	strb	r4, [r0, #0]
 8013ef8:	601c      	str	r4, [r3, #0]
 8013efa:	4861      	ldr	r0, [pc, #388]	; (8014080 <TIM8_BRK_TIM12_IRQHandler+0x2c8>)
 8013efc:	4b59      	ldr	r3, [pc, #356]	; (8014064 <TIM8_BRK_TIM12_IRQHandler+0x2ac>)
 8013efe:	600c      	str	r4, [r1, #0]
 8013f00:	801c      	strh	r4, [r3, #0]
 8013f02:	7014      	strb	r4, [r2, #0]
 8013f04:	6034      	str	r4, [r6, #0]
 8013f06:	6004      	str	r4, [r0, #0]
 8013f08:	e765      	b.n	8013dd6 <TIM8_BRK_TIM12_IRQHandler+0x1e>
 8013f0a:	2c01      	cmp	r4, #1
 8013f0c:	d1d9      	bne.n	8013ec2 <TIM8_BRK_TIM12_IRQHandler+0x10a>
 8013f0e:	2a01      	cmp	r2, #1
 8013f10:	f47f af61 	bne.w	8013dd6 <TIM8_BRK_TIM12_IRQHandler+0x1e>
 8013f14:	4b56      	ldr	r3, [pc, #344]	; (8014070 <TIM8_BRK_TIM12_IRQHandler+0x2b8>)
 8013f16:	2002      	movs	r0, #2
 8013f18:	6030      	str	r0, [r6, #0]
 8013f1a:	701a      	strb	r2, [r3, #0]
 8013f1c:	e75b      	b.n	8013dd6 <TIM8_BRK_TIM12_IRQHandler+0x1e>
 8013f1e:	2a01      	cmp	r2, #1
 8013f20:	d1cf      	bne.n	8013ec2 <TIM8_BRK_TIM12_IRQHandler+0x10a>
 8013f22:	2c02      	cmp	r4, #2
 8013f24:	d07c      	beq.n	8014020 <TIM8_BRK_TIM12_IRQHandler+0x268>
 8013f26:	4a52      	ldr	r2, [pc, #328]	; (8014070 <TIM8_BRK_TIM12_IRQHandler+0x2b8>)
 8013f28:	7817      	ldrb	r7, [r2, #0]
 8013f2a:	1c7c      	adds	r4, r7, #1
 8013f2c:	b2e4      	uxtb	r4, r4
 8013f2e:	2c06      	cmp	r4, #6
 8013f30:	7014      	strb	r4, [r2, #0]
 8013f32:	f67f af50 	bls.w	8013dd6 <TIM8_BRK_TIM12_IRQHandler+0x1e>
 8013f36:	e7dd      	b.n	8013ef4 <TIM8_BRK_TIM12_IRQHandler+0x13c>
 8013f38:	2c01      	cmp	r4, #1
 8013f3a:	f47f af4c 	bne.w	8013dd6 <TIM8_BRK_TIM12_IRQHandler+0x1e>
 8013f3e:	2a02      	cmp	r2, #2
 8013f40:	f47f af49 	bne.w	8013dd6 <TIM8_BRK_TIM12_IRQHandler+0x1e>
 8013f44:	6034      	str	r4, [r6, #0]
 8013f46:	e746      	b.n	8013dd6 <TIM8_BRK_TIM12_IRQHandler+0x1e>
 8013f48:	4b47      	ldr	r3, [pc, #284]	; (8014068 <TIM8_BRK_TIM12_IRQHandler+0x2b0>)
 8013f4a:	2401      	movs	r4, #1
 8013f4c:	601c      	str	r4, [r3, #0]
 8013f4e:	e790      	b.n	8013e72 <TIM8_BRK_TIM12_IRQHandler+0xba>
 8013f50:	4b46      	ldr	r3, [pc, #280]	; (801406c <TIM8_BRK_TIM12_IRQHandler+0x2b4>)
 8013f52:	2001      	movs	r0, #1
 8013f54:	6018      	str	r0, [r3, #0]
 8013f56:	e73e      	b.n	8013dd6 <TIM8_BRK_TIM12_IRQHandler+0x1e>
 8013f58:	6b51      	ldr	r1, [r2, #52]	; 0x34
 8013f5a:	4b42      	ldr	r3, [pc, #264]	; (8014064 <TIM8_BRK_TIM12_IRQHandler+0x2ac>)
 8013f5c:	2201      	movs	r2, #1
 8013f5e:	8019      	strh	r1, [r3, #0]
 8013f60:	7002      	strb	r2, [r0, #0]
 8013f62:	e738      	b.n	8013dd6 <TIM8_BRK_TIM12_IRQHandler+0x1e>
 8013f64:	2c01      	cmp	r4, #1
 8013f66:	d1ac      	bne.n	8013ec2 <TIM8_BRK_TIM12_IRQHandler+0x10a>
 8013f68:	4f41      	ldr	r7, [pc, #260]	; (8014070 <TIM8_BRK_TIM12_IRQHandler+0x2b8>)
 8013f6a:	4b45      	ldr	r3, [pc, #276]	; (8014080 <TIM8_BRK_TIM12_IRQHandler+0x2c8>)
 8013f6c:	7838      	ldrb	r0, [r7, #0]
 8013f6e:	681b      	ldr	r3, [r3, #0]
 8013f70:	1c41      	adds	r1, r0, #1
 8013f72:	b2ca      	uxtb	r2, r1
 8013f74:	2b01      	cmp	r3, #1
 8013f76:	703a      	strb	r2, [r7, #0]
 8013f78:	f000 8090 	beq.w	801409c <TIM8_BRK_TIM12_IRQHandler+0x2e4>
 8013f7c:	2b02      	cmp	r3, #2
 8013f7e:	f47f af2a 	bne.w	8013dd6 <TIM8_BRK_TIM12_IRQHandler+0x1e>
 8013f82:	2a05      	cmp	r2, #5
 8013f84:	f47f af27 	bne.w	8013dd6 <TIM8_BRK_TIM12_IRQHandler+0x1e>
 8013f88:	4e3e      	ldr	r6, [pc, #248]	; (8014084 <TIM8_BRK_TIM12_IRQHandler+0x2cc>)
 8013f8a:	4d3f      	ldr	r5, [pc, #252]	; (8014088 <TIM8_BRK_TIM12_IRQHandler+0x2d0>)
 8013f8c:	f8b6 c000 	ldrh.w	ip, [r6]
 8013f90:	882d      	ldrh	r5, [r5, #0]
 8013f92:	4f3e      	ldr	r7, [pc, #248]	; (801408c <TIM8_BRK_TIM12_IRQHandler+0x2d4>)
 8013f94:	2400      	movs	r4, #0
 8013f96:	4e3e      	ldr	r6, [pc, #248]	; (8014090 <TIM8_BRK_TIM12_IRQHandler+0x2d8>)
 8013f98:	883a      	ldrh	r2, [r7, #0]
 8013f9a:	8837      	ldrh	r7, [r6, #0]
 8013f9c:	483d      	ldr	r0, [pc, #244]	; (8014094 <TIM8_BRK_TIM12_IRQHandler+0x2dc>)
 8013f9e:	f2c4 2403 	movt	r4, #16899	; 0x4203
 8013fa2:	f44f 51c0 	mov.w	r1, #6144	; 0x1800
 8013fa6:	f2c4 0100 	movt	r1, #16384	; 0x4000
 8013faa:	2600      	movs	r6, #0
 8013fac:	6026      	str	r6, [r4, #0]
 8013fae:	68ce      	ldr	r6, [r1, #12]
 8013fb0:	ebc5 050c 	rsb	r5, r5, ip
 8013fb4:	1bd4      	subs	r4, r2, r7
 8013fb6:	f3c5 05cc 	ubfx	r5, r5, #3, #13
 8013fba:	f026 0606 	bic.w	r6, r6, #6
 8013fbe:	f3c4 044e 	ubfx	r4, r4, #1, #15
 8013fc2:	00ed      	lsls	r5, r5, #3
 8013fc4:	60ce      	str	r6, [r1, #12]
 8013fc6:	6005      	str	r5, [r0, #0]
 8013fc8:	6044      	str	r4, [r0, #4]
 8013fca:	f44f 6080 	mov.w	r0, #1024	; 0x400
 8013fce:	f2c4 0000 	movt	r0, #16384	; 0x4000
 8013fd2:	0852      	lsrs	r2, r2, #1
 8013fd4:	1e91      	subs	r1, r2, #2
 8013fd6:	2200      	movs	r2, #0
 8013fd8:	62c1      	str	r1, [r0, #44]	; 0x2c
 8013fda:	6242      	str	r2, [r0, #36]	; 0x24
 8013fdc:	bf00      	nop
 8013fde:	f44f 4000 	mov.w	r0, #32768	; 0x8000
 8013fe2:	2201      	movs	r2, #1
 8013fe4:	f2c4 2000 	movt	r0, #16896	; 0x4200
 8013fe8:	4293      	cmp	r3, r2
 8013fea:	6002      	str	r2, [r0, #0]
 8013fec:	d079      	beq.n	80140e2 <TIM8_BRK_TIM12_IRQHandler+0x32a>
 8013fee:	2b02      	cmp	r3, #2
 8013ff0:	d078      	beq.n	80140e4 <TIM8_BRK_TIM12_IRQHandler+0x32c>
 8013ff2:	4b29      	ldr	r3, [pc, #164]	; (8014098 <TIM8_BRK_TIM12_IRQHandler+0x2e0>)
 8013ff4:	2100      	movs	r1, #0
 8013ff6:	6019      	str	r1, [r3, #0]
 8013ff8:	e6ed      	b.n	8013dd6 <TIM8_BRK_TIM12_IRQHandler+0x1e>
 8013ffa:	7815      	ldrb	r5, [r2, #0]
 8013ffc:	2d05      	cmp	r5, #5
 8013ffe:	d058      	beq.n	80140b2 <TIM8_BRK_TIM12_IRQHandler+0x2fa>
 8014000:	2d06      	cmp	r5, #6
 8014002:	f47f af77 	bne.w	8013ef4 <TIM8_BRK_TIM12_IRQHandler+0x13c>
 8014006:	4d1e      	ldr	r5, [pc, #120]	; (8014080 <TIM8_BRK_TIM12_IRQHandler+0x2c8>)
 8014008:	682c      	ldr	r4, [r5, #0]
 801400a:	2c02      	cmp	r4, #2
 801400c:	d003      	beq.n	8014016 <TIM8_BRK_TIM12_IRQHandler+0x25e>
 801400e:	2c00      	cmp	r4, #0
 8014010:	d15d      	bne.n	80140ce <TIM8_BRK_TIM12_IRQHandler+0x316>
 8014012:	2102      	movs	r1, #2
 8014014:	6029      	str	r1, [r5, #0]
 8014016:	2004      	movs	r0, #4
 8014018:	2100      	movs	r1, #0
 801401a:	6030      	str	r0, [r6, #0]
 801401c:	7011      	strb	r1, [r2, #0]
 801401e:	e6da      	b.n	8013dd6 <TIM8_BRK_TIM12_IRQHandler+0x1e>
 8014020:	4d13      	ldr	r5, [pc, #76]	; (8014070 <TIM8_BRK_TIM12_IRQHandler+0x2b8>)
 8014022:	782f      	ldrb	r7, [r5, #0]
 8014024:	2f04      	cmp	r7, #4
 8014026:	d00e      	beq.n	8014046 <TIM8_BRK_TIM12_IRQHandler+0x28e>
 8014028:	2f05      	cmp	r7, #5
 801402a:	d013      	beq.n	8014054 <TIM8_BRK_TIM12_IRQHandler+0x29c>
 801402c:	2f06      	cmp	r7, #6
 801402e:	d047      	beq.n	80140c0 <TIM8_BRK_TIM12_IRQHandler+0x308>
 8014030:	2200      	movs	r2, #0
 8014032:	600a      	str	r2, [r1, #0]
 8014034:	601a      	str	r2, [r3, #0]
 8014036:	490b      	ldr	r1, [pc, #44]	; (8014064 <TIM8_BRK_TIM12_IRQHandler+0x2ac>)
 8014038:	4b11      	ldr	r3, [pc, #68]	; (8014080 <TIM8_BRK_TIM12_IRQHandler+0x2c8>)
 801403a:	7002      	strb	r2, [r0, #0]
 801403c:	800a      	strh	r2, [r1, #0]
 801403e:	702a      	strb	r2, [r5, #0]
 8014040:	6032      	str	r2, [r6, #0]
 8014042:	601a      	str	r2, [r3, #0]
 8014044:	e6c7      	b.n	8013dd6 <TIM8_BRK_TIM12_IRQHandler+0x1e>
 8014046:	4c0e      	ldr	r4, [pc, #56]	; (8014080 <TIM8_BRK_TIM12_IRQHandler+0x2c8>)
 8014048:	6827      	ldr	r7, [r4, #0]
 801404a:	2f01      	cmp	r7, #1
 801404c:	d002      	beq.n	8014054 <TIM8_BRK_TIM12_IRQHandler+0x29c>
 801404e:	2f00      	cmp	r7, #0
 8014050:	d14b      	bne.n	80140ea <TIM8_BRK_TIM12_IRQHandler+0x332>
 8014052:	6022      	str	r2, [r4, #0]
 8014054:	2303      	movs	r3, #3
 8014056:	2001      	movs	r0, #1
 8014058:	6033      	str	r3, [r6, #0]
 801405a:	7028      	strb	r0, [r5, #0]
 801405c:	e6bb      	b.n	8013dd6 <TIM8_BRK_TIM12_IRQHandler+0x1e>
 801405e:	bf00      	nop
 8014060:	10000dc1 	.word	0x10000dc1
 8014064:	10000db0 	.word	0x10000db0
 8014068:	10000dbc 	.word	0x10000dbc
 801406c:	10000dc4 	.word	0x10000dc4
 8014070:	10000db2 	.word	0x10000db2
 8014074:	10000db4 	.word	0x10000db4
 8014078:	10000010 	.word	0x10000010
 801407c:	10000dc0 	.word	0x10000dc0
 8014080:	10000dc8 	.word	0x10000dc8
 8014084:	10000018 	.word	0x10000018
 8014088:	10000016 	.word	0x10000016
 801408c:	1000001a 	.word	0x1000001a
 8014090:	10000022 	.word	0x10000022
 8014094:	10000e20 	.word	0x10000e20
 8014098:	10000db8 	.word	0x10000db8
 801409c:	2a03      	cmp	r2, #3
 801409e:	f47f ae9a 	bne.w	8013dd6 <TIM8_BRK_TIM12_IRQHandler+0x1e>
 80140a2:	481c      	ldr	r0, [pc, #112]	; (8014114 <TIM8_BRK_TIM12_IRQHandler+0x35c>)
 80140a4:	491c      	ldr	r1, [pc, #112]	; (8014118 <TIM8_BRK_TIM12_IRQHandler+0x360>)
 80140a6:	f8b0 c000 	ldrh.w	ip, [r0]
 80140aa:	880d      	ldrh	r5, [r1, #0]
 80140ac:	4f1b      	ldr	r7, [pc, #108]	; (801411c <TIM8_BRK_TIM12_IRQHandler+0x364>)
 80140ae:	2400      	movs	r4, #0
 80140b0:	e771      	b.n	8013f96 <TIM8_BRK_TIM12_IRQHandler+0x1de>
 80140b2:	4d1b      	ldr	r5, [pc, #108]	; (8014120 <TIM8_BRK_TIM12_IRQHandler+0x368>)
 80140b4:	682f      	ldr	r7, [r5, #0]
 80140b6:	2f01      	cmp	r7, #1
 80140b8:	d0ad      	beq.n	8014016 <TIM8_BRK_TIM12_IRQHandler+0x25e>
 80140ba:	b947      	cbnz	r7, 80140ce <TIM8_BRK_TIM12_IRQHandler+0x316>
 80140bc:	602c      	str	r4, [r5, #0]
 80140be:	e7aa      	b.n	8014016 <TIM8_BRK_TIM12_IRQHandler+0x25e>
 80140c0:	4f17      	ldr	r7, [pc, #92]	; (8014120 <TIM8_BRK_TIM12_IRQHandler+0x368>)
 80140c2:	683a      	ldr	r2, [r7, #0]
 80140c4:	2a02      	cmp	r2, #2
 80140c6:	d0c5      	beq.n	8014054 <TIM8_BRK_TIM12_IRQHandler+0x29c>
 80140c8:	b9ca      	cbnz	r2, 80140fe <TIM8_BRK_TIM12_IRQHandler+0x346>
 80140ca:	603c      	str	r4, [r7, #0]
 80140cc:	e7c2      	b.n	8014054 <TIM8_BRK_TIM12_IRQHandler+0x29c>
 80140ce:	2400      	movs	r4, #0
 80140d0:	601c      	str	r4, [r3, #0]
 80140d2:	4b14      	ldr	r3, [pc, #80]	; (8014124 <TIM8_BRK_TIM12_IRQHandler+0x36c>)
 80140d4:	7004      	strb	r4, [r0, #0]
 80140d6:	600c      	str	r4, [r1, #0]
 80140d8:	801c      	strh	r4, [r3, #0]
 80140da:	7014      	strb	r4, [r2, #0]
 80140dc:	6034      	str	r4, [r6, #0]
 80140de:	602c      	str	r4, [r5, #0]
 80140e0:	e679      	b.n	8013dd6 <TIM8_BRK_TIM12_IRQHandler+0x1e>
 80140e2:	2202      	movs	r2, #2
 80140e4:	4810      	ldr	r0, [pc, #64]	; (8014128 <TIM8_BRK_TIM12_IRQHandler+0x370>)
 80140e6:	6002      	str	r2, [r0, #0]
 80140e8:	e675      	b.n	8013dd6 <TIM8_BRK_TIM12_IRQHandler+0x1e>
 80140ea:	2200      	movs	r2, #0
 80140ec:	600a      	str	r2, [r1, #0]
 80140ee:	490d      	ldr	r1, [pc, #52]	; (8014124 <TIM8_BRK_TIM12_IRQHandler+0x36c>)
 80140f0:	7002      	strb	r2, [r0, #0]
 80140f2:	601a      	str	r2, [r3, #0]
 80140f4:	800a      	strh	r2, [r1, #0]
 80140f6:	702a      	strb	r2, [r5, #0]
 80140f8:	6032      	str	r2, [r6, #0]
 80140fa:	6022      	str	r2, [r4, #0]
 80140fc:	e66b      	b.n	8013dd6 <TIM8_BRK_TIM12_IRQHandler+0x1e>
 80140fe:	2200      	movs	r2, #0
 8014100:	7002      	strb	r2, [r0, #0]
 8014102:	4808      	ldr	r0, [pc, #32]	; (8014124 <TIM8_BRK_TIM12_IRQHandler+0x36c>)
 8014104:	601a      	str	r2, [r3, #0]
 8014106:	600a      	str	r2, [r1, #0]
 8014108:	8002      	strh	r2, [r0, #0]
 801410a:	702a      	strb	r2, [r5, #0]
 801410c:	6032      	str	r2, [r6, #0]
 801410e:	603a      	str	r2, [r7, #0]
 8014110:	e661      	b.n	8013dd6 <TIM8_BRK_TIM12_IRQHandler+0x1e>
 8014112:	bf00      	nop
 8014114:	10000018 	.word	0x10000018
 8014118:	10000016 	.word	0x10000016
 801411c:	1000001e 	.word	0x1000001e
 8014120:	10000dc8 	.word	0x10000dc8
 8014124:	10000db0 	.word	0x10000db0
 8014128:	10000db8 	.word	0x10000db8

0801412c <TIM1_UP_TIM10_IRQHandler>:
 801412c:	4668      	mov	r0, sp
 801412e:	f020 0107 	bic.w	r1, r0, #7
 8014132:	468d      	mov	sp, r1
 8014134:	b4f1      	push	{r0, r4, r5, r6, r7}
 8014136:	f44f 4388 	mov.w	r3, #17408	; 0x4400
 801413a:	f2c4 0301 	movt	r3, #16385	; 0x4001
 801413e:	4931      	ldr	r1, [pc, #196]	; (8014204 <TIM1_UP_TIM10_IRQHandler+0xd8>)
 8014140:	2200      	movs	r2, #0
 8014142:	611a      	str	r2, [r3, #16]
 8014144:	780b      	ldrb	r3, [r1, #0]
 8014146:	b923      	cbnz	r3, 8014152 <TIM1_UP_TIM10_IRQHandler+0x26>
 8014148:	f44f 7026 	mov.w	r0, #664	; 0x298
 801414c:	f2c4 2040 	movt	r0, #16960	; 0x4240
 8014150:	6003      	str	r3, [r0, #0]
 8014152:	482d      	ldr	r0, [pc, #180]	; (8014208 <TIM1_UP_TIM10_IRQHandler+0xdc>)
 8014154:	8804      	ldrh	r4, [r0, #0]
 8014156:	f404 4500 	and.w	r5, r4, #32768	; 0x8000
 801415a:	b2aa      	uxth	r2, r5
 801415c:	b1ea      	cbz	r2, 801419a <TIM1_UP_TIM10_IRQHandler+0x6e>
 801415e:	bf00      	nop
 8014160:	f44f 7227 	mov.w	r2, #668	; 0x29c
 8014164:	f2c4 2240 	movt	r2, #16960	; 0x4240
 8014168:	2501      	movs	r5, #1
 801416a:	6015      	str	r5, [r2, #0]
 801416c:	bf00      	nop
 801416e:	f44f 7228 	mov.w	r2, #672	; 0x2a0
 8014172:	f2c4 2241 	movt	r2, #16961	; 0x4241
 8014176:	2500      	movs	r5, #0
 8014178:	2b0f      	cmp	r3, #15
 801417a:	6015      	str	r5, [r2, #0]
 801417c:	d013      	beq.n	80141a6 <TIM1_UP_TIM10_IRQHandler+0x7a>
 801417e:	0064      	lsls	r4, r4, #1
 8014180:	3301      	adds	r3, #1
 8014182:	8004      	strh	r4, [r0, #0]
 8014184:	700b      	strb	r3, [r1, #0]
 8014186:	bf00      	nop
 8014188:	f44f 7028 	mov.w	r0, #672	; 0x2a0
 801418c:	f2c4 2041 	movt	r0, #16961	; 0x4241
 8014190:	2101      	movs	r1, #1
 8014192:	6001      	str	r1, [r0, #0]
 8014194:	bcf1      	pop	{r0, r4, r5, r6, r7}
 8014196:	4685      	mov	sp, r0
 8014198:	4770      	bx	lr
 801419a:	f44f 7527 	mov.w	r5, #668	; 0x29c
 801419e:	f2c4 2540 	movt	r5, #16960	; 0x4240
 80141a2:	602a      	str	r2, [r5, #0]
 80141a4:	e7e2      	b.n	801416c <TIM1_UP_TIM10_IRQHandler+0x40>
 80141a6:	4a19      	ldr	r2, [pc, #100]	; (801420c <TIM1_UP_TIM10_IRQHandler+0xe0>)
 80141a8:	6853      	ldr	r3, [r2, #4]
 80141aa:	b1cb      	cbz	r3, 80141e0 <TIM1_UP_TIM10_IRQHandler+0xb4>
 80141ac:	6814      	ldr	r4, [r2, #0]
 80141ae:	881e      	ldrh	r6, [r3, #0]
 80141b0:	b324      	cbz	r4, 80141fc <TIM1_UP_TIM10_IRQHandler+0xd0>
 80141b2:	4d16      	ldr	r5, [pc, #88]	; (801420c <TIM1_UP_TIM10_IRQHandler+0xe0>)
 80141b4:	3302      	adds	r3, #2
 80141b6:	f105 0718 	add.w	r7, r5, #24
 80141ba:	42bb      	cmp	r3, r7
 80141bc:	6053      	str	r3, [r2, #4]
 80141be:	bf04      	itt	eq
 80141c0:	f105 0308 	addeq.w	r3, r5, #8
 80141c4:	606b      	streq	r3, [r5, #4]
 80141c6:	42a3      	cmp	r3, r4
 80141c8:	d015      	beq.n	80141f6 <TIM1_UP_TIM10_IRQHandler+0xca>
 80141ca:	8006      	strh	r6, [r0, #0]
 80141cc:	2000      	movs	r0, #0
 80141ce:	7008      	strb	r0, [r1, #0]
 80141d0:	bf00      	nop
 80141d2:	f44f 7126 	mov.w	r1, #664	; 0x298
 80141d6:	f2c4 2140 	movt	r1, #16960	; 0x4240
 80141da:	2201      	movs	r2, #1
 80141dc:	600a      	str	r2, [r1, #0]
 80141de:	e7d2      	b.n	8014186 <TIM1_UP_TIM10_IRQHandler+0x5a>
 80141e0:	f44f 4000 	mov.w	r0, #32768	; 0x8000
 80141e4:	f44f 4288 	mov.w	r2, #17408	; 0x4400
 80141e8:	f2c4 2028 	movt	r0, #16936	; 0x4228
 80141ec:	f2c4 0201 	movt	r2, #16385	; 0x4001
 80141f0:	6003      	str	r3, [r0, #0]
 80141f2:	6253      	str	r3, [r2, #36]	; 0x24
 80141f4:	e7ea      	b.n	80141cc <TIM1_UP_TIM10_IRQHandler+0xa0>
 80141f6:	2300      	movs	r3, #0
 80141f8:	6053      	str	r3, [r2, #4]
 80141fa:	e7e6      	b.n	80141ca <TIM1_UP_TIM10_IRQHandler+0x9e>
 80141fc:	6013      	str	r3, [r2, #0]
 80141fe:	461c      	mov	r4, r3
 8014200:	e7d7      	b.n	80141b2 <TIM1_UP_TIM10_IRQHandler+0x86>
 8014202:	bf00      	nop
 8014204:	10000de6 	.word	0x10000de6
 8014208:	10000de4 	.word	0x10000de4
 801420c:	10000dcc 	.word	0x10000dcc

08014210 <_ZN6detail9dac_setupEv>:
 8014210:	f44f 5160 	mov.w	r1, #14336	; 0x3800
 8014214:	f2c4 0102 	movt	r1, #16386	; 0x4002
 8014218:	2300      	movs	r3, #0
 801421a:	6b08      	ldr	r0, [r1, #48]	; 0x30
 801421c:	4a8f      	ldr	r2, [pc, #572]	; (801445c <_ZN6detail9dac_setupEv+0x24c>)
 801421e:	f2c4 0302 	movt	r3, #16386	; 0x4002
 8014222:	b430      	push	{r4, r5}
 8014224:	f040 0401 	orr.w	r4, r0, #1
 8014228:	630c      	str	r4, [r1, #48]	; 0x30
 801422a:	681d      	ldr	r5, [r3, #0]
 801422c:	f425 5040 	bic.w	r0, r5, #12288	; 0x3000
 8014230:	f440 5480 	orr.w	r4, r0, #4096	; 0x1000
 8014234:	601c      	str	r4, [r3, #0]
 8014236:	685d      	ldr	r5, [r3, #4]
 8014238:	f025 0040 	bic.w	r0, r5, #64	; 0x40
 801423c:	6058      	str	r0, [r3, #4]
 801423e:	689c      	ldr	r4, [r3, #8]
 8014240:	f424 5540 	bic.w	r5, r4, #12288	; 0x3000
 8014244:	f445 5000 	orr.w	r0, r5, #8192	; 0x2000
 8014248:	6098      	str	r0, [r3, #8]
 801424a:	68dc      	ldr	r4, [r3, #12]
 801424c:	f424 5540 	bic.w	r5, r4, #12288	; 0x3000
 8014250:	60dd      	str	r5, [r3, #12]
 8014252:	6958      	ldr	r0, [r3, #20]
 8014254:	f040 0440 	orr.w	r4, r0, #64	; 0x40
 8014258:	615c      	str	r4, [r3, #20]
 801425a:	6b0d      	ldr	r5, [r1, #48]	; 0x30
 801425c:	f045 0001 	orr.w	r0, r5, #1
 8014260:	6308      	str	r0, [r1, #48]	; 0x30
 8014262:	681c      	ldr	r4, [r3, #0]
 8014264:	f424 4540 	bic.w	r5, r4, #49152	; 0xc000
 8014268:	f445 4080 	orr.w	r0, r5, #16384	; 0x4000
 801426c:	6018      	str	r0, [r3, #0]
 801426e:	685c      	ldr	r4, [r3, #4]
 8014270:	f024 0580 	bic.w	r5, r4, #128	; 0x80
 8014274:	605d      	str	r5, [r3, #4]
 8014276:	6898      	ldr	r0, [r3, #8]
 8014278:	f420 4440 	bic.w	r4, r0, #49152	; 0xc000
 801427c:	f444 4500 	orr.w	r5, r4, #32768	; 0x8000
 8014280:	609d      	str	r5, [r3, #8]
 8014282:	68d8      	ldr	r0, [r3, #12]
 8014284:	f420 4440 	bic.w	r4, r0, #49152	; 0xc000
 8014288:	60dc      	str	r4, [r3, #12]
 801428a:	695d      	ldr	r5, [r3, #20]
 801428c:	f025 0080 	bic.w	r0, r5, #128	; 0x80
 8014290:	6158      	str	r0, [r3, #20]
 8014292:	6b0c      	ldr	r4, [r1, #48]	; 0x30
 8014294:	f44f 6300 	mov.w	r3, #2048	; 0x800
 8014298:	f2c4 0302 	movt	r3, #16386	; 0x4002
 801429c:	f044 0504 	orr.w	r5, r4, #4
 80142a0:	630d      	str	r5, [r1, #48]	; 0x30
 80142a2:	6818      	ldr	r0, [r3, #0]
 80142a4:	f420 3440 	bic.w	r4, r0, #196608	; 0x30000
 80142a8:	f444 3580 	orr.w	r5, r4, #65536	; 0x10000
 80142ac:	601d      	str	r5, [r3, #0]
 80142ae:	6858      	ldr	r0, [r3, #4]
 80142b0:	f420 7480 	bic.w	r4, r0, #256	; 0x100
 80142b4:	605c      	str	r4, [r3, #4]
 80142b6:	689d      	ldr	r5, [r3, #8]
 80142b8:	f425 3040 	bic.w	r0, r5, #196608	; 0x30000
 80142bc:	f440 3400 	orr.w	r4, r0, #131072	; 0x20000
 80142c0:	609c      	str	r4, [r3, #8]
 80142c2:	68dd      	ldr	r5, [r3, #12]
 80142c4:	f425 3040 	bic.w	r0, r5, #196608	; 0x30000
 80142c8:	60d8      	str	r0, [r3, #12]
 80142ca:	695c      	ldr	r4, [r3, #20]
 80142cc:	f444 7580 	orr.w	r5, r4, #256	; 0x100
 80142d0:	615d      	str	r5, [r3, #20]
 80142d2:	6c4d      	ldr	r5, [r1, #68]	; 0x44
 80142d4:	f44f 4388 	mov.w	r3, #17408	; 0x4400
 80142d8:	f2c4 0301 	movt	r3, #16385	; 0x4001
 80142dc:	f445 3500 	orr.w	r5, r5, #131072	; 0x20000
 80142e0:	644d      	str	r5, [r1, #68]	; 0x44
 80142e2:	f44f 4461 	mov.w	r4, #57600	; 0xe100
 80142e6:	2504      	movs	r5, #4
 80142e8:	601d      	str	r5, [r3, #0]
 80142ea:	2000      	movs	r0, #0
 80142ec:	f2ce 0400 	movt	r4, #57344	; 0xe000
 80142f0:	f44f 65d2 	mov.w	r5, #1680	; 0x690
 80142f4:	62dd      	str	r5, [r3, #44]	; 0x2c
 80142f6:	6258      	str	r0, [r3, #36]	; 0x24
 80142f8:	6118      	str	r0, [r3, #16]
 80142fa:	23f0      	movs	r3, #240	; 0xf0
 80142fc:	f884 3319 	strb.w	r3, [r4, #793]	; 0x319
 8014300:	f248 1180 	movw	r1, #33152	; 0x8180
 8014304:	6813      	ldr	r3, [r2, #0]
 8014306:	f2c4 2128 	movt	r1, #16936	; 0x4228
 801430a:	f04f 7500 	mov.w	r5, #33554432	; 0x2000000
 801430e:	6025      	str	r5, [r4, #0]
 8014310:	6008      	str	r0, [r1, #0]
 8014312:	b193      	cbz	r3, 801433a <_ZN6detail9dac_setupEv+0x12a>
 8014314:	6851      	ldr	r1, [r2, #4]
 8014316:	f24c 24d0 	movw	r4, #49872	; 0xc2d0
 801431a:	801c      	strh	r4, [r3, #0]
 801431c:	2900      	cmp	r1, #0
 801431e:	f000 808d 	beq.w	801443c <_ZN6detail9dac_setupEv+0x22c>
 8014322:	484e      	ldr	r0, [pc, #312]	; (801445c <_ZN6detail9dac_setupEv+0x24c>)
 8014324:	3302      	adds	r3, #2
 8014326:	f100 0418 	add.w	r4, r0, #24
 801432a:	42a3      	cmp	r3, r4
 801432c:	6013      	str	r3, [r2, #0]
 801432e:	bf04      	itt	eq
 8014330:	f100 0308 	addeq.w	r3, r0, #8
 8014334:	6003      	streq	r3, [r0, #0]
 8014336:	4299      	cmp	r1, r3
 8014338:	d074      	beq.n	8014424 <_ZN6detail9dac_setupEv+0x214>
 801433a:	bf00      	nop
 801433c:	f44f 4100 	mov.w	r1, #32768	; 0x8000
 8014340:	f2c4 2128 	movt	r1, #16936	; 0x4228
 8014344:	2001      	movs	r0, #1
 8014346:	6008      	str	r0, [r1, #0]
 8014348:	bf00      	nop
 801434a:	f248 1180 	movw	r1, #33152	; 0x8180
 801434e:	f2c4 2128 	movt	r1, #16936	; 0x4228
 8014352:	6008      	str	r0, [r1, #0]
 8014354:	2000      	movs	r0, #0
 8014356:	6008      	str	r0, [r1, #0]
 8014358:	b18b      	cbz	r3, 801437e <_ZN6detail9dac_setupEv+0x16e>
 801435a:	6851      	ldr	r1, [r2, #4]
 801435c:	f248 4460 	movw	r4, #33888	; 0x8460
 8014360:	801c      	strh	r4, [r3, #0]
 8014362:	2900      	cmp	r1, #0
 8014364:	d06d      	beq.n	8014442 <_ZN6detail9dac_setupEv+0x232>
 8014366:	483d      	ldr	r0, [pc, #244]	; (801445c <_ZN6detail9dac_setupEv+0x24c>)
 8014368:	3302      	adds	r3, #2
 801436a:	f100 0418 	add.w	r4, r0, #24
 801436e:	42a3      	cmp	r3, r4
 8014370:	6013      	str	r3, [r2, #0]
 8014372:	bf04      	itt	eq
 8014374:	f100 0308 	addeq.w	r3, r0, #8
 8014378:	6003      	streq	r3, [r0, #0]
 801437a:	4299      	cmp	r1, r3
 801437c:	d055      	beq.n	801442a <_ZN6detail9dac_setupEv+0x21a>
 801437e:	bf00      	nop
 8014380:	f44f 4100 	mov.w	r1, #32768	; 0x8000
 8014384:	f2c4 2128 	movt	r1, #16936	; 0x4228
 8014388:	2001      	movs	r0, #1
 801438a:	6008      	str	r0, [r1, #0]
 801438c:	bf00      	nop
 801438e:	f248 1180 	movw	r1, #33152	; 0x8180
 8014392:	f2c4 2128 	movt	r1, #16936	; 0x4228
 8014396:	6008      	str	r0, [r1, #0]
 8014398:	2000      	movs	r0, #0
 801439a:	6008      	str	r0, [r1, #0]
 801439c:	b18b      	cbz	r3, 80143c2 <_ZN6detail9dac_setupEv+0x1b2>
 801439e:	6851      	ldr	r1, [r2, #4]
 80143a0:	f644 3410 	movw	r4, #19216	; 0x4b10
 80143a4:	801c      	strh	r4, [r3, #0]
 80143a6:	2900      	cmp	r1, #0
 80143a8:	d053      	beq.n	8014452 <_ZN6detail9dac_setupEv+0x242>
 80143aa:	482c      	ldr	r0, [pc, #176]	; (801445c <_ZN6detail9dac_setupEv+0x24c>)
 80143ac:	3302      	adds	r3, #2
 80143ae:	f100 0418 	add.w	r4, r0, #24
 80143b2:	42a3      	cmp	r3, r4
 80143b4:	6013      	str	r3, [r2, #0]
 80143b6:	bf04      	itt	eq
 80143b8:	f100 0308 	addeq.w	r3, r0, #8
 80143bc:	6003      	streq	r3, [r0, #0]
 80143be:	4299      	cmp	r1, r3
 80143c0:	d036      	beq.n	8014430 <_ZN6detail9dac_setupEv+0x220>
 80143c2:	bf00      	nop
 80143c4:	f44f 4100 	mov.w	r1, #32768	; 0x8000
 80143c8:	f2c4 2128 	movt	r1, #16936	; 0x4228
 80143cc:	2001      	movs	r0, #1
 80143ce:	6008      	str	r0, [r1, #0]
 80143d0:	bf00      	nop
 80143d2:	f248 1180 	movw	r1, #33152	; 0x8180
 80143d6:	f2c4 2128 	movt	r1, #16936	; 0x4228
 80143da:	6008      	str	r0, [r1, #0]
 80143dc:	2000      	movs	r0, #0
 80143de:	6008      	str	r0, [r1, #0]
 80143e0:	b18b      	cbz	r3, 8014406 <_ZN6detail9dac_setupEv+0x1f6>
 80143e2:	6851      	ldr	r1, [r2, #4]
 80143e4:	f44f 54be 	mov.w	r4, #6080	; 0x17c0
 80143e8:	801c      	strh	r4, [r3, #0]
 80143ea:	2900      	cmp	r1, #0
 80143ec:	d02d      	beq.n	801444a <_ZN6detail9dac_setupEv+0x23a>
 80143ee:	481b      	ldr	r0, [pc, #108]	; (801445c <_ZN6detail9dac_setupEv+0x24c>)
 80143f0:	3302      	adds	r3, #2
 80143f2:	f100 0418 	add.w	r4, r0, #24
 80143f6:	42a3      	cmp	r3, r4
 80143f8:	6013      	str	r3, [r2, #0]
 80143fa:	bf04      	itt	eq
 80143fc:	f100 0308 	addeq.w	r3, r0, #8
 8014400:	6003      	streq	r3, [r0, #0]
 8014402:	4299      	cmp	r1, r3
 8014404:	d017      	beq.n	8014436 <_ZN6detail9dac_setupEv+0x226>
 8014406:	bf00      	nop
 8014408:	f44f 4000 	mov.w	r0, #32768	; 0x8000
 801440c:	f2c4 2028 	movt	r0, #16936	; 0x4228
 8014410:	2201      	movs	r2, #1
 8014412:	6002      	str	r2, [r0, #0]
 8014414:	bf00      	nop
 8014416:	f248 1380 	movw	r3, #33152	; 0x8180
 801441a:	f2c4 2328 	movt	r3, #16936	; 0x4228
 801441e:	601a      	str	r2, [r3, #0]
 8014420:	bc30      	pop	{r4, r5}
 8014422:	4770      	bx	lr
 8014424:	2300      	movs	r3, #0
 8014426:	6013      	str	r3, [r2, #0]
 8014428:	e787      	b.n	801433a <_ZN6detail9dac_setupEv+0x12a>
 801442a:	2300      	movs	r3, #0
 801442c:	6013      	str	r3, [r2, #0]
 801442e:	e7a6      	b.n	801437e <_ZN6detail9dac_setupEv+0x16e>
 8014430:	2300      	movs	r3, #0
 8014432:	6013      	str	r3, [r2, #0]
 8014434:	e7c5      	b.n	80143c2 <_ZN6detail9dac_setupEv+0x1b2>
 8014436:	2100      	movs	r1, #0
 8014438:	6011      	str	r1, [r2, #0]
 801443a:	e7e4      	b.n	8014406 <_ZN6detail9dac_setupEv+0x1f6>
 801443c:	6053      	str	r3, [r2, #4]
 801443e:	4619      	mov	r1, r3
 8014440:	e76f      	b.n	8014322 <_ZN6detail9dac_setupEv+0x112>
 8014442:	4906      	ldr	r1, [pc, #24]	; (801445c <_ZN6detail9dac_setupEv+0x24c>)
 8014444:	604b      	str	r3, [r1, #4]
 8014446:	4619      	mov	r1, r3
 8014448:	e78d      	b.n	8014366 <_ZN6detail9dac_setupEv+0x156>
 801444a:	4904      	ldr	r1, [pc, #16]	; (801445c <_ZN6detail9dac_setupEv+0x24c>)
 801444c:	604b      	str	r3, [r1, #4]
 801444e:	4619      	mov	r1, r3
 8014450:	e7cd      	b.n	80143ee <_ZN6detail9dac_setupEv+0x1de>
 8014452:	4902      	ldr	r1, [pc, #8]	; (801445c <_ZN6detail9dac_setupEv+0x24c>)
 8014454:	604b      	str	r3, [r1, #4]
 8014456:	4619      	mov	r1, r3
 8014458:	e7a7      	b.n	80143aa <_ZN6detail9dac_setupEv+0x19a>
 801445a:	bf00      	nop
 801445c:	10000dcc 	.word	0x10000dcc

08014460 <_GLOBAL__sub_I_TIM1_UP_TIM10_IRQHandler>:
 8014460:	f640 53cc 	movw	r3, #3532	; 0xdcc
 8014464:	f2c1 0300 	movt	r3, #4096	; 0x1000
 8014468:	f103 0208 	add.w	r2, r3, #8
 801446c:	2000      	movs	r0, #0
 801446e:	601a      	str	r2, [r3, #0]
 8014470:	6058      	str	r0, [r3, #4]
 8014472:	4770      	bx	lr

08014474 <_ZN6detail10setup_ledsEv>:
 8014474:	f44f 5260 	mov.w	r2, #14336	; 0x3800
 8014478:	f2c4 0202 	movt	r2, #16386	; 0x4002
 801447c:	f44f 6380 	mov.w	r3, #1024	; 0x400
 8014480:	6b11      	ldr	r1, [r2, #48]	; 0x30
 8014482:	f2c4 0302 	movt	r3, #16386	; 0x4002
 8014486:	f041 0002 	orr.w	r0, r1, #2
 801448a:	6310      	str	r0, [r2, #48]	; 0x30
 801448c:	681a      	ldr	r2, [r3, #0]
 801448e:	f022 7140 	bic.w	r1, r2, #50331648	; 0x3000000
 8014492:	f041 7080 	orr.w	r0, r1, #16777216	; 0x1000000
 8014496:	6018      	str	r0, [r3, #0]
 8014498:	685a      	ldr	r2, [r3, #4]
 801449a:	f422 5180 	bic.w	r1, r2, #4096	; 0x1000
 801449e:	6059      	str	r1, [r3, #4]
 80144a0:	6898      	ldr	r0, [r3, #8]
 80144a2:	f020 7240 	bic.w	r2, r0, #50331648	; 0x3000000
 80144a6:	609a      	str	r2, [r3, #8]
 80144a8:	68d9      	ldr	r1, [r3, #12]
 80144aa:	f021 7040 	bic.w	r0, r1, #50331648	; 0x3000000
 80144ae:	60d8      	str	r0, [r3, #12]
 80144b0:	695a      	ldr	r2, [r3, #20]
 80144b2:	f422 5180 	bic.w	r1, r2, #4096	; 0x1000
 80144b6:	6159      	str	r1, [r3, #20]
 80144b8:	4770      	bx	lr
 80144ba:	bf00      	nop

080144bc <NVIC_PriorityGroupConfig>:
 80144bc:	f44f 436d 	mov.w	r3, #60672	; 0xed00
 80144c0:	f040 60bf 	orr.w	r0, r0, #100139008	; 0x5f80000
 80144c4:	f2ce 0300 	movt	r3, #57344	; 0xe000
 80144c8:	f440 3100 	orr.w	r1, r0, #131072	; 0x20000
 80144cc:	60d9      	str	r1, [r3, #12]
 80144ce:	4770      	bx	lr

080144d0 <_ZN13video_buffers4initEv>:
 80144d0:	4b67      	ldr	r3, [pc, #412]	; (8014670 <_ZN13video_buffers4initEv+0x1a0>)
 80144d2:	f5b3 1f80 	cmp.w	r3, #1048576	; 0x100000
 80144d6:	e92d 41f0 	stmdb	sp!, {r4, r5, r6, r7, r8, lr}
 80144da:	f080 80bd 	bcs.w	8014658 <_ZN13video_buffers4initEv+0x188>
 80144de:	4865      	ldr	r0, [pc, #404]	; (8014674 <_ZN13video_buffers4initEv+0x1a4>)
 80144e0:	0142      	lsls	r2, r0, #5
 80144e2:	4c65      	ldr	r4, [pc, #404]	; (8014678 <_ZN13video_buffers4initEv+0x1a8>)
 80144e4:	4965      	ldr	r1, [pc, #404]	; (801467c <_ZN13video_buffers4initEv+0x1ac>)
 80144e6:	f5b4 1f80 	cmp.w	r4, #1048576	; 0x100000
 80144ea:	600a      	str	r2, [r1, #0]
 80144ec:	f080 80b8 	bcs.w	8014660 <_ZN13video_buffers4initEv+0x190>
 80144f0:	4e63      	ldr	r6, [pc, #396]	; (8014680 <_ZN13video_buffers4initEv+0x1b0>)
 80144f2:	0175      	lsls	r5, r6, #5
 80144f4:	4b63      	ldr	r3, [pc, #396]	; (8014684 <_ZN13video_buffers4initEv+0x1b4>)
 80144f6:	4f64      	ldr	r7, [pc, #400]	; (8014688 <_ZN13video_buffers4initEv+0x1b8>)
 80144f8:	f5b3 1f80 	cmp.w	r3, #1048576	; 0x100000
 80144fc:	603d      	str	r5, [r7, #0]
 80144fe:	f080 80ad 	bcs.w	801465c <_ZN13video_buffers4initEv+0x18c>
 8014502:	4862      	ldr	r0, [pc, #392]	; (801468c <_ZN13video_buffers4initEv+0x1bc>)
 8014504:	0142      	lsls	r2, r0, #5
 8014506:	4c62      	ldr	r4, [pc, #392]	; (8014690 <_ZN13video_buffers4initEv+0x1c0>)
 8014508:	4962      	ldr	r1, [pc, #392]	; (8014694 <_ZN13video_buffers4initEv+0x1c4>)
 801450a:	f5b4 1f80 	cmp.w	r4, #1048576	; 0x100000
 801450e:	600a      	str	r2, [r1, #0]
 8014510:	f080 80a8 	bcs.w	8014664 <_ZN13video_buffers4initEv+0x194>
 8014514:	4e60      	ldr	r6, [pc, #384]	; (8014698 <_ZN13video_buffers4initEv+0x1c8>)
 8014516:	0175      	lsls	r5, r6, #5
 8014518:	4b60      	ldr	r3, [pc, #384]	; (801469c <_ZN13video_buffers4initEv+0x1cc>)
 801451a:	4f61      	ldr	r7, [pc, #388]	; (80146a0 <_ZN13video_buffers4initEv+0x1d0>)
 801451c:	8818      	ldrh	r0, [r3, #0]
 801451e:	883a      	ldrh	r2, [r7, #0]
 8014520:	4c60      	ldr	r4, [pc, #384]	; (80146a4 <_ZN13video_buffers4initEv+0x1d4>)
 8014522:	4e61      	ldr	r6, [pc, #388]	; (80146a8 <_ZN13video_buffers4initEv+0x1d8>)
 8014524:	6025      	str	r5, [r4, #0]
 8014526:	1a11      	subs	r1, r2, r0
 8014528:	f64f 77f8 	movw	r7, #65528	; 0xfff8
 801452c:	400f      	ands	r7, r1
 801452e:	f7ff fba3 	bl	8013c78 <_ZN9video_cfg14get_video_modeEv>
 8014532:	2801      	cmp	r0, #1
 8014534:	bf0c      	ite	eq
 8014536:	4d5d      	ldreq	r5, [pc, #372]	; (80146ac <_ZN13video_buffers4initEv+0x1dc>)
 8014538:	4d5d      	ldrne	r5, [pc, #372]	; (80146b0 <_ZN13video_buffers4initEv+0x1e0>)
 801453a:	8832      	ldrh	r2, [r6, #0]
 801453c:	8829      	ldrh	r1, [r5, #0]
 801453e:	4e5d      	ldr	r6, [pc, #372]	; (80146b4 <_ZN13video_buffers4initEv+0x1e4>)
 8014540:	4d5d      	ldr	r5, [pc, #372]	; (80146b8 <_ZN13video_buffers4initEv+0x1e8>)
 8014542:	6037      	str	r7, [r6, #0]
 8014544:	1a8b      	subs	r3, r1, r2
 8014546:	08ff      	lsrs	r7, r7, #3
 8014548:	f3c3 034e 	ubfx	r3, r3, #1, #15
 801454c:	6828      	ldr	r0, [r5, #0]
 801454e:	6073      	str	r3, [r6, #4]
 8014550:	1c79      	adds	r1, r7, #1
 8014552:	fb03 1701 	mla	r7, r3, r1, r1
 8014556:	463a      	mov	r2, r7
 8014558:	21ff      	movs	r1, #255	; 0xff
 801455a:	3004      	adds	r0, #4
 801455c:	f001 f9aa 	bl	80158b4 <memset>
 8014560:	682a      	ldr	r2, [r5, #0]
 8014562:	4c56      	ldr	r4, [pc, #344]	; (80146bc <_ZN13video_buffers4initEv+0x1ec>)
 8014564:	f502 5050 	add.w	r0, r2, #13312	; 0x3400
 8014568:	21ff      	movs	r1, #255	; 0xff
 801456a:	463a      	mov	r2, r7
 801456c:	3004      	adds	r0, #4
 801456e:	f001 f9a1 	bl	80158b4 <memset>
 8014572:	ce48      	ldmia	r6, {r3, r6}
 8014574:	686f      	ldr	r7, [r5, #4]
 8014576:	08db      	lsrs	r3, r3, #3
 8014578:	3601      	adds	r6, #1
 801457a:	fb03 6606 	mla	r6, r3, r6, r6
 801457e:	21ff      	movs	r1, #255	; 0xff
 8014580:	4632      	mov	r2, r6
 8014582:	1d38      	adds	r0, r7, #4
 8014584:	f001 f996 	bl	80158b4 <memset>
 8014588:	6869      	ldr	r1, [r5, #4]
 801458a:	f501 5250 	add.w	r2, r1, #13312	; 0x3400
 801458e:	1d10      	adds	r0, r2, #4
 8014590:	21ff      	movs	r1, #255	; 0xff
 8014592:	4632      	mov	r2, r6
 8014594:	f001 f98e 	bl	80158b4 <memset>
 8014598:	4849      	ldr	r0, [pc, #292]	; (80146c0 <_ZN13video_buffers4initEv+0x1f0>)
 801459a:	4b4a      	ldr	r3, [pc, #296]	; (80146c4 <_ZN13video_buffers4initEv+0x1f4>)
 801459c:	494a      	ldr	r1, [pc, #296]	; (80146c8 <_ZN13video_buffers4initEv+0x1f8>)
 801459e:	4a4b      	ldr	r2, [pc, #300]	; (80146cc <_ZN13video_buffers4initEv+0x1fc>)
 80145a0:	881e      	ldrh	r6, [r3, #0]
 80145a2:	8807      	ldrh	r7, [r0, #0]
 80145a4:	8808      	ldrh	r0, [r1, #0]
 80145a6:	8811      	ldrh	r1, [r2, #0]
 80145a8:	1bbf      	subs	r7, r7, r6
 80145aa:	1a46      	subs	r6, r0, r1
 80145ac:	2100      	movs	r1, #0
 80145ae:	60a9      	str	r1, [r5, #8]
 80145b0:	4d47      	ldr	r5, [pc, #284]	; (80146d0 <_ZN13video_buffers4initEv+0x200>)
 80145b2:	b2bb      	uxth	r3, r7
 80145b4:	b2b2      	uxth	r2, r6
 80145b6:	f5b5 1f80 	cmp.w	r5, #1048576	; 0x100000
 80145ba:	6023      	str	r3, [r4, #0]
 80145bc:	6062      	str	r2, [r4, #4]
 80145be:	d255      	bcs.n	801466c <_ZN13video_buffers4initEv+0x19c>
 80145c0:	4f44      	ldr	r7, [pc, #272]	; (80146d4 <_ZN13video_buffers4initEv+0x204>)
 80145c2:	0178      	lsls	r0, r7, #5
 80145c4:	4944      	ldr	r1, [pc, #272]	; (80146d8 <_ZN13video_buffers4initEv+0x208>)
 80145c6:	4e45      	ldr	r6, [pc, #276]	; (80146dc <_ZN13video_buffers4initEv+0x20c>)
 80145c8:	f5b1 1f80 	cmp.w	r1, #1048576	; 0x100000
 80145cc:	6030      	str	r0, [r6, #0]
 80145ce:	d24b      	bcs.n	8014668 <_ZN13video_buffers4initEv+0x198>
 80145d0:	4843      	ldr	r0, [pc, #268]	; (80146e0 <_ZN13video_buffers4initEv+0x210>)
 80145d2:	0145      	lsls	r5, r0, #5
 80145d4:	4f43      	ldr	r7, [pc, #268]	; (80146e4 <_ZN13video_buffers4initEv+0x214>)
 80145d6:	f8c6 5100 	str.w	r5, [r6, #256]	; 0x100
 80145da:	f013 0107 	ands.w	r1, r3, #7
 80145de:	bf18      	it	ne
 80145e0:	2101      	movne	r1, #1
 80145e2:	687d      	ldr	r5, [r7, #4]
 80145e4:	4e40      	ldr	r6, [pc, #256]	; (80146e8 <_ZN13video_buffers4initEv+0x218>)
 80145e6:	eb01 03d3 	add.w	r3, r1, r3, lsr #3
 80145ea:	fb02 f203 	mul.w	r2, r2, r3
 80145ee:	21ff      	movs	r1, #255	; 0xff
 80145f0:	1d28      	adds	r0, r5, #4
 80145f2:	f001 f95f 	bl	80158b4 <memset>
 80145f6:	6821      	ldr	r1, [r4, #0]
 80145f8:	6878      	ldr	r0, [r7, #4]
 80145fa:	6862      	ldr	r2, [r4, #4]
 80145fc:	f011 0507 	ands.w	r5, r1, #7
 8014600:	bf18      	it	ne
 8014602:	2501      	movne	r5, #1
 8014604:	eb05 03d1 	add.w	r3, r5, r1, lsr #3
 8014608:	fb02 f203 	mul.w	r2, r2, r3
 801460c:	21ff      	movs	r1, #255	; 0xff
 801460e:	3004      	adds	r0, #4
 8014610:	f001 f950 	bl	80158b4 <memset>
 8014614:	6821      	ldr	r1, [r4, #0]
 8014616:	6863      	ldr	r3, [r4, #4]
 8014618:	6830      	ldr	r0, [r6, #0]
 801461a:	f64c 48cd 	movw	r8, #52429	; 0xcccd
 801461e:	f6cc 48cc 	movt	r8, #52428	; 0xcccc
 8014622:	3908      	subs	r1, #8
 8014624:	fba8 1201 	umull	r1, r2, r8, r1
 8014628:	2500      	movs	r5, #0
 801462a:	08d2      	lsrs	r2, r2, #3
 801462c:	fb03 f202 	mul.w	r2, r3, r2
 8014630:	4629      	mov	r1, r5
 8014632:	60bd      	str	r5, [r7, #8]
 8014634:	f001 f93e 	bl	80158b4 <memset>
 8014638:	6821      	ldr	r1, [r4, #0]
 801463a:	6863      	ldr	r3, [r4, #4]
 801463c:	6870      	ldr	r0, [r6, #4]
 801463e:	3908      	subs	r1, #8
 8014640:	fba8 1c01 	umull	r1, ip, r8, r1
 8014644:	ea4f 08dc 	mov.w	r8, ip, lsr #3
 8014648:	4629      	mov	r1, r5
 801464a:	fb03 f208 	mul.w	r2, r3, r8
 801464e:	f001 f931 	bl	80158b4 <memset>
 8014652:	60b5      	str	r5, [r6, #8]
 8014654:	e8bd 81f0 	ldmia.w	sp!, {r4, r5, r6, r7, r8, pc}
 8014658:	2200      	movs	r2, #0
 801465a:	e742      	b.n	80144e2 <_ZN13video_buffers4initEv+0x12>
 801465c:	2200      	movs	r2, #0
 801465e:	e752      	b.n	8014506 <_ZN13video_buffers4initEv+0x36>
 8014660:	2500      	movs	r5, #0
 8014662:	e747      	b.n	80144f4 <_ZN13video_buffers4initEv+0x24>
 8014664:	2500      	movs	r5, #0
 8014666:	e757      	b.n	8014518 <_ZN13video_buffers4initEv+0x48>
 8014668:	2500      	movs	r5, #0
 801466a:	e7b3      	b.n	80145d4 <_ZN13video_buffers4initEv+0x104>
 801466c:	4608      	mov	r0, r1
 801466e:	e7a9      	b.n	80145c4 <_ZN13video_buffers4initEv+0xf4>
 8014670:	00012004 	.word	0x00012004
 8014674:	21112004 	.word	0x21112004
 8014678:	00015404 	.word	0x00015404
 801467c:	20012000 	.word	0x20012000
 8014680:	21115404 	.word	0x21115404
 8014684:	00018804 	.word	0x00018804
 8014688:	20015400 	.word	0x20015400
 801468c:	21118804 	.word	0x21118804
 8014690:	0001bc04 	.word	0x0001bc04
 8014694:	20018800 	.word	0x20018800
 8014698:	2111bc04 	.word	0x2111bc04
 801469c:	10000016 	.word	0x10000016
 80146a0:	10000018 	.word	0x10000018
 80146a4:	2001bc00 	.word	0x2001bc00
 80146a8:	10000022 	.word	0x10000022
 80146ac:	1000001e 	.word	0x1000001e
 80146b0:	1000001a 	.word	0x1000001a
 80146b4:	10000e20 	.word	0x10000e20
 80146b8:	10000e00 	.word	0x10000e00
 80146bc:	10000df8 	.word	0x10000df8
 80146c0:	10000014 	.word	0x10000014
 80146c4:	10000012 	.word	0x10000012
 80146c8:	10000020 	.word	0x10000020
 80146cc:	1000001c 	.word	0x1000001c
 80146d0:	0001f004 	.word	0x0001f004
 80146d4:	2111f004 	.word	0x2111f004
 80146d8:	0001f104 	.word	0x0001f104
 80146dc:	2001f000 	.word	0x2001f000
 80146e0:	2111f104 	.word	0x2111f104
 80146e4:	10000e10 	.word	0x10000e10
 80146e8:	10000de8 	.word	0x10000de8

080146ec <_GLOBAL__sub_I__ZN13video_buffers3osd9m_buffersE>:
 80146ec:	e92d 01f0 	stmdb	sp!, {r4, r5, r6, r7, r8}
 80146f0:	f640 6110 	movw	r1, #3600	; 0xe10
 80146f4:	f640 6400 	movw	r4, #3584	; 0xe00
 80146f8:	f242 0500 	movw	r5, #8192	; 0x2000
 80146fc:	f24f 0000 	movw	r0, #61440	; 0xf000
 8014700:	f640 53e8 	movw	r3, #3560	; 0xde8
 8014704:	f2c1 0400 	movt	r4, #4096	; 0x1000
 8014708:	f2c1 0100 	movt	r1, #4096	; 0x1000
 801470c:	f2c2 0001 	movt	r0, #8193	; 0x2001
 8014710:	f2c1 0300 	movt	r3, #4096	; 0x1000
 8014714:	f2c2 0501 	movt	r5, #8193	; 0x2001
 8014718:	2200      	movs	r2, #0
 801471a:	f505 48d0 	add.w	r8, r5, #26624	; 0x6800
 801471e:	f500 7c80 	add.w	ip, r0, #256	; 0x100
 8014722:	f500 7700 	add.w	r7, r0, #512	; 0x200
 8014726:	f500 6600 	add.w	r6, r0, #2048	; 0x800
 801472a:	6025      	str	r5, [r4, #0]
 801472c:	60a2      	str	r2, [r4, #8]
 801472e:	f8c4 8004 	str.w	r8, [r4, #4]
 8014732:	608a      	str	r2, [r1, #8]
 8014734:	7322      	strb	r2, [r4, #12]
 8014736:	609a      	str	r2, [r3, #8]
 8014738:	6008      	str	r0, [r1, #0]
 801473a:	f8c1 c004 	str.w	ip, [r1, #4]
 801473e:	730a      	strb	r2, [r1, #12]
 8014740:	601f      	str	r7, [r3, #0]
 8014742:	605e      	str	r6, [r3, #4]
 8014744:	731a      	strb	r2, [r3, #12]
 8014746:	e8bd 01f0 	ldmia.w	sp!, {r4, r5, r6, r7, r8}
 801474a:	4770      	bx	lr

0801474c <_ZN6detail26create_osd_swap_semaphoresEv>:
 801474c:	b508      	push	{r3, lr}
 801474e:	2100      	movs	r1, #0
 8014750:	2203      	movs	r2, #3
 8014752:	2001      	movs	r0, #1
 8014754:	f7fe fb3a 	bl	8012dcc <xQueueGenericCreate>
 8014758:	f640 6330 	movw	r3, #3632	; 0xe30
 801475c:	f2c1 0300 	movt	r3, #4096	; 0x1000
 8014760:	2100      	movs	r1, #0
 8014762:	6018      	str	r0, [r3, #0]
 8014764:	2203      	movs	r2, #3
 8014766:	2001      	movs	r0, #1
 8014768:	f7fe fb30 	bl	8012dcc <xQueueGenericCreate>
 801476c:	f640 612c 	movw	r1, #3628	; 0xe2c
 8014770:	f2c1 0100 	movt	r1, #4096	; 0x1000
 8014774:	6008      	str	r0, [r1, #0]
 8014776:	bd08      	pop	{r3, pc}

08014778 <_ZN6detail16swap_osd_buffersEv>:
 8014778:	f640 6030 	movw	r0, #3632	; 0xe30
 801477c:	f2c1 0000 	movt	r0, #4096	; 0x1000
 8014780:	b538      	push	{r3, r4, r5, lr}
 8014782:	2100      	movs	r1, #0
 8014784:	f640 642c 	movw	r4, #3628	; 0xe2c
 8014788:	460a      	mov	r2, r1
 801478a:	460b      	mov	r3, r1
 801478c:	f2c1 0400 	movt	r4, #4096	; 0x1000
 8014790:	6800      	ldr	r0, [r0, #0]
 8014792:	f7fe fb57 	bl	8012e44 <xQueueGenericSend>
 8014796:	2100      	movs	r1, #0
 8014798:	460b      	mov	r3, r1
 801479a:	f04f 32ff 	mov.w	r2, #4294967295
 801479e:	6820      	ldr	r0, [r4, #0]
 80147a0:	f7fe fd1c 	bl	80131dc <xQueueGenericReceive>
 80147a4:	f640 6320 	movw	r3, #3616	; 0xe20
 80147a8:	f2c1 0300 	movt	r3, #4096	; 0x1000
 80147ac:	e893 0024 	ldmia.w	r3, {r2, r5}
 80147b0:	f640 6400 	movw	r4, #3584	; 0xe00
 80147b4:	f2c1 0400 	movt	r4, #4096	; 0x1000
 80147b8:	08d1      	lsrs	r1, r2, #3
 80147ba:	6860      	ldr	r0, [r4, #4]
 80147bc:	3501      	adds	r5, #1
 80147be:	fb01 5505 	mla	r5, r1, r5, r5
 80147c2:	462a      	mov	r2, r5
 80147c4:	21ff      	movs	r1, #255	; 0xff
 80147c6:	3004      	adds	r0, #4
 80147c8:	f001 f874 	bl	80158b4 <memset>
 80147cc:	6862      	ldr	r2, [r4, #4]
 80147ce:	f502 5350 	add.w	r3, r2, #13312	; 0x3400
 80147d2:	1d18      	adds	r0, r3, #4
 80147d4:	21ff      	movs	r1, #255	; 0xff
 80147d6:	462a      	mov	r2, r5
 80147d8:	e8bd 4038 	ldmia.w	sp!, {r3, r4, r5, lr}
 80147dc:	f001 b86a 	b.w	80158b4 <memset>

080147e0 <_ZN9video_cfg7columns3osd6enableEv>:
 80147e0:	4b2c      	ldr	r3, [pc, #176]	; (8014894 <_ZN9video_cfg7columns3osd6enableEv+0xb4>)
 80147e2:	4a2d      	ldr	r2, [pc, #180]	; (8014898 <_ZN9video_cfg7columns3osd6enableEv+0xb8>)
 80147e4:	8818      	ldrh	r0, [r3, #0]
 80147e6:	492d      	ldr	r1, [pc, #180]	; (801489c <_ZN9video_cfg7columns3osd6enableEv+0xbc>)
 80147e8:	b5f0      	push	{r4, r5, r6, r7, lr}
 80147ea:	8814      	ldrh	r4, [r2, #0]
 80147ec:	880d      	ldrh	r5, [r1, #0]
 80147ee:	0446      	lsls	r6, r0, #17
 80147f0:	0c73      	lsrs	r3, r6, #17
 80147f2:	3407      	adds	r4, #7
 80147f4:	f44f 4180 	mov.w	r1, #16384	; 0x4000
 80147f8:	f04f 4280 	mov.w	r2, #1073741824	; 0x40000000
 80147fc:	f2c4 0101 	movt	r1, #16385	; 0x4001
 8014800:	005e      	lsls	r6, r3, #1
 8014802:	fb03 f505 	mul.w	r5, r3, r5
 8014806:	fb03 f404 	mul.w	r4, r3, r4
 801480a:	2000      	movs	r0, #0
 801480c:	3e01      	subs	r6, #1
 801480e:	3b01      	subs	r3, #1
 8014810:	3d01      	subs	r5, #1
 8014812:	3c01      	subs	r4, #1
 8014814:	6248      	str	r0, [r1, #36]	; 0x24
 8014816:	62ce      	str	r6, [r1, #44]	; 0x2c
 8014818:	634b      	str	r3, [r1, #52]	; 0x34
 801481a:	6250      	str	r0, [r2, #36]	; 0x24
 801481c:	6415      	str	r5, [r2, #64]	; 0x40
 801481e:	62d4      	str	r4, [r2, #44]	; 0x2c
 8014820:	6891      	ldr	r1, [r2, #8]
 8014822:	f44f 7606 	mov.w	r6, #536	; 0x218
 8014826:	f2c4 2600 	movt	r6, #16896	; 0x4200
 801482a:	f041 0306 	orr.w	r3, r1, #6
 801482e:	6093      	str	r3, [r2, #8]
 8014830:	b083      	sub	sp, #12
 8014832:	6030      	str	r0, [r6, #0]
 8014834:	bf00      	nop
 8014836:	f44f 71cc 	mov.w	r1, #408	; 0x198
 801483a:	f2c4 2100 	movt	r1, #16896	; 0x4200
 801483e:	4a18      	ldr	r2, [pc, #96]	; (80148a0 <_ZN9video_cfg7columns3osd6enableEv+0xc0>)
 8014840:	4d18      	ldr	r5, [pc, #96]	; (80148a4 <_ZN9video_cfg7columns3osd6enableEv+0xc4>)
 8014842:	6810      	ldr	r0, [r2, #0]
 8014844:	2400      	movs	r4, #0
 8014846:	2601      	movs	r6, #1
 8014848:	600e      	str	r6, [r1, #0]
 801484a:	4622      	mov	r2, r4
 801484c:	4621      	mov	r1, r4
 801484e:	602c      	str	r4, [r5, #0]
 8014850:	f7fe fde2 	bl	8013418 <xQueueReceiveFromISR>
 8014854:	2801      	cmp	r0, #1
 8014856:	4e14      	ldr	r6, [pc, #80]	; (80148a8 <_ZN9video_cfg7columns3osd6enableEv+0xc8>)
 8014858:	d00c      	beq.n	8014874 <_ZN9video_cfg7columns3osd6enableEv+0x94>
 801485a:	6829      	ldr	r1, [r5, #0]
 801485c:	2200      	movs	r2, #0
 801485e:	60b2      	str	r2, [r6, #8]
 8014860:	b131      	cbz	r1, 8014870 <_ZN9video_cfg7columns3osd6enableEv+0x90>
 8014862:	f64e 5004 	movw	r0, #60676	; 0xed04
 8014866:	f2ce 0000 	movt	r0, #57344	; 0xe000
 801486a:	f04f 5380 	mov.w	r3, #268435456	; 0x10000000
 801486e:	6003      	str	r3, [r0, #0]
 8014870:	b003      	add	sp, #12
 8014872:	bdf0      	pop	{r4, r5, r6, r7, pc}
 8014874:	6837      	ldr	r7, [r6, #0]
 8014876:	480d      	ldr	r0, [pc, #52]	; (80148ac <_ZN9video_cfg7columns3osd6enableEv+0xcc>)
 8014878:	9701      	str	r7, [sp, #4]
 801487a:	6873      	ldr	r3, [r6, #4]
 801487c:	6800      	ldr	r0, [r0, #0]
 801487e:	6033      	str	r3, [r6, #0]
 8014880:	9f01      	ldr	r7, [sp, #4]
 8014882:	4621      	mov	r1, r4
 8014884:	6077      	str	r7, [r6, #4]
 8014886:	462a      	mov	r2, r5
 8014888:	4623      	mov	r3, r4
 801488a:	7334      	strb	r4, [r6, #12]
 801488c:	f7fe fc20 	bl	80130d0 <xQueueGenericSendFromISR>
 8014890:	e7e3      	b.n	801485a <_ZN9video_cfg7columns3osd6enableEv+0x7a>
 8014892:	bf00      	nop
 8014894:	10000024 	.word	0x10000024
 8014898:	10000018 	.word	0x10000018
 801489c:	10000016 	.word	0x10000016
 80148a0:	10000e30 	.word	0x10000e30
 80148a4:	10000e28 	.word	0x10000e28
 80148a8:	10000e00 	.word	0x10000e00
 80148ac:	10000e2c 	.word	0x10000e2c

080148b0 <_ZN9video_cfg7columns3osd7disableEv>:
 80148b0:	f04f 4080 	mov.w	r0, #1073741824	; 0x40000000
 80148b4:	b410      	push	{r4}
 80148b6:	f44f 7106 	mov.w	r1, #536	; 0x218
 80148ba:	6884      	ldr	r4, [r0, #8]
 80148bc:	f44f 73cc 	mov.w	r3, #408	; 0x198
 80148c0:	f2c4 2100 	movt	r1, #16896	; 0x4200
 80148c4:	f2c4 2300 	movt	r3, #16896	; 0x4200
 80148c8:	2200      	movs	r2, #0
 80148ca:	f024 0407 	bic.w	r4, r4, #7
 80148ce:	6084      	str	r4, [r0, #8]
 80148d0:	600a      	str	r2, [r1, #0]
 80148d2:	601a      	str	r2, [r3, #0]
 80148d4:	bc10      	pop	{r4}
 80148d6:	4770      	bx	lr

080148d8 <_ZN9video_cfg7columns5telem6enableEv>:
 80148d8:	f240 0326 	movw	r3, #38	; 0x26
 80148dc:	f2c1 0300 	movt	r3, #4096	; 0x1000
 80148e0:	f240 0114 	movw	r1, #20
 80148e4:	f2c1 0100 	movt	r1, #4096	; 0x1000
 80148e8:	f240 0212 	movw	r2, #18
 80148ec:	b410      	push	{r4}
 80148ee:	f2c1 0200 	movt	r2, #4096	; 0x1000
 80148f2:	881c      	ldrh	r4, [r3, #0]
 80148f4:	8808      	ldrh	r0, [r1, #0]
 80148f6:	0463      	lsls	r3, r4, #17
 80148f8:	8814      	ldrh	r4, [r2, #0]
 80148fa:	0c5b      	lsrs	r3, r3, #17
 80148fc:	3801      	subs	r0, #1
 80148fe:	f44f 7106 	mov.w	r1, #536	; 0x218
 8014902:	f04f 4280 	mov.w	r2, #1073741824	; 0x40000000
 8014906:	fb03 f404 	mul.w	r4, r3, r4
 801490a:	f2c4 2100 	movt	r1, #16896	; 0x4200
 801490e:	fb03 f300 	mul.w	r3, r3, r0
 8014912:	3c01      	subs	r4, #1
 8014914:	2000      	movs	r0, #0
 8014916:	3b01      	subs	r3, #1
 8014918:	6250      	str	r0, [r2, #36]	; 0x24
 801491a:	6414      	str	r4, [r2, #64]	; 0x40
 801491c:	62d3      	str	r3, [r2, #44]	; 0x2c
 801491e:	6008      	str	r0, [r1, #0]
 8014920:	bf00      	nop
 8014922:	f44f 72cc 	mov.w	r2, #408	; 0x198
 8014926:	f2c4 2200 	movt	r2, #16896	; 0x4200
 801492a:	f04f 4080 	mov.w	r0, #1073741824	; 0x40000000
 801492e:	2101      	movs	r1, #1
 8014930:	6011      	str	r1, [r2, #0]
 8014932:	6883      	ldr	r3, [r0, #8]
 8014934:	f043 0206 	orr.w	r2, r3, #6
 8014938:	6082      	str	r2, [r0, #8]
 801493a:	bc10      	pop	{r4}
 801493c:	4770      	bx	lr
 801493e:	bf00      	nop

08014940 <_ZN9video_cfg7columns5telem7disableEv>:
 8014940:	f04f 4080 	mov.w	r0, #1073741824	; 0x40000000
 8014944:	b410      	push	{r4}
 8014946:	f44f 7106 	mov.w	r1, #536	; 0x218
 801494a:	6884      	ldr	r4, [r0, #8]
 801494c:	f44f 73cc 	mov.w	r3, #408	; 0x198
 8014950:	f2c4 2100 	movt	r1, #16896	; 0x4200
 8014954:	f2c4 2300 	movt	r3, #16896	; 0x4200
 8014958:	2200      	movs	r2, #0
 801495a:	f024 0407 	bic.w	r4, r4, #7
 801495e:	6084      	str	r4, [r0, #8]
 8014960:	600a      	str	r2, [r1, #0]
 8014962:	601a      	str	r2, [r3, #0]
 8014964:	bc10      	pop	{r4}
 8014966:	4770      	bx	lr

08014968 <_ZN9video_cfg7columns3osd5beginEv>:
 8014968:	f240 0118 	movw	r1, #24
 801496c:	f240 0216 	movw	r2, #22
 8014970:	f2c1 0100 	movt	r1, #4096	; 0x1000
 8014974:	f2c1 0200 	movt	r2, #4096	; 0x1000
 8014978:	f640 6300 	movw	r3, #3584	; 0xe00
 801497c:	f2c1 0300 	movt	r3, #4096	; 0x1000
 8014980:	e92d 07f0 	stmdb	sp!, {r4, r5, r6, r7, r8, r9, sl}
 8014984:	8816      	ldrh	r6, [r2, #0]
 8014986:	880d      	ldrh	r5, [r1, #0]
 8014988:	681c      	ldr	r4, [r3, #0]
 801498a:	6898      	ldr	r0, [r3, #8]
 801498c:	681f      	ldr	r7, [r3, #0]
 801498e:	1ba9      	subs	r1, r5, r6
 8014990:	1824      	adds	r4, r4, r0
 8014992:	f3c1 05cc 	ubfx	r5, r1, #3, #13
 8014996:	1c6b      	adds	r3, r5, #1
 8014998:	1d22      	adds	r2, r4, #4
 801499a:	f500 5c50 	add.w	ip, r0, #13312	; 0x3400
 801499e:	5cd6      	ldrb	r6, [r2, r3]
 80149a0:	eb07 0a0c 	add.w	sl, r7, ip
 80149a4:	f046 010f 	orr.w	r1, r6, #15
 80149a8:	54d1      	strb	r1, [r2, r3]
 80149aa:	f10a 0804 	add.w	r8, sl, #4
 80149ae:	f246 0670 	movw	r6, #24688	; 0x6070
 80149b2:	f818 9003 	ldrb.w	r9, [r8, r3]
 80149b6:	f246 0188 	movw	r1, #24712	; 0x6088
 80149ba:	f2c4 0602 	movt	r6, #16386	; 0x4002
 80149be:	f2c4 0102 	movt	r1, #16386	; 0x4002
 80149c2:	f049 0c0f 	orr.w	ip, r9, #15
 80149c6:	f44f 42c0 	mov.w	r2, #24576	; 0x6000
 80149ca:	f808 c003 	strb.w	ip, [r8, r3]
 80149ce:	f2c4 0202 	movt	r2, #16386	; 0x4002
 80149d2:	f104 0805 	add.w	r8, r4, #5
 80149d6:	f10a 0305 	add.w	r3, sl, #5
 80149da:	f8c6 800c 	str.w	r8, [r6, #12]
 80149de:	60cb      	str	r3, [r1, #12]
 80149e0:	6075      	str	r5, [r6, #4]
 80149e2:	604d      	str	r5, [r1, #4]
 80149e4:	68d5      	ldr	r5, [r2, #12]
 80149e6:	f445 6677 	orr.w	r6, r5, #3952	; 0xf70
 80149ea:	f046 010d 	orr.w	r1, r6, #13
 80149ee:	60d1      	str	r1, [r2, #12]
 80149f0:	68d5      	ldr	r5, [r2, #12]
 80149f2:	f44f 5360 	mov.w	r3, #14336	; 0x3800
 80149f6:	f425 6677 	bic.w	r6, r5, #3952	; 0xf70
 80149fa:	f2c4 0302 	movt	r3, #16386	; 0x4002
 80149fe:	f026 010d 	bic.w	r1, r6, #13
 8014a02:	60d1      	str	r1, [r2, #12]
 8014a04:	6c1a      	ldr	r2, [r3, #64]	; 0x40
 8014a06:	f442 4540 	orr.w	r5, r2, #49152	; 0xc000
 8014a0a:	641d      	str	r5, [r3, #64]	; 0x40
 8014a0c:	6a1e      	ldr	r6, [r3, #32]
 8014a0e:	f446 4140 	orr.w	r1, r6, #49152	; 0xc000
 8014a12:	6219      	str	r1, [r3, #32]
 8014a14:	f8d3 a020 	ldr.w	sl, [r3, #32]
 8014a18:	f44f 5160 	mov.w	r1, #14336	; 0x3800
 8014a1c:	f44f 5270 	mov.w	r2, #15360	; 0x3c00
 8014a20:	f04f 0c20 	mov.w	ip, #32
 8014a24:	f248 0520 	movw	r5, #32800	; 0x8020
 8014a28:	f2c4 0100 	movt	r1, #16384	; 0x4000
 8014a2c:	f2c4 0200 	movt	r2, #16384	; 0x4000
 8014a30:	f2c4 2c07 	movt	ip, #16903	; 0x4207
 8014a34:	f2c4 2507 	movt	r5, #16903	; 0x4207
 8014a38:	f24c 3980 	movw	r9, #50048	; 0xc380
 8014a3c:	f04f 0802 	mov.w	r8, #2
 8014a40:	2600      	movs	r6, #0
 8014a42:	f42a 4a40 	bic.w	sl, sl, #49152	; 0xc000
 8014a46:	f8c3 a020 	str.w	sl, [r3, #32]
 8014a4a:	f8c1 9000 	str.w	r9, [r1]
 8014a4e:	f8c1 8004 	str.w	r8, [r1, #4]
 8014a52:	f8c2 9000 	str.w	r9, [r2]
 8014a56:	f8c2 8004 	str.w	r8, [r2, #4]
 8014a5a:	f8cc 6000 	str.w	r6, [ip]
 8014a5e:	602e      	str	r6, [r5, #0]
 8014a60:	7923      	ldrb	r3, [r4, #4]
 8014a62:	1838      	adds	r0, r7, r0
 8014a64:	f043 0301 	orr.w	r3, r3, #1
 8014a68:	f500 5050 	add.w	r0, r0, #13312	; 0x3400
 8014a6c:	818b      	strh	r3, [r1, #12]
 8014a6e:	7901      	ldrb	r1, [r0, #4]
 8014a70:	f041 0301 	orr.w	r3, r1, #1
 8014a74:	8193      	strh	r3, [r2, #12]
 8014a76:	bf00      	nop
 8014a78:	2018      	movs	r0, #24
 8014a7a:	f2c4 2007 	movt	r0, #16903	; 0x4207
 8014a7e:	2201      	movs	r2, #1
 8014a80:	6002      	str	r2, [r0, #0]
 8014a82:	bf00      	nop
 8014a84:	f248 0318 	movw	r3, #32792	; 0x8018
 8014a88:	f2c4 2307 	movt	r3, #16903	; 0x4207
 8014a8c:	f246 0070 	movw	r0, #24688	; 0x6070
 8014a90:	f2c4 0002 	movt	r0, #16386	; 0x4002
 8014a94:	2101      	movs	r1, #1
 8014a96:	6019      	str	r1, [r3, #0]
 8014a98:	6802      	ldr	r2, [r0, #0]
 8014a9a:	f246 0388 	movw	r3, #24712	; 0x6088
 8014a9e:	f2c4 0302 	movt	r3, #16386	; 0x4002
 8014aa2:	f042 0101 	orr.w	r1, r2, #1
 8014aa6:	6001      	str	r1, [r0, #0]
 8014aa8:	6818      	ldr	r0, [r3, #0]
 8014aaa:	f040 0201 	orr.w	r2, r0, #1
 8014aae:	601a      	str	r2, [r3, #0]
 8014ab0:	e8bd 07f0 	ldmia.w	sp!, {r4, r5, r6, r7, r8, r9, sl}
 8014ab4:	4770      	bx	lr
 8014ab6:	bf00      	nop

08014ab8 <_ZN9video_cfg7columns5setupEv>:
 8014ab8:	f44f 5160 	mov.w	r1, #14336	; 0x3800
 8014abc:	f2c4 0102 	movt	r1, #16386	; 0x4002
 8014ac0:	b410      	push	{r4}
 8014ac2:	6c0b      	ldr	r3, [r1, #64]	; 0x40
 8014ac4:	f043 0001 	orr.w	r0, r3, #1
 8014ac8:	6408      	str	r0, [r1, #64]	; 0x40
 8014aca:	2200      	movs	r2, #0
 8014acc:	6a0c      	ldr	r4, [r1, #32]
 8014ace:	4610      	mov	r0, r2
 8014ad0:	f362 0000 	bfi	r0, r2, #0, #1
 8014ad4:	f044 0301 	orr.w	r3, r4, #1
 8014ad8:	f362 0041 	bfi	r0, r2, #1, #1
 8014adc:	620b      	str	r3, [r1, #32]
 8014ade:	f040 000c 	orr.w	r0, r0, #12
 8014ae2:	6a0c      	ldr	r4, [r1, #32]
 8014ae4:	f420 707c 	bic.w	r0, r0, #1008	; 0x3f0
 8014ae8:	f04f 4380 	mov.w	r3, #1073741824	; 0x40000000
 8014aec:	0400      	lsls	r0, r0, #16
 8014aee:	0c00      	lsrs	r0, r0, #16
 8014af0:	f024 0401 	bic.w	r4, r4, #1
 8014af4:	620c      	str	r4, [r1, #32]
 8014af6:	6018      	str	r0, [r3, #0]
 8014af8:	6859      	ldr	r1, [r3, #4]
 8014afa:	f362 11c7 	bfi	r1, r2, #7, #1
 8014afe:	f041 0070 	orr.w	r0, r1, #112	; 0x70
 8014b02:	b281      	uxth	r1, r0
 8014b04:	6059      	str	r1, [r3, #4]
 8014b06:	6899      	ldr	r1, [r3, #8]
 8014b08:	2005      	movs	r0, #5
 8014b0a:	f362 11c7 	bfi	r1, r2, #7, #1
 8014b0e:	f360 1106 	bfi	r1, r0, #4, #3
 8014b12:	f021 0107 	bic.w	r1, r1, #7
 8014b16:	0408      	lsls	r0, r1, #16
 8014b18:	0c01      	lsrs	r1, r0, #16
 8014b1a:	6099      	str	r1, [r3, #8]
 8014b1c:	6999      	ldr	r1, [r3, #24]
 8014b1e:	2001      	movs	r0, #1
 8014b20:	f360 0101 	bfi	r1, r0, #0, #2
 8014b24:	f021 01fc 	bic.w	r1, r1, #252	; 0xfc
 8014b28:	0408      	lsls	r0, r1, #16
 8014b2a:	0c01      	lsrs	r1, r0, #16
 8014b2c:	6199      	str	r1, [r3, #24]
 8014b2e:	69d8      	ldr	r0, [r3, #28]
 8014b30:	f362 2009 	bfi	r0, r2, #8, #2
 8014b34:	f362 208a 	bfi	r0, r2, #10, #1
 8014b38:	f362 20cb 	bfi	r0, r2, #11, #1
 8014b3c:	f440 41e0 	orr.w	r1, r0, #28672	; 0x7000
 8014b40:	b288      	uxth	r0, r1
 8014b42:	61d8      	str	r0, [r3, #28]
 8014b44:	6a19      	ldr	r1, [r3, #32]
 8014b46:	f362 01c3 	bfi	r1, r2, #3, #1
 8014b4a:	f362 0141 	bfi	r1, r2, #1, #1
 8014b4e:	f441 5040 	orr.w	r0, r1, #12288	; 0x3000
 8014b52:	b281      	uxth	r1, r0
 8014b54:	6219      	str	r1, [r3, #32]
 8014b56:	629a      	str	r2, [r3, #40]	; 0x28
 8014b58:	68d8      	ldr	r0, [r3, #12]
 8014b5a:	f44f 4161 	mov.w	r1, #57600	; 0xe100
 8014b5e:	f040 0041 	orr.w	r0, r0, #65	; 0x41
 8014b62:	f2ce 0100 	movt	r1, #57344	; 0xe000
 8014b66:	b280      	uxth	r0, r0
 8014b68:	60d8      	str	r0, [r3, #12]
 8014b6a:	611a      	str	r2, [r3, #16]
 8014b6c:	22b0      	movs	r2, #176	; 0xb0
 8014b6e:	f04f 5380 	mov.w	r3, #268435456	; 0x10000000
 8014b72:	f881 231c 	strb.w	r2, [r1, #796]	; 0x31c
 8014b76:	600b      	str	r3, [r1, #0]
 8014b78:	bc10      	pop	{r4}
 8014b7a:	4770      	bx	lr

08014b7c <TIM2_IRQHandler>:
 8014b7c:	f44f 7306 	mov.w	r3, #536	; 0x218
 8014b80:	4668      	mov	r0, sp
 8014b82:	f2c4 2300 	movt	r3, #16896	; 0x4200
 8014b86:	f020 0107 	bic.w	r1, r0, #7
 8014b8a:	468d      	mov	sp, r1
 8014b8c:	6819      	ldr	r1, [r3, #0]
 8014b8e:	b531      	push	{r0, r4, r5, lr}
 8014b90:	2900      	cmp	r1, #0
 8014b92:	d148      	bne.n	8014c26 <TIM2_IRQHandler+0xaa>
 8014b94:	f44f 7200 	mov.w	r2, #512	; 0x200
 8014b98:	f2c4 2200 	movt	r2, #16896	; 0x4200
 8014b9c:	6810      	ldr	r0, [r2, #0]
 8014b9e:	b918      	cbnz	r0, 8014ba8 <TIM2_IRQHandler+0x2c>
 8014ba0:	e8bd 4031 	ldmia.w	sp!, {r0, r4, r5, lr}
 8014ba4:	4685      	mov	sp, r0
 8014ba6:	4770      	bx	lr
 8014ba8:	6011      	str	r1, [r2, #0]
 8014baa:	4a26      	ldr	r2, [pc, #152]	; (8014c44 <TIM2_IRQHandler+0xc8>)
 8014bac:	6810      	ldr	r0, [r2, #0]
 8014bae:	2801      	cmp	r0, #1
 8014bb0:	d0f6      	beq.n	8014ba0 <TIM2_IRQHandler+0x24>
 8014bb2:	6019      	str	r1, [r3, #0]
 8014bb4:	bf00      	nop
 8014bb6:	f44f 75cc 	mov.w	r5, #408	; 0x198
 8014bba:	f2c4 2500 	movt	r5, #16896	; 0x4200
 8014bbe:	4b22      	ldr	r3, [pc, #136]	; (8014c48 <TIM2_IRQHandler+0xcc>)
 8014bc0:	4c22      	ldr	r4, [pc, #136]	; (8014c4c <TIM2_IRQHandler+0xd0>)
 8014bc2:	4823      	ldr	r0, [pc, #140]	; (8014c50 <TIM2_IRQHandler+0xd4>)
 8014bc4:	8824      	ldrh	r4, [r4, #0]
 8014bc6:	881a      	ldrh	r2, [r3, #0]
 8014bc8:	2101      	movs	r1, #1
 8014bca:	6029      	str	r1, [r5, #0]
 8014bcc:	6885      	ldr	r5, [r0, #8]
 8014bce:	1aa4      	subs	r4, r4, r2
 8014bd0:	186d      	adds	r5, r5, r1
 8014bd2:	f3c4 04cc 	ubfx	r4, r4, #3, #13
 8014bd6:	f44f 4280 	mov.w	r2, #16384	; 0x4000
 8014bda:	192c      	adds	r4, r5, r4
 8014bdc:	6084      	str	r4, [r0, #8]
 8014bde:	f2c4 0201 	movt	r2, #16385	; 0x4001
 8014be2:	f04f 4080 	mov.w	r0, #1073741824	; 0x40000000
 8014be6:	f44f 5360 	mov.w	r3, #14336	; 0x3800
 8014bea:	f2c4 0302 	movt	r3, #16386	; 0x4002
 8014bee:	2100      	movs	r1, #0
 8014bf0:	6241      	str	r1, [r0, #36]	; 0x24
 8014bf2:	6251      	str	r1, [r2, #36]	; 0x24
 8014bf4:	6c1a      	ldr	r2, [r3, #64]	; 0x40
 8014bf6:	f422 4140 	bic.w	r1, r2, #49152	; 0xc000
 8014bfa:	6419      	str	r1, [r3, #64]	; 0x40
 8014bfc:	6a18      	ldr	r0, [r3, #32]
 8014bfe:	f246 0270 	movw	r2, #24688	; 0x6070
 8014c02:	f2c4 0202 	movt	r2, #16386	; 0x4002
 8014c06:	f440 4140 	orr.w	r1, r0, #49152	; 0xc000
 8014c0a:	6219      	str	r1, [r3, #32]
 8014c0c:	6810      	ldr	r0, [r2, #0]
 8014c0e:	f246 0388 	movw	r3, #24712	; 0x6088
 8014c12:	f2c4 0302 	movt	r3, #16386	; 0x4002
 8014c16:	f020 0101 	bic.w	r1, r0, #1
 8014c1a:	6011      	str	r1, [r2, #0]
 8014c1c:	681a      	ldr	r2, [r3, #0]
 8014c1e:	f022 0001 	bic.w	r0, r2, #1
 8014c22:	6018      	str	r0, [r3, #0]
 8014c24:	e7bc      	b.n	8014ba0 <TIM2_IRQHandler+0x24>
 8014c26:	4907      	ldr	r1, [pc, #28]	; (8014c44 <TIM2_IRQHandler+0xc8>)
 8014c28:	f44f 72cc 	mov.w	r2, #408	; 0x198
 8014c2c:	6808      	ldr	r0, [r1, #0]
 8014c2e:	f2c4 2200 	movt	r2, #16896	; 0x4200
 8014c32:	2100      	movs	r1, #0
 8014c34:	2801      	cmp	r0, #1
 8014c36:	6019      	str	r1, [r3, #0]
 8014c38:	6011      	str	r1, [r2, #0]
 8014c3a:	d0b1      	beq.n	8014ba0 <TIM2_IRQHandler+0x24>
 8014c3c:	f7ff fe94 	bl	8014968 <_ZN9video_cfg7columns3osd5beginEv>
 8014c40:	e7ae      	b.n	8014ba0 <TIM2_IRQHandler+0x24>
 8014c42:	bf00      	nop
 8014c44:	10000e34 	.word	0x10000e34
 8014c48:	10000016 	.word	0x10000016
 8014c4c:	10000018 	.word	0x10000018
 8014c50:	10000e00 	.word	0x10000e00

08014c54 <_ZN9video_cfg4rows5setupEv>:
 8014c54:	f44f 5260 	mov.w	r2, #14336	; 0x3800
 8014c58:	f2c4 0202 	movt	r2, #16386	; 0x4002
 8014c5c:	4831      	ldr	r0, [pc, #196]	; (8014d24 <_ZN9video_cfg4rows5setupEv+0xd0>)
 8014c5e:	4932      	ldr	r1, [pc, #200]	; (8014d28 <_ZN9video_cfg4rows5setupEv+0xd4>)
 8014c60:	b538      	push	{r3, r4, r5, lr}
 8014c62:	6c15      	ldr	r5, [r2, #64]	; 0x40
 8014c64:	8804      	ldrh	r4, [r0, #0]
 8014c66:	4831      	ldr	r0, [pc, #196]	; (8014d2c <_ZN9video_cfg4rows5setupEv+0xd8>)
 8014c68:	8809      	ldrh	r1, [r1, #0]
 8014c6a:	8800      	ldrh	r0, [r0, #0]
 8014c6c:	f045 0502 	orr.w	r5, r5, #2
 8014c70:	6415      	str	r5, [r2, #64]	; 0x40
 8014c72:	6a15      	ldr	r5, [r2, #32]
 8014c74:	f045 0502 	orr.w	r5, r5, #2
 8014c78:	6215      	str	r5, [r2, #32]
 8014c7a:	6a15      	ldr	r5, [r2, #32]
 8014c7c:	f44f 6380 	mov.w	r3, #1024	; 0x400
 8014c80:	f2c4 0300 	movt	r3, #16384	; 0x4000
 8014c84:	f025 0502 	bic.w	r5, r5, #2
 8014c88:	6215      	str	r5, [r2, #32]
 8014c8a:	681a      	ldr	r2, [r3, #0]
 8014c8c:	f042 0508 	orr.w	r5, r2, #8
 8014c90:	b2aa      	uxth	r2, r5
 8014c92:	601a      	str	r2, [r3, #0]
 8014c94:	685d      	ldr	r5, [r3, #4]
 8014c96:	f64f 727f 	movw	r2, #65407	; 0xff7f
 8014c9a:	402a      	ands	r2, r5
 8014c9c:	605a      	str	r2, [r3, #4]
 8014c9e:	689d      	ldr	r5, [r3, #8]
 8014ca0:	f24c 02ff 	movw	r2, #49407	; 0xc0ff
 8014ca4:	f445 4540 	orr.w	r5, r5, #49152	; 0xc000
 8014ca8:	402a      	ands	r2, r5
 8014caa:	609a      	str	r2, [r3, #8]
 8014cac:	699a      	ldr	r2, [r3, #24]
 8014cae:	2501      	movs	r5, #1
 8014cb0:	f365 0201 	bfi	r2, r5, #0, #2
 8014cb4:	f422 42f7 	bic.w	r2, r2, #31616	; 0x7b80
 8014cb8:	f022 0570 	bic.w	r5, r2, #112	; 0x70
 8014cbc:	042a      	lsls	r2, r5, #16
 8014cbe:	0c15      	lsrs	r5, r2, #16
 8014cc0:	619d      	str	r5, [r3, #24]
 8014cc2:	6a1a      	ldr	r2, [r3, #32]
 8014cc4:	f042 0510 	orr.w	r5, r2, #16
 8014cc8:	b2aa      	uxth	r2, r5
 8014cca:	621a      	str	r2, [r3, #32]
 8014ccc:	69dd      	ldr	r5, [r3, #28]
 8014cce:	0849      	lsrs	r1, r1, #1
 8014cd0:	f248 4284 	movw	r2, #33924	; 0x8484
 8014cd4:	3901      	subs	r1, #1
 8014cd6:	402a      	ands	r2, r5
 8014cd8:	3801      	subs	r0, #1
 8014cda:	3c01      	subs	r4, #1
 8014cdc:	61da      	str	r2, [r3, #28]
 8014cde:	639c      	str	r4, [r3, #56]	; 0x38
 8014ce0:	63d8      	str	r0, [r3, #60]	; 0x3c
 8014ce2:	6419      	str	r1, [r3, #64]	; 0x40
 8014ce4:	f7fe ffc8 	bl	8013c78 <_ZN9video_cfg14get_video_modeEv>
 8014ce8:	2801      	cmp	r0, #1
 8014cea:	bf0c      	ite	eq
 8014cec:	4b10      	ldreq	r3, [pc, #64]	; (8014d30 <_ZN9video_cfg4rows5setupEv+0xdc>)
 8014cee:	4b11      	ldrne	r3, [pc, #68]	; (8014d34 <_ZN9video_cfg4rows5setupEv+0xe0>)
 8014cf0:	881a      	ldrh	r2, [r3, #0]
 8014cf2:	f44f 6080 	mov.w	r0, #1024	; 0x400
 8014cf6:	f2c4 0000 	movt	r0, #16384	; 0x4000
 8014cfa:	0851      	lsrs	r1, r2, #1
 8014cfc:	1e8b      	subs	r3, r1, #2
 8014cfe:	62c3      	str	r3, [r0, #44]	; 0x2c
 8014d00:	68c1      	ldr	r1, [r0, #12]
 8014d02:	f44f 4261 	mov.w	r2, #57600	; 0xe100
 8014d06:	f041 031d 	orr.w	r3, r1, #29
 8014d0a:	b299      	uxth	r1, r3
 8014d0c:	f2ce 0200 	movt	r2, #57344	; 0xe000
 8014d10:	2300      	movs	r3, #0
 8014d12:	60c1      	str	r1, [r0, #12]
 8014d14:	6243      	str	r3, [r0, #36]	; 0x24
 8014d16:	f04f 5100 	mov.w	r1, #536870912	; 0x20000000
 8014d1a:	20b0      	movs	r0, #176	; 0xb0
 8014d1c:	f882 031d 	strb.w	r0, [r2, #797]	; 0x31d
 8014d20:	6011      	str	r1, [r2, #0]
 8014d22:	bd38      	pop	{r3, r4, r5, pc}
 8014d24:	1000001c 	.word	0x1000001c
 8014d28:	10000022 	.word	0x10000022
 8014d2c:	10000020 	.word	0x10000020
 8014d30:	1000001e 	.word	0x1000001e
 8014d34:	1000001a 	.word	0x1000001a

08014d38 <TIM3_IRQHandler>:
 8014d38:	4668      	mov	r0, sp
 8014d3a:	f020 0107 	bic.w	r1, r0, #7
 8014d3e:	468d      	mov	sp, r1
 8014d40:	b519      	push	{r0, r3, r4, lr}
 8014d42:	f44f 6380 	mov.w	r3, #1024	; 0x400
 8014d46:	f2c4 0300 	movt	r3, #16384	; 0x4000
 8014d4a:	6918      	ldr	r0, [r3, #16]
 8014d4c:	f010 0404 	ands.w	r4, r0, #4
 8014d50:	d124      	bne.n	8014d9c <TIM3_IRQHandler+0x64>
 8014d52:	f010 0208 	ands.w	r2, r0, #8
 8014d56:	d12d      	bne.n	8014db4 <TIM3_IRQHandler+0x7c>
 8014d58:	f010 0410 	ands.w	r4, r0, #16
 8014d5c:	d113      	bne.n	8014d86 <TIM3_IRQHandler+0x4e>
 8014d5e:	f44f 4102 	mov.w	r1, #33280	; 0x8200
 8014d62:	f2c4 2100 	movt	r1, #16896	; 0x4200
 8014d66:	600c      	str	r4, [r1, #0]
 8014d68:	f7ff fda2 	bl	80148b0 <_ZN9video_cfg7columns3osd7disableEv>
 8014d6c:	f44f 4300 	mov.w	r3, #32768	; 0x8000
 8014d70:	f2c4 2300 	movt	r3, #16896	; 0x4200
 8014d74:	4814      	ldr	r0, [pc, #80]	; (8014dc8 <TIM3_IRQHandler+0x90>)
 8014d76:	6004      	str	r4, [r0, #0]
 8014d78:	601c      	str	r4, [r3, #0]
 8014d7a:	f7fe ff83 	bl	8013c84 <_ZN6detail15sync_sep_enableEv>
 8014d7e:	e8bd 4019 	ldmia.w	sp!, {r0, r3, r4, lr}
 8014d82:	4685      	mov	sp, r0
 8014d84:	4770      	bx	lr
 8014d86:	f248 2110 	movw	r1, #33296	; 0x8210
 8014d8a:	f2c4 2100 	movt	r1, #16896	; 0x4200
 8014d8e:	4b0e      	ldr	r3, [pc, #56]	; (8014dc8 <TIM3_IRQHandler+0x90>)
 8014d90:	600a      	str	r2, [r1, #0]
 8014d92:	2202      	movs	r2, #2
 8014d94:	601a      	str	r2, [r3, #0]
 8014d96:	f7ff fd23 	bl	80147e0 <_ZN9video_cfg7columns3osd6enableEv>
 8014d9a:	e7f0      	b.n	8014d7e <TIM3_IRQHandler+0x46>
 8014d9c:	f248 2308 	movw	r3, #33288	; 0x8208
 8014da0:	f2c4 2300 	movt	r3, #16896	; 0x4200
 8014da4:	2200      	movs	r2, #0
 8014da6:	4908      	ldr	r1, [pc, #32]	; (8014dc8 <TIM3_IRQHandler+0x90>)
 8014da8:	601a      	str	r2, [r3, #0]
 8014daa:	2001      	movs	r0, #1
 8014dac:	6008      	str	r0, [r1, #0]
 8014dae:	f7ff fd93 	bl	80148d8 <_ZN9video_cfg7columns5telem6enableEv>
 8014db2:	e7e4      	b.n	8014d7e <TIM3_IRQHandler+0x46>
 8014db4:	f248 200c 	movw	r0, #33292	; 0x820c
 8014db8:	f2c4 2000 	movt	r0, #16896	; 0x4200
 8014dbc:	6004      	str	r4, [r0, #0]
 8014dbe:	f7ff fdbf 	bl	8014940 <_ZN9video_cfg7columns5telem7disableEv>
 8014dc2:	4901      	ldr	r1, [pc, #4]	; (8014dc8 <TIM3_IRQHandler+0x90>)
 8014dc4:	600c      	str	r4, [r1, #0]
 8014dc6:	e7da      	b.n	8014d7e <TIM3_IRQHandler+0x46>
 8014dc8:	10000e34 	.word	0x10000e34

08014dcc <_ZN9video_cfg9spi_clock5setupEv>:
 8014dcc:	f44f 5260 	mov.w	r2, #14336	; 0x3800
 8014dd0:	f2c4 0202 	movt	r2, #16386	; 0x4002
 8014dd4:	2300      	movs	r3, #0
 8014dd6:	6b11      	ldr	r1, [r2, #48]	; 0x30
 8014dd8:	f2c4 0302 	movt	r3, #16386	; 0x4002
 8014ddc:	f041 0001 	orr.w	r0, r1, #1
 8014de0:	b410      	push	{r4}
 8014de2:	6310      	str	r0, [r2, #48]	; 0x30
 8014de4:	681c      	ldr	r4, [r3, #0]
 8014de6:	f024 0130 	bic.w	r1, r4, #48	; 0x30
 8014dea:	f041 0020 	orr.w	r0, r1, #32
 8014dee:	6018      	str	r0, [r3, #0]
 8014df0:	689c      	ldr	r4, [r3, #8]
 8014df2:	f044 0130 	orr.w	r1, r4, #48	; 0x30
 8014df6:	6099      	str	r1, [r3, #8]
 8014df8:	6958      	ldr	r0, [r3, #20]
 8014dfa:	f020 0404 	bic.w	r4, r0, #4
 8014dfe:	615c      	str	r4, [r3, #20]
 8014e00:	6a19      	ldr	r1, [r3, #32]
 8014e02:	f421 6070 	bic.w	r0, r1, #3840	; 0xf00
 8014e06:	f440 7440 	orr.w	r4, r0, #768	; 0x300
 8014e0a:	621c      	str	r4, [r3, #32]
 8014e0c:	6c53      	ldr	r3, [r2, #68]	; 0x44
 8014e0e:	f443 3180 	orr.w	r1, r3, #65536	; 0x10000
 8014e12:	6451      	str	r1, [r2, #68]	; 0x44
 8014e14:	6a50      	ldr	r0, [r2, #36]	; 0x24
 8014e16:	f440 3480 	orr.w	r4, r0, #65536	; 0x10000
 8014e1a:	6254      	str	r4, [r2, #36]	; 0x24
 8014e1c:	6a51      	ldr	r1, [r2, #36]	; 0x24
 8014e1e:	f44f 4380 	mov.w	r3, #16384	; 0x4000
 8014e22:	f2c4 0301 	movt	r3, #16385	; 0x4001
 8014e26:	f421 3080 	bic.w	r0, r1, #65536	; 0x10000
 8014e2a:	6250      	str	r0, [r2, #36]	; 0x24
 8014e2c:	681a      	ldr	r2, [r3, #0]
 8014e2e:	f36f 2209 	bfc	r2, #8, #2
 8014e32:	f36f 12c7 	bfc	r2, #7, #1
 8014e36:	f042 0404 	orr.w	r4, r2, #4
 8014e3a:	f024 010b 	bic.w	r1, r4, #11
 8014e3e:	0408      	lsls	r0, r1, #16
 8014e40:	0c02      	lsrs	r2, r0, #16
 8014e42:	601a      	str	r2, [r3, #0]
 8014e44:	689c      	ldr	r4, [r3, #8]
 8014e46:	f36f 34cf 	bfc	r4, #15, #1
 8014e4a:	f36f 348e 	bfc	r4, #14, #1
 8014e4e:	f36f 340d 	bfc	r4, #12, #2
 8014e52:	f36f 240b 	bfc	r4, #8, #4
 8014e56:	2105      	movs	r1, #5
 8014e58:	f36f 1406 	bfc	r4, #4, #3
 8014e5c:	f361 0402 	bfi	r4, r1, #0, #3
 8014e60:	b2a0      	uxth	r0, r4
 8014e62:	6098      	str	r0, [r3, #8]
 8014e64:	699a      	ldr	r2, [r3, #24]
 8014e66:	f36f 0201 	bfc	r2, #0, #2
 8014e6a:	f042 0470 	orr.w	r4, r2, #112	; 0x70
 8014e6e:	f024 010c 	bic.w	r1, r4, #12
 8014e72:	0408      	lsls	r0, r1, #16
 8014e74:	f240 0424 	movw	r4, #36	; 0x24
 8014e78:	0c02      	lsrs	r2, r0, #16
 8014e7a:	f2c1 0400 	movt	r4, #4096	; 0x1000
 8014e7e:	619a      	str	r2, [r3, #24]
 8014e80:	6a19      	ldr	r1, [r3, #32]
 8014e82:	8820      	ldrh	r0, [r4, #0]
 8014e84:	f041 0401 	orr.w	r4, r1, #1
 8014e88:	0042      	lsls	r2, r0, #1
 8014e8a:	b290      	uxth	r0, r2
 8014e8c:	f024 0102 	bic.w	r1, r4, #2
 8014e90:	040a      	lsls	r2, r1, #16
 8014e92:	0844      	lsrs	r4, r0, #1
 8014e94:	2100      	movs	r1, #0
 8014e96:	0c12      	lsrs	r2, r2, #16
 8014e98:	3801      	subs	r0, #1
 8014e9a:	3c01      	subs	r4, #1
 8014e9c:	621a      	str	r2, [r3, #32]
 8014e9e:	62d8      	str	r0, [r3, #44]	; 0x2c
 8014ea0:	635c      	str	r4, [r3, #52]	; 0x34
 8014ea2:	6259      	str	r1, [r3, #36]	; 0x24
 8014ea4:	6119      	str	r1, [r3, #16]
 8014ea6:	60d9      	str	r1, [r3, #12]
 8014ea8:	6819      	ldr	r1, [r3, #0]
 8014eaa:	f041 0201 	orr.w	r2, r1, #1
 8014eae:	601a      	str	r2, [r3, #0]
 8014eb0:	bc10      	pop	{r4}
 8014eb2:	4770      	bx	lr

08014eb4 <_ZN6detail9spi_setupEv>:
 8014eb4:	f44f 5260 	mov.w	r2, #14336	; 0x3800
 8014eb8:	f2c4 0202 	movt	r2, #16386	; 0x4002
 8014ebc:	f44f 6380 	mov.w	r3, #1024	; 0x400
 8014ec0:	6b11      	ldr	r1, [r2, #48]	; 0x30
 8014ec2:	f2c4 0302 	movt	r3, #16386	; 0x4002
 8014ec6:	f041 0002 	orr.w	r0, r1, #2
 8014eca:	6310      	str	r0, [r2, #48]	; 0x30
 8014ecc:	6819      	ldr	r1, [r3, #0]
 8014ece:	f021 6040 	bic.w	r0, r1, #201326592	; 0xc000000
 8014ed2:	f040 6100 	orr.w	r1, r0, #134217728	; 0x8000000
 8014ed6:	6019      	str	r1, [r3, #0]
 8014ed8:	68d8      	ldr	r0, [r3, #12]
 8014eda:	f020 6140 	bic.w	r1, r0, #201326592	; 0xc000000
 8014ede:	f041 6000 	orr.w	r0, r1, #134217728	; 0x8000000
 8014ee2:	60d8      	str	r0, [r3, #12]
 8014ee4:	6a59      	ldr	r1, [r3, #36]	; 0x24
 8014ee6:	f421 0070 	bic.w	r0, r1, #15728640	; 0xf00000
 8014eea:	f440 01a0 	orr.w	r1, r0, #5242880	; 0x500000
 8014eee:	6259      	str	r1, [r3, #36]	; 0x24
 8014ef0:	6b10      	ldr	r0, [r2, #48]	; 0x30
 8014ef2:	f44f 6300 	mov.w	r3, #2048	; 0x800
 8014ef6:	f2c4 0302 	movt	r3, #16386	; 0x4002
 8014efa:	f040 0104 	orr.w	r1, r0, #4
 8014efe:	6311      	str	r1, [r2, #48]	; 0x30
 8014f00:	6818      	ldr	r0, [r3, #0]
 8014f02:	f020 0130 	bic.w	r1, r0, #48	; 0x30
 8014f06:	f041 0020 	orr.w	r0, r1, #32
 8014f0a:	6018      	str	r0, [r3, #0]
 8014f0c:	6859      	ldr	r1, [r3, #4]
 8014f0e:	f021 0004 	bic.w	r0, r1, #4
 8014f12:	6058      	str	r0, [r3, #4]
 8014f14:	6899      	ldr	r1, [r3, #8]
 8014f16:	f041 0030 	orr.w	r0, r1, #48	; 0x30
 8014f1a:	6098      	str	r0, [r3, #8]
 8014f1c:	68d9      	ldr	r1, [r3, #12]
 8014f1e:	f021 0030 	bic.w	r0, r1, #48	; 0x30
 8014f22:	f040 0110 	orr.w	r1, r0, #16
 8014f26:	60d9      	str	r1, [r3, #12]
 8014f28:	6958      	ldr	r0, [r3, #20]
 8014f2a:	f040 0104 	orr.w	r1, r0, #4
 8014f2e:	6159      	str	r1, [r3, #20]
 8014f30:	6a18      	ldr	r0, [r3, #32]
 8014f32:	f420 6170 	bic.w	r1, r0, #3840	; 0xf00
 8014f36:	f441 60a0 	orr.w	r0, r1, #1280	; 0x500
 8014f3a:	6218      	str	r0, [r3, #32]
 8014f3c:	6b11      	ldr	r1, [r2, #48]	; 0x30
 8014f3e:	f041 0004 	orr.w	r0, r1, #4
 8014f42:	6310      	str	r0, [r2, #48]	; 0x30
 8014f44:	6819      	ldr	r1, [r3, #0]
 8014f46:	f421 1040 	bic.w	r0, r1, #3145728	; 0x300000
 8014f4a:	f440 1100 	orr.w	r1, r0, #2097152	; 0x200000
 8014f4e:	6019      	str	r1, [r3, #0]
 8014f50:	68d8      	ldr	r0, [r3, #12]
 8014f52:	f420 1140 	bic.w	r1, r0, #3145728	; 0x300000
 8014f56:	f441 1000 	orr.w	r0, r1, #2097152	; 0x200000
 8014f5a:	60d8      	str	r0, [r3, #12]
 8014f5c:	6a59      	ldr	r1, [r3, #36]	; 0x24
 8014f5e:	f421 6070 	bic.w	r0, r1, #3840	; 0xf00
 8014f62:	f440 61c0 	orr.w	r1, r0, #1536	; 0x600
 8014f66:	6259      	str	r1, [r3, #36]	; 0x24
 8014f68:	6b10      	ldr	r0, [r2, #48]	; 0x30
 8014f6a:	f040 0104 	orr.w	r1, r0, #4
 8014f6e:	6311      	str	r1, [r2, #48]	; 0x30
 8014f70:	681a      	ldr	r2, [r3, #0]
 8014f72:	f422 0040 	bic.w	r0, r2, #12582912	; 0xc00000
 8014f76:	f440 0100 	orr.w	r1, r0, #8388608	; 0x800000
 8014f7a:	6019      	str	r1, [r3, #0]
 8014f7c:	685a      	ldr	r2, [r3, #4]
 8014f7e:	f422 6000 	bic.w	r0, r2, #2048	; 0x800
 8014f82:	6058      	str	r0, [r3, #4]
 8014f84:	6899      	ldr	r1, [r3, #8]
 8014f86:	f441 0240 	orr.w	r2, r1, #12582912	; 0xc00000
 8014f8a:	609a      	str	r2, [r3, #8]
 8014f8c:	68d8      	ldr	r0, [r3, #12]
 8014f8e:	f420 0140 	bic.w	r1, r0, #12582912	; 0xc00000
 8014f92:	f441 0280 	orr.w	r2, r1, #4194304	; 0x400000
 8014f96:	60da      	str	r2, [r3, #12]
 8014f98:	6958      	ldr	r0, [r3, #20]
 8014f9a:	f440 6100 	orr.w	r1, r0, #2048	; 0x800
 8014f9e:	6159      	str	r1, [r3, #20]
 8014fa0:	6a5a      	ldr	r2, [r3, #36]	; 0x24
 8014fa2:	f422 4070 	bic.w	r0, r2, #61440	; 0xf000
 8014fa6:	f440 41c0 	orr.w	r1, r0, #24576	; 0x6000
 8014faa:	6259      	str	r1, [r3, #36]	; 0x24
 8014fac:	4770      	bx	lr
 8014fae:	bf00      	nop

08014fb0 <_ZN6detail15pixel_dma_setupEv>:
 8014fb0:	f44f 5260 	mov.w	r2, #14336	; 0x3800
 8014fb4:	f2c4 0202 	movt	r2, #16386	; 0x4002
 8014fb8:	2314      	movs	r3, #20
 8014fba:	6b11      	ldr	r1, [r2, #48]	; 0x30
 8014fbc:	f441 1000 	orr.w	r0, r1, #2097152	; 0x200000
 8014fc0:	6310      	str	r0, [r2, #48]	; 0x30
 8014fc2:	bf00      	nop
 8014fc4:	3b01      	subs	r3, #1
 8014fc6:	b2da      	uxtb	r2, r3
 8014fc8:	bf00      	nop
 8014fca:	1e51      	subs	r1, r2, #1
 8014fcc:	f011 03ff 	ands.w	r3, r1, #255	; 0xff
 8014fd0:	d1f7      	bne.n	8014fc2 <_ZN6detail15pixel_dma_setupEv+0x12>
 8014fd2:	f44f 5060 	mov.w	r0, #14336	; 0x3800
 8014fd6:	f2c4 0002 	movt	r0, #16386	; 0x4002
 8014fda:	f246 0270 	movw	r2, #24688	; 0x6070
 8014fde:	6901      	ldr	r1, [r0, #16]
 8014fe0:	f441 1300 	orr.w	r3, r1, #2097152	; 0x200000
 8014fe4:	6103      	str	r3, [r0, #16]
 8014fe6:	6901      	ldr	r1, [r0, #16]
 8014fe8:	f2c4 0202 	movt	r2, #16386	; 0x4002
 8014fec:	f421 1300 	bic.w	r3, r1, #2097152	; 0x200000
 8014ff0:	6103      	str	r3, [r0, #16]
 8014ff2:	6810      	ldr	r0, [r2, #0]
 8014ff4:	07c3      	lsls	r3, r0, #31
 8014ff6:	d506      	bpl.n	8015006 <_ZN6detail15pixel_dma_setupEv+0x56>
 8014ff8:	6811      	ldr	r1, [r2, #0]
 8014ffa:	f021 0301 	bic.w	r3, r1, #1
 8014ffe:	6013      	str	r3, [r2, #0]
 8015000:	6810      	ldr	r0, [r2, #0]
 8015002:	07c1      	lsls	r1, r0, #31
 8015004:	d4fc      	bmi.n	8015000 <_ZN6detail15pixel_dma_setupEv+0x50>
 8015006:	f246 0370 	movw	r3, #24688	; 0x6070
 801500a:	f2c4 0302 	movt	r3, #16386	; 0x4002
 801500e:	f44f 6288 	mov.w	r2, #1088	; 0x440
 8015012:	f2c0 0203 	movt	r2, #3
 8015016:	601a      	str	r2, [r3, #0]
 8015018:	6959      	ldr	r1, [r3, #20]
 801501a:	f041 0004 	orr.w	r0, r1, #4
 801501e:	6158      	str	r0, [r3, #20]
 8015020:	6958      	ldr	r0, [r3, #20]
 8015022:	f643 010c 	movw	r1, #14348	; 0x380c
 8015026:	f246 0288 	movw	r2, #24712	; 0x6088
 801502a:	f040 0003 	orr.w	r0, r0, #3
 801502e:	f2c4 0100 	movt	r1, #16384	; 0x4000
 8015032:	f2c4 0202 	movt	r2, #16386	; 0x4002
 8015036:	6158      	str	r0, [r3, #20]
 8015038:	6099      	str	r1, [r3, #8]
 801503a:	6813      	ldr	r3, [r2, #0]
 801503c:	07d8      	lsls	r0, r3, #31
 801503e:	d506      	bpl.n	801504e <_ZN6detail15pixel_dma_setupEv+0x9e>
 8015040:	6811      	ldr	r1, [r2, #0]
 8015042:	f021 0001 	bic.w	r0, r1, #1
 8015046:	6010      	str	r0, [r2, #0]
 8015048:	6813      	ldr	r3, [r2, #0]
 801504a:	07db      	lsls	r3, r3, #31
 801504c:	d4fc      	bmi.n	8015048 <_ZN6detail15pixel_dma_setupEv+0x98>
 801504e:	f246 0088 	movw	r0, #24712	; 0x6088
 8015052:	f2c4 0002 	movt	r0, #16386	; 0x4002
 8015056:	f44f 6288 	mov.w	r2, #1088	; 0x440
 801505a:	f2c0 0203 	movt	r2, #3
 801505e:	6002      	str	r2, [r0, #0]
 8015060:	6941      	ldr	r1, [r0, #20]
 8015062:	f041 0304 	orr.w	r3, r1, #4
 8015066:	6143      	str	r3, [r0, #20]
 8015068:	6941      	ldr	r1, [r0, #20]
 801506a:	f643 420c 	movw	r2, #15372	; 0x3c0c
 801506e:	f041 0303 	orr.w	r3, r1, #3
 8015072:	f2c4 0200 	movt	r2, #16384	; 0x4000
 8015076:	6143      	str	r3, [r0, #20]
 8015078:	6082      	str	r2, [r0, #8]
 801507a:	4770      	bx	lr

0801507c <__aeabi_atexit>:
 801507c:	4603      	mov	r3, r0
 801507e:	4608      	mov	r0, r1
 8015080:	4619      	mov	r1, r3
 8015082:	f000 b801 	b.w	8015088 <__cxa_atexit>
 8015086:	bf00      	nop

08015088 <__cxa_atexit>:
 8015088:	b430      	push	{r4, r5}
 801508a:	4605      	mov	r5, r0
 801508c:	460c      	mov	r4, r1
 801508e:	4613      	mov	r3, r2
 8015090:	2002      	movs	r0, #2
 8015092:	4629      	mov	r1, r5
 8015094:	4622      	mov	r2, r4
 8015096:	bc30      	pop	{r4, r5}
 8015098:	f000 bcb8 	b.w	8015a0c <__register_exitproc>

0801509c <__errno>:
 801509c:	f240 4350 	movw	r3, #1104	; 0x450
 80150a0:	f2c1 0300 	movt	r3, #4096	; 0x1000
 80150a4:	6818      	ldr	r0, [r3, #0]
 80150a6:	4770      	bx	lr

080150a8 <__libc_init_array>:
 80150a8:	b5f8      	push	{r3, r4, r5, r6, r7, lr}
 80150aa:	4f20      	ldr	r7, [pc, #128]	; (801512c <__libc_init_array+0x84>)
 80150ac:	4c20      	ldr	r4, [pc, #128]	; (8015130 <__libc_init_array+0x88>)
 80150ae:	1b38      	subs	r0, r7, r4
 80150b0:	1087      	asrs	r7, r0, #2
 80150b2:	d017      	beq.n	80150e4 <__libc_init_array+0x3c>
 80150b4:	1e7a      	subs	r2, r7, #1
 80150b6:	6823      	ldr	r3, [r4, #0]
 80150b8:	2501      	movs	r5, #1
 80150ba:	f002 0601 	and.w	r6, r2, #1
 80150be:	4798      	blx	r3
 80150c0:	42af      	cmp	r7, r5
 80150c2:	d00f      	beq.n	80150e4 <__libc_init_array+0x3c>
 80150c4:	b12e      	cbz	r6, 80150d2 <__libc_init_array+0x2a>
 80150c6:	f854 1f04 	ldr.w	r1, [r4, #4]!
 80150ca:	2502      	movs	r5, #2
 80150cc:	4788      	blx	r1
 80150ce:	42af      	cmp	r7, r5
 80150d0:	d008      	beq.n	80150e4 <__libc_init_array+0x3c>
 80150d2:	6860      	ldr	r0, [r4, #4]
 80150d4:	4780      	blx	r0
 80150d6:	3502      	adds	r5, #2
 80150d8:	68a2      	ldr	r2, [r4, #8]
 80150da:	1d26      	adds	r6, r4, #4
 80150dc:	4790      	blx	r2
 80150de:	3408      	adds	r4, #8
 80150e0:	42af      	cmp	r7, r5
 80150e2:	d1f6      	bne.n	80150d2 <__libc_init_array+0x2a>
 80150e4:	4f13      	ldr	r7, [pc, #76]	; (8015134 <__libc_init_array+0x8c>)
 80150e6:	4c14      	ldr	r4, [pc, #80]	; (8015138 <__libc_init_array+0x90>)
 80150e8:	f006 f892 	bl	801b210 <_init>
 80150ec:	1b3b      	subs	r3, r7, r4
 80150ee:	109f      	asrs	r7, r3, #2
 80150f0:	d018      	beq.n	8015124 <__libc_init_array+0x7c>
 80150f2:	1e7d      	subs	r5, r7, #1
 80150f4:	6821      	ldr	r1, [r4, #0]
 80150f6:	f005 0601 	and.w	r6, r5, #1
 80150fa:	2501      	movs	r5, #1
 80150fc:	4788      	blx	r1
 80150fe:	42af      	cmp	r7, r5
 8015100:	d011      	beq.n	8015126 <__libc_init_array+0x7e>
 8015102:	b12e      	cbz	r6, 8015110 <__libc_init_array+0x68>
 8015104:	f854 0f04 	ldr.w	r0, [r4, #4]!
 8015108:	2502      	movs	r5, #2
 801510a:	4780      	blx	r0
 801510c:	42af      	cmp	r7, r5
 801510e:	d00b      	beq.n	8015128 <__libc_init_array+0x80>
 8015110:	6862      	ldr	r2, [r4, #4]
 8015112:	4790      	blx	r2
 8015114:	3502      	adds	r5, #2
 8015116:	68a3      	ldr	r3, [r4, #8]
 8015118:	1d26      	adds	r6, r4, #4
 801511a:	4798      	blx	r3
 801511c:	3408      	adds	r4, #8
 801511e:	42af      	cmp	r7, r5
 8015120:	d1f6      	bne.n	8015110 <__libc_init_array+0x68>
 8015122:	bdf8      	pop	{r3, r4, r5, r6, r7, pc}
 8015124:	bdf8      	pop	{r3, r4, r5, r6, r7, pc}
 8015126:	bdf8      	pop	{r3, r4, r5, r6, r7, pc}
 8015128:	bdf8      	pop	{r3, r4, r5, r6, r7, pc}
 801512a:	bf00      	nop
 801512c:	08000188 	.word	0x08000188
 8015130:	08000188 	.word	0x08000188
 8015134:	08000194 	.word	0x08000194
 8015138:	08000188 	.word	0x08000188

0801513c <malloc>:
 801513c:	f240 4350 	movw	r3, #1104	; 0x450
 8015140:	f2c1 0300 	movt	r3, #4096	; 0x1000
 8015144:	4601      	mov	r1, r0
 8015146:	6818      	ldr	r0, [r3, #0]
 8015148:	f000 b808 	b.w	801515c <_malloc_r>

0801514c <free>:
 801514c:	f240 4350 	movw	r3, #1104	; 0x450
 8015150:	f2c1 0300 	movt	r3, #4096	; 0x1000
 8015154:	4601      	mov	r1, r0
 8015156:	6818      	ldr	r0, [r3, #0]
 8015158:	f000 bcfa 	b.w	8015b50 <_free_r>

0801515c <_malloc_r>:
 801515c:	e92d 4ff0 	stmdb	sp!, {r4, r5, r6, r7, r8, r9, sl, fp, lr}
 8015160:	f101 050b 	add.w	r5, r1, #11
 8015164:	2d16      	cmp	r5, #22
 8015166:	b083      	sub	sp, #12
 8015168:	4606      	mov	r6, r0
 801516a:	d927      	bls.n	80151bc <_malloc_r+0x60>
 801516c:	f035 0507 	bics.w	r5, r5, #7
 8015170:	d427      	bmi.n	80151c2 <_malloc_r+0x66>
 8015172:	42a9      	cmp	r1, r5
 8015174:	d825      	bhi.n	80151c2 <_malloc_r+0x66>
 8015176:	4630      	mov	r0, r6
 8015178:	f000 fc32 	bl	80159e0 <__malloc_lock>
 801517c:	f5b5 7ffc 	cmp.w	r5, #504	; 0x1f8
 8015180:	d223      	bcs.n	80151ca <_malloc_r+0x6e>
 8015182:	4fba      	ldr	r7, [pc, #744]	; (801546c <_malloc_r+0x310>)
 8015184:	ea4f 0cd5 	mov.w	ip, r5, lsr #3
 8015188:	eb07 02cc 	add.w	r2, r7, ip, lsl #3
 801518c:	68d4      	ldr	r4, [r2, #12]
 801518e:	4294      	cmp	r4, r2
 8015190:	f000 81de 	beq.w	8015550 <_malloc_r+0x3f4>
 8015194:	6863      	ldr	r3, [r4, #4]
 8015196:	68e2      	ldr	r2, [r4, #12]
 8015198:	68a1      	ldr	r1, [r4, #8]
 801519a:	f023 0003 	bic.w	r0, r3, #3
 801519e:	1823      	adds	r3, r4, r0
 80151a0:	60ca      	str	r2, [r1, #12]
 80151a2:	6858      	ldr	r0, [r3, #4]
 80151a4:	6091      	str	r1, [r2, #8]
 80151a6:	f040 0201 	orr.w	r2, r0, #1
 80151aa:	605a      	str	r2, [r3, #4]
 80151ac:	4630      	mov	r0, r6
 80151ae:	f000 fc19 	bl	80159e4 <__malloc_unlock>
 80151b2:	3408      	adds	r4, #8
 80151b4:	4620      	mov	r0, r4
 80151b6:	b003      	add	sp, #12
 80151b8:	e8bd 8ff0 	ldmia.w	sp!, {r4, r5, r6, r7, r8, r9, sl, fp, pc}
 80151bc:	2510      	movs	r5, #16
 80151be:	42a9      	cmp	r1, r5
 80151c0:	d9d9      	bls.n	8015176 <_malloc_r+0x1a>
 80151c2:	240c      	movs	r4, #12
 80151c4:	6034      	str	r4, [r6, #0]
 80151c6:	2400      	movs	r4, #0
 80151c8:	e7f4      	b.n	80151b4 <_malloc_r+0x58>
 80151ca:	ea5f 2c55 	movs.w	ip, r5, lsr #9
 80151ce:	f000 808b 	beq.w	80152e8 <_malloc_r+0x18c>
 80151d2:	f1bc 0f04 	cmp.w	ip, #4
 80151d6:	f200 8155 	bhi.w	8015484 <_malloc_r+0x328>
 80151da:	ea4f 1795 	mov.w	r7, r5, lsr #6
 80151de:	f107 0e38 	add.w	lr, r7, #56	; 0x38
 80151e2:	ea4f 014e 	mov.w	r1, lr, lsl #1
 80151e6:	4fa1      	ldr	r7, [pc, #644]	; (801546c <_malloc_r+0x310>)
 80151e8:	eb07 0181 	add.w	r1, r7, r1, lsl #2
 80151ec:	68cc      	ldr	r4, [r1, #12]
 80151ee:	42a1      	cmp	r1, r4
 80151f0:	d105      	bne.n	80151fe <_malloc_r+0xa2>
 80151f2:	e00c      	b.n	801520e <_malloc_r+0xb2>
 80151f4:	2a00      	cmp	r2, #0
 80151f6:	da7c      	bge.n	80152f2 <_malloc_r+0x196>
 80151f8:	68e4      	ldr	r4, [r4, #12]
 80151fa:	42a1      	cmp	r1, r4
 80151fc:	d007      	beq.n	801520e <_malloc_r+0xb2>
 80151fe:	6863      	ldr	r3, [r4, #4]
 8015200:	f023 0003 	bic.w	r0, r3, #3
 8015204:	1b42      	subs	r2, r0, r5
 8015206:	2a0f      	cmp	r2, #15
 8015208:	ddf4      	ble.n	80151f4 <_malloc_r+0x98>
 801520a:	f10e 3eff 	add.w	lr, lr, #4294967295
 801520e:	f10e 0c01 	add.w	ip, lr, #1
 8015212:	4b96      	ldr	r3, [pc, #600]	; (801546c <_malloc_r+0x310>)
 8015214:	693c      	ldr	r4, [r7, #16]
 8015216:	f103 0e08 	add.w	lr, r3, #8
 801521a:	4574      	cmp	r4, lr
 801521c:	f000 8175 	beq.w	801550a <_malloc_r+0x3ae>
 8015220:	6861      	ldr	r1, [r4, #4]
 8015222:	f021 0103 	bic.w	r1, r1, #3
 8015226:	1b4a      	subs	r2, r1, r5
 8015228:	2a0f      	cmp	r2, #15
 801522a:	f300 815b 	bgt.w	80154e4 <_malloc_r+0x388>
 801522e:	2a00      	cmp	r2, #0
 8015230:	f8c3 e014 	str.w	lr, [r3, #20]
 8015234:	f8c3 e010 	str.w	lr, [r3, #16]
 8015238:	da69      	bge.n	801530e <_malloc_r+0x1b2>
 801523a:	f5b1 7f00 	cmp.w	r1, #512	; 0x200
 801523e:	f080 812f 	bcs.w	80154a0 <_malloc_r+0x344>
 8015242:	08ca      	lsrs	r2, r1, #3
 8015244:	eb03 01c2 	add.w	r1, r3, r2, lsl #3
 8015248:	f04f 0901 	mov.w	r9, #1
 801524c:	1092      	asrs	r2, r2, #2
 801524e:	fa09 f902 	lsl.w	r9, r9, r2
 8015252:	685a      	ldr	r2, [r3, #4]
 8015254:	6888      	ldr	r0, [r1, #8]
 8015256:	60e1      	str	r1, [r4, #12]
 8015258:	ea49 0902 	orr.w	r9, r9, r2
 801525c:	60a0      	str	r0, [r4, #8]
 801525e:	f8c3 9004 	str.w	r9, [r3, #4]
 8015262:	608c      	str	r4, [r1, #8]
 8015264:	60c4      	str	r4, [r0, #12]
 8015266:	2001      	movs	r0, #1
 8015268:	ea4f 04ac 	mov.w	r4, ip, asr #2
 801526c:	fa00 f004 	lsl.w	r0, r0, r4
 8015270:	4548      	cmp	r0, r9
 8015272:	d856      	bhi.n	8015322 <_malloc_r+0x1c6>
 8015274:	ea19 0f00 	tst.w	r9, r0
 8015278:	d107      	bne.n	801528a <_malloc_r+0x12e>
 801527a:	f02c 0c03 	bic.w	ip, ip, #3
 801527e:	0040      	lsls	r0, r0, #1
 8015280:	ea19 0f00 	tst.w	r9, r0
 8015284:	f10c 0c04 	add.w	ip, ip, #4
 8015288:	d0f9      	beq.n	801527e <_malloc_r+0x122>
 801528a:	eb07 09cc 	add.w	r9, r7, ip, lsl #3
 801528e:	464c      	mov	r4, r9
 8015290:	46e0      	mov	r8, ip
 8015292:	68e3      	ldr	r3, [r4, #12]
 8015294:	429c      	cmp	r4, r3
 8015296:	d107      	bne.n	80152a8 <_malloc_r+0x14c>
 8015298:	e13a      	b.n	8015510 <_malloc_r+0x3b4>
 801529a:	2a00      	cmp	r2, #0
 801529c:	f280 8162 	bge.w	8015564 <_malloc_r+0x408>
 80152a0:	68db      	ldr	r3, [r3, #12]
 80152a2:	429c      	cmp	r4, r3
 80152a4:	f000 8134 	beq.w	8015510 <_malloc_r+0x3b4>
 80152a8:	6859      	ldr	r1, [r3, #4]
 80152aa:	f021 0103 	bic.w	r1, r1, #3
 80152ae:	1b4a      	subs	r2, r1, r5
 80152b0:	2a0f      	cmp	r2, #15
 80152b2:	ddf2      	ble.n	801529a <_malloc_r+0x13e>
 80152b4:	461c      	mov	r4, r3
 80152b6:	1959      	adds	r1, r3, r5
 80152b8:	68d8      	ldr	r0, [r3, #12]
 80152ba:	f854 cf08 	ldr.w	ip, [r4, #8]!
 80152be:	508a      	str	r2, [r1, r2]
 80152c0:	f045 0501 	orr.w	r5, r5, #1
 80152c4:	f042 0201 	orr.w	r2, r2, #1
 80152c8:	f8cc 000c 	str.w	r0, [ip, #12]
 80152cc:	f8c0 c008 	str.w	ip, [r0, #8]
 80152d0:	605d      	str	r5, [r3, #4]
 80152d2:	6179      	str	r1, [r7, #20]
 80152d4:	6139      	str	r1, [r7, #16]
 80152d6:	f8c1 e00c 	str.w	lr, [r1, #12]
 80152da:	f8c1 e008 	str.w	lr, [r1, #8]
 80152de:	604a      	str	r2, [r1, #4]
 80152e0:	4630      	mov	r0, r6
 80152e2:	f000 fb7f 	bl	80159e4 <__malloc_unlock>
 80152e6:	e765      	b.n	80151b4 <_malloc_r+0x58>
 80152e8:	ea4f 0ed5 	mov.w	lr, r5, lsr #3
 80152ec:	ea4f 014e 	mov.w	r1, lr, lsl #1
 80152f0:	e779      	b.n	80151e6 <_malloc_r+0x8a>
 80152f2:	1822      	adds	r2, r4, r0
 80152f4:	68e3      	ldr	r3, [r4, #12]
 80152f6:	6850      	ldr	r0, [r2, #4]
 80152f8:	68a1      	ldr	r1, [r4, #8]
 80152fa:	f040 0001 	orr.w	r0, r0, #1
 80152fe:	6050      	str	r0, [r2, #4]
 8015300:	60cb      	str	r3, [r1, #12]
 8015302:	6099      	str	r1, [r3, #8]
 8015304:	4630      	mov	r0, r6
 8015306:	f000 fb6d 	bl	80159e4 <__malloc_unlock>
 801530a:	3408      	adds	r4, #8
 801530c:	e752      	b.n	80151b4 <_malloc_r+0x58>
 801530e:	1861      	adds	r1, r4, r1
 8015310:	4630      	mov	r0, r6
 8015312:	684b      	ldr	r3, [r1, #4]
 8015314:	f043 0201 	orr.w	r2, r3, #1
 8015318:	604a      	str	r2, [r1, #4]
 801531a:	f000 fb63 	bl	80159e4 <__malloc_unlock>
 801531e:	3408      	adds	r4, #8
 8015320:	e748      	b.n	80151b4 <_malloc_r+0x58>
 8015322:	68bc      	ldr	r4, [r7, #8]
 8015324:	6860      	ldr	r0, [r4, #4]
 8015326:	f020 0903 	bic.w	r9, r0, #3
 801532a:	45a9      	cmp	r9, r5
 801532c:	d304      	bcc.n	8015338 <_malloc_r+0x1dc>
 801532e:	ebc5 0309 	rsb	r3, r5, r9
 8015332:	2b0f      	cmp	r3, #15
 8015334:	f300 808d 	bgt.w	8015452 <_malloc_r+0x2f6>
 8015338:	4a4d      	ldr	r2, [pc, #308]	; (8015470 <_malloc_r+0x314>)
 801533a:	4b4e      	ldr	r3, [pc, #312]	; (8015474 <_malloc_r+0x318>)
 801533c:	6811      	ldr	r1, [r2, #0]
 801533e:	6818      	ldr	r0, [r3, #0]
 8015340:	3101      	adds	r1, #1
 8015342:	eb04 0b09 	add.w	fp, r4, r9
 8015346:	eb05 0300 	add.w	r3, r5, r0
 801534a:	f000 815a 	beq.w	8015602 <_malloc_r+0x4a6>
 801534e:	f503 5080 	add.w	r0, r3, #4096	; 0x1000
 8015352:	300f      	adds	r0, #15
 8015354:	f420 617f 	bic.w	r1, r0, #4080	; 0xff0
 8015358:	f021 0c0f 	bic.w	ip, r1, #15
 801535c:	4661      	mov	r1, ip
 801535e:	4630      	mov	r0, r6
 8015360:	e88d 1004 	stmia.w	sp, {r2, ip}
 8015364:	f000 fb40 	bl	80159e8 <_sbrk_r>
 8015368:	f1b0 3fff 	cmp.w	r0, #4294967295
 801536c:	4680      	mov	r8, r0
 801536e:	e89d 1004 	ldmia.w	sp, {r2, ip}
 8015372:	f000 8152 	beq.w	801561a <_malloc_r+0x4be>
 8015376:	4583      	cmp	fp, r0
 8015378:	f200 810f 	bhi.w	801559a <_malloc_r+0x43e>
 801537c:	f8df a100 	ldr.w	sl, [pc, #256]	; 8015480 <_malloc_r+0x324>
 8015380:	f8da 3000 	ldr.w	r3, [sl]
 8015384:	45c3      	cmp	fp, r8
 8015386:	4463      	add	r3, ip
 8015388:	f8ca 3000 	str.w	r3, [sl]
 801538c:	f000 814a 	beq.w	8015624 <_malloc_r+0x4c8>
 8015390:	6812      	ldr	r2, [r2, #0]
 8015392:	3201      	adds	r2, #1
 8015394:	f000 8157 	beq.w	8015646 <_malloc_r+0x4ea>
 8015398:	ebcb 0b08 	rsb	fp, fp, r8
 801539c:	445b      	add	r3, fp
 801539e:	f8ca 3000 	str.w	r3, [sl]
 80153a2:	f018 0107 	ands.w	r1, r8, #7
 80153a6:	f000 810b 	beq.w	80155c0 <_malloc_r+0x464>
 80153aa:	f1c1 0008 	rsb	r0, r1, #8
 80153ae:	f5c1 5380 	rsb	r3, r1, #4096	; 0x1000
 80153b2:	4480      	add	r8, r0
 80153b4:	f103 0208 	add.w	r2, r3, #8
 80153b8:	eb08 010c 	add.w	r1, r8, ip
 80153bc:	0508      	lsls	r0, r1, #20
 80153be:	0d03      	lsrs	r3, r0, #20
 80153c0:	ebc3 0b02 	rsb	fp, r3, r2
 80153c4:	4630      	mov	r0, r6
 80153c6:	4659      	mov	r1, fp
 80153c8:	f000 fb0e 	bl	80159e8 <_sbrk_r>
 80153cc:	1c43      	adds	r3, r0, #1
 80153ce:	f000 8146 	beq.w	801565e <_malloc_r+0x502>
 80153d2:	ebc8 0200 	rsb	r2, r8, r0
 80153d6:	eb0b 0102 	add.w	r1, fp, r2
 80153da:	f041 0001 	orr.w	r0, r1, #1
 80153de:	f8da 3000 	ldr.w	r3, [sl]
 80153e2:	f8c7 8008 	str.w	r8, [r7, #8]
 80153e6:	445b      	add	r3, fp
 80153e8:	42bc      	cmp	r4, r7
 80153ea:	f8ca 3000 	str.w	r3, [sl]
 80153ee:	f8c8 0004 	str.w	r0, [r8, #4]
 80153f2:	d015      	beq.n	8015420 <_malloc_r+0x2c4>
 80153f4:	f1b9 0f0f 	cmp.w	r9, #15
 80153f8:	f240 80f2 	bls.w	80155e0 <_malloc_r+0x484>
 80153fc:	6861      	ldr	r1, [r4, #4]
 80153fe:	f1a9 020c 	sub.w	r2, r9, #12
 8015402:	f022 0207 	bic.w	r2, r2, #7
 8015406:	18a0      	adds	r0, r4, r2
 8015408:	f001 0c01 	and.w	ip, r1, #1
 801540c:	ea42 0e0c 	orr.w	lr, r2, ip
 8015410:	2105      	movs	r1, #5
 8015412:	2a0f      	cmp	r2, #15
 8015414:	f8c4 e004 	str.w	lr, [r4, #4]
 8015418:	6041      	str	r1, [r0, #4]
 801541a:	6081      	str	r1, [r0, #8]
 801541c:	f200 8117 	bhi.w	801564e <_malloc_r+0x4f2>
 8015420:	4a15      	ldr	r2, [pc, #84]	; (8015478 <_malloc_r+0x31c>)
 8015422:	68bc      	ldr	r4, [r7, #8]
 8015424:	6810      	ldr	r0, [r2, #0]
 8015426:	4283      	cmp	r3, r0
 8015428:	bf88      	it	hi
 801542a:	6013      	strhi	r3, [r2, #0]
 801542c:	4a13      	ldr	r2, [pc, #76]	; (801547c <_malloc_r+0x320>)
 801542e:	6811      	ldr	r1, [r2, #0]
 8015430:	428b      	cmp	r3, r1
 8015432:	bf88      	it	hi
 8015434:	6013      	strhi	r3, [r2, #0]
 8015436:	6863      	ldr	r3, [r4, #4]
 8015438:	f023 0003 	bic.w	r0, r3, #3
 801543c:	42a8      	cmp	r0, r5
 801543e:	ebc5 0300 	rsb	r3, r5, r0
 8015442:	d301      	bcc.n	8015448 <_malloc_r+0x2ec>
 8015444:	2b0f      	cmp	r3, #15
 8015446:	dc04      	bgt.n	8015452 <_malloc_r+0x2f6>
 8015448:	4630      	mov	r0, r6
 801544a:	f000 facb 	bl	80159e4 <__malloc_unlock>
 801544e:	2400      	movs	r4, #0
 8015450:	e6b0      	b.n	80151b4 <_malloc_r+0x58>
 8015452:	1962      	adds	r2, r4, r5
 8015454:	f043 0101 	orr.w	r1, r3, #1
 8015458:	f045 0501 	orr.w	r5, r5, #1
 801545c:	6065      	str	r5, [r4, #4]
 801545e:	4630      	mov	r0, r6
 8015460:	6051      	str	r1, [r2, #4]
 8015462:	60ba      	str	r2, [r7, #8]
 8015464:	f000 fabe 	bl	80159e4 <__malloc_unlock>
 8015468:	3408      	adds	r4, #8
 801546a:	e6a3      	b.n	80151b4 <_malloc_r+0x58>
 801546c:	10000454 	.word	0x10000454
 8015470:	10000860 	.word	0x10000860
 8015474:	10000e40 	.word	0x10000e40
 8015478:	10000e3c 	.word	0x10000e3c
 801547c:	10000e38 	.word	0x10000e38
 8015480:	10000e44 	.word	0x10000e44
 8015484:	f1bc 0f14 	cmp.w	ip, #20
 8015488:	d97b      	bls.n	8015582 <_malloc_r+0x426>
 801548a:	f1bc 0f54 	cmp.w	ip, #84	; 0x54
 801548e:	f200 808d 	bhi.w	80155ac <_malloc_r+0x450>
 8015492:	ea4f 3415 	mov.w	r4, r5, lsr #12
 8015496:	f104 0e6e 	add.w	lr, r4, #110	; 0x6e
 801549a:	ea4f 014e 	mov.w	r1, lr, lsl #1
 801549e:	e6a2      	b.n	80151e6 <_malloc_r+0x8a>
 80154a0:	0a48      	lsrs	r0, r1, #9
 80154a2:	2804      	cmp	r0, #4
 80154a4:	d972      	bls.n	801558c <_malloc_r+0x430>
 80154a6:	2814      	cmp	r0, #20
 80154a8:	f200 80ae 	bhi.w	8015608 <_malloc_r+0x4ac>
 80154ac:	f100 095b 	add.w	r9, r0, #91	; 0x5b
 80154b0:	ea4f 0249 	mov.w	r2, r9, lsl #1
 80154b4:	eb07 0082 	add.w	r0, r7, r2, lsl #2
 80154b8:	f8df 81f0 	ldr.w	r8, [pc, #496]	; 80156ac <_malloc_r+0x550>
 80154bc:	6883      	ldr	r3, [r0, #8]
 80154be:	4283      	cmp	r3, r0
 80154c0:	f000 8081 	beq.w	80155c6 <_malloc_r+0x46a>
 80154c4:	685a      	ldr	r2, [r3, #4]
 80154c6:	f022 0203 	bic.w	r2, r2, #3
 80154ca:	4291      	cmp	r1, r2
 80154cc:	d202      	bcs.n	80154d4 <_malloc_r+0x378>
 80154ce:	689b      	ldr	r3, [r3, #8]
 80154d0:	4298      	cmp	r0, r3
 80154d2:	d1f7      	bne.n	80154c4 <_malloc_r+0x368>
 80154d4:	68da      	ldr	r2, [r3, #12]
 80154d6:	f8d7 9004 	ldr.w	r9, [r7, #4]
 80154da:	60e2      	str	r2, [r4, #12]
 80154dc:	60a3      	str	r3, [r4, #8]
 80154de:	60dc      	str	r4, [r3, #12]
 80154e0:	6094      	str	r4, [r2, #8]
 80154e2:	e6c0      	b.n	8015266 <_malloc_r+0x10a>
 80154e4:	1961      	adds	r1, r4, r5
 80154e6:	f042 0001 	orr.w	r0, r2, #1
 80154ea:	f045 0501 	orr.w	r5, r5, #1
 80154ee:	6065      	str	r5, [r4, #4]
 80154f0:	6159      	str	r1, [r3, #20]
 80154f2:	6119      	str	r1, [r3, #16]
 80154f4:	6048      	str	r0, [r1, #4]
 80154f6:	f8c1 e00c 	str.w	lr, [r1, #12]
 80154fa:	f8c1 e008 	str.w	lr, [r1, #8]
 80154fe:	508a      	str	r2, [r1, r2]
 8015500:	4630      	mov	r0, r6
 8015502:	f000 fa6f 	bl	80159e4 <__malloc_unlock>
 8015506:	3408      	adds	r4, #8
 8015508:	e654      	b.n	80151b4 <_malloc_r+0x58>
 801550a:	f8d3 9004 	ldr.w	r9, [r3, #4]
 801550e:	e6aa      	b.n	8015266 <_malloc_r+0x10a>
 8015510:	f108 0801 	add.w	r8, r8, #1
 8015514:	3408      	adds	r4, #8
 8015516:	f018 0f03 	tst.w	r8, #3
 801551a:	f47f aeba 	bne.w	8015292 <_malloc_r+0x136>
 801551e:	4649      	mov	r1, r9
 8015520:	f01c 0f03 	tst.w	ip, #3
 8015524:	f1a1 0408 	sub.w	r4, r1, #8
 8015528:	f10c 3cff 	add.w	ip, ip, #4294967295
 801552c:	f000 80b0 	beq.w	8015690 <_malloc_r+0x534>
 8015530:	6809      	ldr	r1, [r1, #0]
 8015532:	42a1      	cmp	r1, r4
 8015534:	d0f4      	beq.n	8015520 <_malloc_r+0x3c4>
 8015536:	687c      	ldr	r4, [r7, #4]
 8015538:	0040      	lsls	r0, r0, #1
 801553a:	42a0      	cmp	r0, r4
 801553c:	f63f aef1 	bhi.w	8015322 <_malloc_r+0x1c6>
 8015540:	2800      	cmp	r0, #0
 8015542:	f43f aeee 	beq.w	8015322 <_malloc_r+0x1c6>
 8015546:	4204      	tst	r4, r0
 8015548:	f000 80a7 	beq.w	801569a <_malloc_r+0x53e>
 801554c:	46c4      	mov	ip, r8
 801554e:	e69c      	b.n	801528a <_malloc_r+0x12e>
 8015550:	f104 0308 	add.w	r3, r4, #8
 8015554:	6964      	ldr	r4, [r4, #20]
 8015556:	42a3      	cmp	r3, r4
 8015558:	bf08      	it	eq
 801555a:	f10c 0c02 	addeq.w	ip, ip, #2
 801555e:	f43f ae58 	beq.w	8015212 <_malloc_r+0xb6>
 8015562:	e617      	b.n	8015194 <_malloc_r+0x38>
 8015564:	1859      	adds	r1, r3, r1
 8015566:	461c      	mov	r4, r3
 8015568:	6848      	ldr	r0, [r1, #4]
 801556a:	68db      	ldr	r3, [r3, #12]
 801556c:	f854 2f08 	ldr.w	r2, [r4, #8]!
 8015570:	f040 0001 	orr.w	r0, r0, #1
 8015574:	6048      	str	r0, [r1, #4]
 8015576:	60d3      	str	r3, [r2, #12]
 8015578:	609a      	str	r2, [r3, #8]
 801557a:	4630      	mov	r0, r6
 801557c:	f000 fa32 	bl	80159e4 <__malloc_unlock>
 8015580:	e618      	b.n	80151b4 <_malloc_r+0x58>
 8015582:	f10c 0e5b 	add.w	lr, ip, #91	; 0x5b
 8015586:	ea4f 014e 	mov.w	r1, lr, lsl #1
 801558a:	e62c      	b.n	80151e6 <_malloc_r+0x8a>
 801558c:	ea4f 1891 	mov.w	r8, r1, lsr #6
 8015590:	f108 0938 	add.w	r9, r8, #56	; 0x38
 8015594:	ea4f 0249 	mov.w	r2, r9, lsl #1
 8015598:	e78c      	b.n	80154b4 <_malloc_r+0x358>
 801559a:	42bc      	cmp	r4, r7
 801559c:	f43f aeee 	beq.w	801537c <_malloc_r+0x220>
 80155a0:	4c42      	ldr	r4, [pc, #264]	; (80156ac <_malloc_r+0x550>)
 80155a2:	68a4      	ldr	r4, [r4, #8]
 80155a4:	6862      	ldr	r2, [r4, #4]
 80155a6:	f022 0003 	bic.w	r0, r2, #3
 80155aa:	e747      	b.n	801543c <_malloc_r+0x2e0>
 80155ac:	f5bc 7faa 	cmp.w	ip, #340	; 0x154
 80155b0:	d81c      	bhi.n	80155ec <_malloc_r+0x490>
 80155b2:	ea4f 32d5 	mov.w	r2, r5, lsr #15
 80155b6:	f102 0e77 	add.w	lr, r2, #119	; 0x77
 80155ba:	ea4f 014e 	mov.w	r1, lr, lsl #1
 80155be:	e612      	b.n	80151e6 <_malloc_r+0x8a>
 80155c0:	f44f 5280 	mov.w	r2, #4096	; 0x1000
 80155c4:	e6f8      	b.n	80153b8 <_malloc_r+0x25c>
 80155c6:	f8d8 0004 	ldr.w	r0, [r8, #4]
 80155ca:	ea4f 02a9 	mov.w	r2, r9, asr #2
 80155ce:	2101      	movs	r1, #1
 80155d0:	fa01 f202 	lsl.w	r2, r1, r2
 80155d4:	ea42 0900 	orr.w	r9, r2, r0
 80155d8:	f8c8 9004 	str.w	r9, [r8, #4]
 80155dc:	461a      	mov	r2, r3
 80155de:	e77c      	b.n	80154da <_malloc_r+0x37e>
 80155e0:	2201      	movs	r2, #1
 80155e2:	f8c8 2004 	str.w	r2, [r8, #4]
 80155e6:	4644      	mov	r4, r8
 80155e8:	2000      	movs	r0, #0
 80155ea:	e727      	b.n	801543c <_malloc_r+0x2e0>
 80155ec:	f240 5354 	movw	r3, #1364	; 0x554
 80155f0:	459c      	cmp	ip, r3
 80155f2:	d824      	bhi.n	801563e <_malloc_r+0x4e2>
 80155f4:	ea4f 4095 	mov.w	r0, r5, lsr #18
 80155f8:	f100 0e7c 	add.w	lr, r0, #124	; 0x7c
 80155fc:	ea4f 014e 	mov.w	r1, lr, lsl #1
 8015600:	e5f1      	b.n	80151e6 <_malloc_r+0x8a>
 8015602:	f103 0c10 	add.w	ip, r3, #16
 8015606:	e6a9      	b.n	801535c <_malloc_r+0x200>
 8015608:	2854      	cmp	r0, #84	; 0x54
 801560a:	d82c      	bhi.n	8015666 <_malloc_r+0x50a>
 801560c:	ea4f 3211 	mov.w	r2, r1, lsr #12
 8015610:	f102 096e 	add.w	r9, r2, #110	; 0x6e
 8015614:	ea4f 0249 	mov.w	r2, r9, lsl #1
 8015618:	e74c      	b.n	80154b4 <_malloc_r+0x358>
 801561a:	68bc      	ldr	r4, [r7, #8]
 801561c:	6861      	ldr	r1, [r4, #4]
 801561e:	f021 0003 	bic.w	r0, r1, #3
 8015622:	e70b      	b.n	801543c <_malloc_r+0x2e0>
 8015624:	ea4f 500b 	mov.w	r0, fp, lsl #20
 8015628:	0d01      	lsrs	r1, r0, #20
 801562a:	2900      	cmp	r1, #0
 801562c:	f47f aeb0 	bne.w	8015390 <_malloc_r+0x234>
 8015630:	68b8      	ldr	r0, [r7, #8]
 8015632:	eb0c 0109 	add.w	r1, ip, r9
 8015636:	f041 0401 	orr.w	r4, r1, #1
 801563a:	6044      	str	r4, [r0, #4]
 801563c:	e6f0      	b.n	8015420 <_malloc_r+0x2c4>
 801563e:	21fc      	movs	r1, #252	; 0xfc
 8015640:	f04f 0e7e 	mov.w	lr, #126	; 0x7e
 8015644:	e5cf      	b.n	80151e6 <_malloc_r+0x8a>
 8015646:	481a      	ldr	r0, [pc, #104]	; (80156b0 <_malloc_r+0x554>)
 8015648:	f8c0 8000 	str.w	r8, [r0]
 801564c:	e6a9      	b.n	80153a2 <_malloc_r+0x246>
 801564e:	f104 0108 	add.w	r1, r4, #8
 8015652:	4c18      	ldr	r4, [pc, #96]	; (80156b4 <_malloc_r+0x558>)
 8015654:	4630      	mov	r0, r6
 8015656:	f000 fa7b 	bl	8015b50 <_free_r>
 801565a:	6823      	ldr	r3, [r4, #0]
 801565c:	e6e0      	b.n	8015420 <_malloc_r+0x2c4>
 801565e:	2001      	movs	r0, #1
 8015660:	f04f 0b00 	mov.w	fp, #0
 8015664:	e6bb      	b.n	80153de <_malloc_r+0x282>
 8015666:	f5b0 7faa 	cmp.w	r0, #340	; 0x154
 801566a:	d806      	bhi.n	801567a <_malloc_r+0x51e>
 801566c:	ea4f 33d1 	mov.w	r3, r1, lsr #15
 8015670:	f103 0977 	add.w	r9, r3, #119	; 0x77
 8015674:	ea4f 0249 	mov.w	r2, r9, lsl #1
 8015678:	e71c      	b.n	80154b4 <_malloc_r+0x358>
 801567a:	f240 5354 	movw	r3, #1364	; 0x554
 801567e:	4298      	cmp	r0, r3
 8015680:	d80f      	bhi.n	80156a2 <_malloc_r+0x546>
 8015682:	ea4f 4091 	mov.w	r0, r1, lsr #18
 8015686:	f100 097c 	add.w	r9, r0, #124	; 0x7c
 801568a:	ea4f 0249 	mov.w	r2, r9, lsl #1
 801568e:	e711      	b.n	80154b4 <_malloc_r+0x358>
 8015690:	687c      	ldr	r4, [r7, #4]
 8015692:	ea24 0400 	bic.w	r4, r4, r0
 8015696:	607c      	str	r4, [r7, #4]
 8015698:	e74e      	b.n	8015538 <_malloc_r+0x3dc>
 801569a:	0040      	lsls	r0, r0, #1
 801569c:	f108 0804 	add.w	r8, r8, #4
 80156a0:	e751      	b.n	8015546 <_malloc_r+0x3ea>
 80156a2:	22fc      	movs	r2, #252	; 0xfc
 80156a4:	f04f 097e 	mov.w	r9, #126	; 0x7e
 80156a8:	e704      	b.n	80154b4 <_malloc_r+0x358>
 80156aa:	bf00      	nop
 80156ac:	10000454 	.word	0x10000454
 80156b0:	10000860 	.word	0x10000860
 80156b4:	10000e44 	.word	0x10000e44

080156b8 <memcmp>:
 80156b8:	2a03      	cmp	r2, #3
 80156ba:	b4f0      	push	{r4, r5, r6, r7}
 80156bc:	d931      	bls.n	8015722 <memcmp+0x6a>
 80156be:	ea41 0300 	orr.w	r3, r1, r0
 80156c2:	079c      	lsls	r4, r3, #30
 80156c4:	d12e      	bne.n	8015724 <memcmp+0x6c>
 80156c6:	6806      	ldr	r6, [r0, #0]
 80156c8:	680f      	ldr	r7, [r1, #0]
 80156ca:	1f15      	subs	r5, r2, #4
 80156cc:	1d03      	adds	r3, r0, #4
 80156ce:	1d0c      	adds	r4, r1, #4
 80156d0:	42be      	cmp	r6, r7
 80156d2:	f3c5 0c80 	ubfx	ip, r5, #2, #1
 80156d6:	d124      	bne.n	8015722 <memcmp+0x6a>
 80156d8:	2d03      	cmp	r5, #3
 80156da:	462a      	mov	r2, r5
 80156dc:	d91f      	bls.n	801571e <memcmp+0x66>
 80156de:	f1bc 0f00 	cmp.w	ip, #0
 80156e2:	d008      	beq.n	80156f6 <memcmp+0x3e>
 80156e4:	6825      	ldr	r5, [r4, #0]
 80156e6:	681e      	ldr	r6, [r3, #0]
 80156e8:	4621      	mov	r1, r4
 80156ea:	4618      	mov	r0, r3
 80156ec:	3404      	adds	r4, #4
 80156ee:	3304      	adds	r3, #4
 80156f0:	42ae      	cmp	r6, r5
 80156f2:	d011      	beq.n	8015718 <memcmp+0x60>
 80156f4:	e015      	b.n	8015722 <memcmp+0x6a>
 80156f6:	4618      	mov	r0, r3
 80156f8:	4621      	mov	r1, r4
 80156fa:	6823      	ldr	r3, [r4, #0]
 80156fc:	6804      	ldr	r4, [r0, #0]
 80156fe:	1d05      	adds	r5, r0, #4
 8015700:	1d0e      	adds	r6, r1, #4
 8015702:	429c      	cmp	r4, r3
 8015704:	d10d      	bne.n	8015722 <memcmp+0x6a>
 8015706:	4628      	mov	r0, r5
 8015708:	4631      	mov	r1, r6
 801570a:	6835      	ldr	r5, [r6, #0]
 801570c:	6806      	ldr	r6, [r0, #0]
 801570e:	3a04      	subs	r2, #4
 8015710:	1d03      	adds	r3, r0, #4
 8015712:	1d0c      	adds	r4, r1, #4
 8015714:	42ae      	cmp	r6, r5
 8015716:	d104      	bne.n	8015722 <memcmp+0x6a>
 8015718:	3a04      	subs	r2, #4
 801571a:	2a03      	cmp	r2, #3
 801571c:	d8eb      	bhi.n	80156f6 <memcmp+0x3e>
 801571e:	4621      	mov	r1, r4
 8015720:	4618      	mov	r0, r3
 8015722:	b31a      	cbz	r2, 801576c <memcmp+0xb4>
 8015724:	7803      	ldrb	r3, [r0, #0]
 8015726:	780c      	ldrb	r4, [r1, #0]
 8015728:	42a3      	cmp	r3, r4
 801572a:	d10a      	bne.n	8015742 <memcmp+0x8a>
 801572c:	1e55      	subs	r5, r2, #1
 801572e:	2200      	movs	r2, #0
 8015730:	07eb      	lsls	r3, r5, #31
 8015732:	d514      	bpl.n	801575e <memcmp+0xa6>
 8015734:	f810 3f01 	ldrb.w	r3, [r0, #1]!
 8015738:	f811 4f01 	ldrb.w	r4, [r1, #1]!
 801573c:	2201      	movs	r2, #1
 801573e:	42a3      	cmp	r3, r4
 8015740:	d00d      	beq.n	801575e <memcmp+0xa6>
 8015742:	1b18      	subs	r0, r3, r4
 8015744:	e010      	b.n	8015768 <memcmp+0xb0>
 8015746:	f810 3f01 	ldrb.w	r3, [r0, #1]!
 801574a:	f811 4f01 	ldrb.w	r4, [r1, #1]!
 801574e:	42a3      	cmp	r3, r4
 8015750:	d1f7      	bne.n	8015742 <memcmp+0x8a>
 8015752:	f810 3f01 	ldrb.w	r3, [r0, #1]!
 8015756:	f811 4f01 	ldrb.w	r4, [r1, #1]!
 801575a:	42a3      	cmp	r3, r4
 801575c:	d1f1      	bne.n	8015742 <memcmp+0x8a>
 801575e:	42aa      	cmp	r2, r5
 8015760:	f102 0202 	add.w	r2, r2, #2
 8015764:	d1ef      	bne.n	8015746 <memcmp+0x8e>
 8015766:	2000      	movs	r0, #0
 8015768:	bcf0      	pop	{r4, r5, r6, r7}
 801576a:	4770      	bx	lr
 801576c:	4610      	mov	r0, r2
 801576e:	e7fb      	b.n	8015768 <memcmp+0xb0>

08015770 <memcpy>:
 8015770:	2a0f      	cmp	r2, #15
 8015772:	e92d 03f0 	stmdb	sp!, {r4, r5, r6, r7, r8, r9}
 8015776:	f240 8095 	bls.w	80158a4 <memcpy+0x134>
 801577a:	ea41 0300 	orr.w	r3, r1, r0
 801577e:	079b      	lsls	r3, r3, #30
 8015780:	f040 8092 	bne.w	80158a8 <memcpy+0x138>
 8015784:	680c      	ldr	r4, [r1, #0]
 8015786:	6004      	str	r4, [r0, #0]
 8015788:	684d      	ldr	r5, [r1, #4]
 801578a:	6045      	str	r5, [r0, #4]
 801578c:	688e      	ldr	r6, [r1, #8]
 801578e:	f1a2 0310 	sub.w	r3, r2, #16
 8015792:	6086      	str	r6, [r0, #8]
 8015794:	68cc      	ldr	r4, [r1, #12]
 8015796:	461d      	mov	r5, r3
 8015798:	2d0f      	cmp	r5, #15
 801579a:	60c4      	str	r4, [r0, #12]
 801579c:	f3c3 1600 	ubfx	r6, r3, #4, #1
 80157a0:	f101 0410 	add.w	r4, r1, #16
 80157a4:	f100 0310 	add.w	r3, r0, #16
 80157a8:	d922      	bls.n	80157f0 <memcpy+0x80>
 80157aa:	b166      	cbz	r6, 80157c6 <memcpy+0x56>
 80157ac:	6826      	ldr	r6, [r4, #0]
 80157ae:	601e      	str	r6, [r3, #0]
 80157b0:	6866      	ldr	r6, [r4, #4]
 80157b2:	605e      	str	r6, [r3, #4]
 80157b4:	68a6      	ldr	r6, [r4, #8]
 80157b6:	609e      	str	r6, [r3, #8]
 80157b8:	68e6      	ldr	r6, [r4, #12]
 80157ba:	3d10      	subs	r5, #16
 80157bc:	60de      	str	r6, [r3, #12]
 80157be:	3410      	adds	r4, #16
 80157c0:	3310      	adds	r3, #16
 80157c2:	2d0f      	cmp	r5, #15
 80157c4:	d914      	bls.n	80157f0 <memcpy+0x80>
 80157c6:	6826      	ldr	r6, [r4, #0]
 80157c8:	601e      	str	r6, [r3, #0]
 80157ca:	6866      	ldr	r6, [r4, #4]
 80157cc:	605e      	str	r6, [r3, #4]
 80157ce:	68a6      	ldr	r6, [r4, #8]
 80157d0:	609e      	str	r6, [r3, #8]
 80157d2:	68e6      	ldr	r6, [r4, #12]
 80157d4:	60de      	str	r6, [r3, #12]
 80157d6:	6926      	ldr	r6, [r4, #16]
 80157d8:	611e      	str	r6, [r3, #16]
 80157da:	6966      	ldr	r6, [r4, #20]
 80157dc:	615e      	str	r6, [r3, #20]
 80157de:	69a6      	ldr	r6, [r4, #24]
 80157e0:	619e      	str	r6, [r3, #24]
 80157e2:	69e6      	ldr	r6, [r4, #28]
 80157e4:	3d20      	subs	r5, #32
 80157e6:	61de      	str	r6, [r3, #28]
 80157e8:	3420      	adds	r4, #32
 80157ea:	3320      	adds	r3, #32
 80157ec:	2d0f      	cmp	r5, #15
 80157ee:	d8ea      	bhi.n	80157c6 <memcpy+0x56>
 80157f0:	f1a2 0310 	sub.w	r3, r2, #16
 80157f4:	f023 040f 	bic.w	r4, r3, #15
 80157f8:	f002 030f 	and.w	r3, r2, #15
 80157fc:	3410      	adds	r4, #16
 80157fe:	2b03      	cmp	r3, #3
 8015800:	eb00 0804 	add.w	r8, r0, r4
 8015804:	4421      	add	r1, r4
 8015806:	d951      	bls.n	80158ac <memcpy+0x13c>
 8015808:	f1a3 0904 	sub.w	r9, r3, #4
 801580c:	460b      	mov	r3, r1
 801580e:	ea4f 0999 	mov.w	r9, r9, lsr #2
 8015812:	eb01 0c89 	add.w	ip, r1, r9, lsl #2
 8015816:	f853 6b04 	ldr.w	r6, [r3], #4
 801581a:	ebc1 050c 	rsb	r5, r1, ip
 801581e:	4644      	mov	r4, r8
 8015820:	f10c 0c04 	add.w	ip, ip, #4
 8015824:	4563      	cmp	r3, ip
 8015826:	f844 6b04 	str.w	r6, [r4], #4
 801582a:	f3c5 0580 	ubfx	r5, r5, #2, #1
 801582e:	d012      	beq.n	8015856 <memcpy+0xe6>
 8015830:	b12d      	cbz	r5, 801583e <memcpy+0xce>
 8015832:	f853 5b04 	ldr.w	r5, [r3], #4
 8015836:	4563      	cmp	r3, ip
 8015838:	f844 5b04 	str.w	r5, [r4], #4
 801583c:	d00b      	beq.n	8015856 <memcpy+0xe6>
 801583e:	461e      	mov	r6, r3
 8015840:	4625      	mov	r5, r4
 8015842:	f856 7b04 	ldr.w	r7, [r6], #4
 8015846:	f845 7b04 	str.w	r7, [r5], #4
 801584a:	685f      	ldr	r7, [r3, #4]
 801584c:	1d33      	adds	r3, r6, #4
 801584e:	6067      	str	r7, [r4, #4]
 8015850:	1d2c      	adds	r4, r5, #4
 8015852:	4563      	cmp	r3, ip
 8015854:	d1f3      	bne.n	801583e <memcpy+0xce>
 8015856:	f109 0301 	add.w	r3, r9, #1
 801585a:	009c      	lsls	r4, r3, #2
 801585c:	1909      	adds	r1, r1, r4
 801585e:	f002 0203 	and.w	r2, r2, #3
 8015862:	4444      	add	r4, r8
 8015864:	b1da      	cbz	r2, 801589e <memcpy+0x12e>
 8015866:	4623      	mov	r3, r4
 8015868:	780d      	ldrb	r5, [r1, #0]
 801586a:	f803 5b01 	strb.w	r5, [r3], #1
 801586e:	18a2      	adds	r2, r4, r2
 8015870:	43e4      	mvns	r4, r4
 8015872:	1914      	adds	r4, r2, r4
 8015874:	4293      	cmp	r3, r2
 8015876:	f004 0401 	and.w	r4, r4, #1
 801587a:	d010      	beq.n	801589e <memcpy+0x12e>
 801587c:	b12c      	cbz	r4, 801588a <memcpy+0x11a>
 801587e:	f811 4f01 	ldrb.w	r4, [r1, #1]!
 8015882:	f803 4b01 	strb.w	r4, [r3], #1
 8015886:	4293      	cmp	r3, r2
 8015888:	d009      	beq.n	801589e <memcpy+0x12e>
 801588a:	784d      	ldrb	r5, [r1, #1]
 801588c:	461c      	mov	r4, r3
 801588e:	f804 5b01 	strb.w	r5, [r4], #1
 8015892:	788d      	ldrb	r5, [r1, #2]
 8015894:	705d      	strb	r5, [r3, #1]
 8015896:	1c63      	adds	r3, r4, #1
 8015898:	3102      	adds	r1, #2
 801589a:	4293      	cmp	r3, r2
 801589c:	d1f5      	bne.n	801588a <memcpy+0x11a>
 801589e:	e8bd 03f0 	ldmia.w	sp!, {r4, r5, r6, r7, r8, r9}
 80158a2:	4770      	bx	lr
 80158a4:	4604      	mov	r4, r0
 80158a6:	e7dd      	b.n	8015864 <memcpy+0xf4>
 80158a8:	4604      	mov	r4, r0
 80158aa:	e7dc      	b.n	8015866 <memcpy+0xf6>
 80158ac:	4644      	mov	r4, r8
 80158ae:	461a      	mov	r2, r3
 80158b0:	e7d8      	b.n	8015864 <memcpy+0xf4>
 80158b2:	bf00      	nop

080158b4 <memset>:
 80158b4:	b4f0      	push	{r4, r5, r6, r7}
 80158b6:	0784      	lsls	r4, r0, #30
 80158b8:	4603      	mov	r3, r0
 80158ba:	f000 808e 	beq.w	80159da <memset+0x126>
 80158be:	1e54      	subs	r4, r2, #1
 80158c0:	2a00      	cmp	r2, #0
 80158c2:	f000 8088 	beq.w	80159d6 <memset+0x122>
 80158c6:	07e5      	lsls	r5, r4, #31
 80158c8:	b2ce      	uxtb	r6, r1
 80158ca:	d411      	bmi.n	80158f0 <memset+0x3c>
 80158cc:	461a      	mov	r2, r3
 80158ce:	1e67      	subs	r7, r4, #1
 80158d0:	f802 6b01 	strb.w	r6, [r2], #1
 80158d4:	4613      	mov	r3, r2
 80158d6:	4615      	mov	r5, r2
 80158d8:	0792      	lsls	r2, r2, #30
 80158da:	d00f      	beq.n	80158fc <memset+0x48>
 80158dc:	2c00      	cmp	r4, #0
 80158de:	d07a      	beq.n	80159d6 <memset+0x122>
 80158e0:	f803 6b01 	strb.w	r6, [r3], #1
 80158e4:	079a      	lsls	r2, r3, #30
 80158e6:	463c      	mov	r4, r7
 80158e8:	461d      	mov	r5, r3
 80158ea:	d007      	beq.n	80158fc <memset+0x48>
 80158ec:	3c01      	subs	r4, #1
 80158ee:	e7ed      	b.n	80158cc <memset+0x18>
 80158f0:	4603      	mov	r3, r0
 80158f2:	f803 6b01 	strb.w	r6, [r3], #1
 80158f6:	079a      	lsls	r2, r3, #30
 80158f8:	461d      	mov	r5, r3
 80158fa:	d1f7      	bne.n	80158ec <memset+0x38>
 80158fc:	2c03      	cmp	r4, #3
 80158fe:	d952      	bls.n	80159a6 <memset+0xf2>
 8015900:	b2ce      	uxtb	r6, r1
 8015902:	ea46 2706 	orr.w	r7, r6, r6, lsl #8
 8015906:	2c0f      	cmp	r4, #15
 8015908:	ea47 4307 	orr.w	r3, r7, r7, lsl #16
 801590c:	d92d      	bls.n	801596a <memset+0xb6>
 801590e:	f1a4 0210 	sub.w	r2, r4, #16
 8015912:	4617      	mov	r7, r2
 8015914:	2f0f      	cmp	r7, #15
 8015916:	f3c2 1600 	ubfx	r6, r2, #4, #1
 801591a:	602b      	str	r3, [r5, #0]
 801591c:	606b      	str	r3, [r5, #4]
 801591e:	60ab      	str	r3, [r5, #8]
 8015920:	60eb      	str	r3, [r5, #12]
 8015922:	f105 0210 	add.w	r2, r5, #16
 8015926:	d916      	bls.n	8015956 <memset+0xa2>
 8015928:	b13e      	cbz	r6, 801593a <memset+0x86>
 801592a:	3f10      	subs	r7, #16
 801592c:	6013      	str	r3, [r2, #0]
 801592e:	6053      	str	r3, [r2, #4]
 8015930:	6093      	str	r3, [r2, #8]
 8015932:	60d3      	str	r3, [r2, #12]
 8015934:	3210      	adds	r2, #16
 8015936:	2f0f      	cmp	r7, #15
 8015938:	d90d      	bls.n	8015956 <memset+0xa2>
 801593a:	3f20      	subs	r7, #32
 801593c:	f102 0610 	add.w	r6, r2, #16
 8015940:	6013      	str	r3, [r2, #0]
 8015942:	6053      	str	r3, [r2, #4]
 8015944:	6093      	str	r3, [r2, #8]
 8015946:	60d3      	str	r3, [r2, #12]
 8015948:	6113      	str	r3, [r2, #16]
 801594a:	6153      	str	r3, [r2, #20]
 801594c:	6193      	str	r3, [r2, #24]
 801594e:	61d3      	str	r3, [r2, #28]
 8015950:	3220      	adds	r2, #32
 8015952:	2f0f      	cmp	r7, #15
 8015954:	d8f1      	bhi.n	801593a <memset+0x86>
 8015956:	f1a4 0210 	sub.w	r2, r4, #16
 801595a:	f022 020f 	bic.w	r2, r2, #15
 801595e:	f004 040f 	and.w	r4, r4, #15
 8015962:	3210      	adds	r2, #16
 8015964:	2c03      	cmp	r4, #3
 8015966:	4415      	add	r5, r2
 8015968:	d91d      	bls.n	80159a6 <memset+0xf2>
 801596a:	1f27      	subs	r7, r4, #4
 801596c:	463e      	mov	r6, r7
 801596e:	462a      	mov	r2, r5
 8015970:	2e03      	cmp	r6, #3
 8015972:	f842 3b04 	str.w	r3, [r2], #4
 8015976:	f3c7 0780 	ubfx	r7, r7, #2, #1
 801597a:	d90d      	bls.n	8015998 <memset+0xe4>
 801597c:	b127      	cbz	r7, 8015988 <memset+0xd4>
 801597e:	3e04      	subs	r6, #4
 8015980:	2e03      	cmp	r6, #3
 8015982:	f842 3b04 	str.w	r3, [r2], #4
 8015986:	d907      	bls.n	8015998 <memset+0xe4>
 8015988:	4617      	mov	r7, r2
 801598a:	3e08      	subs	r6, #8
 801598c:	f847 3b04 	str.w	r3, [r7], #4
 8015990:	6053      	str	r3, [r2, #4]
 8015992:	1d3a      	adds	r2, r7, #4
 8015994:	2e03      	cmp	r6, #3
 8015996:	d8f7      	bhi.n	8015988 <memset+0xd4>
 8015998:	1f23      	subs	r3, r4, #4
 801599a:	f023 0203 	bic.w	r2, r3, #3
 801599e:	1d13      	adds	r3, r2, #4
 80159a0:	f004 0403 	and.w	r4, r4, #3
 80159a4:	18ed      	adds	r5, r5, r3
 80159a6:	b1b4      	cbz	r4, 80159d6 <memset+0x122>
 80159a8:	462b      	mov	r3, r5
 80159aa:	b2c9      	uxtb	r1, r1
 80159ac:	f803 1b01 	strb.w	r1, [r3], #1
 80159b0:	192c      	adds	r4, r5, r4
 80159b2:	43ed      	mvns	r5, r5
 80159b4:	1962      	adds	r2, r4, r5
 80159b6:	42a3      	cmp	r3, r4
 80159b8:	f002 0501 	and.w	r5, r2, #1
 80159bc:	d00b      	beq.n	80159d6 <memset+0x122>
 80159be:	b11d      	cbz	r5, 80159c8 <memset+0x114>
 80159c0:	f803 1b01 	strb.w	r1, [r3], #1
 80159c4:	42a3      	cmp	r3, r4
 80159c6:	d006      	beq.n	80159d6 <memset+0x122>
 80159c8:	461a      	mov	r2, r3
 80159ca:	f802 1b01 	strb.w	r1, [r2], #1
 80159ce:	7059      	strb	r1, [r3, #1]
 80159d0:	1c53      	adds	r3, r2, #1
 80159d2:	42a3      	cmp	r3, r4
 80159d4:	d1f8      	bne.n	80159c8 <memset+0x114>
 80159d6:	bcf0      	pop	{r4, r5, r6, r7}
 80159d8:	4770      	bx	lr
 80159da:	4605      	mov	r5, r0
 80159dc:	4614      	mov	r4, r2
 80159de:	e78d      	b.n	80158fc <memset+0x48>

080159e0 <__malloc_lock>:
 80159e0:	4770      	bx	lr
 80159e2:	bf00      	nop

080159e4 <__malloc_unlock>:
 80159e4:	4770      	bx	lr
 80159e6:	bf00      	nop

080159e8 <_sbrk_r>:
 80159e8:	b538      	push	{r3, r4, r5, lr}
 80159ea:	4c07      	ldr	r4, [pc, #28]	; (8015a08 <_sbrk_r+0x20>)
 80159ec:	2300      	movs	r3, #0
 80159ee:	4605      	mov	r5, r0
 80159f0:	4608      	mov	r0, r1
 80159f2:	6023      	str	r3, [r4, #0]
 80159f4:	f7fd f97a 	bl	8012cec <_sbrk>
 80159f8:	1c43      	adds	r3, r0, #1
 80159fa:	d000      	beq.n	80159fe <_sbrk_r+0x16>
 80159fc:	bd38      	pop	{r3, r4, r5, pc}
 80159fe:	6821      	ldr	r1, [r4, #0]
 8015a00:	2900      	cmp	r1, #0
 8015a02:	d0fb      	beq.n	80159fc <_sbrk_r+0x14>
 8015a04:	6029      	str	r1, [r5, #0]
 8015a06:	bd38      	pop	{r3, r4, r5, pc}
 8015a08:	10000eac 	.word	0x10000eac

08015a0c <__register_exitproc>:
 8015a0c:	e92d 41f0 	stmdb	sp!, {r4, r5, r6, r7, r8, lr}
 8015a10:	4c27      	ldr	r4, [pc, #156]	; (8015ab0 <__register_exitproc+0xa4>)
 8015a12:	6825      	ldr	r5, [r4, #0]
 8015a14:	f8d5 4148 	ldr.w	r4, [r5, #328]	; 0x148
 8015a18:	b084      	sub	sp, #16
 8015a1a:	4607      	mov	r7, r0
 8015a1c:	2c00      	cmp	r4, #0
 8015a1e:	d041      	beq.n	8015aa4 <__register_exitproc+0x98>
 8015a20:	6866      	ldr	r6, [r4, #4]
 8015a22:	2e1f      	cmp	r6, #31
 8015a24:	dd1c      	ble.n	8015a60 <__register_exitproc+0x54>
 8015a26:	4823      	ldr	r0, [pc, #140]	; (8015ab4 <__register_exitproc+0xa8>)
 8015a28:	b910      	cbnz	r0, 8015a30 <__register_exitproc+0x24>
 8015a2a:	f04f 30ff 	mov.w	r0, #4294967295
 8015a2e:	e01f      	b.n	8015a70 <__register_exitproc+0x64>
 8015a30:	f44f 70c8 	mov.w	r0, #400	; 0x190
 8015a34:	9103      	str	r1, [sp, #12]
 8015a36:	9202      	str	r2, [sp, #8]
 8015a38:	9301      	str	r3, [sp, #4]
 8015a3a:	f7ff fb7f 	bl	801513c <malloc>
 8015a3e:	9903      	ldr	r1, [sp, #12]
 8015a40:	9a02      	ldr	r2, [sp, #8]
 8015a42:	9b01      	ldr	r3, [sp, #4]
 8015a44:	4604      	mov	r4, r0
 8015a46:	2800      	cmp	r0, #0
 8015a48:	d0ef      	beq.n	8015a2a <__register_exitproc+0x1e>
 8015a4a:	f8d5 6148 	ldr.w	r6, [r5, #328]	; 0x148
 8015a4e:	2000      	movs	r0, #0
 8015a50:	6060      	str	r0, [r4, #4]
 8015a52:	6026      	str	r6, [r4, #0]
 8015a54:	f8c5 4148 	str.w	r4, [r5, #328]	; 0x148
 8015a58:	f8c4 0188 	str.w	r0, [r4, #392]	; 0x188
 8015a5c:	f8c4 018c 	str.w	r0, [r4, #396]	; 0x18c
 8015a60:	6865      	ldr	r5, [r4, #4]
 8015a62:	b947      	cbnz	r7, 8015a76 <__register_exitproc+0x6a>
 8015a64:	1ca8      	adds	r0, r5, #2
 8015a66:	3501      	adds	r5, #1
 8015a68:	f844 1020 	str.w	r1, [r4, r0, lsl #2]
 8015a6c:	6065      	str	r5, [r4, #4]
 8015a6e:	2000      	movs	r0, #0
 8015a70:	b004      	add	sp, #16
 8015a72:	e8bd 81f0 	ldmia.w	sp!, {r4, r5, r6, r7, r8, pc}
 8015a76:	f8d4 6188 	ldr.w	r6, [r4, #392]	; 0x188
 8015a7a:	2001      	movs	r0, #1
 8015a7c:	eb04 0885 	add.w	r8, r4, r5, lsl #2
 8015a80:	fa00 f005 	lsl.w	r0, r0, r5
 8015a84:	4306      	orrs	r6, r0
 8015a86:	2f02      	cmp	r7, #2
 8015a88:	f8c8 2088 	str.w	r2, [r8, #136]	; 0x88
 8015a8c:	f8c4 6188 	str.w	r6, [r4, #392]	; 0x188
 8015a90:	f8c8 3108 	str.w	r3, [r8, #264]	; 0x108
 8015a94:	d1e6      	bne.n	8015a64 <__register_exitproc+0x58>
 8015a96:	f8d4 318c 	ldr.w	r3, [r4, #396]	; 0x18c
 8015a9a:	ea43 0200 	orr.w	r2, r3, r0
 8015a9e:	f8c4 218c 	str.w	r2, [r4, #396]	; 0x18c
 8015aa2:	e7df      	b.n	8015a64 <__register_exitproc+0x58>
 8015aa4:	f505 74a6 	add.w	r4, r5, #332	; 0x14c
 8015aa8:	f8c5 4148 	str.w	r4, [r5, #328]	; 0x148
 8015aac:	e7b8      	b.n	8015a20 <__register_exitproc+0x14>
 8015aae:	bf00      	nop
 8015ab0:	0801b20c 	.word	0x0801b20c
 8015ab4:	0801513d 	.word	0x0801513d

08015ab8 <_malloc_trim_r>:
 8015ab8:	b5f8      	push	{r3, r4, r5, r6, r7, lr}
 8015aba:	4d22      	ldr	r5, [pc, #136]	; (8015b44 <_malloc_trim_r+0x8c>)
 8015abc:	460f      	mov	r7, r1
 8015abe:	4604      	mov	r4, r0
 8015ac0:	f7ff ff8e 	bl	80159e0 <__malloc_lock>
 8015ac4:	68ab      	ldr	r3, [r5, #8]
 8015ac6:	685e      	ldr	r6, [r3, #4]
 8015ac8:	f026 0603 	bic.w	r6, r6, #3
 8015acc:	f606 70ef 	addw	r0, r6, #4079	; 0xfef
 8015ad0:	1bc1      	subs	r1, r0, r7
 8015ad2:	0b0a      	lsrs	r2, r1, #12
 8015ad4:	1e57      	subs	r7, r2, #1
 8015ad6:	033f      	lsls	r7, r7, #12
 8015ad8:	f5b7 5f80 	cmp.w	r7, #4096	; 0x1000
 8015adc:	db07      	blt.n	8015aee <_malloc_trim_r+0x36>
 8015ade:	2100      	movs	r1, #0
 8015ae0:	4620      	mov	r0, r4
 8015ae2:	f7ff ff81 	bl	80159e8 <_sbrk_r>
 8015ae6:	68ab      	ldr	r3, [r5, #8]
 8015ae8:	1999      	adds	r1, r3, r6
 8015aea:	4288      	cmp	r0, r1
 8015aec:	d004      	beq.n	8015af8 <_malloc_trim_r+0x40>
 8015aee:	4620      	mov	r0, r4
 8015af0:	f7ff ff78 	bl	80159e4 <__malloc_unlock>
 8015af4:	2000      	movs	r0, #0
 8015af6:	bdf8      	pop	{r3, r4, r5, r6, r7, pc}
 8015af8:	4279      	negs	r1, r7
 8015afa:	4620      	mov	r0, r4
 8015afc:	f7ff ff74 	bl	80159e8 <_sbrk_r>
 8015b00:	3001      	adds	r0, #1
 8015b02:	d00d      	beq.n	8015b20 <_malloc_trim_r+0x68>
 8015b04:	4b10      	ldr	r3, [pc, #64]	; (8015b48 <_malloc_trim_r+0x90>)
 8015b06:	68a8      	ldr	r0, [r5, #8]
 8015b08:	681a      	ldr	r2, [r3, #0]
 8015b0a:	1bf6      	subs	r6, r6, r7
 8015b0c:	f046 0601 	orr.w	r6, r6, #1
 8015b10:	1bd7      	subs	r7, r2, r7
 8015b12:	6046      	str	r6, [r0, #4]
 8015b14:	4620      	mov	r0, r4
 8015b16:	601f      	str	r7, [r3, #0]
 8015b18:	f7ff ff64 	bl	80159e4 <__malloc_unlock>
 8015b1c:	2001      	movs	r0, #1
 8015b1e:	bdf8      	pop	{r3, r4, r5, r6, r7, pc}
 8015b20:	2100      	movs	r1, #0
 8015b22:	4620      	mov	r0, r4
 8015b24:	f7ff ff60 	bl	80159e8 <_sbrk_r>
 8015b28:	68ab      	ldr	r3, [r5, #8]
 8015b2a:	1ac2      	subs	r2, r0, r3
 8015b2c:	2a0f      	cmp	r2, #15
 8015b2e:	ddde      	ble.n	8015aee <_malloc_trim_r+0x36>
 8015b30:	4906      	ldr	r1, [pc, #24]	; (8015b4c <_malloc_trim_r+0x94>)
 8015b32:	6809      	ldr	r1, [r1, #0]
 8015b34:	1a40      	subs	r0, r0, r1
 8015b36:	4904      	ldr	r1, [pc, #16]	; (8015b48 <_malloc_trim_r+0x90>)
 8015b38:	f042 0201 	orr.w	r2, r2, #1
 8015b3c:	6008      	str	r0, [r1, #0]
 8015b3e:	605a      	str	r2, [r3, #4]
 8015b40:	e7d5      	b.n	8015aee <_malloc_trim_r+0x36>
 8015b42:	bf00      	nop
 8015b44:	10000454 	.word	0x10000454
 8015b48:	10000e44 	.word	0x10000e44
 8015b4c:	10000860 	.word	0x10000860

08015b50 <_free_r>:
 8015b50:	e92d 41f0 	stmdb	sp!, {r4, r5, r6, r7, r8, lr}
 8015b54:	460d      	mov	r5, r1
 8015b56:	4606      	mov	r6, r0
 8015b58:	2900      	cmp	r1, #0
 8015b5a:	d055      	beq.n	8015c08 <_free_r+0xb8>
 8015b5c:	f7ff ff40 	bl	80159e0 <__malloc_lock>
 8015b60:	f855 1c04 	ldr.w	r1, [r5, #-4]
 8015b64:	f8df c16c 	ldr.w	ip, [pc, #364]	; 8015cd4 <_free_r+0x184>
 8015b68:	f1a5 0408 	sub.w	r4, r5, #8
 8015b6c:	f021 0301 	bic.w	r3, r1, #1
 8015b70:	18e2      	adds	r2, r4, r3
 8015b72:	f8dc 0008 	ldr.w	r0, [ip, #8]
 8015b76:	6857      	ldr	r7, [r2, #4]
 8015b78:	4290      	cmp	r0, r2
 8015b7a:	f027 0703 	bic.w	r7, r7, #3
 8015b7e:	d065      	beq.n	8015c4c <_free_r+0xfc>
 8015b80:	f011 0101 	ands.w	r1, r1, #1
 8015b84:	6057      	str	r7, [r2, #4]
 8015b86:	d032      	beq.n	8015bee <_free_r+0x9e>
 8015b88:	2100      	movs	r1, #0
 8015b8a:	19d0      	adds	r0, r2, r7
 8015b8c:	6840      	ldr	r0, [r0, #4]
 8015b8e:	07c0      	lsls	r0, r0, #31
 8015b90:	d406      	bmi.n	8015ba0 <_free_r+0x50>
 8015b92:	19db      	adds	r3, r3, r7
 8015b94:	6890      	ldr	r0, [r2, #8]
 8015b96:	2900      	cmp	r1, #0
 8015b98:	d04a      	beq.n	8015c30 <_free_r+0xe0>
 8015b9a:	68d2      	ldr	r2, [r2, #12]
 8015b9c:	60c2      	str	r2, [r0, #12]
 8015b9e:	6090      	str	r0, [r2, #8]
 8015ba0:	f043 0001 	orr.w	r0, r3, #1
 8015ba4:	6060      	str	r0, [r4, #4]
 8015ba6:	50e3      	str	r3, [r4, r3]
 8015ba8:	b9e1      	cbnz	r1, 8015be4 <_free_r+0x94>
 8015baa:	f5b3 7f00 	cmp.w	r3, #512	; 0x200
 8015bae:	d32d      	bcc.n	8015c0c <_free_r+0xbc>
 8015bb0:	0a5a      	lsrs	r2, r3, #9
 8015bb2:	2a04      	cmp	r2, #4
 8015bb4:	d866      	bhi.n	8015c84 <_free_r+0x134>
 8015bb6:	0998      	lsrs	r0, r3, #6
 8015bb8:	3038      	adds	r0, #56	; 0x38
 8015bba:	0042      	lsls	r2, r0, #1
 8015bbc:	eb0c 0e82 	add.w	lr, ip, r2, lsl #2
 8015bc0:	4944      	ldr	r1, [pc, #272]	; (8015cd4 <_free_r+0x184>)
 8015bc2:	f8de 2008 	ldr.w	r2, [lr, #8]
 8015bc6:	4572      	cmp	r2, lr
 8015bc8:	d062      	beq.n	8015c90 <_free_r+0x140>
 8015bca:	6850      	ldr	r0, [r2, #4]
 8015bcc:	f020 0103 	bic.w	r1, r0, #3
 8015bd0:	428b      	cmp	r3, r1
 8015bd2:	d202      	bcs.n	8015bda <_free_r+0x8a>
 8015bd4:	6892      	ldr	r2, [r2, #8]
 8015bd6:	4596      	cmp	lr, r2
 8015bd8:	d1f7      	bne.n	8015bca <_free_r+0x7a>
 8015bda:	68d0      	ldr	r0, [r2, #12]
 8015bdc:	60e0      	str	r0, [r4, #12]
 8015bde:	60a2      	str	r2, [r4, #8]
 8015be0:	60d4      	str	r4, [r2, #12]
 8015be2:	6084      	str	r4, [r0, #8]
 8015be4:	4630      	mov	r0, r6
 8015be6:	e8bd 41f0 	ldmia.w	sp!, {r4, r5, r6, r7, r8, lr}
 8015bea:	f7ff befb 	b.w	80159e4 <__malloc_unlock>
 8015bee:	f855 5c08 	ldr.w	r5, [r5, #-8]
 8015bf2:	1b64      	subs	r4, r4, r5
 8015bf4:	f10c 0808 	add.w	r8, ip, #8
 8015bf8:	68a0      	ldr	r0, [r4, #8]
 8015bfa:	4540      	cmp	r0, r8
 8015bfc:	442b      	add	r3, r5
 8015bfe:	d03f      	beq.n	8015c80 <_free_r+0x130>
 8015c00:	68e5      	ldr	r5, [r4, #12]
 8015c02:	60c5      	str	r5, [r0, #12]
 8015c04:	60a8      	str	r0, [r5, #8]
 8015c06:	e7c0      	b.n	8015b8a <_free_r+0x3a>
 8015c08:	e8bd 81f0 	ldmia.w	sp!, {r4, r5, r6, r7, r8, pc}
 8015c0c:	08dd      	lsrs	r5, r3, #3
 8015c0e:	eb0c 02c5 	add.w	r2, ip, r5, lsl #3
 8015c12:	f8dc 0004 	ldr.w	r0, [ip, #4]
 8015c16:	6891      	ldr	r1, [r2, #8]
 8015c18:	60e2      	str	r2, [r4, #12]
 8015c1a:	10ab      	asrs	r3, r5, #2
 8015c1c:	2501      	movs	r5, #1
 8015c1e:	fa05 f303 	lsl.w	r3, r5, r3
 8015c22:	4318      	orrs	r0, r3
 8015c24:	60a1      	str	r1, [r4, #8]
 8015c26:	f8cc 0004 	str.w	r0, [ip, #4]
 8015c2a:	6094      	str	r4, [r2, #8]
 8015c2c:	60cc      	str	r4, [r1, #12]
 8015c2e:	e7d9      	b.n	8015be4 <_free_r+0x94>
 8015c30:	4d29      	ldr	r5, [pc, #164]	; (8015cd8 <_free_r+0x188>)
 8015c32:	42a8      	cmp	r0, r5
 8015c34:	d1b1      	bne.n	8015b9a <_free_r+0x4a>
 8015c36:	f043 0201 	orr.w	r2, r3, #1
 8015c3a:	f8cc 4014 	str.w	r4, [ip, #20]
 8015c3e:	f8cc 4010 	str.w	r4, [ip, #16]
 8015c42:	60e0      	str	r0, [r4, #12]
 8015c44:	60a0      	str	r0, [r4, #8]
 8015c46:	6062      	str	r2, [r4, #4]
 8015c48:	50e3      	str	r3, [r4, r3]
 8015c4a:	e7cb      	b.n	8015be4 <_free_r+0x94>
 8015c4c:	18ff      	adds	r7, r7, r3
 8015c4e:	07cb      	lsls	r3, r1, #31
 8015c50:	d407      	bmi.n	8015c62 <_free_r+0x112>
 8015c52:	f855 1c08 	ldr.w	r1, [r5, #-8]
 8015c56:	1a64      	subs	r4, r4, r1
 8015c58:	187f      	adds	r7, r7, r1
 8015c5a:	68e3      	ldr	r3, [r4, #12]
 8015c5c:	68a0      	ldr	r0, [r4, #8]
 8015c5e:	60c3      	str	r3, [r0, #12]
 8015c60:	6098      	str	r0, [r3, #8]
 8015c62:	4a1e      	ldr	r2, [pc, #120]	; (8015cdc <_free_r+0x18c>)
 8015c64:	f8cc 4008 	str.w	r4, [ip, #8]
 8015c68:	6811      	ldr	r1, [r2, #0]
 8015c6a:	f047 0301 	orr.w	r3, r7, #1
 8015c6e:	428f      	cmp	r7, r1
 8015c70:	6063      	str	r3, [r4, #4]
 8015c72:	d3b7      	bcc.n	8015be4 <_free_r+0x94>
 8015c74:	4a1a      	ldr	r2, [pc, #104]	; (8015ce0 <_free_r+0x190>)
 8015c76:	4630      	mov	r0, r6
 8015c78:	6811      	ldr	r1, [r2, #0]
 8015c7a:	f7ff ff1d 	bl	8015ab8 <_malloc_trim_r>
 8015c7e:	e7b1      	b.n	8015be4 <_free_r+0x94>
 8015c80:	2101      	movs	r1, #1
 8015c82:	e782      	b.n	8015b8a <_free_r+0x3a>
 8015c84:	2a14      	cmp	r2, #20
 8015c86:	d80c      	bhi.n	8015ca2 <_free_r+0x152>
 8015c88:	f102 005b 	add.w	r0, r2, #91	; 0x5b
 8015c8c:	0042      	lsls	r2, r0, #1
 8015c8e:	e795      	b.n	8015bbc <_free_r+0x6c>
 8015c90:	684b      	ldr	r3, [r1, #4]
 8015c92:	1080      	asrs	r0, r0, #2
 8015c94:	2501      	movs	r5, #1
 8015c96:	fa05 f000 	lsl.w	r0, r5, r0
 8015c9a:	4303      	orrs	r3, r0
 8015c9c:	604b      	str	r3, [r1, #4]
 8015c9e:	4610      	mov	r0, r2
 8015ca0:	e79c      	b.n	8015bdc <_free_r+0x8c>
 8015ca2:	2a54      	cmp	r2, #84	; 0x54
 8015ca4:	d803      	bhi.n	8015cae <_free_r+0x15e>
 8015ca6:	0b18      	lsrs	r0, r3, #12
 8015ca8:	306e      	adds	r0, #110	; 0x6e
 8015caa:	0042      	lsls	r2, r0, #1
 8015cac:	e786      	b.n	8015bbc <_free_r+0x6c>
 8015cae:	f5b2 7faa 	cmp.w	r2, #340	; 0x154
 8015cb2:	d803      	bhi.n	8015cbc <_free_r+0x16c>
 8015cb4:	0bd8      	lsrs	r0, r3, #15
 8015cb6:	3077      	adds	r0, #119	; 0x77
 8015cb8:	0042      	lsls	r2, r0, #1
 8015cba:	e77f      	b.n	8015bbc <_free_r+0x6c>
 8015cbc:	f240 5154 	movw	r1, #1364	; 0x554
 8015cc0:	428a      	cmp	r2, r1
 8015cc2:	d803      	bhi.n	8015ccc <_free_r+0x17c>
 8015cc4:	0c98      	lsrs	r0, r3, #18
 8015cc6:	307c      	adds	r0, #124	; 0x7c
 8015cc8:	0042      	lsls	r2, r0, #1
 8015cca:	e777      	b.n	8015bbc <_free_r+0x6c>
 8015ccc:	22fc      	movs	r2, #252	; 0xfc
 8015cce:	207e      	movs	r0, #126	; 0x7e
 8015cd0:	e774      	b.n	8015bbc <_free_r+0x6c>
 8015cd2:	bf00      	nop
 8015cd4:	10000454 	.word	0x10000454
 8015cd8:	1000045c 	.word	0x1000045c
 8015cdc:	1000085c 	.word	0x1000085c
 8015ce0:	10000e40 	.word	0x10000e40
 8015ce4:	6c6c6548 	.word	0x6c6c6548
 8015ce8:	6f57206f 	.word	0x6f57206f
 8015cec:	00646c72 	.word	0x00646c72

08015cf0 <_ZTVN4quan3uav3osd12basic_bitmapE>:
	...
 8015cf8:	08012d19 08012d19 0800c03d 0800f8bd     .-...-..=.......

08015d08 <_ZTVN4quan3uav3osd10basic_fontE>:
	...
 8015d10:	08012d19 08012d19 08012d19 08012d19     .-...-...-...-..
 8015d20:	08012d19 0800c049 0800f8a9 00000000     .-..I...........

08015d30 <_ZTVN12_GLOBAL__N_125font_OSD_Charset_181_typeE>:
	...
 8015d38:	0800d159 0800d14d 0800dc0d 0800ea71     Y...M.......q...

08015d48 <_ZN12_GLOBAL__N_125font_OSD_Charset_172_type6m_dataE>:
 8015d48:	ffffffff abffffab 555affaa ff555aff     ..........ZU.ZU.
 8015d58:	96bf555a 6aaabf56 bfaaaabf eabfaaaa     ZU..V..j........
 8015d68:	bffebfab ffffffff ffffffff ffffffff     ................
 8015d78:	ffffffff 0000ffff                       ........

08015d80 <_ZN12_GLOBAL__N_124font_OSD_Charset_95_type6m_dataE>:
 8015d80:	ffffffff ffffffff ffffffff ffffffff     ................
 8015d90:	ffffffff ffffffff ffffffff ffffffff     ................
 8015da0:	ffffffff abffffff 5556eaaa 95555695     ..........VU.VU.
 8015db0:	ffeaaaab 0000ffff                       ........

08015db8 <_ZN12_GLOBAL__N_124font_OSD_Charset_32_type6m_dataE>:
 8015db8:	ffffffff ffffffff ffffffff ffffffff     ................
 8015dc8:	ffffffff ffffffff ffffffff ffffffff     ................
 8015dd8:	ffffffff ffffffff ffffffff ffffffff     ................
 8015de8:	ffffffff 0000ffff                       ........

08015df0 <_ZTVN12_GLOBAL__N_124font_OSD_Charset_76_typeE>:
	...
 8015df8:	0800c781 0800c775 0800e0f9 0800f2a5     ....u...........

08015e08 <_ZN12_GLOBAL__N_124font_OSD_Charset_92_type6m_dataE>:
 8015e08:	ffffffff ffffffff ffffffff 96ffffeb     ................
 8015e18:	fe56ffff fff95bff bfffe56f 56ffff95     ..V..[..o......V
 8015e28:	f95bfffe ffe56fff ffff95bf ebffff96     ..[..o..........
 8015e38:	ffffffff 0000ffff                       ........

08015e40 <_ZTVN12_GLOBAL__N_124font_OSD_Charset_46_typeE>:
	...
 8015e48:	0800c4b1 0800c4a5 0800e261 0800f4fd     ........a.......

08015e58 <_ZTVN12_GLOBAL__N_125font_OSD_Charset_216_typeE>:
	...
 8015e60:	0800d4a1 0800d495 0800da69 0800e7b5     ........i.......

08015e70 <_ZN12_GLOBAL__N_125font_OSD_Charset_108_type6m_dataE>:
 8015e70:	ffffffff ffffffff ffffffff ffffffff     ................
 8015e80:	ffafffff fffe5bff 5bfffe5b fe5bfffe     .....[..[..[..[.
 8015e90:	fffe5bff 5bfffe5b aa5bfffe e5555bfa     .[..[..[..[..[U.
 8015ea0:	afe5555b 0000faaa                       [U......

08015ea8 <_ZTVN12_GLOBAL__N_125font_OSD_Charset_135_typeE>:
	...
 8015eb0:	0800cd09 0800ccfd 0800de35 0800ee09     ........5.......

08015ec0 <_ZTVN12_GLOBAL__N_124font_OSD_Charset_31_typeE>:
	...
 8015ec8:	0800c349 0800c33d 0800e315 0800f629     I...=.......)...

08015ed8 <_ZN12_GLOBAL__N_125font_OSD_Charset_195_type6m_dataE>:
 8015ed8:	ffffffff ffffffff ffaaffff 6ffe55bf     .............U.o
 8015ee8:	a96ff955 fff96ff9 95aa556a 6aaa5955     U.o..o..jU..UY.j
 8015ef8:	f96a6fa9 aff9556f aafffa55 fffffffe     .oj.oU..U.......
 8015f08:	ffffffff 0000ffff                       ........

08015f10 <_ZTVN12_GLOBAL__N_124font_OSD_Charset_44_typeE>:
	...
 8015f18:	0800c481 0800c475 0800e279 0800f525     ....u...y...%...

08015f28 <_ZN12_GLOBAL__N_125font_OSD_Charset_105_type6m_dataE>:
 8015f28:	ffffffff ffffffff ffffffff ffffffff     ................
 8015f38:	aaffffff fe55bfff fffe55bf 96ffff96     ......U..U......
 8015f48:	ff96ffff ffff96ff 96ffff96 fe55bfff     ..............U.
 8015f58:	fffe55bf 0000ffaa                       .U......

08015f60 <_ZTVN12_GLOBAL__N_124font_OSD_Charset_78_typeE>:
	...
 8015f68:	0800c7b1 0800c7a5 0800e0e1 0800f27d     ............}...

08015f78 <_ZTVN12_GLOBAL__N_125font_OSD_Charset_248_typeE>:
	...
 8015f80:	0800d7a1 0800d795 0800d8e9 0800e535     ............5...

08015f90 <_ZN12_GLOBAL__N_125font_OSD_Charset_249_type6m_dataE>:
 8015f90:	ffebffff bfff96ff 996fff95 569a5aab     ..........o..Z.V
 8015fa0:	e5a69b95 9be5a69b a69be5a6 e5a69be5     ................
 8015fb0:	9b95569b ff9a5aab bfff996f 96ffff95     .V...Z..o.......
 8015fc0:	ffebffff 0000ffff                       ........

08015fc8 <_ZTVN12_GLOBAL__N_125font_OSD_Charset_220_typeE>:
	...
 8015fd0:	0800d501 0800d4f5 0800da39 0800e765     ........9...e...

08015fe0 <_ZTVN12_GLOBAL__N_124font_OSD_Charset_89_typeE>:
	...
 8015fe8:	0800c8b9 0800c8ad 0800e05d 0800f1a1     ........].......

08015ff8 <_ZTVN12_GLOBAL__N_125font_OSD_Charset_178_typeE>:
	...
 8016000:	0800d111 0800d105 0800dc31 0800eaad     ........1.......

08016010 <_ZN12_GLOBAL__N_124font_OSD_Charset_87_type6m_dataE>:
 8016010:	ffffffff ffafffff e5be5bfa 5be5be5b     .........[..[..[
 8016020:	be5be5be e5aa5be5 5be5965b 965be596     ..[..[..[..[..[.
 8016030:	e5965be5 5be5965b 555be596 f9556fe5     .[..[..[..[U.oU.
 8016040:	bff9696f 0000febe                       oi......

08016048 <_ZTVN12_GLOBAL__N_125font_OSD_Charset_231_typeE>:
	...
 8016050:	0800d609 0800d5fd 0800d9b5 0800e689     ................

08016060 <_ZN12_GLOBAL__N_125font_OSD_Charset_255_type6m_dataE>:
 8016060:	e6ffeffb 9be6ff9b ff9aa6ff 56ff9966     ............f..V
 8016070:	9556ff95 ffe69bff fffffbef 5bfffaaf     ..V............[
 8016080:	9596ffe5 ffea96ff aaffe55b 9656ff96     ........[.....V.
 8016090:	ffe55bff 0000faaf                       .[......

08016098 <_ZTVN12_GLOBAL__N_125font_OSD_Charset_150_typeE>:
	...
 80160a0:	0800ce71 0800ce65 0800dd81 0800ecdd     q...e...........

080160b0 <_ZN12_GLOBAL__N_125font_OSD_Charset_161_type6m_dataE>:
 80160b0:	aaffffff feaaffff fffe95ff 95fffe95     ................
 80160c0:	aa95fffe faaa55fa 95faa555 aaa5feaa     .....U..U.......
 80160d0:	ffeaa9ff aafffaaa ffaafffe ffffeaff     ................
 80160e0:	fffffffa 0000ffff                       ........

080160e8 <_ZN12_GLOBAL__N_124font_OSD_Charset_84_type6m_dataE>:
 80160e8:	ffffffff aaafffff e5555bfa afe5555b     .........[U.[U..
 80160f8:	96fffa96 ff96ffff ffff96ff 96ffff96     ................
 8016108:	ff96ffff ffff96ff 96ffff96 ff96ffff     ................
 8016118:	ffff96ff 0000ffeb                       ........

08016120 <_ZN12_GLOBAL__N_124font_OSD_Charset_37_type6m_dataE>:
 8016120:	ffffffff ffffffff ffffffff ffffffff     ................
 8016130:	ffffffff faffafff 5be5be5b 5bafe56e     ........[..[n..[
 8016140:	fe56fff9 6fff95bf b95bfae5 e5be5be5     ..V....o..[..[..
 8016150:	fffaffaf 0000ffff                       ........

08016158 <_ZN12_GLOBAL__N_125font_OSD_Charset_252_type6m_dataE>:
 8016158:	e6ffeffb 9be6ff9b ff9aa6ff 56ff9966     ............f..V
 8016168:	9556ff95 ffe69bff fffffbef 5bfffaaf     ..V............[
 8016178:	9596ffe5 ffea96ff aaffe55b 9656ff96     ........[.....V.
 8016188:	ffe55bff 0000faaf                       .[......

08016190 <_ZTVN12_GLOBAL__N_124font_OSD_Charset_93_typeE>:
	...
 8016198:	0800c919 0800c90d 0800e02d 0800f151     ........-...Q...

080161a8 <_ZTVN12_GLOBAL__N_125font_OSD_Charset_182_typeE>:
	...
 80161b0:	0800d171 0800d165 0800dc01 0800ea5d     q...e.......]...

080161c0 <_ZN12_GLOBAL__N_124font_OSD_Charset_81_type6m_dataE>:
 80161c0:	ffffffff aaffffff fe55bfff 5bf9556f     ..........U.oU.[
 80161d0:	be5be569 e5be5be5 5be5be5b be5be5be     i.[..[..[..[..[.
 80161e0:	e5aa5be5 5be5965b 595be556 e5556ff9     .[..[..[V.[Y.oU.
 80161f0:	ffe595bf 0000faea                       ........

080161f8 <_ZTVN12_GLOBAL__N_124font_OSD_Charset_15_typeE>:
	...
 8016200:	0800c1c9 0800c1bd 0800e3d5 0800f769     ............i...

08016210 <_ZTVN12_GLOBAL__N_125font_OSD_Charset_110_typeE>:
	...
 8016218:	0800cab1 0800caa5 0800df61 0800effd     ........a.......

08016228 <_ZN12_GLOBAL__N_124font_OSD_Charset_17_type6m_dataE>:
 8016228:	ffffffff ffffffff feaabfff 5bf9556f     ............oU.[
 8016238:	ff96e5aa 9bffe696 aa9bffe6 5556aaaa     ..............VU
 8016248:	96aa9695 96955596 559696a5 96aa9696     .....U.....U....
 8016258:	aa955556 0000aaaa                       VU......

08016260 <_ZTVN12_GLOBAL__N_124font_OSD_Charset_47_typeE>:
	...
 8016268:	0800c4c9 0800c4bd 0800e255 0800f4e9     ........U.......

08016278 <_ZN12_GLOBAL__N_124font_OSD_Charset_50_type6m_dataE>:
 8016278:	ffffffff ffffffff ffffffff ffffffff     ................
 8016288:	aabfffff f9556ffe 5be5555b 6e5be5aa     .....oU.[U.[..[n
 8016298:	f95bafe5 bffe56ff a56fff95 e5555bfa     ..[..V....o..[U.
 80162a8:	afe5555b 0000faaa                       [U......

080162b0 <_ZN12_GLOBAL__N_125font_OSD_Charset_153_type6m_dataE>:
 80162b0:	fbffffff feabffff ffea5aff 55faa555     .........Z..U..U
 80162c0:	5555a955 aa9555aa 6aeaa96a aaaafaaa     U.UU.U..j..j....
 80162d0:	ffeaabff abfffaab ffebffff ffffffff     ................
 80162e0:	ffffffff 0000ffff                       ........

080162e8 <_ZTVN12_GLOBAL__N_125font_OSD_Charset_249_typeE>:
	...
 80162f0:	0800d7b9 0800d7ad 0800d8dd 0800e521     ............!...

08016300 <_ZN12_GLOBAL__N_124font_OSD_Charset_76_type6m_dataE>:
 8016300:	ffffffff ffafffff fffe5bff 5bfffe5b     .........[..[..[
 8016310:	fe5bfffe fffe5bff 5bfffe5b fe5bfffe     ..[..[..[..[..[.
 8016320:	fffe5bff 5bfffe5b aa5bfffe e5555bfa     .[..[..[..[..[U.
 8016330:	afe5555b 0000faaa                       [U......

08016338 <_ZTVN12_GLOBAL__N_125font_OSD_Charset_168_typeE>:
	...
 8016340:	0800d021 0800d015 0800dca9 0800eb75     !...........u...

08016350 <_ZN12_GLOBAL__N_125font_OSD_Charset_244_type6m_dataE>:
 8016350:	aaffffff 5555eaaa 9aaaa695 6699be66     ......UU....f..f
 8016360:	a56699b9 99956699 66995566 95669955     ..f..f..fU.fU.f.
 8016370:	99a56699 6699b966 aaa699be 9555559a     .f..f..f.....UU.
 8016380:	ffeaaaaa 0000ffff                       ........

08016388 <_ZN12_GLOBAL__N_125font_OSD_Charset_150_type6m_dataE>:
 8016388:	ffffffff ffffafff abffffab af6aaaff     ..............j.
 8016398:	55af555a 5556af55 bfa956bf aabfaaaa     ZU.UU.VU.V......
 80163a8:	eaaaffaa ffffaaff ffffffff ffffffff     ................
 80163b8:	ffffffff 0000ffff                       ........

080163c0 <_ZN12_GLOBAL__N_124font_OSD_Charset_73_type6m_dataE>:
 80163c0:	ffffffff aabfffff f9556ffe bff9556f     .........oU.oU..
 80163d0:	96fffe96 ff96ffff ffff96ff 96ffff96     ................
 80163e0:	ff96ffff ffff96ff 96bfff96 f9556ffe     .............oU.
 80163f0:	bff9556f 0000feaa                       oU......

080163f8 <_ZN12_GLOBAL__N_125font_OSD_Charset_241_type6m_dataE>:
 80163f8:	aaffffff 5555aaaa aaaaaa55 95ffff95     ......UUU.......
 8016408:	ff95ffff ffff95ff 95ffff95 ff95ffff     ................
 8016418:	ffff95ff 95ffff95 aaaaffff 555555aa     .............UUU
 8016428:	ffaaaaaa 0000ffff                       ........

08016430 <_ZTVN12_GLOBAL__N_125font_OSD_Charset_179_typeE>:
	...
 8016438:	0800d129 0800d11d 0800dc25 0800ea99     ).......%.......

08016448 <_ZTVN12_GLOBAL__N_124font_OSD_Charset_62_typeE>:
	...
 8016450:	0800c631 0800c625 0800e1a1 0800f3bd     1...%...........

08016460 <_ZTVN12_GLOBAL__N_125font_OSD_Charset_232_typeE>:
	...
 8016468:	0800d621 0800d615 0800d9a9 0800e675     !...........u...

08016478 <_ZN12_GLOBAL__N_125font_OSD_Charset_176_type6m_dataE>:
 8016478:	ffffffff ffffffff ffffffff ffffffff     ................
 8016488:	febfffff fff96fff 9bffe69b f96fffe6     .....o........o.
 8016498:	fffebfff ffffffff ffffffff ffffffff     ................
 80164a8:	ffffffff 0000ffff                       ........

080164b0 <_ZTVN12_GLOBAL__N_125font_OSD_Charset_151_typeE>:
	...
 80164b8:	0800ce89 0800ce7d 0800dd75 0800ecc9     ....}...u.......

080164c8 <_ZTVN12_GLOBAL__N_125font_OSD_Charset_226_typeE>:
	...
 80164d0:	0800d591 0800d585 0800d9f1 0800e6ed     ................

080164e0 <_ZTVN12_GLOBAL__N_124font_OSD_Charset_94_typeE>:
	...
 80164e8:	0800c931 0800c925 0800e021 0800f13d     1...%...!...=...

080164f8 <_ZN12_GLOBAL__N_125font_OSD_Charset_145_type6m_dataE>:
 80164f8:	a9fffffa ea55fffe feaa95ff 95faaa95     ......U.........
 8016508:	aa95faaa fffe95fe 95fffe95 feaafffe     ................
 8016518:	fffeaaff aafffeaa feaafffe ffffffff     ................
 8016528:	ffffffff 0000ffff                       ........

08016530 <_ZN12_GLOBAL__N_124font_OSD_Charset_68_type6m_dataE>:
 8016530:	ffffffff aaafffff fe555bff 5bf9555b     .........[U.[U.[
 8016540:	be5be56a e5be5be5 5be5be5b be5be5be     j.[..[..[..[..[.
 8016550:	e5be5be5 5be5be5b 6a5be5be f9555be5     .[..[..[..[j.[U.
 8016560:	affe555b 0000ffaa                       [U......

08016568 <_ZN12_GLOBAL__N_125font_OSD_Charset_236_type6m_dataE>:
 8016568:	ffffffff ffffffff faaaafff 56e5555b     ............[U.V
 8016578:	aa9695aa 9a55a696 a69a55a6 55a69a55     ......U..U..U..U
 8016588:	96aa969a 5b95aa56 aaafe555 fffffffa     ....V..[U.......
 8016598:	ffffffff 0000ffff                       ........

080165a0 <_ZN12_GLOBAL__N_125font_OSD_Charset_142_type6m_dataE>:
 80165a0:	ffffffff ffffffff ffffffff ffffffff     ................
 80165b0:	ffffffff ffffffff ebffffff 5b96ffaf     ...............[
 80165c0:	fe5b96fe 96fe5b96 965bfe5b ff955bff     ..[..[..[.[..[..
 80165d0:	bfffe56f 0000fffa                       o.......

080165d8 <_ZTVN12_GLOBAL__N_125font_OSD_Charset_254_typeE>:
	...
 80165e0:	0800d831 0800d825 0800d8a1 0800e4bd     1...%...........

080165f0 <_ZN12_GLOBAL__N_125font_OSD_Charset_198_type6m_dataE>:
 80165f0:	ffffffff ffffffff ffffffff ffffffff     ................
 8016600:	ffffffff aaaaaaff aaffffff ffffaaaa     ................
 8016610:	ffffffff ffffffff ffffffff ffffffff     ................
 8016620:	ffffffff 0000ffff                       ........

08016628 <_ZN12_GLOBAL__N_124font_OSD_Charset_65_type6m_dataE>:
 8016628:	ffffffff aaffffff fe55bfff 5bf9556f     ..........U.oU.[
 8016638:	695be555 e5be5be5 5be5be5b aa5be5be     U.[i.[..[..[..[.
 8016648:	e5555be5 5be5555b be5be5aa e5be5be5     .[U.[U.[..[..[..
 8016658:	afe5be5b 0000faff                       [.......

08016660 <_ZTVN12_GLOBAL__N_124font_OSD_Charset_48_typeE>:
	...
 8016668:	0800c4e1 0800c4d5 0800e249 0800f4d5     ........I.......

08016678 <_ZTVN12_GLOBAL__N_125font_OSD_Charset_218_typeE>:
	...
 8016680:	0800d4d1 0800d4c5 0800da51 0800e78d     ........Q.......

08016690 <_ZTVN12_GLOBAL__N_125font_OSD_Charset_126_typeE>:
	...
 8016698:	0800cc31 0800cc25 0800dea1 0800eebd     1...%...........

080166a8 <_ZTVN12_GLOBAL__N_124font_OSD_Charset_97_typeE>:
	...
 80166b0:	0800c979 0800c96d 0800dffd 0800f101     y...m...........

080166c0 <_ZTVN12_GLOBAL__N_124font_OSD_Charset_20_typeE>:
	...
 80166c8:	0800c241 0800c235 0800e399 0800f705     A...5...........

080166d8 <_ZN12_GLOBAL__N_124font_OSD_Charset_62_type6m_dataE>:
 80166d8:	ffffffff ffffffff ffffffff ffffffff     ................
 80166e8:	ffafffff fffe5bff bffff96f 96ffffe5     .....[..o.......
 80166f8:	fe5bffff fffe5bff e5bfff96 fff96fff     ..[..[.......o..
 8016708:	affffe5b 0000ffff                       [.......

08016710 <_ZN12_GLOBAL__N_125font_OSD_Charset_230_type6m_dataE>:
 8016710:	56ffeaab 9556ff95 ffe96bff 6ffff96f     ...V..V..k..o..o
 8016720:	f96ffff9 fff96fff fffffebf 6ffffebf     ..o..o.........o
 8016730:	e55bfff9 ff9696ff 56ff9696 9696ff95     ..[........V....
 8016740:	ff9696ff 0000ebeb                       ........

08016748 <_ZTVN12_GLOBAL__N_125font_OSD_Charset_169_typeE>:
	...
 8016750:	0800d039 0800d02d 0800dc9d 0800eb61     9...-.......a...

08016760 <_ZN12_GLOBAL__N_125font_OSD_Charset_140_type6m_dataE>:
 8016760:	ffffffff ffffffff ffffffff ffffffff     ................
 8016770:	ffffffff ffffffff ffffffff ffffffff     ................
 8016780:	ffffffff ffffffff ffffffff ffffffff     ................
 8016790:	ffffffff 0000ffff                       ........

08016798 <_ZN12_GLOBAL__N_123font_OSD_Charset_3_type6m_dataE>:
 8016798:	ffbfffff ffff6fff 6fffff6f ff6fffff     .....o..o..o..o.
 80167a8:	ffff6fff 6fffff6f ff5bffff 6fff56bf     .o..o..o..[..V.o
 80167b8:	a95bff55 bffe96ff e5bfffe5 fff96fff     U.[..........o..
 80167c8:	6fbff96f 00006ff9                       o..o.o..

080167d0 <_ZTVN12_GLOBAL__N_124font_OSD_Charset_63_typeE>:
	...
 80167d8:	0800c649 0800c63d 0800e195 0800f3a9     I...=...........

080167e8 <_ZTVN12_GLOBAL__N_125font_OSD_Charset_233_typeE>:
	...
 80167f0:	0800d639 0800d62d 0800d99d 0800e661     9...-.......a...

08016800 <_ZTVN12_GLOBAL__N_125font_OSD_Charset_152_typeE>:
	...
 8016808:	0800cea1 0800ce95 0800dd69 0800ecb5     ........i.......

08016818 <_ZN12_GLOBAL__N_123font_OSD_Charset_0_type6m_dataE>:
 8016818:	ffffffff ffffffff ffffffff ffffffff     ................
 8016828:	ffffffff ffffffff ffffffff ffffffff     ................
 8016838:	ffffffff ffffffff ffffffff ffffffff     ................
 8016848:	ffffffff 0000ffff                       ........

08016850 <_ZN12_GLOBAL__N_125font_OSD_Charset_134_type6m_dataE>:
 8016850:	96ffebeb 9696ff96 ffe55bff bffff96f     .........[..o...
 8016860:	556ffeaa fea96ff9 6fff556f 556ffea9     ..oU.o..oU.o..oU
 8016870:	feaabff9 fffe5bff 5bfffe5b 955bffea     .....[..[..[..[.
 8016880:	ff955bff 0000eaaf                       .[......

08016888 <_ZN12_GLOBAL__N_125font_OSD_Charset_178_type6m_dataE>:
 8016888:	bfffffff fe6fffff fffa5bff 56ffa556     ......o..[..V..V
 8016898:	5a5bfe55 f96e6ffe bff96fbf 6f6ff96f     U.[Z.on..o..o.oo
 80168a8:	fe5a5bf9 56fe5556 fa5bffa5 fffe6fff     .[Z.VU.V..[..o..
 80168b8:	ffffffbf 0000ffff                       ........

080168c0 <_ZN12_GLOBAL__N_124font_OSD_Charset_57_type6m_dataE>:
 80168c0:	ffffffff ffffffff ffffffff ffffffff     ................
 80168d0:	aabfffff f9556ffe 5be5555b aa5be5aa     .....oU.[U.[..[.
 80168e0:	e5555be5 bfe5556f aaafe5aa e5555be5     .[U.oU.......[U.
 80168f0:	aff9555b 0000feaa                       [U......

080168f8 <_ZN12_GLOBAL__N_125font_OSD_Charset_225_type6m_dataE>:
 80168f8:	ffffffff 99bffeee faaabff9 bfe6566f     ............oV..
 8016908:	9bfffa56 ff9bffff 6ffe9abf aa5bf955     V..........oU.[.
 8016918:	9abea6e5 66996966 bea69969 9aaaa69a     ....fi.fi.......
 8016928:	afe5555b 0000faaa                       [U......

08016930 <_ZN12_GLOBAL__N_125font_OSD_Charset_131_type6m_dataE>:
 8016930:	96ffffeb ff96ffff ffea96ff 56ff9556     ............V..V
 8016940:	aaabff95 f955bffe 6fe5a96f a96fe555     ......U.o..oU.o.
 8016950:	aaaabfe5 ff9556ff 6bff9556 f96fffe9     .....V..V..k..o.
 8016960:	fff96fff 0000febf                       .o......

08016968 <_ZN12_GLOBAL__N_124font_OSD_Charset_13_type6m_dataE>:
 8016968:	aaffffff 5555aaaa aaaaaa55 ffffffff     ......UUU.......
 8016978:	ffffffff ffffffff ffffffff ffffffff     ................
 8016988:	ffffffff ffffffff ffffffff ffffffff     ................
 8016998:	ffffffff 0000ffff                       ........

080169a0 <_ZN12_GLOBAL__N_125font_OSD_Charset_222_type6m_dataE>:
 80169a0:	ffffffff ffffffff ffffffff ffffffff     ................
 80169b0:	ffffffff ffffffff ffffffff ffffffff     ................
 80169c0:	ffeaaaff 55ffe555 e5aaffe5 ffe5bfff     ....U..U........
 80169d0:	bfffe5bf 0000ffe5                       ........

080169d8 <_ZTVN12_GLOBAL__N_124font_OSD_Charset_17_typeE>:
	...
 80169e0:	0800c1f9 0800c1ed 0800e3bd 0800f741     ............A...

080169f0 <_ZTVN12_GLOBAL__N_125font_OSD_Charset_106_typeE>:
	...
 80169f8:	0800ca51 0800ca45 0800df91 0800f04d     Q...E.......M...

08016a08 <_ZTVN12_GLOBAL__N_125font_OSD_Charset_195_typeE>:
	...
 8016a10:	0800d2a9 0800d29d 0800db65 0800e959     ........e...Y...

08016a20 <_ZN12_GLOBAL__N_124font_OSD_Charset_16_type6m_dataE>:
 8016a20:	6ffeaabf aa5bf955 96ff96e5 fb9bffe6     ...oU.[.........
 8016a30:	ffff9bff 9bffff9b aa9bffff 5556aaaa     ..............VU
 8016a40:	96aa9695 96955596 559696a5 96aa9696     .....U.....U....
 8016a50:	aa955556 0000aaaa                       VU......

08016a58 <_ZTVN12_GLOBAL__N_124font_OSD_Charset_49_typeE>:
	...
 8016a60:	0800c4f9 0800c4ed 0800e23d 0800f4c1     ........=.......

08016a70 <_ZTVN12_GLOBAL__N_125font_OSD_Charset_241_typeE>:
	...
 8016a78:	0800d6f9 0800d6ed 0800d93d 0800e5c1     ........=.......

08016a88 <_ZTVN12_GLOBAL__N_125font_OSD_Charset_138_typeE>:
	...
 8016a90:	0800cd51 0800cd45 0800de11 0800edcd     Q...E...........

08016aa0 <_ZN12_GLOBAL__N_124font_OSD_Charset_28_type6m_dataE>:
 8016aa0:	ffffffff ffffffff ffffffff ffffffff     ................
 8016ab0:	ffffffff ffffffff ffffffff ffffffff     ................
 8016ac0:	ffffffff ffffffff ffffffff ffffffff     ................
 8016ad0:	ffffffff 0000ffff                       ........

08016ad8 <_ZTVN12_GLOBAL__N_124font_OSD_Charset_21_typeE>:
	...
 8016ae0:	0800c259 0800c24d 0800e38d 0800f6f1     Y...M...........

08016af0 <_ZN12_GLOBAL__N_125font_OSD_Charset_126_type6m_dataE>:
 8016af0:	ffffffff ffffffff ffffffff ffffffff     ................
 8016b00:	e5bfeffa 96956f9b 96e55a5b bfebf96f     .....o..[Z..o...
 8016b10:	fffffffe ffffffff ffffffff ffffffff     ................
 8016b20:	ffffffff 0000ffff                       ........

08016b28 <_ZTVN12_GLOBAL__N_124font_OSD_Charset_32_typeE>:
	...
 8016b30:	0800c361 0800c355 0800e309 0800f615     a...U...........

08016b40 <_ZN12_GLOBAL__N_125font_OSD_Charset_217_type6m_dataE>:
 8016b40:	ffffffff eaffffff ff95bfff ffffeaff     ................
 8016b50:	ffffffff ffffffff bffffeff f96ffff9     ..............o.
 8016b60:	fff95bff 5bfff956 f96ffff9 fff9bfff     .[..V..[..o.....
 8016b70:	fffffeff 0000ffff                       ........

08016b78 <_ZTVN12_GLOBAL__N_125font_OSD_Charset_121_typeE>:
	...
 8016b80:	0800cbb9 0800cbad 0800dedd 0800ef21     ............!...

08016b90 <_ZN12_GLOBAL__N_125font_OSD_Charset_165_type6m_dataE>:
 8016b90:	abffffff fa5afffe ffa955ff 55fea555     ......Z..U..U..U
 8016ba0:	aa95fea9 ffeaa9fe a5fffaa9 eaaafffe     ................
 8016bb0:	ffaaaaff aaffaaaa ffffffea ffffffff     ................
 8016bc0:	ffffffff 0000ffff                       ........

08016bc8 <_ZN12_GLOBAL__N_125font_OSD_Charset_123_type6m_dataE>:
 8016bc8:	ffffffff 5bfffeaf f95bfff9 fff956ff     .......[..[..V..
 8016bd8:	96fffe96 ff96ffff bfffe5bf 96ffffe5     ................
 8016be8:	ff96ffff fffe96ff 5bfff956 f95bfff9     ........V..[..[.
 8016bf8:	fffeafff 0000ffff                       ........

08016c00 <_ZN12_GLOBAL__N_124font_OSD_Charset_46_type6m_dataE>:
 8016c00:	ffffffff ffffffff ffffffff ffffffff     ................
 8016c10:	ffffffff ffffffff ffffffff ffffffff     ................
 8016c20:	ffffffff ffffffff ebffffff ff96ffff     ................
 8016c30:	ffff96ff 0000ffeb                       ........

08016c38 <_ZN12_GLOBAL__N_125font_OSD_Charset_214_type6m_dataE>:
 8016c38:	ffffffff ffffffff ffffffff ffffffff     ................
 8016c48:	ffffffff ffffffff ffffffff ffffffff     ................
 8016c58:	ffffffff ffffffff ffaaffff ffff95ff     ................
 8016c68:	9bffff9a 0000ffff                       ........

08016c70 <_ZTVN12_GLOBAL__N_124font_OSD_Charset_64_typeE>:
	...
 8016c78:	0800c661 0800c655 0800e189 0800f395     a...U...........

08016c88 <_ZN12_GLOBAL__N_125font_OSD_Charset_120_type6m_dataE>:
 8016c88:	ffffffff ffffffff ffffffff ffffffff     ................
 8016c98:	ffafffff e5be5bfa 6fe5695b 55bff955     .....[..[i.oU..U
 8016ca8:	ff96fffe bfff96ff 556ffe55 e5695bf9     ........U.oU.[i.
 8016cb8:	afe5be5b 0000faff                       [.......

08016cc0 <_ZTVN12_GLOBAL__N_125font_OSD_Charset_153_typeE>:
	...
 8016cc8:	0800ceb9 0800cead 0800dd5d 0800eca1     ........].......

08016cd8 <_ZN12_GLOBAL__N_125font_OSD_Charset_149_type6m_dataE>:
 8016cd8:	ffffffff eaaaffea ffa555ff 55ffa555     .........U..U..U
 8016ce8:	9695ffa5 feaaa9fe aafeaaaa abeafeaa     ................
 8016cf8:	febffefe ffffffff ffffffff ffffffff     ................
 8016d08:	ffffffff 0000ffff                       ........

08016d10 <_ZN12_GLOBAL__N_125font_OSD_Charset_211_type6m_dataE>:
 8016d10:	aaffffff 5555aaaa aaaaaa55 ffffffff     ......UUU.......
 8016d20:	ffffffff ffffffff ffffffff ffffffff     ................
 8016d30:	ffffffff ffffffff ffffffff ffffffff     ................
 8016d40:	ffffffff 0000ffff                       ........

08016d48 <_ZTVN12_GLOBAL__N_125font_OSD_Charset_185_typeE>:
	...
 8016d50:	0800d1b9 0800d1ad 0800dbdd 0800ea21     ............!...

08016d60 <_ZTVN12_GLOBAL__N_124font_OSD_Charset_18_typeE>:
	...
 8016d68:	0800c211 0800c205 0800e3b1 0800f72d     ............-...

08016d78 <_ZTVN12_GLOBAL__N_125font_OSD_Charset_107_typeE>:
	...
 8016d80:	0800ca69 0800ca5d 0800df85 0800f039     i...].......9...

08016d90 <_ZTVN12_GLOBAL__N_125font_OSD_Charset_196_typeE>:
	...
 8016d98:	0800d2c1 0800d2b5 0800db59 0800e945     ........Y...E...

08016da8 <_ZN12_GLOBAL__N_125font_OSD_Charset_209_type6m_dataE>:
 8016da8:	9bffff9b ff9bffff ffff9bff 9bffff9b     ................
 8016db8:	ff9bffff ffff9bff 9bffff9b ff9bffff     ................
 8016dc8:	ffff9bff 9bffff9b ff9bffff ffff9bff     ................
 8016dd8:	9bffff9b 0000ffff                       ........

08016de0 <_ZN12_GLOBAL__N_125font_OSD_Charset_115_type6m_dataE>:
 8016de0:	ffffffff ffffffff ffffffff ffffffff     ................
 8016df0:	aabfffff f9556ffe 5be5555b aa5be5aa     .....oU.[U.[..[.
 8016e00:	f9555bfa afe5556f aa5be5aa e5555be5     .[U.oU....[..[U.
 8016e10:	bff9556f 0000feaa                       oU......

08016e18 <_ZN12_GLOBAL__N_124font_OSD_Charset_38_type6m_dataE>:
 8016e18:	ffffffff ffffffff ffeaffff 6fff95bf     ...............o
 8016e28:	6e6ffe69 fe6e6ffe bfff9a6f e5bfffe5     i.on.on.o.......
 8016e38:	fa9a6fff 9be66f9b 6a9bf9bf 9b956fe6     .o...o.....j.o..
 8016e48:	ffefeabf 0000ffff                       ........

08016e50 <_ZN12_GLOBAL__N_125font_OSD_Charset_206_type6m_dataE>:
 8016e50:	ffffffff ffffffff ffffffff ffffffff     ................
 8016e60:	ffffffff ffffffff ffffffff ffffffff     ................
 8016e70:	ffffffff ffffffff ffffffff ffffffff     ................
 8016e80:	ffffffff 0000ffff                       ........

08016e88 <_ZTVN12_GLOBAL__N_125font_OSD_Charset_139_typeE>:
	...
 8016e90:	0800cd69 0800cd5d 0800de05 0800edb9     i...]...........

08016ea0 <_ZN12_GLOBAL__N_124font_OSD_Charset_40_type6m_dataE>:
 8016ea0:	ffffffff ffffffff faffffff ffe5bfff     ................
 8016eb0:	5bfff96f ff96fffe ffff96ff 96ffff96     o..[............
 8016ec0:	ff96ffff ffff96ff 5bffff96 f96ffffe     ...........[..o.
 8016ed0:	ffe5bfff 0000faff                       ........

08016ed8 <_ZN12_GLOBAL__N_125font_OSD_Charset_112_type6m_dataE>:
 8016ed8:	ffffffff ffffffff ffffffff ffffffff     ................
 8016ee8:	aaafffff f9555bfe 5be5555b aa5be5aa     .....[U.[U.[..[.
 8016ef8:	e5555be5 5bf9555b fe5bfeaa fffe5bff     .[U.[U.[..[..[..
 8016f08:	affffe5b 0000ffff                       [.......

08016f10 <_ZTVN12_GLOBAL__N_124font_OSD_Charset_22_typeE>:
	...
 8016f18:	0800c271 0800c265 0800e381 0800f6dd     q...e...........

08016f28 <_ZTVN12_GLOBAL__N_123font_OSD_Charset_7_typeE>:
	...
 8016f30:	0800c109 0800c0fd 0800e435 0800f809     ........5.......

08016f40 <_ZN12_GLOBAL__N_124font_OSD_Charset_35_type6m_dataE>:
 8016f40:	ffffffff bebfffff f9696ffe 6bf9696f     .........oi.oi.k
 8016f50:	5556e969 95555695 6be9696b 5556e969     i.VU.VU.ki.ki.VU
 8016f60:	95555695 6fe9696b 696ff969 febebff9     .VU.ki.oi.oi....
 8016f70:	ffffffff 0000ffff                       ........

08016f78 <_ZTVN12_GLOBAL__N_125font_OSD_Charset_111_typeE>:
	...
 8016f80:	0800cac9 0800cabd 0800df55 0800efe9     ........U.......

08016f90 <_ZN12_GLOBAL__N_125font_OSD_Charset_203_type6m_dataE>:
 8016f90:	aaffaaff 5555aaaa 55555555 ffaaaaaa     ......UUUUUU....
 8016fa0:	ffffffff ffffffff ffffffff ffffffff     ................
 8016fb0:	ffffffff ffffffff ffffffff ffffffff     ................
 8016fc0:	ffffffff 0000ffff                       ........

08016fc8 <_ZTVN12_GLOBAL__N_124font_OSD_Charset_33_typeE>:
	...
 8016fd0:	0800c379 0800c36d 0800e2fd 0800f601     y...m...........

08016fe0 <_ZTVN12_GLOBAL__N_125font_OSD_Charset_170_typeE>:
	...
 8016fe8:	0800d051 0800d045 0800dc91 0800eb4d     Q...E.......M...

08016ff8 <_ZTVN12_GLOBAL__N_125font_OSD_Charset_122_typeE>:
	...
 8017000:	0800cbd1 0800cbc5 0800ded1 0800ef0d     ................

08017010 <_ZN12_GLOBAL__N_124font_OSD_Charset_94_type6m_dataE>:
 8017010:	ffffffff ffffffff ffebffff bfff96ff     ................
 8017020:	696ffe55 f9be6ff9 fffaffaf ffffffff     U.oi.o..........
 8017030:	ffffffff ffffffff ffffffff ffffffff     ................
 8017040:	ffffffff 0000ffff                       ........

08017048 <_ZTVN12_GLOBAL__N_124font_OSD_Charset_65_typeE>:
	...
 8017050:	0800c679 0800c66d 0800e17d 0800f381     y...m...}.......

08017060 <_ZTVN12_GLOBAL__N_125font_OSD_Charset_235_typeE>:
	...
 8017068:	0800d669 0800d65d 0800d985 0800e639     i...].......9...

08017078 <_ZTVN12_GLOBAL__N_125font_OSD_Charset_167_typeE>:
	...
 8017080:	0800d009 0800cffd 0800dcb5 0800eb89     ................

08017090 <_ZTVN12_GLOBAL__N_125font_OSD_Charset_154_typeE>:
	...
 8017098:	0800ced1 0800cec5 0800dd51 0800ec8d     ........Q.......

080170a8 <_ZN12_GLOBAL__N_124font_OSD_Charset_91_type6m_dataE>:
 80170a8:	ffffffff abffffff f956fffe fff956ff     ..........V..V..
 80170b8:	96fffe96 ff96ffff ffff96ff 96ffff96     ................
 80170c8:	ff96ffff fffe96ff 56fff956 feabfff9     ........V..V....
 80170d8:	ffffffff 0000ffff                       ........

080170e0 <_ZN12_GLOBAL__N_125font_OSD_Charset_107_type6m_dataE>:
 80170e0:	ffffffff ffffffff ffffffff ffffffff     ................
 80170f0:	ffafffff e5be5bfa 5be56e5b 565bf95a     .....[..[n.[Z.[V
 8017100:	ff955bfe 5bff955b 5a5bfe55 e56e5bf9     .[..[..[U.[Z.[n.
 8017110:	afe5be5b 0000faff                       [.......

08017118 <_ZN12_GLOBAL__N_125font_OSD_Charset_194_type6m_dataE>:
 8017118:	ffffffff ffffffff faffafff 5be5be5b     ............[..[
 8017128:	a95be5b9 e5a55be5 59a5965a 5a5a6596     ..[..[..Z..Y.eZZ
 8017138:	e56a5ba5 5be5ae5b ffafe5be fffffffa     .[j.[..[........
 8017148:	ffffffff 0000ffff                       ........

08017150 <_ZN12_GLOBAL__N_125font_OSD_Charset_104_type6m_dataE>:
 8017150:	ffffffff ffffffff ffffffff ffffffff     ................
 8017160:	ffafffff e5be5bfa 5be5be5b aa5be5be     .....[..[..[..[.
 8017170:	e5555be5 5be5555b be5be5aa e5be5be5     .[U.[U.[..[..[..
 8017180:	afe5be5b 0000faff                       [.......

08017188 <_ZN12_GLOBAL__N_124font_OSD_Charset_27_type6m_dataE>:
 8017188:	aae9555a 96aaea5a eaa56aea aae9555a     ZU..Z....j..ZU..
 8017198:	555aeaaa e96a5ae9 aae9555a 555aeaaa     ..ZU.Zj.ZU....ZU
 80171a8:	e96a5ae9 aae9555a 595aeaaa e9665ae9     .Zj.ZU....ZY.Zf.
 80171b8:	5ae96a5a 0000e96a                       Zj.Zj...

080171c0 <_ZTVN12_GLOBAL__N_124font_OSD_Charset_19_typeE>:
	...
 80171c8:	0800c229 0800c21d 0800e3a5 0800f719     )...............

080171d8 <_ZN12_GLOBAL__N_125font_OSD_Charset_101_type6m_dataE>:
 80171d8:	ffffffff ffffffff ffffffff ffffffff     ................
 80171e8:	aaafffff e5555bfa 5be5555b aa5bfaaa     .....[U.[U.[..[.
 80171f8:	fe555bff 5bfe555b aa5bffaa e5555bfa     .[U.[U.[..[..[U.
 8017208:	afe5555b 0000faaa                       [U......

08017210 <_ZN12_GLOBAL__N_124font_OSD_Charset_24_type6m_dataE>:
 8017210:	fbffffff ffa6ffff fffa56ff a6ffa5a6     .........V......
 8017220:	aaa6fa5a 955556e5 5beaaaab 66a6e569     Z....VU....[i..f
 8017230:	9a6aa69a a69a6566 66a69a66 e5695b9a     ..j.fe..f..f.[i.
 8017240:	fffabeaf 0000ffff                       ........

08017248 <_ZTVN12_GLOBAL__N_124font_OSD_Charset_80_typeE>:
	...
 8017250:	0800c7e1 0800c7d5 0800e0c9 0800f255     ............U...

08017260 <_ZTVN12_GLOBAL__N_125font_OSD_Charset_250_typeE>:
	...
 8017268:	0800d7d1 0800d7c5 0800d8d1 0800e50d     ................

08017278 <_ZTVN12_GLOBAL__N_125font_OSD_Charset_197_typeE>:
	...
 8017280:	0800d2d9 0800d2cd 0800db4d 0800e931     ........M...1...

08017290 <_ZN12_GLOBAL__N_125font_OSD_Charset_160_type6m_dataE>:
 8017290:	ffffffff ffffaaff 56bfffaa ff56bfff     ...........V..V.
 80172a0:	aaaf56bf 55aaaf56 bf555aaf aaff55aa     .V..V..U.ZU..U..
 80172b0:	5aabff56 ffaaafff ffffaabf afffffab     V..Z............
 80172c0:	ffbfffff 0000ffff                       ........

080172c8 <_ZN12_GLOBAL__N_125font_OSD_Charset_179_type6m_dataE>:
 80172c8:	ffffffff ffffffff ffffffff bfffbeff     ................
 80172d8:	556ffe69 e5555bf9 9695a656 a69696e6     i.oU.[U.V.......
 80172e8:	96569696 5696ab96 555b95aa f9556fe5     ..V....V..[U.oU.
 80172f8:	bffe69bf 0000febe                       .i......

08017300 <_ZTVN12_GLOBAL__N_125font_OSD_Charset_112_typeE>:
	...
 8017308:	0800cae1 0800cad5 0800df49 0800efd5     ........I.......

08017318 <_ZN12_GLOBAL__N_125font_OSD_Charset_189_type6m_dataE>:
 8017318:	ffffffff ffffffff fffffeff fefffffe     ................
 8017328:	fffeffff aabffeff aa55bffe 555a55aa     ..........U..UZU
 8017338:	a5555aa5 5a55aa5a be5a55be fffe5aaa     .ZU.Z.UZ.UZ..Z..
 8017348:	55fffe55 0000fffe                       U..U....

08017350 <_ZN12_GLOBAL__N_125font_OSD_Charset_251_type6m_dataE>:
 8017350:	56ffabeb 5556fe56 fe5996fe 96fe5a96     ...VV.VU..Y..Z..
 8017360:	afebee5b e5afff9a affa5aff fa5bffa5     [........Z....[.
 8017370:	ebeba6ff ff9696fb 56ff9696 9696ff95     ...........V....
 8017380:	ff9696ff 0000ebeb                       ........

08017388 <_ZN12_GLOBAL__N_124font_OSD_Charset_48_type6m_dataE>:
 8017388:	ffffffff ffffffff ffffffff ffffffff     ................
 8017398:	aabfffff f9556ffe 5be5555b be5be5aa     .....oU.[U.[..[.
 80173a8:	e5be5be5 5be5be5b aa5be5be e5555be5     .[..[..[..[..[U.
 80173b8:	bff9556f 0000feaa                       oU......

080173c0 <_ZTVN12_GLOBAL__N_124font_OSD_Charset_34_typeE>:
	...
 80173c8:	0800c391 0800c385 0800e2f1 0800f5ed     ................

080173d8 <_ZN12_GLOBAL__N_124font_OSD_Charset_80_type6m_dataE>:
 80173d8:	ffffffff aaafffff fe555bff 5bf9555b     .........[U.[U.[
 80173e8:	be5be56a e5be5be5 5be56a5b 555bf955     j.[..[..[j.[U.[U
 80173f8:	ffaa5bfe 5bfffe5b fe5bfffe fffe5bff     .[..[..[..[..[..
 8017408:	affffe5b 0000ffff                       [.......

08017410 <_ZTVN12_GLOBAL__N_125font_OSD_Charset_123_typeE>:
	...
 8017418:	0800cbe9 0800cbdd 0800dec5 0800eef9     ................

08017428 <_ZTVN12_GLOBAL__N_125font_OSD_Charset_217_typeE>:
	...
 8017430:	0800d4b9 0800d4ad 0800da5d 0800e7a1     ........].......

08017440 <_ZN12_GLOBAL__N_124font_OSD_Charset_19_type6m_dataE>:
 8017440:	6f6ff96f f96fbff9 ffe5bfff ffffe5bf     o.oo..o.........
 8017450:	5bfffe96 556fffa9 ff56bfff ffff5bff     ...[..oU..V..[..
 8017460:	6fffff6f ff6fffff ffff6fff 6fffff6f     o..o..o..o..o..o
 8017470:	ff6fffff 0000bfff                       ..o.....

08017478 <_ZN12_GLOBAL__N_125font_OSD_Charset_183_type6m_dataE>:
 8017478:	aafeaabf 5556aa55 95aa5695 9696aa96     ....U.VU.V......
 8017488:	aa9696aa 96aa9696 5696aa96 55569555     ...........VU.VU
 8017498:	95555695 56955556 55569555 95555695     .VU.VU.VU.VU.VU.
 80174a8:	aa955556 0000aaaa                       VU......

080174b0 <_ZTVN12_GLOBAL__N_124font_OSD_Charset_66_typeE>:
	...
 80174b8:	0800c691 0800c685 0800e171 0800f36d     ........q...m...

080174c8 <_ZTVN12_GLOBAL__N_125font_OSD_Charset_236_typeE>:
	...
 80174d0:	0800d681 0800d675 0800d979 0800e625     ....u...y...%...

080174e0 <_ZN12_GLOBAL__N_124font_OSD_Charset_75_type6m_dataE>:
 80174e0:	ffffffff ffafffff fafe5bff 5be5be5b     .........[..[..[
 80174f0:	5a5be56e fe565bf9 5bff955b f95bffe5     n.[Z.[V.[..[..[.
 8017500:	ffe55bff 5bff955b 5a5bfe56 e56e5bf9     .[..[..[V.[Z.[n.
 8017510:	afe5be5b 0000faff                       [.......

08017518 <_ZN12_GLOBAL__N_125font_OSD_Charset_243_type6m_dataE>:
 8017518:	faffffff ffe5ffff ffffe6ff e6ffffe6     ................
 8017528:	ffe6ffff ffffe6ff e6ffffe6 ffe6ffff     ................
 8017538:	ffffe6ff e6ffffe6 ffe6ffff ffffe5ff     ................
 8017548:	fffffffa 0000ffff                       ........

08017550 <_ZTVN12_GLOBAL__N_125font_OSD_Charset_109_typeE>:
	...
 8017558:	0800ca99 0800ca8d 0800df6d 0800f011     ........m.......

08017568 <_ZTVN12_GLOBAL__N_125font_OSD_Charset_198_typeE>:
	...
 8017570:	0800d2f1 0800d2e5 0800db41 0800e91d     ........A.......

08017580 <_ZTVN12_GLOBAL__N_124font_OSD_Charset_81_typeE>:
	...
 8017588:	0800c7f9 0800c7ed 0800e0bd 0800f241     ............A...

08017598 <_ZN12_GLOBAL__N_124font_OSD_Charset_72_type6m_dataE>:
 8017598:	ffffffff ffafffff e5be5bfa 5be5be5b     .........[..[..[
 80175a8:	be5be5be e5be5be5 5be5aa5b 555be555     ..[..[..[..[U.[U
 80175b8:	e5aa5be5 5be5be5b be5be5be e5be5be5     .[..[..[..[..[..
 80175c8:	afe5be5b 0000faff                       [.......

080175d0 <_ZN12_GLOBAL__N_125font_OSD_Charset_240_type6m_dataE>:
 80175d0:	aaffffff 5555aaaa aaaaaa55 55ffe555     ......UUU...U..U
 80175e0:	e555ffe5 ffe555ff 55ffe555 e555ffe5     ..U..U..U..U..U.
 80175f0:	ffe555ff 55ffe555 aaaaffe5 555555aa     .U..U..U.....UUU
 8017600:	ffaaaaaa 0000ffff                       ........

08017608 <_ZTVN12_GLOBAL__N_125font_OSD_Charset_173_typeE>:
	...
 8017610:	0800d099 0800d08d 0800dc6d 0800eb11     ........m.......

08017620 <_ZN12_GLOBAL__N_125font_OSD_Charset_175_type6m_dataE>:
 8017620:	feffffff feaaffff ffaa95ff 95ffaaa5     ................
 8017630:	fa55ffaa ffe955ff 55ffa555 aa95fea5     ..U..U..U..U....
 8017640:	feaaaafe aafeaaaa fffafffe ffffffff     ................
 8017650:	ffffffff 0000ffff                       ........

08017658 <_ZN12_GLOBAL__N_124font_OSD_Charset_98_type6m_dataE>:
 8017658:	ffffffff ffffffff ffffffff ffffffff     ................
 8017668:	aaafffff f9555bfe 5be5555b aa5be5aa     .....[U.[U.[..[.
 8017678:	f9555be5 5bf9555b aa5be5aa e5555be5     .[U.[U.[..[..[U.
 8017688:	aff9555b 0000feaa                       [U......

08017690 <_ZN12_GLOBAL__N_124font_OSD_Charset_20_type6m_dataE>:
 8017690:	fef96ff9 6ffff96f fe5bfff9 bffe5bff     .o..o..o..[..[..
 80176a0:	e56aff96 fff955ff e5fffe95 fff9ffff     ..j..U..........
 80176b0:	fffff9ff f9fffff9 fff9ffff fffff9ff     ................
 80176c0:	fefffff9 0000ffff                       ........

080176c8 <_ZTVN12_GLOBAL__N_125font_OSD_Charset_223_typeE>:
	...
 80176d0:	0800d549 0800d53d 0800da15 0800e729     I...=.......)...

080176e0 <_ZTVN12_GLOBAL__N_124font_OSD_Charset_35_typeE>:
	...
 80176e8:	0800c3a9 0800c39d 0800e2e5 0800f5d9     ................

080176f8 <_ZTVN12_GLOBAL__N_125font_OSD_Charset_205_typeE>:
	...
 8017700:	0800d399 0800d38d 0800daed 0800e891     ................

08017710 <_ZTVN12_GLOBAL__N_125font_OSD_Charset_124_typeE>:
	...
 8017718:	0800cc01 0800cbf5 0800deb9 0800eee5     ................

08017728 <_ZN12_GLOBAL__N_124font_OSD_Charset_56_type6m_dataE>:
 8017728:	ffffffff ffffffff ffffffff ffffffff     ................
 8017738:	aabfffff f9556ffe 5be5555b aa5be5aa     .....oU.[U.[..[.
 8017748:	f9556fe5 5bf9556f aa5be5aa e5555be5     .oU.oU.[..[..[U.
 8017758:	bff9556f 0000feaa                       oU......

08017760 <_ZTVN12_GLOBAL__N_124font_OSD_Charset_67_typeE>:
	...
 8017768:	0800c6a9 0800c69d 0800e165 0800f359     ........e...Y...

08017778 <_ZTVN12_GLOBAL__N_125font_OSD_Charset_237_typeE>:
	...
 8017780:	0800d699 0800d68d 0800d96d 0800e611     ........m.......

08017790 <_ZTVN12_GLOBAL__N_123font_OSD_Charset_2_typeE>:
	...
 8017798:	0800c091 0800c085 0800e471 0800f86d     ........q...m...

080177a8 <_ZN12_GLOBAL__N_125font_OSD_Charset_141_type6m_dataE>:
 80177a8:	ffffffff ffffffff ffffffff ffffffff     ................
 80177b8:	ffffffff ffffffff ebffffff 6f96febf     ...............o
 80177c8:	f95a56f9 96f95556 6596f965 f96a96f9     .VZ.VU..e..e..j.
 80177d8:	ebf96f96 0000febf                       .o......

080177e0 <_ZN12_GLOBAL__N_124font_OSD_Charset_64_type6m_dataE>:
 80177e0:	ffffffff ffffffff ffffffff bfffaaff     ................
 80177f0:	aa6ffe55 e6ba9bf9 669a65a6 6a669a5a     U.o......e.fZ.fj
 8017800:	9a5a669a e6e665a6 ff9bf9ba e6aa6ffa     .fZ..e.......o..
 8017810:	fff955bf 0000feaa                       .U......

08017818 <_ZN12_GLOBAL__N_125font_OSD_Charset_232_type6m_dataE>:
 8017818:	6ffffebf e55bfff9 ff9696ff 56ff9696     ...o..[........V
 8017828:	9696ff95 ff9696ff fffeabeb 5bfffaaf     ...............[
 8017838:	9596ffe5 ffea96ff aaffe55b 9656ff96     ........[.....V.
 8017848:	ffe55bff 0000faaf                       .[......

08017850 <_ZN12_GLOBAL__N_125font_OSD_Charset_233_type6m_dataE>:
 8017850:	5bfffaaf 9556ffe5 ffaa96ff 96ff9596     ...[..V.........
 8017860:	9556ff9a ffe55bff fffffaaf 5bfffaaf     ..V..[.........[
 8017870:	9596ffe5 ffea96ff abffe55b 9656ff96     ........[.....V.
 8017880:	ffe55bff 0000faaf                       .[......

08017888 <_ZTVN12_GLOBAL__N_124font_OSD_Charset_68_typeE>:
	...
 8017890:	0800c6c1 0800c6b5 0800e159 0800f345     ........Y...E...

080178a0 <_ZN12_GLOBAL__N_125font_OSD_Charset_167_type6m_dataE>:
 80178a0:	ffffffff faafffff ffe9aaff 55fea555     ............U..U
 80178b0:	a955fa95 faaaa9fa aafaaaaa ffeaffea     ..U.............
 80178c0:	ffffeaff aaffffaa ffabffff ffffffff     ................
 80178d0:	ffffffff 0000ffff                       ........

080178d8 <_ZTVN12_GLOBAL__N_124font_OSD_Charset_50_typeE>:
	...
 80178e0:	0800c511 0800c505 0800e231 0800f4ad     ........1.......

080178f0 <_ZN12_GLOBAL__N_125font_OSD_Charset_164_type6m_dataE>:
 80178f0:	ffffffff ffffffff abebffbf ff5aaaff     ..............Z.
 8017900:	56bf555a 5556bf55 af5555af aaab5555     ZU.VU.VU.UU.UU..
 8017910:	aaaaabaa afaaaaab ffffaaaa ffffffff     ................
 8017920:	ffffffff 0000ffff                       ........

08017928 <_ZTVN12_GLOBAL__N_125font_OSD_Charset_199_typeE>:
	...
 8017930:	0800d309 0800d2fd 0800db35 0800e909     ........5.......

08017940 <_ZN12_GLOBAL__N_125font_OSD_Charset_197_type6m_dataE>:
 8017940:	ffffffff ffffffff faffafff 5be5be5b     ............[..[
 8017950:	be5be5be e5aa5be5 65a5965a 556a5996     ..[..[..Z..e.YjU
 8017960:	f9696fa9 6ff9696f aabff969 fffffffe     .oi.oi.oi.......
 8017970:	ffffffff 0000ffff                       ........

08017978 <_ZTVN12_GLOBAL__N_124font_OSD_Charset_82_typeE>:
	...
 8017980:	0800c811 0800c805 0800e0b1 0800f22d     ............-...

08017990 <_ZTVN12_GLOBAL__N_125font_OSD_Charset_252_typeE>:
	...
 8017998:	0800d801 0800d7f5 0800d8b9 0800e4e5     ................

080179a8 <_ZN12_GLOBAL__N_123font_OSD_Charset_2_type6m_dataE>:
 80179a8:	56feaaaa 96aafea5 fe96aafe aafea55a     ...V........Z...
 80179b8:	96aafe96 fea556fe aaaaaaaa 96bfa956     .....V......V...
 80179c8:	9696bfa5 bf9696bf 96bf9696 a596bf96     ................
 80179d8:	bfa956bf 0000aaaa                       .V......

080179e0 <_ZTVN12_GLOBAL__N_125font_OSD_Charset_171_typeE>:
	...
 80179e8:	0800d069 0800d05d 0800dc85 0800eb39     i...].......9...

080179f8 <_ZN12_GLOBAL__N_124font_OSD_Charset_21_type6m_dataE>:
 80179f8:	aa955556 ffffaaaa ffffffff ffffffff     VU..............
 8017a08:	ffffffff ffffffff ffffffff ffffffff     ................
 8017a18:	ffffffff ffffffff ffffffff ffffffff     ................
 8017a28:	ffffffff 0000ffff                       ........

08017a30 <_ZN12_GLOBAL__N_124font_OSD_Charset_33_type6m_dataE>:
 8017a30:	ffffffff 96ffffeb ff96ffff ffff96ff     ................
 8017a40:	96ffff96 ff96ffff ffff96ff 96ffff96     ................
 8017a50:	ff96ffff ffffebff 96ffffeb ff96ffff     ................
 8017a60:	ffffebff 0000ffff                       ........

08017a68 <_ZN12_GLOBAL__N_125font_OSD_Charset_133_type6m_dataE>:
 8017a68:	5affaaab 5a96ff95 fe5556fe abfe5a96     ...Z...Z.VU..Z..
 8017a78:	f96fffaa fff96fff 6ffea96f 556ff955     ..o..o..o..oU.oU
 8017a88:	eaaabff9 ff9556ff 6bff9556 f96fffe9     .....V..V..k..o.
 8017a98:	fff96fff 0000febf                       .o......

08017aa0 <_ZTVN12_GLOBAL__N_124font_OSD_Charset_98_typeE>:
	...
 8017aa8:	0800c991 0800c985 0800dff1 0800f0ed     ................

08017ab8 <_ZN12_GLOBAL__N_125font_OSD_Charset_224_type6m_dataE>:
 8017ab8:	96ffebeb 9556ff96 ff9966ff abfb9aa6     ......V..f......
 8017ac8:	e55be6ea e69696e6 96fb9696 e55bfb96     ..[...........[.
 8017ad8:	e6eaabe6 96e6e556 9696fb96 ff9696ff     ....V...........
 8017ae8:	abffe556 0000fffa                       V.......

08017af0 <_ZTVN12_GLOBAL__N_124font_OSD_Charset_36_typeE>:
	...
 8017af8:	0800c3c1 0800c3b5 0800e2d9 0800f5c5     ................

08017b08 <_ZN12_GLOBAL__N_125font_OSD_Charset_130_type6m_dataE>:
 8017b08:	56ffaaab 5996fe55 fe5996fe abfe5a96     ...VU..Y..Y..Z..
 8017b18:	56fffeaa f9a6fff9 bfe555bf a5bfe5a5     ...V.....U......
 8017b28:	eaaaffe5 ff9696ff 56ff9696 9696ff95     ...........V....
 8017b38:	ff9696ff 0000ebeb                       ........

08017b40 <_ZTVN12_GLOBAL__N_125font_OSD_Charset_125_typeE>:
	...
 8017b48:	0800cc19 0800cc0d 0800dead 0800eed1     ................

08017b58 <_ZN12_GLOBAL__N_125font_OSD_Charset_159_type6m_dataE>:
 8017b58:	faffffff fffaffff ffffe9ff 95febfa5     ................
 8017b68:	9655feaa fea555fe 55ffa555 a555ffa5     ..U..U..U..U..U.
 8017b78:	ffa96aff aaffeaaa eaaaffea ffeabfff     .j..............
 8017b88:	ffffffff 0000ffff                       ........

08017b90 <_ZN12_GLOBAL__N_125font_OSD_Charset_111_type6m_dataE>:
 8017b90:	ffffffff ffffffff ffffffff ffffffff     ................
 8017ba0:	aabfffff f9556ffe 5be5555b be5be5aa     .....oU.[U.[..[.
 8017bb0:	e5be5be5 5be5be5b aa5be5be e5555be5     .[..[..[..[..[U.
 8017bc0:	bff9556f 0000feaa                       oU......

08017bc8 <_ZN12_GLOBAL__N_125font_OSD_Charset_221_type6m_dataE>:
 8017bc8:	ffffffff ffffffff ffffffff ffffffff     ................
 8017bd8:	ffffffff ffffffff ffffffff ffffffff     ................
 8017be8:	aaabffff ff555bff 5bff555b fe5bffaa     .....[U.[U.[..[.
 8017bf8:	fffe5bff 0000fe5b                       .[..[...

08017c00 <_ZN12_GLOBAL__N_125font_OSD_Charset_156_type6m_dataE>:
 8017c00:	ffffffff afffeabf 556affa5 bf555abf     ..........jU.ZU.
 8017c10:	aabf556a 6aabff56 ff6aafff abff5abf     jU..V..j..j..Z..
 8017c20:	aaaaffaa ffaaaaff ffffaaab ffffffff     ................
 8017c30:	ffffffff 0000ffff                       ........

08017c38 <_ZTVN12_GLOBAL__N_125font_OSD_Charset_238_typeE>:
	...
 8017c40:	0800d6b1 0800d6a5 0800d961 0800e5fd     ........a.......

08017c50 <_ZTVN12_GLOBAL__N_123font_OSD_Charset_3_typeE>:
	...
 8017c58:	0800c0a9 0800c09d 0800e465 0800f859     ........e...Y...

08017c68 <_ZTVN12_GLOBAL__N_125font_OSD_Charset_157_typeE>:
	...
 8017c70:	0800cf19 0800cf0d 0800dd2d 0800ec51     ........-...Q...

08017c80 <_ZN12_GLOBAL__N_125font_OSD_Charset_247_type6m_dataE>:
 8017c80:	ffffffff ffffafff 55bfff5a ffa56fff     ........Z..U.o..
 8017c90:	5bffba5b bf96ffbe ffbf96ff 96ffbf96     [..[............
 8017ca0:	be5bffbf ffba5bff bfffa56f 5affff55     ..[..[..o...U..Z
 8017cb0:	ffafffff 0000ffff                       ........

08017cb8 <_ZTVN12_GLOBAL__N_125font_OSD_Charset_210_typeE>:
	...
 8017cc0:	0800d411 0800d405 0800dab1 0800e82d     ............-...

08017cd0 <_ZTVN12_GLOBAL__N_124font_OSD_Charset_79_typeE>:
	...
 8017cd8:	0800c7c9 0800c7bd 0800e0d5 0800f269     ............i...

08017ce8 <_ZTVN12_GLOBAL__N_125font_OSD_Charset_116_typeE>:
	...
 8017cf0:	0800cb41 0800cb35 0800df19 0800ef85     A...5...........

08017d00 <_ZTVN12_GLOBAL__N_124font_OSD_Charset_51_typeE>:
	...
 8017d08:	0800c529 0800c51d 0800e225 0800f499     ).......%.......

08017d18 <_ZTVN12_GLOBAL__N_125font_OSD_Charset_221_typeE>:
	...
 8017d20:	0800d519 0800d50d 0800da2d 0800e751     ........-...Q...

08017d30 <_ZN12_GLOBAL__N_124font_OSD_Charset_10_type6m_dataE>:
 8017d30:	ffffffff ffffffff ffffffff ffffffff     ................
 8017d40:	ffffffff aaaaaaff aa555555 ffffaaaa     ........UUU.....
 8017d50:	ffffffff ffffffff ffffffff ffffffff     ................
 8017d60:	ffffffff 0000ffff                       ........

08017d68 <_ZTVN12_GLOBAL__N_125font_OSD_Charset_140_typeE>:
	...
 8017d70:	0800cd81 0800cd75 0800ddf9 0800eda5     ....u...........

08017d80 <_ZTVN12_GLOBAL__N_125font_OSD_Charset_251_typeE>:
	...
 8017d88:	0800d7e9 0800d7dd 0800d8c5 0800e4f9     ................

08017d98 <_ZN12_GLOBAL__N_125font_OSD_Charset_122_type6m_dataE>:
 8017d98:	ffffffff ffffffff ffffffff ffffffff     ................
 8017da8:	aaafffff e5555bfa afe5555b 5bffe56a     .....[U.[U..j..[
 8017db8:	fe56fff9 6fff95bf a95bffe5 e5555bfa     ..V....o..[..[U.
 8017dc8:	afe5555b 0000faaa                       [U......

08017dd0 <_ZTVN12_GLOBAL__N_124font_OSD_Charset_83_typeE>:
	...
 8017dd8:	0800c829 0800c81d 0800e0a5 0800f219     )...............

08017de8 <_ZTVN12_GLOBAL__N_125font_OSD_Charset_253_typeE>:
	...
 8017df0:	0800d819 0800d80d 0800d8ad 0800e4d1     ................

08017e00 <_ZN12_GLOBAL__N_124font_OSD_Charset_34_type6m_dataE>:
 8017e00:	bfffffff be6ffeff e5695bf9 bfe5b96f     ......o..[i.o...
 8017e10:	f9bfe6f9 f9be6fe6 fffeffbf ffffffff     .....o..........
 8017e20:	ffffffff ffffffff ffffffff ffffffff     ................
 8017e30:	ffffffff 0000ffff                       ........

08017e38 <_ZN12_GLOBAL__N_124font_OSD_Charset_45_type6m_dataE>:
 8017e38:	ffffffff ffffffff ffffffff ffffffff     ................
 8017e48:	ffffffff ffffffff ffffffff ffffffff     ................
 8017e58:	feaabfff 6ff9556f aabff955 fffffffe     ....oU.oU.......
 8017e68:	ffffffff 0000ffff                       ........

08017e70 <_ZTVN12_GLOBAL__N_125font_OSD_Charset_172_typeE>:
	...
 8017e78:	0800d081 0800d075 0800dc79 0800eb25     ....u...y...%...

08017e88 <_ZN12_GLOBAL__N_125font_OSD_Charset_213_type6m_dataE>:
 8017e88:	ffffffff ffffffff ffffffff ffffffff     ................
 8017e98:	ffffffff ffffffff ffffffff ffffffff     ................
 8017ea8:	ffffffff ffffffff ffffffff 56ffffaa     ...............V
 8017eb8:	ffa6ffff 0000e6ff                       ........

08017ec0 <_ZN12_GLOBAL__N_125font_OSD_Charset_148_type6m_dataE>:
 8017ec0:	ffffffff bfffffff 6abfffaa ff5abfff     ...........j..Z.
 8017ed0:	56bf556b 5555af55 af5556af aabfa56a     kU.VU.UU.VU.j...
 8017ee0:	aaaaffaa ffaaabff bfffeaaf fffffffe     ................
 8017ef0:	ffffffff 0000ffff                       ........

08017ef8 <_ZN12_GLOBAL__N_125font_OSD_Charset_210_type6m_dataE>:
 8017ef8:	ffffffff ffffffff ffffffff ffffffff     ................
 8017f08:	ffffffff ffffffff ffffffff ffffffff     ................
 8017f18:	ffffffff ffffffff aaaaffff 555555aa     .............UUU
 8017f28:	ffaaaaaa 0000ffff                       ........

08017f30 <_ZN12_GLOBAL__N_125font_OSD_Charset_239_type6m_dataE>:
 8017f30:	aaffffff 5555aaaa aaaaaa55 55f95555     ......UUU...UU.U
 8017f40:	5555f955 f95555f9 55f95555 5555f955     U.UU.UU.UU.UU.UU
 8017f50:	f95555f9 55f95555 aaaaf955 555555aa     .UU.UU.UU....UUU
 8017f60:	ffaaaaaa 0000ffff                       ........

08017f68 <_ZN12_GLOBAL__N_123font_OSD_Charset_5_type6m_dataE>:
 8017f68:	ffffffff ffffffff ffffffff ffffffff     ................
 8017f78:	ffffffff ffffffff ffffffff ffffffff     ................
 8017f88:	ffffffff ffffffff ffffffff ffffffff     ................
 8017f98:	56aaaaaa 00009555                       ...VU...

08017fa0 <_ZTVN12_GLOBAL__N_124font_OSD_Charset_37_typeE>:
	...
 8017fa8:	0800c3d9 0800c3cd 0800e2cd 0800f5b1     ................

08017fb8 <_ZTVN12_GLOBAL__N_125font_OSD_Charset_207_typeE>:
	...
 8017fc0:	0800d3c9 0800d3bd 0800dad5 0800e869     ............i...

08017fd0 <_ZTVN12_GLOBAL__N_124font_OSD_Charset_69_typeE>:
	...
 8017fd8:	0800c6d9 0800c6cd 0800e14d 0800f331     ........M...1...

08017fe8 <_ZTVN12_GLOBAL__N_125font_OSD_Charset_239_typeE>:
	...
 8017ff0:	0800d6c9 0800d6bd 0800d955 0800e5e9     ........U.......

08018000 <_ZTVN12_GLOBAL__N_123font_OSD_Charset_4_typeE>:
	...
 8018008:	0800c0c1 0800c0b5 0800e459 0800f845     ........Y...E...

08018018 <_ZTVN12_GLOBAL__N_125font_OSD_Charset_158_typeE>:
	...
 8018020:	0800cf31 0800cf25 0800dd21 0800ec3d     1...%...!...=...

08018030 <_ZN12_GLOBAL__N_123font_OSD_Charset_9_type6m_dataE>:
 8018030:	ffffffff ffffffff ffffffff ffffffff     ................
 8018040:	ffffffff ffffffff aaffffff 5555aaaa     ..............UU
 8018050:	aaaaaa55 ffffffff ffffffff ffffffff     U...............
 8018060:	ffffffff 0000ffff                       ........

08018068 <_ZTVN12_GLOBAL__N_125font_OSD_Charset_211_typeE>:
	...
 8018070:	0800d429 0800d41d 0800daa5 0800e819     )...............

08018080 <_ZN12_GLOBAL__N_124font_OSD_Charset_11_type6m_dataE>:
 8018080:	ffffffff ffffffff ffffffff aaffffff     ................
 8018090:	5555aaaa aaaaaa55 ffffffff ffffffff     ..UUU...........
 80180a0:	ffffffff ffffffff ffffffff ffffffff     ................
 80180b0:	ffffffff 0000ffff                       ........

080180b8 <_ZN12_GLOBAL__N_125font_OSD_Charset_205_type6m_dataE>:
 80180b8:	fffffeaa ffffffff ffffffff ffffffff     ................
 80180c8:	ffffffff ffffffff ffffffff ffffffff     ................
 80180d8:	ffffffff ffffffff ffffffff ffffffff     ................
 80180e8:	ffffffff 0000ffff                       ........

080180f0 <_ZN12_GLOBAL__N_124font_OSD_Charset_12_type6m_dataE>:
 80180f0:	ffffffff ffffffff aaaaaaff aa555555     ............UUU.
 8018100:	ffffaaaa ffffffff ffffffff ffffffff     ................
 8018110:	ffffffff ffffffff ffffffff ffffffff     ................
 8018120:	ffffffff 0000ffff                       ........

08018128 <_ZN12_GLOBAL__N_123font_OSD_Charset_6_type6m_dataE>:
 8018128:	ffffffff ffffffff ffffffff ffffffff     ................
 8018138:	ffffffff ffffffff ffffffff ffffffff     ................
 8018148:	ffffffff ffffffff ffffffff aaaaaaff     ................
 8018158:	aa555555 0000aaaa                       UUU.....

08018160 <_ZN12_GLOBAL__N_124font_OSD_Charset_23_type6m_dataE>:
 8018160:	56ffeaab 9556ff95 ffea96ff 96fff956     ...V..V.....V...
 8018170:	9556ffea ff9556ff ffffeaab 56fffaab     ..V..V.........V
 8018180:	e556ffe5 fffa96ff 96fff956 ff96fffe     ..V.....V.......
 8018190:	ffff96ff 0000ffeb                       ........

08018198 <_ZN12_GLOBAL__N_124font_OSD_Charset_29_type6m_dataE>:
 8018198:	ffbfffff ffffafff 5affff6b ff56bfff     ........k..Z..V.
 80181a8:	6bff55af 555aff55 af555abf 5bef555b     .U.kU.ZU.ZU.[U.[
 80181b8:	aa5bff55 ffaa5bff 5bffaa5b aa5bffaa     U.[..[..[..[..[.
 80181c8:	ffaa5bff 0000aaab                       .[......

080181d0 <_ZTVN12_GLOBAL__N_125font_OSD_Charset_136_typeE>:
	...
 80181d8:	0800cd21 0800cd15 0800de29 0800edf5     !.......).......

080181e8 <_ZTVN12_GLOBAL__N_124font_OSD_Charset_52_typeE>:
	...
 80181f0:	0800c541 0800c535 0800e219 0800f485     A...5...........

08018200 <_ZTVN12_GLOBAL__N_125font_OSD_Charset_222_typeE>:
	...
 8018208:	0800d531 0800d525 0800da21 0800e73d     1...%...!...=...

08018218 <_ZN12_GLOBAL__N_125font_OSD_Charset_202_type6m_dataE>:
 8018218:	5bfffe5b 555baaaa 55555b55 ffaaaaab     [..[..[UU[UU....
 8018228:	ffffffff ffffffff ffffffff ffffffff     ................
 8018238:	ffffffff ffffffff ffffffff ffffffff     ................
 8018248:	ffffffff 0000ffff                       ........

08018250 <_ZTVN12_GLOBAL__N_125font_OSD_Charset_141_typeE>:
	...
 8018258:	0800cd99 0800cd8d 0800dded 0800ed91     ................

08018268 <_ZN12_GLOBAL__N_125font_OSD_Charset_137_type6m_dataE>:
 8018268:	5bffeaaf 5a96ff95 fe5556fe ebfe5a96     ...[...Z.VU..Z..
 8018278:	96ffffaa ff96ffff ffff96ff 96ffff96     ................
 8018288:	eaaaffff ff9556ff 56ff96a6 e596ffe9     .....V.....V....
 8018298:	ff9696ff 0000ebeb                       ........

080182a0 <_ZN12_GLOBAL__N_124font_OSD_Charset_47_type6m_dataE>:
 80182a0:	ffffffff ffffffff ffffffff ffebffff     ................
 80182b0:	bfff96ff e56fff95 fff95bff 95bffe56     ......o..[..V...
 80182c0:	ffe56fff 56fff95b ff96fffe ffffebff     .o..[..V........
 80182d0:	ffffffff 0000ffff                       ........

080182d8 <_ZTVN12_GLOBAL__N_124font_OSD_Charset_84_typeE>:
	...
 80182e0:	0800c841 0800c835 0800e099 0800f205     A...5...........

080182f0 <_ZN12_GLOBAL__N_125font_OSD_Charset_228_type6m_dataE>:
 80182f0:	ffffffff faafffff ffe55bff 96fffa96     .........[......
 8018300:	fa96ffff 96e55beb afe6faaf e55be6fa     .....[........[.
 8018310:	e69696e6 56e69696 9696e695 e6eaabe6     .......V........
 8018320:	ff96ffff 0000ebff                       ........

08018328 <_ZTVN12_GLOBAL__N_125font_OSD_Charset_164_typeE>:
	...
 8018330:	0800cfc1 0800cfb5 0800dcd9 0800ebc5     ................

08018340 <_ZTVN12_GLOBAL__N_124font_OSD_Charset_95_typeE>:
	...
 8018348:	0800c949 0800c93d 0800e015 0800f129     I...=.......)...

08018358 <_ZN12_GLOBAL__N_124font_OSD_Charset_90_type6m_dataE>:
 8018358:	ffffffff aaafffff e5555bfa afe5555b     .........[U.[U..
 8018368:	bfffe5aa e56fffe5 fff95bff 95bffe56     ......o..[..V...
 8018378:	ffe56fff 5bfff95b aa5bfffe e5555bfa     .o..[..[..[..[U.
 8018388:	afe5555b 0000faaa                       [U......

08018390 <_ZN12_GLOBAL__N_125font_OSD_Charset_193_type6m_dataE>:
 8018390:	ffffffff ffffffff ffffffff ffffffff     ................
 80183a0:	fbffffff ffe6ffff 95aae6ea e6ea55a6     .............U..
 80183b0:	ffe6ffaa fffffbff ffffffff ffffffff     ................
 80183c0:	ffffffff 0000ffff                       ........

080183c8 <_ZTVN12_GLOBAL__N_124font_OSD_Charset_38_typeE>:
	...
 80183d0:	0800c3f1 0800c3e5 0800e2c1 0800f59d     ................

080183e0 <_ZTVN12_GLOBAL__N_125font_OSD_Charset_208_typeE>:
	...
 80183e8:	0800d3e1 0800d3d5 0800dac9 0800e855     ............U...

080183f8 <_ZN12_GLOBAL__N_125font_OSD_Charset_196_type6m_dataE>:
 80183f8:	ffffffff ffffffff feaabfff 6ff9556f     ............oU.o
 8018408:	a96ff955 fff96ffe 65aa956a a96a5595     U.o..o..j..e.Uj.
 8018418:	ffa96faa 6ff9556f aabff955 fffffffe     .o..oU.oU.......
 8018428:	ffffffff 0000ffff                       ........

08018430 <_ZN12_GLOBAL__N_125font_OSD_Charset_103_type6m_dataE>:
 8018430:	ffffffff ffffffff ffffffff ffffffff     ................
 8018440:	aabfffff f9556ffe 5be5555b aa5be5a9     .....oU.[U.[..[.
 8018450:	e55a5bfa 5be55a5b a95be5aa e5555be5     .[Z.[Z.[..[..[U.
 8018460:	bff9556f 0000feaa                       oU......

08018468 <_ZTVN12_GLOBAL__N_121font_OSD_Charset_typeE>:
	...
 8018470:	0800d855 0800d859 0800d85d 0800d861     U...Y...]...a...
 8018480:	0800d869 0800d889 0800e495 00000000     i...............

08018490 <_ZTVN12_GLOBAL__N_125font_OSD_Charset_127_typeE>:
	...
 8018498:	0800cc49 0800cc3d 0800de95 0800eea9     I...=...........

080184a8 <_ZN12_GLOBAL__N_124font_OSD_Charset_26_type6m_dataE>:
 80184a8:	aaffffff 5555faaa a55555e9 a59a5555     ......UU.UU.UU..
 80184b8:	6aa99a5a 95aaaa95 5695a55a 95569595     Z..j....Z..V..V.
 80184c8:	95955695 59959556 5aa5a565 faaaaae9     .V..V..Ye..Z....
 80184d8:	ffffffff 0000ffff                       ........

080184e0 <_ZTVN12_GLOBAL__N_124font_OSD_Charset_10_typeE>:
	...
 80184e8:	0800c151 0800c145 0800e411 0800f7cd     Q...E...........

080184f8 <_ZN12_GLOBAL__N_125font_OSD_Charset_190_type6m_dataE>:
 80184f8:	ffffffff ffffffff ffffffff ffffffff     ................
 8018508:	ffffffff fffeaaff 55fffe55 feaafffe     ........U..U....
 8018518:	fffeaaff 55fffe55 feaafffe ffffffff     ....U..U........
 8018528:	ffffffff 0000ffff                       ........

08018530 <_ZN12_GLOBAL__N_125font_OSD_Charset_100_type6m_dataE>:
 8018530:	ffffffff ffffffff ffffffff ffffffff     ................
 8018540:	aaafffff fe555bff 5bf9555b be5be56a     .....[U.[U.[j.[.
 8018550:	e5be5be5 5be5be5b 6a5be5be f9555be5     .[..[..[..[j.[U.
 8018560:	affe555b 0000ffaa                       [U......

08018568 <_ZN12_GLOBAL__N_125font_OSD_Charset_129_type6m_dataE>:
 8018568:	96ffebeb e596ff96 fffa56ff 96ffe596     .........V......
 8018578:	aaabff96 e5656ffa 6fe5996f a96fe599     .....oe.o..o..o.
 8018588:	eaaabfe5 ff97d6ff 56ff9696 9696ff95     ...........V....
 8018598:	ff9696ff 0000ebeb                       ........

080185a0 <_ZTVN12_GLOBAL__N_125font_OSD_Charset_159_typeE>:
	...
 80185a8:	0800cf49 0800cf3d 0800dd15 0800ec29     I...=.......)...

080185b8 <_ZTVN12_GLOBAL__N_125font_OSD_Charset_212_typeE>:
	...
 80185c0:	0800d441 0800d435 0800da99 0800e805     A...5...........

080185d0 <_ZTVN12_GLOBAL__N_125font_OSD_Charset_194_typeE>:
	...
 80185d8:	0800d291 0800d285 0800db71 0800e96d     ........q...m...

080185e8 <_ZN12_GLOBAL__N_125font_OSD_Charset_168_type6m_dataE>:
 80185e8:	ffffffff bfffefff a5abffea 6a555aaf     .............ZUj
 80185f8:	55aa5555 5556aa55 afa96aab aaffa9aa     UU.UU.VU.j......
 8018608:	eaabffaa ffeaafff ffffeaff ffffffeb     ................
 8018618:	ffffffff 0000ffff                       ........

08018620 <_ZTVN12_GLOBAL__N_124font_OSD_Charset_53_typeE>:
	...
 8018628:	0800c559 0800c54d 0800e20d 0800f471     Y...M.......q...

08018638 <_ZN12_GLOBAL__N_124font_OSD_Charset_82_type6m_dataE>:
 8018638:	ffffffff aaafffff fe555bff 5bf9555b     .........[U.[U.[
 8018648:	be5be56a e5be5be5 5be56a5b 955bf955     j.[..[..[j.[U.[.
 8018658:	ff955bfe 5bfe565b 6e5bf95a e5be5be5     .[..[V.[Z.[n.[..
 8018668:	afe5be5b 0000faff                       [.......

08018670 <_ZN12_GLOBAL__N_125font_OSD_Charset_250_type6m_dataE>:
 8018670:	ffffefff 5fffff97 fe6ebffe bbfe696f     ......._..n.oi..
 8018680:	a5a6f969 f9a696f9 96f9a69b a5a6f9a6     i...............
 8018690:	f969bbf9 bffe696f 5ffffe6e ff97fffe     ..i.oi..n.._....
 80186a0:	ffffefff 0000ffff                       ........

080186a8 <_ZTVN12_GLOBAL__N_125font_OSD_Charset_142_typeE>:
	...
 80186b0:	0800cdb1 0800cda5 0800dde1 0800ed7d     ............}...

080186c0 <_ZN12_GLOBAL__N_125font_OSD_Charset_185_type6m_dataE>:
 80186c0:	ffffffff ffffffff 95bfffea ffe56fff     .............o..
 80186d0:	56fff95b fa95bffe 5be5556f 5aaff955     [..V....oU.[U..Z
 80186e0:	ff96fbfe 66ffe5a6 fe56fff9 fff956ff     .......f..V..V..
 80186f0:	fffffeab 0000ffff                       ........

080186f8 <_ZTVN12_GLOBAL__N_124font_OSD_Charset_85_typeE>:
	...
 8018700:	0800c859 0800c84d 0800e08d 0800f1f1     Y...M...........

08018710 <_ZTVN12_GLOBAL__N_125font_OSD_Charset_255_typeE>:
	...
 8018718:	0800d849 0800d83d 0800d895 0800e4a9     I...=...........

08018728 <_ZTVN12_GLOBAL__N_125font_OSD_Charset_174_typeE>:
	...
 8018730:	0800d0b1 0800d0a5 0800dc61 0800eafd     ........a.......

08018740 <_ZN12_GLOBAL__N_125font_OSD_Charset_182_type6m_dataE>:
 8018740:	aafeaabf 5556aa55 95aa5695 9696aa96     ....U.VU.V......
 8018750:	aa9696aa 96aa9696 9696aa96 aa9696aa     ................
 8018760:	96aa9696 5696aa96 55569555 95555695     .......VU.VU.VU.
 8018770:	aa955556 0000aaaa                       VU......

08018778 <_ZTVN12_GLOBAL__N_124font_OSD_Charset_96_typeE>:
	...
 8018780:	0800c961 0800c955 0800e009 0800f115     a...U...........

08018790 <_ZN12_GLOBAL__N_124font_OSD_Charset_15_type6m_dataE>:
 8018790:	a9ebfa56 9aa996e5 e96aa996 a5f96aa5     V.........j..j..
 80187a0:	a696e69a 9aa95b9a 5b6aa95b 55af6aa5     .....[..[.j[.j.U
 80187b0:	9559bf6a bfeaa9bf e56ffff9 ff955bff     j.Y.......o..[..
 80187c0:	aafa5556 0000eaaa                       VU......

080187c8 <_ZN12_GLOBAL__N_125font_OSD_Charset_118_type6m_dataE>:
 80187c8:	ffffffff ffffffff ffffffff ffffffff     ................
 80187d8:	ffafffff e5be5bfa 5be5be5b be5be5be     .....[..[..[..[.
 80187e8:	e5be5be5 5be5be5b 556fe569 fe55bff9     .[..[..[i.oU..U.
 80187f8:	ffff96ff 0000ffeb                       ........

08018800 <_ZTVN12_GLOBAL__N_124font_OSD_Charset_39_typeE>:
	...
 8018808:	0800c409 0800c3fd 0800e2b5 0800f589     ................

08018818 <_ZTVN12_GLOBAL__N_125font_OSD_Charset_209_typeE>:
	...
 8018820:	0800d3f9 0800d3ed 0800dabd 0800e841     ............A...

08018830 <_ZTVN12_GLOBAL__N_125font_OSD_Charset_128_typeE>:
	...
 8018838:	0800cc61 0800cc55 0800de89 0800ee95     a...U...........

08018848 <_ZTVN12_GLOBAL__N_124font_OSD_Charset_11_typeE>:
	...
 8018850:	0800c169 0800c15d 0800e405 0800f7b9     i...]...........

08018860 <_ZTVN12_GLOBAL__N_123font_OSD_Charset_6_typeE>:
	...
 8018868:	0800c0f1 0800c0e5 0800e441 0800f81d     ........A.......

08018878 <_ZN12_GLOBAL__N_125font_OSD_Charset_177_type6m_dataE>:
 8018878:	ffffffff 96ffffeb fe55bfff bff9556f     ..........U.oU..
 8018888:	96fffe96 ff96ffff ffff96ff 96ffff96     ................
 8018898:	ff96ffff 6ffe96bf 55bff955 ff96fffe     .......oU..U....
 80188a8:	ffffebff 0000ffff                       ........

080188b0 <_ZN12_GLOBAL__N_125font_OSD_Charset_102_type6m_dataE>:
 80188b0:	ffffffff ffffffff ffffffff ffffffff     ................
 80188c0:	aaafffff e5555bfa 5be5555b aa5bfaaa     .....[U.[U.[..[.
 80188d0:	f9555bfe 5bf9555b fe5bfeaa fffe5bff     .[U.[U.[..[..[..
 80188e0:	affffe5b 0000ffff                       [.......

080188e8 <_ZN12_GLOBAL__N_125font_OSD_Charset_174_type6m_dataE>:
 80188e8:	ffffffff afffaabf 55abff56 bf556aff     ........V..U.jU.
 80188f8:	aaaf56aa 5aaaaf56 af5aaaaf ffff6aff     .V..V..Z..Z..j..
 8018908:	abffffaa ffabffff ffffafff ffffffbf     ................
 8018918:	ffffffff 0000ffff                       ........

08018920 <_ZN12_GLOBAL__N_125font_OSD_Charset_114_type6m_dataE>:
 8018920:	ffffffff ffffffff ffffffff ffffffff     ................
 8018930:	aaafffff f9555bfe 5be5555b aa5be5aa     .....[U.[U.[..[.
 8018940:	f9555be5 5bfe955b 5a5bfe56 e56e5bf9     .[U.[..[V.[Z.[n.
 8018950:	afe5be5b 0000faff                       [.......

08018958 <_ZN12_GLOBAL__N_124font_OSD_Charset_97_type6m_dataE>:
 8018958:	ffffffff ffffffff ffffffff ffffffff     ................
 8018968:	aaffffff fe55bfff 5bf9556f aa5be569     ......U.oU.[i.[.
 8018978:	e5aa5be5 5be5555b aa5be555 e5be5be5     .[..[U.[U.[..[..
 8018988:	afe5be5b 0000faff                       [.......

08018990 <_ZTVN12_GLOBAL__N_124font_OSD_Charset_54_typeE>:
	...
 8018998:	0800c571 0800c565 0800e201 0800f45d     q...e.......]...

080189a8 <_ZTVN12_GLOBAL__N_125font_OSD_Charset_224_typeE>:
	...
 80189b0:	0800d561 0800d555 0800da09 0800e715     a...U...........

080189c0 <_ZN12_GLOBAL__N_125font_OSD_Charset_171_type6m_dataE>:
 80189c0:	faffffff ffeaffff ffffeaff 55ffaaa9     ...............U
 80189d0:	5555faa5 fa9555fa aafe956a aaaafeaa     ..UU.U..j.......
 80189e0:	ffaaabfe ffffaaff ffffffff ffffffff     ................
 80189f0:	ffffffff 0000ffff                       ........

080189f8 <_ZN12_GLOBAL__N_125font_OSD_Charset_186_type6m_dataE>:
 80189f8:	abffffff 555baaaa 55555b55 5baaaa5b     ......[UU[UU[..[
 8018a08:	5a5beaaa e55a5be5 5beaaa5b fe5bfffe     ..[Z.[Z.[..[..[.
 8018a18:	fffe5bff 5bfffe5b fe5bfffe fffe5bff     .[..[..[..[..[..
 8018a28:	5bfffe5b 0000fffe                       [..[....

08018a30 <_ZTVN12_GLOBAL__N_124font_OSD_Charset_86_typeE>:
	...
 8018a38:	0800c871 0800c865 0800e081 0800f1dd     q...e...........

08018a48 <_ZTVN12_GLOBAL__N_125font_OSD_Charset_175_typeE>:
	...
 8018a50:	0800d0c9 0800d0bd 0800dc55 0800eae9     ........U.......

08018a60 <_ZTVN12_GLOBAL__N_125font_OSD_Charset_183_typeE>:
	...
 8018a68:	0800d189 0800d17d 0800dbf5 0800ea49     ....}.......I...

08018a78 <_ZN12_GLOBAL__N_124font_OSD_Charset_43_type6m_dataE>:
 8018a78:	ffffffff ffffffff ffffffff ffffffff     ................
 8018a88:	ffffffff ffffffff ffffffff 96ffffeb     ................
 8018a98:	fe96bfff 6ff9556f 96bff955 ff96fffe     ....oU.oU.......
 8018aa8:	ffffebff 0000ffff                       ........

08018ab0 <_ZN12_GLOBAL__N_125font_OSD_Charset_169_type6m_dataE>:
 8018ab0:	ffffffff ffffffff ffaaaaff 55fe9555     ............U..U
 8018ac0:	9555fe95 fa9555fe aafaaaaa aaaafaaa     ..U..U..........
 8018ad0:	fffffffa ffffffff ffffffff ffffffff     ................
 8018ae0:	ffffffff 0000ffff                       ........

08018ae8 <_ZN12_GLOBAL__N_125font_OSD_Charset_231_type6m_dataE>:
 8018ae8:	96ffeaab 9696ff96 ff9696ff 96ff9556     ............V...
 8018af8:	9696ff96 ff9696ff ffffebeb 6ffffebf     ...............o
 8018b08:	e55bfff9 ff9696ff 56ff9696 9696ff95     ..[........V....
 8018b18:	ff9696ff 0000ebeb                       ........

08018b20 <_ZN12_GLOBAL__N_125font_OSD_Charset_166_type6m_dataE>:
 8018b20:	ffffffff bfffffff aaabfffe bf6a6aff     .............jj.
 8018b30:	55af5556 55556a55 aa9555aa aaaa95aa     VU.UUjUU.U......
 8018b40:	aaaaafaa ffaaabff ffffabff ffffffff     ................
 8018b50:	ffffffff 0000ffff                       ........

08018b58 <_ZTVN12_GLOBAL__N_125font_OSD_Charset_129_typeE>:
	...
 8018b60:	0800cc79 0800cc6d 0800de7d 0800ee81     y...m...}.......

08018b70 <_ZTVN12_GLOBAL__N_124font_OSD_Charset_12_typeE>:
	...
 8018b78:	0800c181 0800c175 0800e3f9 0800f7a5     ....u...........

08018b88 <_ZN12_GLOBAL__N_125font_OSD_Charset_163_type6m_dataE>:
 8018b88:	faffffff faaaffff ffe955ff 95ffea55     .........U..U...
 8018b98:	fa95fffa fffaa5ff 55feaa95 aaa9faaa     ...........U....
 8018ba8:	feaaaafa eafffaaa ffffffff ffffffff     ................
 8018bb8:	ffffffff 0000ffff                       ........

08018bc0 <_ZTVN12_GLOBAL__N_125font_OSD_Charset_101_typeE>:
	...
 8018bc8:	0800c9d9 0800c9cd 0800dfcd 0800f0b1     ................

08018bd8 <_ZTVN12_GLOBAL__N_125font_OSD_Charset_190_typeE>:
	...
 8018be0:	0800d231 0800d225 0800dba1 0800e9bd     1...%...........

08018bf0 <_ZN12_GLOBAL__N_124font_OSD_Charset_86_type6m_dataE>:
 8018bf0:	ffffffff ffafffff e5be5bfa 5be5be5b     .........[..[..[
 8018c00:	be5be5be e5be5be5 5be5be5b be5be5be     ..[..[..[..[..[.
 8018c10:	e5be5be5 6fe5695b 556ff969 fe55bff9     .[..[i.oi.oU..U.
 8018c20:	ffff96ff 0000ffeb                       ........

08018c28 <_ZN12_GLOBAL__N_125font_OSD_Charset_254_type6m_dataE>:
 8018c28:	ffffffff ffffffff ffffffff ffffffff     ................
 8018c38:	ffffffff efefabff a69b9a56 99a69659     ........V...Y...
 8018c48:	9999a699 a69a9a56 9be69b9b 9b9be69b     ....V...........
 8018c58:	fb9b9be6 0000efef                       ........

08018c60 <_ZTVN12_GLOBAL__N_124font_OSD_Charset_23_typeE>:
	...
 8018c68:	0800c289 0800c27d 0800e375 0800f6c9     ....}...u.......

08018c78 <_ZTVN12_GLOBAL__N_124font_OSD_Charset_55_typeE>:
	...
 8018c80:	0800c589 0800c57d 0800e1f5 0800f449     ....}.......I...

08018c90 <_ZTVN12_GLOBAL__N_125font_OSD_Charset_225_typeE>:
	...
 8018c98:	0800d579 0800d56d 0800d9fd 0800e701     y...m...........

08018ca8 <_ZTVN12_GLOBAL__N_125font_OSD_Charset_144_typeE>:
	...
 8018cb0:	0800cde1 0800cdd5 0800ddc9 0800ed55     ............U...

08018cc0 <_ZTVN12_GLOBAL__N_124font_OSD_Charset_61_typeE>:
	...
 8018cc8:	0800c619 0800c60d 0800e1ad 0800f3d1     ................

08018cd8 <_ZN12_GLOBAL__N_125font_OSD_Charset_199_type6m_dataE>:
 8018cd8:	ffffffff ffffffff ffffffff ffffffff     ................
 8018ce8:	ffffffff ffffffff 95aaffea 6e5a55bf     .............UZn
 8018cf8:	fe596fa9 ffff95bf fbffffe6 ffffffff     .oY.............
 8018d08:	ffffffff 0000ffff                       ........

08018d10 <_ZTVN12_GLOBAL__N_125font_OSD_Charset_108_typeE>:
	...
 8018d18:	0800ca81 0800ca75 0800df79 0800f025     ....u...y...%...

08018d28 <_ZN12_GLOBAL__N_125font_OSD_Charset_158_type6m_dataE>:
 8018d28:	ffffffff afffafff 556bffaa ff55abff     ..........kU..U.
 8018d38:	afff56af 5aafff56 af56aabf aaaf55aa     .V..V..Z..V..U..
 8018d48:	aaaabf6a ffaaafff ffffabff ffffffff     j...............
 8018d58:	ffffffff 0000ffff                       ........

08018d60 <_ZN12_GLOBAL__N_125font_OSD_Charset_220_type6m_dataE>:
 8018d60:	fffe5bff 5bfffe5b aa5bfffe ff555bff     .[..[..[..[..[U.
 8018d70:	abff555b ffffffaa ffffffff ffffffff     [U..............
 8018d80:	ffffffff ffffffff ffffffff ffffffff     ................
 8018d90:	ffffffff 0000ffff                       ........

08018d98 <_ZTVN12_GLOBAL__N_125font_OSD_Charset_176_typeE>:
	...
 8018da0:	0800d0e1 0800d0d5 0800dc49 0800ead5     ........I.......

08018db0 <_ZN12_GLOBAL__N_125font_OSD_Charset_155_type6m_dataE>:
 8018db0:	ffffffff febfffff ffeaaaff 55ffa9a9     ...............U
 8018dc0:	5555fe95 a95555fa 56aa5556 aaaaaaaa     ..UU.UU.VU.V....
 8018dd0:	faaaaaaa eaffeaaa ffffffff ffffffff     ................
 8018de0:	ffffffff 0000ffff                       ........

08018de8 <_ZN12_GLOBAL__N_124font_OSD_Charset_78_type6m_dataE>:
 8018de8:	ffffffff ffafffff e5be5bfa 5be5be5b     .........[..[..[
 8018df8:	b95be5be e5b95be5 5be5a55b 565be595     ..[..[..[..[..[V
 8018e08:	e55a5be5 5be56e5b be5be56e e5be5be5     .[Z.[n.[n.[..[..
 8018e18:	afe5be5b 0000faff                       [.......

08018e20 <_ZN12_GLOBAL__N_124font_OSD_Charset_51_type6m_dataE>:
 8018e20:	ffffffff ffffffff ffffffff ffffffff     ................
 8018e30:	aaafffff f9555bfe afe5555b aaffe5aa     .....[U.[U......
 8018e40:	f955bfe5 fff955bf aaafe5aa e5555be5     ..U..U.......[U.
 8018e50:	aff9555b 0000feaa                       [U......

08018e58 <_ZN12_GLOBAL__N_125font_OSD_Charset_246_type6m_dataE>:
 8018e58:	f9fffffe faf9ffff ffe5baff 95ffe5a5     ................
 8018e68:	fe5afffa ffa96fff 6ffe596f a96ffe59     ..Z..o..oY.oY.o.
 8018e78:	fffe5aff a5fffa95 e5baffe5 fffaf9ff     .Z..............
 8018e88:	fefffff9 0000ffff                       ........

08018e90 <_ZTVN12_GLOBAL__N_125font_OSD_Charset_187_typeE>:
	...
 8018e98:	0800d1e9 0800d1dd 0800dbc5 0800e9f9     ................

08018ea8 <_ZN12_GLOBAL__N_125font_OSD_Charset_152_type6m_dataE>:
 8018ea8:	ffffffff ffffffff aaaaffff bf5556bf     .............VU.
 8018eb8:	56bf5556 5556af55 afaaaaaf aaafaaaa     VU.VU.VU........
 8018ec8:	ffffffaa ffffffff ffffffff ffffffff     ................
 8018ed8:	ffffffff 0000ffff                       ........

08018ee0 <_ZTVN12_GLOBAL__N_124font_OSD_Charset_70_typeE>:
	...
 8018ee8:	0800c6f1 0800c6e5 0800e141 0800f31d     ........A.......

08018ef8 <_ZTVN12_GLOBAL__N_125font_OSD_Charset_240_typeE>:
	...
 8018f00:	0800d6e1 0800d6d5 0800d949 0800e5d5     ........I.......

08018f10 <_ZN12_GLOBAL__N_124font_OSD_Charset_63_type6m_dataE>:
 8018f10:	ffffffff aabfffff f9556ffe 56e5555b     .........oU.[U.V
 8018f20:	ff9695aa 96ffeb96 ff95bfff 5bffe56f     ............o..[
 8018f30:	fe56fff9 ffff96ff ebffffeb ff96ffff     ..V.............
 8018f40:	ffff96ff 0000ffeb                       ........

08018f48 <_ZTVN12_GLOBAL__N_124font_OSD_Charset_99_typeE>:
	...
 8018f50:	0800c9a9 0800c99d 0800dfe5 0800f0d9     ................

08018f60 <_ZTVN12_GLOBAL__N_124font_OSD_Charset_13_typeE>:
	...
 8018f68:	0800c199 0800c18d 0800e3ed 0800f791     ................

08018f78 <_ZTVN12_GLOBAL__N_125font_OSD_Charset_102_typeE>:
	...
 8018f80:	0800c9f1 0800c9e5 0800dfc1 0800f09d     ................

08018f90 <_ZTVN12_GLOBAL__N_125font_OSD_Charset_191_typeE>:
	...
 8018f98:	0800d249 0800d23d 0800db95 0800e9a9     I...=...........

08018fa8 <_ZN12_GLOBAL__N_125font_OSD_Charset_121_type6m_dataE>:
 8018fa8:	ffffffff ffffffff ffffffff ffffffff     ................
 8018fb8:	ffafffff e5be5bfa 5be5be5b 695be5be     .....[..[..[..[i
 8018fc8:	f9556fe5 fffe55bf 96ffff96 ff96ffff     .oU..U..........
 8018fd8:	ffff96ff 0000ffeb                       ........

08018fe0 <_ZTVN12_GLOBAL__N_123font_OSD_Charset_8_typeE>:
	...
 8018fe8:	0800c121 0800c115 0800e429 0800f7f5     !.......).......

08018ff8 <_ZN12_GLOBAL__N_124font_OSD_Charset_44_type6m_dataE>:
 8018ff8:	ffffffff ffffffff ffffffff ffffffff     ................
 8019008:	ffffffff ffffffff ffffffff ffffffff     ................
 8019018:	ffffffff ffffebff 96ffff96 ffe5bfff     ................
 8019028:	bffff96f 0000fffe                       o.......

08019030 <_ZTVN12_GLOBAL__N_124font_OSD_Charset_24_typeE>:
	...
 8019038:	0800c2a1 0800c295 0800e369 0800f6b5     ........i.......

08019048 <_ZTVN12_GLOBAL__N_125font_OSD_Charset_113_typeE>:
	...
 8019050:	0800caf9 0800caed 0800df3d 0800efc1     ........=.......

08019060 <_ZN12_GLOBAL__N_125font_OSD_Charset_147_type6m_dataE>:
 8019060:	aaffffff fa95fffe ffea55ff 95ffa955     .........U..U...
 8019070:	aa95feaa faaaa5fa a9faaaa5 ffaafaff     ................
 8019080:	ffffeaff faffffea fffeffff ffffffff     ................
 8019090:	ffffffff 0000ffff                       ........

08019098 <_ZTVN12_GLOBAL__N_124font_OSD_Charset_56_typeE>:
	...
 80190a0:	0800c5a1 0800c595 0800e1e9 0800f435     ............5...

080190b0 <_ZN12_GLOBAL__N_125font_OSD_Charset_238_type6m_dataE>:
 80190b0:	aaffffff 5555aaaa aaaaaa55 55555555     ......UUU...UUUU
 80190c0:	55555555 55555555 55555555 55555555     UUUUUUUUUUUUUUUU
 80190d0:	55555555 55555555 aaaa5555 555555aa     UUUUUUUUUU...UUU
 80190e0:	ffaaaaaa 0000ffff                       ........

080190e8 <_ZTVN12_GLOBAL__N_125font_OSD_Charset_145_typeE>:
	...
 80190f0:	0800cdf9 0800cded 0800ddbd 0800ed41     ............A...

08019100 <_ZTVN12_GLOBAL__N_125font_OSD_Charset_103_typeE>:
	...
 8019108:	0800ca09 0800c9fd 0800dfb5 0800f089     ................

08019118 <_ZN12_GLOBAL__N_125font_OSD_Charset_144_type6m_dataE>:
 8019118:	ffbfffff bfffabff 556bff5a af55aabf     ........Z.kU..U.
 8019128:	aaaf55aa 55aabf55 ff55afff afff55af     .U..U..U..U..U..
 8019138:	aaafff55 ffaaafff bfffaaaf ffffffaa     U...............
 8019148:	ffffffff 0000ffff                       ........

08019150 <_ZN12_GLOBAL__N_1L27font_OSD_Charset_char_arrayE>:
 8019150:	1000090c 10000938 1000095c 1000097c     ....8...\...|...
 8019160:	100009ac 100009cc 100009ec 10000930     ............0...
 8019170:	10000974 10000a60 10000a18 10000a3c     t...`.......<...
 8019180:	10000a5c 10000a88 10000aa8 10000acc     \...............
 8019190:	10000ae8 10000a14 10000b10 10000b34     ............4...
 80191a0:	100009a0 10000a34 10000ac8 10000870     ....4.......p...
 80191b0:	10000b4c 10000b6c 10000b84 10000bac     L...l...........
 80191c0:	100009e8 10000bec 10000b88 10000bb0     ................
 80191d0:	10000bc8 10000bf0 10000c14 10000c34     ............4...
 80191e0:	10000c58 10000874 10000894 100008bc     X...t...........
 80191f0:	10000c5c 10000878 10000898 100008c4     \...x...........
 8019200:	10000bf4 10000908 10000934 10000958     ........4...X...
 8019210:	10000978 100009a8 1000093c 10000960     x.......<...`...
 8019220:	10000980 100009b0 100009d0 100009f0     ................
 8019230:	10000a1c 10000a40 10000a64 10000a8c     ....@...d.......
 8019240:	10000a20 10000a44 10000a68 10000a90      ...D...h.......
 8019250:	10000aac 10000ad0 10000af0 10000afc     ................
 8019260:	10000c40 10000b38 10000af4 10000b00     @...8...........
 8019270:	10000b14 10000b3c 10000b50 10000b70     ....<...P...p...
 8019280:	10000b8c 10000bb4 10000bcc 10000bf8     ................
 8019290:	10000b94 10000bb8 10000bd4 10000bfc     ................
 80192a0:	10000c20 10000c3c 10000c64 10000884      ...<...d.......
 80192b0:	100008a0 100008cc 10000864 10000888     ........d.......
 80192c0:	100008ac 100008d4 10000c10 10000918     ................
 80192d0:	10000944 10000968 10000988 100009b8     D...h...........
 80192e0:	10000bd0 10000c50 10000c1c 10000c38     ....P.......8...
 80192f0:	10000c60 10000880 1000089c 100008c8     `...............
 8019300:	100008ec 10000910 100008a8 100008d0     ................
 8019310:	100008f4 10000914 10000940 10000964     ........@...d...
 8019320:	10000984 100009b4 100009d4 100009f4     ................
 8019330:	10000990 100009bc 100009d8 100009fc     ................
 8019340:	10000a28 10000a48 10000a6c 10000a94     (...H...l.......
 8019350:	10000ab0 10000ad4 100008e8 10000b04     ................
 8019360:	10000ab8 10000adc 10000928 10000a58     ........(...X...
 8019370:	10000b1c 10000a78 10000b54 10000b20     ....x...T... ...
 8019380:	10000b28 10000b40 10000b5c 10000b78     (...@...\...x...
 8019390:	10000b9c 10000bc0 10000bdc 10000c00     ................
 80193a0:	10000c24 100008e4 10000be4 10000c08     $...............
 80193b0:	10000c2c 10000c48 10000868 1000098c     ,...H...h.......
 80193c0:	100008b4 100008d8 100008f8 1000091c     ................
 80193d0:	10000be8 100008e0 10000ba0 10000924     ............$...
 80193e0:	1000094c 1000096c 10000994 100009c0     L...l...........
 80193f0:	10000a24 10000a04 1000099c 100009c8     $...............
 8019400:	100009e4 10000a0c 10000a30 10000a54     ........0...T...
 8019410:	10000a80 10000aa0 10000abc 10000ae0     ................
 8019420:	10000904 10000950 10000ac4 10000ae4     ....P...........
 8019430:	10000a38 10000b0c 10000b2c 10000b44     8.......,...D...
 8019440:	10000b60 10000b7c 10000b30 10000b48     `...|...0...H...
 8019450:	10000b64 10000b80 10000ba8 10000c18     d...............
 8019460:	1000087c 10000c0c 10000c30 10000a98     |.......0.......
 8019470:	100008a4 100008f0 10000a4c 10000a74     ........L...t...
 8019480:	10000a9c 10000ab4 10000ad8 10000af8     ................
 8019490:	10000aec 10000b18 10000a00 10000a70     ............p...
 80194a0:	10000b08 10000b24 10000b58 10000b90     ....$...X.......
 80194b0:	10000b74 10000b98 10000bbc 10000bd8     t...............
 80194c0:	10000c54 10000ba4 10000bc4 10000be0     T...............
 80194d0:	100008fc 10000c28 10000c44 100009dc     ....(...D.......
 80194e0:	1000088c 100008b0 10000c4c 1000086c     ........L...l...
 80194f0:	10000890 100008b8 100008dc 10000900     ................
 8019500:	10000920 10000948 10000a10 10000a84      ...H...........
 8019510:	1000092c 10000b68 10000970 10000998     ,...h...p.......
 8019520:	100009c4 100009e0 10000a08 10000a2c     ............,...
 8019530:	10000a50 10000a7c 100008c0 10000c04     P...|...........
 8019540:	10000954 100009a4 10000aa4 10000ac0     T...............

08019550 <_ZN12_GLOBAL__N_124font_OSD_Charset_67_type6m_dataE>:
 8019550:	ffffffff aaffffff fe55bfff 5bf9556f     ..........U.oU.[
 8019560:	be5be569 fafe5be5 5bfffe5b fe5bfffe     i.[..[..[..[..[.
 8019570:	fffe5bff 5bfafe5b 695be5be f9556fe5     .[..[..[..[i.oU.
 8019580:	fffe55bf 0000ffaa                       .U......

08019588 <_ZN12_GLOBAL__N_125font_OSD_Charset_235_type6m_dataE>:
 8019588:	ffffffff ffffffff faaaafff 56e5555b     ............[U.V
 8019598:	aa9695aa 9aaaa696 a69aaaa6 aaa69aaa     ................
 80195a8:	96aa969a 5b95aa56 aaafe555 fffffffa     ....V..[U.......
 80195b8:	ffffffff 0000ffff                       ........

080195c0 <_ZTVN12_GLOBAL__N_125font_OSD_Charset_215_typeE>:
	...
 80195c8:	0800d489 0800d47d 0800da75 0800e7c9     ....}...u.......

080195d8 <_ZTVN12_GLOBAL__N_125font_OSD_Charset_105_typeE>:
	...
 80195e0:	0800ca39 0800ca2d 0800df9d 0800f061     9...-.......a...

080195f0 <_ZN12_GLOBAL__N_124font_OSD_Charset_52_type6m_dataE>:
 80195f0:	ffffffff ffffffff ffffffff ffffffff     ................
 8019600:	afffffff f95bfffe bff956ff 696ff965     ......[..V..e.oi
 8019610:	f96a5bf9 5be5555b 6aafe555 f96ffff9     .[j.[U.[U..j..o.
 8019620:	fff96fff 0000febf                       .o......

08019628 <_ZTVN12_GLOBAL__N_125font_OSD_Charset_177_typeE>:
	...
 8019630:	0800d0f9 0800d0ed 0800dc3d 0800eac1     ........=.......

08019640 <_ZN12_GLOBAL__N_123font_OSD_Charset_8_type6m_dataE>:
 8019640:	ffffffff ffffffff ffffffff ffffffff     ................
 8019650:	ffffffff ffffffff ffffffff ffffffff     ................
 8019660:	aaaaaaff aa555555 ffffaaaa ffffffff     ....UUU.........
 8019670:	ffffffff 0000ffff                       ........

08019678 <_ZTVN12_GLOBAL__N_125font_OSD_Charset_188_typeE>:
	...
 8019680:	0800d201 0800d1f5 0800dbb9 0800e9e5     ................

08019690 <_ZTVN12_GLOBAL__N_124font_OSD_Charset_71_typeE>:
	...
 8019698:	0800c709 0800c6fd 0800e135 0800f309     ........5.......

080196a8 <_ZN12_GLOBAL__N_125font_OSD_Charset_117_type6m_dataE>:
 80196a8:	ffffffff ffffffff ffffffff ffffffff     ................
 80196b8:	ffafffff e5be5bfa 5be5be5b be5be5be     .....[..[..[..[.
 80196c8:	e5be5be5 5be5be5b aa5be5be e5555be5     .[..[..[..[..[U.
 80196d8:	bff9556f 0000feaa                       oU......

080196e0 <_ZTVN12_GLOBAL__N_125font_OSD_Charset_160_typeE>:
	...
 80196e8:	0800cf61 0800cf55 0800dd09 0800ec15     a...U...........

080196f8 <_ZN12_GLOBAL__N_124font_OSD_Charset_88_type6m_dataE>:
 80196f8:	ffffffff ffafffff e5be5bfa 5be5be5b     .........[..[..[
 8019708:	be5be5be f9696fe5 fffe55bf 96ffff96     ..[..oi..U......
 8019718:	fe55bfff 5bf9696f be5be5be e5be5be5     ..U.oi.[..[..[..
 8019728:	afe5be5b 0000faff                       [.......

08019730 <_ZN12_GLOBAL__N_125font_OSD_Charset_139_type6m_dataE>:
 8019730:	ffffffff ffffffff ffffffff ffffffff     ................
 8019740:	ffffffff ffffffff ffffffff ffffffff     ................
 8019750:	ffffffff ffffffff ffffffff ffffffff     ................
 8019760:	ffffffff 0000ffff                       ........

08019768 <_ZN12_GLOBAL__N_125font_OSD_Charset_201_type6m_dataE>:
 8019768:	ffffffff eaffffff ff95bfff ffffeaff     ................
 8019778:	ffffffff ffffffff ffffffff ffffffff     ................
 8019788:	ffeaaaff aaff9555 ffffffea ffffffff     ....U...........
 8019798:	ffffffff 0000ffff                       ........

080197a0 <_ZTVN12_GLOBAL__N_124font_OSD_Charset_14_typeE>:
	...
 80197a8:	0800c1b1 0800c1a5 0800e3e1 0800f77d     ............}...

080197b8 <_ZN12_GLOBAL__N_125font_OSD_Charset_136_type6m_dataE>:
 80197b8:	ffffffff ffffffff ffffffff 96ffebeb     ................
 80197c8:	9556ff96 ff9966ff abff9aa6 9556ffea     ..V..f........V.
 80197d8:	ffeaabff a6ff9556 9556ffea ff9aabff     ....V.....V.....
 80197e8:	abff9556 0000ffea                       V.......

080197f0 <_ZTVN12_GLOBAL__N_125font_OSD_Charset_192_typeE>:
	...
 80197f8:	0800d261 0800d255 0800db89 0800e995     a...U...........

08019808 <_ZTVN12_GLOBAL__N_125font_OSD_Charset_219_typeE>:
	...
 8019810:	0800d4e9 0800d4dd 0800da45 0800e779     ........E...y...

08019820 <_ZN12_GLOBAL__N_124font_OSD_Charset_59_type6m_dataE>:
 8019820:	ffffffff ffffffff ffffffff ffffffff     ................
 8019830:	ffffffff ffebffff ffff96ff ebffff96     ................
 8019840:	ffffffff ffffffff 96ffffeb ff96ffff     ................
 8019850:	ffffe5bf 0000fffa                       ........

08019858 <_ZTVN12_GLOBAL__N_123font_OSD_Charset_9_typeE>:
	...
 8019860:	0800c139 0800c12d 0800e41d 0800f7e1     9...-...........

08019870 <_ZN12_GLOBAL__N_125font_OSD_Charset_227_type6m_dataE>:
 8019870:	ffffffff ebebffff ff9696ff 96ff9696     ................
 8019880:	e55bff96 96f96feb abe6febf e556e6fa     ..[..o........V.
 8019890:	e69696e6 96e6a956 e556e696 e6faabe6     ....V.....V.....
 80198a0:	ff96ffff 0000ebff                       ........

080198a8 <_ZTVN12_GLOBAL__N_124font_OSD_Charset_25_typeE>:
	...
 80198b0:	0800c2b9 0800c2ad 0800e35d 0800f6a1     ........].......

080198c0 <_ZTVN12_GLOBAL__N_125font_OSD_Charset_114_typeE>:
	...
 80198c8:	0800cb11 0800cb05 0800df31 0800efad     ........1.......

080198d8 <_ZN12_GLOBAL__N_125font_OSD_Charset_187_type6m_dataE>:
 80198d8:	aaffffff 5555aaaa 55555555 ffaaaaaa     ......UUUUUU....
 80198e8:	ffffffff ffaaffff 6ffe55bf aa5bf955     .........U.oU.[.
 80198f8:	96ff96e5 9696ff96 ff9696ff e5aa5b96     .............[..
 8019908:	bff9556f 0000fe55                       oU..U...

08019910 <_ZN12_GLOBAL__N_124font_OSD_Charset_41_type6m_dataE>:
 8019910:	ffffffff ffffffff fffebfff bffff96f     ............o...
 8019920:	96ffffe5 fe5bffff fffe5bff 5bfffe5b     ......[..[..[..[
 8019930:	fe5bfffe fffe5bff 96fffe5b ffe5bfff     ..[..[..[.......
 8019940:	bffff96f 0000fffe                       o.......

08019948 <_ZTVN12_GLOBAL__N_124font_OSD_Charset_57_typeE>:
	...
 8019950:	0800c5b9 0800c5ad 0800e1dd 0800f421     ............!...

08019960 <_ZTVN12_GLOBAL__N_125font_OSD_Charset_227_typeE>:
	...
 8019968:	0800d5a9 0800d59d 0800d9e5 0800e6d9     ................

08019978 <_ZTVN12_GLOBAL__N_125font_OSD_Charset_146_typeE>:
	...
 8019980:	0800ce11 0800ce05 0800ddb1 0800ed2d     ............-...

08019990 <_ZN12_GLOBAL__N_124font_OSD_Charset_53_type6m_dataE>:
 8019990:	ffffffff ffffffff ffffffff ffffffff     ................
 80199a0:	aaafffff e5555bfa 5be5555b 555bfaaa     .....[U.[U.[..[U
 80199b0:	e5555bf9 afe5aaaf aa5be5bf e5555be5     .[U.......[..[U.
 80199c0:	bff9556b 0000feaa                       kU......

080199c8 <_ZN12_GLOBAL__N_125font_OSD_Charset_192_type6m_dataE>:
 80199c8:	ffffffff ffffffff ffffffff ffffffff     ................
 80199d8:	ffffffff ffffffff 55aaaaaa aaaa5555     ...........UUU..
 80199e8:	ffffffaa ffffffff ffffffff ffffffff     ................
 80199f8:	ffffffff 0000ffff                       ........

08019a00 <_ZTVN12_GLOBAL__N_125font_OSD_Charset_137_typeE>:
	...
 8019a08:	0800cd39 0800cd2d 0800de1d 0800ede1     9...-...........

08019a18 <_ZTVN12_GLOBAL__N_123font_OSD_Charset_5_typeE>:
	...
 8019a20:	0800c0d9 0800c0cd 0800e44d 0800f831     ........M...1...

08019a30 <_ZN12_GLOBAL__N_124font_OSD_Charset_25_type6m_dataE>:
 8019a30:	aaffffff 5555faaa a55555e9 a59a5555     ......UU.UU.UU..
 8019a40:	6aa99a5a 95aaaa95 aa95aaaa aaaa95aa     Z..j............
 8019a50:	956aa995 55955aa5 5555a555 faaaaae9     ..j..Z.UU.UU....
 8019a60:	ffffffff 0000ffff                       ........

08019a68 <_ZTVN12_GLOBAL__N_124font_OSD_Charset_40_typeE>:
	...
 8019a70:	0800c421 0800c415 0800e2a9 0800f575     !...........u...

08019a80 <_ZN12_GLOBAL__N_125font_OSD_Charset_128_type6m_dataE>:
 8019a80:	96ffeaab a596ff96 ffaa56ff 96ffa596     .........V......
 8019a90:	aaabff96 955996ea 66e9a996 a966f9a9     ......Y....f..f.
 8019aa0:	eaaaabf9 ff9696ff 56ff9696 9696ff95     ...........V....
 8019ab0:	ff9696ff 0000eaab                       ........

08019ab8 <_ZN12_GLOBAL__N_124font_OSD_Charset_61_type6m_dataE>:
 8019ab8:	ffffffff ffffffff ffffffff ffffffff     ................
 8019ac8:	ffffffff feaabfff 6ff9556f aabff955     ........oU.oU...
 8019ad8:	fffffffe bfffffff 556ffeaa f9556ff9     ..........oU.oU.
 8019ae8:	fffeaabf 0000ffff                       ........

08019af0 <_ZN12_GLOBAL__N_124font_OSD_Charset_89_type6m_dataE>:
 8019af0:	ffffffff ffafffff e5be5bfa 5be5be5b     .........[..[..[
 8019b00:	be5be5be e5be5be5 6fe5695b 55bff955     ..[..[..[i.oU..U
 8019b10:	ff96fffe ffff96ff 96ffff96 ff96ffff     ................
 8019b20:	ffff96ff 0000ffeb                       ........

08019b28 <_ZTVN12_GLOBAL__N_125font_OSD_Charset_189_typeE>:
	...
 8019b30:	0800d219 0800d20d 0800dbad 0800e9d1     ................

08019b40 <_ZN12_GLOBAL__N_125font_OSD_Charset_125_type6m_dataE>:
 8019b40:	bfffffff e56ffffa ff956fff bfff956f     ......o..o..o...
 8019b50:	96ffff96 ff96ffff fffe5bff 96fffe5b     .........[..[...
 8019b60:	ff96ffff 6fff96bf 956fff95 ffe56fff     .......o..o..o..
 8019b70:	fffffabf 0000ffff                       ........

08019b78 <_ZTVN12_GLOBAL__N_125font_OSD_Charset_242_typeE>:
	...
 8019b80:	0800d711 0800d705 0800d931 0800e5ad     ........1.......

08019b90 <_ZTVN12_GLOBAL__N_125font_OSD_Charset_161_typeE>:
	...
 8019b98:	0800cf79 0800cf6d 0800dcfd 0800ec01     y...m...........

08019ba8 <_ZN12_GLOBAL__N_125font_OSD_Charset_216_type6m_dataE>:
 8019ba8:	ffffffff abffffff fe56ffff ffffabff     ..........V.....
 8019bb8:	ffffffff ffffffff ffffbfff 6ffffe6f     ............o..o
 8019bc8:	e56ffff9 ff956fff 6fffe56f fe6ffff9     ..o..o..o..o..o.
 8019bd8:	ffffbfff 0000ffff                       ........

08019be0 <_ZN12_GLOBAL__N_125font_OSD_Charset_218_type6m_dataE>:
 8019be0:	ffffffff ffffffff ffffffff ffffffff     ................
 8019bf0:	ffffffff ffffffff ffffffff ffffffff     ................
 8019c00:	aaaaaaff 55555555 aaaa5555 ffffffaa     ....UUUUUU......
 8019c10:	ffffffff 0000ffff                       ........

08019c18 <_ZTVN12_GLOBAL__N_125font_OSD_Charset_204_typeE>:
	...
 8019c20:	0800d381 0800d375 0800daf9 0800e8a5     ....u...........

08019c30 <_ZTVN12_GLOBAL__N_125font_OSD_Charset_104_typeE>:
	...
 8019c38:	0800ca21 0800ca15 0800dfa9 0800f075     !...........u...

08019c48 <_ZTVN12_GLOBAL__N_125font_OSD_Charset_193_typeE>:
	...
 8019c50:	0800d279 0800d26d 0800db7d 0800e981     y...m...}.......

08019c60 <_ZN12_GLOBAL__N_125font_OSD_Charset_184_type6m_dataE>:
 8019c60:	aafeaabf 5556aa55 95aa5695 9696aa96     ....U.VU.V......
 8019c70:	555696aa 95555695 56955556 55569555     ..VU.VU.VU.VU.VU
 8019c80:	95555695 56955556 55569555 95555695     .VU.VU.VU.VU.VU.
 8019c90:	aa955556 0000aaaa                       VU......

08019c98 <_ZTVN12_GLOBAL__N_125font_OSD_Charset_206_typeE>:
	...
 8019ca0:	0800d3b1 0800d3a5 0800dae1 0800e87d     ............}...

08019cb0 <_ZTVN12_GLOBAL__N_124font_OSD_Charset_26_typeE>:
	...
 8019cb8:	0800c2d1 0800c2c5 0800e351 0800f68d     ........Q.......

08019cc8 <_ZN12_GLOBAL__N_124font_OSD_Charset_42_type6m_dataE>:
 8019cc8:	ffffffff fffbffff 9bffe6ef 5b96ff96     ...............[
 8019cd8:	696fe5be ea55abf9 ab955556 696fea55     ..oi..U.VU..U.oi
 8019ce8:	e5be5bf9 e696ff96 fffb9bff ffffffef     .[..............
 8019cf8:	ffffffff 0000ffff                       ........

08019d00 <_ZN12_GLOBAL__N_125font_OSD_Charset_181_type6m_dataE>:
 8019d00:	aafeaabf 5556aa55 95aa5695 9696aa96     ....U.VU.V......
 8019d10:	aa9696aa 96aa9696 9696aa96 aa9696aa     ................
 8019d20:	96aa9696 9696aa96 aa9696aa 95555696     .............VU.
 8019d30:	aa955556 0000aaaa                       VU......

08019d38 <_ZN12_GLOBAL__N_124font_OSD_Charset_54_type6m_dataE>:
 8019d38:	ffffffff ffffffff ffffffff ffffffff     ................
 8019d48:	aabfffff f9556ffe 5bf9555b aa5bfeaa     .....oU.[U.[..[.
 8019d58:	f9555bfe 5be5555b aa5be5aa e5555be5     .[U.[U.[..[..[U.
 8019d68:	bff9556f 0000feaa                       oU......

08019d70 <_ZN12_GLOBAL__N_124font_OSD_Charset_14_type6m_dataE>:
 8019d70:	55aaaaaa aaaa5555 ffffffaa ffffffff     ...UUU..........
 8019d80:	ffffffff ffffffff ffffffff ffffffff     ................
 8019d90:	ffffffff ffffffff ffffffff ffffffff     ................
 8019da0:	ffffffff 0000ffff                       ........

08019da8 <_ZTVN12_GLOBAL__N_124font_OSD_Charset_58_typeE>:
	...
 8019db0:	0800c5d1 0800c5c5 0800e1d1 0800f40d     ................

08019dc0 <_ZTVN12_GLOBAL__N_125font_OSD_Charset_228_typeE>:
	...
 8019dc8:	0800d5c1 0800d5b5 0800d9d9 0800e6c5     ................

08019dd8 <_ZN12_GLOBAL__N_124font_OSD_Charset_18_type6m_dataE>:
 8019dd8:	ffffffff ffefffff f9bf9bfe 5be5be5b     ............[..[
 8019de8:	955bfa69 ff955bff bffe556f 56fff955     i.[..[..oU..U..V
 8019df8:	faa9bfe5 9bfff96f f9a6fff9 feaaaaff     ....o...........
 8019e08:	aaf95556 0000faaa                       VU......

08019e10 <_ZTVN12_GLOBAL__N_125font_OSD_Charset_147_typeE>:
	...
 8019e18:	0800ce29 0800ce1d 0800dda5 0800ed19     )...............

08019e28 <_ZTVN12_GLOBAL__N_124font_OSD_Charset_30_typeE>:
	...
 8019e30:	0800c331 0800c325 0800e321 0800f63d     1...%...!...=...

08019e40 <_ZTVN12_GLOBAL__N_125font_OSD_Charset_200_typeE>:
	...
 8019e48:	0800d321 0800d315 0800db29 0800e8f5     !.......).......

08019e58 <_ZTVN12_GLOBAL__N_125font_OSD_Charset_234_typeE>:
	...
 8019e60:	0800d651 0800d645 0800d991 0800e64d     Q...E.......M...

08019e70 <_ZN12_GLOBAL__N_125font_OSD_Charset_208_type6m_dataE>:
 8019e70:	ffe6ffff ffffe6ff e6ffffe6 ffe6ffff     ................
 8019e80:	ffffe6ff e6ffffe6 ffe6ffff ffffe6ff     ................
 8019e90:	e6ffffe6 ffe6ffff ffffe6ff e6ffffe6     ................
 8019ea0:	ffe6ffff 0000e6ff                       ........

08019ea8 <_ZTVN12_GLOBAL__N_124font_OSD_Charset_41_typeE>:
	...
 8019eb0:	0800c439 0800c42d 0800e29d 0800f561     9...-.......a...

08019ec0 <_ZN12_GLOBAL__N_125font_OSD_Charset_207_type6m_dataE>:
 8019ec0:	6ffeaabf 556ff955 fe55bff9 fffe55bf     ...oU.oU..U..U..
 8019ed0:	96ffff96 ffebffff ffffffff ffffffff     ................
 8019ee0:	ffffffff ffffffff ffffffff ffffffff     ................
 8019ef0:	ffffffff 0000ffff                       ........

08019ef8 <_ZTVN12_GLOBAL__N_125font_OSD_Charset_130_typeE>:
	...
 8019f00:	0800cc91 0800cc85 0800de71 0800ee6d     ........q...m...

08019f10 <_ZN12_GLOBAL__N_124font_OSD_Charset_70_type6m_dataE>:
 8019f10:	ffffffff aaafffff e5555bfa 5be5555b     .........[U.[U.[
 8019f20:	fe5bfaaa fffe5bff 5bffaa5b 555bfe55     ..[..[..[..[U.[U
 8019f30:	ffaa5bfe 5bfffe5b fe5bfffe fffe5bff     .[..[..[..[..[..
 8019f40:	affffe5b 0000ffff                       [.......

08019f48 <_ZN12_GLOBAL__N_124font_OSD_Charset_99_type6m_dataE>:
 8019f48:	ffffffff ffffffff ffffffff ffffffff     ................
 8019f58:	aabfffff f9556ffe 5be5555b fe5be5aa     .....oU.[U.[..[.
 8019f68:	fffe5bfa 5bfffe5b aa5bfafe e5555be5     .[..[..[..[..[U.
 8019f78:	bff9556f 0000feaa                       oU......

08019f80 <_ZN12_GLOBAL__N_125font_OSD_Charset_219_type6m_dataE>:
 8019f80:	ffffffff ffffffff aaaaaaff 55555555     ............UUUU
 8019f90:	aaaa5555 ffffffaa ffffffff ffffffff     UU..............
 8019fa0:	ffffffff ffffffff ffffffff ffffffff     ................
 8019fb0:	ffffffff 0000ffff                       ........

08019fb8 <_ZTVN12_GLOBAL__N_124font_OSD_Charset_73_typeE>:
	...
 8019fc0:	0800c739 0800c72d 0800e11d 0800f2e1     9...-...........

08019fd0 <_ZTVN12_GLOBAL__N_125font_OSD_Charset_243_typeE>:
	...
 8019fd8:	0800d729 0800d71d 0800d925 0800e599     ).......%.......

08019fe8 <_ZN12_GLOBAL__N_125font_OSD_Charset_173_type6m_dataE>:
 8019fe8:	ffffffff feaaffff fffea9ff 55fffea5     ...............U
 8019ff8:	9555ffe9 fa5555fe 5afa9555 aaaafaa9     ..U..UU.U..Z....
 801a008:	ffaaaafe abffeaaa febffffa ffffffff     ................
 801a018:	ffffffff 0000ffff                       ........

0801a020 <_ZTVN12_GLOBAL__N_125font_OSD_Charset_162_typeE>:
	...
 801a028:	0800cf91 0800cf85 0800dcf1 0800ebed     ................

0801a038 <_ZN12_GLOBAL__N_124font_OSD_Charset_96_type6m_dataE>:
 801a038:	afffffff fe5bffff fff96fff ffffe5bf     ......[..o......
 801a048:	ebffff96 ffffffff ffffffff ffffffff     ................
 801a058:	ffffffff ffffffff ffffffff ffffffff     ................
 801a068:	ffffffff 0000ffff                       ........

0801a070 <_ZN12_GLOBAL__N_124font_OSD_Charset_31_type6m_dataE>:
 801a070:	ffffffff ebffffff fe96bfff 6bfa55af     .............U.k
 801a080:	555ae955 aaaaaaa5 56955556 95569a95     U.ZU....VU.V..V.
 801a090:	9a9aa69a a6955aa6 5aa6955a aaaaaa95     .....Z..Z..Z....
 801a0a0:	ffffffff 0000ffff                       ........

0801a0a8 <_ZN12_GLOBAL__N_125font_OSD_Charset_170_type6m_dataE>:
 801a0a8:	ffffffff afffffff 95aaafaa af5555af     .............UU.
 801a0b8:	56bf5556 6a5abf55 ffaa9aff aaffaaaa     VU.VU.Zj........
 801a0c8:	feabffaa ffffabff ffffffef ffffffff     ................
 801a0d8:	ffffffff 0000ffff                       ........

0801a0e0 <_ZN12_GLOBAL__N_124font_OSD_Charset_93_type6m_dataE>:
 801a0e0:	ffffffff eabfffff ff956fff bfff956f     .........o..o...
 801a0f0:	96ffff96 ff96ffff ffff96ff 96ffff96     ................
 801a100:	ff96ffff 6fff96bf 956fff95 ffeabfff     .......o..o.....
 801a110:	ffffffff 0000ffff                       ........

0801a118 <_ZN12_GLOBAL__N_124font_OSD_Charset_22_type6m_dataE>:
 801a118:	5bfffaaf 9556ffe5 ff9696ff 96ffeb96     ...[..V.........
 801a128:	9556ff96 ffe55bff fffffaaf 56fffaab     ..V..[.........V
 801a138:	9696ffe5 ff9696ff 56ffe556 e596fff9     ........V..V....
 801a148:	ff9696ff 0000ebeb                       ........

0801a150 <_ZN12_GLOBAL__N_125font_OSD_Charset_109_type6m_dataE>:
 801a150:	ffffffff ffffffff ffffffff ffffffff     ................
 801a160:	ffafffff e5be5bfa 5be5695b 965be555     .....[..[i.[U.[.
 801a170:	e5965be5 5be5aa5b be5be5be e5be5be5     .[..[..[..[..[..
 801a180:	afe5be5b 0000faff                       [.......

0801a188 <_ZN12_GLOBAL__N_124font_OSD_Charset_30_type6m_dataE>:
 801a188:	fafffffe ffe9ffff ffffa5ff 55fffe95     ...............U
 801a198:	e955fffa ffa5aaff aafea5aa e555fae5     ..U...........U.
 801a1a8:	ffe5aafb aaffe5aa e5aaffe5 ffe5aaff     ................
 801a1b8:	aaffe5aa 0000ffea                       ........

0801a1c0 <_ZTVN12_GLOBAL__N_124font_OSD_Charset_27_typeE>:
	...
 801a1c8:	0800c2e9 0800c2dd 0800e345 0800f679     ........E...y...

0801a1d8 <_ZN12_GLOBAL__N_125font_OSD_Charset_106_type6m_dataE>:
 801a1d8:	ffffffff ffffffff ffffffff ffffffff     ................
 801a1e8:	abffffff e556fffa ffe556ff 6ffff96b     ......V..V..k..o
 801a1f8:	f96ffff9 bff96fff 696ff96e f9556ff9     ..o..o..n.oi.oU.
 801a208:	fffe55bf 0000ffaa                       .U......

0801a210 <_ZN12_GLOBAL__N_124font_OSD_Charset_79_type6m_dataE>:
 801a210:	ffffffff aaffffff fe55bfff 5bf9556f     ..........U.oU.[
 801a220:	be5be569 e5be5be5 5be5be5b be5be5be     i.[..[..[..[..[.
 801a230:	e5be5be5 5be5be5b 695be5be f9556fe5     .[..[..[..[i.oU.
 801a240:	fffe55bf 0000ffaa                       .U......

0801a248 <_ZTVN12_GLOBAL__N_124font_OSD_Charset_59_typeE>:
	...
 801a250:	0800c5e9 0800c5dd 0800e1c5 0800f3f9     ................

0801a260 <_ZTVN12_GLOBAL__N_125font_OSD_Charset_229_typeE>:
	...
 801a268:	0800d5d9 0800d5cd 0800d9cd 0800e6b1     ................

0801a278 <_ZTVN12_GLOBAL__N_125font_OSD_Charset_148_typeE>:
	...
 801a280:	0800ce41 0800ce35 0800dd99 0800ed05     A...5...........

0801a290 <_ZTVN12_GLOBAL__N_125font_OSD_Charset_156_typeE>:
	...
 801a298:	0800cf01 0800cef5 0800dd39 0800ec65     ........9...e...

0801a2a8 <_ZTVN12_GLOBAL__N_125font_OSD_Charset_155_typeE>:
	...
 801a2b0:	0800cee9 0800cedd 0800dd45 0800ec79     ........E...y...

0801a2c0 <_ZTVN12_GLOBAL__N_125font_OSD_Charset_201_typeE>:
	...
 801a2c8:	0800d339 0800d32d 0800db1d 0800e8e1     9...-...........

0801a2d8 <_ZTVN12_GLOBAL__N_125font_OSD_Charset_120_typeE>:
	...
 801a2e0:	0800cba1 0800cb95 0800dee9 0800ef35     ............5...

0801a2f0 <_ZN12_GLOBAL__N_125font_OSD_Charset_162_type6m_dataE>:
 801a2f0:	ffffffff ffffafff 6bffffaf bf5afebf     ...........k..Z.
 801a300:	96bf56aa 555abf55 ff555aff 5aff555a     .V..U.ZU.ZU.ZU.Z
 801a310:	a96aff55 ffaaabff abffaaab feabffaa     U.j.............
 801a320:	ffffffff 0000ffff                       ........

0801a328 <_ZTVN12_GLOBAL__N_124font_OSD_Charset_42_typeE>:
	...
 801a330:	0800c451 0800c445 0800e291 0800f54d     Q...E.......M...

0801a340 <_ZN12_GLOBAL__N_124font_OSD_Charset_85_type6m_dataE>:
 801a340:	ffffffff ffafffff e5be5bfa 5be5be5b     .........[..[..[
 801a350:	be5be5be e5be5be5 5be5be5b be5be5be     ..[..[..[..[..[.
 801a360:	e5be5be5 5be5be5b 695be5be f9556fe5     .[..[..[..[i.oU.
 801a370:	fffe55bf 0000ffaa                       .U......

0801a378 <_ZTVN12_GLOBAL__N_125font_OSD_Charset_131_typeE>:
	...
 801a380:	0800cca9 0800cc9d 0800de65 0800ee59     ........e...Y...

0801a390 <_ZN12_GLOBAL__N_125font_OSD_Charset_253_type6m_dataE>:
 801a390:	ffffffff ffffffff ffffffff ffffffff     ................
 801a3a0:	ffffffff efefafff a69b9a5b 99a69659     ........[...Y...
 801a3b0:	9999a699 a69a9956 99a69b99 9b99a69b     ....V...........
 801a3c0:	fb9b99a6 0000efee                       ........

0801a3c8 <_ZTVN12_GLOBAL__N_125font_OSD_Charset_184_typeE>:
	...
 801a3d0:	0800d1a1 0800d195 0800dbe9 0800ea35     ............5...

0801a3e0 <_ZN12_GLOBAL__N_125font_OSD_Charset_188_type6m_dataE>:
 801a3e0:	aaffffff fe55fffe aaaa55ff 5b555a5a     ......U..U..ZZU[
 801a3f0:	5a5b555a 5a5a5b5a 5b5a5a5b 555b5a5a     ZU[ZZ[ZZ[ZZ[ZZ[U
 801a400:	5a555b5a 5b5aaa5b fe5b5bfe 5bfe5b5b     Z[UZ[.Z[.[[.[[.[
 801a410:	5b5bfe5b 00005bfe                       [.[[.[..

0801a418 <_ZTVN12_GLOBAL__N_124font_OSD_Charset_74_typeE>:
	...
 801a420:	0800c751 0800c745 0800e111 0800f2cd     Q...E...........

0801a430 <_ZTVN12_GLOBAL__N_125font_OSD_Charset_244_typeE>:
	...
 801a438:	0800d741 0800d735 0800d919 0800e585     A...5...........

0801a448 <_ZTVN12_GLOBAL__N_125font_OSD_Charset_163_typeE>:
	...
 801a450:	0800cfa9 0800cf9d 0800dce5 0800ebd9     ................

0801a460 <_ZTVN12_GLOBAL__N_125font_OSD_Charset_186_typeE>:
	...
 801a468:	0800d1d1 0800d1c5 0800dbd1 0800ea0d     ................

0801a478 <_ZN12_GLOBAL__N_125font_OSD_Charset_157_type6m_dataE>:
 801a478:	ffffffff fffeffff ffebeaff 55ffaaa5     ...............U
 801a488:	9555ffa5 fe9555fe 55fa5555 aaaafa55     ..U..U..UU.UU...
 801a498:	eaaaaaea aaeaaaaa fffffaaa ffffffff     ................
 801a4a8:	ffffffff 0000ffff                       ........

0801a4b0 <_ZTVN12_GLOBAL__N_125font_OSD_Charset_115_typeE>:
	...
 801a4b8:	0800cb29 0800cb1d 0800df25 0800ef99     ).......%.......

0801a4c8 <_ZTVN12_GLOBAL__N_124font_OSD_Charset_28_typeE>:
	...
 801a4d0:	0800c301 0800c2f5 0800e339 0800f665     ........9...e...

0801a4e0 <_ZN12_GLOBAL__N_125font_OSD_Charset_248_type6m_dataE>:
 801a4e0:	faffffff ffa5ffff fffe55ff 55fff955     .........U..U..U
 801a4f0:	e555ffe5 ff9555ff 55ff9555 9555ff95     ..U..U..U..U..U.
 801a500:	ffe555ff 55ffe555 fe55fff9 ffffa5ff     .U..U..U..U.....
 801a510:	fffffffa 0000ffff                       ........

0801a518 <_ZTVN12_GLOBAL__N_125font_OSD_Charset_117_typeE>:
	...
 801a520:	0800cb59 0800cb4d 0800df0d 0800ef71     Y...M.......q...

0801a530 <_ZN12_GLOBAL__N_125font_OSD_Charset_154_type6m_dataE>:
 801a530:	ffffffff afffffff aa6bfffa af555abf     ..........k..ZU.
 801a540:	6aaf5556 6aaaaf55 ffaaaaaf ffffaaab     VU.jU..j........
 801a550:	abffffab ffaaffff ffffaaff ffffffea     ................
 801a560:	ffffffff 0000ffff                       ........

0801a568 <_ZN12_GLOBAL__N_124font_OSD_Charset_77_type6m_dataE>:
 801a568:	ffffffff ffafffff e5be5bfa 5be5695b     .........[..[i.[
 801a578:	555be555 e5965be5 5be5965b be5be5aa     U.[U.[..[..[..[.
 801a588:	e5be5be5 5be5be5b be5be5be e5be5be5     .[..[..[..[..[..
 801a598:	afe5be5b 0000faff                       [.......

0801a5a0 <_ZN12_GLOBAL__N_125font_OSD_Charset_245_type6m_dataE>:
 801a5a0:	ffbfffff afff6fff ae5bff6f ff5a5bff     .....o..o.[..[Z.
 801a5b0:	bfff56af f96affa5 bff965bf 6afff965     .V....j..e..e..j
 801a5c0:	a5bffff9 ff56afff 5bff5a5b 6fafffae     ......V.[Z.[...o
 801a5d0:	ff6fffff 0000afff                       ..o.....

0801a5d8 <_ZN12_GLOBAL__N_125font_OSD_Charset_151_type6m_dataE>:
 801a5d8:	ffffffff faaaffff faaa56ff 55fa5555     .........V..UU.U
 801a5e8:	9555fa95 fea5a9fe aaffa6aa aaaaffaa     ..U.............
 801a5f8:	ffeabfff ffffeaff fffffffb ffffffff     ................
 801a608:	ffffffff 0000ffff                       ........

0801a610 <_ZTVN12_GLOBAL__N_125font_OSD_Charset_149_typeE>:
	...
 801a618:	0800ce59 0800ce4d 0800dd8d 0800ecf1     Y...M...........

0801a628 <_ZN12_GLOBAL__N_124font_OSD_Charset_74_type6m_dataE>:
 801a628:	ffffffff aaffffff e555bffa ffe555bf     ..........U..U..
 801a638:	5bfffa5a fe5bfffe affe5bff 5a5bfe5b     Z..[..[..[..[.[Z
 801a648:	fe5a5bfe 5bfe5a5b 5a5bfe5a fe555bfe     .[Z.[Z.[Z.[Z.[U.
 801a658:	bfff956f 0000ffea                       o.......

0801a660 <_ZN12_GLOBAL__N_125font_OSD_Charset_242_type6m_dataE>:
 801a660:	aaffffff 5555aaaa aaaaaa55 ffffffff     ......UUU.......
 801a670:	ffffffff ffffffff ffffffff ffffffff     ................
 801a680:	ffffffff ffffffff aaaaffff 555555aa     .............UUU
 801a690:	ffaaaaaa 0000ffff                       ........

0801a698 <_ZTVN12_GLOBAL__N_125font_OSD_Charset_202_typeE>:
	...
 801a6a0:	0800d351 0800d345 0800db11 0800e8cd     Q...E...........

0801a6b0 <_ZTVN12_GLOBAL__N_125font_OSD_Charset_143_typeE>:
	...
 801a6b8:	0800cdc9 0800cdbd 0800ddd5 0800ed69     ............i...

0801a6c8 <_ZTVN12_GLOBAL__N_124font_OSD_Charset_43_typeE>:
	...
 801a6d0:	0800c469 0800c45d 0800e285 0800f539     i...].......9...

0801a6e0 <_ZTVN12_GLOBAL__N_125font_OSD_Charset_213_typeE>:
	...
 801a6e8:	0800d459 0800d44d 0800da8d 0800e7f1     Y...M...........

0801a6f8 <_ZTVN12_GLOBAL__N_125font_OSD_Charset_132_typeE>:
	...
 801a700:	0800ccc1 0800ccb5 0800de59 0800ee45     ........Y...E...

0801a710 <_ZN12_GLOBAL__N_125font_OSD_Charset_110_type6m_dataE>:
 801a710:	ffffffff ffffffff ffffffff ffffffff     ................
 801a720:	ffafffff e5be5bfa 5be5be5b a55be5b9     .....[..[..[..[.
 801a730:	e5955be5 5be5565b 6e5be55a e5be5be5     .[..[V.[Z.[n.[..
 801a740:	afe5be5b 0000faff                       [.......

0801a748 <_ZTVN12_GLOBAL__N_124font_OSD_Charset_75_typeE>:
	...
 801a750:	0800c769 0800c75d 0800e105 0800f2b9     i...]...........

0801a760 <_ZTVN12_GLOBAL__N_125font_OSD_Charset_245_typeE>:
	...
 801a768:	0800d759 0800d74d 0800d90d 0800e571     Y...M.......q...

0801a778 <_ZN12_GLOBAL__N_125font_OSD_Charset_146_type6m_dataE>:
 801a778:	ffffffff bfffbfff 56aaffaa ff5aaaff     ...........V..Z.
 801a788:	afff56aa 556bff55 bf555aff aabf555a     .V..U.kU.ZU.ZU..
 801a798:	aaaabf56 ffaaaabf ffffaabf ffffffaf     V...............
 801a7a8:	ffffffff 0000ffff                       ........

0801a7b0 <_ZN12_GLOBAL__N_124font_OSD_Charset_69_type6m_dataE>:
 801a7b0:	ffffffff aaafffff e5555bfa 5be5555b     .........[U.[U.[
 801a7c0:	fe5bfaaa fffe5bff 5bffaa5b 555bfe55     ..[..[..[..[U.[U
 801a7d0:	ffaa5bfe 5bfffe5b aa5bfffe e5555bfa     .[..[..[..[..[U.
 801a7e0:	afe5555b 0000faaa                       [U......

0801a7e8 <_ZN12_GLOBAL__N_125font_OSD_Charset_237_type6m_dataE>:
 801a7e8:	ffffffff ffffafff 9bffff5b ff9bffff     ........[.......
 801a7f8:	ffff9bff 9bffff9b ff9bffff ffff9bff     ................
 801a808:	9bffff9b ff9bffff ffff9bff 5bffff9b     ...............[
 801a818:	ffafffff 0000ffff                       ........

0801a820 <_ZN12_GLOBAL__N_125font_OSD_Charset_143_type6m_dataE>:
 801a820:	ffffffff ffffffff ffffffff ffffffff     ................
 801a830:	ffffffff ffffffff bfffffff e56ffffa     ..............o.
 801a840:	ff955bff 96ff9a9b 5556fe5a fe5a96fe     .[......Z.VU..Z.
 801a850:	ebfe5b96 0000ffaf                       .[......

0801a858 <_ZTVN12_GLOBAL__N_125font_OSD_Charset_100_typeE>:
	...
 801a860:	0800c9c1 0800c9b5 0800dfd9 0800f0c5     ................

0801a870 <_ZN12_GLOBAL__N_124font_OSD_Charset_66_type6m_dataE>:
 801a870:	ffffffff aaafffff fe555bff 5bf9555b     .........[U.[U.[
 801a880:	be5be56a e5be5be5 5be56a5b 555bf955     j.[..[..[j.[U.[U
 801a890:	e56a5bf9 5be5be5b 6a5be5be f9555be5     .[j.[..[..[j.[U.
 801a8a0:	affe555b 0000ffaa                       [U......

0801a8a8 <_ZN12_GLOBAL__N_125font_OSD_Charset_234_type6m_dataE>:
 801a8a8:	96ffebeb 9556ff96 ff9966ff abfb9aa6     ......V..f......
 801a8b8:	a55be6aa e69696e6 56fb9696 9696fb95     ..[........V....
 801a8c8:	e6abebe6 96e69696 9696fb96 ffe55bff     .............[..
 801a8d8:	bffff96f 0000fffe                       o.......

0801a8e0 <_ZTVN12_GLOBAL__N_125font_OSD_Charset_118_typeE>:
	...
 801a8e8:	0800cb71 0800cb65 0800df01 0800ef5d     q...e.......]...

0801a8f8 <_ZTVN12_GLOBAL__N_124font_OSD_Charset_29_typeE>:
	...
 801a900:	0800c319 0800c30d 0800e32d 0800f651     ........-...Q...

0801a910 <_ZTVN12_GLOBAL__N_124font_OSD_Charset_90_typeE>:
	...
 801a918:	0800c8d1 0800c8c5 0800e051 0800f18d     ........Q.......

0801a928 <_ZN12_GLOBAL__N_123font_OSD_Charset_7_type6m_dataE>:
 801a928:	ffffffff ffffffff ffffffff ffffffff     ................
 801a938:	ffffffff ffffffff ffffffff ffffffff     ................
 801a948:	ffffffff aaffffff 5555aaaa aaaaaa55     ..........UUU...
 801a958:	ffffffff 0000ffff                       ........

0801a960 <_ZN12_GLOBAL__N_123font_OSD_Charset_4_type6m_dataE>:
 801a960:	f9fffffe fff9ffff fffff9ff f9fffff9     ................
 801a970:	fff9ffff fffff9ff 95ffffe5 f955fffe     ..............U.
 801a980:	ffe56aff ffff96bf 5bfffe5b f96ffffe     .j......[..[..o.
 801a990:	f9f96ffe 0000f96f                       .o..o...

0801a998 <_ZTVN12_GLOBAL__N_125font_OSD_Charset_203_typeE>:
	...
 801a9a0:	0800d369 0800d35d 0800db05 0800e8b9     i...]...........

0801a9b0 <_ZN12_GLOBAL__N_125font_OSD_Charset_138_type6m_dataE>:
 801a9b0:	56ffabab 5996fe56 fe5996fe 96fe5996     ...VV..Y..Y..Y..
 801a9c0:	aaaafe59 f955bffe 6fe5a96f a96fe555     Y.....U.o..oU.o.
 801a9d0:	eaaaafe5 ff9696ff 96ff9696 e55bff96     ..............[.
 801a9e0:	fff96fff 0000febf                       .o......

0801a9e8 <_ZN12_GLOBAL__N_125font_OSD_Charset_200_type6m_dataE>:
 801a9e8:	ffffffff abffffff fe56ffff ffffabff     ..........V.....
 801a9f8:	ffffffff ffffffff ffffffff ffffffff     ................
 801aa08:	aaabffff ff5556ff ffffaaab ffffffff     .....VU.........
 801aa18:	ffffffff 0000ffff                       ........

0801aa20 <_ZN12_GLOBAL__N_125font_OSD_Charset_229_type6m_dataE>:
 801aa20:	ffffffff faafffff ffe55bff 96fffa96     .........[......
 801aa30:	fa96ffff 96e55beb abe6faaf e556e6fa     .....[........V.
 801aa40:	e69696e6 96e6a956 e556e696 e6faabe6     ....V.....V.....
 801aa50:	ff96ffff 0000ebff                       ........

0801aa58 <_ZN12_GLOBAL__N_123font_OSD_Charset_1_type6m_dataE>:
 801aa58:	5afeaaaa 9696fea5 fe96a6fe 6afea5aa     ...Z...........j
 801aa68:	aa5afea9 fe9556fe aaaaaaaa 96bfa956     ..Z..V......V...
 801aa78:	9696bfa5 bf9696bf 96bf9696 a596bf96     ................
 801aa88:	bfa956bf 0000aaaa                       .V......

0801aa90 <_ZN12_GLOBAL__N_125font_OSD_Charset_135_type6m_dataE>:
 801aa90:	56ffeaab 9556ff95 ffe96bff 6ffff96f     ...V..V..k..o..o
 801aaa0:	babffff9 f965bffe bff955bf 65bff965     ......e..U..e..e
 801aab0:	faaafff9 ffe55bff 9bff9a9b a55bff96     .....[........[.
 801aac0:	ff965bff 0000abaf                       .[......

0801aac8 <_ZTVN12_GLOBAL__N_125font_OSD_Charset_214_typeE>:
	...
 801aad0:	0800d471 0800d465 0800da81 0800e7dd     q...e...........

0801aae0 <_ZTVN12_GLOBAL__N_125font_OSD_Charset_133_typeE>:
	...
 801aae8:	0800ccd9 0800cccd 0800de4d 0800ee31     ........M...1...

0801aaf8 <_ZTVN12_GLOBAL__N_123font_OSD_Charset_0_typeE>:
	...
 801ab00:	0800c061 0800c055 0800e489 0800f895     a...U...........

0801ab10 <_ZN12_GLOBAL__N_125font_OSD_Charset_226_type6m_dataE>:
 801ab10:	ffffffff ebebffff ff9696ff 96ff9696     ................
 801ab20:	e55bff96 96f96feb afe6febf e55be6fa     ..[..o........[.
 801ab30:	e69696e6 56e69696 9696e695 e6ebebe6     .......V........
 801ab40:	ff96ffff 0000ebff                       ........

0801ab48 <_ZN12_GLOBAL__N_125font_OSD_Charset_132_type6m_dataE>:
 801ab48:	96ffffeb ff96ffff ffea96ff 56ff9556     ............V..V
 801ab58:	aaabff95 f9556ffe 5be5695b 556fe569     .....oU.[i.[i.oU
 801ab68:	eaaabff9 bf9695bf 55bf9655 9565bf95     ........U..U..e.
 801ab78:	ff95a5bf 0000eaaa                       ........

0801ab80 <_ZN12_GLOBAL__N_124font_OSD_Charset_49_type6m_dataE>:
 801ab80:	ffffffff ffffffff ffffffff ffffffff     ................
 801ab90:	ebffffff ff96ffff 6fff95bf 956fff95     ...........o..o.
 801aba0:	ff96bfff ffff96ff 96bfff96 f9556ffe     .............oU.
 801abb0:	bff9556f 0000feaa                       oU......

0801abb8 <_ZN12_GLOBAL__N_124font_OSD_Charset_55_type6m_dataE>:
 801abb8:	ffffffff ffffffff ffffffff ffffffff     ................
 801abc8:	aaafffff e5555bfa afe5555b 6fffe5aa     .....[U.[U.....o
 801abd8:	f95bffe5 fffe56ff 96ffff96 ff96ffff     ..[..V..........
 801abe8:	ffff96ff 0000ffeb                       ........

0801abf0 <_ZTVN12_GLOBAL__N_125font_OSD_Charset_246_typeE>:
	...
 801abf8:	0800d771 0800d765 0800d901 0800e55d     q...e.......]...

0801ac08 <_ZN12_GLOBAL__N_125font_OSD_Charset_223_type6m_dataE>:
 801ac08:	bfffe5bf e5bfffe5 ffe5aaff 55ffe555     ............U..U
 801ac18:	eaaaffe5 ffffffff ffffffff ffffffff     ................
 801ac28:	ffffffff ffffffff ffffffff ffffffff     ................
 801ac38:	ffffffff 0000ffff                       ........

0801ac40 <_ZTVN12_GLOBAL__N_125font_OSD_Charset_165_typeE>:
	...
 801ac48:	0800cfd9 0800cfcd 0800dccd 0800ebb1     ................

0801ac58 <_ZN12_GLOBAL__N_124font_OSD_Charset_58_type6m_dataE>:
 801ac58:	ffffffff ffffffff ffffffff ffffffff     ................
 801ac68:	ffffffff ffebffff ffff96ff ebffff96     ................
 801ac78:	ffffffff ffffffff 96ffffeb ff96ffff     ................
 801ac88:	ffffebff 0000ffff                       ........

0801ac90 <_ZN12_GLOBAL__N_125font_OSD_Charset_191_type6m_dataE>:
 801ac90:	ffffffff ffffffff ffffffff ffffffff     ................
 801aca0:	ffffffff ffffffff ffffffff ebffffff     ................
 801acb0:	ff96ffff bfff96ff 55bffe55 f9556ffe     ........U..U.oU.
 801acc0:	bff9556f 0000feaa                       oU......

0801acc8 <_ZTVN12_GLOBAL__N_124font_OSD_Charset_87_typeE>:
	...
 801acd0:	0800c889 0800c87d 0800e075 0800f1c9     ....}...u.......

0801ace0 <_ZTVN12_GLOBAL__N_125font_OSD_Charset_119_typeE>:
	...
 801ace8:	0800cb89 0800cb7d 0800def5 0800ef49     ....}.......I...

0801acf8 <_ZN12_GLOBAL__N_125font_OSD_Charset_127_type6m_dataE>:
 801acf8:	abffffff f99bfffe ffe59bff 9bff959b     ................
 801ad08:	559bfe55 fe559bf9 9bff959b f99bffe5     U..U..U.........
 801ad18:	fffe9bff 9bffff9b ff9bffff fffe9aff     ................
 801ad28:	aafffe56 0000fffe                       V.......

0801ad30 <_ZTVN12_GLOBAL__N_124font_OSD_Charset_91_typeE>:
	...
 801ad38:	0800c8e9 0800c8dd 0800e045 0800f179     ........E...y...

0801ad48 <_ZTVN12_GLOBAL__N_124font_OSD_Charset_16_typeE>:
	...
 801ad50:	0800c1e1 0800c1d5 0800e3c9 0800f755     ............U...

0801ad60 <_ZTVN12_GLOBAL__N_125font_OSD_Charset_180_typeE>:
	...
 801ad68:	0800d141 0800d135 0800dc19 0800ea85     A...5...........

0801ad78 <_ZN12_GLOBAL__N_125font_OSD_Charset_124_type6m_dataE>:
 801ad78:	ffffffff ebffffff ff96ffff ffff96ff     ................
 801ad88:	96ffff96 ff96ffff ffff96ff 96ffff96     ................
 801ad98:	ff96ffff ffff96ff 96ffff96 ffebffff     ................
 801ada8:	ffffffff 0000ffff                       ........

0801adb0 <_ZN12_GLOBAL__N_124font_OSD_Charset_71_type6m_dataE>:
 801adb0:	ffffffff aabfffff fe556fff 5bf9555b     .........oU.[U.[
 801adc0:	be5be569 e5be5be5 5bfafe5b 5a5bfaae     i.[..[..[..[..[Z
 801add0:	e55a5be5 5be5ae5b aa5be5be e5555be5     .[Z.[..[..[..[U.
 801ade0:	bfe5556f 0000faaa                       oU......

0801ade8 <_ZN12_GLOBAL__N_125font_OSD_Charset_215_type6m_dataE>:
 801ade8:	9affff9b ff95ffff ffffaaff ffffffff     ................
 801adf8:	ffffffff ffffffff ffffffff ffffffff     ................
 801ae08:	ffffffff ffffffff ffffffff ffffffff     ................
 801ae18:	ffffffff 0000ffff                       ........

0801ae20 <_ZN12_GLOBAL__N_124font_OSD_Charset_83_type6m_dataE>:
 801ae20:	ffffffff aaffffff f955bffe 5be5556f     ..........U.oU.[
 801ae30:	fe5be5a9 fffe5bfa 6fffa95b 55bffe55     ..[..[..[..oU..U
 801ae40:	e56afff9 afe5bfff 6a5be5bf f9555be5     ..j.......[j.[U.
 801ae50:	bffe556f 0000ffaa                       oU......

0801ae58 <_ZTVN12_GLOBAL__N_124font_OSD_Charset_45_typeE>:
	...
 801ae60:	0800c499 0800c48d 0800e26d 0800f511     ........m.......

0801ae70 <_ZTVN12_GLOBAL__N_125font_OSD_Charset_134_typeE>:
	...
 801ae78:	0800ccf1 0800cce5 0800de41 0800ee1d     ........A.......

0801ae88 <_ZTVN12_GLOBAL__N_123font_OSD_Charset_1_typeE>:
	...
 801ae90:	0800c079 0800c06d 0800e47d 0800f881     y...m...}.......

0801aea0 <_ZN12_GLOBAL__N_125font_OSD_Charset_212_type6m_dataE>:
 801aea0:	ffe6ffff ffffa6ff aaffff56 ffffffff     ........V.......
 801aeb0:	ffffffff ffffffff ffffffff ffffffff     ................
 801aec0:	ffffffff ffffffff ffffffff ffffffff     ................
 801aed0:	ffffffff 0000ffff                       ........

0801aed8 <_ZN12_GLOBAL__N_125font_OSD_Charset_180_type6m_dataE>:
 801aed8:	aafeaabf 5556aa55 96aa9695 a69a96a6     ....U.VU........
 801aee8:	96a69a96 9a96a69a a69a96a6 96a69a96     ................
 801aef8:	9aaaa69a a69a96a6 aaa69a96 96aa969a     ................
 801af08:	aa955556 0000aaaa                       VU......

0801af10 <_ZTVN12_GLOBAL__N_124font_OSD_Charset_77_typeE>:
	...
 801af18:	0800c799 0800c78d 0800e0ed 0800f291     ................

0801af28 <_ZTVN12_GLOBAL__N_125font_OSD_Charset_247_typeE>:
	...
 801af30:	0800d789 0800d77d 0800d8f5 0800e549     ....}.......I...

0801af40 <_ZTVN12_GLOBAL__N_125font_OSD_Charset_166_typeE>:
	...
 801af48:	0800cff1 0800cfe5 0800dcc1 0800eb9d     ................

0801af58 <_ZN12_GLOBAL__N_125font_OSD_Charset_119_type6m_dataE>:
 801af58:	ffffffff ffffffff ffffffff ffffffff     ................
 801af68:	ffafffff e5be5bfa 5be5be5b be5be5be     .....[..[..[..[.
 801af78:	e5aa5be5 5be5965b 555be596 f9556fe5     .[..[..[..[U.oU.
 801af88:	bff9696f 0000febe                       oi......

0801af90 <_ZTVN12_GLOBAL__N_124font_OSD_Charset_88_typeE>:
	...
 801af98:	0800c8a1 0800c895 0800e069 0800f1b5     ........i.......

0801afa8 <_ZN12_GLOBAL__N_125font_OSD_Charset_116_type6m_dataE>:
 801afa8:	ffffffff ffffffff ffffffff ffffffff     ................
 801afb8:	aaafffff e5555bfa afe5555b 96fffa96     .....[U.[U......
 801afc8:	ff96ffff ffff96ff 96ffff96 ff96ffff     ................
 801afd8:	ffff96ff 0000ffeb                       ........

0801afe0 <_ZTVN12_GLOBAL__N_124font_OSD_Charset_72_typeE>:
	...
 801afe8:	0800c721 0800c715 0800e129 0800f2f5     !.......).......

0801aff8 <_ZN12_GLOBAL__N_124font_OSD_Charset_39_type6m_dataE>:
 801aff8:	ffffffff 9bffffef fe56ffff fffe5bff     ..........V..[..
 801b008:	6ffffe6f ff9bfffe ffffefff ffffffff     o..o............
 801b018:	ffffffff ffffffff ffffffff ffffffff     ................
 801b028:	ffffffff 0000ffff                       ........

0801b030 <_ZTVN12_GLOBAL__N_124font_OSD_Charset_60_typeE>:
	...
 801b038:	0800c601 0800c5f5 0800e1b9 0800f3e5     ................

0801b048 <_ZTVN12_GLOBAL__N_125font_OSD_Charset_230_typeE>:
	...
 801b050:	0800d5f1 0800d5e5 0800d9c1 0800e69d     ................

0801b060 <_ZN12_GLOBAL__N_125font_OSD_Charset_113_type6m_dataE>:
 801b060:	ffffffff ffffffff ffffffff ffffffff     ................
 801b070:	aabfffff f9556ffe 5be5555b be5be5aa     .....oU.[U.[..[.
 801b080:	e5be5be5 5be5ae5b 5a5be55a e5555bf9     .[..[..[Z.[Z.[U.
 801b090:	bfe5956f 0000faea                       o.......

0801b098 <_ZN12_GLOBAL__N_124font_OSD_Charset_60_type6m_dataE>:
 801b098:	ffffffff ffffffff ffffffff ffffffff     ................
 801b0a8:	bfffffff f96ffffe fffe5bff e5bfff96     ......o..[......
 801b0b8:	fff96fff bffff96f 96ffffe5 fe5bffff     .o..o.........[.
 801b0c8:	fff96fff 0000febf                       .o......

0801b0d0 <_ZN12_GLOBAL__N_124font_OSD_Charset_36_type6m_dataE>:
 801b0d0:	ffffffff 96ffffeb fe96bfff 5bf9556f     ............oU.[
 801b0e0:	965be555 fa965be5 6ffe555b 96aff955     U.[..[..[U.oU...
 801b0f0:	e5965be5 6fe5555b 96bff955 ff96fffe     .[..[U.oU.......
 801b100:	ffffebff 0000ffff                       ........

0801b108 <_ZN12_GLOBAL__N_125font_OSD_Charset_204_type6m_dataE>:
 801b108:	5aabfe5b fe55fffe fffe55ff fffffeaa     [..Z..U..U......
 801b118:	ffffffff ffffffff ffffffff ffffffff     ................
 801b128:	ffffffff ffffffff ffffffff ffffffff     ................
 801b138:	ffffffff 0000ffff                       ........

0801b140 <_ZTVN12_GLOBAL__N_124font_OSD_Charset_92_typeE>:
	...
 801b148:	0800c901 0800c8f5 0800e039 0800f165     ........9...e...

0801b158 <ucExpectedStackBytes.5286>:
 801b158:	a5a5a5a5 a5a5a5a5 a5a5a5a5 a5a5a5a5     ................
 801b168:	a5a5a5a5 454c4449 00000000 51726d54     ....IDLE....TmrQ
 801b178:	00000000 20726d54 00637653              ....Tmr Svc.

0801b184 <_ZN12_GLOBAL__N_1L12gpioc_unusedE>:
 801b184:	00000000 00000001 00000003 00000004     ................
 801b194:	00000005 00000009 0000000c 0000000e     ................
 801b1a4:	0000000f                                ....

0801b1a8 <_ZN12_GLOBAL__N_1L12gpioa_unusedE>:
 801b1a8:	00000000 00000001 00000004 00000005     ................
 801b1b8:	00000008 00000009 0000000a 0000000b     ................
 801b1c8:	0000000c 0000000d 0000000e              ............

0801b1d4 <_ZN12_GLOBAL__N_1L12gpiob_unusedE>:
 801b1d4:	00000001 00000003 00000004 00000005     ................
 801b1e4:	00000006 00000007 00000008 00000009     ................
 801b1f4:	0000000a 0000000b 77617264 7361745f     ........draw_tas
 801b204:	0000006b 00000043                       k...C...

0801b20c <_global_impure_ptr>:
 801b20c:	10000028                                (...

0801b210 <_init>:
 801b210:	b5f8      	push	{r3, r4, r5, r6, r7, lr}
 801b212:	bf00      	nop
 801b214:	bcf8      	pop	{r3, r4, r5, r6, r7}
 801b216:	bc08      	pop	{r3}
 801b218:	469e      	mov	lr, r3
 801b21a:	4770      	bx	lr

0801b21c <_fini>:
 801b21c:	b5f8      	push	{r3, r4, r5, r6, r7, lr}
 801b21e:	bf00      	nop
 801b220:	bcf8      	pop	{r3, r4, r5, r6, r7}
 801b222:	bc08      	pop	{r3}
 801b224:	469e      	mov	lr, r3
 801b226:	4770      	bx	lr
