
bin/main.elf:     file format elf32-littlearm


Disassembly of section .text:

0800c000 <memcpy>:
 800c000:	4684      	mov	ip, r0
 800c002:	ea41 0300 	orr.w	r3, r1, r0
 800c006:	f013 0303 	ands.w	r3, r3, #3
 800c00a:	d16d      	bne.n	800c0e8 <memcpy+0xe8>
 800c00c:	3a40      	subs	r2, #64	; 0x40
 800c00e:	d341      	bcc.n	800c094 <memcpy+0x94>
 800c010:	f851 3b04 	ldr.w	r3, [r1], #4
 800c014:	f840 3b04 	str.w	r3, [r0], #4
 800c018:	f851 3b04 	ldr.w	r3, [r1], #4
 800c01c:	f840 3b04 	str.w	r3, [r0], #4
 800c020:	f851 3b04 	ldr.w	r3, [r1], #4
 800c024:	f840 3b04 	str.w	r3, [r0], #4
 800c028:	f851 3b04 	ldr.w	r3, [r1], #4
 800c02c:	f840 3b04 	str.w	r3, [r0], #4
 800c030:	f851 3b04 	ldr.w	r3, [r1], #4
 800c034:	f840 3b04 	str.w	r3, [r0], #4
 800c038:	f851 3b04 	ldr.w	r3, [r1], #4
 800c03c:	f840 3b04 	str.w	r3, [r0], #4
 800c040:	f851 3b04 	ldr.w	r3, [r1], #4
 800c044:	f840 3b04 	str.w	r3, [r0], #4
 800c048:	f851 3b04 	ldr.w	r3, [r1], #4
 800c04c:	f840 3b04 	str.w	r3, [r0], #4
 800c050:	f851 3b04 	ldr.w	r3, [r1], #4
 800c054:	f840 3b04 	str.w	r3, [r0], #4
 800c058:	f851 3b04 	ldr.w	r3, [r1], #4
 800c05c:	f840 3b04 	str.w	r3, [r0], #4
 800c060:	f851 3b04 	ldr.w	r3, [r1], #4
 800c064:	f840 3b04 	str.w	r3, [r0], #4
 800c068:	f851 3b04 	ldr.w	r3, [r1], #4
 800c06c:	f840 3b04 	str.w	r3, [r0], #4
 800c070:	f851 3b04 	ldr.w	r3, [r1], #4
 800c074:	f840 3b04 	str.w	r3, [r0], #4
 800c078:	f851 3b04 	ldr.w	r3, [r1], #4
 800c07c:	f840 3b04 	str.w	r3, [r0], #4
 800c080:	f851 3b04 	ldr.w	r3, [r1], #4
 800c084:	f840 3b04 	str.w	r3, [r0], #4
 800c088:	f851 3b04 	ldr.w	r3, [r1], #4
 800c08c:	f840 3b04 	str.w	r3, [r0], #4
 800c090:	3a40      	subs	r2, #64	; 0x40
 800c092:	d2bd      	bcs.n	800c010 <memcpy+0x10>
 800c094:	3230      	adds	r2, #48	; 0x30
 800c096:	d311      	bcc.n	800c0bc <memcpy+0xbc>
 800c098:	f851 3b04 	ldr.w	r3, [r1], #4
 800c09c:	f840 3b04 	str.w	r3, [r0], #4
 800c0a0:	f851 3b04 	ldr.w	r3, [r1], #4
 800c0a4:	f840 3b04 	str.w	r3, [r0], #4
 800c0a8:	f851 3b04 	ldr.w	r3, [r1], #4
 800c0ac:	f840 3b04 	str.w	r3, [r0], #4
 800c0b0:	f851 3b04 	ldr.w	r3, [r1], #4
 800c0b4:	f840 3b04 	str.w	r3, [r0], #4
 800c0b8:	3a10      	subs	r2, #16
 800c0ba:	d2ed      	bcs.n	800c098 <memcpy+0x98>
 800c0bc:	320c      	adds	r2, #12
 800c0be:	d305      	bcc.n	800c0cc <memcpy+0xcc>
 800c0c0:	f851 3b04 	ldr.w	r3, [r1], #4
 800c0c4:	f840 3b04 	str.w	r3, [r0], #4
 800c0c8:	3a04      	subs	r2, #4
 800c0ca:	d2f9      	bcs.n	800c0c0 <memcpy+0xc0>
 800c0cc:	3204      	adds	r2, #4
 800c0ce:	d008      	beq.n	800c0e2 <memcpy+0xe2>
 800c0d0:	07d2      	lsls	r2, r2, #31
 800c0d2:	bf1c      	itt	ne
 800c0d4:	f811 3b01 	ldrbne.w	r3, [r1], #1
 800c0d8:	f800 3b01 	strbne.w	r3, [r0], #1
 800c0dc:	d301      	bcc.n	800c0e2 <memcpy+0xe2>
 800c0de:	880b      	ldrh	r3, [r1, #0]
 800c0e0:	8003      	strh	r3, [r0, #0]
 800c0e2:	4660      	mov	r0, ip
 800c0e4:	4770      	bx	lr
 800c0e6:	bf00      	nop
 800c0e8:	2a08      	cmp	r2, #8
 800c0ea:	d313      	bcc.n	800c114 <memcpy+0x114>
 800c0ec:	078b      	lsls	r3, r1, #30
 800c0ee:	d08d      	beq.n	800c00c <memcpy+0xc>
 800c0f0:	f010 0303 	ands.w	r3, r0, #3
 800c0f4:	d08a      	beq.n	800c00c <memcpy+0xc>
 800c0f6:	f1c3 0304 	rsb	r3, r3, #4
 800c0fa:	1ad2      	subs	r2, r2, r3
 800c0fc:	07db      	lsls	r3, r3, #31
 800c0fe:	bf1c      	itt	ne
 800c100:	f811 3b01 	ldrbne.w	r3, [r1], #1
 800c104:	f800 3b01 	strbne.w	r3, [r0], #1
 800c108:	d380      	bcc.n	800c00c <memcpy+0xc>
 800c10a:	f831 3b02 	ldrh.w	r3, [r1], #2
 800c10e:	f820 3b02 	strh.w	r3, [r0], #2
 800c112:	e77b      	b.n	800c00c <memcpy+0xc>
 800c114:	3a04      	subs	r2, #4
 800c116:	d3d9      	bcc.n	800c0cc <memcpy+0xcc>
 800c118:	3a01      	subs	r2, #1
 800c11a:	f811 3b01 	ldrb.w	r3, [r1], #1
 800c11e:	f800 3b01 	strb.w	r3, [r0], #1
 800c122:	d2f9      	bcs.n	800c118 <memcpy+0x118>
 800c124:	780b      	ldrb	r3, [r1, #0]
 800c126:	7003      	strb	r3, [r0, #0]
 800c128:	784b      	ldrb	r3, [r1, #1]
 800c12a:	7043      	strb	r3, [r0, #1]
 800c12c:	788b      	ldrb	r3, [r1, #2]
 800c12e:	7083      	strb	r3, [r0, #2]
 800c130:	4660      	mov	r0, ip
 800c132:	4770      	bx	lr

0800c134 <main>:
 800c134:	b508      	push	{r3, lr}
 800c136:	f006 f805 	bl	8012144 <_Z9osd_setupv>
 800c13a:	f006 f963 	bl	8012404 <_Z16create_draw_taskv>
 800c13e:	f004 f8ed 	bl	801031c <vTaskStartScheduler>
 800c142:	2000      	movs	r0, #0
 800c144:	bd08      	pop	{r3, pc}
 800c146:	bf00      	nop

0800c148 <_ZN4quan3uav3osd7on_drawEv>:
 800c148:	b500      	push	{lr}
 800c14a:	2300      	movs	r3, #0
 800c14c:	b083      	sub	sp, #12
 800c14e:	f06f 023b 	mvn.w	r2, #59	; 0x3b
 800c152:	4618      	mov	r0, r3
 800c154:	e88d 000c 	stmia.w	sp, {r2, r3}
 800c158:	f002 fa28 	bl	800e5ac <_ZN4quan3uav3osd8get_fontEm>
 800c15c:	b120      	cbz	r0, 800c168 <_ZN4quan3uav3osd7on_drawEv+0x20>
 800c15e:	4602      	mov	r2, r0
 800c160:	4669      	mov	r1, sp
 800c162:	4803      	ldr	r0, [pc, #12]	; (800c170 <_ZN4quan3uav3osd7on_drawEv+0x28>)
 800c164:	f003 ff48 	bl	800fff8 <_ZN4quan3uav3osd9draw_textEPKcRKNS_5two_d4vectIlEEPKNS1_10basic_fontE>
 800c168:	b003      	add	sp, #12
 800c16a:	f85d fb04 	ldr.w	pc, [sp], #4
 800c16e:	bf00      	nop
 800c170:	080148b8 	.word	0x080148b8

0800c174 <_ZNK12_GLOBAL__N_123font_OSD_Charset_0_type8get_dataEv>:
 800c174:	4800      	ldr	r0, [pc, #0]	; (800c178 <_ZNK12_GLOBAL__N_123font_OSD_Charset_0_type8get_dataEv+0x4>)
 800c176:	4770      	bx	lr
 800c178:	08018f60 	.word	0x08018f60

0800c17c <_ZNK12_GLOBAL__N_123font_OSD_Charset_0_type8get_sizeEv>:
 800c17c:	210c      	movs	r1, #12
 800c17e:	2212      	movs	r2, #18
 800c180:	e880 0006 	stmia.w	r0, {r1, r2}
 800c184:	4770      	bx	lr
 800c186:	bf00      	nop

0800c188 <_ZNK12_GLOBAL__N_123font_OSD_Charset_1_type8get_dataEv>:
 800c188:	4800      	ldr	r0, [pc, #0]	; (800c18c <_ZNK12_GLOBAL__N_123font_OSD_Charset_1_type8get_dataEv+0x4>)
 800c18a:	4770      	bx	lr
 800c18c:	08019548 	.word	0x08019548

0800c190 <_ZNK12_GLOBAL__N_123font_OSD_Charset_1_type8get_sizeEv>:
 800c190:	210c      	movs	r1, #12
 800c192:	2212      	movs	r2, #18
 800c194:	e880 0006 	stmia.w	r0, {r1, r2}
 800c198:	4770      	bx	lr
 800c19a:	bf00      	nop

0800c19c <_ZNK12_GLOBAL__N_123font_OSD_Charset_2_type8get_dataEv>:
 800c19c:	4800      	ldr	r0, [pc, #0]	; (800c1a0 <_ZNK12_GLOBAL__N_123font_OSD_Charset_2_type8get_dataEv+0x4>)
 800c19e:	4770      	bx	lr
 800c1a0:	080165f0 	.word	0x080165f0

0800c1a4 <_ZNK12_GLOBAL__N_123font_OSD_Charset_2_type8get_sizeEv>:
 800c1a4:	210c      	movs	r1, #12
 800c1a6:	2212      	movs	r2, #18
 800c1a8:	e880 0006 	stmia.w	r0, {r1, r2}
 800c1ac:	4770      	bx	lr
 800c1ae:	bf00      	nop

0800c1b0 <_ZNK12_GLOBAL__N_123font_OSD_Charset_3_type8get_dataEv>:
 800c1b0:	4800      	ldr	r0, [pc, #0]	; (800c1b4 <_ZNK12_GLOBAL__N_123font_OSD_Charset_3_type8get_dataEv+0x4>)
 800c1b2:	4770      	bx	lr
 800c1b4:	08015458 	.word	0x08015458

0800c1b8 <_ZNK12_GLOBAL__N_123font_OSD_Charset_3_type8get_sizeEv>:
 800c1b8:	210c      	movs	r1, #12
 800c1ba:	2212      	movs	r2, #18
 800c1bc:	e880 0006 	stmia.w	r0, {r1, r2}
 800c1c0:	4770      	bx	lr
 800c1c2:	bf00      	nop

0800c1c4 <_ZNK12_GLOBAL__N_123font_OSD_Charset_4_type8get_dataEv>:
 800c1c4:	4800      	ldr	r0, [pc, #0]	; (800c1c8 <_ZNK12_GLOBAL__N_123font_OSD_Charset_4_type8get_dataEv+0x4>)
 800c1c6:	4770      	bx	lr
 800c1c8:	08019450 	.word	0x08019450

0800c1cc <_ZNK12_GLOBAL__N_123font_OSD_Charset_4_type8get_sizeEv>:
 800c1cc:	210c      	movs	r1, #12
 800c1ce:	2212      	movs	r2, #18
 800c1d0:	e880 0006 	stmia.w	r0, {r1, r2}
 800c1d4:	4770      	bx	lr
 800c1d6:	bf00      	nop

0800c1d8 <_ZNK12_GLOBAL__N_123font_OSD_Charset_5_type8get_dataEv>:
 800c1d8:	4800      	ldr	r0, [pc, #0]	; (800c1dc <_ZNK12_GLOBAL__N_123font_OSD_Charset_5_type8get_dataEv+0x4>)
 800c1da:	4770      	bx	lr
 800c1dc:	08018270 	.word	0x08018270

0800c1e0 <_ZNK12_GLOBAL__N_123font_OSD_Charset_5_type8get_sizeEv>:
 800c1e0:	210c      	movs	r1, #12
 800c1e2:	2212      	movs	r2, #18
 800c1e4:	e880 0006 	stmia.w	r0, {r1, r2}
 800c1e8:	4770      	bx	lr
 800c1ea:	bf00      	nop

0800c1ec <_ZNK12_GLOBAL__N_123font_OSD_Charset_6_type8get_dataEv>:
 800c1ec:	4800      	ldr	r0, [pc, #0]	; (800c1f0 <_ZNK12_GLOBAL__N_123font_OSD_Charset_6_type8get_dataEv+0x4>)
 800c1ee:	4770      	bx	lr
 800c1f0:	08016d00 	.word	0x08016d00

0800c1f4 <_ZNK12_GLOBAL__N_123font_OSD_Charset_6_type8get_sizeEv>:
 800c1f4:	210c      	movs	r1, #12
 800c1f6:	2212      	movs	r2, #18
 800c1f8:	e880 0006 	stmia.w	r0, {r1, r2}
 800c1fc:	4770      	bx	lr
 800c1fe:	bf00      	nop

0800c200 <_ZNK12_GLOBAL__N_123font_OSD_Charset_7_type8get_dataEv>:
 800c200:	4800      	ldr	r0, [pc, #0]	; (800c204 <_ZNK12_GLOBAL__N_123font_OSD_Charset_7_type8get_dataEv+0x4>)
 800c202:	4770      	bx	lr
 800c204:	08019418 	.word	0x08019418

0800c208 <_ZNK12_GLOBAL__N_123font_OSD_Charset_7_type8get_sizeEv>:
 800c208:	210c      	movs	r1, #12
 800c20a:	2212      	movs	r2, #18
 800c20c:	e880 0006 	stmia.w	r0, {r1, r2}
 800c210:	4770      	bx	lr
 800c212:	bf00      	nop

0800c214 <_ZNK12_GLOBAL__N_123font_OSD_Charset_8_type8get_dataEv>:
 800c214:	4800      	ldr	r0, [pc, #0]	; (800c218 <_ZNK12_GLOBAL__N_123font_OSD_Charset_8_type8get_dataEv+0x4>)
 800c216:	4770      	bx	lr
 800c218:	080181d0 	.word	0x080181d0

0800c21c <_ZNK12_GLOBAL__N_123font_OSD_Charset_8_type8get_sizeEv>:
 800c21c:	210c      	movs	r1, #12
 800c21e:	2212      	movs	r2, #18
 800c220:	e880 0006 	stmia.w	r0, {r1, r2}
 800c224:	4770      	bx	lr
 800c226:	bf00      	nop

0800c228 <_ZNK12_GLOBAL__N_123font_OSD_Charset_9_type8get_dataEv>:
 800c228:	4800      	ldr	r0, [pc, #0]	; (800c22c <_ZNK12_GLOBAL__N_123font_OSD_Charset_9_type8get_dataEv+0x4>)
 800c22a:	4770      	bx	lr
 800c22c:	08016c40 	.word	0x08016c40

0800c230 <_ZNK12_GLOBAL__N_123font_OSD_Charset_9_type8get_sizeEv>:
 800c230:	210c      	movs	r1, #12
 800c232:	2212      	movs	r2, #18
 800c234:	e880 0006 	stmia.w	r0, {r1, r2}
 800c238:	4770      	bx	lr
 800c23a:	bf00      	nop

0800c23c <_ZNK12_GLOBAL__N_124font_OSD_Charset_10_type8get_dataEv>:
 800c23c:	4800      	ldr	r0, [pc, #0]	; (800c240 <_ZNK12_GLOBAL__N_124font_OSD_Charset_10_type8get_dataEv+0x4>)
 800c23e:	4770      	bx	lr
 800c240:	08016990 	.word	0x08016990

0800c244 <_ZNK12_GLOBAL__N_124font_OSD_Charset_10_type8get_sizeEv>:
 800c244:	210c      	movs	r1, #12
 800c246:	2212      	movs	r2, #18
 800c248:	e880 0006 	stmia.w	r0, {r1, r2}
 800c24c:	4770      	bx	lr
 800c24e:	bf00      	nop

0800c250 <_ZNK12_GLOBAL__N_124font_OSD_Charset_11_type8get_dataEv>:
 800c250:	4800      	ldr	r0, [pc, #0]	; (800c254 <_ZNK12_GLOBAL__N_124font_OSD_Charset_11_type8get_dataEv+0x4>)
 800c252:	4770      	bx	lr
 800c254:	08017290 	.word	0x08017290

0800c258 <_ZNK12_GLOBAL__N_124font_OSD_Charset_11_type8get_sizeEv>:
 800c258:	210c      	movs	r1, #12
 800c25a:	2212      	movs	r2, #18
 800c25c:	e880 0006 	stmia.w	r0, {r1, r2}
 800c260:	4770      	bx	lr
 800c262:	bf00      	nop

0800c264 <_ZNK12_GLOBAL__N_124font_OSD_Charset_12_type8get_dataEv>:
 800c264:	4800      	ldr	r0, [pc, #0]	; (800c268 <_ZNK12_GLOBAL__N_124font_OSD_Charset_12_type8get_dataEv+0x4>)
 800c266:	4770      	bx	lr
 800c268:	08016cc8 	.word	0x08016cc8

0800c26c <_ZNK12_GLOBAL__N_124font_OSD_Charset_12_type8get_sizeEv>:
 800c26c:	210c      	movs	r1, #12
 800c26e:	2212      	movs	r2, #18
 800c270:	e880 0006 	stmia.w	r0, {r1, r2}
 800c274:	4770      	bx	lr
 800c276:	bf00      	nop

0800c278 <_ZNK12_GLOBAL__N_124font_OSD_Charset_13_type8get_dataEv>:
 800c278:	4800      	ldr	r0, [pc, #0]	; (800c27c <_ZNK12_GLOBAL__N_124font_OSD_Charset_13_type8get_dataEv+0x4>)
 800c27a:	4770      	bx	lr
 800c27c:	080155f0 	.word	0x080155f0

0800c280 <_ZNK12_GLOBAL__N_124font_OSD_Charset_13_type8get_sizeEv>:
 800c280:	210c      	movs	r1, #12
 800c282:	2212      	movs	r2, #18
 800c284:	e880 0006 	stmia.w	r0, {r1, r2}
 800c288:	4770      	bx	lr
 800c28a:	bf00      	nop

0800c28c <_ZNK12_GLOBAL__N_124font_OSD_Charset_14_type8get_dataEv>:
 800c28c:	4800      	ldr	r0, [pc, #0]	; (800c290 <_ZNK12_GLOBAL__N_124font_OSD_Charset_14_type8get_dataEv+0x4>)
 800c28e:	4770      	bx	lr
 800c290:	08018820 	.word	0x08018820

0800c294 <_ZNK12_GLOBAL__N_124font_OSD_Charset_14_type8get_sizeEv>:
 800c294:	210c      	movs	r1, #12
 800c296:	2212      	movs	r2, #18
 800c298:	e880 0006 	stmia.w	r0, {r1, r2}
 800c29c:	4770      	bx	lr
 800c29e:	bf00      	nop

0800c2a0 <_ZNK12_GLOBAL__N_124font_OSD_Charset_15_type8get_dataEv>:
 800c2a0:	4800      	ldr	r0, [pc, #0]	; (800c2a4 <_ZNK12_GLOBAL__N_124font_OSD_Charset_15_type8get_dataEv+0x4>)
 800c2a2:	4770      	bx	lr
 800c2a4:	08017360 	.word	0x08017360

0800c2a8 <_ZNK12_GLOBAL__N_124font_OSD_Charset_15_type8get_sizeEv>:
 800c2a8:	210c      	movs	r1, #12
 800c2aa:	2212      	movs	r2, #18
 800c2ac:	e880 0006 	stmia.w	r0, {r1, r2}
 800c2b0:	4770      	bx	lr
 800c2b2:	bf00      	nop

0800c2b4 <_ZNK12_GLOBAL__N_124font_OSD_Charset_16_type8get_dataEv>:
 800c2b4:	4800      	ldr	r0, [pc, #0]	; (800c2b8 <_ZNK12_GLOBAL__N_124font_OSD_Charset_16_type8get_dataEv+0x4>)
 800c2b6:	4770      	bx	lr
 800c2b8:	080156e0 	.word	0x080156e0

0800c2bc <_ZNK12_GLOBAL__N_124font_OSD_Charset_16_type8get_sizeEv>:
 800c2bc:	210c      	movs	r1, #12
 800c2be:	2212      	movs	r2, #18
 800c2c0:	e880 0006 	stmia.w	r0, {r1, r2}
 800c2c4:	4770      	bx	lr
 800c2c6:	bf00      	nop

0800c2c8 <_ZNK12_GLOBAL__N_124font_OSD_Charset_17_type8get_dataEv>:
 800c2c8:	4800      	ldr	r0, [pc, #0]	; (800c2cc <_ZNK12_GLOBAL__N_124font_OSD_Charset_17_type8get_dataEv+0x4>)
 800c2ca:	4770      	bx	lr
 800c2cc:	08014e28 	.word	0x08014e28

0800c2d0 <_ZNK12_GLOBAL__N_124font_OSD_Charset_17_type8get_sizeEv>:
 800c2d0:	210c      	movs	r1, #12
 800c2d2:	2212      	movs	r2, #18
 800c2d4:	e880 0006 	stmia.w	r0, {r1, r2}
 800c2d8:	4770      	bx	lr
 800c2da:	bf00      	nop

0800c2dc <_ZNK12_GLOBAL__N_124font_OSD_Charset_18_type8get_dataEv>:
 800c2dc:	4800      	ldr	r0, [pc, #0]	; (800c2e0 <_ZNK12_GLOBAL__N_124font_OSD_Charset_18_type8get_dataEv+0x4>)
 800c2de:	4770      	bx	lr
 800c2e0:	08019bf8 	.word	0x08019bf8

0800c2e4 <_ZNK12_GLOBAL__N_124font_OSD_Charset_18_type8get_sizeEv>:
 800c2e4:	210c      	movs	r1, #12
 800c2e6:	2212      	movs	r2, #18
 800c2e8:	e880 0006 	stmia.w	r0, {r1, r2}
 800c2ec:	4770      	bx	lr
 800c2ee:	bf00      	nop

0800c2f0 <_ZNK12_GLOBAL__N_124font_OSD_Charset_19_type8get_dataEv>:
 800c2f0:	4800      	ldr	r0, [pc, #0]	; (800c2f4 <_ZNK12_GLOBAL__N_124font_OSD_Charset_19_type8get_dataEv+0x4>)
 800c2f2:	4770      	bx	lr
 800c2f4:	08016090 	.word	0x08016090

0800c2f8 <_ZNK12_GLOBAL__N_124font_OSD_Charset_19_type8get_sizeEv>:
 800c2f8:	210c      	movs	r1, #12
 800c2fa:	2212      	movs	r2, #18
 800c2fc:	e880 0006 	stmia.w	r0, {r1, r2}
 800c300:	4770      	bx	lr
 800c302:	bf00      	nop

0800c304 <_ZNK12_GLOBAL__N_124font_OSD_Charset_20_type8get_dataEv>:
 800c304:	4800      	ldr	r0, [pc, #0]	; (800c308 <_ZNK12_GLOBAL__N_124font_OSD_Charset_20_type8get_dataEv+0x4>)
 800c306:	4770      	bx	lr
 800c308:	08016330 	.word	0x08016330

0800c30c <_ZNK12_GLOBAL__N_124font_OSD_Charset_20_type8get_sizeEv>:
 800c30c:	210c      	movs	r1, #12
 800c30e:	2212      	movs	r2, #18
 800c310:	e880 0006 	stmia.w	r0, {r1, r2}
 800c314:	4770      	bx	lr
 800c316:	bf00      	nop

0800c318 <_ZNK12_GLOBAL__N_124font_OSD_Charset_21_type8get_dataEv>:
 800c318:	4800      	ldr	r0, [pc, #0]	; (800c31c <_ZNK12_GLOBAL__N_124font_OSD_Charset_21_type8get_dataEv+0x4>)
 800c31a:	4770      	bx	lr
 800c31c:	08016640 	.word	0x08016640

0800c320 <_ZNK12_GLOBAL__N_124font_OSD_Charset_21_type8get_sizeEv>:
 800c320:	210c      	movs	r1, #12
 800c322:	2212      	movs	r2, #18
 800c324:	e880 0006 	stmia.w	r0, {r1, r2}
 800c328:	4770      	bx	lr
 800c32a:	bf00      	nop

0800c32c <_ZNK12_GLOBAL__N_124font_OSD_Charset_22_type8get_dataEv>:
 800c32c:	4800      	ldr	r0, [pc, #0]	; (800c330 <_ZNK12_GLOBAL__N_124font_OSD_Charset_22_type8get_dataEv+0x4>)
 800c32e:	4770      	bx	lr
 800c330:	08016f48 	.word	0x08016f48

0800c334 <_ZNK12_GLOBAL__N_124font_OSD_Charset_22_type8get_sizeEv>:
 800c334:	210c      	movs	r1, #12
 800c336:	2212      	movs	r2, #18
 800c338:	e880 0006 	stmia.w	r0, {r1, r2}
 800c33c:	4770      	bx	lr
 800c33e:	bf00      	nop

0800c340 <_ZNK12_GLOBAL__N_124font_OSD_Charset_23_type8get_dataEv>:
 800c340:	4800      	ldr	r0, [pc, #0]	; (800c344 <_ZNK12_GLOBAL__N_124font_OSD_Charset_23_type8get_dataEv+0x4>)
 800c342:	4770      	bx	lr
 800c344:	08016d38 	.word	0x08016d38

0800c348 <_ZNK12_GLOBAL__N_124font_OSD_Charset_23_type8get_sizeEv>:
 800c348:	210c      	movs	r1, #12
 800c34a:	2212      	movs	r2, #18
 800c34c:	e880 0006 	stmia.w	r0, {r1, r2}
 800c350:	4770      	bx	lr
 800c352:	bf00      	nop

0800c354 <_ZNK12_GLOBAL__N_124font_OSD_Charset_24_type8get_dataEv>:
 800c354:	4800      	ldr	r0, [pc, #0]	; (800c358 <_ZNK12_GLOBAL__N_124font_OSD_Charset_24_type8get_dataEv+0x4>)
 800c356:	4770      	bx	lr
 800c358:	08015ed0 	.word	0x08015ed0

0800c35c <_ZNK12_GLOBAL__N_124font_OSD_Charset_24_type8get_sizeEv>:
 800c35c:	210c      	movs	r1, #12
 800c35e:	2212      	movs	r2, #18
 800c360:	e880 0006 	stmia.w	r0, {r1, r2}
 800c364:	4770      	bx	lr
 800c366:	bf00      	nop

0800c368 <_ZNK12_GLOBAL__N_124font_OSD_Charset_25_type8get_dataEv>:
 800c368:	4800      	ldr	r0, [pc, #0]	; (800c36c <_ZNK12_GLOBAL__N_124font_OSD_Charset_25_type8get_dataEv+0x4>)
 800c36a:	4770      	bx	lr
 800c36c:	080185a0 	.word	0x080185a0

0800c370 <_ZNK12_GLOBAL__N_124font_OSD_Charset_25_type8get_sizeEv>:
 800c370:	210c      	movs	r1, #12
 800c372:	2212      	movs	r2, #18
 800c374:	e880 0006 	stmia.w	r0, {r1, r2}
 800c378:	4770      	bx	lr
 800c37a:	bf00      	nop

0800c37c <_ZNK12_GLOBAL__N_124font_OSD_Charset_26_type8get_dataEv>:
 800c37c:	4800      	ldr	r0, [pc, #0]	; (800c380 <_ZNK12_GLOBAL__N_124font_OSD_Charset_26_type8get_dataEv+0x4>)
 800c37e:	4770      	bx	lr
 800c380:	08017060 	.word	0x08017060

0800c384 <_ZNK12_GLOBAL__N_124font_OSD_Charset_26_type8get_sizeEv>:
 800c384:	210c      	movs	r1, #12
 800c386:	2212      	movs	r2, #18
 800c388:	e880 0006 	stmia.w	r0, {r1, r2}
 800c38c:	4770      	bx	lr
 800c38e:	bf00      	nop

0800c390 <_ZNK12_GLOBAL__N_124font_OSD_Charset_27_type8get_dataEv>:
 800c390:	4800      	ldr	r0, [pc, #0]	; (800c394 <_ZNK12_GLOBAL__N_124font_OSD_Charset_27_type8get_dataEv+0x4>)
 800c392:	4770      	bx	lr
 800c394:	08015e48 	.word	0x08015e48

0800c398 <_ZNK12_GLOBAL__N_124font_OSD_Charset_27_type8get_sizeEv>:
 800c398:	210c      	movs	r1, #12
 800c39a:	2212      	movs	r2, #18
 800c39c:	e880 0006 	stmia.w	r0, {r1, r2}
 800c3a0:	4770      	bx	lr
 800c3a2:	bf00      	nop

0800c3a4 <_ZNK12_GLOBAL__N_124font_OSD_Charset_28_type8get_dataEv>:
 800c3a4:	4800      	ldr	r0, [pc, #0]	; (800c3a8 <_ZNK12_GLOBAL__N_124font_OSD_Charset_28_type8get_dataEv+0x4>)
 800c3a6:	4770      	bx	lr
 800c3a8:	08015760 	.word	0x08015760

0800c3ac <_ZNK12_GLOBAL__N_124font_OSD_Charset_28_type8get_sizeEv>:
 800c3ac:	210c      	movs	r1, #12
 800c3ae:	2212      	movs	r2, #18
 800c3b0:	e880 0006 	stmia.w	r0, {r1, r2}
 800c3b4:	4770      	bx	lr
 800c3b6:	bf00      	nop

0800c3b8 <_ZNK12_GLOBAL__N_124font_OSD_Charset_29_type8get_dataEv>:
 800c3b8:	4800      	ldr	r0, [pc, #0]	; (800c3bc <_ZNK12_GLOBAL__N_124font_OSD_Charset_29_type8get_dataEv+0x4>)
 800c3ba:	4770      	bx	lr
 800c3bc:	08018ca0 	.word	0x08018ca0

0800c3c0 <_ZNK12_GLOBAL__N_124font_OSD_Charset_29_type8get_sizeEv>:
 800c3c0:	210c      	movs	r1, #12
 800c3c2:	2212      	movs	r2, #18
 800c3c4:	e880 0006 	stmia.w	r0, {r1, r2}
 800c3c8:	4770      	bx	lr
 800c3ca:	bf00      	nop

0800c3cc <_ZNK12_GLOBAL__N_124font_OSD_Charset_30_type8get_dataEv>:
 800c3cc:	4800      	ldr	r0, [pc, #0]	; (800c3d0 <_ZNK12_GLOBAL__N_124font_OSD_Charset_30_type8get_dataEv+0x4>)
 800c3ce:	4770      	bx	lr
 800c3d0:	08018c00 	.word	0x08018c00

0800c3d4 <_ZNK12_GLOBAL__N_124font_OSD_Charset_30_type8get_sizeEv>:
 800c3d4:	210c      	movs	r1, #12
 800c3d6:	2212      	movs	r2, #18
 800c3d8:	e880 0006 	stmia.w	r0, {r1, r2}
 800c3dc:	4770      	bx	lr
 800c3de:	bf00      	nop

0800c3e0 <_ZNK12_GLOBAL__N_124font_OSD_Charset_31_type8get_dataEv>:
 800c3e0:	4800      	ldr	r0, [pc, #0]	; (800c3e4 <_ZNK12_GLOBAL__N_124font_OSD_Charset_31_type8get_dataEv+0x4>)
 800c3e2:	4770      	bx	lr
 800c3e4:	08018ae8 	.word	0x08018ae8

0800c3e8 <_ZNK12_GLOBAL__N_124font_OSD_Charset_31_type8get_sizeEv>:
 800c3e8:	210c      	movs	r1, #12
 800c3ea:	2212      	movs	r2, #18
 800c3ec:	e880 0006 	stmia.w	r0, {r1, r2}
 800c3f0:	4770      	bx	lr
 800c3f2:	bf00      	nop

0800c3f4 <_ZNK12_GLOBAL__N_124font_OSD_Charset_32_type8get_dataEv>:
 800c3f4:	4800      	ldr	r0, [pc, #0]	; (800c3f8 <_ZNK12_GLOBAL__N_124font_OSD_Charset_32_type8get_dataEv+0x4>)
 800c3f6:	4770      	bx	lr
 800c3f8:	080187e8 	.word	0x080187e8

0800c3fc <_ZNK12_GLOBAL__N_124font_OSD_Charset_32_type8get_sizeEv>:
 800c3fc:	210c      	movs	r1, #12
 800c3fe:	2212      	movs	r2, #18
 800c400:	e880 0006 	stmia.w	r0, {r1, r2}
 800c404:	4770      	bx	lr
 800c406:	bf00      	nop

0800c408 <_ZNK12_GLOBAL__N_124font_OSD_Charset_33_type8get_dataEv>:
 800c408:	4800      	ldr	r0, [pc, #0]	; (800c40c <_ZNK12_GLOBAL__N_124font_OSD_Charset_33_type8get_dataEv+0x4>)
 800c40a:	4770      	bx	lr
 800c40c:	08016678 	.word	0x08016678

0800c410 <_ZNK12_GLOBAL__N_124font_OSD_Charset_33_type8get_sizeEv>:
 800c410:	210c      	movs	r1, #12
 800c412:	2212      	movs	r2, #18
 800c414:	e880 0006 	stmia.w	r0, {r1, r2}
 800c418:	4770      	bx	lr
 800c41a:	bf00      	nop

0800c41c <_ZNK12_GLOBAL__N_124font_OSD_Charset_34_type8get_dataEv>:
 800c41c:	4800      	ldr	r0, [pc, #0]	; (800c420 <_ZNK12_GLOBAL__N_124font_OSD_Charset_34_type8get_dataEv+0x4>)
 800c41e:	4770      	bx	lr
 800c420:	08016a30 	.word	0x08016a30

0800c424 <_ZNK12_GLOBAL__N_124font_OSD_Charset_34_type8get_sizeEv>:
 800c424:	210c      	movs	r1, #12
 800c426:	2212      	movs	r2, #18
 800c428:	e880 0006 	stmia.w	r0, {r1, r2}
 800c42c:	4770      	bx	lr
 800c42e:	bf00      	nop

0800c430 <_ZNK12_GLOBAL__N_124font_OSD_Charset_35_type8get_dataEv>:
 800c430:	4800      	ldr	r0, [pc, #0]	; (800c434 <_ZNK12_GLOBAL__N_124font_OSD_Charset_35_type8get_dataEv+0x4>)
 800c432:	4770      	bx	lr
 800c434:	08015c18 	.word	0x08015c18

0800c438 <_ZNK12_GLOBAL__N_124font_OSD_Charset_35_type8get_sizeEv>:
 800c438:	210c      	movs	r1, #12
 800c43a:	2212      	movs	r2, #18
 800c43c:	e880 0006 	stmia.w	r0, {r1, r2}
 800c440:	4770      	bx	lr
 800c442:	bf00      	nop

0800c444 <_ZNK12_GLOBAL__N_124font_OSD_Charset_36_type8get_dataEv>:
 800c444:	4800      	ldr	r0, [pc, #0]	; (800c448 <_ZNK12_GLOBAL__N_124font_OSD_Charset_36_type8get_dataEv+0x4>)
 800c446:	4770      	bx	lr
 800c448:	08019c68 	.word	0x08019c68

0800c44c <_ZNK12_GLOBAL__N_124font_OSD_Charset_36_type8get_sizeEv>:
 800c44c:	210c      	movs	r1, #12
 800c44e:	2212      	movs	r2, #18
 800c450:	e880 0006 	stmia.w	r0, {r1, r2}
 800c454:	4770      	bx	lr
 800c456:	bf00      	nop

0800c458 <_ZNK12_GLOBAL__N_124font_OSD_Charset_37_type8get_dataEv>:
 800c458:	4800      	ldr	r0, [pc, #0]	; (800c45c <_ZNK12_GLOBAL__N_124font_OSD_Charset_37_type8get_dataEv+0x4>)
 800c45a:	4770      	bx	lr
 800c45c:	08014d20 	.word	0x08014d20

0800c460 <_ZNK12_GLOBAL__N_124font_OSD_Charset_37_type8get_sizeEv>:
 800c460:	210c      	movs	r1, #12
 800c462:	2212      	movs	r2, #18
 800c464:	e880 0006 	stmia.w	r0, {r1, r2}
 800c468:	4770      	bx	lr
 800c46a:	bf00      	nop

0800c46c <_ZNK12_GLOBAL__N_124font_OSD_Charset_38_type8get_dataEv>:
 800c46c:	4800      	ldr	r0, [pc, #0]	; (800c470 <_ZNK12_GLOBAL__N_124font_OSD_Charset_38_type8get_dataEv+0x4>)
 800c46e:	4770      	bx	lr
 800c470:	08015af0 	.word	0x08015af0

0800c474 <_ZNK12_GLOBAL__N_124font_OSD_Charset_38_type8get_sizeEv>:
 800c474:	210c      	movs	r1, #12
 800c476:	2212      	movs	r2, #18
 800c478:	e880 0006 	stmia.w	r0, {r1, r2}
 800c47c:	4770      	bx	lr
 800c47e:	bf00      	nop

0800c480 <_ZNK12_GLOBAL__N_124font_OSD_Charset_39_type8get_dataEv>:
 800c480:	4800      	ldr	r0, [pc, #0]	; (800c484 <_ZNK12_GLOBAL__N_124font_OSD_Charset_39_type8get_dataEv+0x4>)
 800c482:	4770      	bx	lr
 800c484:	08019b58 	.word	0x08019b58

0800c488 <_ZNK12_GLOBAL__N_124font_OSD_Charset_39_type8get_sizeEv>:
 800c488:	210c      	movs	r1, #12
 800c48a:	2212      	movs	r2, #18
 800c48c:	e880 0006 	stmia.w	r0, {r1, r2}
 800c490:	4770      	bx	lr
 800c492:	bf00      	nop

0800c494 <_ZNK12_GLOBAL__N_124font_OSD_Charset_40_type8get_dataEv>:
 800c494:	4800      	ldr	r0, [pc, #0]	; (800c498 <_ZNK12_GLOBAL__N_124font_OSD_Charset_40_type8get_dataEv+0x4>)
 800c496:	4770      	bx	lr
 800c498:	08015b78 	.word	0x08015b78

0800c49c <_ZNK12_GLOBAL__N_124font_OSD_Charset_40_type8get_sizeEv>:
 800c49c:	210c      	movs	r1, #12
 800c49e:	2212      	movs	r2, #18
 800c4a0:	e880 0006 	stmia.w	r0, {r1, r2}
 800c4a4:	4770      	bx	lr
 800c4a6:	bf00      	nop

0800c4a8 <_ZNK12_GLOBAL__N_124font_OSD_Charset_41_type8get_dataEv>:
 800c4a8:	4800      	ldr	r0, [pc, #0]	; (800c4ac <_ZNK12_GLOBAL__N_124font_OSD_Charset_41_type8get_dataEv+0x4>)
 800c4aa:	4770      	bx	lr
 800c4ac:	08018888 	.word	0x08018888

0800c4b0 <_ZNK12_GLOBAL__N_124font_OSD_Charset_41_type8get_sizeEv>:
 800c4b0:	210c      	movs	r1, #12
 800c4b2:	2212      	movs	r2, #18
 800c4b4:	e880 0006 	stmia.w	r0, {r1, r2}
 800c4b8:	4770      	bx	lr
 800c4ba:	bf00      	nop

0800c4bc <_ZNK12_GLOBAL__N_124font_OSD_Charset_42_type8get_dataEv>:
 800c4bc:	4800      	ldr	r0, [pc, #0]	; (800c4c0 <_ZNK12_GLOBAL__N_124font_OSD_Charset_42_type8get_dataEv+0x4>)
 800c4be:	4770      	bx	lr
 800c4c0:	08018778 	.word	0x08018778

0800c4c4 <_ZNK12_GLOBAL__N_124font_OSD_Charset_42_type8get_sizeEv>:
 800c4c4:	210c      	movs	r1, #12
 800c4c6:	2212      	movs	r2, #18
 800c4c8:	e880 0006 	stmia.w	r0, {r1, r2}
 800c4cc:	4770      	bx	lr
 800c4ce:	bf00      	nop

0800c4d0 <_ZNK12_GLOBAL__N_124font_OSD_Charset_43_type8get_dataEv>:
 800c4d0:	4800      	ldr	r0, [pc, #0]	; (800c4d4 <_ZNK12_GLOBAL__N_124font_OSD_Charset_43_type8get_dataEv+0x4>)
 800c4d2:	4770      	bx	lr
 800c4d4:	08017628 	.word	0x08017628

0800c4d8 <_ZNK12_GLOBAL__N_124font_OSD_Charset_43_type8get_sizeEv>:
 800c4d8:	210c      	movs	r1, #12
 800c4da:	2212      	movs	r2, #18
 800c4dc:	e880 0006 	stmia.w	r0, {r1, r2}
 800c4e0:	4770      	bx	lr
 800c4e2:	bf00      	nop

0800c4e4 <_ZNK12_GLOBAL__N_124font_OSD_Charset_44_type8get_dataEv>:
 800c4e4:	4800      	ldr	r0, [pc, #0]	; (800c4e8 <_ZNK12_GLOBAL__N_124font_OSD_Charset_44_type8get_dataEv+0x4>)
 800c4e6:	4770      	bx	lr
 800c4e8:	08017b88 	.word	0x08017b88

0800c4ec <_ZNK12_GLOBAL__N_124font_OSD_Charset_44_type8get_sizeEv>:
 800c4ec:	210c      	movs	r1, #12
 800c4ee:	2212      	movs	r2, #18
 800c4f0:	e880 0006 	stmia.w	r0, {r1, r2}
 800c4f4:	4770      	bx	lr
 800c4f6:	bf00      	nop

0800c4f8 <_ZNK12_GLOBAL__N_124font_OSD_Charset_45_type8get_dataEv>:
 800c4f8:	4800      	ldr	r0, [pc, #0]	; (800c4fc <_ZNK12_GLOBAL__N_124font_OSD_Charset_45_type8get_dataEv+0x4>)
 800c4fa:	4770      	bx	lr
 800c4fc:	08016a68 	.word	0x08016a68

0800c500 <_ZNK12_GLOBAL__N_124font_OSD_Charset_45_type8get_sizeEv>:
 800c500:	210c      	movs	r1, #12
 800c502:	2212      	movs	r2, #18
 800c504:	e880 0006 	stmia.w	r0, {r1, r2}
 800c508:	4770      	bx	lr
 800c50a:	bf00      	nop

0800c50c <_ZNK12_GLOBAL__N_124font_OSD_Charset_46_type8get_dataEv>:
 800c50c:	4800      	ldr	r0, [pc, #0]	; (800c510 <_ZNK12_GLOBAL__N_124font_OSD_Charset_46_type8get_dataEv+0x4>)
 800c50e:	4770      	bx	lr
 800c510:	080158c0 	.word	0x080158c0

0800c514 <_ZNK12_GLOBAL__N_124font_OSD_Charset_46_type8get_sizeEv>:
 800c514:	210c      	movs	r1, #12
 800c516:	2212      	movs	r2, #18
 800c518:	e880 0006 	stmia.w	r0, {r1, r2}
 800c51c:	4770      	bx	lr
 800c51e:	bf00      	nop

0800c520 <_ZNK12_GLOBAL__N_124font_OSD_Charset_47_type8get_dataEv>:
 800c520:	4800      	ldr	r0, [pc, #0]	; (800c524 <_ZNK12_GLOBAL__N_124font_OSD_Charset_47_type8get_dataEv+0x4>)
 800c522:	4770      	bx	lr
 800c524:	080198d8 	.word	0x080198d8

0800c528 <_ZNK12_GLOBAL__N_124font_OSD_Charset_47_type8get_sizeEv>:
 800c528:	210c      	movs	r1, #12
 800c52a:	2212      	movs	r2, #18
 800c52c:	e880 0006 	stmia.w	r0, {r1, r2}
 800c530:	4770      	bx	lr
 800c532:	bf00      	nop

0800c534 <_ZNK12_GLOBAL__N_124font_OSD_Charset_48_type8get_dataEv>:
 800c534:	4800      	ldr	r0, [pc, #0]	; (800c538 <_ZNK12_GLOBAL__N_124font_OSD_Charset_48_type8get_dataEv+0x4>)
 800c536:	4770      	bx	lr
 800c538:	08015ff0 	.word	0x08015ff0

0800c53c <_ZNK12_GLOBAL__N_124font_OSD_Charset_48_type8get_sizeEv>:
 800c53c:	210c      	movs	r1, #12
 800c53e:	2212      	movs	r2, #18
 800c540:	e880 0006 	stmia.w	r0, {r1, r2}
 800c544:	4770      	bx	lr
 800c546:	bf00      	nop

0800c548 <_ZNK12_GLOBAL__N_124font_OSD_Charset_49_type8get_dataEv>:
 800c548:	4800      	ldr	r0, [pc, #0]	; (800c54c <_ZNK12_GLOBAL__N_124font_OSD_Charset_49_type8get_dataEv+0x4>)
 800c54a:	4770      	bx	lr
 800c54c:	08019670 	.word	0x08019670

0800c550 <_ZNK12_GLOBAL__N_124font_OSD_Charset_49_type8get_sizeEv>:
 800c550:	210c      	movs	r1, #12
 800c552:	2212      	movs	r2, #18
 800c554:	e880 0006 	stmia.w	r0, {r1, r2}
 800c558:	4770      	bx	lr
 800c55a:	bf00      	nop

0800c55c <_ZNK12_GLOBAL__N_124font_OSD_Charset_50_type8get_dataEv>:
 800c55c:	4800      	ldr	r0, [pc, #0]	; (800c560 <_ZNK12_GLOBAL__N_124font_OSD_Charset_50_type8get_dataEv+0x4>)
 800c55e:	4770      	bx	lr
 800c560:	08014e90 	.word	0x08014e90

0800c564 <_ZNK12_GLOBAL__N_124font_OSD_Charset_50_type8get_sizeEv>:
 800c564:	210c      	movs	r1, #12
 800c566:	2212      	movs	r2, #18
 800c568:	e880 0006 	stmia.w	r0, {r1, r2}
 800c56c:	4770      	bx	lr
 800c56e:	bf00      	nop

0800c570 <_ZNK12_GLOBAL__N_124font_OSD_Charset_51_type8get_dataEv>:
 800c570:	4800      	ldr	r0, [pc, #0]	; (800c574 <_ZNK12_GLOBAL__N_124font_OSD_Charset_51_type8get_dataEv+0x4>)
 800c572:	4770      	bx	lr
 800c574:	080179c8 	.word	0x080179c8

0800c578 <_ZNK12_GLOBAL__N_124font_OSD_Charset_51_type8get_sizeEv>:
 800c578:	210c      	movs	r1, #12
 800c57a:	2212      	movs	r2, #18
 800c57c:	e880 0006 	stmia.w	r0, {r1, r2}
 800c580:	4770      	bx	lr
 800c582:	bf00      	nop

0800c584 <_ZNK12_GLOBAL__N_124font_OSD_Charset_52_type8get_dataEv>:
 800c584:	4800      	ldr	r0, [pc, #0]	; (800c588 <_ZNK12_GLOBAL__N_124font_OSD_Charset_52_type8get_dataEv+0x4>)
 800c586:	4770      	bx	lr
 800c588:	08018168 	.word	0x08018168

0800c58c <_ZNK12_GLOBAL__N_124font_OSD_Charset_52_type8get_sizeEv>:
 800c58c:	210c      	movs	r1, #12
 800c58e:	2212      	movs	r2, #18
 800c590:	e880 0006 	stmia.w	r0, {r1, r2}
 800c594:	4770      	bx	lr
 800c596:	bf00      	nop

0800c598 <_ZNK12_GLOBAL__N_124font_OSD_Charset_53_type8get_dataEv>:
 800c598:	4800      	ldr	r0, [pc, #0]	; (800c59c <_ZNK12_GLOBAL__N_124font_OSD_Charset_53_type8get_dataEv+0x4>)
 800c59a:	4770      	bx	lr
 800c59c:	080184c8 	.word	0x080184c8

0800c5a0 <_ZNK12_GLOBAL__N_124font_OSD_Charset_53_type8get_sizeEv>:
 800c5a0:	210c      	movs	r1, #12
 800c5a2:	2212      	movs	r2, #18
 800c5a4:	e880 0006 	stmia.w	r0, {r1, r2}
 800c5a8:	4770      	bx	lr
 800c5aa:	bf00      	nop

0800c5ac <_ZNK12_GLOBAL__N_124font_OSD_Charset_54_type8get_dataEv>:
 800c5ac:	4800      	ldr	r0, [pc, #0]	; (800c5b0 <_ZNK12_GLOBAL__N_124font_OSD_Charset_54_type8get_dataEv+0x4>)
 800c5ae:	4770      	bx	lr
 800c5b0:	08015628 	.word	0x08015628

0800c5b4 <_ZNK12_GLOBAL__N_124font_OSD_Charset_54_type8get_sizeEv>:
 800c5b4:	210c      	movs	r1, #12
 800c5b6:	2212      	movs	r2, #18
 800c5b8:	e880 0006 	stmia.w	r0, {r1, r2}
 800c5bc:	4770      	bx	lr
 800c5be:	bf00      	nop

0800c5c0 <_ZNK12_GLOBAL__N_124font_OSD_Charset_55_type8get_dataEv>:
 800c5c0:	4800      	ldr	r0, [pc, #0]	; (800c5c4 <_ZNK12_GLOBAL__N_124font_OSD_Charset_55_type8get_dataEv+0x4>)
 800c5c2:	4770      	bx	lr
 800c5c4:	080196a8 	.word	0x080196a8

0800c5c8 <_ZNK12_GLOBAL__N_124font_OSD_Charset_55_type8get_sizeEv>:
 800c5c8:	210c      	movs	r1, #12
 800c5ca:	2212      	movs	r2, #18
 800c5cc:	e880 0006 	stmia.w	r0, {r1, r2}
 800c5d0:	4770      	bx	lr
 800c5d2:	bf00      	nop

0800c5d4 <_ZNK12_GLOBAL__N_124font_OSD_Charset_56_type8get_dataEv>:
 800c5d4:	4800      	ldr	r0, [pc, #0]	; (800c5d8 <_ZNK12_GLOBAL__N_124font_OSD_Charset_56_type8get_dataEv+0x4>)
 800c5d6:	4770      	bx	lr
 800c5d8:	08016700 	.word	0x08016700

0800c5dc <_ZNK12_GLOBAL__N_124font_OSD_Charset_56_type8get_sizeEv>:
 800c5dc:	210c      	movs	r1, #12
 800c5de:	2212      	movs	r2, #18
 800c5e0:	e880 0006 	stmia.w	r0, {r1, r2}
 800c5e4:	4770      	bx	lr
 800c5e6:	bf00      	nop

0800c5e8 <_ZNK12_GLOBAL__N_124font_OSD_Charset_57_type8get_dataEv>:
 800c5e8:	4800      	ldr	r0, [pc, #0]	; (800c5ec <_ZNK12_GLOBAL__N_124font_OSD_Charset_57_type8get_dataEv+0x4>)
 800c5ea:	4770      	bx	lr
 800c5ec:	08015548 	.word	0x08015548

0800c5f0 <_ZNK12_GLOBAL__N_124font_OSD_Charset_57_type8get_sizeEv>:
 800c5f0:	210c      	movs	r1, #12
 800c5f2:	2212      	movs	r2, #18
 800c5f4:	e880 0006 	stmia.w	r0, {r1, r2}
 800c5f8:	4770      	bx	lr
 800c5fa:	bf00      	nop

0800c5fc <_ZNK12_GLOBAL__N_124font_OSD_Charset_58_type8get_dataEv>:
 800c5fc:	4800      	ldr	r0, [pc, #0]	; (800c600 <_ZNK12_GLOBAL__N_124font_OSD_Charset_58_type8get_dataEv+0x4>)
 800c5fe:	4770      	bx	lr
 800c600:	08019748 	.word	0x08019748

0800c604 <_ZNK12_GLOBAL__N_124font_OSD_Charset_58_type8get_sizeEv>:
 800c604:	210c      	movs	r1, #12
 800c606:	2212      	movs	r2, #18
 800c608:	e880 0006 	stmia.w	r0, {r1, r2}
 800c60c:	4770      	bx	lr
 800c60e:	bf00      	nop

0800c610 <_ZNK12_GLOBAL__N_124font_OSD_Charset_59_type8get_dataEv>:
 800c610:	4800      	ldr	r0, [pc, #0]	; (800c614 <_ZNK12_GLOBAL__N_124font_OSD_Charset_59_type8get_dataEv+0x4>)
 800c612:	4770      	bx	lr
 800c614:	08018390 	.word	0x08018390

0800c618 <_ZNK12_GLOBAL__N_124font_OSD_Charset_59_type8get_sizeEv>:
 800c618:	210c      	movs	r1, #12
 800c61a:	2212      	movs	r2, #18
 800c61c:	e880 0006 	stmia.w	r0, {r1, r2}
 800c620:	4770      	bx	lr
 800c622:	bf00      	nop

0800c624 <_ZNK12_GLOBAL__N_124font_OSD_Charset_60_type8get_dataEv>:
 800c624:	4800      	ldr	r0, [pc, #0]	; (800c628 <_ZNK12_GLOBAL__N_124font_OSD_Charset_60_type8get_dataEv+0x4>)
 800c626:	4770      	bx	lr
 800c628:	08019c30 	.word	0x08019c30

0800c62c <_ZNK12_GLOBAL__N_124font_OSD_Charset_60_type8get_sizeEv>:
 800c62c:	210c      	movs	r1, #12
 800c62e:	2212      	movs	r2, #18
 800c630:	e880 0006 	stmia.w	r0, {r1, r2}
 800c634:	4770      	bx	lr
 800c636:	bf00      	nop

0800c638 <_ZNK12_GLOBAL__N_124font_OSD_Charset_61_type8get_dataEv>:
 800c638:	4800      	ldr	r0, [pc, #0]	; (800c63c <_ZNK12_GLOBAL__N_124font_OSD_Charset_61_type8get_dataEv+0x4>)
 800c63a:	4770      	bx	lr
 800c63c:	08018628 	.word	0x08018628

0800c640 <_ZNK12_GLOBAL__N_124font_OSD_Charset_61_type8get_sizeEv>:
 800c640:	210c      	movs	r1, #12
 800c642:	2212      	movs	r2, #18
 800c644:	e880 0006 	stmia.w	r0, {r1, r2}
 800c648:	4770      	bx	lr
 800c64a:	bf00      	nop

0800c64c <_ZNK12_GLOBAL__N_124font_OSD_Charset_62_type8get_dataEv>:
 800c64c:	4800      	ldr	r0, [pc, #0]	; (800c650 <_ZNK12_GLOBAL__N_124font_OSD_Charset_62_type8get_dataEv+0x4>)
 800c64e:	4770      	bx	lr
 800c650:	08014f68 	.word	0x08014f68

0800c654 <_ZNK12_GLOBAL__N_124font_OSD_Charset_62_type8get_sizeEv>:
 800c654:	210c      	movs	r1, #12
 800c656:	2212      	movs	r2, #18
 800c658:	e880 0006 	stmia.w	r0, {r1, r2}
 800c65c:	4770      	bx	lr
 800c65e:	bf00      	nop

0800c660 <_ZNK12_GLOBAL__N_124font_OSD_Charset_63_type8get_dataEv>:
 800c660:	4800      	ldr	r0, [pc, #0]	; (800c664 <_ZNK12_GLOBAL__N_124font_OSD_Charset_63_type8get_dataEv+0x4>)
 800c662:	4770      	bx	lr
 800c664:	08017ab8 	.word	0x08017ab8

0800c668 <_ZNK12_GLOBAL__N_124font_OSD_Charset_63_type8get_sizeEv>:
 800c668:	210c      	movs	r1, #12
 800c66a:	2212      	movs	r2, #18
 800c66c:	e880 0006 	stmia.w	r0, {r1, r2}
 800c670:	4770      	bx	lr
 800c672:	bf00      	nop

0800c674 <_ZNK12_GLOBAL__N_124font_OSD_Charset_64_type8get_dataEv>:
 800c674:	4800      	ldr	r0, [pc, #0]	; (800c678 <_ZNK12_GLOBAL__N_124font_OSD_Charset_64_type8get_dataEv+0x4>)
 800c676:	4770      	bx	lr
 800c678:	08016430 	.word	0x08016430

0800c67c <_ZNK12_GLOBAL__N_124font_OSD_Charset_64_type8get_sizeEv>:
 800c67c:	210c      	movs	r1, #12
 800c67e:	2212      	movs	r2, #18
 800c680:	e880 0006 	stmia.w	r0, {r1, r2}
 800c684:	4770      	bx	lr
 800c686:	bf00      	nop

0800c688 <_ZNK12_GLOBAL__N_124font_OSD_Charset_65_type8get_dataEv>:
 800c688:	4800      	ldr	r0, [pc, #0]	; (800c68c <_ZNK12_GLOBAL__N_124font_OSD_Charset_65_type8get_dataEv+0x4>)
 800c68a:	4770      	bx	lr
 800c68c:	080152c8 	.word	0x080152c8

0800c690 <_ZNK12_GLOBAL__N_124font_OSD_Charset_65_type8get_sizeEv>:
 800c690:	210c      	movs	r1, #12
 800c692:	2212      	movs	r2, #18
 800c694:	e880 0006 	stmia.w	r0, {r1, r2}
 800c698:	4770      	bx	lr
 800c69a:	bf00      	nop

0800c69c <_ZNK12_GLOBAL__N_124font_OSD_Charset_66_type8get_dataEv>:
 800c69c:	4800      	ldr	r0, [pc, #0]	; (800c6a0 <_ZNK12_GLOBAL__N_124font_OSD_Charset_66_type8get_dataEv+0x4>)
 800c69e:	4770      	bx	lr
 800c6a0:	08019360 	.word	0x08019360

0800c6a4 <_ZNK12_GLOBAL__N_124font_OSD_Charset_66_type8get_sizeEv>:
 800c6a4:	210c      	movs	r1, #12
 800c6a6:	2212      	movs	r2, #18
 800c6a8:	e880 0006 	stmia.w	r0, {r1, r2}
 800c6ac:	4770      	bx	lr
 800c6ae:	bf00      	nop

0800c6b0 <_ZNK12_GLOBAL__N_124font_OSD_Charset_67_type8get_dataEv>:
 800c6b0:	4800      	ldr	r0, [pc, #0]	; (800c6b4 <_ZNK12_GLOBAL__N_124font_OSD_Charset_67_type8get_dataEv+0x4>)
 800c6b2:	4770      	bx	lr
 800c6b4:	080180c8 	.word	0x080180c8

0800c6b8 <_ZNK12_GLOBAL__N_124font_OSD_Charset_67_type8get_sizeEv>:
 800c6b8:	210c      	movs	r1, #12
 800c6ba:	2212      	movs	r2, #18
 800c6bc:	e880 0006 	stmia.w	r0, {r1, r2}
 800c6c0:	4770      	bx	lr
 800c6c2:	bf00      	nop

0800c6c4 <_ZNK12_GLOBAL__N_124font_OSD_Charset_68_type8get_dataEv>:
 800c6c4:	4800      	ldr	r0, [pc, #0]	; (800c6c8 <_ZNK12_GLOBAL__N_124font_OSD_Charset_68_type8get_dataEv+0x4>)
 800c6c6:	4770      	bx	lr
 800c6c8:	08015198 	.word	0x08015198

0800c6cc <_ZNK12_GLOBAL__N_124font_OSD_Charset_68_type8get_sizeEv>:
 800c6cc:	210c      	movs	r1, #12
 800c6ce:	2212      	movs	r2, #18
 800c6d0:	e880 0006 	stmia.w	r0, {r1, r2}
 800c6d4:	4770      	bx	lr
 800c6d6:	bf00      	nop

0800c6d8 <_ZNK12_GLOBAL__N_124font_OSD_Charset_69_type8get_dataEv>:
 800c6d8:	4800      	ldr	r0, [pc, #0]	; (800c6dc <_ZNK12_GLOBAL__N_124font_OSD_Charset_69_type8get_dataEv+0x4>)
 800c6da:	4770      	bx	lr
 800c6dc:	080192b8 	.word	0x080192b8

0800c6e0 <_ZNK12_GLOBAL__N_124font_OSD_Charset_69_type8get_sizeEv>:
 800c6e0:	210c      	movs	r1, #12
 800c6e2:	2212      	movs	r2, #18
 800c6e4:	e880 0006 	stmia.w	r0, {r1, r2}
 800c6e8:	4770      	bx	lr
 800c6ea:	bf00      	nop

0800c6ec <_ZNK12_GLOBAL__N_124font_OSD_Charset_70_type8get_dataEv>:
 800c6ec:	4800      	ldr	r0, [pc, #0]	; (800c6f0 <_ZNK12_GLOBAL__N_124font_OSD_Charset_70_type8get_dataEv+0x4>)
 800c6ee:	4770      	bx	lr
 800c6f0:	08018988 	.word	0x08018988

0800c6f4 <_ZNK12_GLOBAL__N_124font_OSD_Charset_70_type8get_sizeEv>:
 800c6f4:	210c      	movs	r1, #12
 800c6f6:	2212      	movs	r2, #18
 800c6f8:	e880 0006 	stmia.w	r0, {r1, r2}
 800c6fc:	4770      	bx	lr
 800c6fe:	bf00      	nop

0800c700 <_ZNK12_GLOBAL__N_124font_OSD_Charset_71_type8get_dataEv>:
 800c700:	4800      	ldr	r0, [pc, #0]	; (800c704 <_ZNK12_GLOBAL__N_124font_OSD_Charset_71_type8get_dataEv+0x4>)
 800c702:	4770      	bx	lr
 800c704:	08018b90 	.word	0x08018b90

0800c708 <_ZNK12_GLOBAL__N_124font_OSD_Charset_71_type8get_sizeEv>:
 800c708:	210c      	movs	r1, #12
 800c70a:	2212      	movs	r2, #18
 800c70c:	e880 0006 	stmia.w	r0, {r1, r2}
 800c710:	4770      	bx	lr
 800c712:	bf00      	nop

0800c714 <_ZNK12_GLOBAL__N_124font_OSD_Charset_72_type8get_dataEv>:
 800c714:	4800      	ldr	r0, [pc, #0]	; (800c718 <_ZNK12_GLOBAL__N_124font_OSD_Charset_72_type8get_dataEv+0x4>)
 800c716:	4770      	bx	lr
 800c718:	08016200 	.word	0x08016200

0800c71c <_ZNK12_GLOBAL__N_124font_OSD_Charset_72_type8get_sizeEv>:
 800c71c:	210c      	movs	r1, #12
 800c71e:	2212      	movs	r2, #18
 800c720:	e880 0006 	stmia.w	r0, {r1, r2}
 800c724:	4770      	bx	lr
 800c726:	bf00      	nop

0800c728 <_ZNK12_GLOBAL__N_124font_OSD_Charset_73_type8get_dataEv>:
 800c728:	4800      	ldr	r0, [pc, #0]	; (800c72c <_ZNK12_GLOBAL__N_124font_OSD_Charset_73_type8get_dataEv+0x4>)
 800c72a:	4770      	bx	lr
 800c72c:	08014c48 	.word	0x08014c48

0800c730 <_ZNK12_GLOBAL__N_124font_OSD_Charset_73_type8get_sizeEv>:
 800c730:	210c      	movs	r1, #12
 800c732:	2212      	movs	r2, #18
 800c734:	e880 0006 	stmia.w	r0, {r1, r2}
 800c738:	4770      	bx	lr
 800c73a:	bf00      	nop

0800c73c <_ZNK12_GLOBAL__N_124font_OSD_Charset_74_type8get_dataEv>:
 800c73c:	4800      	ldr	r0, [pc, #0]	; (800c740 <_ZNK12_GLOBAL__N_124font_OSD_Charset_74_type8get_dataEv+0x4>)
 800c73e:	4770      	bx	lr
 800c740:	08015010 	.word	0x08015010

0800c744 <_ZNK12_GLOBAL__N_124font_OSD_Charset_74_type8get_sizeEv>:
 800c744:	210c      	movs	r1, #12
 800c746:	2212      	movs	r2, #18
 800c748:	e880 0006 	stmia.w	r0, {r1, r2}
 800c74c:	4770      	bx	lr
 800c74e:	bf00      	nop

0800c750 <_ZNK12_GLOBAL__N_124font_OSD_Charset_75_type8get_dataEv>:
 800c750:	4800      	ldr	r0, [pc, #0]	; (800c754 <_ZNK12_GLOBAL__N_124font_OSD_Charset_75_type8get_dataEv+0x4>)
 800c752:	4770      	bx	lr
 800c754:	08016148 	.word	0x08016148

0800c758 <_ZNK12_GLOBAL__N_124font_OSD_Charset_75_type8get_sizeEv>:
 800c758:	210c      	movs	r1, #12
 800c75a:	2212      	movs	r2, #18
 800c75c:	e880 0006 	stmia.w	r0, {r1, r2}
 800c760:	4770      	bx	lr
 800c762:	bf00      	nop

0800c764 <_ZNK12_GLOBAL__N_124font_OSD_Charset_76_type8get_dataEv>:
 800c764:	4800      	ldr	r0, [pc, #0]	; (800c768 <_ZNK12_GLOBAL__N_124font_OSD_Charset_76_type8get_dataEv+0x4>)
 800c766:	4770      	bx	lr
 800c768:	08014f30 	.word	0x08014f30

0800c76c <_ZNK12_GLOBAL__N_124font_OSD_Charset_76_type8get_sizeEv>:
 800c76c:	210c      	movs	r1, #12
 800c76e:	2212      	movs	r2, #18
 800c770:	e880 0006 	stmia.w	r0, {r1, r2}
 800c774:	4770      	bx	lr
 800c776:	bf00      	nop

0800c778 <_ZNK12_GLOBAL__N_124font_OSD_Charset_77_type8get_dataEv>:
 800c778:	4800      	ldr	r0, [pc, #0]	; (800c77c <_ZNK12_GLOBAL__N_124font_OSD_Charset_77_type8get_dataEv+0x4>)
 800c77a:	4770      	bx	lr
 800c77c:	080190a8 	.word	0x080190a8

0800c780 <_ZNK12_GLOBAL__N_124font_OSD_Charset_77_type8get_sizeEv>:
 800c780:	210c      	movs	r1, #12
 800c782:	2212      	movs	r2, #18
 800c784:	e880 0006 	stmia.w	r0, {r1, r2}
 800c788:	4770      	bx	lr
 800c78a:	bf00      	nop

0800c78c <_ZNK12_GLOBAL__N_124font_OSD_Charset_78_type8get_dataEv>:
 800c78c:	4800      	ldr	r0, [pc, #0]	; (800c790 <_ZNK12_GLOBAL__N_124font_OSD_Charset_78_type8get_dataEv+0x4>)
 800c78e:	4770      	bx	lr
 800c790:	08017990 	.word	0x08017990

0800c794 <_ZNK12_GLOBAL__N_124font_OSD_Charset_78_type8get_sizeEv>:
 800c794:	210c      	movs	r1, #12
 800c796:	2212      	movs	r2, #18
 800c798:	e880 0006 	stmia.w	r0, {r1, r2}
 800c79c:	4770      	bx	lr
 800c79e:	bf00      	nop

0800c7a0 <_ZNK12_GLOBAL__N_124font_OSD_Charset_79_type8get_dataEv>:
 800c7a0:	4800      	ldr	r0, [pc, #0]	; (800c7a4 <_ZNK12_GLOBAL__N_124font_OSD_Charset_79_type8get_dataEv+0x4>)
 800c7a2:	4770      	bx	lr
 800c7a4:	08018cd8 	.word	0x08018cd8

0800c7a8 <_ZNK12_GLOBAL__N_124font_OSD_Charset_79_type8get_sizeEv>:
 800c7a8:	210c      	movs	r1, #12
 800c7aa:	2212      	movs	r2, #18
 800c7ac:	e880 0006 	stmia.w	r0, {r1, r2}
 800c7b0:	4770      	bx	lr
 800c7b2:	bf00      	nop

0800c7b4 <_ZNK12_GLOBAL__N_124font_OSD_Charset_80_type8get_dataEv>:
 800c7b4:	4800      	ldr	r0, [pc, #0]	; (800c7b8 <_ZNK12_GLOBAL__N_124font_OSD_Charset_80_type8get_dataEv+0x4>)
 800c7b6:	4770      	bx	lr
 800c7b8:	08016040 	.word	0x08016040

0800c7bc <_ZNK12_GLOBAL__N_124font_OSD_Charset_80_type8get_sizeEv>:
 800c7bc:	210c      	movs	r1, #12
 800c7be:	2212      	movs	r2, #18
 800c7c0:	e880 0006 	stmia.w	r0, {r1, r2}
 800c7c4:	4770      	bx	lr
 800c7c6:	bf00      	nop

0800c7c8 <_ZNK12_GLOBAL__N_124font_OSD_Charset_81_type8get_dataEv>:
 800c7c8:	4800      	ldr	r0, [pc, #0]	; (800c7cc <_ZNK12_GLOBAL__N_124font_OSD_Charset_81_type8get_dataEv+0x4>)
 800c7ca:	4770      	bx	lr
 800c7cc:	08014dc0 	.word	0x08014dc0

0800c7d0 <_ZNK12_GLOBAL__N_124font_OSD_Charset_81_type8get_sizeEv>:
 800c7d0:	210c      	movs	r1, #12
 800c7d2:	2212      	movs	r2, #18
 800c7d4:	e880 0006 	stmia.w	r0, {r1, r2}
 800c7d8:	4770      	bx	lr
 800c7da:	bf00      	nop

0800c7dc <_ZNK12_GLOBAL__N_124font_OSD_Charset_82_type8get_dataEv>:
 800c7dc:	4800      	ldr	r0, [pc, #0]	; (800c7e0 <_ZNK12_GLOBAL__N_124font_OSD_Charset_82_type8get_dataEv+0x4>)
 800c7de:	4770      	bx	lr
 800c7e0:	080171d0 	.word	0x080171d0

0800c7e4 <_ZNK12_GLOBAL__N_124font_OSD_Charset_82_type8get_sizeEv>:
 800c7e4:	210c      	movs	r1, #12
 800c7e6:	2212      	movs	r2, #18
 800c7e8:	e880 0006 	stmia.w	r0, {r1, r2}
 800c7ec:	4770      	bx	lr
 800c7ee:	bf00      	nop

0800c7f0 <_ZNK12_GLOBAL__N_124font_OSD_Charset_83_type8get_dataEv>:
 800c7f0:	4800      	ldr	r0, [pc, #0]	; (800c7f4 <_ZNK12_GLOBAL__N_124font_OSD_Charset_83_type8get_dataEv+0x4>)
 800c7f2:	4770      	bx	lr
 800c7f4:	08019960 	.word	0x08019960

0800c7f8 <_ZNK12_GLOBAL__N_124font_OSD_Charset_83_type8get_sizeEv>:
 800c7f8:	210c      	movs	r1, #12
 800c7fa:	2212      	movs	r2, #18
 800c7fc:	e880 0006 	stmia.w	r0, {r1, r2}
 800c800:	4770      	bx	lr
 800c802:	bf00      	nop

0800c804 <_ZNK12_GLOBAL__N_124font_OSD_Charset_84_type8get_dataEv>:
 800c804:	4800      	ldr	r0, [pc, #0]	; (800c808 <_ZNK12_GLOBAL__N_124font_OSD_Charset_84_type8get_dataEv+0x4>)
 800c806:	4770      	bx	lr
 800c808:	08014ce8 	.word	0x08014ce8

0800c80c <_ZNK12_GLOBAL__N_124font_OSD_Charset_84_type8get_sizeEv>:
 800c80c:	210c      	movs	r1, #12
 800c80e:	2212      	movs	r2, #18
 800c810:	e880 0006 	stmia.w	r0, {r1, r2}
 800c814:	4770      	bx	lr
 800c816:	bf00      	nop

0800c818 <_ZNK12_GLOBAL__N_124font_OSD_Charset_85_type8get_dataEv>:
 800c818:	4800      	ldr	r0, [pc, #0]	; (800c81c <_ZNK12_GLOBAL__N_124font_OSD_Charset_85_type8get_dataEv+0x4>)
 800c81a:	4770      	bx	lr
 800c81c:	08018e28 	.word	0x08018e28

0800c820 <_ZNK12_GLOBAL__N_124font_OSD_Charset_85_type8get_sizeEv>:
 800c820:	210c      	movs	r1, #12
 800c822:	2212      	movs	r2, #18
 800c824:	e880 0006 	stmia.w	r0, {r1, r2}
 800c828:	4770      	bx	lr
 800c82a:	bf00      	nop

0800c82c <_ZNK12_GLOBAL__N_124font_OSD_Charset_86_type8get_dataEv>:
 800c82c:	4800      	ldr	r0, [pc, #0]	; (800c830 <_ZNK12_GLOBAL__N_124font_OSD_Charset_86_type8get_dataEv+0x4>)
 800c82e:	4770      	bx	lr
 800c830:	080177c0 	.word	0x080177c0

0800c834 <_ZNK12_GLOBAL__N_124font_OSD_Charset_86_type8get_sizeEv>:
 800c834:	210c      	movs	r1, #12
 800c836:	2212      	movs	r2, #18
 800c838:	e880 0006 	stmia.w	r0, {r1, r2}
 800c83c:	4770      	bx	lr
 800c83e:	bf00      	nop

0800c840 <_ZNK12_GLOBAL__N_124font_OSD_Charset_87_type8get_dataEv>:
 800c840:	4800      	ldr	r0, [pc, #0]	; (800c844 <_ZNK12_GLOBAL__N_124font_OSD_Charset_87_type8get_dataEv+0x4>)
 800c842:	4770      	bx	lr
 800c844:	08014bc0 	.word	0x08014bc0

0800c848 <_ZNK12_GLOBAL__N_124font_OSD_Charset_87_type8get_sizeEv>:
 800c848:	210c      	movs	r1, #12
 800c84a:	2212      	movs	r2, #18
 800c84c:	e880 0006 	stmia.w	r0, {r1, r2}
 800c850:	4770      	bx	lr
 800c852:	bf00      	nop

0800c854 <_ZNK12_GLOBAL__N_124font_OSD_Charset_88_type8get_dataEv>:
 800c854:	4800      	ldr	r0, [pc, #0]	; (800c858 <_ZNK12_GLOBAL__N_124font_OSD_Charset_88_type8get_dataEv+0x4>)
 800c856:	4770      	bx	lr
 800c858:	08018da0 	.word	0x08018da0

0800c85c <_ZNK12_GLOBAL__N_124font_OSD_Charset_88_type8get_sizeEv>:
 800c85c:	210c      	movs	r1, #12
 800c85e:	2212      	movs	r2, #18
 800c860:	e880 0006 	stmia.w	r0, {r1, r2}
 800c864:	4770      	bx	lr
 800c866:	bf00      	nop

0800c868 <_ZNK12_GLOBAL__N_124font_OSD_Charset_89_type8get_dataEv>:
 800c868:	4800      	ldr	r0, [pc, #0]	; (800c86c <_ZNK12_GLOBAL__N_124font_OSD_Charset_89_type8get_dataEv+0x4>)
 800c86a:	4770      	bx	lr
 800c86c:	08017708 	.word	0x08017708

0800c870 <_ZNK12_GLOBAL__N_124font_OSD_Charset_89_type8get_sizeEv>:
 800c870:	210c      	movs	r1, #12
 800c872:	2212      	movs	r2, #18
 800c874:	e880 0006 	stmia.w	r0, {r1, r2}
 800c878:	4770      	bx	lr
 800c87a:	bf00      	nop

0800c87c <_ZNK12_GLOBAL__N_124font_OSD_Charset_90_type8get_dataEv>:
 800c87c:	4800      	ldr	r0, [pc, #0]	; (800c880 <_ZNK12_GLOBAL__N_124font_OSD_Charset_90_type8get_dataEv+0x4>)
 800c87e:	4770      	bx	lr
 800c880:	08016f10 	.word	0x08016f10

0800c884 <_ZNK12_GLOBAL__N_124font_OSD_Charset_90_type8get_sizeEv>:
 800c884:	210c      	movs	r1, #12
 800c886:	2212      	movs	r2, #18
 800c888:	e880 0006 	stmia.w	r0, {r1, r2}
 800c88c:	4770      	bx	lr
 800c88e:	bf00      	nop

0800c890 <_ZNK12_GLOBAL__N_124font_OSD_Charset_91_type8get_dataEv>:
 800c890:	4800      	ldr	r0, [pc, #0]	; (800c894 <_ZNK12_GLOBAL__N_124font_OSD_Charset_91_type8get_dataEv+0x4>)
 800c892:	4770      	bx	lr
 800c894:	08015d68 	.word	0x08015d68

0800c898 <_ZNK12_GLOBAL__N_124font_OSD_Charset_91_type8get_sizeEv>:
 800c898:	210c      	movs	r1, #12
 800c89a:	2212      	movs	r2, #18
 800c89c:	e880 0006 	stmia.w	r0, {r1, r2}
 800c8a0:	4770      	bx	lr
 800c8a2:	bf00      	nop

0800c8a4 <_ZNK12_GLOBAL__N_124font_OSD_Charset_92_type8get_dataEv>:
 800c8a4:	4800      	ldr	r0, [pc, #0]	; (800c8a8 <_ZNK12_GLOBAL__N_124font_OSD_Charset_92_type8get_dataEv+0x4>)
 800c8a6:	4770      	bx	lr
 800c8a8:	080149a0 	.word	0x080149a0

0800c8ac <_ZNK12_GLOBAL__N_124font_OSD_Charset_92_type8get_sizeEv>:
 800c8ac:	210c      	movs	r1, #12
 800c8ae:	2212      	movs	r2, #18
 800c8b0:	e880 0006 	stmia.w	r0, {r1, r2}
 800c8b4:	4770      	bx	lr
 800c8b6:	bf00      	nop

0800c8b8 <_ZNK12_GLOBAL__N_124font_OSD_Charset_93_type8get_dataEv>:
 800c8b8:	4800      	ldr	r0, [pc, #0]	; (800c8bc <_ZNK12_GLOBAL__N_124font_OSD_Charset_93_type8get_dataEv+0x4>)
 800c8ba:	4770      	bx	lr
 800c8bc:	08018b58 	.word	0x08018b58

0800c8c0 <_ZNK12_GLOBAL__N_124font_OSD_Charset_93_type8get_sizeEv>:
 800c8c0:	210c      	movs	r1, #12
 800c8c2:	2212      	movs	r2, #18
 800c8c4:	e880 0006 	stmia.w	r0, {r1, r2}
 800c8c8:	4770      	bx	lr
 800c8ca:	bf00      	nop

0800c8cc <_ZNK12_GLOBAL__N_124font_OSD_Charset_94_type8get_dataEv>:
 800c8cc:	4800      	ldr	r0, [pc, #0]	; (800c8d0 <_ZNK12_GLOBAL__N_124font_OSD_Charset_94_type8get_dataEv+0x4>)
 800c8ce:	4770      	bx	lr
 800c8d0:	08015cd0 	.word	0x08015cd0

0800c8d4 <_ZNK12_GLOBAL__N_124font_OSD_Charset_94_type8get_sizeEv>:
 800c8d4:	210c      	movs	r1, #12
 800c8d6:	2212      	movs	r2, #18
 800c8d8:	e880 0006 	stmia.w	r0, {r1, r2}
 800c8dc:	4770      	bx	lr
 800c8de:	bf00      	nop

0800c8e0 <_ZNK12_GLOBAL__N_124font_OSD_Charset_95_type8get_dataEv>:
 800c8e0:	4800      	ldr	r0, [pc, #0]	; (800c8e4 <_ZNK12_GLOBAL__N_124font_OSD_Charset_95_type8get_dataEv+0x4>)
 800c8e2:	4770      	bx	lr
 800c8e4:	08014950 	.word	0x08014950

0800c8e8 <_ZNK12_GLOBAL__N_124font_OSD_Charset_95_type8get_sizeEv>:
 800c8e8:	210c      	movs	r1, #12
 800c8ea:	2212      	movs	r2, #18
 800c8ec:	e880 0006 	stmia.w	r0, {r1, r2}
 800c8f0:	4770      	bx	lr
 800c8f2:	bf00      	nop

0800c8f4 <_ZNK12_GLOBAL__N_124font_OSD_Charset_96_type8get_dataEv>:
 800c8f4:	4800      	ldr	r0, [pc, #0]	; (800c8f8 <_ZNK12_GLOBAL__N_124font_OSD_Charset_96_type8get_dataEv+0x4>)
 800c8f6:	4770      	bx	lr
 800c8f8:	08018ab0 	.word	0x08018ab0

0800c8fc <_ZNK12_GLOBAL__N_124font_OSD_Charset_96_type8get_sizeEv>:
 800c8fc:	210c      	movs	r1, #12
 800c8fe:	2212      	movs	r2, #18
 800c900:	e880 0006 	stmia.w	r0, {r1, r2}
 800c904:	4770      	bx	lr
 800c906:	bf00      	nop

0800c908 <_ZNK12_GLOBAL__N_124font_OSD_Charset_97_type8get_dataEv>:
 800c908:	4800      	ldr	r0, [pc, #0]	; (800c90c <_ZNK12_GLOBAL__N_124font_OSD_Charset_97_type8get_dataEv+0x4>)
 800c90a:	4770      	bx	lr
 800c90c:	08017508 	.word	0x08017508

0800c910 <_ZNK12_GLOBAL__N_124font_OSD_Charset_97_type8get_sizeEv>:
 800c910:	210c      	movs	r1, #12
 800c912:	2212      	movs	r2, #18
 800c914:	e880 0006 	stmia.w	r0, {r1, r2}
 800c918:	4770      	bx	lr
 800c91a:	bf00      	nop

0800c91c <_ZNK12_GLOBAL__N_124font_OSD_Charset_98_type8get_dataEv>:
 800c91c:	4800      	ldr	r0, [pc, #0]	; (800c920 <_ZNK12_GLOBAL__N_124font_OSD_Charset_98_type8get_dataEv+0x4>)
 800c91e:	4770      	bx	lr
 800c920:	080162c0 	.word	0x080162c0

0800c924 <_ZNK12_GLOBAL__N_124font_OSD_Charset_98_type8get_sizeEv>:
 800c924:	210c      	movs	r1, #12
 800c926:	2212      	movs	r2, #18
 800c928:	e880 0006 	stmia.w	r0, {r1, r2}
 800c92c:	4770      	bx	lr
 800c92e:	bf00      	nop

0800c930 <_ZNK12_GLOBAL__N_124font_OSD_Charset_99_type8get_dataEv>:
 800c930:	4800      	ldr	r0, [pc, #0]	; (800c934 <_ZNK12_GLOBAL__N_124font_OSD_Charset_99_type8get_dataEv+0x4>)
 800c932:	4770      	bx	lr
 800c934:	080189c0 	.word	0x080189c0

0800c938 <_ZNK12_GLOBAL__N_124font_OSD_Charset_99_type8get_sizeEv>:
 800c938:	210c      	movs	r1, #12
 800c93a:	2212      	movs	r2, #18
 800c93c:	e880 0006 	stmia.w	r0, {r1, r2}
 800c940:	4770      	bx	lr
 800c942:	bf00      	nop

0800c944 <_ZNK12_GLOBAL__N_125font_OSD_Charset_100_type8get_dataEv>:
 800c944:	4800      	ldr	r0, [pc, #0]	; (800c948 <_ZNK12_GLOBAL__N_125font_OSD_Charset_100_type8get_dataEv+0x4>)
 800c946:	4770      	bx	lr
 800c948:	080170e8 	.word	0x080170e8

0800c94c <_ZNK12_GLOBAL__N_125font_OSD_Charset_100_type8get_sizeEv>:
 800c94c:	210c      	movs	r1, #12
 800c94e:	2212      	movs	r2, #18
 800c950:	e880 0006 	stmia.w	r0, {r1, r2}
 800c954:	4770      	bx	lr
 800c956:	bf00      	nop

0800c958 <_ZNK12_GLOBAL__N_125font_OSD_Charset_101_type8get_dataEv>:
 800c958:	4800      	ldr	r0, [pc, #0]	; (800c95c <_ZNK12_GLOBAL__N_125font_OSD_Charset_101_type8get_dataEv+0x4>)
 800c95a:	4770      	bx	lr
 800c95c:	08015e98 	.word	0x08015e98

0800c960 <_ZNK12_GLOBAL__N_125font_OSD_Charset_101_type8get_sizeEv>:
 800c960:	210c      	movs	r1, #12
 800c962:	2212      	movs	r2, #18
 800c964:	e880 0006 	stmia.w	r0, {r1, r2}
 800c968:	4770      	bx	lr
 800c96a:	bf00      	nop

0800c96c <_ZNK12_GLOBAL__N_125font_OSD_Charset_102_type8get_dataEv>:
 800c96c:	4800      	ldr	r0, [pc, #0]	; (800c970 <_ZNK12_GLOBAL__N_125font_OSD_Charset_102_type8get_dataEv+0x4>)
 800c96e:	4770      	bx	lr
 800c970:	08018568 	.word	0x08018568

0800c974 <_ZNK12_GLOBAL__N_125font_OSD_Charset_102_type8get_sizeEv>:
 800c974:	210c      	movs	r1, #12
 800c976:	2212      	movs	r2, #18
 800c978:	e880 0006 	stmia.w	r0, {r1, r2}
 800c97c:	4770      	bx	lr
 800c97e:	bf00      	nop

0800c980 <_ZNK12_GLOBAL__N_125font_OSD_Charset_103_type8get_dataEv>:
 800c980:	4800      	ldr	r0, [pc, #0]	; (800c984 <_ZNK12_GLOBAL__N_125font_OSD_Charset_103_type8get_dataEv+0x4>)
 800c982:	4770      	bx	lr
 800c984:	08016fe8 	.word	0x08016fe8

0800c988 <_ZNK12_GLOBAL__N_125font_OSD_Charset_103_type8get_sizeEv>:
 800c988:	210c      	movs	r1, #12
 800c98a:	2212      	movs	r2, #18
 800c98c:	e880 0006 	stmia.w	r0, {r1, r2}
 800c990:	4770      	bx	lr
 800c992:	bf00      	nop

0800c994 <_ZNK12_GLOBAL__N_125font_OSD_Charset_104_type8get_dataEv>:
 800c994:	4800      	ldr	r0, [pc, #0]	; (800c998 <_ZNK12_GLOBAL__N_125font_OSD_Charset_104_type8get_dataEv+0x4>)
 800c996:	4770      	bx	lr
 800c998:	08015e10 	.word	0x08015e10

0800c99c <_ZNK12_GLOBAL__N_125font_OSD_Charset_104_type8get_sizeEv>:
 800c99c:	210c      	movs	r1, #12
 800c99e:	2212      	movs	r2, #18
 800c9a0:	e880 0006 	stmia.w	r0, {r1, r2}
 800c9a4:	4770      	bx	lr
 800c9a6:	bf00      	nop

0800c9a8 <_ZNK12_GLOBAL__N_125font_OSD_Charset_105_type8get_dataEv>:
 800c9a8:	4800      	ldr	r0, [pc, #0]	; (800c9ac <_ZNK12_GLOBAL__N_125font_OSD_Charset_105_type8get_dataEv+0x4>)
 800c9aa:	4770      	bx	lr
 800c9ac:	08014ac0 	.word	0x08014ac0

0800c9b0 <_ZNK12_GLOBAL__N_125font_OSD_Charset_105_type8get_sizeEv>:
 800c9b0:	210c      	movs	r1, #12
 800c9b2:	2212      	movs	r2, #18
 800c9b4:	e880 0006 	stmia.w	r0, {r1, r2}
 800c9b8:	4770      	bx	lr
 800c9ba:	bf00      	nop

0800c9bc <_ZNK12_GLOBAL__N_125font_OSD_Charset_106_type8get_dataEv>:
 800c9bc:	4800      	ldr	r0, [pc, #0]	; (800c9c0 <_ZNK12_GLOBAL__N_125font_OSD_Charset_106_type8get_dataEv+0x4>)
 800c9be:	4770      	bx	lr
 800c9c0:	08018c50 	.word	0x08018c50

0800c9c4 <_ZNK12_GLOBAL__N_125font_OSD_Charset_106_type8get_sizeEv>:
 800c9c4:	210c      	movs	r1, #12
 800c9c6:	2212      	movs	r2, #18
 800c9c8:	e880 0006 	stmia.w	r0, {r1, r2}
 800c9cc:	4770      	bx	lr
 800c9ce:	bf00      	nop

0800c9d0 <_ZNK12_GLOBAL__N_125font_OSD_Charset_107_type8get_dataEv>:
 800c9d0:	4800      	ldr	r0, [pc, #0]	; (800c9d4 <_ZNK12_GLOBAL__N_125font_OSD_Charset_107_type8get_dataEv+0x4>)
 800c9d2:	4770      	bx	lr
 800c9d4:	08015da0 	.word	0x08015da0

0800c9d8 <_ZNK12_GLOBAL__N_125font_OSD_Charset_107_type8get_sizeEv>:
 800c9d8:	210c      	movs	r1, #12
 800c9da:	2212      	movs	r2, #18
 800c9dc:	e880 0006 	stmia.w	r0, {r1, r2}
 800c9e0:	4770      	bx	lr
 800c9e2:	bf00      	nop

0800c9e4 <_ZNK12_GLOBAL__N_125font_OSD_Charset_108_type8get_dataEv>:
 800c9e4:	4800      	ldr	r0, [pc, #0]	; (800c9e8 <_ZNK12_GLOBAL__N_125font_OSD_Charset_108_type8get_dataEv+0x4>)
 800c9e6:	4770      	bx	lr
 800c9e8:	08014a08 	.word	0x08014a08

0800c9ec <_ZNK12_GLOBAL__N_125font_OSD_Charset_108_type8get_sizeEv>:
 800c9ec:	210c      	movs	r1, #12
 800c9ee:	2212      	movs	r2, #18
 800c9f0:	e880 0006 	stmia.w	r0, {r1, r2}
 800c9f4:	4770      	bx	lr
 800c9f6:	bf00      	nop

0800c9f8 <_ZNK12_GLOBAL__N_125font_OSD_Charset_109_type8get_dataEv>:
 800c9f8:	4800      	ldr	r0, [pc, #0]	; (800c9fc <_ZNK12_GLOBAL__N_125font_OSD_Charset_109_type8get_dataEv+0x4>)
 800c9fa:	4770      	bx	lr
 800c9fc:	08018bc8 	.word	0x08018bc8

0800ca00 <_ZNK12_GLOBAL__N_125font_OSD_Charset_109_type8get_sizeEv>:
 800ca00:	210c      	movs	r1, #12
 800ca02:	2212      	movs	r2, #18
 800ca04:	e880 0006 	stmia.w	r0, {r1, r2}
 800ca08:	4770      	bx	lr
 800ca0a:	bf00      	nop

0800ca0c <_ZNK12_GLOBAL__N_125font_OSD_Charset_110_type8get_dataEv>:
 800ca0c:	4800      	ldr	r0, [pc, #0]	; (800ca10 <_ZNK12_GLOBAL__N_125font_OSD_Charset_110_type8get_dataEv+0x4>)
 800ca0e:	4770      	bx	lr
 800ca10:	08019218 	.word	0x08019218

0800ca14 <_ZNK12_GLOBAL__N_125font_OSD_Charset_110_type8get_sizeEv>:
 800ca14:	210c      	movs	r1, #12
 800ca16:	2212      	movs	r2, #18
 800ca18:	e880 0006 	stmia.w	r0, {r1, r2}
 800ca1c:	4770      	bx	lr
 800ca1e:	bf00      	nop

0800ca20 <_ZNK12_GLOBAL__N_125font_OSD_Charset_111_type8get_dataEv>:
 800ca20:	4800      	ldr	r0, [pc, #0]	; (800ca24 <_ZNK12_GLOBAL__N_125font_OSD_Charset_111_type8get_dataEv+0x4>)
 800ca22:	4770      	bx	lr
 800ca24:	080167f0 	.word	0x080167f0

0800ca28 <_ZNK12_GLOBAL__N_125font_OSD_Charset_111_type8get_sizeEv>:
 800ca28:	210c      	movs	r1, #12
 800ca2a:	2212      	movs	r2, #18
 800ca2c:	e880 0006 	stmia.w	r0, {r1, r2}
 800ca30:	4770      	bx	lr
 800ca32:	bf00      	nop

0800ca34 <_ZNK12_GLOBAL__N_125font_OSD_Charset_112_type8get_dataEv>:
 800ca34:	4800      	ldr	r0, [pc, #0]	; (800ca38 <_ZNK12_GLOBAL__N_125font_OSD_Charset_112_type8get_dataEv+0x4>)
 800ca36:	4770      	bx	lr
 800ca38:	08015bb0 	.word	0x08015bb0

0800ca3c <_ZNK12_GLOBAL__N_125font_OSD_Charset_112_type8get_sizeEv>:
 800ca3c:	210c      	movs	r1, #12
 800ca3e:	2212      	movs	r2, #18
 800ca40:	e880 0006 	stmia.w	r0, {r1, r2}
 800ca44:	4770      	bx	lr
 800ca46:	bf00      	nop

0800ca48 <_ZNK12_GLOBAL__N_125font_OSD_Charset_113_type8get_dataEv>:
 800ca48:	4800      	ldr	r0, [pc, #0]	; (800ca4c <_ZNK12_GLOBAL__N_125font_OSD_Charset_113_type8get_dataEv+0x4>)
 800ca4a:	4770      	bx	lr
 800ca4c:	08019bc0 	.word	0x08019bc0

0800ca50 <_ZNK12_GLOBAL__N_125font_OSD_Charset_113_type8get_sizeEv>:
 800ca50:	210c      	movs	r1, #12
 800ca52:	2212      	movs	r2, #18
 800ca54:	e880 0006 	stmia.w	r0, {r1, r2}
 800ca58:	4770      	bx	lr
 800ca5a:	bf00      	nop

0800ca5c <_ZNK12_GLOBAL__N_125font_OSD_Charset_114_type8get_dataEv>:
 800ca5c:	4800      	ldr	r0, [pc, #0]	; (800ca60 <_ZNK12_GLOBAL__N_125font_OSD_Charset_114_type8get_dataEv+0x4>)
 800ca5e:	4770      	bx	lr
 800ca60:	080174d0 	.word	0x080174d0

0800ca64 <_ZNK12_GLOBAL__N_125font_OSD_Charset_114_type8get_sizeEv>:
 800ca64:	210c      	movs	r1, #12
 800ca66:	2212      	movs	r2, #18
 800ca68:	e880 0006 	stmia.w	r0, {r1, r2}
 800ca6c:	4770      	bx	lr
 800ca6e:	bf00      	nop

0800ca70 <_ZNK12_GLOBAL__N_125font_OSD_Charset_115_type8get_dataEv>:
 800ca70:	4800      	ldr	r0, [pc, #0]	; (800ca74 <_ZNK12_GLOBAL__N_125font_OSD_Charset_115_type8get_dataEv+0x4>)
 800ca72:	4770      	bx	lr
 800ca74:	08015ab8 	.word	0x08015ab8

0800ca78 <_ZNK12_GLOBAL__N_125font_OSD_Charset_115_type8get_sizeEv>:
 800ca78:	210c      	movs	r1, #12
 800ca7a:	2212      	movs	r2, #18
 800ca7c:	e880 0006 	stmia.w	r0, {r1, r2}
 800ca80:	4770      	bx	lr
 800ca82:	bf00      	nop

0800ca84 <_ZNK12_GLOBAL__N_125font_OSD_Charset_116_type8get_dataEv>:
 800ca84:	4800      	ldr	r0, [pc, #0]	; (800ca88 <_ZNK12_GLOBAL__N_125font_OSD_Charset_116_type8get_dataEv+0x4>)
 800ca86:	4770      	bx	lr
 800ca88:	08019b20 	.word	0x08019b20

0800ca8c <_ZNK12_GLOBAL__N_125font_OSD_Charset_116_type8get_sizeEv>:
 800ca8c:	210c      	movs	r1, #12
 800ca8e:	2212      	movs	r2, #18
 800ca90:	e880 0006 	stmia.w	r0, {r1, r2}
 800ca94:	4770      	bx	lr
 800ca96:	bf00      	nop

0800ca98 <_ZNK12_GLOBAL__N_125font_OSD_Charset_117_type8get_dataEv>:
 800ca98:	4800      	ldr	r0, [pc, #0]	; (800ca9c <_ZNK12_GLOBAL__N_125font_OSD_Charset_117_type8get_dataEv+0x4>)
 800ca9a:	4770      	bx	lr
 800ca9c:	08018238 	.word	0x08018238

0800caa0 <_ZNK12_GLOBAL__N_125font_OSD_Charset_117_type8get_sizeEv>:
 800caa0:	210c      	movs	r1, #12
 800caa2:	2212      	movs	r2, #18
 800caa4:	e880 0006 	stmia.w	r0, {r1, r2}
 800caa8:	4770      	bx	lr
 800caaa:	bf00      	nop

0800caac <_ZNK12_GLOBAL__N_125font_OSD_Charset_118_type8get_dataEv>:
 800caac:	4800      	ldr	r0, [pc, #0]	; (800cab0 <_ZNK12_GLOBAL__N_125font_OSD_Charset_118_type8get_dataEv+0x4>)
 800caae:	4770      	bx	lr
 800cab0:	08017398 	.word	0x08017398

0800cab4 <_ZNK12_GLOBAL__N_125font_OSD_Charset_118_type8get_sizeEv>:
 800cab4:	210c      	movs	r1, #12
 800cab6:	2212      	movs	r2, #18
 800cab8:	e880 0006 	stmia.w	r0, {r1, r2}
 800cabc:	4770      	bx	lr
 800cabe:	bf00      	nop

0800cac0 <_ZNK12_GLOBAL__N_125font_OSD_Charset_119_type8get_dataEv>:
 800cac0:	4800      	ldr	r0, [pc, #0]	; (800cac4 <_ZNK12_GLOBAL__N_125font_OSD_Charset_119_type8get_dataEv+0x4>)
 800cac2:	4770      	bx	lr
 800cac4:	08019ad0 	.word	0x08019ad0

0800cac8 <_ZNK12_GLOBAL__N_125font_OSD_Charset_119_type8get_sizeEv>:
 800cac8:	210c      	movs	r1, #12
 800caca:	2212      	movs	r2, #18
 800cacc:	e880 0006 	stmia.w	r0, {r1, r2}
 800cad0:	4770      	bx	lr
 800cad2:	bf00      	nop

0800cad4 <_ZNK12_GLOBAL__N_125font_OSD_Charset_120_type8get_dataEv>:
 800cad4:	4800      	ldr	r0, [pc, #0]	; (800cad8 <_ZNK12_GLOBAL__N_125font_OSD_Charset_120_type8get_dataEv+0x4>)
 800cad6:	4770      	bx	lr
 800cad8:	08015948 	.word	0x08015948

0800cadc <_ZNK12_GLOBAL__N_125font_OSD_Charset_120_type8get_sizeEv>:
 800cadc:	210c      	movs	r1, #12
 800cade:	2212      	movs	r2, #18
 800cae0:	e880 0006 	stmia.w	r0, {r1, r2}
 800cae4:	4770      	bx	lr
 800cae6:	bf00      	nop

0800cae8 <_ZNK12_GLOBAL__N_125font_OSD_Charset_121_type8get_dataEv>:
 800cae8:	4800      	ldr	r0, [pc, #0]	; (800caec <_ZNK12_GLOBAL__N_125font_OSD_Charset_121_type8get_dataEv+0x4>)
 800caea:	4770      	bx	lr
 800caec:	08017b38 	.word	0x08017b38

0800caf0 <_ZNK12_GLOBAL__N_125font_OSD_Charset_121_type8get_sizeEv>:
 800caf0:	210c      	movs	r1, #12
 800caf2:	2212      	movs	r2, #18
 800caf4:	e880 0006 	stmia.w	r0, {r1, r2}
 800caf8:	4770      	bx	lr
 800cafa:	bf00      	nop

0800cafc <_ZNK12_GLOBAL__N_125font_OSD_Charset_122_type8get_dataEv>:
 800cafc:	4800      	ldr	r0, [pc, #0]	; (800cb00 <_ZNK12_GLOBAL__N_125font_OSD_Charset_122_type8get_dataEv+0x4>)
 800cafe:	4770      	bx	lr
 800cb00:	080169e0 	.word	0x080169e0

0800cb04 <_ZNK12_GLOBAL__N_125font_OSD_Charset_122_type8get_sizeEv>:
 800cb04:	210c      	movs	r1, #12
 800cb06:	2212      	movs	r2, #18
 800cb08:	e880 0006 	stmia.w	r0, {r1, r2}
 800cb0c:	4770      	bx	lr
 800cb0e:	bf00      	nop

0800cb10 <_ZNK12_GLOBAL__N_125font_OSD_Charset_123_type8get_dataEv>:
 800cb10:	4800      	ldr	r0, [pc, #0]	; (800cb14 <_ZNK12_GLOBAL__N_125font_OSD_Charset_123_type8get_dataEv+0x4>)
 800cb12:	4770      	bx	lr
 800cb14:	08015888 	.word	0x08015888

0800cb18 <_ZNK12_GLOBAL__N_125font_OSD_Charset_123_type8get_sizeEv>:
 800cb18:	210c      	movs	r1, #12
 800cb1a:	2212      	movs	r2, #18
 800cb1c:	e880 0006 	stmia.w	r0, {r1, r2}
 800cb20:	4770      	bx	lr
 800cb22:	bf00      	nop

0800cb24 <_ZNK12_GLOBAL__N_125font_OSD_Charset_124_type8get_dataEv>:
 800cb24:	4800      	ldr	r0, [pc, #0]	; (800cb28 <_ZNK12_GLOBAL__N_125font_OSD_Charset_124_type8get_dataEv+0x4>)
 800cb26:	4770      	bx	lr
 800cb28:	080198a0 	.word	0x080198a0

0800cb2c <_ZNK12_GLOBAL__N_125font_OSD_Charset_124_type8get_sizeEv>:
 800cb2c:	210c      	movs	r1, #12
 800cb2e:	2212      	movs	r2, #18
 800cb30:	e880 0006 	stmia.w	r0, {r1, r2}
 800cb34:	4770      	bx	lr
 800cb36:	bf00      	nop

0800cb38 <_ZNK12_GLOBAL__N_125font_OSD_Charset_125_type8get_dataEv>:
 800cb38:	4800      	ldr	r0, [pc, #0]	; (800cb3c <_ZNK12_GLOBAL__N_125font_OSD_Charset_125_type8get_dataEv+0x4>)
 800cb3a:	4770      	bx	lr
 800cb3c:	08014918 	.word	0x08014918

0800cb40 <_ZNK12_GLOBAL__N_125font_OSD_Charset_125_type8get_sizeEv>:
 800cb40:	210c      	movs	r1, #12
 800cb42:	2212      	movs	r2, #18
 800cb44:	e880 0006 	stmia.w	r0, {r1, r2}
 800cb48:	4770      	bx	lr
 800cb4a:	bf00      	nop

0800cb4c <_ZNK12_GLOBAL__N_125font_OSD_Charset_126_type8get_dataEv>:
 800cb4c:	4800      	ldr	r0, [pc, #0]	; (800cb50 <_ZNK12_GLOBAL__N_125font_OSD_Charset_126_type8get_dataEv+0x4>)
 800cb4e:	4770      	bx	lr
 800cb50:	080157b0 	.word	0x080157b0

0800cb54 <_ZNK12_GLOBAL__N_125font_OSD_Charset_126_type8get_sizeEv>:
 800cb54:	210c      	movs	r1, #12
 800cb56:	2212      	movs	r2, #18
 800cb58:	e880 0006 	stmia.w	r0, {r1, r2}
 800cb5c:	4770      	bx	lr
 800cb5e:	bf00      	nop

0800cb60 <_ZNK12_GLOBAL__N_125font_OSD_Charset_127_type8get_dataEv>:
 800cb60:	4800      	ldr	r0, [pc, #0]	; (800cb64 <_ZNK12_GLOBAL__N_125font_OSD_Charset_127_type8get_dataEv+0x4>)
 800cb62:	4770      	bx	lr
 800cb64:	08019800 	.word	0x08019800

0800cb68 <_ZNK12_GLOBAL__N_125font_OSD_Charset_127_type8get_sizeEv>:
 800cb68:	210c      	movs	r1, #12
 800cb6a:	2212      	movs	r2, #18
 800cb6c:	e880 0006 	stmia.w	r0, {r1, r2}
 800cb70:	4770      	bx	lr
 800cb72:	bf00      	nop

0800cb74 <_ZNK12_GLOBAL__N_125font_OSD_Charset_128_type8get_dataEv>:
 800cb74:	4800      	ldr	r0, [pc, #0]	; (800cb78 <_ZNK12_GLOBAL__N_125font_OSD_Charset_128_type8get_dataEv+0x4>)
 800cb76:	4770      	bx	lr
 800cb78:	080185f0 	.word	0x080185f0

0800cb7c <_ZNK12_GLOBAL__N_125font_OSD_Charset_128_type8get_sizeEv>:
 800cb7c:	210c      	movs	r1, #12
 800cb7e:	2212      	movs	r2, #18
 800cb80:	e880 0006 	stmia.w	r0, {r1, r2}
 800cb84:	4770      	bx	lr
 800cb86:	bf00      	nop

0800cb88 <_ZNK12_GLOBAL__N_125font_OSD_Charset_129_type8get_dataEv>:
 800cb88:	4800      	ldr	r0, [pc, #0]	; (800cb8c <_ZNK12_GLOBAL__N_125font_OSD_Charset_129_type8get_dataEv+0x4>)
 800cb8a:	4770      	bx	lr
 800cb8c:	08017120 	.word	0x08017120

0800cb90 <_ZNK12_GLOBAL__N_125font_OSD_Charset_129_type8get_sizeEv>:
 800cb90:	210c      	movs	r1, #12
 800cb92:	2212      	movs	r2, #18
 800cb94:	e880 0006 	stmia.w	r0, {r1, r2}
 800cb98:	4770      	bx	lr
 800cb9a:	bf00      	nop

0800cb9c <_ZNK12_GLOBAL__N_125font_OSD_Charset_130_type8get_dataEv>:
 800cb9c:	4800      	ldr	r0, [pc, #0]	; (800cba0 <_ZNK12_GLOBAL__N_125font_OSD_Charset_130_type8get_dataEv+0x4>)
 800cb9e:	4770      	bx	lr
 800cba0:	08014b88 	.word	0x08014b88

0800cba4 <_ZNK12_GLOBAL__N_125font_OSD_Charset_130_type8get_sizeEv>:
 800cba4:	210c      	movs	r1, #12
 800cba6:	2212      	movs	r2, #18
 800cba8:	e880 0006 	stmia.w	r0, {r1, r2}
 800cbac:	4770      	bx	lr
 800cbae:	bf00      	nop

0800cbb0 <_ZNK12_GLOBAL__N_125font_OSD_Charset_131_type8get_dataEv>:
 800cbb0:	4800      	ldr	r0, [pc, #0]	; (800cbb4 <_ZNK12_GLOBAL__N_125font_OSD_Charset_131_type8get_dataEv+0x4>)
 800cbb2:	4770      	bx	lr
 800cbb4:	080155b8 	.word	0x080155b8

0800cbb8 <_ZNK12_GLOBAL__N_125font_OSD_Charset_131_type8get_sizeEv>:
 800cbb8:	210c      	movs	r1, #12
 800cbba:	2212      	movs	r2, #18
 800cbbc:	e880 0006 	stmia.w	r0, {r1, r2}
 800cbc0:	4770      	bx	lr
 800cbc2:	bf00      	nop

0800cbc4 <_ZNK12_GLOBAL__N_125font_OSD_Charset_132_type8get_dataEv>:
 800cbc4:	4800      	ldr	r0, [pc, #0]	; (800cbc8 <_ZNK12_GLOBAL__N_125font_OSD_Charset_132_type8get_dataEv+0x4>)
 800cbc6:	4770      	bx	lr
 800cbc8:	08019638 	.word	0x08019638

0800cbcc <_ZNK12_GLOBAL__N_125font_OSD_Charset_132_type8get_sizeEv>:
 800cbcc:	210c      	movs	r1, #12
 800cbce:	2212      	movs	r2, #18
 800cbd0:	e880 0006 	stmia.w	r0, {r1, r2}
 800cbd4:	4770      	bx	lr
 800cbd6:	bf00      	nop

0800cbd8 <_ZNK12_GLOBAL__N_125font_OSD_Charset_133_type8get_dataEv>:
 800cbd8:	4800      	ldr	r0, [pc, #0]	; (800cbdc <_ZNK12_GLOBAL__N_125font_OSD_Charset_133_type8get_dataEv+0x4>)
 800cbda:	4770      	bx	lr
 800cbdc:	080166b0 	.word	0x080166b0

0800cbe0 <_ZNK12_GLOBAL__N_125font_OSD_Charset_133_type8get_sizeEv>:
 800cbe0:	210c      	movs	r1, #12
 800cbe2:	2212      	movs	r2, #18
 800cbe4:	e880 0006 	stmia.w	r0, {r1, r2}
 800cbe8:	4770      	bx	lr
 800cbea:	bf00      	nop

0800cbec <_ZNK12_GLOBAL__N_125font_OSD_Charset_134_type8get_dataEv>:
 800cbec:	4800      	ldr	r0, [pc, #0]	; (800cbf0 <_ZNK12_GLOBAL__N_125font_OSD_Charset_134_type8get_dataEv+0x4>)
 800cbee:	4770      	bx	lr
 800cbf0:	080154d8 	.word	0x080154d8

0800cbf4 <_ZNK12_GLOBAL__N_125font_OSD_Charset_134_type8get_sizeEv>:
 800cbf4:	210c      	movs	r1, #12
 800cbf6:	2212      	movs	r2, #18
 800cbf8:	e880 0006 	stmia.w	r0, {r1, r2}
 800cbfc:	4770      	bx	lr
 800cbfe:	bf00      	nop

0800cc00 <_ZNK12_GLOBAL__N_125font_OSD_Charset_135_type8get_dataEv>:
 800cc00:	4800      	ldr	r0, [pc, #0]	; (800cc04 <_ZNK12_GLOBAL__N_125font_OSD_Charset_135_type8get_dataEv+0x4>)
 800cc02:	4770      	bx	lr
 800cc04:	08019580 	.word	0x08019580

0800cc08 <_ZNK12_GLOBAL__N_125font_OSD_Charset_135_type8get_sizeEv>:
 800cc08:	210c      	movs	r1, #12
 800cc0a:	2212      	movs	r2, #18
 800cc0c:	e880 0006 	stmia.w	r0, {r1, r2}
 800cc10:	4770      	bx	lr
 800cc12:	bf00      	nop

0800cc14 <_ZNK12_GLOBAL__N_125font_OSD_Charset_136_type8get_dataEv>:
 800cc14:	4800      	ldr	r0, [pc, #0]	; (800cc18 <_ZNK12_GLOBAL__N_125font_OSD_Charset_136_type8get_dataEv+0x4>)
 800cc16:	4770      	bx	lr
 800cc18:	080199e0 	.word	0x080199e0

0800cc1c <_ZNK12_GLOBAL__N_125font_OSD_Charset_136_type8get_sizeEv>:
 800cc1c:	210c      	movs	r1, #12
 800cc1e:	2212      	movs	r2, #18
 800cc20:	e880 0006 	stmia.w	r0, {r1, r2}
 800cc24:	4770      	bx	lr
 800cc26:	bf00      	nop

0800cc28 <_ZNK12_GLOBAL__N_125font_OSD_Charset_137_type8get_dataEv>:
 800cc28:	4800      	ldr	r0, [pc, #0]	; (800cc2c <_ZNK12_GLOBAL__N_125font_OSD_Charset_137_type8get_dataEv+0x4>)
 800cc2a:	4770      	bx	lr
 800cc2c:	08016e08 	.word	0x08016e08

0800cc30 <_ZNK12_GLOBAL__N_125font_OSD_Charset_137_type8get_sizeEv>:
 800cc30:	210c      	movs	r1, #12
 800cc32:	2212      	movs	r2, #18
 800cc34:	e880 0006 	stmia.w	r0, {r1, r2}
 800cc38:	4770      	bx	lr
 800cc3a:	bf00      	nop

0800cc3c <_ZNK12_GLOBAL__N_125font_OSD_Charset_138_type8get_dataEv>:
 800cc3c:	4800      	ldr	r0, [pc, #0]	; (800cc40 <_ZNK12_GLOBAL__N_125font_OSD_Charset_138_type8get_dataEv+0x4>)
 800cc3e:	4770      	bx	lr
 800cc40:	080194a0 	.word	0x080194a0

0800cc44 <_ZNK12_GLOBAL__N_125font_OSD_Charset_138_type8get_sizeEv>:
 800cc44:	210c      	movs	r1, #12
 800cc46:	2212      	movs	r2, #18
 800cc48:	e880 0006 	stmia.w	r0, {r1, r2}
 800cc4c:	4770      	bx	lr
 800cc4e:	bf00      	nop

0800cc50 <_ZNK12_GLOBAL__N_125font_OSD_Charset_139_type8get_dataEv>:
 800cc50:	4800      	ldr	r0, [pc, #0]	; (800cc54 <_ZNK12_GLOBAL__N_125font_OSD_Charset_139_type8get_dataEv+0x4>)
 800cc52:	4770      	bx	lr
 800cc54:	080182a8 	.word	0x080182a8

0800cc58 <_ZNK12_GLOBAL__N_125font_OSD_Charset_139_type8get_sizeEv>:
 800cc58:	210c      	movs	r1, #12
 800cc5a:	2212      	movs	r2, #18
 800cc5c:	e880 0006 	stmia.w	r0, {r1, r2}
 800cc60:	4770      	bx	lr
 800cc62:	bf00      	nop

0800cc64 <_ZNK12_GLOBAL__N_125font_OSD_Charset_140_type8get_dataEv>:
 800cc64:	4800      	ldr	r0, [pc, #0]	; (800cc68 <_ZNK12_GLOBAL__N_125font_OSD_Charset_140_type8get_dataEv+0x4>)
 800cc66:	4770      	bx	lr
 800cc68:	08015420 	.word	0x08015420

0800cc6c <_ZNK12_GLOBAL__N_125font_OSD_Charset_140_type8get_sizeEv>:
 800cc6c:	210c      	movs	r1, #12
 800cc6e:	2212      	movs	r2, #18
 800cc70:	e880 0006 	stmia.w	r0, {r1, r2}
 800cc74:	4770      	bx	lr
 800cc76:	bf00      	nop

0800cc78 <_ZNK12_GLOBAL__N_125font_OSD_Charset_141_type8get_dataEv>:
 800cc78:	4800      	ldr	r0, [pc, #0]	; (800cc7c <_ZNK12_GLOBAL__N_125font_OSD_Charset_141_type8get_dataEv+0x4>)
 800cc7a:	4770      	bx	lr
 800cc7c:	080163f8 	.word	0x080163f8

0800cc80 <_ZNK12_GLOBAL__N_125font_OSD_Charset_141_type8get_sizeEv>:
 800cc80:	210c      	movs	r1, #12
 800cc82:	2212      	movs	r2, #18
 800cc84:	e880 0006 	stmia.w	r0, {r1, r2}
 800cc88:	4770      	bx	lr
 800cc8a:	bf00      	nop

0800cc8c <_ZNK12_GLOBAL__N_125font_OSD_Charset_142_type8get_dataEv>:
 800cc8c:	4800      	ldr	r0, [pc, #0]	; (800cc90 <_ZNK12_GLOBAL__N_125font_OSD_Charset_142_type8get_dataEv+0x4>)
 800cc8e:	4770      	bx	lr
 800cc90:	08015240 	.word	0x08015240

0800cc94 <_ZNK12_GLOBAL__N_125font_OSD_Charset_142_type8get_sizeEv>:
 800cc94:	210c      	movs	r1, #12
 800cc96:	2212      	movs	r2, #18
 800cc98:	e880 0006 	stmia.w	r0, {r1, r2}
 800cc9c:	4770      	bx	lr
 800cc9e:	bf00      	nop

0800cca0 <_ZNK12_GLOBAL__N_125font_OSD_Charset_143_type8get_dataEv>:
 800cca0:	4800      	ldr	r0, [pc, #0]	; (800cca4 <_ZNK12_GLOBAL__N_125font_OSD_Charset_143_type8get_dataEv+0x4>)
 800cca2:	4770      	bx	lr
 800cca4:	08019328 	.word	0x08019328

0800cca8 <_ZNK12_GLOBAL__N_125font_OSD_Charset_143_type8get_sizeEv>:
 800cca8:	210c      	movs	r1, #12
 800ccaa:	2212      	movs	r2, #18
 800ccac:	e880 0006 	stmia.w	r0, {r1, r2}
 800ccb0:	4770      	bx	lr
 800ccb2:	bf00      	nop

0800ccb4 <_ZNK12_GLOBAL__N_125font_OSD_Charset_144_type8get_dataEv>:
 800ccb4:	4800      	ldr	r0, [pc, #0]	; (800ccb8 <_ZNK12_GLOBAL__N_125font_OSD_Charset_144_type8get_dataEv+0x4>)
 800ccb6:	4770      	bx	lr
 800ccb8:	08017c90 	.word	0x08017c90

0800ccbc <_ZNK12_GLOBAL__N_125font_OSD_Charset_144_type8get_sizeEv>:
 800ccbc:	210c      	movs	r1, #12
 800ccbe:	2212      	movs	r2, #18
 800ccc0:	e880 0006 	stmia.w	r0, {r1, r2}
 800ccc4:	4770      	bx	lr
 800ccc6:	bf00      	nop

0800ccc8 <_ZNK12_GLOBAL__N_125font_OSD_Charset_145_type8get_dataEv>:
 800ccc8:	4800      	ldr	r0, [pc, #0]	; (800cccc <_ZNK12_GLOBAL__N_125font_OSD_Charset_145_type8get_dataEv+0x4>)
 800ccca:	4770      	bx	lr
 800cccc:	08015160 	.word	0x08015160

0800ccd0 <_ZNK12_GLOBAL__N_125font_OSD_Charset_145_type8get_sizeEv>:
 800ccd0:	210c      	movs	r1, #12
 800ccd2:	2212      	movs	r2, #18
 800ccd4:	e880 0006 	stmia.w	r0, {r1, r2}
 800ccd8:	4770      	bx	lr
 800ccda:	bf00      	nop

0800ccdc <_ZNK12_GLOBAL__N_125font_OSD_Charset_146_type8get_dataEv>:
 800ccdc:	4800      	ldr	r0, [pc, #0]	; (800cce0 <_ZNK12_GLOBAL__N_125font_OSD_Charset_146_type8get_dataEv+0x4>)
 800ccde:	4770      	bx	lr
 800cce0:	08019280 	.word	0x08019280

0800cce4 <_ZNK12_GLOBAL__N_125font_OSD_Charset_146_type8get_sizeEv>:
 800cce4:	210c      	movs	r1, #12
 800cce6:	2212      	movs	r2, #18
 800cce8:	e880 0006 	stmia.w	r0, {r1, r2}
 800ccec:	4770      	bx	lr
 800ccee:	bf00      	nop

0800ccf0 <_ZNK12_GLOBAL__N_125font_OSD_Charset_147_type8get_dataEv>:
 800ccf0:	4800      	ldr	r0, [pc, #0]	; (800ccf4 <_ZNK12_GLOBAL__N_125font_OSD_Charset_147_type8get_dataEv+0x4>)
 800ccf2:	4770      	bx	lr
 800ccf4:	08017bf0 	.word	0x08017bf0

0800ccf8 <_ZNK12_GLOBAL__N_125font_OSD_Charset_147_type8get_sizeEv>:
 800ccf8:	210c      	movs	r1, #12
 800ccfa:	2212      	movs	r2, #18
 800ccfc:	e880 0006 	stmia.w	r0, {r1, r2}
 800cd00:	4770      	bx	lr
 800cd02:	bf00      	nop

0800cd04 <_ZNK12_GLOBAL__N_125font_OSD_Charset_148_type8get_dataEv>:
 800cd04:	4800      	ldr	r0, [pc, #0]	; (800cd08 <_ZNK12_GLOBAL__N_125font_OSD_Charset_148_type8get_dataEv+0x4>)
 800cd06:	4770      	bx	lr
 800cd08:	08016af0 	.word	0x08016af0

0800cd0c <_ZNK12_GLOBAL__N_125font_OSD_Charset_148_type8get_sizeEv>:
 800cd0c:	210c      	movs	r1, #12
 800cd0e:	2212      	movs	r2, #18
 800cd10:	e880 0006 	stmia.w	r0, {r1, r2}
 800cd14:	4770      	bx	lr
 800cd16:	bf00      	nop

0800cd18 <_ZNK12_GLOBAL__N_125font_OSD_Charset_149_type8get_dataEv>:
 800cd18:	4800      	ldr	r0, [pc, #0]	; (800cd1c <_ZNK12_GLOBAL__N_125font_OSD_Charset_149_type8get_dataEv+0x4>)
 800cd1a:	4770      	bx	lr
 800cd1c:	08015998 	.word	0x08015998

0800cd20 <_ZNK12_GLOBAL__N_125font_OSD_Charset_149_type8get_sizeEv>:
 800cd20:	210c      	movs	r1, #12
 800cd22:	2212      	movs	r2, #18
 800cd24:	e880 0006 	stmia.w	r0, {r1, r2}
 800cd28:	4770      	bx	lr
 800cd2a:	bf00      	nop

0800cd2c <_ZNK12_GLOBAL__N_125font_OSD_Charset_150_type8get_dataEv>:
 800cd2c:	4800      	ldr	r0, [pc, #0]	; (800cd30 <_ZNK12_GLOBAL__N_125font_OSD_Charset_150_type8get_dataEv+0x4>)
 800cd2e:	4770      	bx	lr
 800cd30:	08014fd8 	.word	0x08014fd8

0800cd34 <_ZNK12_GLOBAL__N_125font_OSD_Charset_150_type8get_sizeEv>:
 800cd34:	210c      	movs	r1, #12
 800cd36:	2212      	movs	r2, #18
 800cd38:	e880 0006 	stmia.w	r0, {r1, r2}
 800cd3c:	4770      	bx	lr
 800cd3e:	bf00      	nop

0800cd40 <_ZNK12_GLOBAL__N_125font_OSD_Charset_151_type8get_dataEv>:
 800cd40:	4800      	ldr	r0, [pc, #0]	; (800cd44 <_ZNK12_GLOBAL__N_125font_OSD_Charset_151_type8get_dataEv+0x4>)
 800cd42:	4770      	bx	lr
 800cd44:	08019118 	.word	0x08019118

0800cd48 <_ZNK12_GLOBAL__N_125font_OSD_Charset_151_type8get_sizeEv>:
 800cd48:	210c      	movs	r1, #12
 800cd4a:	2212      	movs	r2, #18
 800cd4c:	e880 0006 	stmia.w	r0, {r1, r2}
 800cd50:	4770      	bx	lr
 800cd52:	bf00      	nop

0800cd54 <_ZNK12_GLOBAL__N_125font_OSD_Charset_152_type8get_dataEv>:
 800cd54:	4800      	ldr	r0, [pc, #0]	; (800cd58 <_ZNK12_GLOBAL__N_125font_OSD_Charset_152_type8get_dataEv+0x4>)
 800cd56:	4770      	bx	lr
 800cd58:	08017a50 	.word	0x08017a50

0800cd5c <_ZNK12_GLOBAL__N_125font_OSD_Charset_152_type8get_sizeEv>:
 800cd5c:	210c      	movs	r1, #12
 800cd5e:	2212      	movs	r2, #18
 800cd60:	e880 0006 	stmia.w	r0, {r1, r2}
 800cd64:	4770      	bx	lr
 800cd66:	bf00      	nop

0800cd68 <_ZNK12_GLOBAL__N_125font_OSD_Charset_153_type8get_dataEv>:
 800cd68:	4800      	ldr	r0, [pc, #0]	; (800cd6c <_ZNK12_GLOBAL__N_125font_OSD_Charset_153_type8get_dataEv+0x4>)
 800cd6a:	4770      	bx	lr
 800cd6c:	08014ec8 	.word	0x08014ec8

0800cd70 <_ZNK12_GLOBAL__N_125font_OSD_Charset_153_type8get_sizeEv>:
 800cd70:	210c      	movs	r1, #12
 800cd72:	2212      	movs	r2, #18
 800cd74:	e880 0006 	stmia.w	r0, {r1, r2}
 800cd78:	4770      	bx	lr
 800cd7a:	bf00      	nop

0800cd7c <_ZNK12_GLOBAL__N_125font_OSD_Charset_154_type8get_dataEv>:
 800cd7c:	4800      	ldr	r0, [pc, #0]	; (800cd80 <_ZNK12_GLOBAL__N_125font_OSD_Charset_154_type8get_dataEv+0x4>)
 800cd7e:	4770      	bx	lr
 800cd80:	08019038 	.word	0x08019038

0800cd84 <_ZNK12_GLOBAL__N_125font_OSD_Charset_154_type8get_sizeEv>:
 800cd84:	210c      	movs	r1, #12
 800cd86:	2212      	movs	r2, #18
 800cd88:	e880 0006 	stmia.w	r0, {r1, r2}
 800cd8c:	4770      	bx	lr
 800cd8e:	bf00      	nop

0800cd90 <_ZNK12_GLOBAL__N_125font_OSD_Charset_155_type8get_dataEv>:
 800cd90:	4800      	ldr	r0, [pc, #0]	; (800cd94 <_ZNK12_GLOBAL__N_125font_OSD_Charset_155_type8get_dataEv+0x4>)
 800cd92:	4770      	bx	lr
 800cd94:	08017958 	.word	0x08017958

0800cd98 <_ZNK12_GLOBAL__N_125font_OSD_Charset_155_type8get_sizeEv>:
 800cd98:	210c      	movs	r1, #12
 800cd9a:	2212      	movs	r2, #18
 800cd9c:	e880 0006 	stmia.w	r0, {r1, r2}
 800cda0:	4770      	bx	lr
 800cda2:	bf00      	nop

0800cda4 <_ZNK12_GLOBAL__N_125font_OSD_Charset_156_type8get_dataEv>:
 800cda4:	4800      	ldr	r0, [pc, #0]	; (800cda8 <_ZNK12_GLOBAL__N_125font_OSD_Charset_156_type8get_dataEv+0x4>)
 800cda6:	4770      	bx	lr
 800cda8:	08016860 	.word	0x08016860

0800cdac <_ZNK12_GLOBAL__N_125font_OSD_Charset_156_type8get_sizeEv>:
 800cdac:	210c      	movs	r1, #12
 800cdae:	2212      	movs	r2, #18
 800cdb0:	e880 0006 	stmia.w	r0, {r1, r2}
 800cdb4:	4770      	bx	lr
 800cdb6:	bf00      	nop

0800cdb8 <_ZNK12_GLOBAL__N_125font_OSD_Charset_157_type8get_dataEv>:
 800cdb8:	4800      	ldr	r0, [pc, #0]	; (800cdbc <_ZNK12_GLOBAL__N_125font_OSD_Charset_157_type8get_dataEv+0x4>)
 800cdba:	4770      	bx	lr
 800cdbc:	08018f98 	.word	0x08018f98

0800cdc0 <_ZNK12_GLOBAL__N_125font_OSD_Charset_157_type8get_sizeEv>:
 800cdc0:	210c      	movs	r1, #12
 800cdc2:	2212      	movs	r2, #18
 800cdc4:	e880 0006 	stmia.w	r0, {r1, r2}
 800cdc8:	4770      	bx	lr
 800cdca:	bf00      	nop

0800cdcc <_ZNK12_GLOBAL__N_125font_OSD_Charset_158_type8get_dataEv>:
 800cdcc:	4800      	ldr	r0, [pc, #0]	; (800cdd0 <_ZNK12_GLOBAL__N_125font_OSD_Charset_158_type8get_dataEv+0x4>)
 800cdce:	4770      	bx	lr
 800cdd0:	080178b0 	.word	0x080178b0

0800cdd4 <_ZNK12_GLOBAL__N_125font_OSD_Charset_158_type8get_sizeEv>:
 800cdd4:	210c      	movs	r1, #12
 800cdd6:	2212      	movs	r2, #18
 800cdd8:	e880 0006 	stmia.w	r0, {r1, r2}
 800cddc:	4770      	bx	lr
 800cdde:	bf00      	nop

0800cde0 <_ZNK12_GLOBAL__N_125font_OSD_Charset_159_type8get_dataEv>:
 800cde0:	4800      	ldr	r0, [pc, #0]	; (800cde4 <_ZNK12_GLOBAL__N_125font_OSD_Charset_159_type8get_dataEv+0x4>)
 800cde2:	4770      	bx	lr
 800cde4:	080167b8 	.word	0x080167b8

0800cde8 <_ZNK12_GLOBAL__N_125font_OSD_Charset_159_type8get_sizeEv>:
 800cde8:	210c      	movs	r1, #12
 800cdea:	2212      	movs	r2, #18
 800cdec:	e880 0006 	stmia.w	r0, {r1, r2}
 800cdf0:	4770      	bx	lr
 800cdf2:	bf00      	nop

0800cdf4 <_ZNK12_GLOBAL__N_125font_OSD_Charset_160_type8get_dataEv>:
 800cdf4:	4800      	ldr	r0, [pc, #0]	; (800cdf8 <_ZNK12_GLOBAL__N_125font_OSD_Charset_160_type8get_dataEv+0x4>)
 800cdf6:	4770      	bx	lr
 800cdf8:	08015f50 	.word	0x08015f50

0800cdfc <_ZNK12_GLOBAL__N_125font_OSD_Charset_160_type8get_sizeEv>:
 800cdfc:	210c      	movs	r1, #12
 800cdfe:	2212      	movs	r2, #18
 800ce00:	e880 0006 	stmia.w	r0, {r1, r2}
 800ce04:	4770      	bx	lr
 800ce06:	bf00      	nop

0800ce08 <_ZNK12_GLOBAL__N_125font_OSD_Charset_161_type8get_dataEv>:
 800ce08:	4800      	ldr	r0, [pc, #0]	; (800ce0c <_ZNK12_GLOBAL__N_125font_OSD_Charset_161_type8get_dataEv+0x4>)
 800ce0a:	4770      	bx	lr
 800ce0c:	08014c98 	.word	0x08014c98

0800ce10 <_ZNK12_GLOBAL__N_125font_OSD_Charset_161_type8get_sizeEv>:
 800ce10:	210c      	movs	r1, #12
 800ce12:	2212      	movs	r2, #18
 800ce14:	e880 0006 	stmia.w	r0, {r1, r2}
 800ce18:	4770      	bx	lr
 800ce1a:	bf00      	nop

0800ce1c <_ZNK12_GLOBAL__N_125font_OSD_Charset_162_type8get_dataEv>:
 800ce1c:	4800      	ldr	r0, [pc, #0]	; (800ce20 <_ZNK12_GLOBAL__N_125font_OSD_Charset_162_type8get_dataEv+0x4>)
 800ce1e:	4770      	bx	lr
 800ce20:	08018dd8 	.word	0x08018dd8

0800ce24 <_ZNK12_GLOBAL__N_125font_OSD_Charset_162_type8get_sizeEv>:
 800ce24:	210c      	movs	r1, #12
 800ce26:	2212      	movs	r2, #18
 800ce28:	e880 0006 	stmia.w	r0, {r1, r2}
 800ce2c:	4770      	bx	lr
 800ce2e:	bf00      	nop

0800ce30 <_ZNK12_GLOBAL__N_125font_OSD_Charset_163_type8get_dataEv>:
 800ce30:	4800      	ldr	r0, [pc, #0]	; (800ce34 <_ZNK12_GLOBAL__N_125font_OSD_Charset_163_type8get_dataEv+0x4>)
 800ce32:	4770      	bx	lr
 800ce34:	08017758 	.word	0x08017758

0800ce38 <_ZNK12_GLOBAL__N_125font_OSD_Charset_163_type8get_sizeEv>:
 800ce38:	210c      	movs	r1, #12
 800ce3a:	2212      	movs	r2, #18
 800ce3c:	e880 0006 	stmia.w	r0, {r1, r2}
 800ce40:	4770      	bx	lr
 800ce42:	bf00      	nop

0800ce44 <_ZNK12_GLOBAL__N_125font_OSD_Charset_164_type8get_dataEv>:
 800ce44:	4800      	ldr	r0, [pc, #0]	; (800ce48 <_ZNK12_GLOBAL__N_125font_OSD_Charset_164_type8get_dataEv+0x4>)
 800ce46:	4770      	bx	lr
 800ce48:	08016538 	.word	0x08016538

0800ce4c <_ZNK12_GLOBAL__N_125font_OSD_Charset_164_type8get_sizeEv>:
 800ce4c:	210c      	movs	r1, #12
 800ce4e:	2212      	movs	r2, #18
 800ce50:	e880 0006 	stmia.w	r0, {r1, r2}
 800ce54:	4770      	bx	lr
 800ce56:	bf00      	nop

0800ce58 <_ZNK12_GLOBAL__N_125font_OSD_Charset_165_type8get_dataEv>:
 800ce58:	4800      	ldr	r0, [pc, #0]	; (800ce5c <_ZNK12_GLOBAL__N_125font_OSD_Charset_165_type8get_dataEv+0x4>)
 800ce5a:	4770      	bx	lr
 800ce5c:	08015850 	.word	0x08015850

0800ce60 <_ZNK12_GLOBAL__N_125font_OSD_Charset_165_type8get_sizeEv>:
 800ce60:	210c      	movs	r1, #12
 800ce62:	2212      	movs	r2, #18
 800ce64:	e880 0006 	stmia.w	r0, {r1, r2}
 800ce68:	4770      	bx	lr
 800ce6a:	bf00      	nop

0800ce6c <_ZNK12_GLOBAL__N_125font_OSD_Charset_166_type8get_dataEv>:
 800ce6c:	4800      	ldr	r0, [pc, #0]	; (800ce70 <_ZNK12_GLOBAL__N_125font_OSD_Charset_166_type8get_dataEv+0x4>)
 800ce6e:	4770      	bx	lr
 800ce70:	080176d0 	.word	0x080176d0

0800ce74 <_ZNK12_GLOBAL__N_125font_OSD_Charset_166_type8get_sizeEv>:
 800ce74:	210c      	movs	r1, #12
 800ce76:	2212      	movs	r2, #18
 800ce78:	e880 0006 	stmia.w	r0, {r1, r2}
 800ce7c:	4770      	bx	lr
 800ce7e:	bf00      	nop

0800ce80 <_ZNK12_GLOBAL__N_125font_OSD_Charset_167_type8get_dataEv>:
 800ce80:	4800      	ldr	r0, [pc, #0]	; (800ce84 <_ZNK12_GLOBAL__N_125font_OSD_Charset_167_type8get_dataEv+0x4>)
 800ce82:	4770      	bx	lr
 800ce84:	080164b8 	.word	0x080164b8

0800ce88 <_ZNK12_GLOBAL__N_125font_OSD_Charset_167_type8get_sizeEv>:
 800ce88:	210c      	movs	r1, #12
 800ce8a:	2212      	movs	r2, #18
 800ce8c:	e880 0006 	stmia.w	r0, {r1, r2}
 800ce90:	4770      	bx	lr
 800ce92:	bf00      	nop

0800ce94 <_ZNK12_GLOBAL__N_125font_OSD_Charset_168_type8get_dataEv>:
 800ce94:	4800      	ldr	r0, [pc, #0]	; (800ce98 <_ZNK12_GLOBAL__N_125font_OSD_Charset_168_type8get_dataEv+0x4>)
 800ce96:	4770      	bx	lr
 800ce98:	08015398 	.word	0x08015398

0800ce9c <_ZNK12_GLOBAL__N_125font_OSD_Charset_168_type8get_sizeEv>:
 800ce9c:	210c      	movs	r1, #12
 800ce9e:	2212      	movs	r2, #18
 800cea0:	e880 0006 	stmia.w	r0, {r1, r2}
 800cea4:	4770      	bx	lr
 800cea6:	bf00      	nop

0800cea8 <_ZNK12_GLOBAL__N_125font_OSD_Charset_169_type8get_dataEv>:
 800cea8:	4800      	ldr	r0, [pc, #0]	; (800ceac <_ZNK12_GLOBAL__N_125font_OSD_Charset_169_type8get_dataEv+0x4>)
 800ceaa:	4770      	bx	lr
 800ceac:	08017660 	.word	0x08017660

0800ceb0 <_ZNK12_GLOBAL__N_125font_OSD_Charset_169_type8get_sizeEv>:
 800ceb0:	210c      	movs	r1, #12
 800ceb2:	2212      	movs	r2, #18
 800ceb4:	e880 0006 	stmia.w	r0, {r1, r2}
 800ceb8:	4770      	bx	lr
 800ceba:	bf00      	nop

0800cebc <_ZNK12_GLOBAL__N_125font_OSD_Charset_170_type8get_dataEv>:
 800cebc:	4800      	ldr	r0, [pc, #0]	; (800cec0 <_ZNK12_GLOBAL__N_125font_OSD_Charset_170_type8get_dataEv+0x4>)
 800cebe:	4770      	bx	lr
 800cec0:	08018b20 	.word	0x08018b20

0800cec4 <_ZNK12_GLOBAL__N_125font_OSD_Charset_170_type8get_sizeEv>:
 800cec4:	210c      	movs	r1, #12
 800cec6:	2212      	movs	r2, #18
 800cec8:	e880 0006 	stmia.w	r0, {r1, r2}
 800cecc:	4770      	bx	lr
 800cece:	bf00      	nop

0800ced0 <_ZNK12_GLOBAL__N_125font_OSD_Charset_171_type8get_dataEv>:
 800ced0:	4800      	ldr	r0, [pc, #0]	; (800ced4 <_ZNK12_GLOBAL__N_125font_OSD_Charset_171_type8get_dataEv+0x4>)
 800ced2:	4770      	bx	lr
 800ced4:	08017570 	.word	0x08017570

0800ced8 <_ZNK12_GLOBAL__N_125font_OSD_Charset_171_type8get_sizeEv>:
 800ced8:	210c      	movs	r1, #12
 800ceda:	2212      	movs	r2, #18
 800cedc:	e880 0006 	stmia.w	r0, {r1, r2}
 800cee0:	4770      	bx	lr
 800cee2:	bf00      	nop

0800cee4 <_ZNK12_GLOBAL__N_125font_OSD_Charset_172_type8get_dataEv>:
 800cee4:	4800      	ldr	r0, [pc, #0]	; (800cee8 <_ZNK12_GLOBAL__N_125font_OSD_Charset_172_type8get_dataEv+0x4>)
 800cee6:	4770      	bx	lr
 800cee8:	080148e0 	.word	0x080148e0

0800ceec <_ZNK12_GLOBAL__N_125font_OSD_Charset_172_type8get_sizeEv>:
 800ceec:	210c      	movs	r1, #12
 800ceee:	2212      	movs	r2, #18
 800cef0:	e880 0006 	stmia.w	r0, {r1, r2}
 800cef4:	4770      	bx	lr
 800cef6:	bf00      	nop

0800cef8 <_ZNK12_GLOBAL__N_125font_OSD_Charset_173_type8get_dataEv>:
 800cef8:	4800      	ldr	r0, [pc, #0]	; (800cefc <_ZNK12_GLOBAL__N_125font_OSD_Charset_173_type8get_dataEv+0x4>)
 800cefa:	4770      	bx	lr
 800cefc:	08018a60 	.word	0x08018a60

0800cf00 <_ZNK12_GLOBAL__N_125font_OSD_Charset_173_type8get_sizeEv>:
 800cf00:	210c      	movs	r1, #12
 800cf02:	2212      	movs	r2, #18
 800cf04:	e880 0006 	stmia.w	r0, {r1, r2}
 800cf08:	4770      	bx	lr
 800cf0a:	bf00      	nop

0800cf0c <_ZNK12_GLOBAL__N_125font_OSD_Charset_174_type8get_dataEv>:
 800cf0c:	4800      	ldr	r0, [pc, #0]	; (800cf10 <_ZNK12_GLOBAL__N_125font_OSD_Charset_174_type8get_dataEv+0x4>)
 800cf0e:	4770      	bx	lr
 800cf10:	08017498 	.word	0x08017498

0800cf14 <_ZNK12_GLOBAL__N_125font_OSD_Charset_174_type8get_sizeEv>:
 800cf14:	210c      	movs	r1, #12
 800cf16:	2212      	movs	r2, #18
 800cf18:	e880 0006 	stmia.w	r0, {r1, r2}
 800cf1c:	4770      	bx	lr
 800cf1e:	bf00      	nop

0800cf20 <_ZNK12_GLOBAL__N_125font_OSD_Charset_175_type8get_dataEv>:
 800cf20:	4800      	ldr	r0, [pc, #0]	; (800cf24 <_ZNK12_GLOBAL__N_125font_OSD_Charset_175_type8get_dataEv+0x4>)
 800cf22:	4770      	bx	lr
 800cf24:	08016288 	.word	0x08016288

0800cf28 <_ZNK12_GLOBAL__N_125font_OSD_Charset_175_type8get_sizeEv>:
 800cf28:	210c      	movs	r1, #12
 800cf2a:	2212      	movs	r2, #18
 800cf2c:	e880 0006 	stmia.w	r0, {r1, r2}
 800cf30:	4770      	bx	lr
 800cf32:	bf00      	nop

0800cf34 <_ZNK12_GLOBAL__N_125font_OSD_Charset_176_type8get_dataEv>:
 800cf34:	4800      	ldr	r0, [pc, #0]	; (800cf38 <_ZNK12_GLOBAL__N_125font_OSD_Charset_176_type8get_dataEv+0x4>)
 800cf36:	4770      	bx	lr
 800cf38:	080150e0 	.word	0x080150e0

0800cf3c <_ZNK12_GLOBAL__N_125font_OSD_Charset_176_type8get_sizeEv>:
 800cf3c:	210c      	movs	r1, #12
 800cf3e:	2212      	movs	r2, #18
 800cf40:	e880 0006 	stmia.w	r0, {r1, r2}
 800cf44:	4770      	bx	lr
 800cf46:	bf00      	nop

0800cf48 <_ZNK12_GLOBAL__N_125font_OSD_Charset_177_type8get_dataEv>:
 800cf48:	4800      	ldr	r0, [pc, #0]	; (800cf4c <_ZNK12_GLOBAL__N_125font_OSD_Charset_177_type8get_dataEv+0x4>)
 800cf4a:	4770      	bx	lr
 800cf4c:	08017460 	.word	0x08017460

0800cf50 <_ZNK12_GLOBAL__N_125font_OSD_Charset_177_type8get_sizeEv>:
 800cf50:	210c      	movs	r1, #12
 800cf52:	2212      	movs	r2, #18
 800cf54:	e880 0006 	stmia.w	r0, {r1, r2}
 800cf58:	4770      	bx	lr
 800cf5a:	bf00      	nop

0800cf5c <_ZNK12_GLOBAL__N_125font_OSD_Charset_178_type8get_dataEv>:
 800cf5c:	4800      	ldr	r0, [pc, #0]	; (800cf60 <_ZNK12_GLOBAL__N_125font_OSD_Charset_178_type8get_dataEv+0x4>)
 800cf5e:	4770      	bx	lr
 800cf60:	08015510 	.word	0x08015510

0800cf64 <_ZNK12_GLOBAL__N_125font_OSD_Charset_178_type8get_sizeEv>:
 800cf64:	210c      	movs	r1, #12
 800cf66:	2212      	movs	r2, #18
 800cf68:	e880 0006 	stmia.w	r0, {r1, r2}
 800cf6c:	4770      	bx	lr
 800cf6e:	bf00      	nop

0800cf70 <_ZNK12_GLOBAL__N_125font_OSD_Charset_179_type8get_dataEv>:
 800cf70:	4800      	ldr	r0, [pc, #0]	; (800cf74 <_ZNK12_GLOBAL__N_125font_OSD_Charset_179_type8get_dataEv+0x4>)
 800cf72:	4770      	bx	lr
 800cf74:	08016e40 	.word	0x08016e40

0800cf78 <_ZNK12_GLOBAL__N_125font_OSD_Charset_179_type8get_sizeEv>:
 800cf78:	210c      	movs	r1, #12
 800cf7a:	2212      	movs	r2, #18
 800cf7c:	e880 0006 	stmia.w	r0, {r1, r2}
 800cf80:	4770      	bx	lr
 800cf82:	bf00      	nop

0800cf84 <_ZNK12_GLOBAL__N_125font_OSD_Charset_180_type8get_dataEv>:
 800cf84:	4800      	ldr	r0, [pc, #0]	; (800cf88 <_ZNK12_GLOBAL__N_125font_OSD_Charset_180_type8get_dataEv+0x4>)
 800cf86:	4770      	bx	lr
 800cf88:	08019a50 	.word	0x08019a50

0800cf8c <_ZNK12_GLOBAL__N_125font_OSD_Charset_180_type8get_sizeEv>:
 800cf8c:	210c      	movs	r1, #12
 800cf8e:	2212      	movs	r2, #18
 800cf90:	e880 0006 	stmia.w	r0, {r1, r2}
 800cf94:	4770      	bx	lr
 800cf96:	bf00      	nop

0800cf98 <_ZNK12_GLOBAL__N_125font_OSD_Charset_181_type8get_dataEv>:
 800cf98:	4800      	ldr	r0, [pc, #0]	; (800cf9c <_ZNK12_GLOBAL__N_125font_OSD_Charset_181_type8get_dataEv+0x4>)
 800cf9a:	4770      	bx	lr
 800cf9c:	080187b0 	.word	0x080187b0

0800cfa0 <_ZNK12_GLOBAL__N_125font_OSD_Charset_181_type8get_sizeEv>:
 800cfa0:	210c      	movs	r1, #12
 800cfa2:	2212      	movs	r2, #18
 800cfa4:	e880 0006 	stmia.w	r0, {r1, r2}
 800cfa8:	4770      	bx	lr
 800cfaa:	bf00      	nop

0800cfac <_ZNK12_GLOBAL__N_125font_OSD_Charset_182_type8get_dataEv>:
 800cfac:	4800      	ldr	r0, [pc, #0]	; (800cfb0 <_ZNK12_GLOBAL__N_125font_OSD_Charset_182_type8get_dataEv+0x4>)
 800cfae:	4770      	bx	lr
 800cfb0:	08017310 	.word	0x08017310

0800cfb4 <_ZNK12_GLOBAL__N_125font_OSD_Charset_182_type8get_sizeEv>:
 800cfb4:	210c      	movs	r1, #12
 800cfb6:	2212      	movs	r2, #18
 800cfb8:	e880 0006 	stmia.w	r0, {r1, r2}
 800cfbc:	4770      	bx	lr
 800cfbe:	bf00      	nop

0800cfc0 <_ZNK12_GLOBAL__N_125font_OSD_Charset_183_type8get_dataEv>:
 800cfc0:	4800      	ldr	r0, [pc, #0]	; (800cfc4 <_ZNK12_GLOBAL__N_125font_OSD_Charset_183_type8get_dataEv+0x4>)
 800cfc2:	4770      	bx	lr
 800cfc4:	080160c8 	.word	0x080160c8

0800cfc8 <_ZNK12_GLOBAL__N_125font_OSD_Charset_183_type8get_sizeEv>:
 800cfc8:	210c      	movs	r1, #12
 800cfca:	2212      	movs	r2, #18
 800cfcc:	e880 0006 	stmia.w	r0, {r1, r2}
 800cfd0:	4770      	bx	lr
 800cfd2:	bf00      	nop

0800cfd4 <_ZNK12_GLOBAL__N_125font_OSD_Charset_184_type8get_dataEv>:
 800cfd4:	4800      	ldr	r0, [pc, #0]	; (800cfd8 <_ZNK12_GLOBAL__N_125font_OSD_Charset_184_type8get_dataEv+0x4>)
 800cfd6:	4770      	bx	lr
 800cfd8:	08018728 	.word	0x08018728

0800cfdc <_ZNK12_GLOBAL__N_125font_OSD_Charset_184_type8get_sizeEv>:
 800cfdc:	210c      	movs	r1, #12
 800cfde:	2212      	movs	r2, #18
 800cfe0:	e880 0006 	stmia.w	r0, {r1, r2}
 800cfe4:	4770      	bx	lr
 800cfe6:	bf00      	nop

0800cfe8 <_ZNK12_GLOBAL__N_125font_OSD_Charset_185_type8get_dataEv>:
 800cfe8:	4800      	ldr	r0, [pc, #0]	; (800cfec <_ZNK12_GLOBAL__N_125font_OSD_Charset_185_type8get_dataEv+0x4>)
 800cfea:	4770      	bx	lr
 800cfec:	08017258 	.word	0x08017258

0800cff0 <_ZNK12_GLOBAL__N_125font_OSD_Charset_185_type8get_sizeEv>:
 800cff0:	210c      	movs	r1, #12
 800cff2:	2212      	movs	r2, #18
 800cff4:	e880 0006 	stmia.w	r0, {r1, r2}
 800cff8:	4770      	bx	lr
 800cffa:	bf00      	nop

0800cffc <_ZNK12_GLOBAL__N_125font_OSD_Charset_186_type8get_dataEv>:
 800cffc:	4800      	ldr	r0, [pc, #0]	; (800d000 <_ZNK12_GLOBAL__N_125font_OSD_Charset_186_type8get_dataEv+0x4>)
 800cffe:	4770      	bx	lr
 800d000:	080175a8 	.word	0x080175a8

0800d004 <_ZNK12_GLOBAL__N_125font_OSD_Charset_186_type8get_sizeEv>:
 800d004:	210c      	movs	r1, #12
 800d006:	2212      	movs	r2, #18
 800d008:	e880 0006 	stmia.w	r0, {r1, r2}
 800d00c:	4770      	bx	lr
 800d00e:	bf00      	nop

0800d010 <_ZNK12_GLOBAL__N_125font_OSD_Charset_187_type8get_dataEv>:
 800d010:	4800      	ldr	r0, [pc, #0]	; (800d014 <_ZNK12_GLOBAL__N_125font_OSD_Charset_187_type8get_dataEv+0x4>)
 800d012:	4770      	bx	lr
 800d014:	08018448 	.word	0x08018448

0800d018 <_ZNK12_GLOBAL__N_125font_OSD_Charset_187_type8get_sizeEv>:
 800d018:	210c      	movs	r1, #12
 800d01a:	2212      	movs	r2, #18
 800d01c:	e880 0006 	stmia.w	r0, {r1, r2}
 800d020:	4770      	bx	lr
 800d022:	bf00      	nop

0800d024 <_ZNK12_GLOBAL__N_125font_OSD_Charset_188_type8get_dataEv>:
 800d024:	4800      	ldr	r0, [pc, #0]	; (800d028 <_ZNK12_GLOBAL__N_125font_OSD_Charset_188_type8get_dataEv+0x4>)
 800d026:	4770      	bx	lr
 800d028:	08018ec8 	.word	0x08018ec8

0800d02c <_ZNK12_GLOBAL__N_125font_OSD_Charset_188_type8get_sizeEv>:
 800d02c:	210c      	movs	r1, #12
 800d02e:	2212      	movs	r2, #18
 800d030:	e880 0006 	stmia.w	r0, {r1, r2}
 800d034:	4770      	bx	lr
 800d036:	bf00      	nop

0800d038 <_ZNK12_GLOBAL__N_125font_OSD_Charset_189_type8get_dataEv>:
 800d038:	4800      	ldr	r0, [pc, #0]	; (800d03c <_ZNK12_GLOBAL__N_125font_OSD_Charset_189_type8get_dataEv+0x4>)
 800d03a:	4770      	bx	lr
 800d03c:	080151d0 	.word	0x080151d0

0800d040 <_ZNK12_GLOBAL__N_125font_OSD_Charset_189_type8get_sizeEv>:
 800d040:	210c      	movs	r1, #12
 800d042:	2212      	movs	r2, #18
 800d044:	e880 0006 	stmia.w	r0, {r1, r2}
 800d048:	4770      	bx	lr
 800d04a:	bf00      	nop

0800d04c <_ZNK12_GLOBAL__N_125font_OSD_Charset_190_type8get_dataEv>:
 800d04c:	4800      	ldr	r0, [pc, #0]	; (800d050 <_ZNK12_GLOBAL__N_125font_OSD_Charset_190_type8get_dataEv+0x4>)
 800d04e:	4770      	bx	lr
 800d050:	080170b0 	.word	0x080170b0

0800d054 <_ZNK12_GLOBAL__N_125font_OSD_Charset_190_type8get_sizeEv>:
 800d054:	210c      	movs	r1, #12
 800d056:	2212      	movs	r2, #18
 800d058:	e880 0006 	stmia.w	r0, {r1, r2}
 800d05c:	4770      	bx	lr
 800d05e:	bf00      	nop

0800d060 <_ZNK12_GLOBAL__N_125font_OSD_Charset_191_type8get_dataEv>:
 800d060:	4800      	ldr	r0, [pc, #0]	; (800d064 <_ZNK12_GLOBAL__N_125font_OSD_Charset_191_type8get_dataEv+0x4>)
 800d062:	4770      	bx	lr
 800d064:	08019780 	.word	0x08019780

0800d068 <_ZNK12_GLOBAL__N_125font_OSD_Charset_191_type8get_sizeEv>:
 800d068:	210c      	movs	r1, #12
 800d06a:	2212      	movs	r2, #18
 800d06c:	e880 0006 	stmia.w	r0, {r1, r2}
 800d070:	4770      	bx	lr
 800d072:	bf00      	nop

0800d074 <_ZNK12_GLOBAL__N_125font_OSD_Charset_192_type8get_dataEv>:
 800d074:	4800      	ldr	r0, [pc, #0]	; (800d078 <_ZNK12_GLOBAL__N_125font_OSD_Charset_192_type8get_dataEv+0x4>)
 800d076:	4770      	bx	lr
 800d078:	08018500 	.word	0x08018500

0800d07c <_ZNK12_GLOBAL__N_125font_OSD_Charset_192_type8get_sizeEv>:
 800d07c:	210c      	movs	r1, #12
 800d07e:	2212      	movs	r2, #18
 800d080:	e880 0006 	stmia.w	r0, {r1, r2}
 800d084:	4770      	bx	lr
 800d086:	bf00      	nop

0800d088 <_ZNK12_GLOBAL__N_125font_OSD_Charset_193_type8get_dataEv>:
 800d088:	4800      	ldr	r0, [pc, #0]	; (800d08c <_ZNK12_GLOBAL__N_125font_OSD_Charset_193_type8get_dataEv+0x4>)
 800d08a:	4770      	bx	lr
 800d08c:	08019070 	.word	0x08019070

0800d090 <_ZNK12_GLOBAL__N_125font_OSD_Charset_193_type8get_sizeEv>:
 800d090:	210c      	movs	r1, #12
 800d092:	2212      	movs	r2, #18
 800d094:	e880 0006 	stmia.w	r0, {r1, r2}
 800d098:	4770      	bx	lr
 800d09a:	bf00      	nop

0800d09c <_ZNK12_GLOBAL__N_125font_OSD_Charset_194_type8get_dataEv>:
 800d09c:	4800      	ldr	r0, [pc, #0]	; (800d0a0 <_ZNK12_GLOBAL__N_125font_OSD_Charset_194_type8get_dataEv+0x4>)
 800d09e:	4770      	bx	lr
 800d0a0:	08015dd8 	.word	0x08015dd8

0800d0a4 <_ZNK12_GLOBAL__N_125font_OSD_Charset_194_type8get_sizeEv>:
 800d0a4:	210c      	movs	r1, #12
 800d0a6:	2212      	movs	r2, #18
 800d0a8:	e880 0006 	stmia.w	r0, {r1, r2}
 800d0ac:	4770      	bx	lr
 800d0ae:	bf00      	nop

0800d0b0 <_ZNK12_GLOBAL__N_125font_OSD_Charset_195_type8get_dataEv>:
 800d0b0:	4800      	ldr	r0, [pc, #0]	; (800d0b4 <_ZNK12_GLOBAL__N_125font_OSD_Charset_195_type8get_dataEv+0x4>)
 800d0b2:	4770      	bx	lr
 800d0b4:	08014a70 	.word	0x08014a70

0800d0b8 <_ZNK12_GLOBAL__N_125font_OSD_Charset_195_type8get_sizeEv>:
 800d0b8:	210c      	movs	r1, #12
 800d0ba:	2212      	movs	r2, #18
 800d0bc:	e880 0006 	stmia.w	r0, {r1, r2}
 800d0c0:	4770      	bx	lr
 800d0c2:	bf00      	nop

0800d0c4 <_ZNK12_GLOBAL__N_125font_OSD_Charset_196_type8get_dataEv>:
 800d0c4:	4800      	ldr	r0, [pc, #0]	; (800d0c8 <_ZNK12_GLOBAL__N_125font_OSD_Charset_196_type8get_dataEv+0x4>)
 800d0c6:	4770      	bx	lr
 800d0c8:	08016fb0 	.word	0x08016fb0

0800d0cc <_ZNK12_GLOBAL__N_125font_OSD_Charset_196_type8get_sizeEv>:
 800d0cc:	210c      	movs	r1, #12
 800d0ce:	2212      	movs	r2, #18
 800d0d0:	e880 0006 	stmia.w	r0, {r1, r2}
 800d0d4:	4770      	bx	lr
 800d0d6:	bf00      	nop

0800d0d8 <_ZNK12_GLOBAL__N_125font_OSD_Charset_197_type8get_dataEv>:
 800d0d8:	4800      	ldr	r0, [pc, #0]	; (800d0dc <_ZNK12_GLOBAL__N_125font_OSD_Charset_197_type8get_dataEv+0x4>)
 800d0da:	4770      	bx	lr
 800d0dc:	08016588 	.word	0x08016588

0800d0e0 <_ZNK12_GLOBAL__N_125font_OSD_Charset_197_type8get_sizeEv>:
 800d0e0:	210c      	movs	r1, #12
 800d0e2:	2212      	movs	r2, #18
 800d0e4:	e880 0006 	stmia.w	r0, {r1, r2}
 800d0e8:	4770      	bx	lr
 800d0ea:	bf00      	nop

0800d0ec <_ZNK12_GLOBAL__N_125font_OSD_Charset_198_type8get_dataEv>:
 800d0ec:	4800      	ldr	r0, [pc, #0]	; (800d0f0 <_ZNK12_GLOBAL__N_125font_OSD_Charset_198_type8get_dataEv+0x4>)
 800d0ee:	4770      	bx	lr
 800d0f0:	08015290 	.word	0x08015290

0800d0f4 <_ZNK12_GLOBAL__N_125font_OSD_Charset_198_type8get_sizeEv>:
 800d0f4:	210c      	movs	r1, #12
 800d0f6:	2212      	movs	r2, #18
 800d0f8:	e880 0006 	stmia.w	r0, {r1, r2}
 800d0fc:	4770      	bx	lr
 800d0fe:	bf00      	nop

0800d100 <_ZNK12_GLOBAL__N_125font_OSD_Charset_199_type8get_dataEv>:
 800d100:	4800      	ldr	r0, [pc, #0]	; (800d104 <_ZNK12_GLOBAL__N_125font_OSD_Charset_199_type8get_dataEv+0x4>)
 800d102:	4770      	bx	lr
 800d104:	08017878 	.word	0x08017878

0800d108 <_ZNK12_GLOBAL__N_125font_OSD_Charset_199_type8get_sizeEv>:
 800d108:	210c      	movs	r1, #12
 800d10a:	2212      	movs	r2, #18
 800d10c:	e880 0006 	stmia.w	r0, {r1, r2}
 800d110:	4770      	bx	lr
 800d112:	bf00      	nop

0800d114 <_ZNK12_GLOBAL__N_125font_OSD_Charset_200_type8get_dataEv>:
 800d114:	4800      	ldr	r0, [pc, #0]	; (800d118 <_ZNK12_GLOBAL__N_125font_OSD_Charset_200_type8get_dataEv+0x4>)
 800d116:	4770      	bx	lr
 800d118:	080194d8 	.word	0x080194d8

0800d11c <_ZNK12_GLOBAL__N_125font_OSD_Charset_200_type8get_sizeEv>:
 800d11c:	210c      	movs	r1, #12
 800d11e:	2212      	movs	r2, #18
 800d120:	e880 0006 	stmia.w	r0, {r1, r2}
 800d124:	4770      	bx	lr
 800d126:	bf00      	nop

0800d128 <_ZNK12_GLOBAL__N_125font_OSD_Charset_201_type8get_dataEv>:
 800d128:	4800      	ldr	r0, [pc, #0]	; (800d12c <_ZNK12_GLOBAL__N_125font_OSD_Charset_201_type8get_dataEv+0x4>)
 800d12a:	4770      	bx	lr
 800d12c:	080182e0 	.word	0x080182e0

0800d130 <_ZNK12_GLOBAL__N_125font_OSD_Charset_201_type8get_sizeEv>:
 800d130:	210c      	movs	r1, #12
 800d132:	2212      	movs	r2, #18
 800d134:	e880 0006 	stmia.w	r0, {r1, r2}
 800d138:	4770      	bx	lr
 800d13a:	bf00      	nop

0800d13c <_ZNK12_GLOBAL__N_125font_OSD_Charset_202_type8get_dataEv>:
 800d13c:	4800      	ldr	r0, [pc, #0]	; (800d140 <_ZNK12_GLOBAL__N_125font_OSD_Charset_202_type8get_dataEv+0x4>)
 800d13e:	4770      	bx	lr
 800d140:	08016db8 	.word	0x08016db8

0800d144 <_ZNK12_GLOBAL__N_125font_OSD_Charset_202_type8get_sizeEv>:
 800d144:	210c      	movs	r1, #12
 800d146:	2212      	movs	r2, #18
 800d148:	e880 0006 	stmia.w	r0, {r1, r2}
 800d14c:	4770      	bx	lr
 800d14e:	bf00      	nop

0800d150 <_ZNK12_GLOBAL__N_125font_OSD_Charset_203_type8get_dataEv>:
 800d150:	4800      	ldr	r0, [pc, #0]	; (800d154 <_ZNK12_GLOBAL__N_125font_OSD_Charset_203_type8get_dataEv+0x4>)
 800d152:	4770      	bx	lr
 800d154:	08015c68 	.word	0x08015c68

0800d158 <_ZNK12_GLOBAL__N_125font_OSD_Charset_203_type8get_sizeEv>:
 800d158:	210c      	movs	r1, #12
 800d15a:	2212      	movs	r2, #18
 800d15c:	e880 0006 	stmia.w	r0, {r1, r2}
 800d160:	4770      	bx	lr
 800d162:	bf00      	nop

0800d164 <_ZNK12_GLOBAL__N_125font_OSD_Charset_204_type8get_dataEv>:
 800d164:	4800      	ldr	r0, [pc, #0]	; (800d168 <_ZNK12_GLOBAL__N_125font_OSD_Charset_204_type8get_dataEv+0x4>)
 800d166:	4770      	bx	lr
 800d168:	08019ca0 	.word	0x08019ca0

0800d16c <_ZNK12_GLOBAL__N_125font_OSD_Charset_204_type8get_sizeEv>:
 800d16c:	210c      	movs	r1, #12
 800d16e:	2212      	movs	r2, #18
 800d170:	e880 0006 	stmia.w	r0, {r1, r2}
 800d174:	4770      	bx	lr
 800d176:	bf00      	nop

0800d178 <_ZNK12_GLOBAL__N_125font_OSD_Charset_205_type8get_dataEv>:
 800d178:	4800      	ldr	r0, [pc, #0]	; (800d17c <_ZNK12_GLOBAL__N_125font_OSD_Charset_205_type8get_dataEv+0x4>)
 800d17a:	4770      	bx	lr
 800d17c:	08016c90 	.word	0x08016c90

0800d180 <_ZNK12_GLOBAL__N_125font_OSD_Charset_205_type8get_sizeEv>:
 800d180:	210c      	movs	r1, #12
 800d182:	2212      	movs	r2, #18
 800d184:	e880 0006 	stmia.w	r0, {r1, r2}
 800d188:	4770      	bx	lr
 800d18a:	bf00      	nop

0800d18c <_ZNK12_GLOBAL__N_125font_OSD_Charset_206_type8get_dataEv>:
 800d18c:	4800      	ldr	r0, [pc, #0]	; (800d190 <_ZNK12_GLOBAL__N_125font_OSD_Charset_206_type8get_dataEv+0x4>)
 800d18e:	4770      	bx	lr
 800d190:	08015b28 	.word	0x08015b28

0800d194 <_ZNK12_GLOBAL__N_125font_OSD_Charset_206_type8get_sizeEv>:
 800d194:	210c      	movs	r1, #12
 800d196:	2212      	movs	r2, #18
 800d198:	e880 0006 	stmia.w	r0, {r1, r2}
 800d19c:	4770      	bx	lr
 800d19e:	bf00      	nop

0800d1a0 <_ZNK12_GLOBAL__N_125font_OSD_Charset_207_type8get_dataEv>:
 800d1a0:	4800      	ldr	r0, [pc, #0]	; (800d1a4 <_ZNK12_GLOBAL__N_125font_OSD_Charset_207_type8get_dataEv+0x4>)
 800d1a2:	4770      	bx	lr
 800d1a4:	080162f8 	.word	0x080162f8

0800d1a8 <_ZNK12_GLOBAL__N_125font_OSD_Charset_207_type8get_sizeEv>:
 800d1a8:	210c      	movs	r1, #12
 800d1aa:	2212      	movs	r2, #18
 800d1ac:	e880 0006 	stmia.w	r0, {r1, r2}
 800d1b0:	4770      	bx	lr
 800d1b2:	bf00      	nop

0800d1b4 <_ZNK12_GLOBAL__N_125font_OSD_Charset_208_type8get_dataEv>:
 800d1b4:	4800      	ldr	r0, [pc, #0]	; (800d1b8 <_ZNK12_GLOBAL__N_125font_OSD_Charset_208_type8get_dataEv+0x4>)
 800d1b6:	4770      	bx	lr
 800d1b8:	08018920 	.word	0x08018920

0800d1bc <_ZNK12_GLOBAL__N_125font_OSD_Charset_208_type8get_sizeEv>:
 800d1bc:	210c      	movs	r1, #12
 800d1be:	2212      	movs	r2, #18
 800d1c0:	e880 0006 	stmia.w	r0, {r1, r2}
 800d1c4:	4770      	bx	lr
 800d1c6:	bf00      	nop

0800d1c8 <_ZNK12_GLOBAL__N_125font_OSD_Charset_209_type8get_dataEv>:
 800d1c8:	4800      	ldr	r0, [pc, #0]	; (800d1cc <_ZNK12_GLOBAL__N_125font_OSD_Charset_209_type8get_dataEv+0x4>)
 800d1ca:	4770      	bx	lr
 800d1cc:	08015a80 	.word	0x08015a80

0800d1d0 <_ZNK12_GLOBAL__N_125font_OSD_Charset_209_type8get_sizeEv>:
 800d1d0:	210c      	movs	r1, #12
 800d1d2:	2212      	movs	r2, #18
 800d1d4:	e880 0006 	stmia.w	r0, {r1, r2}
 800d1d8:	4770      	bx	lr
 800d1da:	bf00      	nop

0800d1dc <_ZNK12_GLOBAL__N_125font_OSD_Charset_210_type8get_dataEv>:
 800d1dc:	4800      	ldr	r0, [pc, #0]	; (800d1e0 <_ZNK12_GLOBAL__N_125font_OSD_Charset_210_type8get_dataEv+0x4>)
 800d1de:	4770      	bx	lr
 800d1e0:	08016b28 	.word	0x08016b28

0800d1e4 <_ZNK12_GLOBAL__N_125font_OSD_Charset_210_type8get_sizeEv>:
 800d1e4:	210c      	movs	r1, #12
 800d1e6:	2212      	movs	r2, #18
 800d1e8:	e880 0006 	stmia.w	r0, {r1, r2}
 800d1ec:	4770      	bx	lr
 800d1ee:	bf00      	nop

0800d1f0 <_ZNK12_GLOBAL__N_125font_OSD_Charset_211_type8get_dataEv>:
 800d1f0:	4800      	ldr	r0, [pc, #0]	; (800d1f4 <_ZNK12_GLOBAL__N_125font_OSD_Charset_211_type8get_dataEv+0x4>)
 800d1f2:	4770      	bx	lr
 800d1f4:	080159d0 	.word	0x080159d0

0800d1f8 <_ZNK12_GLOBAL__N_125font_OSD_Charset_211_type8get_sizeEv>:
 800d1f8:	210c      	movs	r1, #12
 800d1fa:	2212      	movs	r2, #18
 800d1fc:	e880 0006 	stmia.w	r0, {r1, r2}
 800d200:	4770      	bx	lr
 800d202:	bf00      	nop

0800d204 <_ZNK12_GLOBAL__N_125font_OSD_Charset_212_type8get_dataEv>:
 800d204:	4800      	ldr	r0, [pc, #0]	; (800d208 <_ZNK12_GLOBAL__N_125font_OSD_Charset_212_type8get_dataEv+0x4>)
 800d206:	4770      	bx	lr
 800d208:	08019a18 	.word	0x08019a18

0800d20c <_ZNK12_GLOBAL__N_125font_OSD_Charset_212_type8get_sizeEv>:
 800d20c:	210c      	movs	r1, #12
 800d20e:	2212      	movs	r2, #18
 800d210:	e880 0006 	stmia.w	r0, {r1, r2}
 800d214:	4770      	bx	lr
 800d216:	bf00      	nop

0800d218 <_ZNK12_GLOBAL__N_125font_OSD_Charset_213_type8get_dataEv>:
 800d218:	4800      	ldr	r0, [pc, #0]	; (800d21c <_ZNK12_GLOBAL__N_125font_OSD_Charset_213_type8get_dataEv+0x4>)
 800d21a:	4770      	bx	lr
 800d21c:	08016ab8 	.word	0x08016ab8

0800d220 <_ZNK12_GLOBAL__N_125font_OSD_Charset_213_type8get_sizeEv>:
 800d220:	210c      	movs	r1, #12
 800d222:	2212      	movs	r2, #18
 800d224:	e880 0006 	stmia.w	r0, {r1, r2}
 800d228:	4770      	bx	lr
 800d22a:	bf00      	nop

0800d22c <_ZNK12_GLOBAL__N_125font_OSD_Charset_214_type8get_dataEv>:
 800d22c:	4800      	ldr	r0, [pc, #0]	; (800d230 <_ZNK12_GLOBAL__N_125font_OSD_Charset_214_type8get_dataEv+0x4>)
 800d22e:	4770      	bx	lr
 800d230:	080158f8 	.word	0x080158f8

0800d234 <_ZNK12_GLOBAL__N_125font_OSD_Charset_214_type8get_sizeEv>:
 800d234:	210c      	movs	r1, #12
 800d236:	2212      	movs	r2, #18
 800d238:	e880 0006 	stmia.w	r0, {r1, r2}
 800d23c:	4770      	bx	lr
 800d23e:	bf00      	nop

0800d240 <_ZNK12_GLOBAL__N_125font_OSD_Charset_215_type8get_dataEv>:
 800d240:	4800      	ldr	r0, [pc, #0]	; (800d244 <_ZNK12_GLOBAL__N_125font_OSD_Charset_215_type8get_dataEv+0x4>)
 800d242:	4770      	bx	lr
 800d244:	08019910 	.word	0x08019910

0800d248 <_ZNK12_GLOBAL__N_125font_OSD_Charset_215_type8get_sizeEv>:
 800d248:	210c      	movs	r1, #12
 800d24a:	2212      	movs	r2, #18
 800d24c:	e880 0006 	stmia.w	r0, {r1, r2}
 800d250:	4770      	bx	lr
 800d252:	bf00      	nop

0800d254 <_ZNK12_GLOBAL__N_125font_OSD_Charset_216_type8get_dataEv>:
 800d254:	4800      	ldr	r0, [pc, #0]	; (800d258 <_ZNK12_GLOBAL__N_125font_OSD_Charset_216_type8get_dataEv+0x4>)
 800d256:	4770      	bx	lr
 800d258:	080186c0 	.word	0x080186c0

0800d25c <_ZNK12_GLOBAL__N_125font_OSD_Charset_216_type8get_sizeEv>:
 800d25c:	210c      	movs	r1, #12
 800d25e:	2212      	movs	r2, #18
 800d260:	e880 0006 	stmia.w	r0, {r1, r2}
 800d264:	4770      	bx	lr
 800d266:	bf00      	nop

0800d268 <_ZNK12_GLOBAL__N_125font_OSD_Charset_217_type8get_dataEv>:
 800d268:	4800      	ldr	r0, [pc, #0]	; (800d26c <_ZNK12_GLOBAL__N_125font_OSD_Charset_217_type8get_dataEv+0x4>)
 800d26a:	4770      	bx	lr
 800d26c:	08015800 	.word	0x08015800

0800d270 <_ZNK12_GLOBAL__N_125font_OSD_Charset_217_type8get_sizeEv>:
 800d270:	210c      	movs	r1, #12
 800d272:	2212      	movs	r2, #18
 800d274:	e880 0006 	stmia.w	r0, {r1, r2}
 800d278:	4770      	bx	lr
 800d27a:	bf00      	nop

0800d27c <_ZNK12_GLOBAL__N_125font_OSD_Charset_218_type8get_dataEv>:
 800d27c:	4800      	ldr	r0, [pc, #0]	; (800d280 <_ZNK12_GLOBAL__N_125font_OSD_Charset_218_type8get_dataEv+0x4>)
 800d27e:	4770      	bx	lr
 800d280:	08019868 	.word	0x08019868

0800d284 <_ZNK12_GLOBAL__N_125font_OSD_Charset_218_type8get_sizeEv>:
 800d284:	210c      	movs	r1, #12
 800d286:	2212      	movs	r2, #18
 800d288:	e880 0006 	stmia.w	r0, {r1, r2}
 800d28c:	4770      	bx	lr
 800d28e:	bf00      	nop

0800d290 <_ZNK12_GLOBAL__N_125font_OSD_Charset_219_type8get_dataEv>:
 800d290:	4800      	ldr	r0, [pc, #0]	; (800d294 <_ZNK12_GLOBAL__N_125font_OSD_Charset_219_type8get_dataEv+0x4>)
 800d292:	4770      	bx	lr
 800d294:	080189f8 	.word	0x080189f8

0800d298 <_ZNK12_GLOBAL__N_125font_OSD_Charset_219_type8get_sizeEv>:
 800d298:	210c      	movs	r1, #12
 800d29a:	2212      	movs	r2, #18
 800d29c:	e880 0006 	stmia.w	r0, {r1, r2}
 800d2a0:	4770      	bx	lr
 800d2a2:	bf00      	nop

0800d2a4 <_ZNK12_GLOBAL__N_125font_OSD_Charset_220_type8get_dataEv>:
 800d2a4:	4800      	ldr	r0, [pc, #0]	; (800d2a8 <_ZNK12_GLOBAL__N_125font_OSD_Charset_220_type8get_dataEv+0x4>)
 800d2a6:	4770      	bx	lr
 800d2a8:	080178e8 	.word	0x080178e8

0800d2ac <_ZNK12_GLOBAL__N_125font_OSD_Charset_220_type8get_sizeEv>:
 800d2ac:	210c      	movs	r1, #12
 800d2ae:	2212      	movs	r2, #18
 800d2b0:	e880 0006 	stmia.w	r0, {r1, r2}
 800d2b4:	4770      	bx	lr
 800d2b6:	bf00      	nop

0800d2b8 <_ZNK12_GLOBAL__N_125font_OSD_Charset_221_type8get_dataEv>:
 800d2b8:	4800      	ldr	r0, [pc, #0]	; (800d2bc <_ZNK12_GLOBAL__N_125font_OSD_Charset_221_type8get_dataEv+0x4>)
 800d2ba:	4770      	bx	lr
 800d2bc:	08016828 	.word	0x08016828

0800d2c0 <_ZNK12_GLOBAL__N_125font_OSD_Charset_221_type8get_sizeEv>:
 800d2c0:	210c      	movs	r1, #12
 800d2c2:	2212      	movs	r2, #18
 800d2c4:	e880 0006 	stmia.w	r0, {r1, r2}
 800d2c8:	4770      	bx	lr
 800d2ca:	bf00      	nop

0800d2cc <_ZNK12_GLOBAL__N_125font_OSD_Charset_222_type8get_dataEv>:
 800d2cc:	4800      	ldr	r0, [pc, #0]	; (800d2d0 <_ZNK12_GLOBAL__N_125font_OSD_Charset_222_type8get_dataEv+0x4>)
 800d2ce:	4770      	bx	lr
 800d2d0:	08015660 	.word	0x08015660

0800d2d4 <_ZNK12_GLOBAL__N_125font_OSD_Charset_222_type8get_sizeEv>:
 800d2d4:	210c      	movs	r1, #12
 800d2d6:	2212      	movs	r2, #18
 800d2d8:	e880 0006 	stmia.w	r0, {r1, r2}
 800d2dc:	4770      	bx	lr
 800d2de:	bf00      	nop

0800d2e0 <_ZNK12_GLOBAL__N_125font_OSD_Charset_223_type8get_dataEv>:
 800d2e0:	4800      	ldr	r0, [pc, #0]	; (800d2e4 <_ZNK12_GLOBAL__N_125font_OSD_Charset_223_type8get_dataEv+0x4>)
 800d2e2:	4770      	bx	lr
 800d2e4:	080196f8 	.word	0x080196f8

0800d2e8 <_ZNK12_GLOBAL__N_125font_OSD_Charset_223_type8get_sizeEv>:
 800d2e8:	210c      	movs	r1, #12
 800d2ea:	2212      	movs	r2, #18
 800d2ec:	e880 0006 	stmia.w	r0, {r1, r2}
 800d2f0:	4770      	bx	lr
 800d2f2:	bf00      	nop

0800d2f4 <_ZNK12_GLOBAL__N_125font_OSD_Charset_224_type8get_dataEv>:
 800d2f4:	4800      	ldr	r0, [pc, #0]	; (800d2f8 <_ZNK12_GLOBAL__N_125font_OSD_Charset_224_type8get_dataEv+0x4>)
 800d2f6:	4770      	bx	lr
 800d2f8:	08016738 	.word	0x08016738

0800d2fc <_ZNK12_GLOBAL__N_125font_OSD_Charset_224_type8get_sizeEv>:
 800d2fc:	210c      	movs	r1, #12
 800d2fe:	2212      	movs	r2, #18
 800d300:	e880 0006 	stmia.w	r0, {r1, r2}
 800d304:	4770      	bx	lr
 800d306:	bf00      	nop

0800d308 <_ZNK12_GLOBAL__N_125font_OSD_Charset_225_type8get_dataEv>:
 800d308:	4800      	ldr	r0, [pc, #0]	; (800d30c <_ZNK12_GLOBAL__N_125font_OSD_Charset_225_type8get_dataEv+0x4>)
 800d30a:	4770      	bx	lr
 800d30c:	08015580 	.word	0x08015580

0800d310 <_ZNK12_GLOBAL__N_125font_OSD_Charset_225_type8get_sizeEv>:
 800d310:	210c      	movs	r1, #12
 800d312:	2212      	movs	r2, #18
 800d314:	e880 0006 	stmia.w	r0, {r1, r2}
 800d318:	4770      	bx	lr
 800d31a:	bf00      	nop

0800d31c <_ZNK12_GLOBAL__N_125font_OSD_Charset_226_type8get_dataEv>:
 800d31c:	4800      	ldr	r0, [pc, #0]	; (800d320 <_ZNK12_GLOBAL__N_125font_OSD_Charset_226_type8get_dataEv+0x4>)
 800d31e:	4770      	bx	lr
 800d320:	08019600 	.word	0x08019600

0800d324 <_ZNK12_GLOBAL__N_125font_OSD_Charset_226_type8get_sizeEv>:
 800d324:	210c      	movs	r1, #12
 800d326:	2212      	movs	r2, #18
 800d328:	e880 0006 	stmia.w	r0, {r1, r2}
 800d32c:	4770      	bx	lr
 800d32e:	bf00      	nop

0800d330 <_ZNK12_GLOBAL__N_125font_OSD_Charset_227_type8get_dataEv>:
 800d330:	4800      	ldr	r0, [pc, #0]	; (800d334 <_ZNK12_GLOBAL__N_125font_OSD_Charset_227_type8get_dataEv+0x4>)
 800d332:	4770      	bx	lr
 800d334:	080183e0 	.word	0x080183e0

0800d338 <_ZNK12_GLOBAL__N_125font_OSD_Charset_227_type8get_sizeEv>:
 800d338:	210c      	movs	r1, #12
 800d33a:	2212      	movs	r2, #18
 800d33c:	e880 0006 	stmia.w	r0, {r1, r2}
 800d340:	4770      	bx	lr
 800d342:	bf00      	nop

0800d344 <_ZNK12_GLOBAL__N_125font_OSD_Charset_228_type8get_dataEv>:
 800d344:	4800      	ldr	r0, [pc, #0]	; (800d348 <_ZNK12_GLOBAL__N_125font_OSD_Charset_228_type8get_dataEv+0x4>)
 800d346:	4770      	bx	lr
 800d348:	08016e90 	.word	0x08016e90

0800d34c <_ZNK12_GLOBAL__N_125font_OSD_Charset_228_type8get_sizeEv>:
 800d34c:	210c      	movs	r1, #12
 800d34e:	2212      	movs	r2, #18
 800d350:	e880 0006 	stmia.w	r0, {r1, r2}
 800d354:	4770      	bx	lr
 800d356:	bf00      	nop

0800d358 <_ZNK12_GLOBAL__N_125font_OSD_Charset_229_type8get_dataEv>:
 800d358:	4800      	ldr	r0, [pc, #0]	; (800d35c <_ZNK12_GLOBAL__N_125font_OSD_Charset_229_type8get_dataEv+0x4>)
 800d35a:	4770      	bx	lr
 800d35c:	08019510 	.word	0x08019510

0800d360 <_ZNK12_GLOBAL__N_125font_OSD_Charset_229_type8get_sizeEv>:
 800d360:	210c      	movs	r1, #12
 800d362:	2212      	movs	r2, #18
 800d364:	e880 0006 	stmia.w	r0, {r1, r2}
 800d368:	4770      	bx	lr
 800d36a:	bf00      	nop

0800d36c <_ZNK12_GLOBAL__N_125font_OSD_Charset_230_type8get_dataEv>:
 800d36c:	4800      	ldr	r0, [pc, #0]	; (800d370 <_ZNK12_GLOBAL__N_125font_OSD_Charset_230_type8get_dataEv+0x4>)
 800d36e:	4770      	bx	lr
 800d370:	080153d0 	.word	0x080153d0

0800d374 <_ZNK12_GLOBAL__N_125font_OSD_Charset_230_type8get_sizeEv>:
 800d374:	210c      	movs	r1, #12
 800d376:	2212      	movs	r2, #18
 800d378:	e880 0006 	stmia.w	r0, {r1, r2}
 800d37c:	4770      	bx	lr
 800d37e:	bf00      	nop

0800d380 <_ZNK12_GLOBAL__N_125font_OSD_Charset_231_type8get_dataEv>:
 800d380:	4800      	ldr	r0, [pc, #0]	; (800d384 <_ZNK12_GLOBAL__N_125font_OSD_Charset_231_type8get_dataEv+0x4>)
 800d382:	4770      	bx	lr
 800d384:	08017698 	.word	0x08017698

0800d388 <_ZNK12_GLOBAL__N_125font_OSD_Charset_231_type8get_sizeEv>:
 800d388:	210c      	movs	r1, #12
 800d38a:	2212      	movs	r2, #18
 800d38c:	e880 0006 	stmia.w	r0, {r1, r2}
 800d390:	4770      	bx	lr
 800d392:	bf00      	nop

0800d394 <_ZNK12_GLOBAL__N_125font_OSD_Charset_232_type8get_dataEv>:
 800d394:	4800      	ldr	r0, [pc, #0]	; (800d398 <_ZNK12_GLOBAL__N_125font_OSD_Charset_232_type8get_dataEv+0x4>)
 800d396:	4770      	bx	lr
 800d398:	08016468 	.word	0x08016468

0800d39c <_ZNK12_GLOBAL__N_125font_OSD_Charset_232_type8get_sizeEv>:
 800d39c:	210c      	movs	r1, #12
 800d39e:	2212      	movs	r2, #18
 800d3a0:	e880 0006 	stmia.w	r0, {r1, r2}
 800d3a4:	4770      	bx	lr
 800d3a6:	bf00      	nop

0800d3a8 <_ZNK12_GLOBAL__N_125font_OSD_Charset_233_type8get_dataEv>:
 800d3a8:	4800      	ldr	r0, [pc, #0]	; (800d3ac <_ZNK12_GLOBAL__N_125font_OSD_Charset_233_type8get_dataEv+0x4>)
 800d3aa:	4770      	bx	lr
 800d3ac:	08015330 	.word	0x08015330

0800d3b0 <_ZNK12_GLOBAL__N_125font_OSD_Charset_233_type8get_sizeEv>:
 800d3b0:	210c      	movs	r1, #12
 800d3b2:	2212      	movs	r2, #18
 800d3b4:	e880 0006 	stmia.w	r0, {r1, r2}
 800d3b8:	4770      	bx	lr
 800d3ba:	bf00      	nop

0800d3bc <_ZNK12_GLOBAL__N_125font_OSD_Charset_234_type8get_dataEv>:
 800d3bc:	4800      	ldr	r0, [pc, #0]	; (800d3c0 <_ZNK12_GLOBAL__N_125font_OSD_Charset_234_type8get_dataEv+0x4>)
 800d3be:	4770      	bx	lr
 800d3c0:	08019398 	.word	0x08019398

0800d3c4 <_ZNK12_GLOBAL__N_125font_OSD_Charset_234_type8get_sizeEv>:
 800d3c4:	210c      	movs	r1, #12
 800d3c6:	2212      	movs	r2, #18
 800d3c8:	e880 0006 	stmia.w	r0, {r1, r2}
 800d3cc:	4770      	bx	lr
 800d3ce:	bf00      	nop

0800d3d0 <_ZNK12_GLOBAL__N_125font_OSD_Charset_235_type8get_dataEv>:
 800d3d0:	4800      	ldr	r0, [pc, #0]	; (800d3d4 <_ZNK12_GLOBAL__N_125font_OSD_Charset_235_type8get_dataEv+0x4>)
 800d3d2:	4770      	bx	lr
 800d3d4:	08018100 	.word	0x08018100

0800d3d8 <_ZNK12_GLOBAL__N_125font_OSD_Charset_235_type8get_sizeEv>:
 800d3d8:	210c      	movs	r1, #12
 800d3da:	2212      	movs	r2, #18
 800d3dc:	e880 0006 	stmia.w	r0, {r1, r2}
 800d3e0:	4770      	bx	lr
 800d3e2:	bf00      	nop

0800d3e4 <_ZNK12_GLOBAL__N_125font_OSD_Charset_236_type8get_dataEv>:
 800d3e4:	4800      	ldr	r0, [pc, #0]	; (800d3e8 <_ZNK12_GLOBAL__N_125font_OSD_Charset_236_type8get_dataEv+0x4>)
 800d3e6:	4770      	bx	lr
 800d3e8:	08015208 	.word	0x08015208

0800d3ec <_ZNK12_GLOBAL__N_125font_OSD_Charset_236_type8get_sizeEv>:
 800d3ec:	210c      	movs	r1, #12
 800d3ee:	2212      	movs	r2, #18
 800d3f0:	e880 0006 	stmia.w	r0, {r1, r2}
 800d3f4:	4770      	bx	lr
 800d3f6:	bf00      	nop

0800d3f8 <_ZNK12_GLOBAL__N_125font_OSD_Charset_237_type8get_dataEv>:
 800d3f8:	4800      	ldr	r0, [pc, #0]	; (800d3fc <_ZNK12_GLOBAL__N_125font_OSD_Charset_237_type8get_dataEv+0x4>)
 800d3fa:	4770      	bx	lr
 800d3fc:	080192f0 	.word	0x080192f0

0800d400 <_ZNK12_GLOBAL__N_125font_OSD_Charset_237_type8get_sizeEv>:
 800d400:	210c      	movs	r1, #12
 800d402:	2212      	movs	r2, #18
 800d404:	e880 0006 	stmia.w	r0, {r1, r2}
 800d408:	4770      	bx	lr
 800d40a:	bf00      	nop

0800d40c <_ZNK12_GLOBAL__N_125font_OSD_Charset_238_type8get_dataEv>:
 800d40c:	4800      	ldr	r0, [pc, #0]	; (800d410 <_ZNK12_GLOBAL__N_125font_OSD_Charset_238_type8get_dataEv+0x4>)
 800d40e:	4770      	bx	lr
 800d410:	08017c40 	.word	0x08017c40

0800d414 <_ZNK12_GLOBAL__N_125font_OSD_Charset_238_type8get_sizeEv>:
 800d414:	210c      	movs	r1, #12
 800d416:	2212      	movs	r2, #18
 800d418:	e880 0006 	stmia.w	r0, {r1, r2}
 800d41c:	4770      	bx	lr
 800d41e:	bf00      	nop

0800d420 <_ZNK12_GLOBAL__N_125font_OSD_Charset_239_type8get_dataEv>:
 800d420:	4800      	ldr	r0, [pc, #0]	; (800d424 <_ZNK12_GLOBAL__N_125font_OSD_Charset_239_type8get_dataEv+0x4>)
 800d422:	4770      	bx	lr
 800d424:	08016b60 	.word	0x08016b60

0800d428 <_ZNK12_GLOBAL__N_125font_OSD_Charset_239_type8get_sizeEv>:
 800d428:	210c      	movs	r1, #12
 800d42a:	2212      	movs	r2, #18
 800d42c:	e880 0006 	stmia.w	r0, {r1, r2}
 800d430:	4770      	bx	lr
 800d432:	bf00      	nop

0800d434 <_ZNK12_GLOBAL__N_125font_OSD_Charset_240_type8get_dataEv>:
 800d434:	4800      	ldr	r0, [pc, #0]	; (800d438 <_ZNK12_GLOBAL__N_125font_OSD_Charset_240_type8get_dataEv+0x4>)
 800d436:	4770      	bx	lr
 800d438:	08016238 	.word	0x08016238

0800d43c <_ZNK12_GLOBAL__N_125font_OSD_Charset_240_type8get_sizeEv>:
 800d43c:	210c      	movs	r1, #12
 800d43e:	2212      	movs	r2, #18
 800d440:	e880 0006 	stmia.w	r0, {r1, r2}
 800d444:	4770      	bx	lr
 800d446:	bf00      	nop

0800d448 <_ZNK12_GLOBAL__N_125font_OSD_Charset_241_type8get_dataEv>:
 800d448:	4800      	ldr	r0, [pc, #0]	; (800d44c <_ZNK12_GLOBAL__N_125font_OSD_Charset_241_type8get_dataEv+0x4>)
 800d44a:	4770      	bx	lr
 800d44c:	08015048 	.word	0x08015048

0800d450 <_ZNK12_GLOBAL__N_125font_OSD_Charset_241_type8get_sizeEv>:
 800d450:	210c      	movs	r1, #12
 800d452:	2212      	movs	r2, #18
 800d454:	e880 0006 	stmia.w	r0, {r1, r2}
 800d458:	4770      	bx	lr
 800d45a:	bf00      	nop

0800d45c <_ZNK12_GLOBAL__N_125font_OSD_Charset_242_type8get_dataEv>:
 800d45c:	4800      	ldr	r0, [pc, #0]	; (800d460 <_ZNK12_GLOBAL__N_125font_OSD_Charset_242_type8get_dataEv+0x4>)
 800d45e:	4770      	bx	lr
 800d460:	08019168 	.word	0x08019168

0800d464 <_ZNK12_GLOBAL__N_125font_OSD_Charset_242_type8get_sizeEv>:
 800d464:	210c      	movs	r1, #12
 800d466:	2212      	movs	r2, #18
 800d468:	e880 0006 	stmia.w	r0, {r1, r2}
 800d46c:	4770      	bx	lr
 800d46e:	bf00      	nop

0800d470 <_ZNK12_GLOBAL__N_125font_OSD_Charset_243_type8get_dataEv>:
 800d470:	4800      	ldr	r0, [pc, #0]	; (800d474 <_ZNK12_GLOBAL__N_125font_OSD_Charset_243_type8get_dataEv+0x4>)
 800d472:	4770      	bx	lr
 800d474:	08016180 	.word	0x08016180

0800d478 <_ZNK12_GLOBAL__N_125font_OSD_Charset_243_type8get_sizeEv>:
 800d478:	210c      	movs	r1, #12
 800d47a:	2212      	movs	r2, #18
 800d47c:	e880 0006 	stmia.w	r0, {r1, r2}
 800d480:	4770      	bx	lr
 800d482:	bf00      	nop

0800d484 <_ZNK12_GLOBAL__N_125font_OSD_Charset_244_type8get_dataEv>:
 800d484:	4800      	ldr	r0, [pc, #0]	; (800d488 <_ZNK12_GLOBAL__N_125font_OSD_Charset_244_type8get_dataEv+0x4>)
 800d486:	4770      	bx	lr
 800d488:	08014fa0 	.word	0x08014fa0

0800d48c <_ZNK12_GLOBAL__N_125font_OSD_Charset_244_type8get_sizeEv>:
 800d48c:	210c      	movs	r1, #12
 800d48e:	2212      	movs	r2, #18
 800d490:	e880 0006 	stmia.w	r0, {r1, r2}
 800d494:	4770      	bx	lr
 800d496:	bf00      	nop

0800d498 <_ZNK12_GLOBAL__N_125font_OSD_Charset_245_type8get_dataEv>:
 800d498:	4800      	ldr	r0, [pc, #0]	; (800d49c <_ZNK12_GLOBAL__N_125font_OSD_Charset_245_type8get_dataEv+0x4>)
 800d49a:	4770      	bx	lr
 800d49c:	080190e0 	.word	0x080190e0

0800d4a0 <_ZNK12_GLOBAL__N_125font_OSD_Charset_245_type8get_sizeEv>:
 800d4a0:	210c      	movs	r1, #12
 800d4a2:	2212      	movs	r2, #18
 800d4a4:	e880 0006 	stmia.w	r0, {r1, r2}
 800d4a8:	4770      	bx	lr
 800d4aa:	bf00      	nop

0800d4ac <_ZNK12_GLOBAL__N_125font_OSD_Charset_246_type8get_dataEv>:
 800d4ac:	4800      	ldr	r0, [pc, #0]	; (800d4b0 <_ZNK12_GLOBAL__N_125font_OSD_Charset_246_type8get_dataEv+0x4>)
 800d4ae:	4770      	bx	lr
 800d4b0:	08017a00 	.word	0x08017a00

0800d4b4 <_ZNK12_GLOBAL__N_125font_OSD_Charset_246_type8get_sizeEv>:
 800d4b4:	210c      	movs	r1, #12
 800d4b6:	2212      	movs	r2, #18
 800d4b8:	e880 0006 	stmia.w	r0, {r1, r2}
 800d4bc:	4770      	bx	lr
 800d4be:	bf00      	nop

0800d4c0 <_ZNK12_GLOBAL__N_125font_OSD_Charset_247_type8get_dataEv>:
 800d4c0:	4800      	ldr	r0, [pc, #0]	; (800d4c4 <_ZNK12_GLOBAL__N_125font_OSD_Charset_247_type8get_dataEv+0x4>)
 800d4c2:	4770      	bx	lr
 800d4c4:	080168e0 	.word	0x080168e0

0800d4c8 <_ZNK12_GLOBAL__N_125font_OSD_Charset_247_type8get_sizeEv>:
 800d4c8:	210c      	movs	r1, #12
 800d4ca:	2212      	movs	r2, #18
 800d4cc:	e880 0006 	stmia.w	r0, {r1, r2}
 800d4d0:	4770      	bx	lr
 800d4d2:	bf00      	nop

0800d4d4 <_ZNK12_GLOBAL__N_125font_OSD_Charset_248_type8get_dataEv>:
 800d4d4:	4800      	ldr	r0, [pc, #0]	; (800d4d8 <_ZNK12_GLOBAL__N_125font_OSD_Charset_248_type8get_dataEv+0x4>)
 800d4d6:	4770      	bx	lr
 800d4d8:	08019000 	.word	0x08019000

0800d4dc <_ZNK12_GLOBAL__N_125font_OSD_Charset_248_type8get_sizeEv>:
 800d4dc:	210c      	movs	r1, #12
 800d4de:	2212      	movs	r2, #18
 800d4e0:	e880 0006 	stmia.w	r0, {r1, r2}
 800d4e4:	4770      	bx	lr
 800d4e6:	bf00      	nop

0800d4e8 <_ZNK12_GLOBAL__N_125font_OSD_Charset_249_type8get_dataEv>:
 800d4e8:	4800      	ldr	r0, [pc, #0]	; (800d4ec <_ZNK12_GLOBAL__N_125font_OSD_Charset_249_type8get_dataEv+0x4>)
 800d4ea:	4770      	bx	lr
 800d4ec:	08017920 	.word	0x08017920

0800d4f0 <_ZNK12_GLOBAL__N_125font_OSD_Charset_249_type8get_sizeEv>:
 800d4f0:	210c      	movs	r1, #12
 800d4f2:	2212      	movs	r2, #18
 800d4f4:	e880 0006 	stmia.w	r0, {r1, r2}
 800d4f8:	4770      	bx	lr
 800d4fa:	bf00      	nop

0800d4fc <_ZNK12_GLOBAL__N_125font_OSD_Charset_250_type8get_dataEv>:
 800d4fc:	4800      	ldr	r0, [pc, #0]	; (800d500 <_ZNK12_GLOBAL__N_125font_OSD_Charset_250_type8get_dataEv+0x4>)
 800d4fe:	4770      	bx	lr
 800d500:	08017208 	.word	0x08017208

0800d504 <_ZNK12_GLOBAL__N_125font_OSD_Charset_250_type8get_sizeEv>:
 800d504:	210c      	movs	r1, #12
 800d506:	2212      	movs	r2, #18
 800d508:	e880 0006 	stmia.w	r0, {r1, r2}
 800d50c:	4770      	bx	lr
 800d50e:	bf00      	nop

0800d510 <_ZNK12_GLOBAL__N_125font_OSD_Charset_251_type8get_dataEv>:
 800d510:	4800      	ldr	r0, [pc, #0]	; (800d514 <_ZNK12_GLOBAL__N_125font_OSD_Charset_251_type8get_dataEv+0x4>)
 800d512:	4770      	bx	lr
 800d514:	08015fb8 	.word	0x08015fb8

0800d518 <_ZNK12_GLOBAL__N_125font_OSD_Charset_251_type8get_sizeEv>:
 800d518:	210c      	movs	r1, #12
 800d51a:	2212      	movs	r2, #18
 800d51c:	e880 0006 	stmia.w	r0, {r1, r2}
 800d520:	4770      	bx	lr
 800d522:	bf00      	nop

0800d524 <_ZNK12_GLOBAL__N_125font_OSD_Charset_252_type8get_dataEv>:
 800d524:	4800      	ldr	r0, [pc, #0]	; (800d528 <_ZNK12_GLOBAL__N_125font_OSD_Charset_252_type8get_dataEv+0x4>)
 800d526:	4770      	bx	lr
 800d528:	08014d58 	.word	0x08014d58

0800d52c <_ZNK12_GLOBAL__N_125font_OSD_Charset_252_type8get_sizeEv>:
 800d52c:	210c      	movs	r1, #12
 800d52e:	2212      	movs	r2, #18
 800d530:	e880 0006 	stmia.w	r0, {r1, r2}
 800d534:	4770      	bx	lr
 800d536:	bf00      	nop

0800d538 <_ZNK12_GLOBAL__N_125font_OSD_Charset_253_type8get_dataEv>:
 800d538:	4800      	ldr	r0, [pc, #0]	; (800d53c <_ZNK12_GLOBAL__N_125font_OSD_Charset_253_type8get_dataEv+0x4>)
 800d53a:	4770      	bx	lr
 800d53c:	08018e78 	.word	0x08018e78

0800d540 <_ZNK12_GLOBAL__N_125font_OSD_Charset_253_type8get_sizeEv>:
 800d540:	210c      	movs	r1, #12
 800d542:	2212      	movs	r2, #18
 800d544:	e880 0006 	stmia.w	r0, {r1, r2}
 800d548:	4770      	bx	lr
 800d54a:	bf00      	nop

0800d54c <_ZNK12_GLOBAL__N_125font_OSD_Charset_254_type8get_dataEv>:
 800d54c:	4800      	ldr	r0, [pc, #0]	; (800d550 <_ZNK12_GLOBAL__N_125font_OSD_Charset_254_type8get_dataEv+0x4>)
 800d54e:	4770      	bx	lr
 800d550:	080177f8 	.word	0x080177f8

0800d554 <_ZNK12_GLOBAL__N_125font_OSD_Charset_254_type8get_sizeEv>:
 800d554:	210c      	movs	r1, #12
 800d556:	2212      	movs	r2, #18
 800d558:	e880 0006 	stmia.w	r0, {r1, r2}
 800d55c:	4770      	bx	lr
 800d55e:	bf00      	nop

0800d560 <_ZNK12_GLOBAL__N_125font_OSD_Charset_255_type8get_dataEv>:
 800d560:	4800      	ldr	r0, [pc, #0]	; (800d564 <_ZNK12_GLOBAL__N_125font_OSD_Charset_255_type8get_dataEv+0x4>)
 800d562:	4770      	bx	lr
 800d564:	08014c10 	.word	0x08014c10

0800d568 <_ZNK12_GLOBAL__N_125font_OSD_Charset_255_type8get_sizeEv>:
 800d568:	210c      	movs	r1, #12
 800d56a:	2212      	movs	r2, #18
 800d56c:	e880 0006 	stmia.w	r0, {r1, r2}
 800d570:	4770      	bx	lr
 800d572:	bf00      	nop

0800d574 <_ZNK12_GLOBAL__N_121font_OSD_Charset_type9get_beginEv>:
 800d574:	2000      	movs	r0, #0
 800d576:	4770      	bx	lr

0800d578 <_ZNK12_GLOBAL__N_121font_OSD_Charset_type15get_char_heightEv>:
 800d578:	2012      	movs	r0, #18
 800d57a:	4770      	bx	lr

0800d57c <_ZNK12_GLOBAL__N_121font_OSD_Charset_type14get_char_widthEv>:
 800d57c:	200c      	movs	r0, #12
 800d57e:	4770      	bx	lr

0800d580 <_ZNK12_GLOBAL__N_121font_OSD_Charset_type16get_num_elementsEv>:
 800d580:	f44f 7080 	mov.w	r0, #256	; 0x100
 800d584:	4770      	bx	lr
 800d586:	bf00      	nop

0800d588 <_ZNK12_GLOBAL__N_121font_OSD_Charset_type11get_char_atEl>:
 800d588:	29ff      	cmp	r1, #255	; 0xff
 800d58a:	bf9a      	itte	ls
 800d58c:	4b02      	ldrls	r3, [pc, #8]	; (800d598 <_ZNK12_GLOBAL__N_121font_OSD_Charset_type11get_char_atEl+0x10>)
 800d58e:	f853 0021 	ldrls.w	r0, [r3, r1, lsl #2]
 800d592:	2000      	movhi	r0, #0
 800d594:	4770      	bx	lr
 800d596:	bf00      	nop
 800d598:	08017cc8 	.word	0x08017cc8

0800d59c <_ZN12_GLOBAL__N_121font_OSD_Charset_typeD1Ev>:
 800d59c:	4770      	bx	lr
 800d59e:	bf00      	nop

0800d5a0 <_ZN12_GLOBAL__N_125font_OSD_Charset_255_typeD1Ev>:
 800d5a0:	4770      	bx	lr
 800d5a2:	bf00      	nop

0800d5a4 <_ZN12_GLOBAL__N_125font_OSD_Charset_254_typeD1Ev>:
 800d5a4:	4770      	bx	lr
 800d5a6:	bf00      	nop

0800d5a8 <_ZN12_GLOBAL__N_125font_OSD_Charset_253_typeD1Ev>:
 800d5a8:	4770      	bx	lr
 800d5aa:	bf00      	nop

0800d5ac <_ZN12_GLOBAL__N_125font_OSD_Charset_252_typeD1Ev>:
 800d5ac:	4770      	bx	lr
 800d5ae:	bf00      	nop

0800d5b0 <_ZN12_GLOBAL__N_125font_OSD_Charset_251_typeD1Ev>:
 800d5b0:	4770      	bx	lr
 800d5b2:	bf00      	nop

0800d5b4 <_ZN12_GLOBAL__N_125font_OSD_Charset_250_typeD1Ev>:
 800d5b4:	4770      	bx	lr
 800d5b6:	bf00      	nop

0800d5b8 <_ZN12_GLOBAL__N_125font_OSD_Charset_249_typeD1Ev>:
 800d5b8:	4770      	bx	lr
 800d5ba:	bf00      	nop

0800d5bc <_ZN12_GLOBAL__N_125font_OSD_Charset_248_typeD1Ev>:
 800d5bc:	4770      	bx	lr
 800d5be:	bf00      	nop

0800d5c0 <_ZN12_GLOBAL__N_125font_OSD_Charset_247_typeD1Ev>:
 800d5c0:	4770      	bx	lr
 800d5c2:	bf00      	nop

0800d5c4 <_ZN12_GLOBAL__N_125font_OSD_Charset_246_typeD1Ev>:
 800d5c4:	4770      	bx	lr
 800d5c6:	bf00      	nop

0800d5c8 <_ZN12_GLOBAL__N_125font_OSD_Charset_245_typeD1Ev>:
 800d5c8:	4770      	bx	lr
 800d5ca:	bf00      	nop

0800d5cc <_ZN12_GLOBAL__N_125font_OSD_Charset_244_typeD1Ev>:
 800d5cc:	4770      	bx	lr
 800d5ce:	bf00      	nop

0800d5d0 <_ZN12_GLOBAL__N_125font_OSD_Charset_243_typeD1Ev>:
 800d5d0:	4770      	bx	lr
 800d5d2:	bf00      	nop

0800d5d4 <_ZN12_GLOBAL__N_125font_OSD_Charset_242_typeD1Ev>:
 800d5d4:	4770      	bx	lr
 800d5d6:	bf00      	nop

0800d5d8 <_ZN12_GLOBAL__N_125font_OSD_Charset_241_typeD1Ev>:
 800d5d8:	4770      	bx	lr
 800d5da:	bf00      	nop

0800d5dc <_ZN12_GLOBAL__N_125font_OSD_Charset_240_typeD1Ev>:
 800d5dc:	4770      	bx	lr
 800d5de:	bf00      	nop

0800d5e0 <_ZN12_GLOBAL__N_125font_OSD_Charset_239_typeD1Ev>:
 800d5e0:	4770      	bx	lr
 800d5e2:	bf00      	nop

0800d5e4 <_ZN12_GLOBAL__N_125font_OSD_Charset_238_typeD1Ev>:
 800d5e4:	4770      	bx	lr
 800d5e6:	bf00      	nop

0800d5e8 <_ZN12_GLOBAL__N_125font_OSD_Charset_237_typeD1Ev>:
 800d5e8:	4770      	bx	lr
 800d5ea:	bf00      	nop

0800d5ec <_ZN12_GLOBAL__N_125font_OSD_Charset_236_typeD1Ev>:
 800d5ec:	4770      	bx	lr
 800d5ee:	bf00      	nop

0800d5f0 <_ZN12_GLOBAL__N_125font_OSD_Charset_235_typeD1Ev>:
 800d5f0:	4770      	bx	lr
 800d5f2:	bf00      	nop

0800d5f4 <_ZN12_GLOBAL__N_125font_OSD_Charset_234_typeD1Ev>:
 800d5f4:	4770      	bx	lr
 800d5f6:	bf00      	nop

0800d5f8 <_ZN12_GLOBAL__N_125font_OSD_Charset_233_typeD1Ev>:
 800d5f8:	4770      	bx	lr
 800d5fa:	bf00      	nop

0800d5fc <_ZN12_GLOBAL__N_125font_OSD_Charset_232_typeD1Ev>:
 800d5fc:	4770      	bx	lr
 800d5fe:	bf00      	nop

0800d600 <_ZN12_GLOBAL__N_125font_OSD_Charset_231_typeD1Ev>:
 800d600:	4770      	bx	lr
 800d602:	bf00      	nop

0800d604 <_ZN12_GLOBAL__N_125font_OSD_Charset_230_typeD1Ev>:
 800d604:	4770      	bx	lr
 800d606:	bf00      	nop

0800d608 <_ZN12_GLOBAL__N_125font_OSD_Charset_229_typeD1Ev>:
 800d608:	4770      	bx	lr
 800d60a:	bf00      	nop

0800d60c <_ZN12_GLOBAL__N_125font_OSD_Charset_228_typeD1Ev>:
 800d60c:	4770      	bx	lr
 800d60e:	bf00      	nop

0800d610 <_ZN12_GLOBAL__N_125font_OSD_Charset_227_typeD1Ev>:
 800d610:	4770      	bx	lr
 800d612:	bf00      	nop

0800d614 <_ZN12_GLOBAL__N_125font_OSD_Charset_226_typeD1Ev>:
 800d614:	4770      	bx	lr
 800d616:	bf00      	nop

0800d618 <_ZN12_GLOBAL__N_125font_OSD_Charset_225_typeD1Ev>:
 800d618:	4770      	bx	lr
 800d61a:	bf00      	nop

0800d61c <_ZN12_GLOBAL__N_125font_OSD_Charset_224_typeD1Ev>:
 800d61c:	4770      	bx	lr
 800d61e:	bf00      	nop

0800d620 <_ZN12_GLOBAL__N_125font_OSD_Charset_223_typeD1Ev>:
 800d620:	4770      	bx	lr
 800d622:	bf00      	nop

0800d624 <_ZN12_GLOBAL__N_125font_OSD_Charset_222_typeD1Ev>:
 800d624:	4770      	bx	lr
 800d626:	bf00      	nop

0800d628 <_ZN12_GLOBAL__N_125font_OSD_Charset_221_typeD1Ev>:
 800d628:	4770      	bx	lr
 800d62a:	bf00      	nop

0800d62c <_ZN12_GLOBAL__N_125font_OSD_Charset_220_typeD1Ev>:
 800d62c:	4770      	bx	lr
 800d62e:	bf00      	nop

0800d630 <_ZN12_GLOBAL__N_125font_OSD_Charset_219_typeD1Ev>:
 800d630:	4770      	bx	lr
 800d632:	bf00      	nop

0800d634 <_ZN12_GLOBAL__N_125font_OSD_Charset_218_typeD1Ev>:
 800d634:	4770      	bx	lr
 800d636:	bf00      	nop

0800d638 <_ZN12_GLOBAL__N_125font_OSD_Charset_217_typeD1Ev>:
 800d638:	4770      	bx	lr
 800d63a:	bf00      	nop

0800d63c <_ZN12_GLOBAL__N_125font_OSD_Charset_216_typeD1Ev>:
 800d63c:	4770      	bx	lr
 800d63e:	bf00      	nop

0800d640 <_ZN12_GLOBAL__N_125font_OSD_Charset_215_typeD1Ev>:
 800d640:	4770      	bx	lr
 800d642:	bf00      	nop

0800d644 <_ZN12_GLOBAL__N_125font_OSD_Charset_214_typeD1Ev>:
 800d644:	4770      	bx	lr
 800d646:	bf00      	nop

0800d648 <_ZN12_GLOBAL__N_125font_OSD_Charset_213_typeD1Ev>:
 800d648:	4770      	bx	lr
 800d64a:	bf00      	nop

0800d64c <_ZN12_GLOBAL__N_125font_OSD_Charset_212_typeD1Ev>:
 800d64c:	4770      	bx	lr
 800d64e:	bf00      	nop

0800d650 <_ZN12_GLOBAL__N_125font_OSD_Charset_211_typeD1Ev>:
 800d650:	4770      	bx	lr
 800d652:	bf00      	nop

0800d654 <_ZN12_GLOBAL__N_125font_OSD_Charset_210_typeD1Ev>:
 800d654:	4770      	bx	lr
 800d656:	bf00      	nop

0800d658 <_ZN12_GLOBAL__N_125font_OSD_Charset_209_typeD1Ev>:
 800d658:	4770      	bx	lr
 800d65a:	bf00      	nop

0800d65c <_ZN12_GLOBAL__N_125font_OSD_Charset_208_typeD1Ev>:
 800d65c:	4770      	bx	lr
 800d65e:	bf00      	nop

0800d660 <_ZN12_GLOBAL__N_125font_OSD_Charset_207_typeD1Ev>:
 800d660:	4770      	bx	lr
 800d662:	bf00      	nop

0800d664 <_ZN12_GLOBAL__N_125font_OSD_Charset_206_typeD1Ev>:
 800d664:	4770      	bx	lr
 800d666:	bf00      	nop

0800d668 <_ZN12_GLOBAL__N_125font_OSD_Charset_205_typeD1Ev>:
 800d668:	4770      	bx	lr
 800d66a:	bf00      	nop

0800d66c <_ZN12_GLOBAL__N_125font_OSD_Charset_204_typeD1Ev>:
 800d66c:	4770      	bx	lr
 800d66e:	bf00      	nop

0800d670 <_ZN12_GLOBAL__N_125font_OSD_Charset_203_typeD1Ev>:
 800d670:	4770      	bx	lr
 800d672:	bf00      	nop

0800d674 <_ZN12_GLOBAL__N_125font_OSD_Charset_202_typeD1Ev>:
 800d674:	4770      	bx	lr
 800d676:	bf00      	nop

0800d678 <_ZN12_GLOBAL__N_125font_OSD_Charset_201_typeD1Ev>:
 800d678:	4770      	bx	lr
 800d67a:	bf00      	nop

0800d67c <_ZN12_GLOBAL__N_125font_OSD_Charset_200_typeD1Ev>:
 800d67c:	4770      	bx	lr
 800d67e:	bf00      	nop

0800d680 <_ZN12_GLOBAL__N_125font_OSD_Charset_199_typeD1Ev>:
 800d680:	4770      	bx	lr
 800d682:	bf00      	nop

0800d684 <_ZN12_GLOBAL__N_125font_OSD_Charset_198_typeD1Ev>:
 800d684:	4770      	bx	lr
 800d686:	bf00      	nop

0800d688 <_ZN12_GLOBAL__N_125font_OSD_Charset_197_typeD1Ev>:
 800d688:	4770      	bx	lr
 800d68a:	bf00      	nop

0800d68c <_ZN12_GLOBAL__N_125font_OSD_Charset_196_typeD1Ev>:
 800d68c:	4770      	bx	lr
 800d68e:	bf00      	nop

0800d690 <_ZN12_GLOBAL__N_125font_OSD_Charset_195_typeD1Ev>:
 800d690:	4770      	bx	lr
 800d692:	bf00      	nop

0800d694 <_ZN12_GLOBAL__N_125font_OSD_Charset_194_typeD1Ev>:
 800d694:	4770      	bx	lr
 800d696:	bf00      	nop

0800d698 <_ZN12_GLOBAL__N_125font_OSD_Charset_193_typeD1Ev>:
 800d698:	4770      	bx	lr
 800d69a:	bf00      	nop

0800d69c <_ZN12_GLOBAL__N_125font_OSD_Charset_192_typeD1Ev>:
 800d69c:	4770      	bx	lr
 800d69e:	bf00      	nop

0800d6a0 <_ZN12_GLOBAL__N_125font_OSD_Charset_191_typeD1Ev>:
 800d6a0:	4770      	bx	lr
 800d6a2:	bf00      	nop

0800d6a4 <_ZN12_GLOBAL__N_125font_OSD_Charset_190_typeD1Ev>:
 800d6a4:	4770      	bx	lr
 800d6a6:	bf00      	nop

0800d6a8 <_ZN12_GLOBAL__N_125font_OSD_Charset_189_typeD1Ev>:
 800d6a8:	4770      	bx	lr
 800d6aa:	bf00      	nop

0800d6ac <_ZN12_GLOBAL__N_125font_OSD_Charset_188_typeD1Ev>:
 800d6ac:	4770      	bx	lr
 800d6ae:	bf00      	nop

0800d6b0 <_ZN12_GLOBAL__N_125font_OSD_Charset_187_typeD1Ev>:
 800d6b0:	4770      	bx	lr
 800d6b2:	bf00      	nop

0800d6b4 <_ZN12_GLOBAL__N_125font_OSD_Charset_186_typeD1Ev>:
 800d6b4:	4770      	bx	lr
 800d6b6:	bf00      	nop

0800d6b8 <_ZN12_GLOBAL__N_125font_OSD_Charset_185_typeD1Ev>:
 800d6b8:	4770      	bx	lr
 800d6ba:	bf00      	nop

0800d6bc <_ZN12_GLOBAL__N_125font_OSD_Charset_184_typeD1Ev>:
 800d6bc:	4770      	bx	lr
 800d6be:	bf00      	nop

0800d6c0 <_ZN12_GLOBAL__N_125font_OSD_Charset_183_typeD1Ev>:
 800d6c0:	4770      	bx	lr
 800d6c2:	bf00      	nop

0800d6c4 <_ZN12_GLOBAL__N_125font_OSD_Charset_182_typeD1Ev>:
 800d6c4:	4770      	bx	lr
 800d6c6:	bf00      	nop

0800d6c8 <_ZN12_GLOBAL__N_125font_OSD_Charset_181_typeD1Ev>:
 800d6c8:	4770      	bx	lr
 800d6ca:	bf00      	nop

0800d6cc <_ZN12_GLOBAL__N_125font_OSD_Charset_180_typeD1Ev>:
 800d6cc:	4770      	bx	lr
 800d6ce:	bf00      	nop

0800d6d0 <_ZN12_GLOBAL__N_125font_OSD_Charset_179_typeD1Ev>:
 800d6d0:	4770      	bx	lr
 800d6d2:	bf00      	nop

0800d6d4 <_ZN12_GLOBAL__N_125font_OSD_Charset_178_typeD1Ev>:
 800d6d4:	4770      	bx	lr
 800d6d6:	bf00      	nop

0800d6d8 <_ZN12_GLOBAL__N_125font_OSD_Charset_177_typeD1Ev>:
 800d6d8:	4770      	bx	lr
 800d6da:	bf00      	nop

0800d6dc <_ZN12_GLOBAL__N_125font_OSD_Charset_176_typeD1Ev>:
 800d6dc:	4770      	bx	lr
 800d6de:	bf00      	nop

0800d6e0 <_ZN12_GLOBAL__N_125font_OSD_Charset_175_typeD1Ev>:
 800d6e0:	4770      	bx	lr
 800d6e2:	bf00      	nop

0800d6e4 <_ZN12_GLOBAL__N_125font_OSD_Charset_174_typeD1Ev>:
 800d6e4:	4770      	bx	lr
 800d6e6:	bf00      	nop

0800d6e8 <_ZN12_GLOBAL__N_125font_OSD_Charset_173_typeD1Ev>:
 800d6e8:	4770      	bx	lr
 800d6ea:	bf00      	nop

0800d6ec <_ZN12_GLOBAL__N_125font_OSD_Charset_172_typeD1Ev>:
 800d6ec:	4770      	bx	lr
 800d6ee:	bf00      	nop

0800d6f0 <_ZN12_GLOBAL__N_125font_OSD_Charset_171_typeD1Ev>:
 800d6f0:	4770      	bx	lr
 800d6f2:	bf00      	nop

0800d6f4 <_ZN12_GLOBAL__N_125font_OSD_Charset_170_typeD1Ev>:
 800d6f4:	4770      	bx	lr
 800d6f6:	bf00      	nop

0800d6f8 <_ZN12_GLOBAL__N_125font_OSD_Charset_169_typeD1Ev>:
 800d6f8:	4770      	bx	lr
 800d6fa:	bf00      	nop

0800d6fc <_ZN12_GLOBAL__N_125font_OSD_Charset_168_typeD1Ev>:
 800d6fc:	4770      	bx	lr
 800d6fe:	bf00      	nop

0800d700 <_ZN12_GLOBAL__N_125font_OSD_Charset_167_typeD1Ev>:
 800d700:	4770      	bx	lr
 800d702:	bf00      	nop

0800d704 <_ZN12_GLOBAL__N_125font_OSD_Charset_166_typeD1Ev>:
 800d704:	4770      	bx	lr
 800d706:	bf00      	nop

0800d708 <_ZN12_GLOBAL__N_125font_OSD_Charset_165_typeD1Ev>:
 800d708:	4770      	bx	lr
 800d70a:	bf00      	nop

0800d70c <_ZN12_GLOBAL__N_125font_OSD_Charset_164_typeD1Ev>:
 800d70c:	4770      	bx	lr
 800d70e:	bf00      	nop

0800d710 <_ZN12_GLOBAL__N_125font_OSD_Charset_163_typeD1Ev>:
 800d710:	4770      	bx	lr
 800d712:	bf00      	nop

0800d714 <_ZN12_GLOBAL__N_125font_OSD_Charset_162_typeD1Ev>:
 800d714:	4770      	bx	lr
 800d716:	bf00      	nop

0800d718 <_ZN12_GLOBAL__N_125font_OSD_Charset_161_typeD1Ev>:
 800d718:	4770      	bx	lr
 800d71a:	bf00      	nop

0800d71c <_ZN12_GLOBAL__N_125font_OSD_Charset_160_typeD1Ev>:
 800d71c:	4770      	bx	lr
 800d71e:	bf00      	nop

0800d720 <_ZN12_GLOBAL__N_125font_OSD_Charset_159_typeD1Ev>:
 800d720:	4770      	bx	lr
 800d722:	bf00      	nop

0800d724 <_ZN12_GLOBAL__N_125font_OSD_Charset_158_typeD1Ev>:
 800d724:	4770      	bx	lr
 800d726:	bf00      	nop

0800d728 <_ZN12_GLOBAL__N_125font_OSD_Charset_157_typeD1Ev>:
 800d728:	4770      	bx	lr
 800d72a:	bf00      	nop

0800d72c <_ZN12_GLOBAL__N_125font_OSD_Charset_156_typeD1Ev>:
 800d72c:	4770      	bx	lr
 800d72e:	bf00      	nop

0800d730 <_ZN12_GLOBAL__N_125font_OSD_Charset_155_typeD1Ev>:
 800d730:	4770      	bx	lr
 800d732:	bf00      	nop

0800d734 <_ZN12_GLOBAL__N_125font_OSD_Charset_154_typeD1Ev>:
 800d734:	4770      	bx	lr
 800d736:	bf00      	nop

0800d738 <_ZN12_GLOBAL__N_125font_OSD_Charset_153_typeD1Ev>:
 800d738:	4770      	bx	lr
 800d73a:	bf00      	nop

0800d73c <_ZN12_GLOBAL__N_125font_OSD_Charset_152_typeD1Ev>:
 800d73c:	4770      	bx	lr
 800d73e:	bf00      	nop

0800d740 <_ZN12_GLOBAL__N_125font_OSD_Charset_151_typeD1Ev>:
 800d740:	4770      	bx	lr
 800d742:	bf00      	nop

0800d744 <_ZN12_GLOBAL__N_125font_OSD_Charset_150_typeD1Ev>:
 800d744:	4770      	bx	lr
 800d746:	bf00      	nop

0800d748 <_ZN12_GLOBAL__N_125font_OSD_Charset_149_typeD1Ev>:
 800d748:	4770      	bx	lr
 800d74a:	bf00      	nop

0800d74c <_ZN12_GLOBAL__N_125font_OSD_Charset_148_typeD1Ev>:
 800d74c:	4770      	bx	lr
 800d74e:	bf00      	nop

0800d750 <_ZN12_GLOBAL__N_125font_OSD_Charset_147_typeD1Ev>:
 800d750:	4770      	bx	lr
 800d752:	bf00      	nop

0800d754 <_ZN12_GLOBAL__N_125font_OSD_Charset_146_typeD1Ev>:
 800d754:	4770      	bx	lr
 800d756:	bf00      	nop

0800d758 <_ZN12_GLOBAL__N_125font_OSD_Charset_145_typeD1Ev>:
 800d758:	4770      	bx	lr
 800d75a:	bf00      	nop

0800d75c <_ZN12_GLOBAL__N_125font_OSD_Charset_144_typeD1Ev>:
 800d75c:	4770      	bx	lr
 800d75e:	bf00      	nop

0800d760 <_ZN12_GLOBAL__N_125font_OSD_Charset_143_typeD1Ev>:
 800d760:	4770      	bx	lr
 800d762:	bf00      	nop

0800d764 <_ZN12_GLOBAL__N_125font_OSD_Charset_142_typeD1Ev>:
 800d764:	4770      	bx	lr
 800d766:	bf00      	nop

0800d768 <_ZN12_GLOBAL__N_125font_OSD_Charset_141_typeD1Ev>:
 800d768:	4770      	bx	lr
 800d76a:	bf00      	nop

0800d76c <_ZN12_GLOBAL__N_125font_OSD_Charset_140_typeD1Ev>:
 800d76c:	4770      	bx	lr
 800d76e:	bf00      	nop

0800d770 <_ZN12_GLOBAL__N_125font_OSD_Charset_139_typeD1Ev>:
 800d770:	4770      	bx	lr
 800d772:	bf00      	nop

0800d774 <_ZN12_GLOBAL__N_125font_OSD_Charset_138_typeD1Ev>:
 800d774:	4770      	bx	lr
 800d776:	bf00      	nop

0800d778 <_ZN12_GLOBAL__N_125font_OSD_Charset_137_typeD1Ev>:
 800d778:	4770      	bx	lr
 800d77a:	bf00      	nop

0800d77c <_ZN12_GLOBAL__N_125font_OSD_Charset_136_typeD1Ev>:
 800d77c:	4770      	bx	lr
 800d77e:	bf00      	nop

0800d780 <_ZN12_GLOBAL__N_125font_OSD_Charset_135_typeD1Ev>:
 800d780:	4770      	bx	lr
 800d782:	bf00      	nop

0800d784 <_ZN12_GLOBAL__N_125font_OSD_Charset_134_typeD1Ev>:
 800d784:	4770      	bx	lr
 800d786:	bf00      	nop

0800d788 <_ZN12_GLOBAL__N_125font_OSD_Charset_133_typeD1Ev>:
 800d788:	4770      	bx	lr
 800d78a:	bf00      	nop

0800d78c <_ZN12_GLOBAL__N_125font_OSD_Charset_132_typeD1Ev>:
 800d78c:	4770      	bx	lr
 800d78e:	bf00      	nop

0800d790 <_ZN12_GLOBAL__N_125font_OSD_Charset_131_typeD1Ev>:
 800d790:	4770      	bx	lr
 800d792:	bf00      	nop

0800d794 <_ZN12_GLOBAL__N_125font_OSD_Charset_130_typeD1Ev>:
 800d794:	4770      	bx	lr
 800d796:	bf00      	nop

0800d798 <_ZN12_GLOBAL__N_125font_OSD_Charset_129_typeD1Ev>:
 800d798:	4770      	bx	lr
 800d79a:	bf00      	nop

0800d79c <_ZN12_GLOBAL__N_125font_OSD_Charset_128_typeD1Ev>:
 800d79c:	4770      	bx	lr
 800d79e:	bf00      	nop

0800d7a0 <_ZN12_GLOBAL__N_125font_OSD_Charset_127_typeD1Ev>:
 800d7a0:	4770      	bx	lr
 800d7a2:	bf00      	nop

0800d7a4 <_ZN12_GLOBAL__N_125font_OSD_Charset_126_typeD1Ev>:
 800d7a4:	4770      	bx	lr
 800d7a6:	bf00      	nop

0800d7a8 <_ZN12_GLOBAL__N_125font_OSD_Charset_125_typeD1Ev>:
 800d7a8:	4770      	bx	lr
 800d7aa:	bf00      	nop

0800d7ac <_ZN12_GLOBAL__N_125font_OSD_Charset_124_typeD1Ev>:
 800d7ac:	4770      	bx	lr
 800d7ae:	bf00      	nop

0800d7b0 <_ZN12_GLOBAL__N_125font_OSD_Charset_123_typeD1Ev>:
 800d7b0:	4770      	bx	lr
 800d7b2:	bf00      	nop

0800d7b4 <_ZN12_GLOBAL__N_125font_OSD_Charset_122_typeD1Ev>:
 800d7b4:	4770      	bx	lr
 800d7b6:	bf00      	nop

0800d7b8 <_ZN12_GLOBAL__N_125font_OSD_Charset_121_typeD1Ev>:
 800d7b8:	4770      	bx	lr
 800d7ba:	bf00      	nop

0800d7bc <_ZN12_GLOBAL__N_125font_OSD_Charset_120_typeD1Ev>:
 800d7bc:	4770      	bx	lr
 800d7be:	bf00      	nop

0800d7c0 <_ZN12_GLOBAL__N_125font_OSD_Charset_119_typeD1Ev>:
 800d7c0:	4770      	bx	lr
 800d7c2:	bf00      	nop

0800d7c4 <_ZN12_GLOBAL__N_125font_OSD_Charset_118_typeD1Ev>:
 800d7c4:	4770      	bx	lr
 800d7c6:	bf00      	nop

0800d7c8 <_ZN12_GLOBAL__N_125font_OSD_Charset_117_typeD1Ev>:
 800d7c8:	4770      	bx	lr
 800d7ca:	bf00      	nop

0800d7cc <_ZN12_GLOBAL__N_125font_OSD_Charset_116_typeD1Ev>:
 800d7cc:	4770      	bx	lr
 800d7ce:	bf00      	nop

0800d7d0 <_ZN12_GLOBAL__N_125font_OSD_Charset_115_typeD1Ev>:
 800d7d0:	4770      	bx	lr
 800d7d2:	bf00      	nop

0800d7d4 <_ZN12_GLOBAL__N_125font_OSD_Charset_114_typeD1Ev>:
 800d7d4:	4770      	bx	lr
 800d7d6:	bf00      	nop

0800d7d8 <_ZN12_GLOBAL__N_125font_OSD_Charset_113_typeD1Ev>:
 800d7d8:	4770      	bx	lr
 800d7da:	bf00      	nop

0800d7dc <_ZN12_GLOBAL__N_125font_OSD_Charset_112_typeD1Ev>:
 800d7dc:	4770      	bx	lr
 800d7de:	bf00      	nop

0800d7e0 <_ZN12_GLOBAL__N_125font_OSD_Charset_111_typeD1Ev>:
 800d7e0:	4770      	bx	lr
 800d7e2:	bf00      	nop

0800d7e4 <_ZN12_GLOBAL__N_125font_OSD_Charset_110_typeD1Ev>:
 800d7e4:	4770      	bx	lr
 800d7e6:	bf00      	nop

0800d7e8 <_ZN12_GLOBAL__N_125font_OSD_Charset_109_typeD1Ev>:
 800d7e8:	4770      	bx	lr
 800d7ea:	bf00      	nop

0800d7ec <_ZN12_GLOBAL__N_125font_OSD_Charset_108_typeD1Ev>:
 800d7ec:	4770      	bx	lr
 800d7ee:	bf00      	nop

0800d7f0 <_ZN12_GLOBAL__N_125font_OSD_Charset_107_typeD1Ev>:
 800d7f0:	4770      	bx	lr
 800d7f2:	bf00      	nop

0800d7f4 <_ZN12_GLOBAL__N_125font_OSD_Charset_106_typeD1Ev>:
 800d7f4:	4770      	bx	lr
 800d7f6:	bf00      	nop

0800d7f8 <_ZN12_GLOBAL__N_125font_OSD_Charset_105_typeD1Ev>:
 800d7f8:	4770      	bx	lr
 800d7fa:	bf00      	nop

0800d7fc <_ZN12_GLOBAL__N_125font_OSD_Charset_104_typeD1Ev>:
 800d7fc:	4770      	bx	lr
 800d7fe:	bf00      	nop

0800d800 <_ZN12_GLOBAL__N_125font_OSD_Charset_103_typeD1Ev>:
 800d800:	4770      	bx	lr
 800d802:	bf00      	nop

0800d804 <_ZN12_GLOBAL__N_125font_OSD_Charset_102_typeD1Ev>:
 800d804:	4770      	bx	lr
 800d806:	bf00      	nop

0800d808 <_ZN12_GLOBAL__N_125font_OSD_Charset_101_typeD1Ev>:
 800d808:	4770      	bx	lr
 800d80a:	bf00      	nop

0800d80c <_ZN12_GLOBAL__N_125font_OSD_Charset_100_typeD1Ev>:
 800d80c:	4770      	bx	lr
 800d80e:	bf00      	nop

0800d810 <_ZN12_GLOBAL__N_124font_OSD_Charset_99_typeD1Ev>:
 800d810:	4770      	bx	lr
 800d812:	bf00      	nop

0800d814 <_ZN12_GLOBAL__N_124font_OSD_Charset_98_typeD1Ev>:
 800d814:	4770      	bx	lr
 800d816:	bf00      	nop

0800d818 <_ZN12_GLOBAL__N_124font_OSD_Charset_97_typeD1Ev>:
 800d818:	4770      	bx	lr
 800d81a:	bf00      	nop

0800d81c <_ZN12_GLOBAL__N_124font_OSD_Charset_96_typeD1Ev>:
 800d81c:	4770      	bx	lr
 800d81e:	bf00      	nop

0800d820 <_ZN12_GLOBAL__N_124font_OSD_Charset_95_typeD1Ev>:
 800d820:	4770      	bx	lr
 800d822:	bf00      	nop

0800d824 <_ZN12_GLOBAL__N_124font_OSD_Charset_94_typeD1Ev>:
 800d824:	4770      	bx	lr
 800d826:	bf00      	nop

0800d828 <_ZN12_GLOBAL__N_124font_OSD_Charset_93_typeD1Ev>:
 800d828:	4770      	bx	lr
 800d82a:	bf00      	nop

0800d82c <_ZN12_GLOBAL__N_124font_OSD_Charset_92_typeD1Ev>:
 800d82c:	4770      	bx	lr
 800d82e:	bf00      	nop

0800d830 <_ZN12_GLOBAL__N_124font_OSD_Charset_91_typeD1Ev>:
 800d830:	4770      	bx	lr
 800d832:	bf00      	nop

0800d834 <_ZN12_GLOBAL__N_124font_OSD_Charset_90_typeD1Ev>:
 800d834:	4770      	bx	lr
 800d836:	bf00      	nop

0800d838 <_ZN12_GLOBAL__N_124font_OSD_Charset_89_typeD1Ev>:
 800d838:	4770      	bx	lr
 800d83a:	bf00      	nop

0800d83c <_ZN12_GLOBAL__N_124font_OSD_Charset_88_typeD1Ev>:
 800d83c:	4770      	bx	lr
 800d83e:	bf00      	nop

0800d840 <_ZN12_GLOBAL__N_124font_OSD_Charset_87_typeD1Ev>:
 800d840:	4770      	bx	lr
 800d842:	bf00      	nop

0800d844 <_ZN12_GLOBAL__N_124font_OSD_Charset_86_typeD1Ev>:
 800d844:	4770      	bx	lr
 800d846:	bf00      	nop

0800d848 <_ZN12_GLOBAL__N_124font_OSD_Charset_85_typeD1Ev>:
 800d848:	4770      	bx	lr
 800d84a:	bf00      	nop

0800d84c <_ZN12_GLOBAL__N_124font_OSD_Charset_84_typeD1Ev>:
 800d84c:	4770      	bx	lr
 800d84e:	bf00      	nop

0800d850 <_ZN12_GLOBAL__N_124font_OSD_Charset_83_typeD1Ev>:
 800d850:	4770      	bx	lr
 800d852:	bf00      	nop

0800d854 <_ZN12_GLOBAL__N_124font_OSD_Charset_82_typeD1Ev>:
 800d854:	4770      	bx	lr
 800d856:	bf00      	nop

0800d858 <_ZN12_GLOBAL__N_124font_OSD_Charset_81_typeD1Ev>:
 800d858:	4770      	bx	lr
 800d85a:	bf00      	nop

0800d85c <_ZN12_GLOBAL__N_124font_OSD_Charset_80_typeD1Ev>:
 800d85c:	4770      	bx	lr
 800d85e:	bf00      	nop

0800d860 <_ZN12_GLOBAL__N_124font_OSD_Charset_79_typeD1Ev>:
 800d860:	4770      	bx	lr
 800d862:	bf00      	nop

0800d864 <_ZN12_GLOBAL__N_124font_OSD_Charset_78_typeD1Ev>:
 800d864:	4770      	bx	lr
 800d866:	bf00      	nop

0800d868 <_ZN12_GLOBAL__N_124font_OSD_Charset_77_typeD1Ev>:
 800d868:	4770      	bx	lr
 800d86a:	bf00      	nop

0800d86c <_ZN12_GLOBAL__N_124font_OSD_Charset_76_typeD1Ev>:
 800d86c:	4770      	bx	lr
 800d86e:	bf00      	nop

0800d870 <_ZN12_GLOBAL__N_124font_OSD_Charset_75_typeD1Ev>:
 800d870:	4770      	bx	lr
 800d872:	bf00      	nop

0800d874 <_ZN12_GLOBAL__N_124font_OSD_Charset_74_typeD1Ev>:
 800d874:	4770      	bx	lr
 800d876:	bf00      	nop

0800d878 <_ZN12_GLOBAL__N_124font_OSD_Charset_73_typeD1Ev>:
 800d878:	4770      	bx	lr
 800d87a:	bf00      	nop

0800d87c <_ZN12_GLOBAL__N_124font_OSD_Charset_72_typeD1Ev>:
 800d87c:	4770      	bx	lr
 800d87e:	bf00      	nop

0800d880 <_ZN12_GLOBAL__N_124font_OSD_Charset_71_typeD1Ev>:
 800d880:	4770      	bx	lr
 800d882:	bf00      	nop

0800d884 <_ZN12_GLOBAL__N_124font_OSD_Charset_70_typeD1Ev>:
 800d884:	4770      	bx	lr
 800d886:	bf00      	nop

0800d888 <_ZN12_GLOBAL__N_124font_OSD_Charset_69_typeD1Ev>:
 800d888:	4770      	bx	lr
 800d88a:	bf00      	nop

0800d88c <_ZN12_GLOBAL__N_124font_OSD_Charset_68_typeD1Ev>:
 800d88c:	4770      	bx	lr
 800d88e:	bf00      	nop

0800d890 <_ZN12_GLOBAL__N_124font_OSD_Charset_67_typeD1Ev>:
 800d890:	4770      	bx	lr
 800d892:	bf00      	nop

0800d894 <_ZN12_GLOBAL__N_124font_OSD_Charset_66_typeD1Ev>:
 800d894:	4770      	bx	lr
 800d896:	bf00      	nop

0800d898 <_ZN12_GLOBAL__N_124font_OSD_Charset_65_typeD1Ev>:
 800d898:	4770      	bx	lr
 800d89a:	bf00      	nop

0800d89c <_ZN12_GLOBAL__N_124font_OSD_Charset_64_typeD1Ev>:
 800d89c:	4770      	bx	lr
 800d89e:	bf00      	nop

0800d8a0 <_ZN12_GLOBAL__N_124font_OSD_Charset_63_typeD1Ev>:
 800d8a0:	4770      	bx	lr
 800d8a2:	bf00      	nop

0800d8a4 <_ZN12_GLOBAL__N_124font_OSD_Charset_62_typeD1Ev>:
 800d8a4:	4770      	bx	lr
 800d8a6:	bf00      	nop

0800d8a8 <_ZN12_GLOBAL__N_124font_OSD_Charset_61_typeD1Ev>:
 800d8a8:	4770      	bx	lr
 800d8aa:	bf00      	nop

0800d8ac <_ZN12_GLOBAL__N_124font_OSD_Charset_60_typeD1Ev>:
 800d8ac:	4770      	bx	lr
 800d8ae:	bf00      	nop

0800d8b0 <_ZN12_GLOBAL__N_124font_OSD_Charset_59_typeD1Ev>:
 800d8b0:	4770      	bx	lr
 800d8b2:	bf00      	nop

0800d8b4 <_ZN12_GLOBAL__N_124font_OSD_Charset_58_typeD1Ev>:
 800d8b4:	4770      	bx	lr
 800d8b6:	bf00      	nop

0800d8b8 <_ZN12_GLOBAL__N_124font_OSD_Charset_57_typeD1Ev>:
 800d8b8:	4770      	bx	lr
 800d8ba:	bf00      	nop

0800d8bc <_ZN12_GLOBAL__N_124font_OSD_Charset_56_typeD1Ev>:
 800d8bc:	4770      	bx	lr
 800d8be:	bf00      	nop

0800d8c0 <_ZN12_GLOBAL__N_124font_OSD_Charset_55_typeD1Ev>:
 800d8c0:	4770      	bx	lr
 800d8c2:	bf00      	nop

0800d8c4 <_ZN12_GLOBAL__N_124font_OSD_Charset_54_typeD1Ev>:
 800d8c4:	4770      	bx	lr
 800d8c6:	bf00      	nop

0800d8c8 <_ZN12_GLOBAL__N_124font_OSD_Charset_53_typeD1Ev>:
 800d8c8:	4770      	bx	lr
 800d8ca:	bf00      	nop

0800d8cc <_ZN12_GLOBAL__N_124font_OSD_Charset_52_typeD1Ev>:
 800d8cc:	4770      	bx	lr
 800d8ce:	bf00      	nop

0800d8d0 <_ZN12_GLOBAL__N_124font_OSD_Charset_51_typeD1Ev>:
 800d8d0:	4770      	bx	lr
 800d8d2:	bf00      	nop

0800d8d4 <_ZN12_GLOBAL__N_124font_OSD_Charset_50_typeD1Ev>:
 800d8d4:	4770      	bx	lr
 800d8d6:	bf00      	nop

0800d8d8 <_ZN12_GLOBAL__N_124font_OSD_Charset_49_typeD1Ev>:
 800d8d8:	4770      	bx	lr
 800d8da:	bf00      	nop

0800d8dc <_ZN12_GLOBAL__N_124font_OSD_Charset_48_typeD1Ev>:
 800d8dc:	4770      	bx	lr
 800d8de:	bf00      	nop

0800d8e0 <_ZN12_GLOBAL__N_124font_OSD_Charset_47_typeD1Ev>:
 800d8e0:	4770      	bx	lr
 800d8e2:	bf00      	nop

0800d8e4 <_ZN12_GLOBAL__N_124font_OSD_Charset_46_typeD1Ev>:
 800d8e4:	4770      	bx	lr
 800d8e6:	bf00      	nop

0800d8e8 <_ZN12_GLOBAL__N_124font_OSD_Charset_45_typeD1Ev>:
 800d8e8:	4770      	bx	lr
 800d8ea:	bf00      	nop

0800d8ec <_ZN12_GLOBAL__N_124font_OSD_Charset_44_typeD1Ev>:
 800d8ec:	4770      	bx	lr
 800d8ee:	bf00      	nop

0800d8f0 <_ZN12_GLOBAL__N_124font_OSD_Charset_43_typeD1Ev>:
 800d8f0:	4770      	bx	lr
 800d8f2:	bf00      	nop

0800d8f4 <_ZN12_GLOBAL__N_124font_OSD_Charset_42_typeD1Ev>:
 800d8f4:	4770      	bx	lr
 800d8f6:	bf00      	nop

0800d8f8 <_ZN12_GLOBAL__N_124font_OSD_Charset_41_typeD1Ev>:
 800d8f8:	4770      	bx	lr
 800d8fa:	bf00      	nop

0800d8fc <_ZN12_GLOBAL__N_124font_OSD_Charset_40_typeD1Ev>:
 800d8fc:	4770      	bx	lr
 800d8fe:	bf00      	nop

0800d900 <_ZN12_GLOBAL__N_124font_OSD_Charset_39_typeD1Ev>:
 800d900:	4770      	bx	lr
 800d902:	bf00      	nop

0800d904 <_ZN12_GLOBAL__N_124font_OSD_Charset_38_typeD1Ev>:
 800d904:	4770      	bx	lr
 800d906:	bf00      	nop

0800d908 <_ZN12_GLOBAL__N_124font_OSD_Charset_37_typeD1Ev>:
 800d908:	4770      	bx	lr
 800d90a:	bf00      	nop

0800d90c <_ZN12_GLOBAL__N_124font_OSD_Charset_36_typeD1Ev>:
 800d90c:	4770      	bx	lr
 800d90e:	bf00      	nop

0800d910 <_ZN12_GLOBAL__N_124font_OSD_Charset_35_typeD1Ev>:
 800d910:	4770      	bx	lr
 800d912:	bf00      	nop

0800d914 <_ZN12_GLOBAL__N_124font_OSD_Charset_34_typeD1Ev>:
 800d914:	4770      	bx	lr
 800d916:	bf00      	nop

0800d918 <_ZN12_GLOBAL__N_124font_OSD_Charset_33_typeD1Ev>:
 800d918:	4770      	bx	lr
 800d91a:	bf00      	nop

0800d91c <_ZN12_GLOBAL__N_124font_OSD_Charset_32_typeD1Ev>:
 800d91c:	4770      	bx	lr
 800d91e:	bf00      	nop

0800d920 <_ZN12_GLOBAL__N_124font_OSD_Charset_31_typeD1Ev>:
 800d920:	4770      	bx	lr
 800d922:	bf00      	nop

0800d924 <_ZN12_GLOBAL__N_124font_OSD_Charset_30_typeD1Ev>:
 800d924:	4770      	bx	lr
 800d926:	bf00      	nop

0800d928 <_ZN12_GLOBAL__N_124font_OSD_Charset_29_typeD1Ev>:
 800d928:	4770      	bx	lr
 800d92a:	bf00      	nop

0800d92c <_ZN12_GLOBAL__N_124font_OSD_Charset_28_typeD1Ev>:
 800d92c:	4770      	bx	lr
 800d92e:	bf00      	nop

0800d930 <_ZN12_GLOBAL__N_124font_OSD_Charset_27_typeD1Ev>:
 800d930:	4770      	bx	lr
 800d932:	bf00      	nop

0800d934 <_ZN12_GLOBAL__N_124font_OSD_Charset_26_typeD1Ev>:
 800d934:	4770      	bx	lr
 800d936:	bf00      	nop

0800d938 <_ZN12_GLOBAL__N_124font_OSD_Charset_25_typeD1Ev>:
 800d938:	4770      	bx	lr
 800d93a:	bf00      	nop

0800d93c <_ZN12_GLOBAL__N_124font_OSD_Charset_24_typeD1Ev>:
 800d93c:	4770      	bx	lr
 800d93e:	bf00      	nop

0800d940 <_ZN12_GLOBAL__N_124font_OSD_Charset_23_typeD1Ev>:
 800d940:	4770      	bx	lr
 800d942:	bf00      	nop

0800d944 <_ZN12_GLOBAL__N_124font_OSD_Charset_22_typeD1Ev>:
 800d944:	4770      	bx	lr
 800d946:	bf00      	nop

0800d948 <_ZN12_GLOBAL__N_124font_OSD_Charset_21_typeD1Ev>:
 800d948:	4770      	bx	lr
 800d94a:	bf00      	nop

0800d94c <_ZN12_GLOBAL__N_124font_OSD_Charset_20_typeD1Ev>:
 800d94c:	4770      	bx	lr
 800d94e:	bf00      	nop

0800d950 <_ZN12_GLOBAL__N_124font_OSD_Charset_19_typeD1Ev>:
 800d950:	4770      	bx	lr
 800d952:	bf00      	nop

0800d954 <_ZN12_GLOBAL__N_124font_OSD_Charset_18_typeD1Ev>:
 800d954:	4770      	bx	lr
 800d956:	bf00      	nop

0800d958 <_ZN12_GLOBAL__N_124font_OSD_Charset_17_typeD1Ev>:
 800d958:	4770      	bx	lr
 800d95a:	bf00      	nop

0800d95c <_ZN12_GLOBAL__N_124font_OSD_Charset_16_typeD1Ev>:
 800d95c:	4770      	bx	lr
 800d95e:	bf00      	nop

0800d960 <_ZN12_GLOBAL__N_124font_OSD_Charset_15_typeD1Ev>:
 800d960:	4770      	bx	lr
 800d962:	bf00      	nop

0800d964 <_ZN12_GLOBAL__N_124font_OSD_Charset_14_typeD1Ev>:
 800d964:	4770      	bx	lr
 800d966:	bf00      	nop

0800d968 <_ZN12_GLOBAL__N_124font_OSD_Charset_13_typeD1Ev>:
 800d968:	4770      	bx	lr
 800d96a:	bf00      	nop

0800d96c <_ZN12_GLOBAL__N_124font_OSD_Charset_12_typeD1Ev>:
 800d96c:	4770      	bx	lr
 800d96e:	bf00      	nop

0800d970 <_ZN12_GLOBAL__N_124font_OSD_Charset_11_typeD1Ev>:
 800d970:	4770      	bx	lr
 800d972:	bf00      	nop

0800d974 <_ZN12_GLOBAL__N_124font_OSD_Charset_10_typeD1Ev>:
 800d974:	4770      	bx	lr
 800d976:	bf00      	nop

0800d978 <_ZN12_GLOBAL__N_123font_OSD_Charset_9_typeD1Ev>:
 800d978:	4770      	bx	lr
 800d97a:	bf00      	nop

0800d97c <_ZN12_GLOBAL__N_123font_OSD_Charset_8_typeD1Ev>:
 800d97c:	4770      	bx	lr
 800d97e:	bf00      	nop

0800d980 <_ZN12_GLOBAL__N_123font_OSD_Charset_7_typeD1Ev>:
 800d980:	4770      	bx	lr
 800d982:	bf00      	nop

0800d984 <_ZN12_GLOBAL__N_123font_OSD_Charset_6_typeD1Ev>:
 800d984:	4770      	bx	lr
 800d986:	bf00      	nop

0800d988 <_ZN12_GLOBAL__N_123font_OSD_Charset_5_typeD1Ev>:
 800d988:	4770      	bx	lr
 800d98a:	bf00      	nop

0800d98c <_ZN12_GLOBAL__N_123font_OSD_Charset_4_typeD1Ev>:
 800d98c:	4770      	bx	lr
 800d98e:	bf00      	nop

0800d990 <_ZN12_GLOBAL__N_123font_OSD_Charset_3_typeD1Ev>:
 800d990:	4770      	bx	lr
 800d992:	bf00      	nop

0800d994 <_ZN12_GLOBAL__N_123font_OSD_Charset_2_typeD1Ev>:
 800d994:	4770      	bx	lr
 800d996:	bf00      	nop

0800d998 <_ZN12_GLOBAL__N_123font_OSD_Charset_1_typeD1Ev>:
 800d998:	4770      	bx	lr
 800d99a:	bf00      	nop

0800d99c <_ZN12_GLOBAL__N_123font_OSD_Charset_0_typeD1Ev>:
 800d99c:	4770      	bx	lr
 800d99e:	bf00      	nop

0800d9a0 <_ZN12_GLOBAL__N_125font_OSD_Charset_255_typeD0Ev>:
 800d9a0:	b510      	push	{r4, lr}
 800d9a2:	4604      	mov	r4, r0
 800d9a4:	f003 fe0e 	bl	80115c4 <_ZdlPv>
 800d9a8:	4620      	mov	r0, r4
 800d9aa:	bd10      	pop	{r4, pc}

0800d9ac <_ZN12_GLOBAL__N_125font_OSD_Charset_254_typeD0Ev>:
 800d9ac:	b510      	push	{r4, lr}
 800d9ae:	4604      	mov	r4, r0
 800d9b0:	f003 fe08 	bl	80115c4 <_ZdlPv>
 800d9b4:	4620      	mov	r0, r4
 800d9b6:	bd10      	pop	{r4, pc}

0800d9b8 <_ZN12_GLOBAL__N_125font_OSD_Charset_253_typeD0Ev>:
 800d9b8:	b510      	push	{r4, lr}
 800d9ba:	4604      	mov	r4, r0
 800d9bc:	f003 fe02 	bl	80115c4 <_ZdlPv>
 800d9c0:	4620      	mov	r0, r4
 800d9c2:	bd10      	pop	{r4, pc}

0800d9c4 <_ZN12_GLOBAL__N_125font_OSD_Charset_252_typeD0Ev>:
 800d9c4:	b510      	push	{r4, lr}
 800d9c6:	4604      	mov	r4, r0
 800d9c8:	f003 fdfc 	bl	80115c4 <_ZdlPv>
 800d9cc:	4620      	mov	r0, r4
 800d9ce:	bd10      	pop	{r4, pc}

0800d9d0 <_ZN12_GLOBAL__N_125font_OSD_Charset_251_typeD0Ev>:
 800d9d0:	b510      	push	{r4, lr}
 800d9d2:	4604      	mov	r4, r0
 800d9d4:	f003 fdf6 	bl	80115c4 <_ZdlPv>
 800d9d8:	4620      	mov	r0, r4
 800d9da:	bd10      	pop	{r4, pc}

0800d9dc <_ZN12_GLOBAL__N_125font_OSD_Charset_250_typeD0Ev>:
 800d9dc:	b510      	push	{r4, lr}
 800d9de:	4604      	mov	r4, r0
 800d9e0:	f003 fdf0 	bl	80115c4 <_ZdlPv>
 800d9e4:	4620      	mov	r0, r4
 800d9e6:	bd10      	pop	{r4, pc}

0800d9e8 <_ZN12_GLOBAL__N_125font_OSD_Charset_249_typeD0Ev>:
 800d9e8:	b510      	push	{r4, lr}
 800d9ea:	4604      	mov	r4, r0
 800d9ec:	f003 fdea 	bl	80115c4 <_ZdlPv>
 800d9f0:	4620      	mov	r0, r4
 800d9f2:	bd10      	pop	{r4, pc}

0800d9f4 <_ZN12_GLOBAL__N_125font_OSD_Charset_248_typeD0Ev>:
 800d9f4:	b510      	push	{r4, lr}
 800d9f6:	4604      	mov	r4, r0
 800d9f8:	f003 fde4 	bl	80115c4 <_ZdlPv>
 800d9fc:	4620      	mov	r0, r4
 800d9fe:	bd10      	pop	{r4, pc}

0800da00 <_ZN12_GLOBAL__N_125font_OSD_Charset_247_typeD0Ev>:
 800da00:	b510      	push	{r4, lr}
 800da02:	4604      	mov	r4, r0
 800da04:	f003 fdde 	bl	80115c4 <_ZdlPv>
 800da08:	4620      	mov	r0, r4
 800da0a:	bd10      	pop	{r4, pc}

0800da0c <_ZN12_GLOBAL__N_125font_OSD_Charset_246_typeD0Ev>:
 800da0c:	b510      	push	{r4, lr}
 800da0e:	4604      	mov	r4, r0
 800da10:	f003 fdd8 	bl	80115c4 <_ZdlPv>
 800da14:	4620      	mov	r0, r4
 800da16:	bd10      	pop	{r4, pc}

0800da18 <_ZN12_GLOBAL__N_125font_OSD_Charset_245_typeD0Ev>:
 800da18:	b510      	push	{r4, lr}
 800da1a:	4604      	mov	r4, r0
 800da1c:	f003 fdd2 	bl	80115c4 <_ZdlPv>
 800da20:	4620      	mov	r0, r4
 800da22:	bd10      	pop	{r4, pc}

0800da24 <_ZN12_GLOBAL__N_125font_OSD_Charset_244_typeD0Ev>:
 800da24:	b510      	push	{r4, lr}
 800da26:	4604      	mov	r4, r0
 800da28:	f003 fdcc 	bl	80115c4 <_ZdlPv>
 800da2c:	4620      	mov	r0, r4
 800da2e:	bd10      	pop	{r4, pc}

0800da30 <_ZN12_GLOBAL__N_125font_OSD_Charset_243_typeD0Ev>:
 800da30:	b510      	push	{r4, lr}
 800da32:	4604      	mov	r4, r0
 800da34:	f003 fdc6 	bl	80115c4 <_ZdlPv>
 800da38:	4620      	mov	r0, r4
 800da3a:	bd10      	pop	{r4, pc}

0800da3c <_ZN12_GLOBAL__N_125font_OSD_Charset_242_typeD0Ev>:
 800da3c:	b510      	push	{r4, lr}
 800da3e:	4604      	mov	r4, r0
 800da40:	f003 fdc0 	bl	80115c4 <_ZdlPv>
 800da44:	4620      	mov	r0, r4
 800da46:	bd10      	pop	{r4, pc}

0800da48 <_ZN12_GLOBAL__N_125font_OSD_Charset_241_typeD0Ev>:
 800da48:	b510      	push	{r4, lr}
 800da4a:	4604      	mov	r4, r0
 800da4c:	f003 fdba 	bl	80115c4 <_ZdlPv>
 800da50:	4620      	mov	r0, r4
 800da52:	bd10      	pop	{r4, pc}

0800da54 <_ZN12_GLOBAL__N_125font_OSD_Charset_240_typeD0Ev>:
 800da54:	b510      	push	{r4, lr}
 800da56:	4604      	mov	r4, r0
 800da58:	f003 fdb4 	bl	80115c4 <_ZdlPv>
 800da5c:	4620      	mov	r0, r4
 800da5e:	bd10      	pop	{r4, pc}

0800da60 <_ZN12_GLOBAL__N_125font_OSD_Charset_239_typeD0Ev>:
 800da60:	b510      	push	{r4, lr}
 800da62:	4604      	mov	r4, r0
 800da64:	f003 fdae 	bl	80115c4 <_ZdlPv>
 800da68:	4620      	mov	r0, r4
 800da6a:	bd10      	pop	{r4, pc}

0800da6c <_ZN12_GLOBAL__N_125font_OSD_Charset_238_typeD0Ev>:
 800da6c:	b510      	push	{r4, lr}
 800da6e:	4604      	mov	r4, r0
 800da70:	f003 fda8 	bl	80115c4 <_ZdlPv>
 800da74:	4620      	mov	r0, r4
 800da76:	bd10      	pop	{r4, pc}

0800da78 <_ZN12_GLOBAL__N_125font_OSD_Charset_237_typeD0Ev>:
 800da78:	b510      	push	{r4, lr}
 800da7a:	4604      	mov	r4, r0
 800da7c:	f003 fda2 	bl	80115c4 <_ZdlPv>
 800da80:	4620      	mov	r0, r4
 800da82:	bd10      	pop	{r4, pc}

0800da84 <_ZN12_GLOBAL__N_125font_OSD_Charset_236_typeD0Ev>:
 800da84:	b510      	push	{r4, lr}
 800da86:	4604      	mov	r4, r0
 800da88:	f003 fd9c 	bl	80115c4 <_ZdlPv>
 800da8c:	4620      	mov	r0, r4
 800da8e:	bd10      	pop	{r4, pc}

0800da90 <_ZN12_GLOBAL__N_125font_OSD_Charset_235_typeD0Ev>:
 800da90:	b510      	push	{r4, lr}
 800da92:	4604      	mov	r4, r0
 800da94:	f003 fd96 	bl	80115c4 <_ZdlPv>
 800da98:	4620      	mov	r0, r4
 800da9a:	bd10      	pop	{r4, pc}

0800da9c <_ZN12_GLOBAL__N_125font_OSD_Charset_234_typeD0Ev>:
 800da9c:	b510      	push	{r4, lr}
 800da9e:	4604      	mov	r4, r0
 800daa0:	f003 fd90 	bl	80115c4 <_ZdlPv>
 800daa4:	4620      	mov	r0, r4
 800daa6:	bd10      	pop	{r4, pc}

0800daa8 <_ZN12_GLOBAL__N_125font_OSD_Charset_233_typeD0Ev>:
 800daa8:	b510      	push	{r4, lr}
 800daaa:	4604      	mov	r4, r0
 800daac:	f003 fd8a 	bl	80115c4 <_ZdlPv>
 800dab0:	4620      	mov	r0, r4
 800dab2:	bd10      	pop	{r4, pc}

0800dab4 <_ZN12_GLOBAL__N_125font_OSD_Charset_232_typeD0Ev>:
 800dab4:	b510      	push	{r4, lr}
 800dab6:	4604      	mov	r4, r0
 800dab8:	f003 fd84 	bl	80115c4 <_ZdlPv>
 800dabc:	4620      	mov	r0, r4
 800dabe:	bd10      	pop	{r4, pc}

0800dac0 <_ZN12_GLOBAL__N_125font_OSD_Charset_231_typeD0Ev>:
 800dac0:	b510      	push	{r4, lr}
 800dac2:	4604      	mov	r4, r0
 800dac4:	f003 fd7e 	bl	80115c4 <_ZdlPv>
 800dac8:	4620      	mov	r0, r4
 800daca:	bd10      	pop	{r4, pc}

0800dacc <_ZN12_GLOBAL__N_125font_OSD_Charset_230_typeD0Ev>:
 800dacc:	b510      	push	{r4, lr}
 800dace:	4604      	mov	r4, r0
 800dad0:	f003 fd78 	bl	80115c4 <_ZdlPv>
 800dad4:	4620      	mov	r0, r4
 800dad6:	bd10      	pop	{r4, pc}

0800dad8 <_ZN12_GLOBAL__N_125font_OSD_Charset_229_typeD0Ev>:
 800dad8:	b510      	push	{r4, lr}
 800dada:	4604      	mov	r4, r0
 800dadc:	f003 fd72 	bl	80115c4 <_ZdlPv>
 800dae0:	4620      	mov	r0, r4
 800dae2:	bd10      	pop	{r4, pc}

0800dae4 <_ZN12_GLOBAL__N_125font_OSD_Charset_228_typeD0Ev>:
 800dae4:	b510      	push	{r4, lr}
 800dae6:	4604      	mov	r4, r0
 800dae8:	f003 fd6c 	bl	80115c4 <_ZdlPv>
 800daec:	4620      	mov	r0, r4
 800daee:	bd10      	pop	{r4, pc}

0800daf0 <_ZN12_GLOBAL__N_125font_OSD_Charset_227_typeD0Ev>:
 800daf0:	b510      	push	{r4, lr}
 800daf2:	4604      	mov	r4, r0
 800daf4:	f003 fd66 	bl	80115c4 <_ZdlPv>
 800daf8:	4620      	mov	r0, r4
 800dafa:	bd10      	pop	{r4, pc}

0800dafc <_ZN12_GLOBAL__N_125font_OSD_Charset_226_typeD0Ev>:
 800dafc:	b510      	push	{r4, lr}
 800dafe:	4604      	mov	r4, r0
 800db00:	f003 fd60 	bl	80115c4 <_ZdlPv>
 800db04:	4620      	mov	r0, r4
 800db06:	bd10      	pop	{r4, pc}

0800db08 <_ZN12_GLOBAL__N_125font_OSD_Charset_225_typeD0Ev>:
 800db08:	b510      	push	{r4, lr}
 800db0a:	4604      	mov	r4, r0
 800db0c:	f003 fd5a 	bl	80115c4 <_ZdlPv>
 800db10:	4620      	mov	r0, r4
 800db12:	bd10      	pop	{r4, pc}

0800db14 <_ZN12_GLOBAL__N_125font_OSD_Charset_224_typeD0Ev>:
 800db14:	b510      	push	{r4, lr}
 800db16:	4604      	mov	r4, r0
 800db18:	f003 fd54 	bl	80115c4 <_ZdlPv>
 800db1c:	4620      	mov	r0, r4
 800db1e:	bd10      	pop	{r4, pc}

0800db20 <_ZN12_GLOBAL__N_125font_OSD_Charset_223_typeD0Ev>:
 800db20:	b510      	push	{r4, lr}
 800db22:	4604      	mov	r4, r0
 800db24:	f003 fd4e 	bl	80115c4 <_ZdlPv>
 800db28:	4620      	mov	r0, r4
 800db2a:	bd10      	pop	{r4, pc}

0800db2c <_ZN12_GLOBAL__N_125font_OSD_Charset_222_typeD0Ev>:
 800db2c:	b510      	push	{r4, lr}
 800db2e:	4604      	mov	r4, r0
 800db30:	f003 fd48 	bl	80115c4 <_ZdlPv>
 800db34:	4620      	mov	r0, r4
 800db36:	bd10      	pop	{r4, pc}

0800db38 <_ZN12_GLOBAL__N_125font_OSD_Charset_221_typeD0Ev>:
 800db38:	b510      	push	{r4, lr}
 800db3a:	4604      	mov	r4, r0
 800db3c:	f003 fd42 	bl	80115c4 <_ZdlPv>
 800db40:	4620      	mov	r0, r4
 800db42:	bd10      	pop	{r4, pc}

0800db44 <_ZN12_GLOBAL__N_125font_OSD_Charset_220_typeD0Ev>:
 800db44:	b510      	push	{r4, lr}
 800db46:	4604      	mov	r4, r0
 800db48:	f003 fd3c 	bl	80115c4 <_ZdlPv>
 800db4c:	4620      	mov	r0, r4
 800db4e:	bd10      	pop	{r4, pc}

0800db50 <_ZN12_GLOBAL__N_125font_OSD_Charset_219_typeD0Ev>:
 800db50:	b510      	push	{r4, lr}
 800db52:	4604      	mov	r4, r0
 800db54:	f003 fd36 	bl	80115c4 <_ZdlPv>
 800db58:	4620      	mov	r0, r4
 800db5a:	bd10      	pop	{r4, pc}

0800db5c <_ZN12_GLOBAL__N_125font_OSD_Charset_218_typeD0Ev>:
 800db5c:	b510      	push	{r4, lr}
 800db5e:	4604      	mov	r4, r0
 800db60:	f003 fd30 	bl	80115c4 <_ZdlPv>
 800db64:	4620      	mov	r0, r4
 800db66:	bd10      	pop	{r4, pc}

0800db68 <_ZN12_GLOBAL__N_125font_OSD_Charset_217_typeD0Ev>:
 800db68:	b510      	push	{r4, lr}
 800db6a:	4604      	mov	r4, r0
 800db6c:	f003 fd2a 	bl	80115c4 <_ZdlPv>
 800db70:	4620      	mov	r0, r4
 800db72:	bd10      	pop	{r4, pc}

0800db74 <_ZN12_GLOBAL__N_125font_OSD_Charset_216_typeD0Ev>:
 800db74:	b510      	push	{r4, lr}
 800db76:	4604      	mov	r4, r0
 800db78:	f003 fd24 	bl	80115c4 <_ZdlPv>
 800db7c:	4620      	mov	r0, r4
 800db7e:	bd10      	pop	{r4, pc}

0800db80 <_ZN12_GLOBAL__N_125font_OSD_Charset_215_typeD0Ev>:
 800db80:	b510      	push	{r4, lr}
 800db82:	4604      	mov	r4, r0
 800db84:	f003 fd1e 	bl	80115c4 <_ZdlPv>
 800db88:	4620      	mov	r0, r4
 800db8a:	bd10      	pop	{r4, pc}

0800db8c <_ZN12_GLOBAL__N_125font_OSD_Charset_214_typeD0Ev>:
 800db8c:	b510      	push	{r4, lr}
 800db8e:	4604      	mov	r4, r0
 800db90:	f003 fd18 	bl	80115c4 <_ZdlPv>
 800db94:	4620      	mov	r0, r4
 800db96:	bd10      	pop	{r4, pc}

0800db98 <_ZN12_GLOBAL__N_125font_OSD_Charset_213_typeD0Ev>:
 800db98:	b510      	push	{r4, lr}
 800db9a:	4604      	mov	r4, r0
 800db9c:	f003 fd12 	bl	80115c4 <_ZdlPv>
 800dba0:	4620      	mov	r0, r4
 800dba2:	bd10      	pop	{r4, pc}

0800dba4 <_ZN12_GLOBAL__N_125font_OSD_Charset_212_typeD0Ev>:
 800dba4:	b510      	push	{r4, lr}
 800dba6:	4604      	mov	r4, r0
 800dba8:	f003 fd0c 	bl	80115c4 <_ZdlPv>
 800dbac:	4620      	mov	r0, r4
 800dbae:	bd10      	pop	{r4, pc}

0800dbb0 <_ZN12_GLOBAL__N_125font_OSD_Charset_211_typeD0Ev>:
 800dbb0:	b510      	push	{r4, lr}
 800dbb2:	4604      	mov	r4, r0
 800dbb4:	f003 fd06 	bl	80115c4 <_ZdlPv>
 800dbb8:	4620      	mov	r0, r4
 800dbba:	bd10      	pop	{r4, pc}

0800dbbc <_ZN12_GLOBAL__N_125font_OSD_Charset_210_typeD0Ev>:
 800dbbc:	b510      	push	{r4, lr}
 800dbbe:	4604      	mov	r4, r0
 800dbc0:	f003 fd00 	bl	80115c4 <_ZdlPv>
 800dbc4:	4620      	mov	r0, r4
 800dbc6:	bd10      	pop	{r4, pc}

0800dbc8 <_ZN12_GLOBAL__N_125font_OSD_Charset_209_typeD0Ev>:
 800dbc8:	b510      	push	{r4, lr}
 800dbca:	4604      	mov	r4, r0
 800dbcc:	f003 fcfa 	bl	80115c4 <_ZdlPv>
 800dbd0:	4620      	mov	r0, r4
 800dbd2:	bd10      	pop	{r4, pc}

0800dbd4 <_ZN12_GLOBAL__N_125font_OSD_Charset_208_typeD0Ev>:
 800dbd4:	b510      	push	{r4, lr}
 800dbd6:	4604      	mov	r4, r0
 800dbd8:	f003 fcf4 	bl	80115c4 <_ZdlPv>
 800dbdc:	4620      	mov	r0, r4
 800dbde:	bd10      	pop	{r4, pc}

0800dbe0 <_ZN12_GLOBAL__N_125font_OSD_Charset_207_typeD0Ev>:
 800dbe0:	b510      	push	{r4, lr}
 800dbe2:	4604      	mov	r4, r0
 800dbe4:	f003 fcee 	bl	80115c4 <_ZdlPv>
 800dbe8:	4620      	mov	r0, r4
 800dbea:	bd10      	pop	{r4, pc}

0800dbec <_ZN12_GLOBAL__N_125font_OSD_Charset_206_typeD0Ev>:
 800dbec:	b510      	push	{r4, lr}
 800dbee:	4604      	mov	r4, r0
 800dbf0:	f003 fce8 	bl	80115c4 <_ZdlPv>
 800dbf4:	4620      	mov	r0, r4
 800dbf6:	bd10      	pop	{r4, pc}

0800dbf8 <_ZN12_GLOBAL__N_125font_OSD_Charset_205_typeD0Ev>:
 800dbf8:	b510      	push	{r4, lr}
 800dbfa:	4604      	mov	r4, r0
 800dbfc:	f003 fce2 	bl	80115c4 <_ZdlPv>
 800dc00:	4620      	mov	r0, r4
 800dc02:	bd10      	pop	{r4, pc}

0800dc04 <_ZN12_GLOBAL__N_125font_OSD_Charset_204_typeD0Ev>:
 800dc04:	b510      	push	{r4, lr}
 800dc06:	4604      	mov	r4, r0
 800dc08:	f003 fcdc 	bl	80115c4 <_ZdlPv>
 800dc0c:	4620      	mov	r0, r4
 800dc0e:	bd10      	pop	{r4, pc}

0800dc10 <_ZN12_GLOBAL__N_125font_OSD_Charset_203_typeD0Ev>:
 800dc10:	b510      	push	{r4, lr}
 800dc12:	4604      	mov	r4, r0
 800dc14:	f003 fcd6 	bl	80115c4 <_ZdlPv>
 800dc18:	4620      	mov	r0, r4
 800dc1a:	bd10      	pop	{r4, pc}

0800dc1c <_ZN12_GLOBAL__N_125font_OSD_Charset_202_typeD0Ev>:
 800dc1c:	b510      	push	{r4, lr}
 800dc1e:	4604      	mov	r4, r0
 800dc20:	f003 fcd0 	bl	80115c4 <_ZdlPv>
 800dc24:	4620      	mov	r0, r4
 800dc26:	bd10      	pop	{r4, pc}

0800dc28 <_ZN12_GLOBAL__N_125font_OSD_Charset_201_typeD0Ev>:
 800dc28:	b510      	push	{r4, lr}
 800dc2a:	4604      	mov	r4, r0
 800dc2c:	f003 fcca 	bl	80115c4 <_ZdlPv>
 800dc30:	4620      	mov	r0, r4
 800dc32:	bd10      	pop	{r4, pc}

0800dc34 <_ZN12_GLOBAL__N_125font_OSD_Charset_200_typeD0Ev>:
 800dc34:	b510      	push	{r4, lr}
 800dc36:	4604      	mov	r4, r0
 800dc38:	f003 fcc4 	bl	80115c4 <_ZdlPv>
 800dc3c:	4620      	mov	r0, r4
 800dc3e:	bd10      	pop	{r4, pc}

0800dc40 <_ZN12_GLOBAL__N_125font_OSD_Charset_199_typeD0Ev>:
 800dc40:	b510      	push	{r4, lr}
 800dc42:	4604      	mov	r4, r0
 800dc44:	f003 fcbe 	bl	80115c4 <_ZdlPv>
 800dc48:	4620      	mov	r0, r4
 800dc4a:	bd10      	pop	{r4, pc}

0800dc4c <_ZN12_GLOBAL__N_125font_OSD_Charset_198_typeD0Ev>:
 800dc4c:	b510      	push	{r4, lr}
 800dc4e:	4604      	mov	r4, r0
 800dc50:	f003 fcb8 	bl	80115c4 <_ZdlPv>
 800dc54:	4620      	mov	r0, r4
 800dc56:	bd10      	pop	{r4, pc}

0800dc58 <_ZN12_GLOBAL__N_125font_OSD_Charset_197_typeD0Ev>:
 800dc58:	b510      	push	{r4, lr}
 800dc5a:	4604      	mov	r4, r0
 800dc5c:	f003 fcb2 	bl	80115c4 <_ZdlPv>
 800dc60:	4620      	mov	r0, r4
 800dc62:	bd10      	pop	{r4, pc}

0800dc64 <_ZN12_GLOBAL__N_125font_OSD_Charset_196_typeD0Ev>:
 800dc64:	b510      	push	{r4, lr}
 800dc66:	4604      	mov	r4, r0
 800dc68:	f003 fcac 	bl	80115c4 <_ZdlPv>
 800dc6c:	4620      	mov	r0, r4
 800dc6e:	bd10      	pop	{r4, pc}

0800dc70 <_ZN12_GLOBAL__N_125font_OSD_Charset_195_typeD0Ev>:
 800dc70:	b510      	push	{r4, lr}
 800dc72:	4604      	mov	r4, r0
 800dc74:	f003 fca6 	bl	80115c4 <_ZdlPv>
 800dc78:	4620      	mov	r0, r4
 800dc7a:	bd10      	pop	{r4, pc}

0800dc7c <_ZN12_GLOBAL__N_125font_OSD_Charset_194_typeD0Ev>:
 800dc7c:	b510      	push	{r4, lr}
 800dc7e:	4604      	mov	r4, r0
 800dc80:	f003 fca0 	bl	80115c4 <_ZdlPv>
 800dc84:	4620      	mov	r0, r4
 800dc86:	bd10      	pop	{r4, pc}

0800dc88 <_ZN12_GLOBAL__N_125font_OSD_Charset_193_typeD0Ev>:
 800dc88:	b510      	push	{r4, lr}
 800dc8a:	4604      	mov	r4, r0
 800dc8c:	f003 fc9a 	bl	80115c4 <_ZdlPv>
 800dc90:	4620      	mov	r0, r4
 800dc92:	bd10      	pop	{r4, pc}

0800dc94 <_ZN12_GLOBAL__N_125font_OSD_Charset_192_typeD0Ev>:
 800dc94:	b510      	push	{r4, lr}
 800dc96:	4604      	mov	r4, r0
 800dc98:	f003 fc94 	bl	80115c4 <_ZdlPv>
 800dc9c:	4620      	mov	r0, r4
 800dc9e:	bd10      	pop	{r4, pc}

0800dca0 <_ZN12_GLOBAL__N_125font_OSD_Charset_191_typeD0Ev>:
 800dca0:	b510      	push	{r4, lr}
 800dca2:	4604      	mov	r4, r0
 800dca4:	f003 fc8e 	bl	80115c4 <_ZdlPv>
 800dca8:	4620      	mov	r0, r4
 800dcaa:	bd10      	pop	{r4, pc}

0800dcac <_ZN12_GLOBAL__N_125font_OSD_Charset_190_typeD0Ev>:
 800dcac:	b510      	push	{r4, lr}
 800dcae:	4604      	mov	r4, r0
 800dcb0:	f003 fc88 	bl	80115c4 <_ZdlPv>
 800dcb4:	4620      	mov	r0, r4
 800dcb6:	bd10      	pop	{r4, pc}

0800dcb8 <_ZN12_GLOBAL__N_125font_OSD_Charset_189_typeD0Ev>:
 800dcb8:	b510      	push	{r4, lr}
 800dcba:	4604      	mov	r4, r0
 800dcbc:	f003 fc82 	bl	80115c4 <_ZdlPv>
 800dcc0:	4620      	mov	r0, r4
 800dcc2:	bd10      	pop	{r4, pc}

0800dcc4 <_ZN12_GLOBAL__N_125font_OSD_Charset_188_typeD0Ev>:
 800dcc4:	b510      	push	{r4, lr}
 800dcc6:	4604      	mov	r4, r0
 800dcc8:	f003 fc7c 	bl	80115c4 <_ZdlPv>
 800dccc:	4620      	mov	r0, r4
 800dcce:	bd10      	pop	{r4, pc}

0800dcd0 <_ZN12_GLOBAL__N_125font_OSD_Charset_187_typeD0Ev>:
 800dcd0:	b510      	push	{r4, lr}
 800dcd2:	4604      	mov	r4, r0
 800dcd4:	f003 fc76 	bl	80115c4 <_ZdlPv>
 800dcd8:	4620      	mov	r0, r4
 800dcda:	bd10      	pop	{r4, pc}

0800dcdc <_ZN12_GLOBAL__N_125font_OSD_Charset_186_typeD0Ev>:
 800dcdc:	b510      	push	{r4, lr}
 800dcde:	4604      	mov	r4, r0
 800dce0:	f003 fc70 	bl	80115c4 <_ZdlPv>
 800dce4:	4620      	mov	r0, r4
 800dce6:	bd10      	pop	{r4, pc}

0800dce8 <_ZN12_GLOBAL__N_125font_OSD_Charset_185_typeD0Ev>:
 800dce8:	b510      	push	{r4, lr}
 800dcea:	4604      	mov	r4, r0
 800dcec:	f003 fc6a 	bl	80115c4 <_ZdlPv>
 800dcf0:	4620      	mov	r0, r4
 800dcf2:	bd10      	pop	{r4, pc}

0800dcf4 <_ZN12_GLOBAL__N_125font_OSD_Charset_184_typeD0Ev>:
 800dcf4:	b510      	push	{r4, lr}
 800dcf6:	4604      	mov	r4, r0
 800dcf8:	f003 fc64 	bl	80115c4 <_ZdlPv>
 800dcfc:	4620      	mov	r0, r4
 800dcfe:	bd10      	pop	{r4, pc}

0800dd00 <_ZN12_GLOBAL__N_125font_OSD_Charset_183_typeD0Ev>:
 800dd00:	b510      	push	{r4, lr}
 800dd02:	4604      	mov	r4, r0
 800dd04:	f003 fc5e 	bl	80115c4 <_ZdlPv>
 800dd08:	4620      	mov	r0, r4
 800dd0a:	bd10      	pop	{r4, pc}

0800dd0c <_ZN12_GLOBAL__N_125font_OSD_Charset_182_typeD0Ev>:
 800dd0c:	b510      	push	{r4, lr}
 800dd0e:	4604      	mov	r4, r0
 800dd10:	f003 fc58 	bl	80115c4 <_ZdlPv>
 800dd14:	4620      	mov	r0, r4
 800dd16:	bd10      	pop	{r4, pc}

0800dd18 <_ZN12_GLOBAL__N_125font_OSD_Charset_181_typeD0Ev>:
 800dd18:	b510      	push	{r4, lr}
 800dd1a:	4604      	mov	r4, r0
 800dd1c:	f003 fc52 	bl	80115c4 <_ZdlPv>
 800dd20:	4620      	mov	r0, r4
 800dd22:	bd10      	pop	{r4, pc}

0800dd24 <_ZN12_GLOBAL__N_125font_OSD_Charset_180_typeD0Ev>:
 800dd24:	b510      	push	{r4, lr}
 800dd26:	4604      	mov	r4, r0
 800dd28:	f003 fc4c 	bl	80115c4 <_ZdlPv>
 800dd2c:	4620      	mov	r0, r4
 800dd2e:	bd10      	pop	{r4, pc}

0800dd30 <_ZN12_GLOBAL__N_125font_OSD_Charset_179_typeD0Ev>:
 800dd30:	b510      	push	{r4, lr}
 800dd32:	4604      	mov	r4, r0
 800dd34:	f003 fc46 	bl	80115c4 <_ZdlPv>
 800dd38:	4620      	mov	r0, r4
 800dd3a:	bd10      	pop	{r4, pc}

0800dd3c <_ZN12_GLOBAL__N_125font_OSD_Charset_178_typeD0Ev>:
 800dd3c:	b510      	push	{r4, lr}
 800dd3e:	4604      	mov	r4, r0
 800dd40:	f003 fc40 	bl	80115c4 <_ZdlPv>
 800dd44:	4620      	mov	r0, r4
 800dd46:	bd10      	pop	{r4, pc}

0800dd48 <_ZN12_GLOBAL__N_125font_OSD_Charset_177_typeD0Ev>:
 800dd48:	b510      	push	{r4, lr}
 800dd4a:	4604      	mov	r4, r0
 800dd4c:	f003 fc3a 	bl	80115c4 <_ZdlPv>
 800dd50:	4620      	mov	r0, r4
 800dd52:	bd10      	pop	{r4, pc}

0800dd54 <_ZN12_GLOBAL__N_125font_OSD_Charset_176_typeD0Ev>:
 800dd54:	b510      	push	{r4, lr}
 800dd56:	4604      	mov	r4, r0
 800dd58:	f003 fc34 	bl	80115c4 <_ZdlPv>
 800dd5c:	4620      	mov	r0, r4
 800dd5e:	bd10      	pop	{r4, pc}

0800dd60 <_ZN12_GLOBAL__N_125font_OSD_Charset_175_typeD0Ev>:
 800dd60:	b510      	push	{r4, lr}
 800dd62:	4604      	mov	r4, r0
 800dd64:	f003 fc2e 	bl	80115c4 <_ZdlPv>
 800dd68:	4620      	mov	r0, r4
 800dd6a:	bd10      	pop	{r4, pc}

0800dd6c <_ZN12_GLOBAL__N_125font_OSD_Charset_174_typeD0Ev>:
 800dd6c:	b510      	push	{r4, lr}
 800dd6e:	4604      	mov	r4, r0
 800dd70:	f003 fc28 	bl	80115c4 <_ZdlPv>
 800dd74:	4620      	mov	r0, r4
 800dd76:	bd10      	pop	{r4, pc}

0800dd78 <_ZN12_GLOBAL__N_125font_OSD_Charset_173_typeD0Ev>:
 800dd78:	b510      	push	{r4, lr}
 800dd7a:	4604      	mov	r4, r0
 800dd7c:	f003 fc22 	bl	80115c4 <_ZdlPv>
 800dd80:	4620      	mov	r0, r4
 800dd82:	bd10      	pop	{r4, pc}

0800dd84 <_ZN12_GLOBAL__N_125font_OSD_Charset_172_typeD0Ev>:
 800dd84:	b510      	push	{r4, lr}
 800dd86:	4604      	mov	r4, r0
 800dd88:	f003 fc1c 	bl	80115c4 <_ZdlPv>
 800dd8c:	4620      	mov	r0, r4
 800dd8e:	bd10      	pop	{r4, pc}

0800dd90 <_ZN12_GLOBAL__N_125font_OSD_Charset_171_typeD0Ev>:
 800dd90:	b510      	push	{r4, lr}
 800dd92:	4604      	mov	r4, r0
 800dd94:	f003 fc16 	bl	80115c4 <_ZdlPv>
 800dd98:	4620      	mov	r0, r4
 800dd9a:	bd10      	pop	{r4, pc}

0800dd9c <_ZN12_GLOBAL__N_125font_OSD_Charset_170_typeD0Ev>:
 800dd9c:	b510      	push	{r4, lr}
 800dd9e:	4604      	mov	r4, r0
 800dda0:	f003 fc10 	bl	80115c4 <_ZdlPv>
 800dda4:	4620      	mov	r0, r4
 800dda6:	bd10      	pop	{r4, pc}

0800dda8 <_ZN12_GLOBAL__N_125font_OSD_Charset_169_typeD0Ev>:
 800dda8:	b510      	push	{r4, lr}
 800ddaa:	4604      	mov	r4, r0
 800ddac:	f003 fc0a 	bl	80115c4 <_ZdlPv>
 800ddb0:	4620      	mov	r0, r4
 800ddb2:	bd10      	pop	{r4, pc}

0800ddb4 <_ZN12_GLOBAL__N_125font_OSD_Charset_168_typeD0Ev>:
 800ddb4:	b510      	push	{r4, lr}
 800ddb6:	4604      	mov	r4, r0
 800ddb8:	f003 fc04 	bl	80115c4 <_ZdlPv>
 800ddbc:	4620      	mov	r0, r4
 800ddbe:	bd10      	pop	{r4, pc}

0800ddc0 <_ZN12_GLOBAL__N_125font_OSD_Charset_167_typeD0Ev>:
 800ddc0:	b510      	push	{r4, lr}
 800ddc2:	4604      	mov	r4, r0
 800ddc4:	f003 fbfe 	bl	80115c4 <_ZdlPv>
 800ddc8:	4620      	mov	r0, r4
 800ddca:	bd10      	pop	{r4, pc}

0800ddcc <_ZN12_GLOBAL__N_125font_OSD_Charset_166_typeD0Ev>:
 800ddcc:	b510      	push	{r4, lr}
 800ddce:	4604      	mov	r4, r0
 800ddd0:	f003 fbf8 	bl	80115c4 <_ZdlPv>
 800ddd4:	4620      	mov	r0, r4
 800ddd6:	bd10      	pop	{r4, pc}

0800ddd8 <_ZN12_GLOBAL__N_125font_OSD_Charset_165_typeD0Ev>:
 800ddd8:	b510      	push	{r4, lr}
 800ddda:	4604      	mov	r4, r0
 800dddc:	f003 fbf2 	bl	80115c4 <_ZdlPv>
 800dde0:	4620      	mov	r0, r4
 800dde2:	bd10      	pop	{r4, pc}

0800dde4 <_ZN12_GLOBAL__N_125font_OSD_Charset_164_typeD0Ev>:
 800dde4:	b510      	push	{r4, lr}
 800dde6:	4604      	mov	r4, r0
 800dde8:	f003 fbec 	bl	80115c4 <_ZdlPv>
 800ddec:	4620      	mov	r0, r4
 800ddee:	bd10      	pop	{r4, pc}

0800ddf0 <_ZN12_GLOBAL__N_125font_OSD_Charset_163_typeD0Ev>:
 800ddf0:	b510      	push	{r4, lr}
 800ddf2:	4604      	mov	r4, r0
 800ddf4:	f003 fbe6 	bl	80115c4 <_ZdlPv>
 800ddf8:	4620      	mov	r0, r4
 800ddfa:	bd10      	pop	{r4, pc}

0800ddfc <_ZN12_GLOBAL__N_125font_OSD_Charset_162_typeD0Ev>:
 800ddfc:	b510      	push	{r4, lr}
 800ddfe:	4604      	mov	r4, r0
 800de00:	f003 fbe0 	bl	80115c4 <_ZdlPv>
 800de04:	4620      	mov	r0, r4
 800de06:	bd10      	pop	{r4, pc}

0800de08 <_ZN12_GLOBAL__N_125font_OSD_Charset_161_typeD0Ev>:
 800de08:	b510      	push	{r4, lr}
 800de0a:	4604      	mov	r4, r0
 800de0c:	f003 fbda 	bl	80115c4 <_ZdlPv>
 800de10:	4620      	mov	r0, r4
 800de12:	bd10      	pop	{r4, pc}

0800de14 <_ZN12_GLOBAL__N_125font_OSD_Charset_160_typeD0Ev>:
 800de14:	b510      	push	{r4, lr}
 800de16:	4604      	mov	r4, r0
 800de18:	f003 fbd4 	bl	80115c4 <_ZdlPv>
 800de1c:	4620      	mov	r0, r4
 800de1e:	bd10      	pop	{r4, pc}

0800de20 <_ZN12_GLOBAL__N_125font_OSD_Charset_159_typeD0Ev>:
 800de20:	b510      	push	{r4, lr}
 800de22:	4604      	mov	r4, r0
 800de24:	f003 fbce 	bl	80115c4 <_ZdlPv>
 800de28:	4620      	mov	r0, r4
 800de2a:	bd10      	pop	{r4, pc}

0800de2c <_ZN12_GLOBAL__N_125font_OSD_Charset_158_typeD0Ev>:
 800de2c:	b510      	push	{r4, lr}
 800de2e:	4604      	mov	r4, r0
 800de30:	f003 fbc8 	bl	80115c4 <_ZdlPv>
 800de34:	4620      	mov	r0, r4
 800de36:	bd10      	pop	{r4, pc}

0800de38 <_ZN12_GLOBAL__N_125font_OSD_Charset_157_typeD0Ev>:
 800de38:	b510      	push	{r4, lr}
 800de3a:	4604      	mov	r4, r0
 800de3c:	f003 fbc2 	bl	80115c4 <_ZdlPv>
 800de40:	4620      	mov	r0, r4
 800de42:	bd10      	pop	{r4, pc}

0800de44 <_ZN12_GLOBAL__N_125font_OSD_Charset_156_typeD0Ev>:
 800de44:	b510      	push	{r4, lr}
 800de46:	4604      	mov	r4, r0
 800de48:	f003 fbbc 	bl	80115c4 <_ZdlPv>
 800de4c:	4620      	mov	r0, r4
 800de4e:	bd10      	pop	{r4, pc}

0800de50 <_ZN12_GLOBAL__N_125font_OSD_Charset_155_typeD0Ev>:
 800de50:	b510      	push	{r4, lr}
 800de52:	4604      	mov	r4, r0
 800de54:	f003 fbb6 	bl	80115c4 <_ZdlPv>
 800de58:	4620      	mov	r0, r4
 800de5a:	bd10      	pop	{r4, pc}

0800de5c <_ZN12_GLOBAL__N_125font_OSD_Charset_154_typeD0Ev>:
 800de5c:	b510      	push	{r4, lr}
 800de5e:	4604      	mov	r4, r0
 800de60:	f003 fbb0 	bl	80115c4 <_ZdlPv>
 800de64:	4620      	mov	r0, r4
 800de66:	bd10      	pop	{r4, pc}

0800de68 <_ZN12_GLOBAL__N_125font_OSD_Charset_153_typeD0Ev>:
 800de68:	b510      	push	{r4, lr}
 800de6a:	4604      	mov	r4, r0
 800de6c:	f003 fbaa 	bl	80115c4 <_ZdlPv>
 800de70:	4620      	mov	r0, r4
 800de72:	bd10      	pop	{r4, pc}

0800de74 <_ZN12_GLOBAL__N_125font_OSD_Charset_152_typeD0Ev>:
 800de74:	b510      	push	{r4, lr}
 800de76:	4604      	mov	r4, r0
 800de78:	f003 fba4 	bl	80115c4 <_ZdlPv>
 800de7c:	4620      	mov	r0, r4
 800de7e:	bd10      	pop	{r4, pc}

0800de80 <_ZN12_GLOBAL__N_125font_OSD_Charset_151_typeD0Ev>:
 800de80:	b510      	push	{r4, lr}
 800de82:	4604      	mov	r4, r0
 800de84:	f003 fb9e 	bl	80115c4 <_ZdlPv>
 800de88:	4620      	mov	r0, r4
 800de8a:	bd10      	pop	{r4, pc}

0800de8c <_ZN12_GLOBAL__N_125font_OSD_Charset_150_typeD0Ev>:
 800de8c:	b510      	push	{r4, lr}
 800de8e:	4604      	mov	r4, r0
 800de90:	f003 fb98 	bl	80115c4 <_ZdlPv>
 800de94:	4620      	mov	r0, r4
 800de96:	bd10      	pop	{r4, pc}

0800de98 <_ZN12_GLOBAL__N_125font_OSD_Charset_149_typeD0Ev>:
 800de98:	b510      	push	{r4, lr}
 800de9a:	4604      	mov	r4, r0
 800de9c:	f003 fb92 	bl	80115c4 <_ZdlPv>
 800dea0:	4620      	mov	r0, r4
 800dea2:	bd10      	pop	{r4, pc}

0800dea4 <_ZN12_GLOBAL__N_125font_OSD_Charset_148_typeD0Ev>:
 800dea4:	b510      	push	{r4, lr}
 800dea6:	4604      	mov	r4, r0
 800dea8:	f003 fb8c 	bl	80115c4 <_ZdlPv>
 800deac:	4620      	mov	r0, r4
 800deae:	bd10      	pop	{r4, pc}

0800deb0 <_ZN12_GLOBAL__N_125font_OSD_Charset_147_typeD0Ev>:
 800deb0:	b510      	push	{r4, lr}
 800deb2:	4604      	mov	r4, r0
 800deb4:	f003 fb86 	bl	80115c4 <_ZdlPv>
 800deb8:	4620      	mov	r0, r4
 800deba:	bd10      	pop	{r4, pc}

0800debc <_ZN12_GLOBAL__N_125font_OSD_Charset_146_typeD0Ev>:
 800debc:	b510      	push	{r4, lr}
 800debe:	4604      	mov	r4, r0
 800dec0:	f003 fb80 	bl	80115c4 <_ZdlPv>
 800dec4:	4620      	mov	r0, r4
 800dec6:	bd10      	pop	{r4, pc}

0800dec8 <_ZN12_GLOBAL__N_125font_OSD_Charset_145_typeD0Ev>:
 800dec8:	b510      	push	{r4, lr}
 800deca:	4604      	mov	r4, r0
 800decc:	f003 fb7a 	bl	80115c4 <_ZdlPv>
 800ded0:	4620      	mov	r0, r4
 800ded2:	bd10      	pop	{r4, pc}

0800ded4 <_ZN12_GLOBAL__N_125font_OSD_Charset_144_typeD0Ev>:
 800ded4:	b510      	push	{r4, lr}
 800ded6:	4604      	mov	r4, r0
 800ded8:	f003 fb74 	bl	80115c4 <_ZdlPv>
 800dedc:	4620      	mov	r0, r4
 800dede:	bd10      	pop	{r4, pc}

0800dee0 <_ZN12_GLOBAL__N_125font_OSD_Charset_143_typeD0Ev>:
 800dee0:	b510      	push	{r4, lr}
 800dee2:	4604      	mov	r4, r0
 800dee4:	f003 fb6e 	bl	80115c4 <_ZdlPv>
 800dee8:	4620      	mov	r0, r4
 800deea:	bd10      	pop	{r4, pc}

0800deec <_ZN12_GLOBAL__N_125font_OSD_Charset_142_typeD0Ev>:
 800deec:	b510      	push	{r4, lr}
 800deee:	4604      	mov	r4, r0
 800def0:	f003 fb68 	bl	80115c4 <_ZdlPv>
 800def4:	4620      	mov	r0, r4
 800def6:	bd10      	pop	{r4, pc}

0800def8 <_ZN12_GLOBAL__N_125font_OSD_Charset_141_typeD0Ev>:
 800def8:	b510      	push	{r4, lr}
 800defa:	4604      	mov	r4, r0
 800defc:	f003 fb62 	bl	80115c4 <_ZdlPv>
 800df00:	4620      	mov	r0, r4
 800df02:	bd10      	pop	{r4, pc}

0800df04 <_ZN12_GLOBAL__N_125font_OSD_Charset_140_typeD0Ev>:
 800df04:	b510      	push	{r4, lr}
 800df06:	4604      	mov	r4, r0
 800df08:	f003 fb5c 	bl	80115c4 <_ZdlPv>
 800df0c:	4620      	mov	r0, r4
 800df0e:	bd10      	pop	{r4, pc}

0800df10 <_ZN12_GLOBAL__N_125font_OSD_Charset_139_typeD0Ev>:
 800df10:	b510      	push	{r4, lr}
 800df12:	4604      	mov	r4, r0
 800df14:	f003 fb56 	bl	80115c4 <_ZdlPv>
 800df18:	4620      	mov	r0, r4
 800df1a:	bd10      	pop	{r4, pc}

0800df1c <_ZN12_GLOBAL__N_125font_OSD_Charset_138_typeD0Ev>:
 800df1c:	b510      	push	{r4, lr}
 800df1e:	4604      	mov	r4, r0
 800df20:	f003 fb50 	bl	80115c4 <_ZdlPv>
 800df24:	4620      	mov	r0, r4
 800df26:	bd10      	pop	{r4, pc}

0800df28 <_ZN12_GLOBAL__N_125font_OSD_Charset_137_typeD0Ev>:
 800df28:	b510      	push	{r4, lr}
 800df2a:	4604      	mov	r4, r0
 800df2c:	f003 fb4a 	bl	80115c4 <_ZdlPv>
 800df30:	4620      	mov	r0, r4
 800df32:	bd10      	pop	{r4, pc}

0800df34 <_ZN12_GLOBAL__N_125font_OSD_Charset_136_typeD0Ev>:
 800df34:	b510      	push	{r4, lr}
 800df36:	4604      	mov	r4, r0
 800df38:	f003 fb44 	bl	80115c4 <_ZdlPv>
 800df3c:	4620      	mov	r0, r4
 800df3e:	bd10      	pop	{r4, pc}

0800df40 <_ZN12_GLOBAL__N_125font_OSD_Charset_135_typeD0Ev>:
 800df40:	b510      	push	{r4, lr}
 800df42:	4604      	mov	r4, r0
 800df44:	f003 fb3e 	bl	80115c4 <_ZdlPv>
 800df48:	4620      	mov	r0, r4
 800df4a:	bd10      	pop	{r4, pc}

0800df4c <_ZN12_GLOBAL__N_125font_OSD_Charset_134_typeD0Ev>:
 800df4c:	b510      	push	{r4, lr}
 800df4e:	4604      	mov	r4, r0
 800df50:	f003 fb38 	bl	80115c4 <_ZdlPv>
 800df54:	4620      	mov	r0, r4
 800df56:	bd10      	pop	{r4, pc}

0800df58 <_ZN12_GLOBAL__N_125font_OSD_Charset_133_typeD0Ev>:
 800df58:	b510      	push	{r4, lr}
 800df5a:	4604      	mov	r4, r0
 800df5c:	f003 fb32 	bl	80115c4 <_ZdlPv>
 800df60:	4620      	mov	r0, r4
 800df62:	bd10      	pop	{r4, pc}

0800df64 <_ZN12_GLOBAL__N_125font_OSD_Charset_132_typeD0Ev>:
 800df64:	b510      	push	{r4, lr}
 800df66:	4604      	mov	r4, r0
 800df68:	f003 fb2c 	bl	80115c4 <_ZdlPv>
 800df6c:	4620      	mov	r0, r4
 800df6e:	bd10      	pop	{r4, pc}

0800df70 <_ZN12_GLOBAL__N_125font_OSD_Charset_131_typeD0Ev>:
 800df70:	b510      	push	{r4, lr}
 800df72:	4604      	mov	r4, r0
 800df74:	f003 fb26 	bl	80115c4 <_ZdlPv>
 800df78:	4620      	mov	r0, r4
 800df7a:	bd10      	pop	{r4, pc}

0800df7c <_ZN12_GLOBAL__N_125font_OSD_Charset_130_typeD0Ev>:
 800df7c:	b510      	push	{r4, lr}
 800df7e:	4604      	mov	r4, r0
 800df80:	f003 fb20 	bl	80115c4 <_ZdlPv>
 800df84:	4620      	mov	r0, r4
 800df86:	bd10      	pop	{r4, pc}

0800df88 <_ZN12_GLOBAL__N_125font_OSD_Charset_129_typeD0Ev>:
 800df88:	b510      	push	{r4, lr}
 800df8a:	4604      	mov	r4, r0
 800df8c:	f003 fb1a 	bl	80115c4 <_ZdlPv>
 800df90:	4620      	mov	r0, r4
 800df92:	bd10      	pop	{r4, pc}

0800df94 <_ZN12_GLOBAL__N_125font_OSD_Charset_128_typeD0Ev>:
 800df94:	b510      	push	{r4, lr}
 800df96:	4604      	mov	r4, r0
 800df98:	f003 fb14 	bl	80115c4 <_ZdlPv>
 800df9c:	4620      	mov	r0, r4
 800df9e:	bd10      	pop	{r4, pc}

0800dfa0 <_ZN12_GLOBAL__N_125font_OSD_Charset_127_typeD0Ev>:
 800dfa0:	b510      	push	{r4, lr}
 800dfa2:	4604      	mov	r4, r0
 800dfa4:	f003 fb0e 	bl	80115c4 <_ZdlPv>
 800dfa8:	4620      	mov	r0, r4
 800dfaa:	bd10      	pop	{r4, pc}

0800dfac <_ZN12_GLOBAL__N_125font_OSD_Charset_126_typeD0Ev>:
 800dfac:	b510      	push	{r4, lr}
 800dfae:	4604      	mov	r4, r0
 800dfb0:	f003 fb08 	bl	80115c4 <_ZdlPv>
 800dfb4:	4620      	mov	r0, r4
 800dfb6:	bd10      	pop	{r4, pc}

0800dfb8 <_ZN12_GLOBAL__N_125font_OSD_Charset_125_typeD0Ev>:
 800dfb8:	b510      	push	{r4, lr}
 800dfba:	4604      	mov	r4, r0
 800dfbc:	f003 fb02 	bl	80115c4 <_ZdlPv>
 800dfc0:	4620      	mov	r0, r4
 800dfc2:	bd10      	pop	{r4, pc}

0800dfc4 <_ZN12_GLOBAL__N_125font_OSD_Charset_124_typeD0Ev>:
 800dfc4:	b510      	push	{r4, lr}
 800dfc6:	4604      	mov	r4, r0
 800dfc8:	f003 fafc 	bl	80115c4 <_ZdlPv>
 800dfcc:	4620      	mov	r0, r4
 800dfce:	bd10      	pop	{r4, pc}

0800dfd0 <_ZN12_GLOBAL__N_125font_OSD_Charset_123_typeD0Ev>:
 800dfd0:	b510      	push	{r4, lr}
 800dfd2:	4604      	mov	r4, r0
 800dfd4:	f003 faf6 	bl	80115c4 <_ZdlPv>
 800dfd8:	4620      	mov	r0, r4
 800dfda:	bd10      	pop	{r4, pc}

0800dfdc <_ZN12_GLOBAL__N_125font_OSD_Charset_122_typeD0Ev>:
 800dfdc:	b510      	push	{r4, lr}
 800dfde:	4604      	mov	r4, r0
 800dfe0:	f003 faf0 	bl	80115c4 <_ZdlPv>
 800dfe4:	4620      	mov	r0, r4
 800dfe6:	bd10      	pop	{r4, pc}

0800dfe8 <_ZN12_GLOBAL__N_125font_OSD_Charset_121_typeD0Ev>:
 800dfe8:	b510      	push	{r4, lr}
 800dfea:	4604      	mov	r4, r0
 800dfec:	f003 faea 	bl	80115c4 <_ZdlPv>
 800dff0:	4620      	mov	r0, r4
 800dff2:	bd10      	pop	{r4, pc}

0800dff4 <_ZN12_GLOBAL__N_125font_OSD_Charset_120_typeD0Ev>:
 800dff4:	b510      	push	{r4, lr}
 800dff6:	4604      	mov	r4, r0
 800dff8:	f003 fae4 	bl	80115c4 <_ZdlPv>
 800dffc:	4620      	mov	r0, r4
 800dffe:	bd10      	pop	{r4, pc}

0800e000 <_ZN12_GLOBAL__N_125font_OSD_Charset_119_typeD0Ev>:
 800e000:	b510      	push	{r4, lr}
 800e002:	4604      	mov	r4, r0
 800e004:	f003 fade 	bl	80115c4 <_ZdlPv>
 800e008:	4620      	mov	r0, r4
 800e00a:	bd10      	pop	{r4, pc}

0800e00c <_ZN12_GLOBAL__N_125font_OSD_Charset_118_typeD0Ev>:
 800e00c:	b510      	push	{r4, lr}
 800e00e:	4604      	mov	r4, r0
 800e010:	f003 fad8 	bl	80115c4 <_ZdlPv>
 800e014:	4620      	mov	r0, r4
 800e016:	bd10      	pop	{r4, pc}

0800e018 <_ZN12_GLOBAL__N_125font_OSD_Charset_117_typeD0Ev>:
 800e018:	b510      	push	{r4, lr}
 800e01a:	4604      	mov	r4, r0
 800e01c:	f003 fad2 	bl	80115c4 <_ZdlPv>
 800e020:	4620      	mov	r0, r4
 800e022:	bd10      	pop	{r4, pc}

0800e024 <_ZN12_GLOBAL__N_125font_OSD_Charset_116_typeD0Ev>:
 800e024:	b510      	push	{r4, lr}
 800e026:	4604      	mov	r4, r0
 800e028:	f003 facc 	bl	80115c4 <_ZdlPv>
 800e02c:	4620      	mov	r0, r4
 800e02e:	bd10      	pop	{r4, pc}

0800e030 <_ZN12_GLOBAL__N_125font_OSD_Charset_115_typeD0Ev>:
 800e030:	b510      	push	{r4, lr}
 800e032:	4604      	mov	r4, r0
 800e034:	f003 fac6 	bl	80115c4 <_ZdlPv>
 800e038:	4620      	mov	r0, r4
 800e03a:	bd10      	pop	{r4, pc}

0800e03c <_ZN12_GLOBAL__N_125font_OSD_Charset_114_typeD0Ev>:
 800e03c:	b510      	push	{r4, lr}
 800e03e:	4604      	mov	r4, r0
 800e040:	f003 fac0 	bl	80115c4 <_ZdlPv>
 800e044:	4620      	mov	r0, r4
 800e046:	bd10      	pop	{r4, pc}

0800e048 <_ZN12_GLOBAL__N_125font_OSD_Charset_113_typeD0Ev>:
 800e048:	b510      	push	{r4, lr}
 800e04a:	4604      	mov	r4, r0
 800e04c:	f003 faba 	bl	80115c4 <_ZdlPv>
 800e050:	4620      	mov	r0, r4
 800e052:	bd10      	pop	{r4, pc}

0800e054 <_ZN12_GLOBAL__N_125font_OSD_Charset_112_typeD0Ev>:
 800e054:	b510      	push	{r4, lr}
 800e056:	4604      	mov	r4, r0
 800e058:	f003 fab4 	bl	80115c4 <_ZdlPv>
 800e05c:	4620      	mov	r0, r4
 800e05e:	bd10      	pop	{r4, pc}

0800e060 <_ZN12_GLOBAL__N_125font_OSD_Charset_111_typeD0Ev>:
 800e060:	b510      	push	{r4, lr}
 800e062:	4604      	mov	r4, r0
 800e064:	f003 faae 	bl	80115c4 <_ZdlPv>
 800e068:	4620      	mov	r0, r4
 800e06a:	bd10      	pop	{r4, pc}

0800e06c <_ZN12_GLOBAL__N_125font_OSD_Charset_110_typeD0Ev>:
 800e06c:	b510      	push	{r4, lr}
 800e06e:	4604      	mov	r4, r0
 800e070:	f003 faa8 	bl	80115c4 <_ZdlPv>
 800e074:	4620      	mov	r0, r4
 800e076:	bd10      	pop	{r4, pc}

0800e078 <_ZN12_GLOBAL__N_125font_OSD_Charset_109_typeD0Ev>:
 800e078:	b510      	push	{r4, lr}
 800e07a:	4604      	mov	r4, r0
 800e07c:	f003 faa2 	bl	80115c4 <_ZdlPv>
 800e080:	4620      	mov	r0, r4
 800e082:	bd10      	pop	{r4, pc}

0800e084 <_ZN12_GLOBAL__N_125font_OSD_Charset_108_typeD0Ev>:
 800e084:	b510      	push	{r4, lr}
 800e086:	4604      	mov	r4, r0
 800e088:	f003 fa9c 	bl	80115c4 <_ZdlPv>
 800e08c:	4620      	mov	r0, r4
 800e08e:	bd10      	pop	{r4, pc}

0800e090 <_ZN12_GLOBAL__N_125font_OSD_Charset_107_typeD0Ev>:
 800e090:	b510      	push	{r4, lr}
 800e092:	4604      	mov	r4, r0
 800e094:	f003 fa96 	bl	80115c4 <_ZdlPv>
 800e098:	4620      	mov	r0, r4
 800e09a:	bd10      	pop	{r4, pc}

0800e09c <_ZN12_GLOBAL__N_125font_OSD_Charset_106_typeD0Ev>:
 800e09c:	b510      	push	{r4, lr}
 800e09e:	4604      	mov	r4, r0
 800e0a0:	f003 fa90 	bl	80115c4 <_ZdlPv>
 800e0a4:	4620      	mov	r0, r4
 800e0a6:	bd10      	pop	{r4, pc}

0800e0a8 <_ZN12_GLOBAL__N_125font_OSD_Charset_105_typeD0Ev>:
 800e0a8:	b510      	push	{r4, lr}
 800e0aa:	4604      	mov	r4, r0
 800e0ac:	f003 fa8a 	bl	80115c4 <_ZdlPv>
 800e0b0:	4620      	mov	r0, r4
 800e0b2:	bd10      	pop	{r4, pc}

0800e0b4 <_ZN12_GLOBAL__N_125font_OSD_Charset_104_typeD0Ev>:
 800e0b4:	b510      	push	{r4, lr}
 800e0b6:	4604      	mov	r4, r0
 800e0b8:	f003 fa84 	bl	80115c4 <_ZdlPv>
 800e0bc:	4620      	mov	r0, r4
 800e0be:	bd10      	pop	{r4, pc}

0800e0c0 <_ZN12_GLOBAL__N_125font_OSD_Charset_103_typeD0Ev>:
 800e0c0:	b510      	push	{r4, lr}
 800e0c2:	4604      	mov	r4, r0
 800e0c4:	f003 fa7e 	bl	80115c4 <_ZdlPv>
 800e0c8:	4620      	mov	r0, r4
 800e0ca:	bd10      	pop	{r4, pc}

0800e0cc <_ZN12_GLOBAL__N_125font_OSD_Charset_102_typeD0Ev>:
 800e0cc:	b510      	push	{r4, lr}
 800e0ce:	4604      	mov	r4, r0
 800e0d0:	f003 fa78 	bl	80115c4 <_ZdlPv>
 800e0d4:	4620      	mov	r0, r4
 800e0d6:	bd10      	pop	{r4, pc}

0800e0d8 <_ZN12_GLOBAL__N_125font_OSD_Charset_101_typeD0Ev>:
 800e0d8:	b510      	push	{r4, lr}
 800e0da:	4604      	mov	r4, r0
 800e0dc:	f003 fa72 	bl	80115c4 <_ZdlPv>
 800e0e0:	4620      	mov	r0, r4
 800e0e2:	bd10      	pop	{r4, pc}

0800e0e4 <_ZN12_GLOBAL__N_125font_OSD_Charset_100_typeD0Ev>:
 800e0e4:	b510      	push	{r4, lr}
 800e0e6:	4604      	mov	r4, r0
 800e0e8:	f003 fa6c 	bl	80115c4 <_ZdlPv>
 800e0ec:	4620      	mov	r0, r4
 800e0ee:	bd10      	pop	{r4, pc}

0800e0f0 <_ZN12_GLOBAL__N_124font_OSD_Charset_99_typeD0Ev>:
 800e0f0:	b510      	push	{r4, lr}
 800e0f2:	4604      	mov	r4, r0
 800e0f4:	f003 fa66 	bl	80115c4 <_ZdlPv>
 800e0f8:	4620      	mov	r0, r4
 800e0fa:	bd10      	pop	{r4, pc}

0800e0fc <_ZN12_GLOBAL__N_124font_OSD_Charset_98_typeD0Ev>:
 800e0fc:	b510      	push	{r4, lr}
 800e0fe:	4604      	mov	r4, r0
 800e100:	f003 fa60 	bl	80115c4 <_ZdlPv>
 800e104:	4620      	mov	r0, r4
 800e106:	bd10      	pop	{r4, pc}

0800e108 <_ZN12_GLOBAL__N_124font_OSD_Charset_97_typeD0Ev>:
 800e108:	b510      	push	{r4, lr}
 800e10a:	4604      	mov	r4, r0
 800e10c:	f003 fa5a 	bl	80115c4 <_ZdlPv>
 800e110:	4620      	mov	r0, r4
 800e112:	bd10      	pop	{r4, pc}

0800e114 <_ZN12_GLOBAL__N_124font_OSD_Charset_96_typeD0Ev>:
 800e114:	b510      	push	{r4, lr}
 800e116:	4604      	mov	r4, r0
 800e118:	f003 fa54 	bl	80115c4 <_ZdlPv>
 800e11c:	4620      	mov	r0, r4
 800e11e:	bd10      	pop	{r4, pc}

0800e120 <_ZN12_GLOBAL__N_124font_OSD_Charset_95_typeD0Ev>:
 800e120:	b510      	push	{r4, lr}
 800e122:	4604      	mov	r4, r0
 800e124:	f003 fa4e 	bl	80115c4 <_ZdlPv>
 800e128:	4620      	mov	r0, r4
 800e12a:	bd10      	pop	{r4, pc}

0800e12c <_ZN12_GLOBAL__N_124font_OSD_Charset_94_typeD0Ev>:
 800e12c:	b510      	push	{r4, lr}
 800e12e:	4604      	mov	r4, r0
 800e130:	f003 fa48 	bl	80115c4 <_ZdlPv>
 800e134:	4620      	mov	r0, r4
 800e136:	bd10      	pop	{r4, pc}

0800e138 <_ZN12_GLOBAL__N_124font_OSD_Charset_93_typeD0Ev>:
 800e138:	b510      	push	{r4, lr}
 800e13a:	4604      	mov	r4, r0
 800e13c:	f003 fa42 	bl	80115c4 <_ZdlPv>
 800e140:	4620      	mov	r0, r4
 800e142:	bd10      	pop	{r4, pc}

0800e144 <_ZN12_GLOBAL__N_124font_OSD_Charset_92_typeD0Ev>:
 800e144:	b510      	push	{r4, lr}
 800e146:	4604      	mov	r4, r0
 800e148:	f003 fa3c 	bl	80115c4 <_ZdlPv>
 800e14c:	4620      	mov	r0, r4
 800e14e:	bd10      	pop	{r4, pc}

0800e150 <_ZN12_GLOBAL__N_124font_OSD_Charset_91_typeD0Ev>:
 800e150:	b510      	push	{r4, lr}
 800e152:	4604      	mov	r4, r0
 800e154:	f003 fa36 	bl	80115c4 <_ZdlPv>
 800e158:	4620      	mov	r0, r4
 800e15a:	bd10      	pop	{r4, pc}

0800e15c <_ZN12_GLOBAL__N_124font_OSD_Charset_90_typeD0Ev>:
 800e15c:	b510      	push	{r4, lr}
 800e15e:	4604      	mov	r4, r0
 800e160:	f003 fa30 	bl	80115c4 <_ZdlPv>
 800e164:	4620      	mov	r0, r4
 800e166:	bd10      	pop	{r4, pc}

0800e168 <_ZN12_GLOBAL__N_124font_OSD_Charset_89_typeD0Ev>:
 800e168:	b510      	push	{r4, lr}
 800e16a:	4604      	mov	r4, r0
 800e16c:	f003 fa2a 	bl	80115c4 <_ZdlPv>
 800e170:	4620      	mov	r0, r4
 800e172:	bd10      	pop	{r4, pc}

0800e174 <_ZN12_GLOBAL__N_124font_OSD_Charset_88_typeD0Ev>:
 800e174:	b510      	push	{r4, lr}
 800e176:	4604      	mov	r4, r0
 800e178:	f003 fa24 	bl	80115c4 <_ZdlPv>
 800e17c:	4620      	mov	r0, r4
 800e17e:	bd10      	pop	{r4, pc}

0800e180 <_ZN12_GLOBAL__N_124font_OSD_Charset_87_typeD0Ev>:
 800e180:	b510      	push	{r4, lr}
 800e182:	4604      	mov	r4, r0
 800e184:	f003 fa1e 	bl	80115c4 <_ZdlPv>
 800e188:	4620      	mov	r0, r4
 800e18a:	bd10      	pop	{r4, pc}

0800e18c <_ZN12_GLOBAL__N_124font_OSD_Charset_86_typeD0Ev>:
 800e18c:	b510      	push	{r4, lr}
 800e18e:	4604      	mov	r4, r0
 800e190:	f003 fa18 	bl	80115c4 <_ZdlPv>
 800e194:	4620      	mov	r0, r4
 800e196:	bd10      	pop	{r4, pc}

0800e198 <_ZN12_GLOBAL__N_124font_OSD_Charset_85_typeD0Ev>:
 800e198:	b510      	push	{r4, lr}
 800e19a:	4604      	mov	r4, r0
 800e19c:	f003 fa12 	bl	80115c4 <_ZdlPv>
 800e1a0:	4620      	mov	r0, r4
 800e1a2:	bd10      	pop	{r4, pc}

0800e1a4 <_ZN12_GLOBAL__N_124font_OSD_Charset_84_typeD0Ev>:
 800e1a4:	b510      	push	{r4, lr}
 800e1a6:	4604      	mov	r4, r0
 800e1a8:	f003 fa0c 	bl	80115c4 <_ZdlPv>
 800e1ac:	4620      	mov	r0, r4
 800e1ae:	bd10      	pop	{r4, pc}

0800e1b0 <_ZN12_GLOBAL__N_124font_OSD_Charset_83_typeD0Ev>:
 800e1b0:	b510      	push	{r4, lr}
 800e1b2:	4604      	mov	r4, r0
 800e1b4:	f003 fa06 	bl	80115c4 <_ZdlPv>
 800e1b8:	4620      	mov	r0, r4
 800e1ba:	bd10      	pop	{r4, pc}

0800e1bc <_ZN12_GLOBAL__N_124font_OSD_Charset_82_typeD0Ev>:
 800e1bc:	b510      	push	{r4, lr}
 800e1be:	4604      	mov	r4, r0
 800e1c0:	f003 fa00 	bl	80115c4 <_ZdlPv>
 800e1c4:	4620      	mov	r0, r4
 800e1c6:	bd10      	pop	{r4, pc}

0800e1c8 <_ZN12_GLOBAL__N_124font_OSD_Charset_81_typeD0Ev>:
 800e1c8:	b510      	push	{r4, lr}
 800e1ca:	4604      	mov	r4, r0
 800e1cc:	f003 f9fa 	bl	80115c4 <_ZdlPv>
 800e1d0:	4620      	mov	r0, r4
 800e1d2:	bd10      	pop	{r4, pc}

0800e1d4 <_ZN12_GLOBAL__N_124font_OSD_Charset_80_typeD0Ev>:
 800e1d4:	b510      	push	{r4, lr}
 800e1d6:	4604      	mov	r4, r0
 800e1d8:	f003 f9f4 	bl	80115c4 <_ZdlPv>
 800e1dc:	4620      	mov	r0, r4
 800e1de:	bd10      	pop	{r4, pc}

0800e1e0 <_ZN12_GLOBAL__N_124font_OSD_Charset_79_typeD0Ev>:
 800e1e0:	b510      	push	{r4, lr}
 800e1e2:	4604      	mov	r4, r0
 800e1e4:	f003 f9ee 	bl	80115c4 <_ZdlPv>
 800e1e8:	4620      	mov	r0, r4
 800e1ea:	bd10      	pop	{r4, pc}

0800e1ec <_ZN12_GLOBAL__N_124font_OSD_Charset_78_typeD0Ev>:
 800e1ec:	b510      	push	{r4, lr}
 800e1ee:	4604      	mov	r4, r0
 800e1f0:	f003 f9e8 	bl	80115c4 <_ZdlPv>
 800e1f4:	4620      	mov	r0, r4
 800e1f6:	bd10      	pop	{r4, pc}

0800e1f8 <_ZN12_GLOBAL__N_124font_OSD_Charset_77_typeD0Ev>:
 800e1f8:	b510      	push	{r4, lr}
 800e1fa:	4604      	mov	r4, r0
 800e1fc:	f003 f9e2 	bl	80115c4 <_ZdlPv>
 800e200:	4620      	mov	r0, r4
 800e202:	bd10      	pop	{r4, pc}

0800e204 <_ZN12_GLOBAL__N_124font_OSD_Charset_76_typeD0Ev>:
 800e204:	b510      	push	{r4, lr}
 800e206:	4604      	mov	r4, r0
 800e208:	f003 f9dc 	bl	80115c4 <_ZdlPv>
 800e20c:	4620      	mov	r0, r4
 800e20e:	bd10      	pop	{r4, pc}

0800e210 <_ZN12_GLOBAL__N_124font_OSD_Charset_75_typeD0Ev>:
 800e210:	b510      	push	{r4, lr}
 800e212:	4604      	mov	r4, r0
 800e214:	f003 f9d6 	bl	80115c4 <_ZdlPv>
 800e218:	4620      	mov	r0, r4
 800e21a:	bd10      	pop	{r4, pc}

0800e21c <_ZN12_GLOBAL__N_124font_OSD_Charset_74_typeD0Ev>:
 800e21c:	b510      	push	{r4, lr}
 800e21e:	4604      	mov	r4, r0
 800e220:	f003 f9d0 	bl	80115c4 <_ZdlPv>
 800e224:	4620      	mov	r0, r4
 800e226:	bd10      	pop	{r4, pc}

0800e228 <_ZN12_GLOBAL__N_124font_OSD_Charset_73_typeD0Ev>:
 800e228:	b510      	push	{r4, lr}
 800e22a:	4604      	mov	r4, r0
 800e22c:	f003 f9ca 	bl	80115c4 <_ZdlPv>
 800e230:	4620      	mov	r0, r4
 800e232:	bd10      	pop	{r4, pc}

0800e234 <_ZN12_GLOBAL__N_124font_OSD_Charset_72_typeD0Ev>:
 800e234:	b510      	push	{r4, lr}
 800e236:	4604      	mov	r4, r0
 800e238:	f003 f9c4 	bl	80115c4 <_ZdlPv>
 800e23c:	4620      	mov	r0, r4
 800e23e:	bd10      	pop	{r4, pc}

0800e240 <_ZN12_GLOBAL__N_124font_OSD_Charset_71_typeD0Ev>:
 800e240:	b510      	push	{r4, lr}
 800e242:	4604      	mov	r4, r0
 800e244:	f003 f9be 	bl	80115c4 <_ZdlPv>
 800e248:	4620      	mov	r0, r4
 800e24a:	bd10      	pop	{r4, pc}

0800e24c <_ZN12_GLOBAL__N_124font_OSD_Charset_70_typeD0Ev>:
 800e24c:	b510      	push	{r4, lr}
 800e24e:	4604      	mov	r4, r0
 800e250:	f003 f9b8 	bl	80115c4 <_ZdlPv>
 800e254:	4620      	mov	r0, r4
 800e256:	bd10      	pop	{r4, pc}

0800e258 <_ZN12_GLOBAL__N_124font_OSD_Charset_69_typeD0Ev>:
 800e258:	b510      	push	{r4, lr}
 800e25a:	4604      	mov	r4, r0
 800e25c:	f003 f9b2 	bl	80115c4 <_ZdlPv>
 800e260:	4620      	mov	r0, r4
 800e262:	bd10      	pop	{r4, pc}

0800e264 <_ZN12_GLOBAL__N_124font_OSD_Charset_68_typeD0Ev>:
 800e264:	b510      	push	{r4, lr}
 800e266:	4604      	mov	r4, r0
 800e268:	f003 f9ac 	bl	80115c4 <_ZdlPv>
 800e26c:	4620      	mov	r0, r4
 800e26e:	bd10      	pop	{r4, pc}

0800e270 <_ZN12_GLOBAL__N_124font_OSD_Charset_67_typeD0Ev>:
 800e270:	b510      	push	{r4, lr}
 800e272:	4604      	mov	r4, r0
 800e274:	f003 f9a6 	bl	80115c4 <_ZdlPv>
 800e278:	4620      	mov	r0, r4
 800e27a:	bd10      	pop	{r4, pc}

0800e27c <_ZN12_GLOBAL__N_124font_OSD_Charset_66_typeD0Ev>:
 800e27c:	b510      	push	{r4, lr}
 800e27e:	4604      	mov	r4, r0
 800e280:	f003 f9a0 	bl	80115c4 <_ZdlPv>
 800e284:	4620      	mov	r0, r4
 800e286:	bd10      	pop	{r4, pc}

0800e288 <_ZN12_GLOBAL__N_124font_OSD_Charset_65_typeD0Ev>:
 800e288:	b510      	push	{r4, lr}
 800e28a:	4604      	mov	r4, r0
 800e28c:	f003 f99a 	bl	80115c4 <_ZdlPv>
 800e290:	4620      	mov	r0, r4
 800e292:	bd10      	pop	{r4, pc}

0800e294 <_ZN12_GLOBAL__N_124font_OSD_Charset_64_typeD0Ev>:
 800e294:	b510      	push	{r4, lr}
 800e296:	4604      	mov	r4, r0
 800e298:	f003 f994 	bl	80115c4 <_ZdlPv>
 800e29c:	4620      	mov	r0, r4
 800e29e:	bd10      	pop	{r4, pc}

0800e2a0 <_ZN12_GLOBAL__N_124font_OSD_Charset_63_typeD0Ev>:
 800e2a0:	b510      	push	{r4, lr}
 800e2a2:	4604      	mov	r4, r0
 800e2a4:	f003 f98e 	bl	80115c4 <_ZdlPv>
 800e2a8:	4620      	mov	r0, r4
 800e2aa:	bd10      	pop	{r4, pc}

0800e2ac <_ZN12_GLOBAL__N_124font_OSD_Charset_62_typeD0Ev>:
 800e2ac:	b510      	push	{r4, lr}
 800e2ae:	4604      	mov	r4, r0
 800e2b0:	f003 f988 	bl	80115c4 <_ZdlPv>
 800e2b4:	4620      	mov	r0, r4
 800e2b6:	bd10      	pop	{r4, pc}

0800e2b8 <_ZN12_GLOBAL__N_124font_OSD_Charset_61_typeD0Ev>:
 800e2b8:	b510      	push	{r4, lr}
 800e2ba:	4604      	mov	r4, r0
 800e2bc:	f003 f982 	bl	80115c4 <_ZdlPv>
 800e2c0:	4620      	mov	r0, r4
 800e2c2:	bd10      	pop	{r4, pc}

0800e2c4 <_ZN12_GLOBAL__N_124font_OSD_Charset_60_typeD0Ev>:
 800e2c4:	b510      	push	{r4, lr}
 800e2c6:	4604      	mov	r4, r0
 800e2c8:	f003 f97c 	bl	80115c4 <_ZdlPv>
 800e2cc:	4620      	mov	r0, r4
 800e2ce:	bd10      	pop	{r4, pc}

0800e2d0 <_ZN12_GLOBAL__N_124font_OSD_Charset_59_typeD0Ev>:
 800e2d0:	b510      	push	{r4, lr}
 800e2d2:	4604      	mov	r4, r0
 800e2d4:	f003 f976 	bl	80115c4 <_ZdlPv>
 800e2d8:	4620      	mov	r0, r4
 800e2da:	bd10      	pop	{r4, pc}

0800e2dc <_ZN12_GLOBAL__N_124font_OSD_Charset_58_typeD0Ev>:
 800e2dc:	b510      	push	{r4, lr}
 800e2de:	4604      	mov	r4, r0
 800e2e0:	f003 f970 	bl	80115c4 <_ZdlPv>
 800e2e4:	4620      	mov	r0, r4
 800e2e6:	bd10      	pop	{r4, pc}

0800e2e8 <_ZN12_GLOBAL__N_124font_OSD_Charset_57_typeD0Ev>:
 800e2e8:	b510      	push	{r4, lr}
 800e2ea:	4604      	mov	r4, r0
 800e2ec:	f003 f96a 	bl	80115c4 <_ZdlPv>
 800e2f0:	4620      	mov	r0, r4
 800e2f2:	bd10      	pop	{r4, pc}

0800e2f4 <_ZN12_GLOBAL__N_124font_OSD_Charset_56_typeD0Ev>:
 800e2f4:	b510      	push	{r4, lr}
 800e2f6:	4604      	mov	r4, r0
 800e2f8:	f003 f964 	bl	80115c4 <_ZdlPv>
 800e2fc:	4620      	mov	r0, r4
 800e2fe:	bd10      	pop	{r4, pc}

0800e300 <_ZN12_GLOBAL__N_124font_OSD_Charset_55_typeD0Ev>:
 800e300:	b510      	push	{r4, lr}
 800e302:	4604      	mov	r4, r0
 800e304:	f003 f95e 	bl	80115c4 <_ZdlPv>
 800e308:	4620      	mov	r0, r4
 800e30a:	bd10      	pop	{r4, pc}

0800e30c <_ZN12_GLOBAL__N_124font_OSD_Charset_54_typeD0Ev>:
 800e30c:	b510      	push	{r4, lr}
 800e30e:	4604      	mov	r4, r0
 800e310:	f003 f958 	bl	80115c4 <_ZdlPv>
 800e314:	4620      	mov	r0, r4
 800e316:	bd10      	pop	{r4, pc}

0800e318 <_ZN12_GLOBAL__N_124font_OSD_Charset_53_typeD0Ev>:
 800e318:	b510      	push	{r4, lr}
 800e31a:	4604      	mov	r4, r0
 800e31c:	f003 f952 	bl	80115c4 <_ZdlPv>
 800e320:	4620      	mov	r0, r4
 800e322:	bd10      	pop	{r4, pc}

0800e324 <_ZN12_GLOBAL__N_124font_OSD_Charset_52_typeD0Ev>:
 800e324:	b510      	push	{r4, lr}
 800e326:	4604      	mov	r4, r0
 800e328:	f003 f94c 	bl	80115c4 <_ZdlPv>
 800e32c:	4620      	mov	r0, r4
 800e32e:	bd10      	pop	{r4, pc}

0800e330 <_ZN12_GLOBAL__N_124font_OSD_Charset_51_typeD0Ev>:
 800e330:	b510      	push	{r4, lr}
 800e332:	4604      	mov	r4, r0
 800e334:	f003 f946 	bl	80115c4 <_ZdlPv>
 800e338:	4620      	mov	r0, r4
 800e33a:	bd10      	pop	{r4, pc}

0800e33c <_ZN12_GLOBAL__N_124font_OSD_Charset_50_typeD0Ev>:
 800e33c:	b510      	push	{r4, lr}
 800e33e:	4604      	mov	r4, r0
 800e340:	f003 f940 	bl	80115c4 <_ZdlPv>
 800e344:	4620      	mov	r0, r4
 800e346:	bd10      	pop	{r4, pc}

0800e348 <_ZN12_GLOBAL__N_124font_OSD_Charset_49_typeD0Ev>:
 800e348:	b510      	push	{r4, lr}
 800e34a:	4604      	mov	r4, r0
 800e34c:	f003 f93a 	bl	80115c4 <_ZdlPv>
 800e350:	4620      	mov	r0, r4
 800e352:	bd10      	pop	{r4, pc}

0800e354 <_ZN12_GLOBAL__N_124font_OSD_Charset_48_typeD0Ev>:
 800e354:	b510      	push	{r4, lr}
 800e356:	4604      	mov	r4, r0
 800e358:	f003 f934 	bl	80115c4 <_ZdlPv>
 800e35c:	4620      	mov	r0, r4
 800e35e:	bd10      	pop	{r4, pc}

0800e360 <_ZN12_GLOBAL__N_124font_OSD_Charset_47_typeD0Ev>:
 800e360:	b510      	push	{r4, lr}
 800e362:	4604      	mov	r4, r0
 800e364:	f003 f92e 	bl	80115c4 <_ZdlPv>
 800e368:	4620      	mov	r0, r4
 800e36a:	bd10      	pop	{r4, pc}

0800e36c <_ZN12_GLOBAL__N_124font_OSD_Charset_46_typeD0Ev>:
 800e36c:	b510      	push	{r4, lr}
 800e36e:	4604      	mov	r4, r0
 800e370:	f003 f928 	bl	80115c4 <_ZdlPv>
 800e374:	4620      	mov	r0, r4
 800e376:	bd10      	pop	{r4, pc}

0800e378 <_ZN12_GLOBAL__N_124font_OSD_Charset_45_typeD0Ev>:
 800e378:	b510      	push	{r4, lr}
 800e37a:	4604      	mov	r4, r0
 800e37c:	f003 f922 	bl	80115c4 <_ZdlPv>
 800e380:	4620      	mov	r0, r4
 800e382:	bd10      	pop	{r4, pc}

0800e384 <_ZN12_GLOBAL__N_124font_OSD_Charset_44_typeD0Ev>:
 800e384:	b510      	push	{r4, lr}
 800e386:	4604      	mov	r4, r0
 800e388:	f003 f91c 	bl	80115c4 <_ZdlPv>
 800e38c:	4620      	mov	r0, r4
 800e38e:	bd10      	pop	{r4, pc}

0800e390 <_ZN12_GLOBAL__N_124font_OSD_Charset_43_typeD0Ev>:
 800e390:	b510      	push	{r4, lr}
 800e392:	4604      	mov	r4, r0
 800e394:	f003 f916 	bl	80115c4 <_ZdlPv>
 800e398:	4620      	mov	r0, r4
 800e39a:	bd10      	pop	{r4, pc}

0800e39c <_ZN12_GLOBAL__N_124font_OSD_Charset_42_typeD0Ev>:
 800e39c:	b510      	push	{r4, lr}
 800e39e:	4604      	mov	r4, r0
 800e3a0:	f003 f910 	bl	80115c4 <_ZdlPv>
 800e3a4:	4620      	mov	r0, r4
 800e3a6:	bd10      	pop	{r4, pc}

0800e3a8 <_ZN12_GLOBAL__N_124font_OSD_Charset_41_typeD0Ev>:
 800e3a8:	b510      	push	{r4, lr}
 800e3aa:	4604      	mov	r4, r0
 800e3ac:	f003 f90a 	bl	80115c4 <_ZdlPv>
 800e3b0:	4620      	mov	r0, r4
 800e3b2:	bd10      	pop	{r4, pc}

0800e3b4 <_ZN12_GLOBAL__N_124font_OSD_Charset_40_typeD0Ev>:
 800e3b4:	b510      	push	{r4, lr}
 800e3b6:	4604      	mov	r4, r0
 800e3b8:	f003 f904 	bl	80115c4 <_ZdlPv>
 800e3bc:	4620      	mov	r0, r4
 800e3be:	bd10      	pop	{r4, pc}

0800e3c0 <_ZN12_GLOBAL__N_124font_OSD_Charset_39_typeD0Ev>:
 800e3c0:	b510      	push	{r4, lr}
 800e3c2:	4604      	mov	r4, r0
 800e3c4:	f003 f8fe 	bl	80115c4 <_ZdlPv>
 800e3c8:	4620      	mov	r0, r4
 800e3ca:	bd10      	pop	{r4, pc}

0800e3cc <_ZN12_GLOBAL__N_124font_OSD_Charset_38_typeD0Ev>:
 800e3cc:	b510      	push	{r4, lr}
 800e3ce:	4604      	mov	r4, r0
 800e3d0:	f003 f8f8 	bl	80115c4 <_ZdlPv>
 800e3d4:	4620      	mov	r0, r4
 800e3d6:	bd10      	pop	{r4, pc}

0800e3d8 <_ZN12_GLOBAL__N_124font_OSD_Charset_37_typeD0Ev>:
 800e3d8:	b510      	push	{r4, lr}
 800e3da:	4604      	mov	r4, r0
 800e3dc:	f003 f8f2 	bl	80115c4 <_ZdlPv>
 800e3e0:	4620      	mov	r0, r4
 800e3e2:	bd10      	pop	{r4, pc}

0800e3e4 <_ZN12_GLOBAL__N_124font_OSD_Charset_36_typeD0Ev>:
 800e3e4:	b510      	push	{r4, lr}
 800e3e6:	4604      	mov	r4, r0
 800e3e8:	f003 f8ec 	bl	80115c4 <_ZdlPv>
 800e3ec:	4620      	mov	r0, r4
 800e3ee:	bd10      	pop	{r4, pc}

0800e3f0 <_ZN12_GLOBAL__N_124font_OSD_Charset_35_typeD0Ev>:
 800e3f0:	b510      	push	{r4, lr}
 800e3f2:	4604      	mov	r4, r0
 800e3f4:	f003 f8e6 	bl	80115c4 <_ZdlPv>
 800e3f8:	4620      	mov	r0, r4
 800e3fa:	bd10      	pop	{r4, pc}

0800e3fc <_ZN12_GLOBAL__N_124font_OSD_Charset_34_typeD0Ev>:
 800e3fc:	b510      	push	{r4, lr}
 800e3fe:	4604      	mov	r4, r0
 800e400:	f003 f8e0 	bl	80115c4 <_ZdlPv>
 800e404:	4620      	mov	r0, r4
 800e406:	bd10      	pop	{r4, pc}

0800e408 <_ZN12_GLOBAL__N_124font_OSD_Charset_33_typeD0Ev>:
 800e408:	b510      	push	{r4, lr}
 800e40a:	4604      	mov	r4, r0
 800e40c:	f003 f8da 	bl	80115c4 <_ZdlPv>
 800e410:	4620      	mov	r0, r4
 800e412:	bd10      	pop	{r4, pc}

0800e414 <_ZN12_GLOBAL__N_124font_OSD_Charset_32_typeD0Ev>:
 800e414:	b510      	push	{r4, lr}
 800e416:	4604      	mov	r4, r0
 800e418:	f003 f8d4 	bl	80115c4 <_ZdlPv>
 800e41c:	4620      	mov	r0, r4
 800e41e:	bd10      	pop	{r4, pc}

0800e420 <_ZN12_GLOBAL__N_124font_OSD_Charset_31_typeD0Ev>:
 800e420:	b510      	push	{r4, lr}
 800e422:	4604      	mov	r4, r0
 800e424:	f003 f8ce 	bl	80115c4 <_ZdlPv>
 800e428:	4620      	mov	r0, r4
 800e42a:	bd10      	pop	{r4, pc}

0800e42c <_ZN12_GLOBAL__N_124font_OSD_Charset_30_typeD0Ev>:
 800e42c:	b510      	push	{r4, lr}
 800e42e:	4604      	mov	r4, r0
 800e430:	f003 f8c8 	bl	80115c4 <_ZdlPv>
 800e434:	4620      	mov	r0, r4
 800e436:	bd10      	pop	{r4, pc}

0800e438 <_ZN12_GLOBAL__N_124font_OSD_Charset_29_typeD0Ev>:
 800e438:	b510      	push	{r4, lr}
 800e43a:	4604      	mov	r4, r0
 800e43c:	f003 f8c2 	bl	80115c4 <_ZdlPv>
 800e440:	4620      	mov	r0, r4
 800e442:	bd10      	pop	{r4, pc}

0800e444 <_ZN12_GLOBAL__N_124font_OSD_Charset_28_typeD0Ev>:
 800e444:	b510      	push	{r4, lr}
 800e446:	4604      	mov	r4, r0
 800e448:	f003 f8bc 	bl	80115c4 <_ZdlPv>
 800e44c:	4620      	mov	r0, r4
 800e44e:	bd10      	pop	{r4, pc}

0800e450 <_ZN12_GLOBAL__N_124font_OSD_Charset_27_typeD0Ev>:
 800e450:	b510      	push	{r4, lr}
 800e452:	4604      	mov	r4, r0
 800e454:	f003 f8b6 	bl	80115c4 <_ZdlPv>
 800e458:	4620      	mov	r0, r4
 800e45a:	bd10      	pop	{r4, pc}

0800e45c <_ZN12_GLOBAL__N_124font_OSD_Charset_26_typeD0Ev>:
 800e45c:	b510      	push	{r4, lr}
 800e45e:	4604      	mov	r4, r0
 800e460:	f003 f8b0 	bl	80115c4 <_ZdlPv>
 800e464:	4620      	mov	r0, r4
 800e466:	bd10      	pop	{r4, pc}

0800e468 <_ZN12_GLOBAL__N_124font_OSD_Charset_25_typeD0Ev>:
 800e468:	b510      	push	{r4, lr}
 800e46a:	4604      	mov	r4, r0
 800e46c:	f003 f8aa 	bl	80115c4 <_ZdlPv>
 800e470:	4620      	mov	r0, r4
 800e472:	bd10      	pop	{r4, pc}

0800e474 <_ZN12_GLOBAL__N_124font_OSD_Charset_24_typeD0Ev>:
 800e474:	b510      	push	{r4, lr}
 800e476:	4604      	mov	r4, r0
 800e478:	f003 f8a4 	bl	80115c4 <_ZdlPv>
 800e47c:	4620      	mov	r0, r4
 800e47e:	bd10      	pop	{r4, pc}

0800e480 <_ZN12_GLOBAL__N_124font_OSD_Charset_23_typeD0Ev>:
 800e480:	b510      	push	{r4, lr}
 800e482:	4604      	mov	r4, r0
 800e484:	f003 f89e 	bl	80115c4 <_ZdlPv>
 800e488:	4620      	mov	r0, r4
 800e48a:	bd10      	pop	{r4, pc}

0800e48c <_ZN12_GLOBAL__N_124font_OSD_Charset_22_typeD0Ev>:
 800e48c:	b510      	push	{r4, lr}
 800e48e:	4604      	mov	r4, r0
 800e490:	f003 f898 	bl	80115c4 <_ZdlPv>
 800e494:	4620      	mov	r0, r4
 800e496:	bd10      	pop	{r4, pc}

0800e498 <_ZN12_GLOBAL__N_124font_OSD_Charset_21_typeD0Ev>:
 800e498:	b510      	push	{r4, lr}
 800e49a:	4604      	mov	r4, r0
 800e49c:	f003 f892 	bl	80115c4 <_ZdlPv>
 800e4a0:	4620      	mov	r0, r4
 800e4a2:	bd10      	pop	{r4, pc}

0800e4a4 <_ZN12_GLOBAL__N_124font_OSD_Charset_20_typeD0Ev>:
 800e4a4:	b510      	push	{r4, lr}
 800e4a6:	4604      	mov	r4, r0
 800e4a8:	f003 f88c 	bl	80115c4 <_ZdlPv>
 800e4ac:	4620      	mov	r0, r4
 800e4ae:	bd10      	pop	{r4, pc}

0800e4b0 <_ZN12_GLOBAL__N_124font_OSD_Charset_19_typeD0Ev>:
 800e4b0:	b510      	push	{r4, lr}
 800e4b2:	4604      	mov	r4, r0
 800e4b4:	f003 f886 	bl	80115c4 <_ZdlPv>
 800e4b8:	4620      	mov	r0, r4
 800e4ba:	bd10      	pop	{r4, pc}

0800e4bc <_ZN12_GLOBAL__N_124font_OSD_Charset_18_typeD0Ev>:
 800e4bc:	b510      	push	{r4, lr}
 800e4be:	4604      	mov	r4, r0
 800e4c0:	f003 f880 	bl	80115c4 <_ZdlPv>
 800e4c4:	4620      	mov	r0, r4
 800e4c6:	bd10      	pop	{r4, pc}

0800e4c8 <_ZN12_GLOBAL__N_124font_OSD_Charset_17_typeD0Ev>:
 800e4c8:	b510      	push	{r4, lr}
 800e4ca:	4604      	mov	r4, r0
 800e4cc:	f003 f87a 	bl	80115c4 <_ZdlPv>
 800e4d0:	4620      	mov	r0, r4
 800e4d2:	bd10      	pop	{r4, pc}

0800e4d4 <_ZN12_GLOBAL__N_124font_OSD_Charset_16_typeD0Ev>:
 800e4d4:	b510      	push	{r4, lr}
 800e4d6:	4604      	mov	r4, r0
 800e4d8:	f003 f874 	bl	80115c4 <_ZdlPv>
 800e4dc:	4620      	mov	r0, r4
 800e4de:	bd10      	pop	{r4, pc}

0800e4e0 <_ZN12_GLOBAL__N_124font_OSD_Charset_15_typeD0Ev>:
 800e4e0:	b510      	push	{r4, lr}
 800e4e2:	4604      	mov	r4, r0
 800e4e4:	f003 f86e 	bl	80115c4 <_ZdlPv>
 800e4e8:	4620      	mov	r0, r4
 800e4ea:	bd10      	pop	{r4, pc}

0800e4ec <_ZN12_GLOBAL__N_124font_OSD_Charset_14_typeD0Ev>:
 800e4ec:	b510      	push	{r4, lr}
 800e4ee:	4604      	mov	r4, r0
 800e4f0:	f003 f868 	bl	80115c4 <_ZdlPv>
 800e4f4:	4620      	mov	r0, r4
 800e4f6:	bd10      	pop	{r4, pc}

0800e4f8 <_ZN12_GLOBAL__N_124font_OSD_Charset_13_typeD0Ev>:
 800e4f8:	b510      	push	{r4, lr}
 800e4fa:	4604      	mov	r4, r0
 800e4fc:	f003 f862 	bl	80115c4 <_ZdlPv>
 800e500:	4620      	mov	r0, r4
 800e502:	bd10      	pop	{r4, pc}

0800e504 <_ZN12_GLOBAL__N_124font_OSD_Charset_12_typeD0Ev>:
 800e504:	b510      	push	{r4, lr}
 800e506:	4604      	mov	r4, r0
 800e508:	f003 f85c 	bl	80115c4 <_ZdlPv>
 800e50c:	4620      	mov	r0, r4
 800e50e:	bd10      	pop	{r4, pc}

0800e510 <_ZN12_GLOBAL__N_124font_OSD_Charset_11_typeD0Ev>:
 800e510:	b510      	push	{r4, lr}
 800e512:	4604      	mov	r4, r0
 800e514:	f003 f856 	bl	80115c4 <_ZdlPv>
 800e518:	4620      	mov	r0, r4
 800e51a:	bd10      	pop	{r4, pc}

0800e51c <_ZN12_GLOBAL__N_124font_OSD_Charset_10_typeD0Ev>:
 800e51c:	b510      	push	{r4, lr}
 800e51e:	4604      	mov	r4, r0
 800e520:	f003 f850 	bl	80115c4 <_ZdlPv>
 800e524:	4620      	mov	r0, r4
 800e526:	bd10      	pop	{r4, pc}

0800e528 <_ZN12_GLOBAL__N_123font_OSD_Charset_9_typeD0Ev>:
 800e528:	b510      	push	{r4, lr}
 800e52a:	4604      	mov	r4, r0
 800e52c:	f003 f84a 	bl	80115c4 <_ZdlPv>
 800e530:	4620      	mov	r0, r4
 800e532:	bd10      	pop	{r4, pc}

0800e534 <_ZN12_GLOBAL__N_123font_OSD_Charset_8_typeD0Ev>:
 800e534:	b510      	push	{r4, lr}
 800e536:	4604      	mov	r4, r0
 800e538:	f003 f844 	bl	80115c4 <_ZdlPv>
 800e53c:	4620      	mov	r0, r4
 800e53e:	bd10      	pop	{r4, pc}

0800e540 <_ZN12_GLOBAL__N_123font_OSD_Charset_7_typeD0Ev>:
 800e540:	b510      	push	{r4, lr}
 800e542:	4604      	mov	r4, r0
 800e544:	f003 f83e 	bl	80115c4 <_ZdlPv>
 800e548:	4620      	mov	r0, r4
 800e54a:	bd10      	pop	{r4, pc}

0800e54c <_ZN12_GLOBAL__N_123font_OSD_Charset_6_typeD0Ev>:
 800e54c:	b510      	push	{r4, lr}
 800e54e:	4604      	mov	r4, r0
 800e550:	f003 f838 	bl	80115c4 <_ZdlPv>
 800e554:	4620      	mov	r0, r4
 800e556:	bd10      	pop	{r4, pc}

0800e558 <_ZN12_GLOBAL__N_123font_OSD_Charset_5_typeD0Ev>:
 800e558:	b510      	push	{r4, lr}
 800e55a:	4604      	mov	r4, r0
 800e55c:	f003 f832 	bl	80115c4 <_ZdlPv>
 800e560:	4620      	mov	r0, r4
 800e562:	bd10      	pop	{r4, pc}

0800e564 <_ZN12_GLOBAL__N_123font_OSD_Charset_4_typeD0Ev>:
 800e564:	b510      	push	{r4, lr}
 800e566:	4604      	mov	r4, r0
 800e568:	f003 f82c 	bl	80115c4 <_ZdlPv>
 800e56c:	4620      	mov	r0, r4
 800e56e:	bd10      	pop	{r4, pc}

0800e570 <_ZN12_GLOBAL__N_123font_OSD_Charset_3_typeD0Ev>:
 800e570:	b510      	push	{r4, lr}
 800e572:	4604      	mov	r4, r0
 800e574:	f003 f826 	bl	80115c4 <_ZdlPv>
 800e578:	4620      	mov	r0, r4
 800e57a:	bd10      	pop	{r4, pc}

0800e57c <_ZN12_GLOBAL__N_123font_OSD_Charset_2_typeD0Ev>:
 800e57c:	b510      	push	{r4, lr}
 800e57e:	4604      	mov	r4, r0
 800e580:	f003 f820 	bl	80115c4 <_ZdlPv>
 800e584:	4620      	mov	r0, r4
 800e586:	bd10      	pop	{r4, pc}

0800e588 <_ZN12_GLOBAL__N_123font_OSD_Charset_1_typeD0Ev>:
 800e588:	b510      	push	{r4, lr}
 800e58a:	4604      	mov	r4, r0
 800e58c:	f003 f81a 	bl	80115c4 <_ZdlPv>
 800e590:	4620      	mov	r0, r4
 800e592:	bd10      	pop	{r4, pc}

0800e594 <_ZN12_GLOBAL__N_123font_OSD_Charset_0_typeD0Ev>:
 800e594:	b510      	push	{r4, lr}
 800e596:	4604      	mov	r4, r0
 800e598:	f003 f814 	bl	80115c4 <_ZdlPv>
 800e59c:	4620      	mov	r0, r4
 800e59e:	bd10      	pop	{r4, pc}

0800e5a0 <_ZN12_GLOBAL__N_121font_OSD_Charset_typeD0Ev>:
 800e5a0:	b510      	push	{r4, lr}
 800e5a2:	4604      	mov	r4, r0
 800e5a4:	f003 f80e 	bl	80115c4 <_ZdlPv>
 800e5a8:	4620      	mov	r0, r4
 800e5aa:	bd10      	pop	{r4, pc}

0800e5ac <_ZN4quan3uav3osd8get_fontEm>:
 800e5ac:	4b02      	ldr	r3, [pc, #8]	; (800e5b8 <_ZN4quan3uav3osd8get_fontEm+0xc>)
 800e5ae:	2800      	cmp	r0, #0
 800e5b0:	bf0c      	ite	eq
 800e5b2:	4618      	moveq	r0, r3
 800e5b4:	2000      	movne	r0, #0
 800e5b6:	4770      	bx	lr
 800e5b8:	10000a04 	.word	0x10000a04

0800e5bc <_GLOBAL__sub_I__ZN4quan3uav3osd8get_fontEm>:
 800e5bc:	b510      	push	{r4, lr}
 800e5be:	4ca2      	ldr	r4, [pc, #648]	; (800e848 <_GLOBAL__sub_I__ZN4quan3uav3osd8get_fontEm+0x28c>)
 800e5c0:	48a2      	ldr	r0, [pc, #648]	; (800e84c <_GLOBAL__sub_I__ZN4quan3uav3osd8get_fontEm+0x290>)
 800e5c2:	4ba3      	ldr	r3, [pc, #652]	; (800e850 <_GLOBAL__sub_I__ZN4quan3uav3osd8get_fontEm+0x294>)
 800e5c4:	49a3      	ldr	r1, [pc, #652]	; (800e854 <_GLOBAL__sub_I__ZN4quan3uav3osd8get_fontEm+0x298>)
 800e5c6:	6003      	str	r3, [r0, #0]
 800e5c8:	4622      	mov	r2, r4
 800e5ca:	f005 fcb9 	bl	8013f40 <__aeabi_atexit>
 800e5ce:	48a2      	ldr	r0, [pc, #648]	; (800e858 <_GLOBAL__sub_I__ZN4quan3uav3osd8get_fontEm+0x29c>)
 800e5d0:	4ba2      	ldr	r3, [pc, #648]	; (800e85c <_GLOBAL__sub_I__ZN4quan3uav3osd8get_fontEm+0x2a0>)
 800e5d2:	49a3      	ldr	r1, [pc, #652]	; (800e860 <_GLOBAL__sub_I__ZN4quan3uav3osd8get_fontEm+0x2a4>)
 800e5d4:	6003      	str	r3, [r0, #0]
 800e5d6:	4622      	mov	r2, r4
 800e5d8:	f005 fcb2 	bl	8013f40 <__aeabi_atexit>
 800e5dc:	48a1      	ldr	r0, [pc, #644]	; (800e864 <_GLOBAL__sub_I__ZN4quan3uav3osd8get_fontEm+0x2a8>)
 800e5de:	4ba2      	ldr	r3, [pc, #648]	; (800e868 <_GLOBAL__sub_I__ZN4quan3uav3osd8get_fontEm+0x2ac>)
 800e5e0:	49a2      	ldr	r1, [pc, #648]	; (800e86c <_GLOBAL__sub_I__ZN4quan3uav3osd8get_fontEm+0x2b0>)
 800e5e2:	6003      	str	r3, [r0, #0]
 800e5e4:	4622      	mov	r2, r4
 800e5e6:	f005 fcab 	bl	8013f40 <__aeabi_atexit>
 800e5ea:	48a1      	ldr	r0, [pc, #644]	; (800e870 <_GLOBAL__sub_I__ZN4quan3uav3osd8get_fontEm+0x2b4>)
 800e5ec:	4ba1      	ldr	r3, [pc, #644]	; (800e874 <_GLOBAL__sub_I__ZN4quan3uav3osd8get_fontEm+0x2b8>)
 800e5ee:	49a2      	ldr	r1, [pc, #648]	; (800e878 <_GLOBAL__sub_I__ZN4quan3uav3osd8get_fontEm+0x2bc>)
 800e5f0:	6003      	str	r3, [r0, #0]
 800e5f2:	4622      	mov	r2, r4
 800e5f4:	f005 fca4 	bl	8013f40 <__aeabi_atexit>
 800e5f8:	48a0      	ldr	r0, [pc, #640]	; (800e87c <_GLOBAL__sub_I__ZN4quan3uav3osd8get_fontEm+0x2c0>)
 800e5fa:	4ba1      	ldr	r3, [pc, #644]	; (800e880 <_GLOBAL__sub_I__ZN4quan3uav3osd8get_fontEm+0x2c4>)
 800e5fc:	49a1      	ldr	r1, [pc, #644]	; (800e884 <_GLOBAL__sub_I__ZN4quan3uav3osd8get_fontEm+0x2c8>)
 800e5fe:	6003      	str	r3, [r0, #0]
 800e600:	4622      	mov	r2, r4
 800e602:	f005 fc9d 	bl	8013f40 <__aeabi_atexit>
 800e606:	48a0      	ldr	r0, [pc, #640]	; (800e888 <_GLOBAL__sub_I__ZN4quan3uav3osd8get_fontEm+0x2cc>)
 800e608:	4ba0      	ldr	r3, [pc, #640]	; (800e88c <_GLOBAL__sub_I__ZN4quan3uav3osd8get_fontEm+0x2d0>)
 800e60a:	49a1      	ldr	r1, [pc, #644]	; (800e890 <_GLOBAL__sub_I__ZN4quan3uav3osd8get_fontEm+0x2d4>)
 800e60c:	6003      	str	r3, [r0, #0]
 800e60e:	4622      	mov	r2, r4
 800e610:	f005 fc96 	bl	8013f40 <__aeabi_atexit>
 800e614:	489f      	ldr	r0, [pc, #636]	; (800e894 <_GLOBAL__sub_I__ZN4quan3uav3osd8get_fontEm+0x2d8>)
 800e616:	4ba0      	ldr	r3, [pc, #640]	; (800e898 <_GLOBAL__sub_I__ZN4quan3uav3osd8get_fontEm+0x2dc>)
 800e618:	49a0      	ldr	r1, [pc, #640]	; (800e89c <_GLOBAL__sub_I__ZN4quan3uav3osd8get_fontEm+0x2e0>)
 800e61a:	6003      	str	r3, [r0, #0]
 800e61c:	4622      	mov	r2, r4
 800e61e:	f005 fc8f 	bl	8013f40 <__aeabi_atexit>
 800e622:	489f      	ldr	r0, [pc, #636]	; (800e8a0 <_GLOBAL__sub_I__ZN4quan3uav3osd8get_fontEm+0x2e4>)
 800e624:	4b9f      	ldr	r3, [pc, #636]	; (800e8a4 <_GLOBAL__sub_I__ZN4quan3uav3osd8get_fontEm+0x2e8>)
 800e626:	49a0      	ldr	r1, [pc, #640]	; (800e8a8 <_GLOBAL__sub_I__ZN4quan3uav3osd8get_fontEm+0x2ec>)
 800e628:	6003      	str	r3, [r0, #0]
 800e62a:	4622      	mov	r2, r4
 800e62c:	f005 fc88 	bl	8013f40 <__aeabi_atexit>
 800e630:	489e      	ldr	r0, [pc, #632]	; (800e8ac <_GLOBAL__sub_I__ZN4quan3uav3osd8get_fontEm+0x2f0>)
 800e632:	4b9f      	ldr	r3, [pc, #636]	; (800e8b0 <_GLOBAL__sub_I__ZN4quan3uav3osd8get_fontEm+0x2f4>)
 800e634:	499f      	ldr	r1, [pc, #636]	; (800e8b4 <_GLOBAL__sub_I__ZN4quan3uav3osd8get_fontEm+0x2f8>)
 800e636:	6003      	str	r3, [r0, #0]
 800e638:	4622      	mov	r2, r4
 800e63a:	f005 fc81 	bl	8013f40 <__aeabi_atexit>
 800e63e:	489e      	ldr	r0, [pc, #632]	; (800e8b8 <_GLOBAL__sub_I__ZN4quan3uav3osd8get_fontEm+0x2fc>)
 800e640:	4b9e      	ldr	r3, [pc, #632]	; (800e8bc <_GLOBAL__sub_I__ZN4quan3uav3osd8get_fontEm+0x300>)
 800e642:	499f      	ldr	r1, [pc, #636]	; (800e8c0 <_GLOBAL__sub_I__ZN4quan3uav3osd8get_fontEm+0x304>)
 800e644:	6003      	str	r3, [r0, #0]
 800e646:	4622      	mov	r2, r4
 800e648:	f005 fc7a 	bl	8013f40 <__aeabi_atexit>
 800e64c:	489d      	ldr	r0, [pc, #628]	; (800e8c4 <_GLOBAL__sub_I__ZN4quan3uav3osd8get_fontEm+0x308>)
 800e64e:	4b9e      	ldr	r3, [pc, #632]	; (800e8c8 <_GLOBAL__sub_I__ZN4quan3uav3osd8get_fontEm+0x30c>)
 800e650:	499e      	ldr	r1, [pc, #632]	; (800e8cc <_GLOBAL__sub_I__ZN4quan3uav3osd8get_fontEm+0x310>)
 800e652:	6003      	str	r3, [r0, #0]
 800e654:	4622      	mov	r2, r4
 800e656:	f005 fc73 	bl	8013f40 <__aeabi_atexit>
 800e65a:	489d      	ldr	r0, [pc, #628]	; (800e8d0 <_GLOBAL__sub_I__ZN4quan3uav3osd8get_fontEm+0x314>)
 800e65c:	4b9d      	ldr	r3, [pc, #628]	; (800e8d4 <_GLOBAL__sub_I__ZN4quan3uav3osd8get_fontEm+0x318>)
 800e65e:	499e      	ldr	r1, [pc, #632]	; (800e8d8 <_GLOBAL__sub_I__ZN4quan3uav3osd8get_fontEm+0x31c>)
 800e660:	6003      	str	r3, [r0, #0]
 800e662:	4622      	mov	r2, r4
 800e664:	f005 fc6c 	bl	8013f40 <__aeabi_atexit>
 800e668:	489c      	ldr	r0, [pc, #624]	; (800e8dc <_GLOBAL__sub_I__ZN4quan3uav3osd8get_fontEm+0x320>)
 800e66a:	4b9d      	ldr	r3, [pc, #628]	; (800e8e0 <_GLOBAL__sub_I__ZN4quan3uav3osd8get_fontEm+0x324>)
 800e66c:	499d      	ldr	r1, [pc, #628]	; (800e8e4 <_GLOBAL__sub_I__ZN4quan3uav3osd8get_fontEm+0x328>)
 800e66e:	6003      	str	r3, [r0, #0]
 800e670:	4622      	mov	r2, r4
 800e672:	f005 fc65 	bl	8013f40 <__aeabi_atexit>
 800e676:	489c      	ldr	r0, [pc, #624]	; (800e8e8 <_GLOBAL__sub_I__ZN4quan3uav3osd8get_fontEm+0x32c>)
 800e678:	4b9c      	ldr	r3, [pc, #624]	; (800e8ec <_GLOBAL__sub_I__ZN4quan3uav3osd8get_fontEm+0x330>)
 800e67a:	499d      	ldr	r1, [pc, #628]	; (800e8f0 <_GLOBAL__sub_I__ZN4quan3uav3osd8get_fontEm+0x334>)
 800e67c:	6003      	str	r3, [r0, #0]
 800e67e:	4622      	mov	r2, r4
 800e680:	f005 fc5e 	bl	8013f40 <__aeabi_atexit>
 800e684:	489b      	ldr	r0, [pc, #620]	; (800e8f4 <_GLOBAL__sub_I__ZN4quan3uav3osd8get_fontEm+0x338>)
 800e686:	4b9c      	ldr	r3, [pc, #624]	; (800e8f8 <_GLOBAL__sub_I__ZN4quan3uav3osd8get_fontEm+0x33c>)
 800e688:	499c      	ldr	r1, [pc, #624]	; (800e8fc <_GLOBAL__sub_I__ZN4quan3uav3osd8get_fontEm+0x340>)
 800e68a:	6003      	str	r3, [r0, #0]
 800e68c:	4622      	mov	r2, r4
 800e68e:	f005 fc57 	bl	8013f40 <__aeabi_atexit>
 800e692:	489b      	ldr	r0, [pc, #620]	; (800e900 <_GLOBAL__sub_I__ZN4quan3uav3osd8get_fontEm+0x344>)
 800e694:	4b9b      	ldr	r3, [pc, #620]	; (800e904 <_GLOBAL__sub_I__ZN4quan3uav3osd8get_fontEm+0x348>)
 800e696:	499c      	ldr	r1, [pc, #624]	; (800e908 <_GLOBAL__sub_I__ZN4quan3uav3osd8get_fontEm+0x34c>)
 800e698:	6003      	str	r3, [r0, #0]
 800e69a:	4622      	mov	r2, r4
 800e69c:	f005 fc50 	bl	8013f40 <__aeabi_atexit>
 800e6a0:	489a      	ldr	r0, [pc, #616]	; (800e90c <_GLOBAL__sub_I__ZN4quan3uav3osd8get_fontEm+0x350>)
 800e6a2:	4b9b      	ldr	r3, [pc, #620]	; (800e910 <_GLOBAL__sub_I__ZN4quan3uav3osd8get_fontEm+0x354>)
 800e6a4:	499b      	ldr	r1, [pc, #620]	; (800e914 <_GLOBAL__sub_I__ZN4quan3uav3osd8get_fontEm+0x358>)
 800e6a6:	6003      	str	r3, [r0, #0]
 800e6a8:	4622      	mov	r2, r4
 800e6aa:	f005 fc49 	bl	8013f40 <__aeabi_atexit>
 800e6ae:	489a      	ldr	r0, [pc, #616]	; (800e918 <_GLOBAL__sub_I__ZN4quan3uav3osd8get_fontEm+0x35c>)
 800e6b0:	4b9a      	ldr	r3, [pc, #616]	; (800e91c <_GLOBAL__sub_I__ZN4quan3uav3osd8get_fontEm+0x360>)
 800e6b2:	499b      	ldr	r1, [pc, #620]	; (800e920 <_GLOBAL__sub_I__ZN4quan3uav3osd8get_fontEm+0x364>)
 800e6b4:	6003      	str	r3, [r0, #0]
 800e6b6:	4622      	mov	r2, r4
 800e6b8:	f005 fc42 	bl	8013f40 <__aeabi_atexit>
 800e6bc:	4899      	ldr	r0, [pc, #612]	; (800e924 <_GLOBAL__sub_I__ZN4quan3uav3osd8get_fontEm+0x368>)
 800e6be:	4b9a      	ldr	r3, [pc, #616]	; (800e928 <_GLOBAL__sub_I__ZN4quan3uav3osd8get_fontEm+0x36c>)
 800e6c0:	499a      	ldr	r1, [pc, #616]	; (800e92c <_GLOBAL__sub_I__ZN4quan3uav3osd8get_fontEm+0x370>)
 800e6c2:	6003      	str	r3, [r0, #0]
 800e6c4:	4622      	mov	r2, r4
 800e6c6:	f005 fc3b 	bl	8013f40 <__aeabi_atexit>
 800e6ca:	4899      	ldr	r0, [pc, #612]	; (800e930 <_GLOBAL__sub_I__ZN4quan3uav3osd8get_fontEm+0x374>)
 800e6cc:	4b99      	ldr	r3, [pc, #612]	; (800e934 <_GLOBAL__sub_I__ZN4quan3uav3osd8get_fontEm+0x378>)
 800e6ce:	499a      	ldr	r1, [pc, #616]	; (800e938 <_GLOBAL__sub_I__ZN4quan3uav3osd8get_fontEm+0x37c>)
 800e6d0:	6003      	str	r3, [r0, #0]
 800e6d2:	4622      	mov	r2, r4
 800e6d4:	f005 fc34 	bl	8013f40 <__aeabi_atexit>
 800e6d8:	4898      	ldr	r0, [pc, #608]	; (800e93c <_GLOBAL__sub_I__ZN4quan3uav3osd8get_fontEm+0x380>)
 800e6da:	4b99      	ldr	r3, [pc, #612]	; (800e940 <_GLOBAL__sub_I__ZN4quan3uav3osd8get_fontEm+0x384>)
 800e6dc:	4999      	ldr	r1, [pc, #612]	; (800e944 <_GLOBAL__sub_I__ZN4quan3uav3osd8get_fontEm+0x388>)
 800e6de:	6003      	str	r3, [r0, #0]
 800e6e0:	4622      	mov	r2, r4
 800e6e2:	f005 fc2d 	bl	8013f40 <__aeabi_atexit>
 800e6e6:	4898      	ldr	r0, [pc, #608]	; (800e948 <_GLOBAL__sub_I__ZN4quan3uav3osd8get_fontEm+0x38c>)
 800e6e8:	4b98      	ldr	r3, [pc, #608]	; (800e94c <_GLOBAL__sub_I__ZN4quan3uav3osd8get_fontEm+0x390>)
 800e6ea:	4999      	ldr	r1, [pc, #612]	; (800e950 <_GLOBAL__sub_I__ZN4quan3uav3osd8get_fontEm+0x394>)
 800e6ec:	6003      	str	r3, [r0, #0]
 800e6ee:	4622      	mov	r2, r4
 800e6f0:	f005 fc26 	bl	8013f40 <__aeabi_atexit>
 800e6f4:	4897      	ldr	r0, [pc, #604]	; (800e954 <_GLOBAL__sub_I__ZN4quan3uav3osd8get_fontEm+0x398>)
 800e6f6:	4b98      	ldr	r3, [pc, #608]	; (800e958 <_GLOBAL__sub_I__ZN4quan3uav3osd8get_fontEm+0x39c>)
 800e6f8:	4998      	ldr	r1, [pc, #608]	; (800e95c <_GLOBAL__sub_I__ZN4quan3uav3osd8get_fontEm+0x3a0>)
 800e6fa:	6003      	str	r3, [r0, #0]
 800e6fc:	4622      	mov	r2, r4
 800e6fe:	f005 fc1f 	bl	8013f40 <__aeabi_atexit>
 800e702:	4897      	ldr	r0, [pc, #604]	; (800e960 <_GLOBAL__sub_I__ZN4quan3uav3osd8get_fontEm+0x3a4>)
 800e704:	4b97      	ldr	r3, [pc, #604]	; (800e964 <_GLOBAL__sub_I__ZN4quan3uav3osd8get_fontEm+0x3a8>)
 800e706:	4998      	ldr	r1, [pc, #608]	; (800e968 <_GLOBAL__sub_I__ZN4quan3uav3osd8get_fontEm+0x3ac>)
 800e708:	6003      	str	r3, [r0, #0]
 800e70a:	4622      	mov	r2, r4
 800e70c:	f005 fc18 	bl	8013f40 <__aeabi_atexit>
 800e710:	4896      	ldr	r0, [pc, #600]	; (800e96c <_GLOBAL__sub_I__ZN4quan3uav3osd8get_fontEm+0x3b0>)
 800e712:	4b97      	ldr	r3, [pc, #604]	; (800e970 <_GLOBAL__sub_I__ZN4quan3uav3osd8get_fontEm+0x3b4>)
 800e714:	4997      	ldr	r1, [pc, #604]	; (800e974 <_GLOBAL__sub_I__ZN4quan3uav3osd8get_fontEm+0x3b8>)
 800e716:	6003      	str	r3, [r0, #0]
 800e718:	4622      	mov	r2, r4
 800e71a:	f005 fc11 	bl	8013f40 <__aeabi_atexit>
 800e71e:	4896      	ldr	r0, [pc, #600]	; (800e978 <_GLOBAL__sub_I__ZN4quan3uav3osd8get_fontEm+0x3bc>)
 800e720:	4b96      	ldr	r3, [pc, #600]	; (800e97c <_GLOBAL__sub_I__ZN4quan3uav3osd8get_fontEm+0x3c0>)
 800e722:	4997      	ldr	r1, [pc, #604]	; (800e980 <_GLOBAL__sub_I__ZN4quan3uav3osd8get_fontEm+0x3c4>)
 800e724:	6003      	str	r3, [r0, #0]
 800e726:	4622      	mov	r2, r4
 800e728:	f005 fc0a 	bl	8013f40 <__aeabi_atexit>
 800e72c:	4895      	ldr	r0, [pc, #596]	; (800e984 <_GLOBAL__sub_I__ZN4quan3uav3osd8get_fontEm+0x3c8>)
 800e72e:	4b96      	ldr	r3, [pc, #600]	; (800e988 <_GLOBAL__sub_I__ZN4quan3uav3osd8get_fontEm+0x3cc>)
 800e730:	4996      	ldr	r1, [pc, #600]	; (800e98c <_GLOBAL__sub_I__ZN4quan3uav3osd8get_fontEm+0x3d0>)
 800e732:	6003      	str	r3, [r0, #0]
 800e734:	4622      	mov	r2, r4
 800e736:	f005 fc03 	bl	8013f40 <__aeabi_atexit>
 800e73a:	4895      	ldr	r0, [pc, #596]	; (800e990 <_GLOBAL__sub_I__ZN4quan3uav3osd8get_fontEm+0x3d4>)
 800e73c:	4b95      	ldr	r3, [pc, #596]	; (800e994 <_GLOBAL__sub_I__ZN4quan3uav3osd8get_fontEm+0x3d8>)
 800e73e:	4996      	ldr	r1, [pc, #600]	; (800e998 <_GLOBAL__sub_I__ZN4quan3uav3osd8get_fontEm+0x3dc>)
 800e740:	6003      	str	r3, [r0, #0]
 800e742:	4622      	mov	r2, r4
 800e744:	f005 fbfc 	bl	8013f40 <__aeabi_atexit>
 800e748:	4894      	ldr	r0, [pc, #592]	; (800e99c <_GLOBAL__sub_I__ZN4quan3uav3osd8get_fontEm+0x3e0>)
 800e74a:	4b95      	ldr	r3, [pc, #596]	; (800e9a0 <_GLOBAL__sub_I__ZN4quan3uav3osd8get_fontEm+0x3e4>)
 800e74c:	4995      	ldr	r1, [pc, #596]	; (800e9a4 <_GLOBAL__sub_I__ZN4quan3uav3osd8get_fontEm+0x3e8>)
 800e74e:	6003      	str	r3, [r0, #0]
 800e750:	4622      	mov	r2, r4
 800e752:	f005 fbf5 	bl	8013f40 <__aeabi_atexit>
 800e756:	4894      	ldr	r0, [pc, #592]	; (800e9a8 <_GLOBAL__sub_I__ZN4quan3uav3osd8get_fontEm+0x3ec>)
 800e758:	4b94      	ldr	r3, [pc, #592]	; (800e9ac <_GLOBAL__sub_I__ZN4quan3uav3osd8get_fontEm+0x3f0>)
 800e75a:	4995      	ldr	r1, [pc, #596]	; (800e9b0 <_GLOBAL__sub_I__ZN4quan3uav3osd8get_fontEm+0x3f4>)
 800e75c:	6003      	str	r3, [r0, #0]
 800e75e:	4622      	mov	r2, r4
 800e760:	f005 fbee 	bl	8013f40 <__aeabi_atexit>
 800e764:	4893      	ldr	r0, [pc, #588]	; (800e9b4 <_GLOBAL__sub_I__ZN4quan3uav3osd8get_fontEm+0x3f8>)
 800e766:	4b94      	ldr	r3, [pc, #592]	; (800e9b8 <_GLOBAL__sub_I__ZN4quan3uav3osd8get_fontEm+0x3fc>)
 800e768:	4994      	ldr	r1, [pc, #592]	; (800e9bc <_GLOBAL__sub_I__ZN4quan3uav3osd8get_fontEm+0x400>)
 800e76a:	6003      	str	r3, [r0, #0]
 800e76c:	4622      	mov	r2, r4
 800e76e:	f005 fbe7 	bl	8013f40 <__aeabi_atexit>
 800e772:	4893      	ldr	r0, [pc, #588]	; (800e9c0 <_GLOBAL__sub_I__ZN4quan3uav3osd8get_fontEm+0x404>)
 800e774:	4b93      	ldr	r3, [pc, #588]	; (800e9c4 <_GLOBAL__sub_I__ZN4quan3uav3osd8get_fontEm+0x408>)
 800e776:	4994      	ldr	r1, [pc, #592]	; (800e9c8 <_GLOBAL__sub_I__ZN4quan3uav3osd8get_fontEm+0x40c>)
 800e778:	6003      	str	r3, [r0, #0]
 800e77a:	4622      	mov	r2, r4
 800e77c:	f005 fbe0 	bl	8013f40 <__aeabi_atexit>
 800e780:	4892      	ldr	r0, [pc, #584]	; (800e9cc <_GLOBAL__sub_I__ZN4quan3uav3osd8get_fontEm+0x410>)
 800e782:	4b93      	ldr	r3, [pc, #588]	; (800e9d0 <_GLOBAL__sub_I__ZN4quan3uav3osd8get_fontEm+0x414>)
 800e784:	4993      	ldr	r1, [pc, #588]	; (800e9d4 <_GLOBAL__sub_I__ZN4quan3uav3osd8get_fontEm+0x418>)
 800e786:	6003      	str	r3, [r0, #0]
 800e788:	4622      	mov	r2, r4
 800e78a:	f005 fbd9 	bl	8013f40 <__aeabi_atexit>
 800e78e:	4892      	ldr	r0, [pc, #584]	; (800e9d8 <_GLOBAL__sub_I__ZN4quan3uav3osd8get_fontEm+0x41c>)
 800e790:	4b92      	ldr	r3, [pc, #584]	; (800e9dc <_GLOBAL__sub_I__ZN4quan3uav3osd8get_fontEm+0x420>)
 800e792:	4993      	ldr	r1, [pc, #588]	; (800e9e0 <_GLOBAL__sub_I__ZN4quan3uav3osd8get_fontEm+0x424>)
 800e794:	6003      	str	r3, [r0, #0]
 800e796:	4622      	mov	r2, r4
 800e798:	f005 fbd2 	bl	8013f40 <__aeabi_atexit>
 800e79c:	4891      	ldr	r0, [pc, #580]	; (800e9e4 <_GLOBAL__sub_I__ZN4quan3uav3osd8get_fontEm+0x428>)
 800e79e:	4b92      	ldr	r3, [pc, #584]	; (800e9e8 <_GLOBAL__sub_I__ZN4quan3uav3osd8get_fontEm+0x42c>)
 800e7a0:	4992      	ldr	r1, [pc, #584]	; (800e9ec <_GLOBAL__sub_I__ZN4quan3uav3osd8get_fontEm+0x430>)
 800e7a2:	6003      	str	r3, [r0, #0]
 800e7a4:	4622      	mov	r2, r4
 800e7a6:	f005 fbcb 	bl	8013f40 <__aeabi_atexit>
 800e7aa:	4891      	ldr	r0, [pc, #580]	; (800e9f0 <_GLOBAL__sub_I__ZN4quan3uav3osd8get_fontEm+0x434>)
 800e7ac:	4b91      	ldr	r3, [pc, #580]	; (800e9f4 <_GLOBAL__sub_I__ZN4quan3uav3osd8get_fontEm+0x438>)
 800e7ae:	4992      	ldr	r1, [pc, #584]	; (800e9f8 <_GLOBAL__sub_I__ZN4quan3uav3osd8get_fontEm+0x43c>)
 800e7b0:	6003      	str	r3, [r0, #0]
 800e7b2:	4622      	mov	r2, r4
 800e7b4:	f005 fbc4 	bl	8013f40 <__aeabi_atexit>
 800e7b8:	4890      	ldr	r0, [pc, #576]	; (800e9fc <_GLOBAL__sub_I__ZN4quan3uav3osd8get_fontEm+0x440>)
 800e7ba:	4b91      	ldr	r3, [pc, #580]	; (800ea00 <_GLOBAL__sub_I__ZN4quan3uav3osd8get_fontEm+0x444>)
 800e7bc:	4991      	ldr	r1, [pc, #580]	; (800ea04 <_GLOBAL__sub_I__ZN4quan3uav3osd8get_fontEm+0x448>)
 800e7be:	6003      	str	r3, [r0, #0]
 800e7c0:	4622      	mov	r2, r4
 800e7c2:	f005 fbbd 	bl	8013f40 <__aeabi_atexit>
 800e7c6:	4890      	ldr	r0, [pc, #576]	; (800ea08 <_GLOBAL__sub_I__ZN4quan3uav3osd8get_fontEm+0x44c>)
 800e7c8:	4b90      	ldr	r3, [pc, #576]	; (800ea0c <_GLOBAL__sub_I__ZN4quan3uav3osd8get_fontEm+0x450>)
 800e7ca:	4991      	ldr	r1, [pc, #580]	; (800ea10 <_GLOBAL__sub_I__ZN4quan3uav3osd8get_fontEm+0x454>)
 800e7cc:	6003      	str	r3, [r0, #0]
 800e7ce:	4622      	mov	r2, r4
 800e7d0:	f005 fbb6 	bl	8013f40 <__aeabi_atexit>
 800e7d4:	488f      	ldr	r0, [pc, #572]	; (800ea14 <_GLOBAL__sub_I__ZN4quan3uav3osd8get_fontEm+0x458>)
 800e7d6:	4b90      	ldr	r3, [pc, #576]	; (800ea18 <_GLOBAL__sub_I__ZN4quan3uav3osd8get_fontEm+0x45c>)
 800e7d8:	4990      	ldr	r1, [pc, #576]	; (800ea1c <_GLOBAL__sub_I__ZN4quan3uav3osd8get_fontEm+0x460>)
 800e7da:	6003      	str	r3, [r0, #0]
 800e7dc:	4622      	mov	r2, r4
 800e7de:	f005 fbaf 	bl	8013f40 <__aeabi_atexit>
 800e7e2:	488f      	ldr	r0, [pc, #572]	; (800ea20 <_GLOBAL__sub_I__ZN4quan3uav3osd8get_fontEm+0x464>)
 800e7e4:	4b8f      	ldr	r3, [pc, #572]	; (800ea24 <_GLOBAL__sub_I__ZN4quan3uav3osd8get_fontEm+0x468>)
 800e7e6:	4990      	ldr	r1, [pc, #576]	; (800ea28 <_GLOBAL__sub_I__ZN4quan3uav3osd8get_fontEm+0x46c>)
 800e7e8:	6003      	str	r3, [r0, #0]
 800e7ea:	4622      	mov	r2, r4
 800e7ec:	f005 fba8 	bl	8013f40 <__aeabi_atexit>
 800e7f0:	488e      	ldr	r0, [pc, #568]	; (800ea2c <_GLOBAL__sub_I__ZN4quan3uav3osd8get_fontEm+0x470>)
 800e7f2:	4b8f      	ldr	r3, [pc, #572]	; (800ea30 <_GLOBAL__sub_I__ZN4quan3uav3osd8get_fontEm+0x474>)
 800e7f4:	498f      	ldr	r1, [pc, #572]	; (800ea34 <_GLOBAL__sub_I__ZN4quan3uav3osd8get_fontEm+0x478>)
 800e7f6:	6003      	str	r3, [r0, #0]
 800e7f8:	4622      	mov	r2, r4
 800e7fa:	f005 fba1 	bl	8013f40 <__aeabi_atexit>
 800e7fe:	488e      	ldr	r0, [pc, #568]	; (800ea38 <_GLOBAL__sub_I__ZN4quan3uav3osd8get_fontEm+0x47c>)
 800e800:	4b8e      	ldr	r3, [pc, #568]	; (800ea3c <_GLOBAL__sub_I__ZN4quan3uav3osd8get_fontEm+0x480>)
 800e802:	498f      	ldr	r1, [pc, #572]	; (800ea40 <_GLOBAL__sub_I__ZN4quan3uav3osd8get_fontEm+0x484>)
 800e804:	6003      	str	r3, [r0, #0]
 800e806:	4622      	mov	r2, r4
 800e808:	f005 fb9a 	bl	8013f40 <__aeabi_atexit>
 800e80c:	488d      	ldr	r0, [pc, #564]	; (800ea44 <_GLOBAL__sub_I__ZN4quan3uav3osd8get_fontEm+0x488>)
 800e80e:	4b8e      	ldr	r3, [pc, #568]	; (800ea48 <_GLOBAL__sub_I__ZN4quan3uav3osd8get_fontEm+0x48c>)
 800e810:	498e      	ldr	r1, [pc, #568]	; (800ea4c <_GLOBAL__sub_I__ZN4quan3uav3osd8get_fontEm+0x490>)
 800e812:	6003      	str	r3, [r0, #0]
 800e814:	4622      	mov	r2, r4
 800e816:	f005 fb93 	bl	8013f40 <__aeabi_atexit>
 800e81a:	488d      	ldr	r0, [pc, #564]	; (800ea50 <_GLOBAL__sub_I__ZN4quan3uav3osd8get_fontEm+0x494>)
 800e81c:	4b8d      	ldr	r3, [pc, #564]	; (800ea54 <_GLOBAL__sub_I__ZN4quan3uav3osd8get_fontEm+0x498>)
 800e81e:	498e      	ldr	r1, [pc, #568]	; (800ea58 <_GLOBAL__sub_I__ZN4quan3uav3osd8get_fontEm+0x49c>)
 800e820:	6003      	str	r3, [r0, #0]
 800e822:	4622      	mov	r2, r4
 800e824:	f005 fb8c 	bl	8013f40 <__aeabi_atexit>
 800e828:	488c      	ldr	r0, [pc, #560]	; (800ea5c <_GLOBAL__sub_I__ZN4quan3uav3osd8get_fontEm+0x4a0>)
 800e82a:	4b8d      	ldr	r3, [pc, #564]	; (800ea60 <_GLOBAL__sub_I__ZN4quan3uav3osd8get_fontEm+0x4a4>)
 800e82c:	498d      	ldr	r1, [pc, #564]	; (800ea64 <_GLOBAL__sub_I__ZN4quan3uav3osd8get_fontEm+0x4a8>)
 800e82e:	6003      	str	r3, [r0, #0]
 800e830:	4622      	mov	r2, r4
 800e832:	f005 fb85 	bl	8013f40 <__aeabi_atexit>
 800e836:	488c      	ldr	r0, [pc, #560]	; (800ea68 <_GLOBAL__sub_I__ZN4quan3uav3osd8get_fontEm+0x4ac>)
 800e838:	4b8c      	ldr	r3, [pc, #560]	; (800ea6c <_GLOBAL__sub_I__ZN4quan3uav3osd8get_fontEm+0x4b0>)
 800e83a:	498d      	ldr	r1, [pc, #564]	; (800ea70 <_GLOBAL__sub_I__ZN4quan3uav3osd8get_fontEm+0x4b4>)
 800e83c:	6003      	str	r3, [r0, #0]
 800e83e:	4622      	mov	r2, r4
 800e840:	f005 fb7e 	bl	8013f40 <__aeabi_atexit>
 800e844:	e116      	b.n	800ea74 <_GLOBAL__sub_I__ZN4quan3uav3osd8get_fontEm+0x4b8>
 800e846:	bf00      	nop
 800e848:	10000db0 	.word	0x10000db0
 800e84c:	10000914 	.word	0x10000914
 800e850:	080195f0 	.word	0x080195f0
 800e854:	0800d99d 	.word	0x0800d99d
 800e858:	10000940 	.word	0x10000940
 800e85c:	080199d0 	.word	0x080199d0
 800e860:	0800d999 	.word	0x0800d999
 800e864:	10000964 	.word	0x10000964
 800e868:	080197c0 	.word	0x080197c0
 800e86c:	0800d995 	.word	0x0800d995
 800e870:	10000988 	.word	0x10000988
 800e874:	080168b8 	.word	0x080168b8
 800e878:	0800d991 	.word	0x0800d991
 800e87c:	100009b4 	.word	0x100009b4
 800e880:	08016c18 	.word	0x08016c18
 800e884:	0800d98d 	.word	0x0800d98d
 800e888:	100009d4 	.word	0x100009d4
 800e88c:	08018558 	.word	0x08018558
 800e890:	0800d989 	.word	0x0800d989
 800e894:	100009f8 	.word	0x100009f8
 800e898:	08017450 	.word	0x08017450
 800e89c:	0800d985 	.word	0x0800d985
 800e8a0:	10000938 	.word	0x10000938
 800e8a4:	08015c08 	.word	0x08015c08
 800e8a8:	0800d981 	.word	0x0800d981
 800e8ac:	10000980 	.word	0x10000980
 800e8b0:	08017b78 	.word	0x08017b78
 800e8b4:	0800d97d 	.word	0x0800d97d
 800e8b8:	10000a6c 	.word	0x10000a6c
 800e8bc:	080183d0 	.word	0x080183d0
 800e8c0:	0800d979 	.word	0x0800d979
 800e8c4:	10000a1c 	.word	0x10000a1c
 800e8c8:	080170a0 	.word	0x080170a0
 800e8cc:	0800d975 	.word	0x0800d975
 800e8d0:	10000a4c 	.word	0x10000a4c
 800e8d4:	08017420 	.word	0x08017420
 800e8d8:	0800d971 	.word	0x0800d971
 800e8dc:	10000a68 	.word	0x10000a68
 800e8e0:	08017748 	.word	0x08017748
 800e8e4:	0800d96d 	.word	0x0800d96d
 800e8e8:	10000a8c 	.word	0x10000a8c
 800e8ec:	08018338 	.word	0x08018338
 800e8f0:	0800d969 	.word	0x0800d969
 800e8f4:	10000aa8 	.word	0x10000aa8
 800e8f8:	08018320 	.word	0x08018320
 800e8fc:	0800d965 	.word	0x0800d965
 800e900:	10000ac8 	.word	0x10000ac8
 800e904:	08014e00 	.word	0x08014e00
 800e908:	0800d961 	.word	0x0800d961
 800e90c:	10000aec 	.word	0x10000aec
 800e910:	08019858 	.word	0x08019858
 800e914:	0800d95d 	.word	0x0800d95d
 800e918:	10000a18 	.word	0x10000a18
 800e91c:	080156a0 	.word	0x080156a0
 800e920:	0800d959 	.word	0x0800d959
 800e924:	10000b20 	.word	0x10000b20
 800e928:	08015a28 	.word	0x08015a28
 800e92c:	0800d955 	.word	0x0800d955
 800e930:	10000b40 	.word	0x10000b40
 800e934:	08015e88 	.word	0x08015e88
 800e938:	0800d951 	.word	0x0800d951
 800e93c:	10000af0 	.word	0x10000af0
 800e940:	08015388 	.word	0x08015388
 800e944:	0800d94d 	.word	0x0800d94d
 800e948:	10000a40 	.word	0x10000a40
 800e94c:	080157a0 	.word	0x080157a0
 800e950:	0800d949 	.word	0x0800d949
 800e954:	10000ac4 	.word	0x10000ac4
 800e958:	08015bf0 	.word	0x08015bf0
 800e95c:	0800d945 	.word	0x0800d945
 800e960:	10000878 	.word	0x10000878
 800e964:	08016528 	.word	0x08016528
 800e968:	0800d941 	.word	0x0800d941
 800e96c:	10000b5c 	.word	0x10000b5c
 800e970:	08017bc8 	.word	0x08017bc8
 800e974:	0800d93d 	.word	0x0800d93d
 800e978:	10000b78 	.word	0x10000b78
 800e97c:	08018420 	.word	0x08018420
 800e980:	0800d939 	.word	0x0800d939
 800e984:	10000b94 	.word	0x10000b94
 800e988:	08018768 	.word	0x08018768
 800e98c:	0800d935 	.word	0x0800d935
 800e990:	10000bb4 	.word	0x10000bb4
 800e994:	08018c40 	.word	0x08018c40
 800e998:	0800d931 	.word	0x0800d931
 800e99c:	10000bd4 	.word	0x10000bd4
 800e9a0:	08018ff0 	.word	0x08018ff0
 800e9a4:	0800d92d 	.word	0x0800d92d
 800e9a8:	10000bfc 	.word	0x10000bfc
 800e9ac:	080193f0 	.word	0x080193f0
 800e9b0:	0800d929 	.word	0x0800d929
 800e9b4:	10000b98 	.word	0x10000b98
 800e9b8:	080188e0 	.word	0x080188e0
 800e9bc:	0800d925 	.word	0x0800d925
 800e9c0:	10000bb8 	.word	0x10000bb8
 800e9c4:	08014a60 	.word	0x08014a60
 800e9c8:	0800d921 	.word	0x0800d921
 800e9cc:	10000bd8 	.word	0x10000bd8
 800e9d0:	080157f0 	.word	0x080157f0
 800e9d4:	0800d91d 	.word	0x0800d91d
 800e9d8:	10000c00 	.word	0x10000c00
 800e9dc:	08015ca8 	.word	0x08015ca8
 800e9e0:	0800d919 	.word	0x0800d919
 800e9e4:	10000c20 	.word	0x10000c20
 800e9e8:	08016030 	.word	0x08016030
 800e9ec:	0800d915 	.word	0x0800d915
 800e9f0:	10000acc 	.word	0x10000acc
 800e9f4:	08016388 	.word	0x08016388
 800e9f8:	0800d911 	.word	0x0800d911
 800e9fc:	10000c60 	.word	0x10000c60
 800ea00:	08016778 	.word	0x08016778
 800ea04:	0800d90d 	.word	0x0800d90d
 800ea08:	1000087c 	.word	0x1000087c
 800ea0c:	08016ba0 	.word	0x08016ba0
 800ea10:	0800d909 	.word	0x0800d909
 800ea14:	100008a0 	.word	0x100008a0
 800ea18:	08016f88 	.word	0x08016f88
 800ea1c:	0800d905 	.word	0x0800d905
 800ea20:	100008c8 	.word	0x100008c8
 800ea24:	080173d8 	.word	0x080173d8
 800ea28:	0800d901 	.word	0x0800d901
 800ea2c:	10000c64 	.word	0x10000c64
 800ea30:	080185e0 	.word	0x080185e0
 800ea34:	0800d8fd 	.word	0x0800d8fd
 800ea38:	10000884 	.word	0x10000884
 800ea3c:	08018960 	.word	0x08018960
 800ea40:	0800d8f9 	.word	0x0800d8f9
 800ea44:	100008a4 	.word	0x100008a4
 800ea48:	08018e18 	.word	0x08018e18
 800ea4c:	0800d8f5 	.word	0x0800d8f5
 800ea50:	100008d0 	.word	0x100008d0
 800ea54:	080191d8 	.word	0x080191d8
 800ea58:	0800d8f1 	.word	0x0800d8f1
 800ea5c:	10000c04 	.word	0x10000c04
 800ea60:	08014ab0 	.word	0x08014ab0
 800ea64:	0800d8ed 	.word	0x0800d8ed
 800ea68:	10000910 	.word	0x10000910
 800ea6c:	080199a0 	.word	0x080199a0
 800ea70:	0800d8e9 	.word	0x0800d8e9
 800ea74:	48a1      	ldr	r0, [pc, #644]	; (800ecfc <_GLOBAL__sub_I__ZN4quan3uav3osd8get_fontEm+0x740>)
 800ea76:	4ba2      	ldr	r3, [pc, #648]	; (800ed00 <_GLOBAL__sub_I__ZN4quan3uav3osd8get_fontEm+0x744>)
 800ea78:	49a2      	ldr	r1, [pc, #648]	; (800ed04 <_GLOBAL__sub_I__ZN4quan3uav3osd8get_fontEm+0x748>)
 800ea7a:	6003      	str	r3, [r0, #0]
 800ea7c:	4622      	mov	r2, r4
 800ea7e:	f005 fa5f 	bl	8013f40 <__aeabi_atexit>
 800ea82:	48a1      	ldr	r0, [pc, #644]	; (800ed08 <_GLOBAL__sub_I__ZN4quan3uav3osd8get_fontEm+0x74c>)
 800ea84:	4ba1      	ldr	r3, [pc, #644]	; (800ed0c <_GLOBAL__sub_I__ZN4quan3uav3osd8get_fontEm+0x750>)
 800ea86:	49a2      	ldr	r1, [pc, #648]	; (800ed10 <_GLOBAL__sub_I__ZN4quan3uav3osd8get_fontEm+0x754>)
 800ea88:	6003      	str	r3, [r0, #0]
 800ea8a:	4622      	mov	r2, r4
 800ea8c:	f005 fa58 	bl	8013f40 <__aeabi_atexit>
 800ea90:	48a0      	ldr	r0, [pc, #640]	; (800ed14 <_GLOBAL__sub_I__ZN4quan3uav3osd8get_fontEm+0x758>)
 800ea92:	4ba1      	ldr	r3, [pc, #644]	; (800ed18 <_GLOBAL__sub_I__ZN4quan3uav3osd8get_fontEm+0x75c>)
 800ea94:	49a1      	ldr	r1, [pc, #644]	; (800ed1c <_GLOBAL__sub_I__ZN4quan3uav3osd8get_fontEm+0x760>)
 800ea96:	6003      	str	r3, [r0, #0]
 800ea98:	4622      	mov	r2, r4
 800ea9a:	f005 fa51 	bl	8013f40 <__aeabi_atexit>
 800ea9e:	48a0      	ldr	r0, [pc, #640]	; (800ed20 <_GLOBAL__sub_I__ZN4quan3uav3osd8get_fontEm+0x764>)
 800eaa0:	4ba0      	ldr	r3, [pc, #640]	; (800ed24 <_GLOBAL__sub_I__ZN4quan3uav3osd8get_fontEm+0x768>)
 800eaa2:	49a1      	ldr	r1, [pc, #644]	; (800ed28 <_GLOBAL__sub_I__ZN4quan3uav3osd8get_fontEm+0x76c>)
 800eaa4:	6003      	str	r3, [r0, #0]
 800eaa6:	4622      	mov	r2, r4
 800eaa8:	f005 fa4a 	bl	8013f40 <__aeabi_atexit>
 800eaac:	489f      	ldr	r0, [pc, #636]	; (800ed2c <_GLOBAL__sub_I__ZN4quan3uav3osd8get_fontEm+0x770>)
 800eaae:	4ba0      	ldr	r3, [pc, #640]	; (800ed30 <_GLOBAL__sub_I__ZN4quan3uav3osd8get_fontEm+0x774>)
 800eab0:	49a0      	ldr	r1, [pc, #640]	; (800ed34 <_GLOBAL__sub_I__ZN4quan3uav3osd8get_fontEm+0x778>)
 800eab2:	6003      	str	r3, [r0, #0]
 800eab4:	4622      	mov	r2, r4
 800eab6:	f005 fa43 	bl	8013f40 <__aeabi_atexit>
 800eaba:	489f      	ldr	r0, [pc, #636]	; (800ed38 <_GLOBAL__sub_I__ZN4quan3uav3osd8get_fontEm+0x77c>)
 800eabc:	4b9f      	ldr	r3, [pc, #636]	; (800ed3c <_GLOBAL__sub_I__ZN4quan3uav3osd8get_fontEm+0x780>)
 800eabe:	49a0      	ldr	r1, [pc, #640]	; (800ed40 <_GLOBAL__sub_I__ZN4quan3uav3osd8get_fontEm+0x784>)
 800eac0:	6003      	str	r3, [r0, #0]
 800eac2:	4622      	mov	r2, r4
 800eac4:	f005 fa3c 	bl	8013f40 <__aeabi_atexit>
 800eac8:	489e      	ldr	r0, [pc, #632]	; (800ed44 <_GLOBAL__sub_I__ZN4quan3uav3osd8get_fontEm+0x788>)
 800eaca:	4b9f      	ldr	r3, [pc, #636]	; (800ed48 <_GLOBAL__sub_I__ZN4quan3uav3osd8get_fontEm+0x78c>)
 800eacc:	499f      	ldr	r1, [pc, #636]	; (800ed4c <_GLOBAL__sub_I__ZN4quan3uav3osd8get_fontEm+0x790>)
 800eace:	6003      	str	r3, [r0, #0]
 800ead0:	4622      	mov	r2, r4
 800ead2:	f005 fa35 	bl	8013f40 <__aeabi_atexit>
 800ead6:	489e      	ldr	r0, [pc, #632]	; (800ed50 <_GLOBAL__sub_I__ZN4quan3uav3osd8get_fontEm+0x794>)
 800ead8:	4b9e      	ldr	r3, [pc, #632]	; (800ed54 <_GLOBAL__sub_I__ZN4quan3uav3osd8get_fontEm+0x798>)
 800eada:	499f      	ldr	r1, [pc, #636]	; (800ed58 <_GLOBAL__sub_I__ZN4quan3uav3osd8get_fontEm+0x79c>)
 800eadc:	6003      	str	r3, [r0, #0]
 800eade:	4622      	mov	r2, r4
 800eae0:	f005 fa2e 	bl	8013f40 <__aeabi_atexit>
 800eae4:	489d      	ldr	r0, [pc, #628]	; (800ed5c <_GLOBAL__sub_I__ZN4quan3uav3osd8get_fontEm+0x7a0>)
 800eae6:	4b9e      	ldr	r3, [pc, #632]	; (800ed60 <_GLOBAL__sub_I__ZN4quan3uav3osd8get_fontEm+0x7a4>)
 800eae8:	499e      	ldr	r1, [pc, #632]	; (800ed64 <_GLOBAL__sub_I__ZN4quan3uav3osd8get_fontEm+0x7a8>)
 800eaea:	6003      	str	r3, [r0, #0]
 800eaec:	4622      	mov	r2, r4
 800eaee:	f005 fa27 	bl	8013f40 <__aeabi_atexit>
 800eaf2:	489d      	ldr	r0, [pc, #628]	; (800ed68 <_GLOBAL__sub_I__ZN4quan3uav3osd8get_fontEm+0x7ac>)
 800eaf4:	4b9d      	ldr	r3, [pc, #628]	; (800ed6c <_GLOBAL__sub_I__ZN4quan3uav3osd8get_fontEm+0x7b0>)
 800eaf6:	499e      	ldr	r1, [pc, #632]	; (800ed70 <_GLOBAL__sub_I__ZN4quan3uav3osd8get_fontEm+0x7b4>)
 800eaf8:	6003      	str	r3, [r0, #0]
 800eafa:	4622      	mov	r2, r4
 800eafc:	f005 fa20 	bl	8013f40 <__aeabi_atexit>
 800eb00:	489c      	ldr	r0, [pc, #624]	; (800ed74 <_GLOBAL__sub_I__ZN4quan3uav3osd8get_fontEm+0x7b8>)
 800eb02:	4b9d      	ldr	r3, [pc, #628]	; (800ed78 <_GLOBAL__sub_I__ZN4quan3uav3osd8get_fontEm+0x7bc>)
 800eb04:	499d      	ldr	r1, [pc, #628]	; (800ed7c <_GLOBAL__sub_I__ZN4quan3uav3osd8get_fontEm+0x7c0>)
 800eb06:	6003      	str	r3, [r0, #0]
 800eb08:	4622      	mov	r2, r4
 800eb0a:	f005 fa19 	bl	8013f40 <__aeabi_atexit>
 800eb0e:	489c      	ldr	r0, [pc, #624]	; (800ed80 <_GLOBAL__sub_I__ZN4quan3uav3osd8get_fontEm+0x7c4>)
 800eb10:	4b9c      	ldr	r3, [pc, #624]	; (800ed84 <_GLOBAL__sub_I__ZN4quan3uav3osd8get_fontEm+0x7c8>)
 800eb12:	499d      	ldr	r1, [pc, #628]	; (800ed88 <_GLOBAL__sub_I__ZN4quan3uav3osd8get_fontEm+0x7cc>)
 800eb14:	6003      	str	r3, [r0, #0]
 800eb16:	4622      	mov	r2, r4
 800eb18:	f005 fa12 	bl	8013f40 <__aeabi_atexit>
 800eb1c:	489b      	ldr	r0, [pc, #620]	; (800ed8c <_GLOBAL__sub_I__ZN4quan3uav3osd8get_fontEm+0x7d0>)
 800eb1e:	4b9c      	ldr	r3, [pc, #624]	; (800ed90 <_GLOBAL__sub_I__ZN4quan3uav3osd8get_fontEm+0x7d4>)
 800eb20:	499c      	ldr	r1, [pc, #624]	; (800ed94 <_GLOBAL__sub_I__ZN4quan3uav3osd8get_fontEm+0x7d8>)
 800eb22:	6003      	str	r3, [r0, #0]
 800eb24:	4622      	mov	r2, r4
 800eb26:	f005 fa0b 	bl	8013f40 <__aeabi_atexit>
 800eb2a:	489b      	ldr	r0, [pc, #620]	; (800ed98 <_GLOBAL__sub_I__ZN4quan3uav3osd8get_fontEm+0x7dc>)
 800eb2c:	4b9b      	ldr	r3, [pc, #620]	; (800ed9c <_GLOBAL__sub_I__ZN4quan3uav3osd8get_fontEm+0x7e0>)
 800eb2e:	499c      	ldr	r1, [pc, #624]	; (800eda0 <_GLOBAL__sub_I__ZN4quan3uav3osd8get_fontEm+0x7e4>)
 800eb30:	6003      	str	r3, [r0, #0]
 800eb32:	4622      	mov	r2, r4
 800eb34:	f005 fa04 	bl	8013f40 <__aeabi_atexit>
 800eb38:	489a      	ldr	r0, [pc, #616]	; (800eda4 <_GLOBAL__sub_I__ZN4quan3uav3osd8get_fontEm+0x7e8>)
 800eb3a:	4b9b      	ldr	r3, [pc, #620]	; (800eda8 <_GLOBAL__sub_I__ZN4quan3uav3osd8get_fontEm+0x7ec>)
 800eb3c:	499b      	ldr	r1, [pc, #620]	; (800edac <_GLOBAL__sub_I__ZN4quan3uav3osd8get_fontEm+0x7f0>)
 800eb3e:	6003      	str	r3, [r0, #0]
 800eb40:	4622      	mov	r2, r4
 800eb42:	f005 f9fd 	bl	8013f40 <__aeabi_atexit>
 800eb46:	489a      	ldr	r0, [pc, #616]	; (800edb0 <_GLOBAL__sub_I__ZN4quan3uav3osd8get_fontEm+0x7f4>)
 800eb48:	4b9a      	ldr	r3, [pc, #616]	; (800edb4 <_GLOBAL__sub_I__ZN4quan3uav3osd8get_fontEm+0x7f8>)
 800eb4a:	499b      	ldr	r1, [pc, #620]	; (800edb8 <_GLOBAL__sub_I__ZN4quan3uav3osd8get_fontEm+0x7fc>)
 800eb4c:	6003      	str	r3, [r0, #0]
 800eb4e:	4622      	mov	r2, r4
 800eb50:	f005 f9f6 	bl	8013f40 <__aeabi_atexit>
 800eb54:	4899      	ldr	r0, [pc, #612]	; (800edbc <_GLOBAL__sub_I__ZN4quan3uav3osd8get_fontEm+0x800>)
 800eb56:	4b9a      	ldr	r3, [pc, #616]	; (800edc0 <_GLOBAL__sub_I__ZN4quan3uav3osd8get_fontEm+0x804>)
 800eb58:	499a      	ldr	r1, [pc, #616]	; (800edc4 <_GLOBAL__sub_I__ZN4quan3uav3osd8get_fontEm+0x808>)
 800eb5a:	6003      	str	r3, [r0, #0]
 800eb5c:	4622      	mov	r2, r4
 800eb5e:	f005 f9ef 	bl	8013f40 <__aeabi_atexit>
 800eb62:	4899      	ldr	r0, [pc, #612]	; (800edc8 <_GLOBAL__sub_I__ZN4quan3uav3osd8get_fontEm+0x80c>)
 800eb64:	4b99      	ldr	r3, [pc, #612]	; (800edcc <_GLOBAL__sub_I__ZN4quan3uav3osd8get_fontEm+0x810>)
 800eb66:	499a      	ldr	r1, [pc, #616]	; (800edd0 <_GLOBAL__sub_I__ZN4quan3uav3osd8get_fontEm+0x814>)
 800eb68:	6003      	str	r3, [r0, #0]
 800eb6a:	4622      	mov	r2, r4
 800eb6c:	f005 f9e8 	bl	8013f40 <__aeabi_atexit>
 800eb70:	4898      	ldr	r0, [pc, #608]	; (800edd4 <_GLOBAL__sub_I__ZN4quan3uav3osd8get_fontEm+0x818>)
 800eb72:	4b99      	ldr	r3, [pc, #612]	; (800edd8 <_GLOBAL__sub_I__ZN4quan3uav3osd8get_fontEm+0x81c>)
 800eb74:	4999      	ldr	r1, [pc, #612]	; (800eddc <_GLOBAL__sub_I__ZN4quan3uav3osd8get_fontEm+0x820>)
 800eb76:	6003      	str	r3, [r0, #0]
 800eb78:	4622      	mov	r2, r4
 800eb7a:	f005 f9e1 	bl	8013f40 <__aeabi_atexit>
 800eb7e:	4898      	ldr	r0, [pc, #608]	; (800ede0 <_GLOBAL__sub_I__ZN4quan3uav3osd8get_fontEm+0x824>)
 800eb80:	4b98      	ldr	r3, [pc, #608]	; (800ede4 <_GLOBAL__sub_I__ZN4quan3uav3osd8get_fontEm+0x828>)
 800eb82:	4999      	ldr	r1, [pc, #612]	; (800ede8 <_GLOBAL__sub_I__ZN4quan3uav3osd8get_fontEm+0x82c>)
 800eb84:	6003      	str	r3, [r0, #0]
 800eb86:	4622      	mov	r2, r4
 800eb88:	f005 f9da 	bl	8013f40 <__aeabi_atexit>
 800eb8c:	4897      	ldr	r0, [pc, #604]	; (800edec <_GLOBAL__sub_I__ZN4quan3uav3osd8get_fontEm+0x830>)
 800eb8e:	4b98      	ldr	r3, [pc, #608]	; (800edf0 <_GLOBAL__sub_I__ZN4quan3uav3osd8get_fontEm+0x834>)
 800eb90:	4998      	ldr	r1, [pc, #608]	; (800edf4 <_GLOBAL__sub_I__ZN4quan3uav3osd8get_fontEm+0x838>)
 800eb92:	6003      	str	r3, [r0, #0]
 800eb94:	4622      	mov	r2, r4
 800eb96:	f005 f9d3 	bl	8013f40 <__aeabi_atexit>
 800eb9a:	4897      	ldr	r0, [pc, #604]	; (800edf8 <_GLOBAL__sub_I__ZN4quan3uav3osd8get_fontEm+0x83c>)
 800eb9c:	4b97      	ldr	r3, [pc, #604]	; (800edfc <_GLOBAL__sub_I__ZN4quan3uav3osd8get_fontEm+0x840>)
 800eb9e:	4998      	ldr	r1, [pc, #608]	; (800ee00 <_GLOBAL__sub_I__ZN4quan3uav3osd8get_fontEm+0x844>)
 800eba0:	6003      	str	r3, [r0, #0]
 800eba2:	4622      	mov	r2, r4
 800eba4:	f005 f9cc 	bl	8013f40 <__aeabi_atexit>
 800eba8:	4896      	ldr	r0, [pc, #600]	; (800ee04 <_GLOBAL__sub_I__ZN4quan3uav3osd8get_fontEm+0x848>)
 800ebaa:	4b97      	ldr	r3, [pc, #604]	; (800ee08 <_GLOBAL__sub_I__ZN4quan3uav3osd8get_fontEm+0x84c>)
 800ebac:	4997      	ldr	r1, [pc, #604]	; (800ee0c <_GLOBAL__sub_I__ZN4quan3uav3osd8get_fontEm+0x850>)
 800ebae:	6003      	str	r3, [r0, #0]
 800ebb0:	4622      	mov	r2, r4
 800ebb2:	f005 f9c5 	bl	8013f40 <__aeabi_atexit>
 800ebb6:	4896      	ldr	r0, [pc, #600]	; (800ee10 <_GLOBAL__sub_I__ZN4quan3uav3osd8get_fontEm+0x854>)
 800ebb8:	4b96      	ldr	r3, [pc, #600]	; (800ee14 <_GLOBAL__sub_I__ZN4quan3uav3osd8get_fontEm+0x858>)
 800ebba:	4997      	ldr	r1, [pc, #604]	; (800ee18 <_GLOBAL__sub_I__ZN4quan3uav3osd8get_fontEm+0x85c>)
 800ebbc:	6003      	str	r3, [r0, #0]
 800ebbe:	4622      	mov	r2, r4
 800ebc0:	f005 f9be 	bl	8013f40 <__aeabi_atexit>
 800ebc4:	4895      	ldr	r0, [pc, #596]	; (800ee1c <_GLOBAL__sub_I__ZN4quan3uav3osd8get_fontEm+0x860>)
 800ebc6:	4b96      	ldr	r3, [pc, #600]	; (800ee20 <_GLOBAL__sub_I__ZN4quan3uav3osd8get_fontEm+0x864>)
 800ebc8:	4996      	ldr	r1, [pc, #600]	; (800ee24 <_GLOBAL__sub_I__ZN4quan3uav3osd8get_fontEm+0x868>)
 800ebca:	6003      	str	r3, [r0, #0]
 800ebcc:	4622      	mov	r2, r4
 800ebce:	f005 f9b7 	bl	8013f40 <__aeabi_atexit>
 800ebd2:	4895      	ldr	r0, [pc, #596]	; (800ee28 <_GLOBAL__sub_I__ZN4quan3uav3osd8get_fontEm+0x86c>)
 800ebd4:	4b95      	ldr	r3, [pc, #596]	; (800ee2c <_GLOBAL__sub_I__ZN4quan3uav3osd8get_fontEm+0x870>)
 800ebd6:	4996      	ldr	r1, [pc, #600]	; (800ee30 <_GLOBAL__sub_I__ZN4quan3uav3osd8get_fontEm+0x874>)
 800ebd8:	6003      	str	r3, [r0, #0]
 800ebda:	4622      	mov	r2, r4
 800ebdc:	f005 f9b0 	bl	8013f40 <__aeabi_atexit>
 800ebe0:	4894      	ldr	r0, [pc, #592]	; (800ee34 <_GLOBAL__sub_I__ZN4quan3uav3osd8get_fontEm+0x878>)
 800ebe2:	4b95      	ldr	r3, [pc, #596]	; (800ee38 <_GLOBAL__sub_I__ZN4quan3uav3osd8get_fontEm+0x87c>)
 800ebe4:	4995      	ldr	r1, [pc, #596]	; (800ee3c <_GLOBAL__sub_I__ZN4quan3uav3osd8get_fontEm+0x880>)
 800ebe6:	6003      	str	r3, [r0, #0]
 800ebe8:	4622      	mov	r2, r4
 800ebea:	f005 f9a9 	bl	8013f40 <__aeabi_atexit>
 800ebee:	4894      	ldr	r0, [pc, #592]	; (800ee40 <_GLOBAL__sub_I__ZN4quan3uav3osd8get_fontEm+0x884>)
 800ebf0:	4b94      	ldr	r3, [pc, #592]	; (800ee44 <_GLOBAL__sub_I__ZN4quan3uav3osd8get_fontEm+0x888>)
 800ebf2:	4995      	ldr	r1, [pc, #596]	; (800ee48 <_GLOBAL__sub_I__ZN4quan3uav3osd8get_fontEm+0x88c>)
 800ebf4:	6003      	str	r3, [r0, #0]
 800ebf6:	4622      	mov	r2, r4
 800ebf8:	f005 f9a2 	bl	8013f40 <__aeabi_atexit>
 800ebfc:	4893      	ldr	r0, [pc, #588]	; (800ee4c <_GLOBAL__sub_I__ZN4quan3uav3osd8get_fontEm+0x890>)
 800ebfe:	4b94      	ldr	r3, [pc, #592]	; (800ee50 <_GLOBAL__sub_I__ZN4quan3uav3osd8get_fontEm+0x894>)
 800ec00:	4994      	ldr	r1, [pc, #592]	; (800ee54 <_GLOBAL__sub_I__ZN4quan3uav3osd8get_fontEm+0x898>)
 800ec02:	6003      	str	r3, [r0, #0]
 800ec04:	4622      	mov	r2, r4
 800ec06:	f005 f99b 	bl	8013f40 <__aeabi_atexit>
 800ec0a:	4893      	ldr	r0, [pc, #588]	; (800ee58 <_GLOBAL__sub_I__ZN4quan3uav3osd8get_fontEm+0x89c>)
 800ec0c:	4b93      	ldr	r3, [pc, #588]	; (800ee5c <_GLOBAL__sub_I__ZN4quan3uav3osd8get_fontEm+0x8a0>)
 800ec0e:	4994      	ldr	r1, [pc, #592]	; (800ee60 <_GLOBAL__sub_I__ZN4quan3uav3osd8get_fontEm+0x8a4>)
 800ec10:	6003      	str	r3, [r0, #0]
 800ec12:	4622      	mov	r2, r4
 800ec14:	f005 f994 	bl	8013f40 <__aeabi_atexit>
 800ec18:	4892      	ldr	r0, [pc, #584]	; (800ee64 <_GLOBAL__sub_I__ZN4quan3uav3osd8get_fontEm+0x8a8>)
 800ec1a:	4b93      	ldr	r3, [pc, #588]	; (800ee68 <_GLOBAL__sub_I__ZN4quan3uav3osd8get_fontEm+0x8ac>)
 800ec1c:	4993      	ldr	r1, [pc, #588]	; (800ee6c <_GLOBAL__sub_I__ZN4quan3uav3osd8get_fontEm+0x8b0>)
 800ec1e:	6003      	str	r3, [r0, #0]
 800ec20:	4622      	mov	r2, r4
 800ec22:	f005 f98d 	bl	8013f40 <__aeabi_atexit>
 800ec26:	4892      	ldr	r0, [pc, #584]	; (800ee70 <_GLOBAL__sub_I__ZN4quan3uav3osd8get_fontEm+0x8b4>)
 800ec28:	4b92      	ldr	r3, [pc, #584]	; (800ee74 <_GLOBAL__sub_I__ZN4quan3uav3osd8get_fontEm+0x8b8>)
 800ec2a:	4993      	ldr	r1, [pc, #588]	; (800ee78 <_GLOBAL__sub_I__ZN4quan3uav3osd8get_fontEm+0x8bc>)
 800ec2c:	6003      	str	r3, [r0, #0]
 800ec2e:	4622      	mov	r2, r4
 800ec30:	f005 f986 	bl	8013f40 <__aeabi_atexit>
 800ec34:	4891      	ldr	r0, [pc, #580]	; (800ee7c <_GLOBAL__sub_I__ZN4quan3uav3osd8get_fontEm+0x8c0>)
 800ec36:	4b92      	ldr	r3, [pc, #584]	; (800ee80 <_GLOBAL__sub_I__ZN4quan3uav3osd8get_fontEm+0x8c4>)
 800ec38:	4992      	ldr	r1, [pc, #584]	; (800ee84 <_GLOBAL__sub_I__ZN4quan3uav3osd8get_fontEm+0x8c8>)
 800ec3a:	6003      	str	r3, [r0, #0]
 800ec3c:	4622      	mov	r2, r4
 800ec3e:	f005 f97f 	bl	8013f40 <__aeabi_atexit>
 800ec42:	4891      	ldr	r0, [pc, #580]	; (800ee88 <_GLOBAL__sub_I__ZN4quan3uav3osd8get_fontEm+0x8cc>)
 800ec44:	4b91      	ldr	r3, [pc, #580]	; (800ee8c <_GLOBAL__sub_I__ZN4quan3uav3osd8get_fontEm+0x8d0>)
 800ec46:	4992      	ldr	r1, [pc, #584]	; (800ee90 <_GLOBAL__sub_I__ZN4quan3uav3osd8get_fontEm+0x8d4>)
 800ec48:	6003      	str	r3, [r0, #0]
 800ec4a:	4622      	mov	r2, r4
 800ec4c:	f005 f978 	bl	8013f40 <__aeabi_atexit>
 800ec50:	4890      	ldr	r0, [pc, #576]	; (800ee94 <_GLOBAL__sub_I__ZN4quan3uav3osd8get_fontEm+0x8d8>)
 800ec52:	4b91      	ldr	r3, [pc, #580]	; (800ee98 <_GLOBAL__sub_I__ZN4quan3uav3osd8get_fontEm+0x8dc>)
 800ec54:	4991      	ldr	r1, [pc, #580]	; (800ee9c <_GLOBAL__sub_I__ZN4quan3uav3osd8get_fontEm+0x8e0>)
 800ec56:	6003      	str	r3, [r0, #0]
 800ec58:	4622      	mov	r2, r4
 800ec5a:	f005 f971 	bl	8013f40 <__aeabi_atexit>
 800ec5e:	4890      	ldr	r0, [pc, #576]	; (800eea0 <_GLOBAL__sub_I__ZN4quan3uav3osd8get_fontEm+0x8e4>)
 800ec60:	4b90      	ldr	r3, [pc, #576]	; (800eea4 <_GLOBAL__sub_I__ZN4quan3uav3osd8get_fontEm+0x8e8>)
 800ec62:	4991      	ldr	r1, [pc, #580]	; (800eea8 <_GLOBAL__sub_I__ZN4quan3uav3osd8get_fontEm+0x8ec>)
 800ec64:	6003      	str	r3, [r0, #0]
 800ec66:	4622      	mov	r2, r4
 800ec68:	f005 f96a 	bl	8013f40 <__aeabi_atexit>
 800ec6c:	488f      	ldr	r0, [pc, #572]	; (800eeac <_GLOBAL__sub_I__ZN4quan3uav3osd8get_fontEm+0x8f0>)
 800ec6e:	4b90      	ldr	r3, [pc, #576]	; (800eeb0 <_GLOBAL__sub_I__ZN4quan3uav3osd8get_fontEm+0x8f4>)
 800ec70:	4990      	ldr	r1, [pc, #576]	; (800eeb4 <_GLOBAL__sub_I__ZN4quan3uav3osd8get_fontEm+0x8f8>)
 800ec72:	6003      	str	r3, [r0, #0]
 800ec74:	4622      	mov	r2, r4
 800ec76:	f005 f963 	bl	8013f40 <__aeabi_atexit>
 800ec7a:	488f      	ldr	r0, [pc, #572]	; (800eeb8 <_GLOBAL__sub_I__ZN4quan3uav3osd8get_fontEm+0x8fc>)
 800ec7c:	4b8f      	ldr	r3, [pc, #572]	; (800eebc <_GLOBAL__sub_I__ZN4quan3uav3osd8get_fontEm+0x900>)
 800ec7e:	4990      	ldr	r1, [pc, #576]	; (800eec0 <_GLOBAL__sub_I__ZN4quan3uav3osd8get_fontEm+0x904>)
 800ec80:	6003      	str	r3, [r0, #0]
 800ec82:	4622      	mov	r2, r4
 800ec84:	f005 f95c 	bl	8013f40 <__aeabi_atexit>
 800ec88:	488e      	ldr	r0, [pc, #568]	; (800eec4 <_GLOBAL__sub_I__ZN4quan3uav3osd8get_fontEm+0x908>)
 800ec8a:	4b8f      	ldr	r3, [pc, #572]	; (800eec8 <_GLOBAL__sub_I__ZN4quan3uav3osd8get_fontEm+0x90c>)
 800ec8c:	498f      	ldr	r1, [pc, #572]	; (800eecc <_GLOBAL__sub_I__ZN4quan3uav3osd8get_fontEm+0x910>)
 800ec8e:	6003      	str	r3, [r0, #0]
 800ec90:	4622      	mov	r2, r4
 800ec92:	f005 f955 	bl	8013f40 <__aeabi_atexit>
 800ec96:	488e      	ldr	r0, [pc, #568]	; (800eed0 <_GLOBAL__sub_I__ZN4quan3uav3osd8get_fontEm+0x914>)
 800ec98:	4b8e      	ldr	r3, [pc, #568]	; (800eed4 <_GLOBAL__sub_I__ZN4quan3uav3osd8get_fontEm+0x918>)
 800ec9a:	498f      	ldr	r1, [pc, #572]	; (800eed8 <_GLOBAL__sub_I__ZN4quan3uav3osd8get_fontEm+0x91c>)
 800ec9c:	6003      	str	r3, [r0, #0]
 800ec9e:	4622      	mov	r2, r4
 800eca0:	f005 f94e 	bl	8013f40 <__aeabi_atexit>
 800eca4:	488d      	ldr	r0, [pc, #564]	; (800eedc <_GLOBAL__sub_I__ZN4quan3uav3osd8get_fontEm+0x920>)
 800eca6:	4b8e      	ldr	r3, [pc, #568]	; (800eee0 <_GLOBAL__sub_I__ZN4quan3uav3osd8get_fontEm+0x924>)
 800eca8:	498e      	ldr	r1, [pc, #568]	; (800eee4 <_GLOBAL__sub_I__ZN4quan3uav3osd8get_fontEm+0x928>)
 800ecaa:	6003      	str	r3, [r0, #0]
 800ecac:	4622      	mov	r2, r4
 800ecae:	f005 f947 	bl	8013f40 <__aeabi_atexit>
 800ecb2:	488d      	ldr	r0, [pc, #564]	; (800eee8 <_GLOBAL__sub_I__ZN4quan3uav3osd8get_fontEm+0x92c>)
 800ecb4:	4b8d      	ldr	r3, [pc, #564]	; (800eeec <_GLOBAL__sub_I__ZN4quan3uav3osd8get_fontEm+0x930>)
 800ecb6:	498e      	ldr	r1, [pc, #568]	; (800eef0 <_GLOBAL__sub_I__ZN4quan3uav3osd8get_fontEm+0x934>)
 800ecb8:	6003      	str	r3, [r0, #0]
 800ecba:	4622      	mov	r2, r4
 800ecbc:	f005 f940 	bl	8013f40 <__aeabi_atexit>
 800ecc0:	488c      	ldr	r0, [pc, #560]	; (800eef4 <_GLOBAL__sub_I__ZN4quan3uav3osd8get_fontEm+0x938>)
 800ecc2:	4b8d      	ldr	r3, [pc, #564]	; (800eef8 <_GLOBAL__sub_I__ZN4quan3uav3osd8get_fontEm+0x93c>)
 800ecc4:	498d      	ldr	r1, [pc, #564]	; (800eefc <_GLOBAL__sub_I__ZN4quan3uav3osd8get_fontEm+0x940>)
 800ecc6:	6003      	str	r3, [r0, #0]
 800ecc8:	4622      	mov	r2, r4
 800ecca:	f005 f939 	bl	8013f40 <__aeabi_atexit>
 800ecce:	488c      	ldr	r0, [pc, #560]	; (800ef00 <_GLOBAL__sub_I__ZN4quan3uav3osd8get_fontEm+0x944>)
 800ecd0:	4b8c      	ldr	r3, [pc, #560]	; (800ef04 <_GLOBAL__sub_I__ZN4quan3uav3osd8get_fontEm+0x948>)
 800ecd2:	498d      	ldr	r1, [pc, #564]	; (800ef08 <_GLOBAL__sub_I__ZN4quan3uav3osd8get_fontEm+0x94c>)
 800ecd4:	6003      	str	r3, [r0, #0]
 800ecd6:	4622      	mov	r2, r4
 800ecd8:	f005 f932 	bl	8013f40 <__aeabi_atexit>
 800ecdc:	488b      	ldr	r0, [pc, #556]	; (800ef0c <_GLOBAL__sub_I__ZN4quan3uav3osd8get_fontEm+0x950>)
 800ecde:	4b8c      	ldr	r3, [pc, #560]	; (800ef10 <_GLOBAL__sub_I__ZN4quan3uav3osd8get_fontEm+0x954>)
 800ece0:	498c      	ldr	r1, [pc, #560]	; (800ef14 <_GLOBAL__sub_I__ZN4quan3uav3osd8get_fontEm+0x958>)
 800ece2:	6003      	str	r3, [r0, #0]
 800ece4:	4622      	mov	r2, r4
 800ece6:	f005 f92b 	bl	8013f40 <__aeabi_atexit>
 800ecea:	488b      	ldr	r0, [pc, #556]	; (800ef18 <_GLOBAL__sub_I__ZN4quan3uav3osd8get_fontEm+0x95c>)
 800ecec:	4b8b      	ldr	r3, [pc, #556]	; (800ef1c <_GLOBAL__sub_I__ZN4quan3uav3osd8get_fontEm+0x960>)
 800ecee:	498c      	ldr	r1, [pc, #560]	; (800ef20 <_GLOBAL__sub_I__ZN4quan3uav3osd8get_fontEm+0x964>)
 800ecf0:	6003      	str	r3, [r0, #0]
 800ecf2:	4622      	mov	r2, r4
 800ecf4:	f005 f924 	bl	8013f40 <__aeabi_atexit>
 800ecf8:	e114      	b.n	800ef24 <_GLOBAL__sub_I__ZN4quan3uav3osd8get_fontEm+0x968>
 800ecfa:	bf00      	nop
 800ecfc:	10000880 	.word	0x10000880
 800ed00:	080149e0 	.word	0x080149e0
 800ed04:	0800d8e5 	.word	0x0800d8e5
 800ed08:	10000960 	.word	0x10000960
 800ed0c:	08014e68 	.word	0x08014e68
 800ed10:	0800d8e1 	.word	0x0800d8e1
 800ed14:	10000984 	.word	0x10000984
 800ed18:	08015308 	.word	0x08015308
 800ed1c:	0800d8dd 	.word	0x0800d8dd
 800ed20:	100009b0 	.word	0x100009b0
 800ed24:	08015720 	.word	0x08015720
 800ed28:	0800d8d9 	.word	0x0800d8d9
 800ed2c:	10000944 	.word	0x10000944
 800ed30:	080164f8 	.word	0x080164f8
 800ed34:	0800d8d5 	.word	0x0800d8d5
 800ed38:	10000968 	.word	0x10000968
 800ed3c:	08016968 	.word	0x08016968
 800ed40:	0800d8d1 	.word	0x0800d8d1
 800ed44:	1000098c 	.word	0x1000098c
 800ed48:	08016d90 	.word	0x08016d90
 800ed4c:	0800d8cd 	.word	0x0800d8cd
 800ed50:	100009b8 	.word	0x100009b8
 800ed54:	080171c0 	.word	0x080171c0
 800ed58:	0800d8c9 	.word	0x0800d8c9
 800ed5c:	100009d8 	.word	0x100009d8
 800ed60:	08017548 	.word	0x08017548
 800ed64:	0800d8c5 	.word	0x0800d8c5
 800ed68:	100009fc 	.word	0x100009fc
 800ed6c:	08017838 	.word	0x08017838
 800ed70:	0800d8c1 	.word	0x0800d8c1
 800ed74:	10000a20 	.word	0x10000a20
 800ed78:	08017c30 	.word	0x08017c30
 800ed7c:	0800d8bd 	.word	0x0800d8bd
 800ed80:	10000a50 	.word	0x10000a50
 800ed84:	08018488 	.word	0x08018488
 800ed88:	0800d8b9 	.word	0x0800d8b9
 800ed8c:	10000a70 	.word	0x10000a70
 800ed90:	08018860 	.word	0x08018860
 800ed94:	0800d8b5 	.word	0x0800d8b5
 800ed98:	10000a90 	.word	0x10000a90
 800ed9c:	08018d18 	.word	0x08018d18
 800eda0:	0800d8b1 	.word	0x0800d8b1
 800eda4:	10000a24 	.word	0x10000a24
 800eda8:	08019b98 	.word	0x08019b98
 800edac:	0800d8ad 	.word	0x0800d8ad
 800edb0:	10000a54 	.word	0x10000a54
 800edb4:	08017868 	.word	0x08017868
 800edb8:	0800d8a9 	.word	0x0800d8a9
 800edbc:	10000ae4 	.word	0x10000ae4
 800edc0:	080150b8 	.word	0x080150b8
 800edc4:	0800d8a5 	.word	0x0800d8a5
 800edc8:	10000a94 	.word	0x10000a94
 800edcc:	08015498 	.word	0x08015498
 800edd0:	0800d8a1 	.word	0x0800d8a1
 800edd4:	10000aac 	.word	0x10000aac
 800edd8:	08015938 	.word	0x08015938
 800eddc:	0800d89d 	.word	0x0800d89d
 800ede0:	10000ad0 	.word	0x10000ad0
 800ede4:	08015d10 	.word	0x08015d10
 800ede8:	0800d899 	.word	0x0800d899
 800edec:	10000af4 	.word	0x10000af4
 800edf0:	08016108 	.word	0x08016108
 800edf4:	0800d895 	.word	0x0800d895
 800edf8:	10000b08 	.word	0x10000b08
 800edfc:	080163d0 	.word	0x080163d0
 800ee00:	0800d891 	.word	0x0800d891
 800ee04:	10000c48 	.word	0x10000c48
 800ee08:	080164a8 	.word	0x080164a8
 800ee0c:	0800d88d 	.word	0x0800d88d
 800ee10:	10000b44 	.word	0x10000b44
 800ee14:	08016be8 	.word	0x08016be8
 800ee18:	0800d889 	.word	0x0800d889
 800ee1c:	10000af8 	.word	0x10000af8
 800ee20:	08017a90 	.word	0x08017a90
 800ee24:	0800d885 	.word	0x0800d885
 800ee28:	10000b0c 	.word	0x10000b0c
 800ee2c:	08018228 	.word	0x08018228
 800ee30:	0800d881 	.word	0x0800d881
 800ee34:	10000b24 	.word	0x10000b24
 800ee38:	08018680 	.word	0x08018680
 800ee3c:	0800d87d 	.word	0x0800d87d
 800ee40:	10000b48 	.word	0x10000b48
 800ee44:	08018a38 	.word	0x08018a38
 800ee48:	0800d879 	.word	0x0800d879
 800ee4c:	10000b60 	.word	0x10000b60
 800ee50:	08018f08 	.word	0x08018f08
 800ee54:	0800d875 	.word	0x0800d875
 800ee58:	10000b7c 	.word	0x10000b7c
 800ee5c:	08019258 	.word	0x08019258
 800ee60:	0800d871 	.word	0x0800d871
 800ee64:	10000978 	.word	0x10000978
 800ee68:	08014990 	.word	0x08014990
 800ee6c:	0800d86d 	.word	0x0800d86d
 800ee70:	10000bbc 	.word	0x10000bbc
 800ee74:	08019a90 	.word	0x08019a90
 800ee78:	0800d869 	.word	0x0800d869
 800ee7c:	10000bdc 	.word	0x10000bdc
 800ee80:	08014b00 	.word	0x08014b00
 800ee84:	0800d865 	.word	0x0800d865
 800ee88:	10000c08 	.word	0x10000c08
 800ee8c:	08016938 	.word	0x08016938
 800ee90:	0800d861 	.word	0x0800d861
 800ee94:	10000ba0 	.word	0x10000ba0
 800ee98:	08015f10 	.word	0x08015f10
 800ee9c:	0800d85d 	.word	0x0800d85d
 800eea0:	10000bc0 	.word	0x10000bc0
 800eea4:	080161f0 	.word	0x080161f0
 800eea8:	0800d859 	.word	0x0800d859
 800eeac:	10000be4 	.word	0x10000be4
 800eeb0:	080165c8 	.word	0x080165c8
 800eeb4:	0800d855 	.word	0x0800d855
 800eeb8:	10000c0c 	.word	0x10000c0c
 800eebc:	08016a20 	.word	0x08016a20
 800eec0:	0800d851 	.word	0x0800d851
 800eec4:	10000c28 	.word	0x10000c28
 800eec8:	08016e80 	.word	0x08016e80
 800eecc:	0800d84d 	.word	0x0800d84d
 800eed0:	10000c44 	.word	0x10000c44
 800eed4:	080172d0 	.word	0x080172d0
 800eed8:	0800d849 	.word	0x0800d849
 800eedc:	10000c6c 	.word	0x10000c6c
 800eee0:	080175e8 	.word	0x080175e8
 800eee4:	0800d845 	.word	0x0800d845
 800eee8:	1000088c 	.word	0x1000088c
 800eeec:	080197d8 	.word	0x080197d8
 800eef0:	0800d841 	.word	0x0800d841
 800eef4:	100008ac 	.word	0x100008ac
 800eef8:	08019b10 	.word	0x08019b10
 800eefc:	0800d83d 	.word	0x0800d83d
 800ef00:	100008d8 	.word	0x100008d8
 800ef04:	08014b60 	.word	0x08014b60
 800ef08:	0800d839 	.word	0x0800d839
 800ef0c:	1000086c 	.word	0x1000086c
 800ef10:	08019408 	.word	0x08019408
 800ef14:	0800d835 	.word	0x0800d835
 800ef18:	10000890 	.word	0x10000890
 800ef1c:	08019840 	.word	0x08019840
 800ef20:	0800d831 	.word	0x0800d831
 800ef24:	48a1      	ldr	r0, [pc, #644]	; (800f1ac <_GLOBAL__sub_I__ZN4quan3uav3osd8get_fontEm+0xbf0>)
 800ef26:	4ba2      	ldr	r3, [pc, #648]	; (800f1b0 <_GLOBAL__sub_I__ZN4quan3uav3osd8get_fontEm+0xbf4>)
 800ef28:	49a2      	ldr	r1, [pc, #648]	; (800f1b4 <_GLOBAL__sub_I__ZN4quan3uav3osd8get_fontEm+0xbf8>)
 800ef2a:	6003      	str	r3, [r0, #0]
 800ef2c:	4622      	mov	r2, r4
 800ef2e:	f005 f807 	bl	8013f40 <__aeabi_atexit>
 800ef32:	48a1      	ldr	r0, [pc, #644]	; (800f1b8 <_GLOBAL__sub_I__ZN4quan3uav3osd8get_fontEm+0xbfc>)
 800ef34:	4ba1      	ldr	r3, [pc, #644]	; (800f1bc <_GLOBAL__sub_I__ZN4quan3uav3osd8get_fontEm+0xc00>)
 800ef36:	49a2      	ldr	r1, [pc, #648]	; (800f1c0 <_GLOBAL__sub_I__ZN4quan3uav3osd8get_fontEm+0xc04>)
 800ef38:	6003      	str	r3, [r0, #0]
 800ef3a:	4622      	mov	r2, r4
 800ef3c:	f005 f800 	bl	8013f40 <__aeabi_atexit>
 800ef40:	48a0      	ldr	r0, [pc, #640]	; (800f1c4 <_GLOBAL__sub_I__ZN4quan3uav3osd8get_fontEm+0xc08>)
 800ef42:	4ba1      	ldr	r3, [pc, #644]	; (800f1c8 <_GLOBAL__sub_I__ZN4quan3uav3osd8get_fontEm+0xc0c>)
 800ef44:	49a1      	ldr	r1, [pc, #644]	; (800f1cc <_GLOBAL__sub_I__ZN4quan3uav3osd8get_fontEm+0xc10>)
 800ef46:	6003      	str	r3, [r0, #0]
 800ef48:	4622      	mov	r2, r4
 800ef4a:	f004 fff9 	bl	8013f40 <__aeabi_atexit>
 800ef4e:	48a0      	ldr	r0, [pc, #640]	; (800f1d0 <_GLOBAL__sub_I__ZN4quan3uav3osd8get_fontEm+0xc14>)
 800ef50:	4ba0      	ldr	r3, [pc, #640]	; (800f1d4 <_GLOBAL__sub_I__ZN4quan3uav3osd8get_fontEm+0xc18>)
 800ef52:	49a1      	ldr	r1, [pc, #644]	; (800f1d8 <_GLOBAL__sub_I__ZN4quan3uav3osd8get_fontEm+0xc1c>)
 800ef54:	6003      	str	r3, [r0, #0]
 800ef56:	4622      	mov	r2, r4
 800ef58:	f004 fff2 	bl	8013f40 <__aeabi_atexit>
 800ef5c:	489f      	ldr	r0, [pc, #636]	; (800f1dc <_GLOBAL__sub_I__ZN4quan3uav3osd8get_fontEm+0xc20>)
 800ef5e:	4ba0      	ldr	r3, [pc, #640]	; (800f1e0 <_GLOBAL__sub_I__ZN4quan3uav3osd8get_fontEm+0xc24>)
 800ef60:	49a0      	ldr	r1, [pc, #640]	; (800f1e4 <_GLOBAL__sub_I__ZN4quan3uav3osd8get_fontEm+0xc28>)
 800ef62:	6003      	str	r3, [r0, #0]
 800ef64:	4622      	mov	r2, r4
 800ef66:	f004 ffeb 	bl	8013f40 <__aeabi_atexit>
 800ef6a:	489f      	ldr	r0, [pc, #636]	; (800f1e8 <_GLOBAL__sub_I__ZN4quan3uav3osd8get_fontEm+0xc2c>)
 800ef6c:	4b9f      	ldr	r3, [pc, #636]	; (800f1ec <_GLOBAL__sub_I__ZN4quan3uav3osd8get_fontEm+0xc30>)
 800ef6e:	49a0      	ldr	r1, [pc, #640]	; (800f1f0 <_GLOBAL__sub_I__ZN4quan3uav3osd8get_fontEm+0xc34>)
 800ef70:	6003      	str	r3, [r0, #0]
 800ef72:	4622      	mov	r2, r4
 800ef74:	f004 ffe4 	bl	8013f40 <__aeabi_atexit>
 800ef78:	489e      	ldr	r0, [pc, #632]	; (800f1f4 <_GLOBAL__sub_I__ZN4quan3uav3osd8get_fontEm+0xc38>)
 800ef7a:	4b9f      	ldr	r3, [pc, #636]	; (800f1f8 <_GLOBAL__sub_I__ZN4quan3uav3osd8get_fontEm+0xc3c>)
 800ef7c:	499f      	ldr	r1, [pc, #636]	; (800f1fc <_GLOBAL__sub_I__ZN4quan3uav3osd8get_fontEm+0xc40>)
 800ef7e:	6003      	str	r3, [r0, #0]
 800ef80:	4622      	mov	r2, r4
 800ef82:	f004 ffdd 	bl	8013f40 <__aeabi_atexit>
 800ef86:	489e      	ldr	r0, [pc, #632]	; (800f200 <_GLOBAL__sub_I__ZN4quan3uav3osd8get_fontEm+0xc44>)
 800ef88:	4b9e      	ldr	r3, [pc, #632]	; (800f204 <_GLOBAL__sub_I__ZN4quan3uav3osd8get_fontEm+0xc48>)
 800ef8a:	499f      	ldr	r1, [pc, #636]	; (800f208 <_GLOBAL__sub_I__ZN4quan3uav3osd8get_fontEm+0xc4c>)
 800ef8c:	6003      	str	r3, [r0, #0]
 800ef8e:	4622      	mov	r2, r4
 800ef90:	f004 ffd6 	bl	8013f40 <__aeabi_atexit>
 800ef94:	489d      	ldr	r0, [pc, #628]	; (800f20c <_GLOBAL__sub_I__ZN4quan3uav3osd8get_fontEm+0xc50>)
 800ef96:	4b9e      	ldr	r3, [pc, #632]	; (800f210 <_GLOBAL__sub_I__ZN4quan3uav3osd8get_fontEm+0xc54>)
 800ef98:	499e      	ldr	r1, [pc, #632]	; (800f214 <_GLOBAL__sub_I__ZN4quan3uav3osd8get_fontEm+0xc58>)
 800ef9a:	6003      	str	r3, [r0, #0]
 800ef9c:	4622      	mov	r2, r4
 800ef9e:	f004 ffcf 	bl	8013f40 <__aeabi_atexit>
 800efa2:	489d      	ldr	r0, [pc, #628]	; (800f218 <_GLOBAL__sub_I__ZN4quan3uav3osd8get_fontEm+0xc5c>)
 800efa4:	4b9d      	ldr	r3, [pc, #628]	; (800f21c <_GLOBAL__sub_I__ZN4quan3uav3osd8get_fontEm+0xc60>)
 800efa6:	499e      	ldr	r1, [pc, #632]	; (800f220 <_GLOBAL__sub_I__ZN4quan3uav3osd8get_fontEm+0xc64>)
 800efa8:	6003      	str	r3, [r0, #0]
 800efaa:	4622      	mov	r2, r4
 800efac:	f004 ffc8 	bl	8013f40 <__aeabi_atexit>
 800efb0:	489c      	ldr	r0, [pc, #624]	; (800f224 <_GLOBAL__sub_I__ZN4quan3uav3osd8get_fontEm+0xc68>)
 800efb2:	4b9d      	ldr	r3, [pc, #628]	; (800f228 <_GLOBAL__sub_I__ZN4quan3uav3osd8get_fontEm+0xc6c>)
 800efb4:	499d      	ldr	r1, [pc, #628]	; (800f22c <_GLOBAL__sub_I__ZN4quan3uav3osd8get_fontEm+0xc70>)
 800efb6:	6003      	str	r3, [r0, #0]
 800efb8:	4622      	mov	r2, r4
 800efba:	f004 ffc1 	bl	8013f40 <__aeabi_atexit>
 800efbe:	489c      	ldr	r0, [pc, #624]	; (800f230 <_GLOBAL__sub_I__ZN4quan3uav3osd8get_fontEm+0xc74>)
 800efc0:	4b9c      	ldr	r3, [pc, #624]	; (800f234 <_GLOBAL__sub_I__ZN4quan3uav3osd8get_fontEm+0xc78>)
 800efc2:	499d      	ldr	r1, [pc, #628]	; (800f238 <_GLOBAL__sub_I__ZN4quan3uav3osd8get_fontEm+0xc7c>)
 800efc4:	6003      	str	r3, [r0, #0]
 800efc6:	4622      	mov	r2, r4
 800efc8:	f004 ffba 	bl	8013f40 <__aeabi_atexit>
 800efcc:	489b      	ldr	r0, [pc, #620]	; (800f23c <_GLOBAL__sub_I__ZN4quan3uav3osd8get_fontEm+0xc80>)
 800efce:	4b9c      	ldr	r3, [pc, #624]	; (800f240 <_GLOBAL__sub_I__ZN4quan3uav3osd8get_fontEm+0xc84>)
 800efd0:	499c      	ldr	r1, [pc, #624]	; (800f244 <_GLOBAL__sub_I__ZN4quan3uav3osd8get_fontEm+0xc88>)
 800efd2:	6003      	str	r3, [r0, #0]
 800efd4:	4622      	mov	r2, r4
 800efd6:	f004 ffb3 	bl	8013f40 <__aeabi_atexit>
 800efda:	489b      	ldr	r0, [pc, #620]	; (800f248 <_GLOBAL__sub_I__ZN4quan3uav3osd8get_fontEm+0xc8c>)
 800efdc:	4b9b      	ldr	r3, [pc, #620]	; (800f24c <_GLOBAL__sub_I__ZN4quan3uav3osd8get_fontEm+0xc90>)
 800efde:	499c      	ldr	r1, [pc, #624]	; (800f250 <_GLOBAL__sub_I__ZN4quan3uav3osd8get_fontEm+0xc94>)
 800efe0:	6003      	str	r3, [r0, #0]
 800efe2:	4622      	mov	r2, r4
 800efe4:	f004 ffac 	bl	8013f40 <__aeabi_atexit>
 800efe8:	489a      	ldr	r0, [pc, #616]	; (800f254 <_GLOBAL__sub_I__ZN4quan3uav3osd8get_fontEm+0xc98>)
 800efea:	4b9b      	ldr	r3, [pc, #620]	; (800f258 <_GLOBAL__sub_I__ZN4quan3uav3osd8get_fontEm+0xc9c>)
 800efec:	499b      	ldr	r1, [pc, #620]	; (800f25c <_GLOBAL__sub_I__ZN4quan3uav3osd8get_fontEm+0xca0>)
 800efee:	6003      	str	r3, [r0, #0]
 800eff0:	4622      	mov	r2, r4
 800eff2:	f004 ffa5 	bl	8013f40 <__aeabi_atexit>
 800eff6:	489a      	ldr	r0, [pc, #616]	; (800f260 <_GLOBAL__sub_I__ZN4quan3uav3osd8get_fontEm+0xca4>)
 800eff8:	4b9a      	ldr	r3, [pc, #616]	; (800f264 <_GLOBAL__sub_I__ZN4quan3uav3osd8get_fontEm+0xca8>)
 800effa:	499b      	ldr	r1, [pc, #620]	; (800f268 <_GLOBAL__sub_I__ZN4quan3uav3osd8get_fontEm+0xcac>)
 800effc:	6003      	str	r3, [r0, #0]
 800effe:	4622      	mov	r2, r4
 800f000:	f004 ff9e 	bl	8013f40 <__aeabi_atexit>
 800f004:	4899      	ldr	r0, [pc, #612]	; (800f26c <_GLOBAL__sub_I__ZN4quan3uav3osd8get_fontEm+0xcb0>)
 800f006:	4b9a      	ldr	r3, [pc, #616]	; (800f270 <_GLOBAL__sub_I__ZN4quan3uav3osd8get_fontEm+0xcb4>)
 800f008:	499a      	ldr	r1, [pc, #616]	; (800f274 <_GLOBAL__sub_I__ZN4quan3uav3osd8get_fontEm+0xcb8>)
 800f00a:	6003      	str	r3, [r0, #0]
 800f00c:	4622      	mov	r2, r4
 800f00e:	f004 ff97 	bl	8013f40 <__aeabi_atexit>
 800f012:	4899      	ldr	r0, [pc, #612]	; (800f278 <_GLOBAL__sub_I__ZN4quan3uav3osd8get_fontEm+0xcbc>)
 800f014:	4b99      	ldr	r3, [pc, #612]	; (800f27c <_GLOBAL__sub_I__ZN4quan3uav3osd8get_fontEm+0xcc0>)
 800f016:	499a      	ldr	r1, [pc, #616]	; (800f280 <_GLOBAL__sub_I__ZN4quan3uav3osd8get_fontEm+0xcc4>)
 800f018:	6003      	str	r3, [r0, #0]
 800f01a:	4622      	mov	r2, r4
 800f01c:	f004 ff90 	bl	8013f40 <__aeabi_atexit>
 800f020:	4898      	ldr	r0, [pc, #608]	; (800f284 <_GLOBAL__sub_I__ZN4quan3uav3osd8get_fontEm+0xcc8>)
 800f022:	4b99      	ldr	r3, [pc, #612]	; (800f288 <_GLOBAL__sub_I__ZN4quan3uav3osd8get_fontEm+0xccc>)
 800f024:	4999      	ldr	r1, [pc, #612]	; (800f28c <_GLOBAL__sub_I__ZN4quan3uav3osd8get_fontEm+0xcd0>)
 800f026:	6003      	str	r3, [r0, #0]
 800f028:	4622      	mov	r2, r4
 800f02a:	f004 ff89 	bl	8013f40 <__aeabi_atexit>
 800f02e:	4898      	ldr	r0, [pc, #608]	; (800f290 <_GLOBAL__sub_I__ZN4quan3uav3osd8get_fontEm+0xcd4>)
 800f030:	4b98      	ldr	r3, [pc, #608]	; (800f294 <_GLOBAL__sub_I__ZN4quan3uav3osd8get_fontEm+0xcd8>)
 800f032:	4999      	ldr	r1, [pc, #612]	; (800f298 <_GLOBAL__sub_I__ZN4quan3uav3osd8get_fontEm+0xcdc>)
 800f034:	6003      	str	r3, [r0, #0]
 800f036:	4622      	mov	r2, r4
 800f038:	f004 ff82 	bl	8013f40 <__aeabi_atexit>
 800f03c:	4897      	ldr	r0, [pc, #604]	; (800f29c <_GLOBAL__sub_I__ZN4quan3uav3osd8get_fontEm+0xce0>)
 800f03e:	4b98      	ldr	r3, [pc, #608]	; (800f2a0 <_GLOBAL__sub_I__ZN4quan3uav3osd8get_fontEm+0xce4>)
 800f040:	4998      	ldr	r1, [pc, #608]	; (800f2a4 <_GLOBAL__sub_I__ZN4quan3uav3osd8get_fontEm+0xce8>)
 800f042:	6003      	str	r3, [r0, #0]
 800f044:	4622      	mov	r2, r4
 800f046:	f004 ff7b 	bl	8013f40 <__aeabi_atexit>
 800f04a:	4897      	ldr	r0, [pc, #604]	; (800f2a8 <_GLOBAL__sub_I__ZN4quan3uav3osd8get_fontEm+0xcec>)
 800f04c:	4b97      	ldr	r3, [pc, #604]	; (800f2ac <_GLOBAL__sub_I__ZN4quan3uav3osd8get_fontEm+0xcf0>)
 800f04e:	4998      	ldr	r1, [pc, #608]	; (800f2b0 <_GLOBAL__sub_I__ZN4quan3uav3osd8get_fontEm+0xcf4>)
 800f050:	6003      	str	r3, [r0, #0]
 800f052:	4622      	mov	r2, r4
 800f054:	f004 ff74 	bl	8013f40 <__aeabi_atexit>
 800f058:	4896      	ldr	r0, [pc, #600]	; (800f2b4 <_GLOBAL__sub_I__ZN4quan3uav3osd8get_fontEm+0xcf8>)
 800f05a:	4b97      	ldr	r3, [pc, #604]	; (800f2b8 <_GLOBAL__sub_I__ZN4quan3uav3osd8get_fontEm+0xcfc>)
 800f05c:	4997      	ldr	r1, [pc, #604]	; (800f2bc <_GLOBAL__sub_I__ZN4quan3uav3osd8get_fontEm+0xd00>)
 800f05e:	6003      	str	r3, [r0, #0]
 800f060:	4622      	mov	r2, r4
 800f062:	f004 ff6d 	bl	8013f40 <__aeabi_atexit>
 800f066:	4896      	ldr	r0, [pc, #600]	; (800f2c0 <_GLOBAL__sub_I__ZN4quan3uav3osd8get_fontEm+0xd04>)
 800f068:	4b96      	ldr	r3, [pc, #600]	; (800f2c4 <_GLOBAL__sub_I__ZN4quan3uav3osd8get_fontEm+0xd08>)
 800f06a:	4997      	ldr	r1, [pc, #604]	; (800f2c8 <_GLOBAL__sub_I__ZN4quan3uav3osd8get_fontEm+0xd0c>)
 800f06c:	6003      	str	r3, [r0, #0]
 800f06e:	4622      	mov	r2, r4
 800f070:	f004 ff66 	bl	8013f40 <__aeabi_atexit>
 800f074:	4895      	ldr	r0, [pc, #596]	; (800f2cc <_GLOBAL__sub_I__ZN4quan3uav3osd8get_fontEm+0xd10>)
 800f076:	4b96      	ldr	r3, [pc, #600]	; (800f2d0 <_GLOBAL__sub_I__ZN4quan3uav3osd8get_fontEm+0xd14>)
 800f078:	4996      	ldr	r1, [pc, #600]	; (800f2d4 <_GLOBAL__sub_I__ZN4quan3uav3osd8get_fontEm+0xd18>)
 800f07a:	6003      	str	r3, [r0, #0]
 800f07c:	4622      	mov	r2, r4
 800f07e:	f004 ff5f 	bl	8013f40 <__aeabi_atexit>
 800f082:	4895      	ldr	r0, [pc, #596]	; (800f2d8 <_GLOBAL__sub_I__ZN4quan3uav3osd8get_fontEm+0xd1c>)
 800f084:	4b95      	ldr	r3, [pc, #596]	; (800f2dc <_GLOBAL__sub_I__ZN4quan3uav3osd8get_fontEm+0xd20>)
 800f086:	4996      	ldr	r1, [pc, #600]	; (800f2e0 <_GLOBAL__sub_I__ZN4quan3uav3osd8get_fontEm+0xd24>)
 800f088:	6003      	str	r3, [r0, #0]
 800f08a:	4622      	mov	r2, r4
 800f08c:	f004 ff58 	bl	8013f40 <__aeabi_atexit>
 800f090:	4894      	ldr	r0, [pc, #592]	; (800f2e4 <_GLOBAL__sub_I__ZN4quan3uav3osd8get_fontEm+0xd28>)
 800f092:	4b95      	ldr	r3, [pc, #596]	; (800f2e8 <_GLOBAL__sub_I__ZN4quan3uav3osd8get_fontEm+0xd2c>)
 800f094:	4995      	ldr	r1, [pc, #596]	; (800f2ec <_GLOBAL__sub_I__ZN4quan3uav3osd8get_fontEm+0xd30>)
 800f096:	6003      	str	r3, [r0, #0]
 800f098:	4622      	mov	r2, r4
 800f09a:	f004 ff51 	bl	8013f40 <__aeabi_atexit>
 800f09e:	4894      	ldr	r0, [pc, #592]	; (800f2f0 <_GLOBAL__sub_I__ZN4quan3uav3osd8get_fontEm+0xd34>)
 800f0a0:	4b94      	ldr	r3, [pc, #592]	; (800f2f4 <_GLOBAL__sub_I__ZN4quan3uav3osd8get_fontEm+0xd38>)
 800f0a2:	4995      	ldr	r1, [pc, #596]	; (800f2f8 <_GLOBAL__sub_I__ZN4quan3uav3osd8get_fontEm+0xd3c>)
 800f0a4:	6003      	str	r3, [r0, #0]
 800f0a6:	4622      	mov	r2, r4
 800f0a8:	f004 ff4a 	bl	8013f40 <__aeabi_atexit>
 800f0ac:	4893      	ldr	r0, [pc, #588]	; (800f2fc <_GLOBAL__sub_I__ZN4quan3uav3osd8get_fontEm+0xd40>)
 800f0ae:	4b94      	ldr	r3, [pc, #592]	; (800f300 <_GLOBAL__sub_I__ZN4quan3uav3osd8get_fontEm+0xd44>)
 800f0b0:	4994      	ldr	r1, [pc, #592]	; (800f304 <_GLOBAL__sub_I__ZN4quan3uav3osd8get_fontEm+0xd48>)
 800f0b2:	6003      	str	r3, [r0, #0]
 800f0b4:	4622      	mov	r2, r4
 800f0b6:	f004 ff43 	bl	8013f40 <__aeabi_atexit>
 800f0ba:	4893      	ldr	r0, [pc, #588]	; (800f308 <_GLOBAL__sub_I__ZN4quan3uav3osd8get_fontEm+0xd4c>)
 800f0bc:	4b93      	ldr	r3, [pc, #588]	; (800f30c <_GLOBAL__sub_I__ZN4quan3uav3osd8get_fontEm+0xd50>)
 800f0be:	4994      	ldr	r1, [pc, #592]	; (800f310 <_GLOBAL__sub_I__ZN4quan3uav3osd8get_fontEm+0xd54>)
 800f0c0:	6003      	str	r3, [r0, #0]
 800f0c2:	4622      	mov	r2, r4
 800f0c4:	f004 ff3c 	bl	8013f40 <__aeabi_atexit>
 800f0c8:	4892      	ldr	r0, [pc, #584]	; (800f314 <_GLOBAL__sub_I__ZN4quan3uav3osd8get_fontEm+0xd58>)
 800f0ca:	4b93      	ldr	r3, [pc, #588]	; (800f318 <_GLOBAL__sub_I__ZN4quan3uav3osd8get_fontEm+0xd5c>)
 800f0cc:	4993      	ldr	r1, [pc, #588]	; (800f31c <_GLOBAL__sub_I__ZN4quan3uav3osd8get_fontEm+0xd60>)
 800f0ce:	6003      	str	r3, [r0, #0]
 800f0d0:	4622      	mov	r2, r4
 800f0d2:	f004 ff35 	bl	8013f40 <__aeabi_atexit>
 800f0d6:	4892      	ldr	r0, [pc, #584]	; (800f320 <_GLOBAL__sub_I__ZN4quan3uav3osd8get_fontEm+0xd64>)
 800f0d8:	4b92      	ldr	r3, [pc, #584]	; (800f324 <_GLOBAL__sub_I__ZN4quan3uav3osd8get_fontEm+0xd68>)
 800f0da:	4993      	ldr	r1, [pc, #588]	; (800f328 <_GLOBAL__sub_I__ZN4quan3uav3osd8get_fontEm+0xd6c>)
 800f0dc:	6003      	str	r3, [r0, #0]
 800f0de:	4622      	mov	r2, r4
 800f0e0:	f004 ff2e 	bl	8013f40 <__aeabi_atexit>
 800f0e4:	4891      	ldr	r0, [pc, #580]	; (800f32c <_GLOBAL__sub_I__ZN4quan3uav3osd8get_fontEm+0xd70>)
 800f0e6:	4b92      	ldr	r3, [pc, #584]	; (800f330 <_GLOBAL__sub_I__ZN4quan3uav3osd8get_fontEm+0xd74>)
 800f0e8:	4992      	ldr	r1, [pc, #584]	; (800f334 <_GLOBAL__sub_I__ZN4quan3uav3osd8get_fontEm+0xd78>)
 800f0ea:	6003      	str	r3, [r0, #0]
 800f0ec:	4622      	mov	r2, r4
 800f0ee:	f004 ff27 	bl	8013f40 <__aeabi_atexit>
 800f0f2:	4891      	ldr	r0, [pc, #580]	; (800f338 <_GLOBAL__sub_I__ZN4quan3uav3osd8get_fontEm+0xd7c>)
 800f0f4:	4b91      	ldr	r3, [pc, #580]	; (800f33c <_GLOBAL__sub_I__ZN4quan3uav3osd8get_fontEm+0xd80>)
 800f0f6:	4992      	ldr	r1, [pc, #584]	; (800f340 <_GLOBAL__sub_I__ZN4quan3uav3osd8get_fontEm+0xd84>)
 800f0f8:	6003      	str	r3, [r0, #0]
 800f0fa:	4622      	mov	r2, r4
 800f0fc:	f004 ff20 	bl	8013f40 <__aeabi_atexit>
 800f100:	4890      	ldr	r0, [pc, #576]	; (800f344 <_GLOBAL__sub_I__ZN4quan3uav3osd8get_fontEm+0xd88>)
 800f102:	4b91      	ldr	r3, [pc, #580]	; (800f348 <_GLOBAL__sub_I__ZN4quan3uav3osd8get_fontEm+0xd8c>)
 800f104:	4991      	ldr	r1, [pc, #580]	; (800f34c <_GLOBAL__sub_I__ZN4quan3uav3osd8get_fontEm+0xd90>)
 800f106:	6003      	str	r3, [r0, #0]
 800f108:	4622      	mov	r2, r4
 800f10a:	f004 ff19 	bl	8013f40 <__aeabi_atexit>
 800f10e:	4890      	ldr	r0, [pc, #576]	; (800f350 <_GLOBAL__sub_I__ZN4quan3uav3osd8get_fontEm+0xd94>)
 800f110:	4b90      	ldr	r3, [pc, #576]	; (800f354 <_GLOBAL__sub_I__ZN4quan3uav3osd8get_fontEm+0xd98>)
 800f112:	4991      	ldr	r1, [pc, #580]	; (800f358 <_GLOBAL__sub_I__ZN4quan3uav3osd8get_fontEm+0xd9c>)
 800f114:	6003      	str	r3, [r0, #0]
 800f116:	4622      	mov	r2, r4
 800f118:	f004 ff12 	bl	8013f40 <__aeabi_atexit>
 800f11c:	488f      	ldr	r0, [pc, #572]	; (800f35c <_GLOBAL__sub_I__ZN4quan3uav3osd8get_fontEm+0xda0>)
 800f11e:	4b90      	ldr	r3, [pc, #576]	; (800f360 <_GLOBAL__sub_I__ZN4quan3uav3osd8get_fontEm+0xda4>)
 800f120:	4990      	ldr	r1, [pc, #576]	; (800f364 <_GLOBAL__sub_I__ZN4quan3uav3osd8get_fontEm+0xda8>)
 800f122:	6003      	str	r3, [r0, #0]
 800f124:	4622      	mov	r2, r4
 800f126:	f004 ff0b 	bl	8013f40 <__aeabi_atexit>
 800f12a:	488f      	ldr	r0, [pc, #572]	; (800f368 <_GLOBAL__sub_I__ZN4quan3uav3osd8get_fontEm+0xdac>)
 800f12c:	4b8f      	ldr	r3, [pc, #572]	; (800f36c <_GLOBAL__sub_I__ZN4quan3uav3osd8get_fontEm+0xdb0>)
 800f12e:	4990      	ldr	r1, [pc, #576]	; (800f370 <_GLOBAL__sub_I__ZN4quan3uav3osd8get_fontEm+0xdb4>)
 800f130:	6003      	str	r3, [r0, #0]
 800f132:	4622      	mov	r2, r4
 800f134:	f004 ff04 	bl	8013f40 <__aeabi_atexit>
 800f138:	488e      	ldr	r0, [pc, #568]	; (800f374 <_GLOBAL__sub_I__ZN4quan3uav3osd8get_fontEm+0xdb8>)
 800f13a:	4b8f      	ldr	r3, [pc, #572]	; (800f378 <_GLOBAL__sub_I__ZN4quan3uav3osd8get_fontEm+0xdbc>)
 800f13c:	498f      	ldr	r1, [pc, #572]	; (800f37c <_GLOBAL__sub_I__ZN4quan3uav3osd8get_fontEm+0xdc0>)
 800f13e:	6003      	str	r3, [r0, #0]
 800f140:	4622      	mov	r2, r4
 800f142:	f004 fefd 	bl	8013f40 <__aeabi_atexit>
 800f146:	488e      	ldr	r0, [pc, #568]	; (800f380 <_GLOBAL__sub_I__ZN4quan3uav3osd8get_fontEm+0xdc4>)
 800f148:	4b8e      	ldr	r3, [pc, #568]	; (800f384 <_GLOBAL__sub_I__ZN4quan3uav3osd8get_fontEm+0xdc8>)
 800f14a:	498f      	ldr	r1, [pc, #572]	; (800f388 <_GLOBAL__sub_I__ZN4quan3uav3osd8get_fontEm+0xdcc>)
 800f14c:	6003      	str	r3, [r0, #0]
 800f14e:	4622      	mov	r2, r4
 800f150:	f004 fef6 	bl	8013f40 <__aeabi_atexit>
 800f154:	488d      	ldr	r0, [pc, #564]	; (800f38c <_GLOBAL__sub_I__ZN4quan3uav3osd8get_fontEm+0xdd0>)
 800f156:	4b8e      	ldr	r3, [pc, #568]	; (800f390 <_GLOBAL__sub_I__ZN4quan3uav3osd8get_fontEm+0xdd4>)
 800f158:	498e      	ldr	r1, [pc, #568]	; (800f394 <_GLOBAL__sub_I__ZN4quan3uav3osd8get_fontEm+0xdd8>)
 800f15a:	6003      	str	r3, [r0, #0]
 800f15c:	4622      	mov	r2, r4
 800f15e:	f004 feef 	bl	8013f40 <__aeabi_atexit>
 800f162:	488d      	ldr	r0, [pc, #564]	; (800f398 <_GLOBAL__sub_I__ZN4quan3uav3osd8get_fontEm+0xddc>)
 800f164:	4b8d      	ldr	r3, [pc, #564]	; (800f39c <_GLOBAL__sub_I__ZN4quan3uav3osd8get_fontEm+0xde0>)
 800f166:	498e      	ldr	r1, [pc, #568]	; (800f3a0 <_GLOBAL__sub_I__ZN4quan3uav3osd8get_fontEm+0xde4>)
 800f168:	6003      	str	r3, [r0, #0]
 800f16a:	4622      	mov	r2, r4
 800f16c:	f004 fee8 	bl	8013f40 <__aeabi_atexit>
 800f170:	488c      	ldr	r0, [pc, #560]	; (800f3a4 <_GLOBAL__sub_I__ZN4quan3uav3osd8get_fontEm+0xde8>)
 800f172:	4b8d      	ldr	r3, [pc, #564]	; (800f3a8 <_GLOBAL__sub_I__ZN4quan3uav3osd8get_fontEm+0xdec>)
 800f174:	498d      	ldr	r1, [pc, #564]	; (800f3ac <_GLOBAL__sub_I__ZN4quan3uav3osd8get_fontEm+0xdf0>)
 800f176:	6003      	str	r3, [r0, #0]
 800f178:	4622      	mov	r2, r4
 800f17a:	f004 fee1 	bl	8013f40 <__aeabi_atexit>
 800f17e:	488c      	ldr	r0, [pc, #560]	; (800f3b0 <_GLOBAL__sub_I__ZN4quan3uav3osd8get_fontEm+0xdf4>)
 800f180:	4b8c      	ldr	r3, [pc, #560]	; (800f3b4 <_GLOBAL__sub_I__ZN4quan3uav3osd8get_fontEm+0xdf8>)
 800f182:	498d      	ldr	r1, [pc, #564]	; (800f3b8 <_GLOBAL__sub_I__ZN4quan3uav3osd8get_fontEm+0xdfc>)
 800f184:	6003      	str	r3, [r0, #0]
 800f186:	4622      	mov	r2, r4
 800f188:	f004 feda 	bl	8013f40 <__aeabi_atexit>
 800f18c:	488b      	ldr	r0, [pc, #556]	; (800f3bc <_GLOBAL__sub_I__ZN4quan3uav3osd8get_fontEm+0xe00>)
 800f18e:	4b8c      	ldr	r3, [pc, #560]	; (800f3c0 <_GLOBAL__sub_I__ZN4quan3uav3osd8get_fontEm+0xe04>)
 800f190:	498c      	ldr	r1, [pc, #560]	; (800f3c4 <_GLOBAL__sub_I__ZN4quan3uav3osd8get_fontEm+0xe08>)
 800f192:	6003      	str	r3, [r0, #0]
 800f194:	4622      	mov	r2, r4
 800f196:	f004 fed3 	bl	8013f40 <__aeabi_atexit>
 800f19a:	488b      	ldr	r0, [pc, #556]	; (800f3c8 <_GLOBAL__sub_I__ZN4quan3uav3osd8get_fontEm+0xe0c>)
 800f19c:	4b8b      	ldr	r3, [pc, #556]	; (800f3cc <_GLOBAL__sub_I__ZN4quan3uav3osd8get_fontEm+0xe10>)
 800f19e:	498c      	ldr	r1, [pc, #560]	; (800f3d0 <_GLOBAL__sub_I__ZN4quan3uav3osd8get_fontEm+0xe14>)
 800f1a0:	6003      	str	r3, [r0, #0]
 800f1a2:	4622      	mov	r2, r4
 800f1a4:	f004 fecc 	bl	8013f40 <__aeabi_atexit>
 800f1a8:	e114      	b.n	800f3d4 <_GLOBAL__sub_I__ZN4quan3uav3osd8get_fontEm+0xe18>
 800f1aa:	bf00      	nop
 800f1ac:	100008b4 	.word	0x100008b4
 800f1b0:	08019ce0 	.word	0x08019ce0
 800f1b4:	0800d82d 	.word	0x0800d82d
 800f1b8:	100008e0 	.word	0x100008e0
 800f1bc:	08014d98 	.word	0x08014d98
 800f1c0:	0800d829 	.word	0x0800d829
 800f1c4:	10000c1c 	.word	0x10000c1c
 800f1c8:	08015150 	.word	0x08015150
 800f1cc:	0800d825 	.word	0x0800d825
 800f1d0:	10000920 	.word	0x10000920
 800f1d4:	08016f00 	.word	0x08016f00
 800f1d8:	0800d821 	.word	0x0800d821
 800f1dc:	1000094c 	.word	0x1000094c
 800f1e0:	08017350 	.word	0x08017350
 800f1e4:	0800d81d 	.word	0x0800d81d
 800f1e8:	10000970 	.word	0x10000970
 800f1ec:	08015370 	.word	0x08015370
 800f1f0:	0800d819 	.word	0x0800d819
 800f1f4:	10000994 	.word	0x10000994
 800f1f8:	080166f0 	.word	0x080166f0
 800f1fc:	0800d815 	.word	0x0800d815
 800f200:	100009c0 	.word	0x100009c0
 800f204:	080181c0 	.word	0x080181c0
 800f208:	0800d811 	.word	0x0800d811
 800f20c:	10000be0 	.word	0x10000be0
 800f210:	08017438 	.word	0x08017438
 800f214:	0800d80d 	.word	0x0800d80d
 800f218:	10000c58 	.word	0x10000c58
 800f21c:	08017798 	.word	0x08017798
 800f220:	0800d809 	.word	0x0800d809
 800f224:	10000c24 	.word	0x10000c24
 800f228:	08017b10 	.word	0x08017b10
 800f22c:	0800d805 	.word	0x0800d805
 800f230:	10000c40 	.word	0x10000c40
 800f234:	08018350 	.word	0x08018350
 800f238:	0800d801 	.word	0x0800d801
 800f23c:	10000c68 	.word	0x10000c68
 800f240:	08018700 	.word	0x08018700
 800f244:	0800d7fd 	.word	0x0800d7fd
 800f248:	10000888 	.word	0x10000888
 800f24c:	08018158 	.word	0x08018158
 800f250:	0800d7f9 	.word	0x0800d7f9
 800f254:	100008a8 	.word	0x100008a8
 800f258:	080156b8 	.word	0x080156b8
 800f25c:	0800d7f5 	.word	0x0800d7f5
 800f260:	100008d4 	.word	0x100008d4
 800f264:	08015a58 	.word	0x08015a58
 800f268:	0800d7f1 	.word	0x0800d7f1
 800f26c:	100008f8 	.word	0x100008f8
 800f270:	08016bd0 	.word	0x08016bd0
 800f274:	0800d7ed 	.word	0x0800d7ed
 800f278:	10000918 	.word	0x10000918
 800f27c:	080161c0 	.word	0x080161c0
 800f280:	0800d7e9 	.word	0x0800d7e9
 800f284:	100008b0 	.word	0x100008b0
 800f288:	08014e18 	.word	0x08014e18
 800f28c:	0800d7e5 	.word	0x0800d7e5
 800f290:	100008dc 	.word	0x100008dc
 800f294:	08015c58 	.word	0x08015c58
 800f298:	0800d7e1 	.word	0x0800d7e1
 800f29c:	100008fc 	.word	0x100008fc
 800f2a0:	08015f90 	.word	0x08015f90
 800f2a4:	0800d7dd 	.word	0x0800d7dd
 800f2a8:	1000091c 	.word	0x1000091c
 800f2ac:	08017be0 	.word	0x08017be0
 800f2b0:	0800d7d9 	.word	0x0800d7d9
 800f2b4:	10000948 	.word	0x10000948
 800f2b8:	08018438 	.word	0x08018438
 800f2bc:	0800d7d5 	.word	0x0800d7d5
 800f2c0:	1000096c 	.word	0x1000096c
 800f2c4:	08018fd8 	.word	0x08018fd8
 800f2c8:	0800d7d1 	.word	0x0800d7d1
 800f2cc:	10000990 	.word	0x10000990
 800f2d0:	08016950 	.word	0x08016950
 800f2d4:	0800d7cd 	.word	0x0800d7cd
 800f2d8:	100009bc 	.word	0x100009bc
 800f2dc:	08016510 	.word	0x08016510
 800f2e0:	0800d7c9 	.word	0x0800d7c9
 800f2e4:	100009dc 	.word	0x100009dc
 800f2e8:	080193d8 	.word	0x080193d8
 800f2ec:	0800d7c5 	.word	0x0800d7c5
 800f2f0:	10000a00 	.word	0x10000a00
 800f2f4:	080197f0 	.word	0x080197f0
 800f2f8:	0800d7c1 	.word	0x0800d7c1
 800f2fc:	1000099c 	.word	0x1000099c
 800f300:	08015d40 	.word	0x08015d40
 800f304:	0800d7bd 	.word	0x0800d7bd
 800f308:	100009c4 	.word	0x100009c4
 800f30c:	08015840 	.word	0x08015840
 800f310:	0800d7b9 	.word	0x0800d7b9
 800f314:	100009e0 	.word	0x100009e0
 800f318:	08015cc0 	.word	0x08015cc0
 800f31c:	0800d7b5 	.word	0x0800d7b5
 800f320:	10000a08 	.word	0x10000a08
 800f324:	08016080 	.word	0x08016080
 800f328:	0800d7b1 	.word	0x0800d7b1
 800f32c:	10000a2c 	.word	0x10000a2c
 800f330:	080163b8 	.word	0x080163b8
 800f334:	0800d7ad 	.word	0x0800d7ad
 800f338:	1000089c 	.word	0x1000089c
 800f33c:	080167a8 	.word	0x080167a8
 800f340:	0800d7a9 	.word	0x0800d7a9
 800f344:	10000a74 	.word	0x10000a74
 800f348:	08015fa8 	.word	0x08015fa8
 800f34c:	0800d7a5 	.word	0x0800d7a5
 800f350:	10000a98 	.word	0x10000a98
 800f354:	08017050 	.word	0x08017050
 800f358:	0800d7a1 	.word	0x0800d7a1
 800f35c:	10000ab0 	.word	0x10000ab0
 800f360:	08017408 	.word	0x08017408
 800f364:	0800d79d 	.word	0x0800d79d
 800f368:	10000ad4 	.word	0x10000ad4
 800f36c:	08014cd8 	.word	0x08014cd8
 800f370:	0800d799 	.word	0x0800d799
 800f374:	100008f4 	.word	0x100008f4
 800f378:	08018978 	.word	0x08018978
 800f37c:	0800d795 	.word	0x0800d795
 800f380:	1000093c 	.word	0x1000093c
 800f384:	08018e68 	.word	0x08018e68
 800f388:	0800d791 	.word	0x0800d791
 800f38c:	10000a48 	.word	0x10000a48
 800f390:	08019208 	.word	0x08019208
 800f394:	0800d78d 	.word	0x0800d78d
 800f398:	10000adc 	.word	0x10000adc
 800f39c:	080195d8 	.word	0x080195d8
 800f3a0:	0800d789 	.word	0x0800d789
 800f3a4:	10000b00 	.word	0x10000b00
 800f3a8:	080199b8 	.word	0x080199b8
 800f3ac:	0800d785 	.word	0x0800d785
 800f3b0:	10000b14 	.word	0x10000b14
 800f3b4:	08014a48 	.word	0x08014a48
 800f3b8:	0800d781 	.word	0x0800d781
 800f3bc:	10000b2c 	.word	0x10000b2c
 800f3c0:	08016d78 	.word	0x08016d78
 800f3c4:	0800d77d 	.word	0x0800d77d
 800f3c8:	10000b4c 	.word	0x10000b4c
 800f3cc:	08018540 	.word	0x08018540
 800f3d0:	0800d779 	.word	0x0800d779
 800f3d4:	48a1      	ldr	r0, [pc, #644]	; (800f65c <_GLOBAL__sub_I__ZN4quan3uav3osd8get_fontEm+0x10a0>)
 800f3d6:	4ba2      	ldr	r3, [pc, #648]	; (800f660 <_GLOBAL__sub_I__ZN4quan3uav3osd8get_fontEm+0x10a4>)
 800f3d8:	49a2      	ldr	r1, [pc, #648]	; (800f664 <_GLOBAL__sub_I__ZN4quan3uav3osd8get_fontEm+0x10a8>)
 800f3da:	6003      	str	r3, [r0, #0]
 800f3dc:	4622      	mov	r2, r4
 800f3de:	f004 fdaf 	bl	8013f40 <__aeabi_atexit>
 800f3e2:	48a1      	ldr	r0, [pc, #644]	; (800f668 <_GLOBAL__sub_I__ZN4quan3uav3osd8get_fontEm+0x10ac>)
 800f3e4:	4ba1      	ldr	r3, [pc, #644]	; (800f66c <_GLOBAL__sub_I__ZN4quan3uav3osd8get_fontEm+0x10b0>)
 800f3e6:	49a2      	ldr	r1, [pc, #648]	; (800f670 <_GLOBAL__sub_I__ZN4quan3uav3osd8get_fontEm+0x10b4>)
 800f3e8:	6003      	str	r3, [r0, #0]
 800f3ea:	4622      	mov	r2, r4
 800f3ec:	f004 fda8 	bl	8013f40 <__aeabi_atexit>
 800f3f0:	48a0      	ldr	r0, [pc, #640]	; (800f674 <_GLOBAL__sub_I__ZN4quan3uav3osd8get_fontEm+0x10b8>)
 800f3f2:	4ba1      	ldr	r3, [pc, #644]	; (800f678 <_GLOBAL__sub_I__ZN4quan3uav3osd8get_fontEm+0x10bc>)
 800f3f4:	49a1      	ldr	r1, [pc, #644]	; (800f67c <_GLOBAL__sub_I__ZN4quan3uav3osd8get_fontEm+0x10c0>)
 800f3f6:	6003      	str	r3, [r0, #0]
 800f3f8:	4622      	mov	r2, r4
 800f3fa:	f004 fda1 	bl	8013f40 <__aeabi_atexit>
 800f3fe:	48a0      	ldr	r0, [pc, #640]	; (800f680 <_GLOBAL__sub_I__ZN4quan3uav3osd8get_fontEm+0x10c4>)
 800f400:	4ba0      	ldr	r3, [pc, #640]	; (800f684 <_GLOBAL__sub_I__ZN4quan3uav3osd8get_fontEm+0x10c8>)
 800f402:	49a1      	ldr	r1, [pc, #644]	; (800f688 <_GLOBAL__sub_I__ZN4quan3uav3osd8get_fontEm+0x10cc>)
 800f404:	6003      	str	r3, [r0, #0]
 800f406:	4622      	mov	r2, r4
 800f408:	f004 fd9a 	bl	8013f40 <__aeabi_atexit>
 800f40c:	489f      	ldr	r0, [pc, #636]	; (800f68c <_GLOBAL__sub_I__ZN4quan3uav3osd8get_fontEm+0x10d0>)
 800f40e:	4ba0      	ldr	r3, [pc, #640]	; (800f690 <_GLOBAL__sub_I__ZN4quan3uav3osd8get_fontEm+0x10d4>)
 800f410:	49a0      	ldr	r1, [pc, #640]	; (800f694 <_GLOBAL__sub_I__ZN4quan3uav3osd8get_fontEm+0x10d8>)
 800f412:	6003      	str	r3, [r0, #0]
 800f414:	4622      	mov	r2, r4
 800f416:	f004 fd93 	bl	8013f40 <__aeabi_atexit>
 800f41a:	489f      	ldr	r0, [pc, #636]	; (800f698 <_GLOBAL__sub_I__ZN4quan3uav3osd8get_fontEm+0x10dc>)
 800f41c:	4b9f      	ldr	r3, [pc, #636]	; (800f69c <_GLOBAL__sub_I__ZN4quan3uav3osd8get_fontEm+0x10e0>)
 800f41e:	49a0      	ldr	r1, [pc, #640]	; (800f6a0 <_GLOBAL__sub_I__ZN4quan3uav3osd8get_fontEm+0x10e4>)
 800f420:	6003      	str	r3, [r0, #0]
 800f422:	4622      	mov	r2, r4
 800f424:	f004 fd8c 	bl	8013f40 <__aeabi_atexit>
 800f428:	489e      	ldr	r0, [pc, #632]	; (800f6a4 <_GLOBAL__sub_I__ZN4quan3uav3osd8get_fontEm+0x10e8>)
 800f42a:	4b9f      	ldr	r3, [pc, #636]	; (800f6a8 <_GLOBAL__sub_I__ZN4quan3uav3osd8get_fontEm+0x10ec>)
 800f42c:	499f      	ldr	r1, [pc, #636]	; (800f6ac <_GLOBAL__sub_I__ZN4quan3uav3osd8get_fontEm+0x10f0>)
 800f42e:	6003      	str	r3, [r0, #0]
 800f430:	4622      	mov	r2, r4
 800f432:	f004 fd85 	bl	8013f40 <__aeabi_atexit>
 800f436:	489e      	ldr	r0, [pc, #632]	; (800f6b0 <_GLOBAL__sub_I__ZN4quan3uav3osd8get_fontEm+0x10f4>)
 800f438:	4b9e      	ldr	r3, [pc, #632]	; (800f6b4 <_GLOBAL__sub_I__ZN4quan3uav3osd8get_fontEm+0x10f8>)
 800f43a:	499f      	ldr	r1, [pc, #636]	; (800f6b8 <_GLOBAL__sub_I__ZN4quan3uav3osd8get_fontEm+0x10fc>)
 800f43c:	6003      	str	r3, [r0, #0]
 800f43e:	4622      	mov	r2, r4
 800f440:	f004 fd7e 	bl	8013f40 <__aeabi_atexit>
 800f444:	489d      	ldr	r0, [pc, #628]	; (800f6bc <_GLOBAL__sub_I__ZN4quan3uav3osd8get_fontEm+0x1100>)
 800f446:	4b9e      	ldr	r3, [pc, #632]	; (800f6c0 <_GLOBAL__sub_I__ZN4quan3uav3osd8get_fontEm+0x1104>)
 800f448:	499e      	ldr	r1, [pc, #632]	; (800f6c4 <_GLOBAL__sub_I__ZN4quan3uav3osd8get_fontEm+0x1108>)
 800f44a:	6003      	str	r3, [r0, #0]
 800f44c:	4622      	mov	r2, r4
 800f44e:	f004 fd77 	bl	8013f40 <__aeabi_atexit>
 800f452:	489d      	ldr	r0, [pc, #628]	; (800f6c8 <_GLOBAL__sub_I__ZN4quan3uav3osd8get_fontEm+0x110c>)
 800f454:	4b9d      	ldr	r3, [pc, #628]	; (800f6cc <_GLOBAL__sub_I__ZN4quan3uav3osd8get_fontEm+0x1110>)
 800f456:	499e      	ldr	r1, [pc, #632]	; (800f6d0 <_GLOBAL__sub_I__ZN4quan3uav3osd8get_fontEm+0x1114>)
 800f458:	6003      	str	r3, [r0, #0]
 800f45a:	4622      	mov	r2, r4
 800f45c:	f004 fd70 	bl	8013f40 <__aeabi_atexit>
 800f460:	489c      	ldr	r0, [pc, #624]	; (800f6d4 <_GLOBAL__sub_I__ZN4quan3uav3osd8get_fontEm+0x1118>)
 800f462:	4b9d      	ldr	r3, [pc, #628]	; (800f6d8 <_GLOBAL__sub_I__ZN4quan3uav3osd8get_fontEm+0x111c>)
 800f464:	499d      	ldr	r1, [pc, #628]	; (800f6dc <_GLOBAL__sub_I__ZN4quan3uav3osd8get_fontEm+0x1120>)
 800f466:	6003      	str	r3, [r0, #0]
 800f468:	4622      	mov	r2, r4
 800f46a:	f004 fd69 	bl	8013f40 <__aeabi_atexit>
 800f46e:	489c      	ldr	r0, [pc, #624]	; (800f6e0 <_GLOBAL__sub_I__ZN4quan3uav3osd8get_fontEm+0x1124>)
 800f470:	4b9c      	ldr	r3, [pc, #624]	; (800f6e4 <_GLOBAL__sub_I__ZN4quan3uav3osd8get_fontEm+0x1128>)
 800f472:	499d      	ldr	r1, [pc, #628]	; (800f6e8 <_GLOBAL__sub_I__ZN4quan3uav3osd8get_fontEm+0x112c>)
 800f474:	6003      	str	r3, [r0, #0]
 800f476:	4622      	mov	r2, r4
 800f478:	f004 fd62 	bl	8013f40 <__aeabi_atexit>
 800f47c:	489b      	ldr	r0, [pc, #620]	; (800f6ec <_GLOBAL__sub_I__ZN4quan3uav3osd8get_fontEm+0x1130>)
 800f47e:	4b9c      	ldr	r3, [pc, #624]	; (800f6f0 <_GLOBAL__sub_I__ZN4quan3uav3osd8get_fontEm+0x1134>)
 800f480:	499c      	ldr	r1, [pc, #624]	; (800f6f4 <_GLOBAL__sub_I__ZN4quan3uav3osd8get_fontEm+0x1138>)
 800f482:	6003      	str	r3, [r0, #0]
 800f484:	4622      	mov	r2, r4
 800f486:	f004 fd5b 	bl	8013f40 <__aeabi_atexit>
 800f48a:	489b      	ldr	r0, [pc, #620]	; (800f6f8 <_GLOBAL__sub_I__ZN4quan3uav3osd8get_fontEm+0x113c>)
 800f48c:	4b9b      	ldr	r3, [pc, #620]	; (800f6fc <_GLOBAL__sub_I__ZN4quan3uav3osd8get_fontEm+0x1140>)
 800f48e:	499c      	ldr	r1, [pc, #624]	; (800f700 <_GLOBAL__sub_I__ZN4quan3uav3osd8get_fontEm+0x1144>)
 800f490:	6003      	str	r3, [r0, #0]
 800f492:	4622      	mov	r2, r4
 800f494:	f004 fd54 	bl	8013f40 <__aeabi_atexit>
 800f498:	489a      	ldr	r0, [pc, #616]	; (800f704 <_GLOBAL__sub_I__ZN4quan3uav3osd8get_fontEm+0x1148>)
 800f49a:	4b9b      	ldr	r3, [pc, #620]	; (800f708 <_GLOBAL__sub_I__ZN4quan3uav3osd8get_fontEm+0x114c>)
 800f49c:	499b      	ldr	r1, [pc, #620]	; (800f70c <_GLOBAL__sub_I__ZN4quan3uav3osd8get_fontEm+0x1150>)
 800f49e:	6003      	str	r3, [r0, #0]
 800f4a0:	4622      	mov	r2, r4
 800f4a2:	f004 fd4d 	bl	8013f40 <__aeabi_atexit>
 800f4a6:	489a      	ldr	r0, [pc, #616]	; (800f710 <_GLOBAL__sub_I__ZN4quan3uav3osd8get_fontEm+0x1154>)
 800f4a8:	4b9a      	ldr	r3, [pc, #616]	; (800f714 <_GLOBAL__sub_I__ZN4quan3uav3osd8get_fontEm+0x1158>)
 800f4aa:	499b      	ldr	r1, [pc, #620]	; (800f718 <_GLOBAL__sub_I__ZN4quan3uav3osd8get_fontEm+0x115c>)
 800f4ac:	6003      	str	r3, [r0, #0]
 800f4ae:	4622      	mov	r2, r4
 800f4b0:	f004 fd46 	bl	8013f40 <__aeabi_atexit>
 800f4b4:	4899      	ldr	r0, [pc, #612]	; (800f71c <_GLOBAL__sub_I__ZN4quan3uav3osd8get_fontEm+0x1160>)
 800f4b6:	4b9a      	ldr	r3, [pc, #616]	; (800f720 <_GLOBAL__sub_I__ZN4quan3uav3osd8get_fontEm+0x1164>)
 800f4b8:	499a      	ldr	r1, [pc, #616]	; (800f724 <_GLOBAL__sub_I__ZN4quan3uav3osd8get_fontEm+0x1168>)
 800f4ba:	6003      	str	r3, [r0, #0]
 800f4bc:	4622      	mov	r2, r4
 800f4be:	f004 fd3f 	bl	8013f40 <__aeabi_atexit>
 800f4c2:	4899      	ldr	r0, [pc, #612]	; (800f728 <_GLOBAL__sub_I__ZN4quan3uav3osd8get_fontEm+0x116c>)
 800f4c4:	4b99      	ldr	r3, [pc, #612]	; (800f72c <_GLOBAL__sub_I__ZN4quan3uav3osd8get_fontEm+0x1170>)
 800f4c6:	499a      	ldr	r1, [pc, #616]	; (800f730 <_GLOBAL__sub_I__ZN4quan3uav3osd8get_fontEm+0x1174>)
 800f4c8:	6003      	str	r3, [r0, #0]
 800f4ca:	4622      	mov	r2, r4
 800f4cc:	f004 fd38 	bl	8013f40 <__aeabi_atexit>
 800f4d0:	4898      	ldr	r0, [pc, #608]	; (800f734 <_GLOBAL__sub_I__ZN4quan3uav3osd8get_fontEm+0x1178>)
 800f4d2:	4b99      	ldr	r3, [pc, #612]	; (800f738 <_GLOBAL__sub_I__ZN4quan3uav3osd8get_fontEm+0x117c>)
 800f4d4:	4999      	ldr	r1, [pc, #612]	; (800f73c <_GLOBAL__sub_I__ZN4quan3uav3osd8get_fontEm+0x1180>)
 800f4d6:	6003      	str	r3, [r0, #0]
 800f4d8:	4622      	mov	r2, r4
 800f4da:	f004 fd31 	bl	8013f40 <__aeabi_atexit>
 800f4de:	4898      	ldr	r0, [pc, #608]	; (800f740 <_GLOBAL__sub_I__ZN4quan3uav3osd8get_fontEm+0x1184>)
 800f4e0:	4b98      	ldr	r3, [pc, #608]	; (800f744 <_GLOBAL__sub_I__ZN4quan3uav3osd8get_fontEm+0x1188>)
 800f4e2:	4999      	ldr	r1, [pc, #612]	; (800f748 <_GLOBAL__sub_I__ZN4quan3uav3osd8get_fontEm+0x118c>)
 800f4e4:	6003      	str	r3, [r0, #0]
 800f4e6:	4622      	mov	r2, r4
 800f4e8:	f004 fd2a 	bl	8013f40 <__aeabi_atexit>
 800f4ec:	4897      	ldr	r0, [pc, #604]	; (800f74c <_GLOBAL__sub_I__ZN4quan3uav3osd8get_fontEm+0x1190>)
 800f4ee:	4b98      	ldr	r3, [pc, #608]	; (800f750 <_GLOBAL__sub_I__ZN4quan3uav3osd8get_fontEm+0x1194>)
 800f4f0:	4998      	ldr	r1, [pc, #608]	; (800f754 <_GLOBAL__sub_I__ZN4quan3uav3osd8get_fontEm+0x1198>)
 800f4f2:	6003      	str	r3, [r0, #0]
 800f4f4:	4622      	mov	r2, r4
 800f4f6:	f004 fd23 	bl	8013f40 <__aeabi_atexit>
 800f4fa:	4897      	ldr	r0, [pc, #604]	; (800f758 <_GLOBAL__sub_I__ZN4quan3uav3osd8get_fontEm+0x119c>)
 800f4fc:	4b97      	ldr	r3, [pc, #604]	; (800f75c <_GLOBAL__sub_I__ZN4quan3uav3osd8get_fontEm+0x11a0>)
 800f4fe:	4998      	ldr	r1, [pc, #608]	; (800f760 <_GLOBAL__sub_I__ZN4quan3uav3osd8get_fontEm+0x11a4>)
 800f500:	6003      	str	r3, [r0, #0]
 800f502:	4622      	mov	r2, r4
 800f504:	f004 fd1c 	bl	8013f40 <__aeabi_atexit>
 800f508:	4896      	ldr	r0, [pc, #600]	; (800f764 <_GLOBAL__sub_I__ZN4quan3uav3osd8get_fontEm+0x11a8>)
 800f50a:	4b97      	ldr	r3, [pc, #604]	; (800f768 <_GLOBAL__sub_I__ZN4quan3uav3osd8get_fontEm+0x11ac>)
 800f50c:	4997      	ldr	r1, [pc, #604]	; (800f76c <_GLOBAL__sub_I__ZN4quan3uav3osd8get_fontEm+0x11b0>)
 800f50e:	6003      	str	r3, [r0, #0]
 800f510:	4622      	mov	r2, r4
 800f512:	f004 fd15 	bl	8013f40 <__aeabi_atexit>
 800f516:	4896      	ldr	r0, [pc, #600]	; (800f770 <_GLOBAL__sub_I__ZN4quan3uav3osd8get_fontEm+0x11b4>)
 800f518:	4b96      	ldr	r3, [pc, #600]	; (800f774 <_GLOBAL__sub_I__ZN4quan3uav3osd8get_fontEm+0x11b8>)
 800f51a:	4997      	ldr	r1, [pc, #604]	; (800f778 <_GLOBAL__sub_I__ZN4quan3uav3osd8get_fontEm+0x11bc>)
 800f51c:	6003      	str	r3, [r0, #0]
 800f51e:	4622      	mov	r2, r4
 800f520:	f004 fd0e 	bl	8013f40 <__aeabi_atexit>
 800f524:	4895      	ldr	r0, [pc, #596]	; (800f77c <_GLOBAL__sub_I__ZN4quan3uav3osd8get_fontEm+0x11c0>)
 800f526:	4b96      	ldr	r3, [pc, #600]	; (800f780 <_GLOBAL__sub_I__ZN4quan3uav3osd8get_fontEm+0x11c4>)
 800f528:	4996      	ldr	r1, [pc, #600]	; (800f784 <_GLOBAL__sub_I__ZN4quan3uav3osd8get_fontEm+0x11c8>)
 800f52a:	6003      	str	r3, [r0, #0]
 800f52c:	4622      	mov	r2, r4
 800f52e:	f004 fd07 	bl	8013f40 <__aeabi_atexit>
 800f532:	4895      	ldr	r0, [pc, #596]	; (800f788 <_GLOBAL__sub_I__ZN4quan3uav3osd8get_fontEm+0x11cc>)
 800f534:	4b95      	ldr	r3, [pc, #596]	; (800f78c <_GLOBAL__sub_I__ZN4quan3uav3osd8get_fontEm+0x11d0>)
 800f536:	4996      	ldr	r1, [pc, #600]	; (800f790 <_GLOBAL__sub_I__ZN4quan3uav3osd8get_fontEm+0x11d4>)
 800f538:	6003      	str	r3, [r0, #0]
 800f53a:	4622      	mov	r2, r4
 800f53c:	f004 fd00 	bl	8013f40 <__aeabi_atexit>
 800f540:	4894      	ldr	r0, [pc, #592]	; (800f794 <_GLOBAL__sub_I__ZN4quan3uav3osd8get_fontEm+0x11d8>)
 800f542:	4b95      	ldr	r3, [pc, #596]	; (800f798 <_GLOBAL__sub_I__ZN4quan3uav3osd8get_fontEm+0x11dc>)
 800f544:	4995      	ldr	r1, [pc, #596]	; (800f79c <_GLOBAL__sub_I__ZN4quan3uav3osd8get_fontEm+0x11e0>)
 800f546:	6003      	str	r3, [r0, #0]
 800f548:	4622      	mov	r2, r4
 800f54a:	f004 fcf9 	bl	8013f40 <__aeabi_atexit>
 800f54e:	4894      	ldr	r0, [pc, #592]	; (800f7a0 <_GLOBAL__sub_I__ZN4quan3uav3osd8get_fontEm+0x11e4>)
 800f550:	4b94      	ldr	r3, [pc, #592]	; (800f7a4 <_GLOBAL__sub_I__ZN4quan3uav3osd8get_fontEm+0x11e8>)
 800f552:	4995      	ldr	r1, [pc, #596]	; (800f7a8 <_GLOBAL__sub_I__ZN4quan3uav3osd8get_fontEm+0x11ec>)
 800f554:	6003      	str	r3, [r0, #0]
 800f556:	4622      	mov	r2, r4
 800f558:	f004 fcf2 	bl	8013f40 <__aeabi_atexit>
 800f55c:	4893      	ldr	r0, [pc, #588]	; (800f7ac <_GLOBAL__sub_I__ZN4quan3uav3osd8get_fontEm+0x11f0>)
 800f55e:	4b94      	ldr	r3, [pc, #592]	; (800f7b0 <_GLOBAL__sub_I__ZN4quan3uav3osd8get_fontEm+0x11f4>)
 800f560:	4994      	ldr	r1, [pc, #592]	; (800f7b4 <_GLOBAL__sub_I__ZN4quan3uav3osd8get_fontEm+0x11f8>)
 800f562:	6003      	str	r3, [r0, #0]
 800f564:	4622      	mov	r2, r4
 800f566:	f004 fceb 	bl	8013f40 <__aeabi_atexit>
 800f56a:	4893      	ldr	r0, [pc, #588]	; (800f7b8 <_GLOBAL__sub_I__ZN4quan3uav3osd8get_fontEm+0x11fc>)
 800f56c:	4b93      	ldr	r3, [pc, #588]	; (800f7bc <_GLOBAL__sub_I__ZN4quan3uav3osd8get_fontEm+0x1200>)
 800f56e:	4994      	ldr	r1, [pc, #592]	; (800f7c0 <_GLOBAL__sub_I__ZN4quan3uav3osd8get_fontEm+0x1204>)
 800f570:	6003      	str	r3, [r0, #0]
 800f572:	4622      	mov	r2, r4
 800f574:	f004 fce4 	bl	8013f40 <__aeabi_atexit>
 800f578:	4892      	ldr	r0, [pc, #584]	; (800f7c4 <_GLOBAL__sub_I__ZN4quan3uav3osd8get_fontEm+0x1208>)
 800f57a:	4b93      	ldr	r3, [pc, #588]	; (800f7c8 <_GLOBAL__sub_I__ZN4quan3uav3osd8get_fontEm+0x120c>)
 800f57c:	4993      	ldr	r1, [pc, #588]	; (800f7cc <_GLOBAL__sub_I__ZN4quan3uav3osd8get_fontEm+0x1210>)
 800f57e:	6003      	str	r3, [r0, #0]
 800f580:	4622      	mov	r2, r4
 800f582:	f004 fcdd 	bl	8013f40 <__aeabi_atexit>
 800f586:	4892      	ldr	r0, [pc, #584]	; (800f7d0 <_GLOBAL__sub_I__ZN4quan3uav3osd8get_fontEm+0x1214>)
 800f588:	4b92      	ldr	r3, [pc, #584]	; (800f7d4 <_GLOBAL__sub_I__ZN4quan3uav3osd8get_fontEm+0x1218>)
 800f58a:	4993      	ldr	r1, [pc, #588]	; (800f7d8 <_GLOBAL__sub_I__ZN4quan3uav3osd8get_fontEm+0x121c>)
 800f58c:	6003      	str	r3, [r0, #0]
 800f58e:	4622      	mov	r2, r4
 800f590:	f004 fcd6 	bl	8013f40 <__aeabi_atexit>
 800f594:	4891      	ldr	r0, [pc, #580]	; (800f7dc <_GLOBAL__sub_I__ZN4quan3uav3osd8get_fontEm+0x1220>)
 800f596:	4b92      	ldr	r3, [pc, #584]	; (800f7e0 <_GLOBAL__sub_I__ZN4quan3uav3osd8get_fontEm+0x1224>)
 800f598:	4992      	ldr	r1, [pc, #584]	; (800f7e4 <_GLOBAL__sub_I__ZN4quan3uav3osd8get_fontEm+0x1228>)
 800f59a:	6003      	str	r3, [r0, #0]
 800f59c:	4622      	mov	r2, r4
 800f59e:	f004 fccf 	bl	8013f40 <__aeabi_atexit>
 800f5a2:	4891      	ldr	r0, [pc, #580]	; (800f7e8 <_GLOBAL__sub_I__ZN4quan3uav3osd8get_fontEm+0x122c>)
 800f5a4:	4b91      	ldr	r3, [pc, #580]	; (800f7ec <_GLOBAL__sub_I__ZN4quan3uav3osd8get_fontEm+0x1230>)
 800f5a6:	4992      	ldr	r1, [pc, #584]	; (800f7f0 <_GLOBAL__sub_I__ZN4quan3uav3osd8get_fontEm+0x1234>)
 800f5a8:	6003      	str	r3, [r0, #0]
 800f5aa:	4622      	mov	r2, r4
 800f5ac:	f004 fcc8 	bl	8013f40 <__aeabi_atexit>
 800f5b0:	4890      	ldr	r0, [pc, #576]	; (800f7f4 <_GLOBAL__sub_I__ZN4quan3uav3osd8get_fontEm+0x1238>)
 800f5b2:	4b91      	ldr	r3, [pc, #580]	; (800f7f8 <_GLOBAL__sub_I__ZN4quan3uav3osd8get_fontEm+0x123c>)
 800f5b4:	4991      	ldr	r1, [pc, #580]	; (800f7fc <_GLOBAL__sub_I__ZN4quan3uav3osd8get_fontEm+0x1240>)
 800f5b6:	6003      	str	r3, [r0, #0]
 800f5b8:	4622      	mov	r2, r4
 800f5ba:	f004 fcc1 	bl	8013f40 <__aeabi_atexit>
 800f5be:	4890      	ldr	r0, [pc, #576]	; (800f800 <_GLOBAL__sub_I__ZN4quan3uav3osd8get_fontEm+0x1244>)
 800f5c0:	4b90      	ldr	r3, [pc, #576]	; (800f804 <_GLOBAL__sub_I__ZN4quan3uav3osd8get_fontEm+0x1248>)
 800f5c2:	4991      	ldr	r1, [pc, #580]	; (800f808 <_GLOBAL__sub_I__ZN4quan3uav3osd8get_fontEm+0x124c>)
 800f5c4:	6003      	str	r3, [r0, #0]
 800f5c6:	4622      	mov	r2, r4
 800f5c8:	f004 fcba 	bl	8013f40 <__aeabi_atexit>
 800f5cc:	488f      	ldr	r0, [pc, #572]	; (800f80c <_GLOBAL__sub_I__ZN4quan3uav3osd8get_fontEm+0x1250>)
 800f5ce:	4b90      	ldr	r3, [pc, #576]	; (800f810 <_GLOBAL__sub_I__ZN4quan3uav3osd8get_fontEm+0x1254>)
 800f5d0:	4990      	ldr	r1, [pc, #576]	; (800f814 <_GLOBAL__sub_I__ZN4quan3uav3osd8get_fontEm+0x1258>)
 800f5d2:	6003      	str	r3, [r0, #0]
 800f5d4:	4622      	mov	r2, r4
 800f5d6:	f004 fcb3 	bl	8013f40 <__aeabi_atexit>
 800f5da:	488f      	ldr	r0, [pc, #572]	; (800f818 <_GLOBAL__sub_I__ZN4quan3uav3osd8get_fontEm+0x125c>)
 800f5dc:	4b8f      	ldr	r3, [pc, #572]	; (800f81c <_GLOBAL__sub_I__ZN4quan3uav3osd8get_fontEm+0x1260>)
 800f5de:	4990      	ldr	r1, [pc, #576]	; (800f820 <_GLOBAL__sub_I__ZN4quan3uav3osd8get_fontEm+0x1264>)
 800f5e0:	6003      	str	r3, [r0, #0]
 800f5e2:	4622      	mov	r2, r4
 800f5e4:	f004 fcac 	bl	8013f40 <__aeabi_atexit>
 800f5e8:	488e      	ldr	r0, [pc, #568]	; (800f824 <_GLOBAL__sub_I__ZN4quan3uav3osd8get_fontEm+0x1268>)
 800f5ea:	4b8f      	ldr	r3, [pc, #572]	; (800f828 <_GLOBAL__sub_I__ZN4quan3uav3osd8get_fontEm+0x126c>)
 800f5ec:	498f      	ldr	r1, [pc, #572]	; (800f82c <_GLOBAL__sub_I__ZN4quan3uav3osd8get_fontEm+0x1270>)
 800f5ee:	6003      	str	r3, [r0, #0]
 800f5f0:	4622      	mov	r2, r4
 800f5f2:	f004 fca5 	bl	8013f40 <__aeabi_atexit>
 800f5f6:	488e      	ldr	r0, [pc, #568]	; (800f830 <_GLOBAL__sub_I__ZN4quan3uav3osd8get_fontEm+0x1274>)
 800f5f8:	4b8e      	ldr	r3, [pc, #568]	; (800f834 <_GLOBAL__sub_I__ZN4quan3uav3osd8get_fontEm+0x1278>)
 800f5fa:	498f      	ldr	r1, [pc, #572]	; (800f838 <_GLOBAL__sub_I__ZN4quan3uav3osd8get_fontEm+0x127c>)
 800f5fc:	6003      	str	r3, [r0, #0]
 800f5fe:	4622      	mov	r2, r4
 800f600:	f004 fc9e 	bl	8013f40 <__aeabi_atexit>
 800f604:	488d      	ldr	r0, [pc, #564]	; (800f83c <_GLOBAL__sub_I__ZN4quan3uav3osd8get_fontEm+0x1280>)
 800f606:	4b8e      	ldr	r3, [pc, #568]	; (800f840 <_GLOBAL__sub_I__ZN4quan3uav3osd8get_fontEm+0x1284>)
 800f608:	498e      	ldr	r1, [pc, #568]	; (800f844 <_GLOBAL__sub_I__ZN4quan3uav3osd8get_fontEm+0x1288>)
 800f60a:	6003      	str	r3, [r0, #0]
 800f60c:	4622      	mov	r2, r4
 800f60e:	f004 fc97 	bl	8013f40 <__aeabi_atexit>
 800f612:	488d      	ldr	r0, [pc, #564]	; (800f848 <_GLOBAL__sub_I__ZN4quan3uav3osd8get_fontEm+0x128c>)
 800f614:	4b8d      	ldr	r3, [pc, #564]	; (800f84c <_GLOBAL__sub_I__ZN4quan3uav3osd8get_fontEm+0x1290>)
 800f616:	498e      	ldr	r1, [pc, #568]	; (800f850 <_GLOBAL__sub_I__ZN4quan3uav3osd8get_fontEm+0x1294>)
 800f618:	6003      	str	r3, [r0, #0]
 800f61a:	4622      	mov	r2, r4
 800f61c:	f004 fc90 	bl	8013f40 <__aeabi_atexit>
 800f620:	488c      	ldr	r0, [pc, #560]	; (800f854 <_GLOBAL__sub_I__ZN4quan3uav3osd8get_fontEm+0x1298>)
 800f622:	4b8d      	ldr	r3, [pc, #564]	; (800f858 <_GLOBAL__sub_I__ZN4quan3uav3osd8get_fontEm+0x129c>)
 800f624:	498d      	ldr	r1, [pc, #564]	; (800f85c <_GLOBAL__sub_I__ZN4quan3uav3osd8get_fontEm+0x12a0>)
 800f626:	6003      	str	r3, [r0, #0]
 800f628:	4622      	mov	r2, r4
 800f62a:	f004 fc89 	bl	8013f40 <__aeabi_atexit>
 800f62e:	488c      	ldr	r0, [pc, #560]	; (800f860 <_GLOBAL__sub_I__ZN4quan3uav3osd8get_fontEm+0x12a4>)
 800f630:	4b8c      	ldr	r3, [pc, #560]	; (800f864 <_GLOBAL__sub_I__ZN4quan3uav3osd8get_fontEm+0x12a8>)
 800f632:	498d      	ldr	r1, [pc, #564]	; (800f868 <_GLOBAL__sub_I__ZN4quan3uav3osd8get_fontEm+0x12ac>)
 800f634:	6003      	str	r3, [r0, #0]
 800f636:	4622      	mov	r2, r4
 800f638:	f004 fc82 	bl	8013f40 <__aeabi_atexit>
 800f63c:	488b      	ldr	r0, [pc, #556]	; (800f86c <_GLOBAL__sub_I__ZN4quan3uav3osd8get_fontEm+0x12b0>)
 800f63e:	4b8c      	ldr	r3, [pc, #560]	; (800f870 <_GLOBAL__sub_I__ZN4quan3uav3osd8get_fontEm+0x12b4>)
 800f640:	498c      	ldr	r1, [pc, #560]	; (800f874 <_GLOBAL__sub_I__ZN4quan3uav3osd8get_fontEm+0x12b8>)
 800f642:	6003      	str	r3, [r0, #0]
 800f644:	4622      	mov	r2, r4
 800f646:	f004 fc7b 	bl	8013f40 <__aeabi_atexit>
 800f64a:	488b      	ldr	r0, [pc, #556]	; (800f878 <_GLOBAL__sub_I__ZN4quan3uav3osd8get_fontEm+0x12bc>)
 800f64c:	4b8b      	ldr	r3, [pc, #556]	; (800f87c <_GLOBAL__sub_I__ZN4quan3uav3osd8get_fontEm+0x12c0>)
 800f64e:	498c      	ldr	r1, [pc, #560]	; (800f880 <_GLOBAL__sub_I__ZN4quan3uav3osd8get_fontEm+0x12c4>)
 800f650:	6003      	str	r3, [r0, #0]
 800f652:	4622      	mov	r2, r4
 800f654:	f004 fc74 	bl	8013f40 <__aeabi_atexit>
 800f658:	e114      	b.n	800f884 <_GLOBAL__sub_I__ZN4quan3uav3osd8get_fontEm+0x12c8>
 800f65a:	bf00      	nop
 800f65c:	10000b64 	.word	0x10000b64
 800f660:	08015750 	.word	0x08015750
 800f664:	0800d775 	.word	0x0800d775
 800f668:	10000b80 	.word	0x10000b80
 800f66c:	08015b68 	.word	0x08015b68
 800f670:	0800d771 	.word	0x0800d771
 800f674:	10000b34 	.word	0x10000b34
 800f678:	080150a0 	.word	0x080150a0
 800f67c:	0800d76d 	.word	0x0800d76d
 800f680:	10000b54 	.word	0x10000b54
 800f684:	08016df8 	.word	0x08016df8
 800f688:	0800d769 	.word	0x0800d769
 800f68c:	10000b68 	.word	0x10000b68
 800f690:	08017248 	.word	0x08017248
 800f694:	0800d765 	.word	0x0800d765
 800f698:	10000b88 	.word	0x10000b88
 800f69c:	080191c0 	.word	0x080191c0
 800f6a0:	0800d761 	.word	0x0800d761
 800f6a4:	10000ba8 	.word	0x10000ba8
 800f6a8:	08017850 	.word	0x08017850
 800f6ac:	0800d75d 	.word	0x0800d75d
 800f6b0:	10000bc8 	.word	0x10000bc8
 800f6b4:	08017c80 	.word	0x08017c80
 800f6b8:	0800d759 	.word	0x0800d759
 800f6bc:	10000bec 	.word	0x10000bec
 800f6c0:	08017af8 	.word	0x08017af8
 800f6c4:	0800d755 	.word	0x0800d755
 800f6c8:	10000c10 	.word	0x10000c10
 800f6cc:	080188c8 	.word	0x080188c8
 800f6d0:	0800d751 	.word	0x0800d751
 800f6d4:	10000c30 	.word	0x10000c30
 800f6d8:	08018d48 	.word	0x08018d48
 800f6dc:	0800d74d 	.word	0x0800d74d
 800f6e0:	100008f0 	.word	0x100008f0
 800f6e4:	08019158 	.word	0x08019158
 800f6e8:	0800d749 	.word	0x0800d749
 800f6ec:	10000bf4 	.word	0x10000bf4
 800f6f0:	08014c88 	.word	0x08014c88
 800f6f4:	0800d745 	.word	0x0800d745
 800f6f8:	10000c14 	.word	0x10000c14
 800f6fc:	08015120 	.word	0x08015120
 800f700:	0800d741 	.word	0x0800d741
 800f704:	10000c38 	.word	0x10000c38
 800f708:	080154c8 	.word	0x080154c8
 800f70c:	0800d73d 	.word	0x0800d73d
 800f710:	10000c50 	.word	0x10000c50
 800f714:	08015988 	.word	0x08015988
 800f718:	0800d739 	.word	0x0800d739
 800f71c:	10000870 	.word	0x10000870
 800f720:	08015d58 	.word	0x08015d58
 800f724:	0800d735 	.word	0x0800d735
 800f728:	10000998 	.word	0x10000998
 800f72c:	08018d78 	.word	0x08018d78
 800f730:	0800d731 	.word	0x0800d731
 800f734:	100008bc 	.word	0x100008bc
 800f738:	08018d60 	.word	0x08018d60
 800f73c:	0800d72d 	.word	0x0800d72d
 800f740:	100008e4 	.word	0x100008e4
 800f744:	080168d0 	.word	0x080168d0
 800f748:	0800d729 	.word	0x0800d729
 800f74c:	10000900 	.word	0x10000900
 800f750:	08016c30 	.word	0x08016c30
 800f754:	0800d725 	.word	0x0800d725
 800f758:	10000924 	.word	0x10000924
 800f75c:	08017160 	.word	0x08017160
 800f760:	0800d721 	.word	0x0800d721
 800f764:	100009f0 	.word	0x100009f0
 800f768:	08015a40 	.word	0x08015a40
 800f76c:	0800d71d 	.word	0x0800d71d
 800f770:	100008ec 	.word	0x100008ec
 800f774:	080186b0 	.word	0x080186b0
 800f778:	0800d719 	.word	0x0800d719
 800f77c:	1000090c 	.word	0x1000090c
 800f780:	08018aa0 	.word	0x08018aa0
 800f784:	0800d715 	.word	0x0800d715
 800f788:	1000092c 	.word	0x1000092c
 800f78c:	08018f38 	.word	0x08018f38
 800f790:	0800d711 	.word	0x0800d711
 800f794:	10000954 	.word	0x10000954
 800f798:	08016ee8 	.word	0x08016ee8
 800f79c:	0800d70d 	.word	0x0800d70d
 800f7a0:	10000974 	.word	0x10000974
 800f7a4:	08019738 	.word	0x08019738
 800f7a8:	0800d709 	.word	0x0800d709
 800f7ac:	100009a4 	.word	0x100009a4
 800f7b0:	08019ac0 	.word	0x08019ac0
 800f7b4:	0800d705 	.word	0x0800d705
 800f7b8:	100009c8 	.word	0x100009c8
 800f7bc:	08014b30 	.word	0x08014b30
 800f7c0:	0800d701 	.word	0x0800d701
 800f7c4:	10000a28 	.word	0x10000a28
 800f7c8:	080171a8 	.word	0x080171a8
 800f7cc:	0800d6fd 	.word	0x0800d6fd
 800f7d0:	10000c2c 	.word	0x10000c2c
 800f7d4:	08015410 	.word	0x08015410
 800f7d8:	0800d6f9 	.word	0x0800d6f9
 800f7dc:	100009ac 	.word	0x100009ac
 800f7e0:	08016278 	.word	0x08016278
 800f7e4:	0800d6f5 	.word	0x0800d6f5
 800f7e8:	100009d0 	.word	0x100009d0
 800f7ec:	08016630 	.word	0x08016630
 800f7f0:	0800d6f1 	.word	0x0800d6f1
 800f7f4:	10000a44 	.word	0x10000a44
 800f7f8:	08016aa8 	.word	0x08016aa8
 800f7fc:	0800d6ed 	.word	0x0800d6ed
 800f800:	10000a10 	.word	0x10000a10
 800f804:	08016ed0 	.word	0x08016ed0
 800f808:	0800d6e9 	.word	0x0800d6e9
 800f80c:	10000a38 	.word	0x10000a38
 800f810:	08017300 	.word	0x08017300
 800f814:	0800d6e5 	.word	0x0800d6e5
 800f818:	10000a60 	.word	0x10000a60
 800f81c:	08017600 	.word	0x08017600
 800f820:	0800d6e1 	.word	0x0800d6e1
 800f824:	10000a84 	.word	0x10000a84
 800f828:	080184b8 	.word	0x080184b8
 800f82c:	0800d6dd 	.word	0x0800d6dd
 800f830:	10000aa4 	.word	0x10000aa4
 800f834:	080181a8 	.word	0x080181a8
 800f838:	0800d6d9 	.word	0x0800d6d9
 800f83c:	10000ab8 	.word	0x10000ab8
 800f840:	08014b78 	.word	0x08014b78
 800f844:	0800d6d5 	.word	0x0800d6d5
 800f848:	100009e8 	.word	0x100009e8
 800f84c:	08015088 	.word	0x08015088
 800f850:	0800d6d1 	.word	0x0800d6d1
 800f854:	10000930 	.word	0x10000930
 800f858:	08018c90 	.word	0x08018c90
 800f85c:	0800d6cd 	.word	0x0800d6cd
 800f860:	10000958 	.word	0x10000958
 800f864:	080148d0 	.word	0x080148d0
 800f868:	0800d6c9 	.word	0x0800d6c9
 800f86c:	10000ac0 	.word	0x10000ac0
 800f870:	08014db0 	.word	0x08014db0
 800f874:	0800d6c5 	.word	0x0800d6c5
 800f878:	10000ae8 	.word	0x10000ae8
 800f87c:	08017618 	.word	0x08017618
 800f880:	0800d6c1 	.word	0x0800d6c1
 800f884:	48a1      	ldr	r0, [pc, #644]	; (800fb0c <_GLOBAL__sub_I__ZN4quan3uav3osd8get_fontEm+0x1550>)
 800f886:	4ba2      	ldr	r3, [pc, #648]	; (800fb10 <_GLOBAL__sub_I__ZN4quan3uav3osd8get_fontEm+0x1554>)
 800f888:	49a2      	ldr	r1, [pc, #648]	; (800fb14 <_GLOBAL__sub_I__ZN4quan3uav3osd8get_fontEm+0x1558>)
 800f88a:	6003      	str	r3, [r0, #0]
 800f88c:	4622      	mov	r2, r4
 800f88e:	f004 fb57 	bl	8013f40 <__aeabi_atexit>
 800f892:	48a1      	ldr	r0, [pc, #644]	; (800fb18 <_GLOBAL__sub_I__ZN4quan3uav3osd8get_fontEm+0x155c>)
 800f894:	4ba1      	ldr	r3, [pc, #644]	; (800fb1c <_GLOBAL__sub_I__ZN4quan3uav3osd8get_fontEm+0x1560>)
 800f896:	49a2      	ldr	r1, [pc, #648]	; (800fb20 <_GLOBAL__sub_I__ZN4quan3uav3osd8get_fontEm+0x1564>)
 800f898:	6003      	str	r3, [r0, #0]
 800f89a:	4622      	mov	r2, r4
 800f89c:	f004 fb50 	bl	8013f40 <__aeabi_atexit>
 800f8a0:	48a0      	ldr	r0, [pc, #640]	; (800fb24 <_GLOBAL__sub_I__ZN4quan3uav3osd8get_fontEm+0x1568>)
 800f8a2:	4ba1      	ldr	r3, [pc, #644]	; (800fb28 <_GLOBAL__sub_I__ZN4quan3uav3osd8get_fontEm+0x156c>)
 800f8a4:	49a1      	ldr	r1, [pc, #644]	; (800fb2c <_GLOBAL__sub_I__ZN4quan3uav3osd8get_fontEm+0x1570>)
 800f8a6:	6003      	str	r3, [r0, #0]
 800f8a8:	4622      	mov	r2, r4
 800f8aa:	f004 fb49 	bl	8013f40 <__aeabi_atexit>
 800f8ae:	48a0      	ldr	r0, [pc, #640]	; (800fb30 <_GLOBAL__sub_I__ZN4quan3uav3osd8get_fontEm+0x1574>)
 800f8b0:	4ba0      	ldr	r3, [pc, #640]	; (800fb34 <_GLOBAL__sub_I__ZN4quan3uav3osd8get_fontEm+0x1578>)
 800f8b2:	49a1      	ldr	r1, [pc, #644]	; (800fb38 <_GLOBAL__sub_I__ZN4quan3uav3osd8get_fontEm+0x157c>)
 800f8b4:	6003      	str	r3, [r0, #0]
 800f8b6:	4622      	mov	r2, r4
 800f8b8:	f004 fb42 	bl	8013f40 <__aeabi_atexit>
 800f8bc:	489f      	ldr	r0, [pc, #636]	; (800fb3c <_GLOBAL__sub_I__ZN4quan3uav3osd8get_fontEm+0x1580>)
 800f8be:	4ba0      	ldr	r3, [pc, #640]	; (800fb40 <_GLOBAL__sub_I__ZN4quan3uav3osd8get_fontEm+0x1584>)
 800f8c0:	49a0      	ldr	r1, [pc, #640]	; (800fb44 <_GLOBAL__sub_I__ZN4quan3uav3osd8get_fontEm+0x1588>)
 800f8c2:	6003      	str	r3, [r0, #0]
 800f8c4:	4622      	mov	r2, r4
 800f8c6:	f004 fb3b 	bl	8013f40 <__aeabi_atexit>
 800f8ca:	489f      	ldr	r0, [pc, #636]	; (800fb48 <_GLOBAL__sub_I__ZN4quan3uav3osd8get_fontEm+0x158c>)
 800f8cc:	4b9f      	ldr	r3, [pc, #636]	; (800fb4c <_GLOBAL__sub_I__ZN4quan3uav3osd8get_fontEm+0x1590>)
 800f8ce:	49a0      	ldr	r1, [pc, #640]	; (800fb50 <_GLOBAL__sub_I__ZN4quan3uav3osd8get_fontEm+0x1594>)
 800f8d0:	6003      	str	r3, [r0, #0]
 800f8d2:	4622      	mov	r2, r4
 800f8d4:	f004 fb34 	bl	8013f40 <__aeabi_atexit>
 800f8d8:	489e      	ldr	r0, [pc, #632]	; (800fb54 <_GLOBAL__sub_I__ZN4quan3uav3osd8get_fontEm+0x1598>)
 800f8da:	4b9f      	ldr	r3, [pc, #636]	; (800fb58 <_GLOBAL__sub_I__ZN4quan3uav3osd8get_fontEm+0x159c>)
 800f8dc:	499f      	ldr	r1, [pc, #636]	; (800fb5c <_GLOBAL__sub_I__ZN4quan3uav3osd8get_fontEm+0x15a0>)
 800f8de:	6003      	str	r3, [r0, #0]
 800f8e0:	4622      	mov	r2, r4
 800f8e2:	f004 fb2d 	bl	8013f40 <__aeabi_atexit>
 800f8e6:	489e      	ldr	r0, [pc, #632]	; (800fb60 <_GLOBAL__sub_I__ZN4quan3uav3osd8get_fontEm+0x15a4>)
 800f8e8:	4b9e      	ldr	r3, [pc, #632]	; (800fb64 <_GLOBAL__sub_I__ZN4quan3uav3osd8get_fontEm+0x15a8>)
 800f8ea:	499f      	ldr	r1, [pc, #636]	; (800fb68 <_GLOBAL__sub_I__ZN4quan3uav3osd8get_fontEm+0x15ac>)
 800f8ec:	6003      	str	r3, [r0, #0]
 800f8ee:	4622      	mov	r2, r4
 800f8f0:	f004 fb26 	bl	8013f40 <__aeabi_atexit>
 800f8f4:	489d      	ldr	r0, [pc, #628]	; (800fb6c <_GLOBAL__sub_I__ZN4quan3uav3osd8get_fontEm+0x15b0>)
 800f8f6:	4b9e      	ldr	r3, [pc, #632]	; (800fb70 <_GLOBAL__sub_I__ZN4quan3uav3osd8get_fontEm+0x15b4>)
 800f8f8:	499e      	ldr	r1, [pc, #632]	; (800fb74 <_GLOBAL__sub_I__ZN4quan3uav3osd8get_fontEm+0x15b8>)
 800f8fa:	6003      	str	r3, [r0, #0]
 800f8fc:	4622      	mov	r2, r4
 800f8fe:	f004 fb1f 	bl	8013f40 <__aeabi_atexit>
 800f902:	489d      	ldr	r0, [pc, #628]	; (800fb78 <_GLOBAL__sub_I__ZN4quan3uav3osd8get_fontEm+0x15bc>)
 800f904:	4b9d      	ldr	r3, [pc, #628]	; (800fb7c <_GLOBAL__sub_I__ZN4quan3uav3osd8get_fontEm+0x15c0>)
 800f906:	499e      	ldr	r1, [pc, #632]	; (800fb80 <_GLOBAL__sub_I__ZN4quan3uav3osd8get_fontEm+0x15c4>)
 800f908:	6003      	str	r3, [r0, #0]
 800f90a:	4622      	mov	r2, r4
 800f90c:	f004 fb18 	bl	8013f40 <__aeabi_atexit>
 800f910:	489c      	ldr	r0, [pc, #624]	; (800fb84 <_GLOBAL__sub_I__ZN4quan3uav3osd8get_fontEm+0x15c8>)
 800f912:	4b9d      	ldr	r3, [pc, #628]	; (800fb88 <_GLOBAL__sub_I__ZN4quan3uav3osd8get_fontEm+0x15cc>)
 800f914:	499d      	ldr	r1, [pc, #628]	; (800fb8c <_GLOBAL__sub_I__ZN4quan3uav3osd8get_fontEm+0x15d0>)
 800f916:	6003      	str	r3, [r0, #0]
 800f918:	4622      	mov	r2, r4
 800f91a:	f004 fb11 	bl	8013f40 <__aeabi_atexit>
 800f91e:	489c      	ldr	r0, [pc, #624]	; (800fb90 <_GLOBAL__sub_I__ZN4quan3uav3osd8get_fontEm+0x15d4>)
 800f920:	4b9c      	ldr	r3, [pc, #624]	; (800fb94 <_GLOBAL__sub_I__ZN4quan3uav3osd8get_fontEm+0x15d8>)
 800f922:	499d      	ldr	r1, [pc, #628]	; (800fb98 <_GLOBAL__sub_I__ZN4quan3uav3osd8get_fontEm+0x15dc>)
 800f924:	6003      	str	r3, [r0, #0]
 800f926:	4622      	mov	r2, r4
 800f928:	f004 fb0a 	bl	8013f40 <__aeabi_atexit>
 800f92c:	489b      	ldr	r0, [pc, #620]	; (800fb9c <_GLOBAL__sub_I__ZN4quan3uav3osd8get_fontEm+0x15e0>)
 800f92e:	4b9c      	ldr	r3, [pc, #624]	; (800fba0 <_GLOBAL__sub_I__ZN4quan3uav3osd8get_fontEm+0x15e4>)
 800f930:	499c      	ldr	r1, [pc, #624]	; (800fba4 <_GLOBAL__sub_I__ZN4quan3uav3osd8get_fontEm+0x15e8>)
 800f932:	6003      	str	r3, [r0, #0]
 800f934:	4622      	mov	r2, r4
 800f936:	f004 fb03 	bl	8013f40 <__aeabi_atexit>
 800f93a:	489b      	ldr	r0, [pc, #620]	; (800fba8 <_GLOBAL__sub_I__ZN4quan3uav3osd8get_fontEm+0x15ec>)
 800f93c:	4b9b      	ldr	r3, [pc, #620]	; (800fbac <_GLOBAL__sub_I__ZN4quan3uav3osd8get_fontEm+0x15f0>)
 800f93e:	499c      	ldr	r1, [pc, #624]	; (800fbb0 <_GLOBAL__sub_I__ZN4quan3uav3osd8get_fontEm+0x15f4>)
 800f940:	6003      	str	r3, [r0, #0]
 800f942:	4622      	mov	r2, r4
 800f944:	f004 fafc 	bl	8013f40 <__aeabi_atexit>
 800f948:	489a      	ldr	r0, [pc, #616]	; (800fbb4 <_GLOBAL__sub_I__ZN4quan3uav3osd8get_fontEm+0x15f8>)
 800f94a:	4b9b      	ldr	r3, [pc, #620]	; (800fbb8 <_GLOBAL__sub_I__ZN4quan3uav3osd8get_fontEm+0x15fc>)
 800f94c:	499b      	ldr	r1, [pc, #620]	; (800fbbc <_GLOBAL__sub_I__ZN4quan3uav3osd8get_fontEm+0x1600>)
 800f94e:	6003      	str	r3, [r0, #0]
 800f950:	4622      	mov	r2, r4
 800f952:	f004 faf5 	bl	8013f40 <__aeabi_atexit>
 800f956:	489a      	ldr	r0, [pc, #616]	; (800fbc0 <_GLOBAL__sub_I__ZN4quan3uav3osd8get_fontEm+0x1604>)
 800f958:	4b9a      	ldr	r3, [pc, #616]	; (800fbc4 <_GLOBAL__sub_I__ZN4quan3uav3osd8get_fontEm+0x1608>)
 800f95a:	499b      	ldr	r1, [pc, #620]	; (800fbc8 <_GLOBAL__sub_I__ZN4quan3uav3osd8get_fontEm+0x160c>)
 800f95c:	6003      	str	r3, [r0, #0]
 800f95e:	4622      	mov	r2, r4
 800f960:	f004 faee 	bl	8013f40 <__aeabi_atexit>
 800f964:	4899      	ldr	r0, [pc, #612]	; (800fbcc <_GLOBAL__sub_I__ZN4quan3uav3osd8get_fontEm+0x1610>)
 800f966:	4b9a      	ldr	r3, [pc, #616]	; (800fbd0 <_GLOBAL__sub_I__ZN4quan3uav3osd8get_fontEm+0x1614>)
 800f968:	499a      	ldr	r1, [pc, #616]	; (800fbd4 <_GLOBAL__sub_I__ZN4quan3uav3osd8get_fontEm+0x1618>)
 800f96a:	6003      	str	r3, [r0, #0]
 800f96c:	4622      	mov	r2, r4
 800f96e:	f004 fae7 	bl	8013f40 <__aeabi_atexit>
 800f972:	4899      	ldr	r0, [pc, #612]	; (800fbd8 <_GLOBAL__sub_I__ZN4quan3uav3osd8get_fontEm+0x161c>)
 800f974:	4b99      	ldr	r3, [pc, #612]	; (800fbdc <_GLOBAL__sub_I__ZN4quan3uav3osd8get_fontEm+0x1620>)
 800f976:	499a      	ldr	r1, [pc, #616]	; (800fbe0 <_GLOBAL__sub_I__ZN4quan3uav3osd8get_fontEm+0x1624>)
 800f978:	6003      	str	r3, [r0, #0]
 800f97a:	4622      	mov	r2, r4
 800f97c:	f004 fae0 	bl	8013f40 <__aeabi_atexit>
 800f980:	4898      	ldr	r0, [pc, #608]	; (800fbe4 <_GLOBAL__sub_I__ZN4quan3uav3osd8get_fontEm+0x1628>)
 800f982:	4b99      	ldr	r3, [pc, #612]	; (800fbe8 <_GLOBAL__sub_I__ZN4quan3uav3osd8get_fontEm+0x162c>)
 800f984:	4999      	ldr	r1, [pc, #612]	; (800fbec <_GLOBAL__sub_I__ZN4quan3uav3osd8get_fontEm+0x1630>)
 800f986:	6003      	str	r3, [r0, #0]
 800f988:	4622      	mov	r2, r4
 800f98a:	f004 fad9 	bl	8013f40 <__aeabi_atexit>
 800f98e:	4898      	ldr	r0, [pc, #608]	; (800fbf0 <_GLOBAL__sub_I__ZN4quan3uav3osd8get_fontEm+0x1634>)
 800f990:	4b98      	ldr	r3, [pc, #608]	; (800fbf4 <_GLOBAL__sub_I__ZN4quan3uav3osd8get_fontEm+0x1638>)
 800f992:	4999      	ldr	r1, [pc, #612]	; (800fbf8 <_GLOBAL__sub_I__ZN4quan3uav3osd8get_fontEm+0x163c>)
 800f994:	6003      	str	r3, [r0, #0]
 800f996:	4622      	mov	r2, r4
 800f998:	f004 fad2 	bl	8013f40 <__aeabi_atexit>
 800f99c:	4897      	ldr	r0, [pc, #604]	; (800fbfc <_GLOBAL__sub_I__ZN4quan3uav3osd8get_fontEm+0x1640>)
 800f99e:	4b98      	ldr	r3, [pc, #608]	; (800fc00 <_GLOBAL__sub_I__ZN4quan3uav3osd8get_fontEm+0x1644>)
 800f9a0:	4998      	ldr	r1, [pc, #608]	; (800fc04 <_GLOBAL__sub_I__ZN4quan3uav3osd8get_fontEm+0x1648>)
 800f9a2:	6003      	str	r3, [r0, #0]
 800f9a4:	4622      	mov	r2, r4
 800f9a6:	f004 facb 	bl	8013f40 <__aeabi_atexit>
 800f9aa:	4897      	ldr	r0, [pc, #604]	; (800fc08 <_GLOBAL__sub_I__ZN4quan3uav3osd8get_fontEm+0x164c>)
 800f9ac:	4b97      	ldr	r3, [pc, #604]	; (800fc0c <_GLOBAL__sub_I__ZN4quan3uav3osd8get_fontEm+0x1650>)
 800f9ae:	4998      	ldr	r1, [pc, #608]	; (800fc10 <_GLOBAL__sub_I__ZN4quan3uav3osd8get_fontEm+0x1654>)
 800f9b0:	6003      	str	r3, [r0, #0]
 800f9b2:	4622      	mov	r2, r4
 800f9b4:	f004 fac4 	bl	8013f40 <__aeabi_atexit>
 800f9b8:	4896      	ldr	r0, [pc, #600]	; (800fc14 <_GLOBAL__sub_I__ZN4quan3uav3osd8get_fontEm+0x1658>)
 800f9ba:	4b97      	ldr	r3, [pc, #604]	; (800fc18 <_GLOBAL__sub_I__ZN4quan3uav3osd8get_fontEm+0x165c>)
 800f9bc:	4997      	ldr	r1, [pc, #604]	; (800fc1c <_GLOBAL__sub_I__ZN4quan3uav3osd8get_fontEm+0x1660>)
 800f9be:	6003      	str	r3, [r0, #0]
 800f9c0:	4622      	mov	r2, r4
 800f9c2:	f004 fabd 	bl	8013f40 <__aeabi_atexit>
 800f9c6:	4896      	ldr	r0, [pc, #600]	; (800fc20 <_GLOBAL__sub_I__ZN4quan3uav3osd8get_fontEm+0x1664>)
 800f9c8:	4b96      	ldr	r3, [pc, #600]	; (800fc24 <_GLOBAL__sub_I__ZN4quan3uav3osd8get_fontEm+0x1668>)
 800f9ca:	4997      	ldr	r1, [pc, #604]	; (800fc28 <_GLOBAL__sub_I__ZN4quan3uav3osd8get_fontEm+0x166c>)
 800f9cc:	6003      	str	r3, [r0, #0]
 800f9ce:	4622      	mov	r2, r4
 800f9d0:	f004 fab6 	bl	8013f40 <__aeabi_atexit>
 800f9d4:	4895      	ldr	r0, [pc, #596]	; (800fc2c <_GLOBAL__sub_I__ZN4quan3uav3osd8get_fontEm+0x1670>)
 800f9d6:	4b96      	ldr	r3, [pc, #600]	; (800fc30 <_GLOBAL__sub_I__ZN4quan3uav3osd8get_fontEm+0x1674>)
 800f9d8:	4996      	ldr	r1, [pc, #600]	; (800fc34 <_GLOBAL__sub_I__ZN4quan3uav3osd8get_fontEm+0x1678>)
 800f9da:	6003      	str	r3, [r0, #0]
 800f9dc:	4622      	mov	r2, r4
 800f9de:	f004 faaf 	bl	8013f40 <__aeabi_atexit>
 800f9e2:	4895      	ldr	r0, [pc, #596]	; (800fc38 <_GLOBAL__sub_I__ZN4quan3uav3osd8get_fontEm+0x167c>)
 800f9e4:	4b95      	ldr	r3, [pc, #596]	; (800fc3c <_GLOBAL__sub_I__ZN4quan3uav3osd8get_fontEm+0x1680>)
 800f9e6:	4996      	ldr	r1, [pc, #600]	; (800fc40 <_GLOBAL__sub_I__ZN4quan3uav3osd8get_fontEm+0x1684>)
 800f9e8:	6003      	str	r3, [r0, #0]
 800f9ea:	4622      	mov	r2, r4
 800f9ec:	f004 faa8 	bl	8013f40 <__aeabi_atexit>
 800f9f0:	4894      	ldr	r0, [pc, #592]	; (800fc44 <_GLOBAL__sub_I__ZN4quan3uav3osd8get_fontEm+0x1688>)
 800f9f2:	4b95      	ldr	r3, [pc, #596]	; (800fc48 <_GLOBAL__sub_I__ZN4quan3uav3osd8get_fontEm+0x168c>)
 800f9f4:	4995      	ldr	r1, [pc, #596]	; (800fc4c <_GLOBAL__sub_I__ZN4quan3uav3osd8get_fontEm+0x1690>)
 800f9f6:	6003      	str	r3, [r0, #0]
 800f9f8:	4622      	mov	r2, r4
 800f9fa:	f004 faa1 	bl	8013f40 <__aeabi_atexit>
 800f9fe:	4894      	ldr	r0, [pc, #592]	; (800fc50 <_GLOBAL__sub_I__ZN4quan3uav3osd8get_fontEm+0x1694>)
 800fa00:	4b94      	ldr	r3, [pc, #592]	; (800fc54 <_GLOBAL__sub_I__ZN4quan3uav3osd8get_fontEm+0x1698>)
 800fa02:	4995      	ldr	r1, [pc, #596]	; (800fc58 <_GLOBAL__sub_I__ZN4quan3uav3osd8get_fontEm+0x169c>)
 800fa04:	6003      	str	r3, [r0, #0]
 800fa06:	4622      	mov	r2, r4
 800fa08:	f004 fa9a 	bl	8013f40 <__aeabi_atexit>
 800fa0c:	4893      	ldr	r0, [pc, #588]	; (800fc5c <_GLOBAL__sub_I__ZN4quan3uav3osd8get_fontEm+0x16a0>)
 800fa0e:	4b94      	ldr	r3, [pc, #592]	; (800fc60 <_GLOBAL__sub_I__ZN4quan3uav3osd8get_fontEm+0x16a4>)
 800fa10:	4994      	ldr	r1, [pc, #592]	; (800fc64 <_GLOBAL__sub_I__ZN4quan3uav3osd8get_fontEm+0x16a8>)
 800fa12:	6003      	str	r3, [r0, #0]
 800fa14:	4622      	mov	r2, r4
 800fa16:	f004 fa93 	bl	8013f40 <__aeabi_atexit>
 800fa1a:	4893      	ldr	r0, [pc, #588]	; (800fc68 <_GLOBAL__sub_I__ZN4quan3uav3osd8get_fontEm+0x16ac>)
 800fa1c:	4b93      	ldr	r3, [pc, #588]	; (800fc6c <_GLOBAL__sub_I__ZN4quan3uav3osd8get_fontEm+0x16b0>)
 800fa1e:	4994      	ldr	r1, [pc, #592]	; (800fc70 <_GLOBAL__sub_I__ZN4quan3uav3osd8get_fontEm+0x16b4>)
 800fa20:	6003      	str	r3, [r0, #0]
 800fa22:	4622      	mov	r2, r4
 800fa24:	f004 fa8c 	bl	8013f40 <__aeabi_atexit>
 800fa28:	4892      	ldr	r0, [pc, #584]	; (800fc74 <_GLOBAL__sub_I__ZN4quan3uav3osd8get_fontEm+0x16b8>)
 800fa2a:	4b93      	ldr	r3, [pc, #588]	; (800fc78 <_GLOBAL__sub_I__ZN4quan3uav3osd8get_fontEm+0x16bc>)
 800fa2c:	4993      	ldr	r1, [pc, #588]	; (800fc7c <_GLOBAL__sub_I__ZN4quan3uav3osd8get_fontEm+0x16c0>)
 800fa2e:	6003      	str	r3, [r0, #0]
 800fa30:	4622      	mov	r2, r4
 800fa32:	f004 fa85 	bl	8013f40 <__aeabi_atexit>
 800fa36:	4892      	ldr	r0, [pc, #584]	; (800fc80 <_GLOBAL__sub_I__ZN4quan3uav3osd8get_fontEm+0x16c4>)
 800fa38:	4b92      	ldr	r3, [pc, #584]	; (800fc84 <_GLOBAL__sub_I__ZN4quan3uav3osd8get_fontEm+0x16c8>)
 800fa3a:	4993      	ldr	r1, [pc, #588]	; (800fc88 <_GLOBAL__sub_I__ZN4quan3uav3osd8get_fontEm+0x16cc>)
 800fa3c:	6003      	str	r3, [r0, #0]
 800fa3e:	4622      	mov	r2, r4
 800fa40:	f004 fa7e 	bl	8013f40 <__aeabi_atexit>
 800fa44:	4891      	ldr	r0, [pc, #580]	; (800fc8c <_GLOBAL__sub_I__ZN4quan3uav3osd8get_fontEm+0x16d0>)
 800fa46:	4b92      	ldr	r3, [pc, #584]	; (800fc90 <_GLOBAL__sub_I__ZN4quan3uav3osd8get_fontEm+0x16d4>)
 800fa48:	4992      	ldr	r1, [pc, #584]	; (800fc94 <_GLOBAL__sub_I__ZN4quan3uav3osd8get_fontEm+0x16d8>)
 800fa4a:	6003      	str	r3, [r0, #0]
 800fa4c:	4622      	mov	r2, r4
 800fa4e:	f004 fa77 	bl	8013f40 <__aeabi_atexit>
 800fa52:	4891      	ldr	r0, [pc, #580]	; (800fc98 <_GLOBAL__sub_I__ZN4quan3uav3osd8get_fontEm+0x16dc>)
 800fa54:	4b91      	ldr	r3, [pc, #580]	; (800fc9c <_GLOBAL__sub_I__ZN4quan3uav3osd8get_fontEm+0x16e0>)
 800fa56:	4992      	ldr	r1, [pc, #584]	; (800fca0 <_GLOBAL__sub_I__ZN4quan3uav3osd8get_fontEm+0x16e4>)
 800fa58:	6003      	str	r3, [r0, #0]
 800fa5a:	4622      	mov	r2, r4
 800fa5c:	f004 fa70 	bl	8013f40 <__aeabi_atexit>
 800fa60:	4890      	ldr	r0, [pc, #576]	; (800fca4 <_GLOBAL__sub_I__ZN4quan3uav3osd8get_fontEm+0x16e8>)
 800fa62:	4b91      	ldr	r3, [pc, #580]	; (800fca8 <_GLOBAL__sub_I__ZN4quan3uav3osd8get_fontEm+0x16ec>)
 800fa64:	4991      	ldr	r1, [pc, #580]	; (800fcac <_GLOBAL__sub_I__ZN4quan3uav3osd8get_fontEm+0x16f0>)
 800fa66:	6003      	str	r3, [r0, #0]
 800fa68:	4622      	mov	r2, r4
 800fa6a:	f004 fa69 	bl	8013f40 <__aeabi_atexit>
 800fa6e:	4890      	ldr	r0, [pc, #576]	; (800fcb0 <_GLOBAL__sub_I__ZN4quan3uav3osd8get_fontEm+0x16f4>)
 800fa70:	4b90      	ldr	r3, [pc, #576]	; (800fcb4 <_GLOBAL__sub_I__ZN4quan3uav3osd8get_fontEm+0x16f8>)
 800fa72:	4991      	ldr	r1, [pc, #580]	; (800fcb8 <_GLOBAL__sub_I__ZN4quan3uav3osd8get_fontEm+0x16fc>)
 800fa74:	6003      	str	r3, [r0, #0]
 800fa76:	4622      	mov	r2, r4
 800fa78:	f004 fa62 	bl	8013f40 <__aeabi_atexit>
 800fa7c:	488f      	ldr	r0, [pc, #572]	; (800fcbc <_GLOBAL__sub_I__ZN4quan3uav3osd8get_fontEm+0x1700>)
 800fa7e:	4b90      	ldr	r3, [pc, #576]	; (800fcc0 <_GLOBAL__sub_I__ZN4quan3uav3osd8get_fontEm+0x1704>)
 800fa80:	4990      	ldr	r1, [pc, #576]	; (800fcc4 <_GLOBAL__sub_I__ZN4quan3uav3osd8get_fontEm+0x1708>)
 800fa82:	6003      	str	r3, [r0, #0]
 800fa84:	4622      	mov	r2, r4
 800fa86:	f004 fa5b 	bl	8013f40 <__aeabi_atexit>
 800fa8a:	488f      	ldr	r0, [pc, #572]	; (800fcc8 <_GLOBAL__sub_I__ZN4quan3uav3osd8get_fontEm+0x170c>)
 800fa8c:	4b8f      	ldr	r3, [pc, #572]	; (800fccc <_GLOBAL__sub_I__ZN4quan3uav3osd8get_fontEm+0x1710>)
 800fa8e:	4990      	ldr	r1, [pc, #576]	; (800fcd0 <_GLOBAL__sub_I__ZN4quan3uav3osd8get_fontEm+0x1714>)
 800fa90:	6003      	str	r3, [r0, #0]
 800fa92:	4622      	mov	r2, r4
 800fa94:	f004 fa54 	bl	8013f40 <__aeabi_atexit>
 800fa98:	488e      	ldr	r0, [pc, #568]	; (800fcd4 <_GLOBAL__sub_I__ZN4quan3uav3osd8get_fontEm+0x1718>)
 800fa9a:	4b8f      	ldr	r3, [pc, #572]	; (800fcd8 <_GLOBAL__sub_I__ZN4quan3uav3osd8get_fontEm+0x171c>)
 800fa9c:	498f      	ldr	r1, [pc, #572]	; (800fcdc <_GLOBAL__sub_I__ZN4quan3uav3osd8get_fontEm+0x1720>)
 800fa9e:	6003      	str	r3, [r0, #0]
 800faa0:	4622      	mov	r2, r4
 800faa2:	f004 fa4d 	bl	8013f40 <__aeabi_atexit>
 800faa6:	488e      	ldr	r0, [pc, #568]	; (800fce0 <_GLOBAL__sub_I__ZN4quan3uav3osd8get_fontEm+0x1724>)
 800faa8:	4b8e      	ldr	r3, [pc, #568]	; (800fce4 <_GLOBAL__sub_I__ZN4quan3uav3osd8get_fontEm+0x1728>)
 800faaa:	498f      	ldr	r1, [pc, #572]	; (800fce8 <_GLOBAL__sub_I__ZN4quan3uav3osd8get_fontEm+0x172c>)
 800faac:	6003      	str	r3, [r0, #0]
 800faae:	4622      	mov	r2, r4
 800fab0:	f004 fa46 	bl	8013f40 <__aeabi_atexit>
 800fab4:	488d      	ldr	r0, [pc, #564]	; (800fcec <_GLOBAL__sub_I__ZN4quan3uav3osd8get_fontEm+0x1730>)
 800fab6:	4b8e      	ldr	r3, [pc, #568]	; (800fcf0 <_GLOBAL__sub_I__ZN4quan3uav3osd8get_fontEm+0x1734>)
 800fab8:	498e      	ldr	r1, [pc, #568]	; (800fcf4 <_GLOBAL__sub_I__ZN4quan3uav3osd8get_fontEm+0x1738>)
 800faba:	6003      	str	r3, [r0, #0]
 800fabc:	4622      	mov	r2, r4
 800fabe:	f004 fa3f 	bl	8013f40 <__aeabi_atexit>
 800fac2:	488d      	ldr	r0, [pc, #564]	; (800fcf8 <_GLOBAL__sub_I__ZN4quan3uav3osd8get_fontEm+0x173c>)
 800fac4:	4b8d      	ldr	r3, [pc, #564]	; (800fcfc <_GLOBAL__sub_I__ZN4quan3uav3osd8get_fontEm+0x1740>)
 800fac6:	498e      	ldr	r1, [pc, #568]	; (800fd00 <_GLOBAL__sub_I__ZN4quan3uav3osd8get_fontEm+0x1744>)
 800fac8:	6003      	str	r3, [r0, #0]
 800faca:	4622      	mov	r2, r4
 800facc:	f004 fa38 	bl	8013f40 <__aeabi_atexit>
 800fad0:	488c      	ldr	r0, [pc, #560]	; (800fd04 <_GLOBAL__sub_I__ZN4quan3uav3osd8get_fontEm+0x1748>)
 800fad2:	4b8d      	ldr	r3, [pc, #564]	; (800fd08 <_GLOBAL__sub_I__ZN4quan3uav3osd8get_fontEm+0x174c>)
 800fad4:	498d      	ldr	r1, [pc, #564]	; (800fd0c <_GLOBAL__sub_I__ZN4quan3uav3osd8get_fontEm+0x1750>)
 800fad6:	6003      	str	r3, [r0, #0]
 800fad8:	4622      	mov	r2, r4
 800fada:	f004 fa31 	bl	8013f40 <__aeabi_atexit>
 800fade:	488c      	ldr	r0, [pc, #560]	; (800fd10 <_GLOBAL__sub_I__ZN4quan3uav3osd8get_fontEm+0x1754>)
 800fae0:	4b8c      	ldr	r3, [pc, #560]	; (800fd14 <_GLOBAL__sub_I__ZN4quan3uav3osd8get_fontEm+0x1758>)
 800fae2:	498d      	ldr	r1, [pc, #564]	; (800fd18 <_GLOBAL__sub_I__ZN4quan3uav3osd8get_fontEm+0x175c>)
 800fae4:	6003      	str	r3, [r0, #0]
 800fae6:	4622      	mov	r2, r4
 800fae8:	f004 fa2a 	bl	8013f40 <__aeabi_atexit>
 800faec:	488b      	ldr	r0, [pc, #556]	; (800fd1c <_GLOBAL__sub_I__ZN4quan3uav3osd8get_fontEm+0x1760>)
 800faee:	4b8c      	ldr	r3, [pc, #560]	; (800fd20 <_GLOBAL__sub_I__ZN4quan3uav3osd8get_fontEm+0x1764>)
 800faf0:	498c      	ldr	r1, [pc, #560]	; (800fd24 <_GLOBAL__sub_I__ZN4quan3uav3osd8get_fontEm+0x1768>)
 800faf2:	6003      	str	r3, [r0, #0]
 800faf4:	4622      	mov	r2, r4
 800faf6:	f004 fa23 	bl	8013f40 <__aeabi_atexit>
 800fafa:	488b      	ldr	r0, [pc, #556]	; (800fd28 <_GLOBAL__sub_I__ZN4quan3uav3osd8get_fontEm+0x176c>)
 800fafc:	4b8b      	ldr	r3, [pc, #556]	; (800fd2c <_GLOBAL__sub_I__ZN4quan3uav3osd8get_fontEm+0x1770>)
 800fafe:	498c      	ldr	r1, [pc, #560]	; (800fd30 <_GLOBAL__sub_I__ZN4quan3uav3osd8get_fontEm+0x1774>)
 800fb00:	6003      	str	r3, [r0, #0]
 800fb02:	4622      	mov	r2, r4
 800fb04:	f004 fa1c 	bl	8013f40 <__aeabi_atexit>
 800fb08:	e114      	b.n	800fd34 <_GLOBAL__sub_I__ZN4quan3uav3osd8get_fontEm+0x1778>
 800fb0a:	bf00      	nop
 800fb0c:	1000095c 	.word	0x1000095c
 800fb10:	08018eb8 	.word	0x08018eb8
 800fb14:	0800d6bd 	.word	0x0800d6bd
 800fb18:	10000b1c 	.word	0x10000b1c
 800fb1c:	08015a10 	.word	0x08015a10
 800fb20:	0800d6b9 	.word	0x0800d6b9
 800fb24:	10000b38 	.word	0x10000b38
 800fb28:	08018f50 	.word	0x08018f50
 800fb2c:	0800d6b5 	.word	0x0800d6b5
 800fb30:	10000b04 	.word	0x10000b04
 800fb34:	08017a40 	.word	0x08017a40
 800fb38:	0800d6b1 	.word	0x0800d6b1
 800fb3c:	10000b6c 	.word	0x10000b6c
 800fb40:	08018210 	.word	0x08018210
 800fb44:	0800d6ad 	.word	0x0800d6ad
 800fb48:	10000b8c 	.word	0x10000b8c
 800fb4c:	08018668 	.word	0x08018668
 800fb50:	0800d6a9 	.word	0x0800d6a9
 800fb54:	10000b3c 	.word	0x10000b3c
 800fb58:	080177b0 	.word	0x080177b0
 800fb5c:	0800d6a5 	.word	0x0800d6a5
 800fb60:	10000b58 	.word	0x10000b58
 800fb64:	08017b28 	.word	0x08017b28
 800fb68:	0800d6a1 	.word	0x0800d6a1
 800fb6c:	10000b70 	.word	0x10000b70
 800fb70:	08018368 	.word	0x08018368
 800fb74:	0800d69d 	.word	0x0800d69d
 800fb78:	10000b90 	.word	0x10000b90
 800fb7c:	08018718 	.word	0x08018718
 800fb80:	0800d699 	.word	0x0800d699
 800fb84:	10000bb0 	.word	0x10000bb0
 800fb88:	08017190 	.word	0x08017190
 800fb8c:	0800d695 	.word	0x0800d695
 800fb90:	10000bd0 	.word	0x10000bd0
 800fb94:	080156d0 	.word	0x080156d0
 800fb98:	0800d691 	.word	0x0800d691
 800fb9c:	10000bf8 	.word	0x10000bf8
 800fba0:	08015a70 	.word	0x08015a70
 800fba4:	0800d68d 	.word	0x0800d68d
 800fba8:	10000c18 	.word	0x10000c18
 800fbac:	08015f40 	.word	0x08015f40
 800fbb0:	0800d689 	.word	0x0800d689
 800fbb4:	10000c3c 	.word	0x10000c3c
 800fbb8:	080161d8 	.word	0x080161d8
 800fbbc:	0800d685 	.word	0x0800d685
 800fbc0:	10000a9c 	.word	0x10000a9c
 800fbc4:	08016578 	.word	0x08016578
 800fbc8:	0800d681 	.word	0x0800d681
 800fbcc:	10000a0c 	.word	0x10000a0c
 800fbd0:	080188f8 	.word	0x080188f8
 800fbd4:	0800d67d 	.word	0x0800d67d
 800fbd8:	10000a30 	.word	0x10000a30
 800fbdc:	08018d90 	.word	0x08018d90
 800fbe0:	0800d679 	.word	0x0800d679
 800fbe4:	10000a58 	.word	0x10000a58
 800fbe8:	080191a8 	.word	0x080191a8
 800fbec:	0800d675 	.word	0x0800d675
 800fbf0:	10000a7c 	.word	0x10000a7c
 800fbf4:	08019490 	.word	0x08019490
 800fbf8:	0800d671 	.word	0x0800d671
 800fbfc:	10000aa0 	.word	0x10000aa0
 800fc00:	08019950 	.word	0x08019950
 800fc04:	0800d66d 	.word	0x0800d66d
 800fc08:	10000ab4 	.word	0x10000ab4
 800fc0c:	080163a0 	.word	0x080163a0
 800fc10:	0800d669 	.word	0x0800d669
 800fc14:	10000ad8 	.word	0x10000ad8
 800fc18:	08016790 	.word	0x08016790
 800fc1c:	0800d665 	.word	0x0800d665
 800fc20:	10000afc 	.word	0x10000afc
 800fc24:	08016bb8 	.word	0x08016bb8
 800fc28:	0800d661 	.word	0x0800d661
 800fc2c:	10000b10 	.word	0x10000b10
 800fc30:	08016fa0 	.word	0x08016fa0
 800fc34:	0800d65d 	.word	0x0800d65d
 800fc38:	10000b28 	.word	0x10000b28
 800fc3c:	080173f0 	.word	0x080173f0
 800fc40:	0800d659 	.word	0x0800d659
 800fc44:	10000ae0 	.word	0x10000ae0
 800fc48:	08016920 	.word	0x08016920
 800fc4c:	0800d655 	.word	0x0800d655
 800fc50:	10000a78 	.word	0x10000a78
 800fc54:	08016c80 	.word	0x08016c80
 800fc58:	0800d651 	.word	0x0800d651
 800fc5c:	10000b18 	.word	0x10000b18
 800fc60:	08017178 	.word	0x08017178
 800fc64:	0800d64d 	.word	0x0800d64d
 800fc68:	10000b30 	.word	0x10000b30
 800fc6c:	080191f0 	.word	0x080191f0
 800fc70:	0800d649 	.word	0x0800d649
 800fc74:	10000b50 	.word	0x10000b50
 800fc78:	080195c0 	.word	0x080195c0
 800fc7c:	0800d645 	.word	0x0800d645
 800fc80:	10000b9c 	.word	0x10000b9c
 800fc84:	08018140 	.word	0x08018140
 800fc88:	0800d641 	.word	0x0800d641
 800fc8c:	10000b84 	.word	0x10000b84
 800fc90:	080149f8 	.word	0x080149f8
 800fc94:	0800d63d 	.word	0x0800d63d
 800fc98:	10000ba4 	.word	0x10000ba4
 800fc9c:	08014e80 	.word	0x08014e80
 800fca0:	0800d639 	.word	0x0800d639
 800fca4:	10000bc4 	.word	0x10000bc4
 800fca8:	08015320 	.word	0x08015320
 800fcac:	0800d635 	.word	0x0800d635
 800fcb0:	10000be8 	.word	0x10000be8
 800fcb4:	08018380 	.word	0x08018380
 800fcb8:	0800d631 	.word	0x0800d631
 800fcbc:	10000c5c 	.word	0x10000c5c
 800fcc0:	08014b48 	.word	0x08014b48
 800fcc4:	0800d62d 	.word	0x0800d62d
 800fcc8:	10000bac 	.word	0x10000bac
 800fccc:	08016980 	.word	0x08016980
 800fcd0:	0800d629 	.word	0x0800d629
 800fcd4:	10000bcc 	.word	0x10000bcc
 800fcd8:	08016da8 	.word	0x08016da8
 800fcdc:	0800d625 	.word	0x0800d625
 800fce0:	10000bf0 	.word	0x10000bf0
 800fce4:	08016370 	.word	0x08016370
 800fce8:	0800d621 	.word	0x0800d621
 800fcec:	10000904 	.word	0x10000904
 800fcf0:	08017560 	.word	0x08017560
 800fcf4:	0800d61d 	.word	0x0800d61d
 800fcf8:	10000c34 	.word	0x10000c34
 800fcfc:	08014f08 	.word	0x08014f08
 800fd00:	0800d619 	.word	0x0800d619
 800fd04:	10000c4c 	.word	0x10000c4c
 800fd08:	08015138 	.word	0x08015138
 800fd0c:	0800d615 	.word	0x0800d615
 800fd10:	100009e4 	.word	0x100009e4
 800fd14:	080184a0 	.word	0x080184a0
 800fd18:	0800d611 	.word	0x0800d611
 800fd1c:	10000894 	.word	0x10000894
 800fd20:	08018878 	.word	0x08018878
 800fd24:	0800d60d 	.word	0x0800d60d
 800fd28:	100008b8 	.word	0x100008b8
 800fd2c:	08018d30 	.word	0x08018d30
 800fd30:	0800d609 	.word	0x0800d609
 800fd34:	485f      	ldr	r0, [pc, #380]	; (800feb4 <_GLOBAL__sub_I__ZN4quan3uav3osd8get_fontEm+0x18f8>)
 800fd36:	4b60      	ldr	r3, [pc, #384]	; (800feb8 <_GLOBAL__sub_I__ZN4quan3uav3osd8get_fontEm+0x18fc>)
 800fd38:	4960      	ldr	r1, [pc, #384]	; (800febc <_GLOBAL__sub_I__ZN4quan3uav3osd8get_fontEm+0x1900>)
 800fd3a:	6003      	str	r3, [r0, #0]
 800fd3c:	4622      	mov	r2, r4
 800fd3e:	f004 f8ff 	bl	8013f40 <__aeabi_atexit>
 800fd42:	485f      	ldr	r0, [pc, #380]	; (800fec0 <_GLOBAL__sub_I__ZN4quan3uav3osd8get_fontEm+0x1904>)
 800fd44:	4b5f      	ldr	r3, [pc, #380]	; (800fec4 <_GLOBAL__sub_I__ZN4quan3uav3osd8get_fontEm+0x1908>)
 800fd46:	4960      	ldr	r1, [pc, #384]	; (800fec8 <_GLOBAL__sub_I__ZN4quan3uav3osd8get_fontEm+0x190c>)
 800fd48:	6003      	str	r3, [r0, #0]
 800fd4a:	4622      	mov	r2, r4
 800fd4c:	f004 f8f8 	bl	8013f40 <__aeabi_atexit>
 800fd50:	485e      	ldr	r0, [pc, #376]	; (800fecc <_GLOBAL__sub_I__ZN4quan3uav3osd8get_fontEm+0x1910>)
 800fd52:	4b5f      	ldr	r3, [pc, #380]	; (800fed0 <_GLOBAL__sub_I__ZN4quan3uav3osd8get_fontEm+0x1914>)
 800fd54:	495f      	ldr	r1, [pc, #380]	; (800fed4 <_GLOBAL__sub_I__ZN4quan3uav3osd8get_fontEm+0x1918>)
 800fd56:	6003      	str	r3, [r0, #0]
 800fd58:	4622      	mov	r2, r4
 800fd5a:	f004 f8f1 	bl	8013f40 <__aeabi_atexit>
 800fd5e:	485e      	ldr	r0, [pc, #376]	; (800fed8 <_GLOBAL__sub_I__ZN4quan3uav3osd8get_fontEm+0x191c>)
 800fd60:	4b5e      	ldr	r3, [pc, #376]	; (800fedc <_GLOBAL__sub_I__ZN4quan3uav3osd8get_fontEm+0x1920>)
 800fd62:	495f      	ldr	r1, [pc, #380]	; (800fee0 <_GLOBAL__sub_I__ZN4quan3uav3osd8get_fontEm+0x1924>)
 800fd64:	6003      	str	r3, [r0, #0]
 800fd66:	4622      	mov	r2, r4
 800fd68:	f004 f8ea 	bl	8013f40 <__aeabi_atexit>
 800fd6c:	485d      	ldr	r0, [pc, #372]	; (800fee4 <_GLOBAL__sub_I__ZN4quan3uav3osd8get_fontEm+0x1928>)
 800fd6e:	4b5e      	ldr	r3, [pc, #376]	; (800fee8 <_GLOBAL__sub_I__ZN4quan3uav3osd8get_fontEm+0x192c>)
 800fd70:	495e      	ldr	r1, [pc, #376]	; (800feec <_GLOBAL__sub_I__ZN4quan3uav3osd8get_fontEm+0x1930>)
 800fd72:	6003      	str	r3, [r0, #0]
 800fd74:	4622      	mov	r2, r4
 800fd76:	f004 f8e3 	bl	8013f40 <__aeabi_atexit>
 800fd7a:	485d      	ldr	r0, [pc, #372]	; (800fef0 <_GLOBAL__sub_I__ZN4quan3uav3osd8get_fontEm+0x1934>)
 800fd7c:	4b5d      	ldr	r3, [pc, #372]	; (800fef4 <_GLOBAL__sub_I__ZN4quan3uav3osd8get_fontEm+0x1938>)
 800fd7e:	495e      	ldr	r1, [pc, #376]	; (800fef8 <_GLOBAL__sub_I__ZN4quan3uav3osd8get_fontEm+0x193c>)
 800fd80:	6003      	str	r3, [r0, #0]
 800fd82:	4622      	mov	r2, r4
 800fd84:	f004 f8dc 	bl	8013f40 <__aeabi_atexit>
 800fd88:	485c      	ldr	r0, [pc, #368]	; (800fefc <_GLOBAL__sub_I__ZN4quan3uav3osd8get_fontEm+0x1940>)
 800fd8a:	4b5d      	ldr	r3, [pc, #372]	; (800ff00 <_GLOBAL__sub_I__ZN4quan3uav3osd8get_fontEm+0x1944>)
 800fd8c:	495d      	ldr	r1, [pc, #372]	; (800ff04 <_GLOBAL__sub_I__ZN4quan3uav3osd8get_fontEm+0x1948>)
 800fd8e:	6003      	str	r3, [r0, #0]
 800fd90:	4622      	mov	r2, r4
 800fd92:	f004 f8d5 	bl	8013f40 <__aeabi_atexit>
 800fd96:	485c      	ldr	r0, [pc, #368]	; (800ff08 <_GLOBAL__sub_I__ZN4quan3uav3osd8get_fontEm+0x194c>)
 800fd98:	4b5c      	ldr	r3, [pc, #368]	; (800ff0c <_GLOBAL__sub_I__ZN4quan3uav3osd8get_fontEm+0x1950>)
 800fd9a:	495d      	ldr	r1, [pc, #372]	; (800ff10 <_GLOBAL__sub_I__ZN4quan3uav3osd8get_fontEm+0x1954>)
 800fd9c:	6003      	str	r3, [r0, #0]
 800fd9e:	4622      	mov	r2, r4
 800fda0:	f004 f8ce 	bl	8013f40 <__aeabi_atexit>
 800fda4:	485b      	ldr	r0, [pc, #364]	; (800ff14 <_GLOBAL__sub_I__ZN4quan3uav3osd8get_fontEm+0x1958>)
 800fda6:	4b5c      	ldr	r3, [pc, #368]	; (800ff18 <_GLOBAL__sub_I__ZN4quan3uav3osd8get_fontEm+0x195c>)
 800fda8:	495c      	ldr	r1, [pc, #368]	; (800ff1c <_GLOBAL__sub_I__ZN4quan3uav3osd8get_fontEm+0x1960>)
 800fdaa:	6003      	str	r3, [r0, #0]
 800fdac:	4622      	mov	r2, r4
 800fdae:	f004 f8c7 	bl	8013f40 <__aeabi_atexit>
 800fdb2:	485b      	ldr	r0, [pc, #364]	; (800ff20 <_GLOBAL__sub_I__ZN4quan3uav3osd8get_fontEm+0x1964>)
 800fdb4:	4b5b      	ldr	r3, [pc, #364]	; (800ff24 <_GLOBAL__sub_I__ZN4quan3uav3osd8get_fontEm+0x1968>)
 800fdb6:	495c      	ldr	r1, [pc, #368]	; (800ff28 <_GLOBAL__sub_I__ZN4quan3uav3osd8get_fontEm+0x196c>)
 800fdb8:	6003      	str	r3, [r0, #0]
 800fdba:	4622      	mov	r2, r4
 800fdbc:	f004 f8c0 	bl	8013f40 <__aeabi_atexit>
 800fdc0:	485a      	ldr	r0, [pc, #360]	; (800ff2c <_GLOBAL__sub_I__ZN4quan3uav3osd8get_fontEm+0x1970>)
 800fdc2:	4b5b      	ldr	r3, [pc, #364]	; (800ff30 <_GLOBAL__sub_I__ZN4quan3uav3osd8get_fontEm+0x1974>)
 800fdc4:	495b      	ldr	r1, [pc, #364]	; (800ff34 <_GLOBAL__sub_I__ZN4quan3uav3osd8get_fontEm+0x1978>)
 800fdc6:	6003      	str	r3, [r0, #0]
 800fdc8:	4622      	mov	r2, r4
 800fdca:	f004 f8b9 	bl	8013f40 <__aeabi_atexit>
 800fdce:	485a      	ldr	r0, [pc, #360]	; (800ff38 <_GLOBAL__sub_I__ZN4quan3uav3osd8get_fontEm+0x197c>)
 800fdd0:	4b5a      	ldr	r3, [pc, #360]	; (800ff3c <_GLOBAL__sub_I__ZN4quan3uav3osd8get_fontEm+0x1980>)
 800fdd2:	495b      	ldr	r1, [pc, #364]	; (800ff40 <_GLOBAL__sub_I__ZN4quan3uav3osd8get_fontEm+0x1984>)
 800fdd4:	6003      	str	r3, [r0, #0]
 800fdd6:	4622      	mov	r2, r4
 800fdd8:	f004 f8b2 	bl	8013f40 <__aeabi_atexit>
 800fddc:	4859      	ldr	r0, [pc, #356]	; (800ff44 <_GLOBAL__sub_I__ZN4quan3uav3osd8get_fontEm+0x1988>)
 800fdde:	4b5a      	ldr	r3, [pc, #360]	; (800ff48 <_GLOBAL__sub_I__ZN4quan3uav3osd8get_fontEm+0x198c>)
 800fde0:	495a      	ldr	r1, [pc, #360]	; (800ff4c <_GLOBAL__sub_I__ZN4quan3uav3osd8get_fontEm+0x1990>)
 800fde2:	6003      	str	r3, [r0, #0]
 800fde4:	4622      	mov	r2, r4
 800fde6:	f004 f8ab 	bl	8013f40 <__aeabi_atexit>
 800fdea:	4859      	ldr	r0, [pc, #356]	; (800ff50 <_GLOBAL__sub_I__ZN4quan3uav3osd8get_fontEm+0x1994>)
 800fdec:	4b59      	ldr	r3, [pc, #356]	; (800ff54 <_GLOBAL__sub_I__ZN4quan3uav3osd8get_fontEm+0x1998>)
 800fdee:	495a      	ldr	r1, [pc, #360]	; (800ff58 <_GLOBAL__sub_I__ZN4quan3uav3osd8get_fontEm+0x199c>)
 800fdf0:	6003      	str	r3, [r0, #0]
 800fdf2:	4622      	mov	r2, r4
 800fdf4:	f004 f8a4 	bl	8013f40 <__aeabi_atexit>
 800fdf8:	4858      	ldr	r0, [pc, #352]	; (800ff5c <_GLOBAL__sub_I__ZN4quan3uav3osd8get_fontEm+0x19a0>)
 800fdfa:	4b59      	ldr	r3, [pc, #356]	; (800ff60 <_GLOBAL__sub_I__ZN4quan3uav3osd8get_fontEm+0x19a4>)
 800fdfc:	4959      	ldr	r1, [pc, #356]	; (800ff64 <_GLOBAL__sub_I__ZN4quan3uav3osd8get_fontEm+0x19a8>)
 800fdfe:	6003      	str	r3, [r0, #0]
 800fe00:	4622      	mov	r2, r4
 800fe02:	f004 f89d 	bl	8013f40 <__aeabi_atexit>
 800fe06:	4858      	ldr	r0, [pc, #352]	; (800ff68 <_GLOBAL__sub_I__ZN4quan3uav3osd8get_fontEm+0x19ac>)
 800fe08:	4b58      	ldr	r3, [pc, #352]	; (800ff6c <_GLOBAL__sub_I__ZN4quan3uav3osd8get_fontEm+0x19b0>)
 800fe0a:	4959      	ldr	r1, [pc, #356]	; (800ff70 <_GLOBAL__sub_I__ZN4quan3uav3osd8get_fontEm+0x19b4>)
 800fe0c:	6003      	str	r3, [r0, #0]
 800fe0e:	4622      	mov	r2, r4
 800fe10:	f004 f896 	bl	8013f40 <__aeabi_atexit>
 800fe14:	4857      	ldr	r0, [pc, #348]	; (800ff74 <_GLOBAL__sub_I__ZN4quan3uav3osd8get_fontEm+0x19b8>)
 800fe16:	4b58      	ldr	r3, [pc, #352]	; (800ff78 <_GLOBAL__sub_I__ZN4quan3uav3osd8get_fontEm+0x19bc>)
 800fe18:	4958      	ldr	r1, [pc, #352]	; (800ff7c <_GLOBAL__sub_I__ZN4quan3uav3osd8get_fontEm+0x19c0>)
 800fe1a:	6003      	str	r3, [r0, #0]
 800fe1c:	4622      	mov	r2, r4
 800fe1e:	f004 f88f 	bl	8013f40 <__aeabi_atexit>
 800fe22:	4857      	ldr	r0, [pc, #348]	; (800ff80 <_GLOBAL__sub_I__ZN4quan3uav3osd8get_fontEm+0x19c4>)
 800fe24:	4b57      	ldr	r3, [pc, #348]	; (800ff84 <_GLOBAL__sub_I__ZN4quan3uav3osd8get_fontEm+0x19c8>)
 800fe26:	4958      	ldr	r1, [pc, #352]	; (800ff88 <_GLOBAL__sub_I__ZN4quan3uav3osd8get_fontEm+0x19cc>)
 800fe28:	6003      	str	r3, [r0, #0]
 800fe2a:	4622      	mov	r2, r4
 800fe2c:	f004 f888 	bl	8013f40 <__aeabi_atexit>
 800fe30:	4856      	ldr	r0, [pc, #344]	; (800ff8c <_GLOBAL__sub_I__ZN4quan3uav3osd8get_fontEm+0x19d0>)
 800fe32:	4b57      	ldr	r3, [pc, #348]	; (800ff90 <_GLOBAL__sub_I__ZN4quan3uav3osd8get_fontEm+0x19d4>)
 800fe34:	4957      	ldr	r1, [pc, #348]	; (800ff94 <_GLOBAL__sub_I__ZN4quan3uav3osd8get_fontEm+0x19d8>)
 800fe36:	6003      	str	r3, [r0, #0]
 800fe38:	4622      	mov	r2, r4
 800fe3a:	f004 f881 	bl	8013f40 <__aeabi_atexit>
 800fe3e:	4856      	ldr	r0, [pc, #344]	; (800ff98 <_GLOBAL__sub_I__ZN4quan3uav3osd8get_fontEm+0x19dc>)
 800fe40:	4b56      	ldr	r3, [pc, #344]	; (800ff9c <_GLOBAL__sub_I__ZN4quan3uav3osd8get_fontEm+0x19e0>)
 800fe42:	4957      	ldr	r1, [pc, #348]	; (800ffa0 <_GLOBAL__sub_I__ZN4quan3uav3osd8get_fontEm+0x19e4>)
 800fe44:	6003      	str	r3, [r0, #0]
 800fe46:	4622      	mov	r2, r4
 800fe48:	f004 f87a 	bl	8013f40 <__aeabi_atexit>
 800fe4c:	4855      	ldr	r0, [pc, #340]	; (800ffa4 <_GLOBAL__sub_I__ZN4quan3uav3osd8get_fontEm+0x19e8>)
 800fe4e:	4b56      	ldr	r3, [pc, #344]	; (800ffa8 <_GLOBAL__sub_I__ZN4quan3uav3osd8get_fontEm+0x19ec>)
 800fe50:	4956      	ldr	r1, [pc, #344]	; (800ffac <_GLOBAL__sub_I__ZN4quan3uav3osd8get_fontEm+0x19f0>)
 800fe52:	6003      	str	r3, [r0, #0]
 800fe54:	4622      	mov	r2, r4
 800fe56:	f004 f873 	bl	8013f40 <__aeabi_atexit>
 800fe5a:	4855      	ldr	r0, [pc, #340]	; (800ffb0 <_GLOBAL__sub_I__ZN4quan3uav3osd8get_fontEm+0x19f4>)
 800fe5c:	4b55      	ldr	r3, [pc, #340]	; (800ffb4 <_GLOBAL__sub_I__ZN4quan3uav3osd8get_fontEm+0x19f8>)
 800fe5e:	4956      	ldr	r1, [pc, #344]	; (800ffb8 <_GLOBAL__sub_I__ZN4quan3uav3osd8get_fontEm+0x19fc>)
 800fe60:	6003      	str	r3, [r0, #0]
 800fe62:	4622      	mov	r2, r4
 800fe64:	f004 f86c 	bl	8013f40 <__aeabi_atexit>
 800fe68:	4854      	ldr	r0, [pc, #336]	; (800ffbc <_GLOBAL__sub_I__ZN4quan3uav3osd8get_fontEm+0x1a00>)
 800fe6a:	4b55      	ldr	r3, [pc, #340]	; (800ffc0 <_GLOBAL__sub_I__ZN4quan3uav3osd8get_fontEm+0x1a04>)
 800fe6c:	4955      	ldr	r1, [pc, #340]	; (800ffc4 <_GLOBAL__sub_I__ZN4quan3uav3osd8get_fontEm+0x1a08>)
 800fe6e:	6003      	str	r3, [r0, #0]
 800fe70:	4622      	mov	r2, r4
 800fe72:	f004 f865 	bl	8013f40 <__aeabi_atexit>
 800fe76:	4854      	ldr	r0, [pc, #336]	; (800ffc8 <_GLOBAL__sub_I__ZN4quan3uav3osd8get_fontEm+0x1a0c>)
 800fe78:	4b54      	ldr	r3, [pc, #336]	; (800ffcc <_GLOBAL__sub_I__ZN4quan3uav3osd8get_fontEm+0x1a10>)
 800fe7a:	4955      	ldr	r1, [pc, #340]	; (800ffd0 <_GLOBAL__sub_I__ZN4quan3uav3osd8get_fontEm+0x1a14>)
 800fe7c:	6003      	str	r3, [r0, #0]
 800fe7e:	4622      	mov	r2, r4
 800fe80:	f004 f85e 	bl	8013f40 <__aeabi_atexit>
 800fe84:	4853      	ldr	r0, [pc, #332]	; (800ffd4 <_GLOBAL__sub_I__ZN4quan3uav3osd8get_fontEm+0x1a18>)
 800fe86:	4b54      	ldr	r3, [pc, #336]	; (800ffd8 <_GLOBAL__sub_I__ZN4quan3uav3osd8get_fontEm+0x1a1c>)
 800fe88:	4954      	ldr	r1, [pc, #336]	; (800ffdc <_GLOBAL__sub_I__ZN4quan3uav3osd8get_fontEm+0x1a20>)
 800fe8a:	6003      	str	r3, [r0, #0]
 800fe8c:	4622      	mov	r2, r4
 800fe8e:	f004 f857 	bl	8013f40 <__aeabi_atexit>
 800fe92:	4853      	ldr	r0, [pc, #332]	; (800ffe0 <_GLOBAL__sub_I__ZN4quan3uav3osd8get_fontEm+0x1a24>)
 800fe94:	4b53      	ldr	r3, [pc, #332]	; (800ffe4 <_GLOBAL__sub_I__ZN4quan3uav3osd8get_fontEm+0x1a28>)
 800fe96:	4954      	ldr	r1, [pc, #336]	; (800ffe8 <_GLOBAL__sub_I__ZN4quan3uav3osd8get_fontEm+0x1a2c>)
 800fe98:	6003      	str	r3, [r0, #0]
 800fe9a:	4622      	mov	r2, r4
 800fe9c:	f004 f850 	bl	8013f40 <__aeabi_atexit>
 800fea0:	4852      	ldr	r0, [pc, #328]	; (800ffec <_GLOBAL__sub_I__ZN4quan3uav3osd8get_fontEm+0x1a30>)
 800fea2:	4b53      	ldr	r3, [pc, #332]	; (800fff0 <_GLOBAL__sub_I__ZN4quan3uav3osd8get_fontEm+0x1a34>)
 800fea4:	4953      	ldr	r1, [pc, #332]	; (800fff4 <_GLOBAL__sub_I__ZN4quan3uav3osd8get_fontEm+0x1a38>)
 800fea6:	6003      	str	r3, [r0, #0]
 800fea8:	4622      	mov	r2, r4
 800feaa:	e8bd 4010 	ldmia.w	sp!, {r4, lr}
 800feae:	f004 b847 	b.w	8013f40 <__aeabi_atexit>
 800feb2:	bf00      	nop
 800feb4:	10000c54 	.word	0x10000c54
 800feb8:	08019bb0 	.word	0x08019bb0
 800febc:	0800d605 	.word	0x0800d605
 800fec0:	10000874 	.word	0x10000874
 800fec4:	08014c00 	.word	0x08014c00
 800fec8:	0800d601 	.word	0x0800d601
 800fecc:	10000898 	.word	0x10000898
 800fed0:	080150d0 	.word	0x080150d0
 800fed4:	0800d5fd 	.word	0x0800d5fd
 800fed8:	100008c0 	.word	0x100008c0
 800fedc:	080154b0 	.word	0x080154b0
 800fee0:	0800d5f9 	.word	0x0800d5f9
 800fee4:	100008e8 	.word	0x100008e8
 800fee8:	08018910 	.word	0x08018910
 800feec:	0800d5f5 	.word	0x0800d5f5
 800fef0:	10000908 	.word	0x10000908
 800fef4:	08015d28 	.word	0x08015d28
 800fef8:	0800d5f1 	.word	0x0800d5f1
 800fefc:	10000928 	.word	0x10000928
 800ff00:	08016120 	.word	0x08016120
 800ff04:	0800d5ed 	.word	0x0800d5ed
 800ff08:	10000950 	.word	0x10000950
 800ff0c:	080163e8 	.word	0x080163e8
 800ff10:	0800d5e9 	.word	0x0800d5e9
 800ff14:	10000a14 	.word	0x10000a14
 800ff18:	080168a0 	.word	0x080168a0
 800ff1c:	0800d5e5 	.word	0x0800d5e5
 800ff20:	100009a0 	.word	0x100009a0
 800ff24:	08016c00 	.word	0x08016c00
 800ff28:	0800d5e1 	.word	0x0800d5e1
 800ff2c:	10000934 	.word	0x10000934
 800ff30:	08017aa8 	.word	0x08017aa8
 800ff34:	0800d5dd 	.word	0x0800d5dd
 800ff38:	10000b74 	.word	0x10000b74
 800ff3c:	08015738 	.word	0x08015738
 800ff40:	0800d5d9 	.word	0x0800d5d9
 800ff44:	1000097c 	.word	0x1000097c
 800ff48:	08018698 	.word	0x08018698
 800ff4c:	0800d5d5 	.word	0x0800d5d5
 800ff50:	100009a8 	.word	0x100009a8
 800ff54:	08018a50 	.word	0x08018a50
 800ff58:	0800d5d1 	.word	0x0800d5d1
 800ff5c:	100009cc 	.word	0x100009cc
 800ff60:	08018f20 	.word	0x08018f20
 800ff64:	0800d5cd 	.word	0x0800d5cd
 800ff68:	100009ec 	.word	0x100009ec
 800ff6c:	08019270 	.word	0x08019270
 800ff70:	0800d5c9 	.word	0x0800d5c9
 800ff74:	100008c4 	.word	0x100008c4
 800ff78:	080196e8 	.word	0x080196e8
 800ff7c:	0800d5c5 	.word	0x0800d5c5
 800ff80:	10000a34 	.word	0x10000a34
 800ff84:	08019aa8 	.word	0x08019aa8
 800ff88:	0800d5c1 	.word	0x0800d5c1
 800ff8c:	10000a5c 	.word	0x10000a5c
 800ff90:	08014b18 	.word	0x08014b18
 800ff94:	0800d5bd 	.word	0x0800d5bd
 800ff98:	10000a80 	.word	0x10000a80
 800ff9c:	08014f20 	.word	0x08014f20
 800ffa0:	0800d5b9 	.word	0x0800d5b9
 800ffa4:	100008cc 	.word	0x100008cc
 800ffa8:	08015f28 	.word	0x08015f28
 800ffac:	0800d5b5 	.word	0x0800d5b5
 800ffb0:	10000a3c 	.word	0x10000a3c
 800ffb4:	080169d0 	.word	0x080169d0
 800ffb8:	0800d5b1 	.word	0x0800d5b1
 800ffbc:	10000a64 	.word	0x10000a64
 800ffc0:	080165e0 	.word	0x080165e0
 800ffc4:	0800d5ad 	.word	0x0800d5ad
 800ffc8:	10000a88 	.word	0x10000a88
 800ffcc:	08016138 	.word	0x08016138
 800ffd0:	0800d5a9 	.word	0x0800d5a9
 800ffd4:	100009f4 	.word	0x100009f4
 800ffd8:	08015280 	.word	0x08015280
 800ffdc:	0800d5a5 	.word	0x0800d5a5
 800ffe0:	10000abc 	.word	0x10000abc
 800ffe4:	080172e8 	.word	0x080172e8
 800ffe8:	0800d5a1 	.word	0x0800d5a1
 800ffec:	10000a04 	.word	0x10000a04
 800fff0:	08017028 	.word	0x08017028
 800fff4:	0800d59d 	.word	0x0800d59d

0800fff8 <_ZN4quan3uav3osd9draw_textEPKcRKNS_5two_d4vectIlEEPKNS1_10basic_fontE>:
 800fff8:	b5f0      	push	{r4, r5, r6, r7, lr}
 800fffa:	4615      	mov	r5, r2
 800fffc:	b085      	sub	sp, #20
 800fffe:	b1d2      	cbz	r2, 8010036 <_ZN4quan3uav3osd9draw_textEPKcRKNS_5two_d4vectIlEEPKNS1_10basic_fontE+0x3e>
 8010000:	4604      	mov	r4, r0
 8010002:	b1c0      	cbz	r0, 8010036 <_ZN4quan3uav3osd9draw_textEPKcRKNS_5two_d4vectIlEEPKNS1_10basic_fontE+0x3e>
 8010004:	c903      	ldmia	r1, {r0, r1}
 8010006:	e88d 0003 	stmia.w	sp, {r0, r1}
 801000a:	4611      	mov	r1, r2
 801000c:	a802      	add	r0, sp, #8
 801000e:	f002 f9ab 	bl	8012368 <_ZN4quan3uav3osd8get_sizeEPKNS1_10basic_fontE>
 8010012:	7821      	ldrb	r1, [r4, #0]
 8010014:	466e      	mov	r6, sp
 8010016:	b171      	cbz	r1, 8010036 <_ZN4quan3uav3osd9draw_textEPKcRKNS_5two_d4vectIlEEPKNS1_10basic_fontE+0x3e>
 8010018:	9f02      	ldr	r7, [sp, #8]
 801001a:	4628      	mov	r0, r5
 801001c:	f002 f9b4 	bl	8012388 <_ZN4quan3uav3osd8get_charEPKNS1_10basic_fontEl>
 8010020:	4631      	mov	r1, r6
 8010022:	b108      	cbz	r0, 8010028 <_ZN4quan3uav3osd9draw_textEPKcRKNS_5two_d4vectIlEEPKNS1_10basic_fontE+0x30>
 8010024:	f000 f80a 	bl	801003c <_ZN4quan3uav3osd11draw_bitmapEPKNS1_12basic_bitmapERKNS_5two_d4vectIlEE>
 8010028:	9b00      	ldr	r3, [sp, #0]
 801002a:	f814 1f01 	ldrb.w	r1, [r4, #1]!
 801002e:	443b      	add	r3, r7
 8010030:	9300      	str	r3, [sp, #0]
 8010032:	2900      	cmp	r1, #0
 8010034:	d1f1      	bne.n	801001a <_ZN4quan3uav3osd9draw_textEPKcRKNS_5two_d4vectIlEEPKNS1_10basic_fontE+0x22>
 8010036:	b005      	add	sp, #20
 8010038:	bdf0      	pop	{r4, r5, r6, r7, pc}
 801003a:	bf00      	nop

0801003c <_ZN4quan3uav3osd11draw_bitmapEPKNS1_12basic_bitmapERKNS_5two_d4vectIlEE>:
 801003c:	2800      	cmp	r0, #0
 801003e:	d03d      	beq.n	80100bc <_ZN4quan3uav3osd11draw_bitmapEPKNS1_12basic_bitmapERKNS_5two_d4vectIlEE+0x80>
 8010040:	e92d 43f0 	stmdb	sp!, {r4, r5, r6, r7, r8, r9, lr}
 8010044:	4607      	mov	r7, r0
 8010046:	b087      	sub	sp, #28
 8010048:	460c      	mov	r4, r1
 801004a:	4668      	mov	r0, sp
 801004c:	4639      	mov	r1, r7
 801004e:	f002 f99f 	bl	8012390 <_ZN4quan3uav3osd8get_sizeEPKNS1_12basic_bitmapE>
 8010052:	e894 000c 	ldmia.w	r4, {r2, r3}
 8010056:	f8dd 8004 	ldr.w	r8, [sp, #4]
 801005a:	9204      	str	r2, [sp, #16]
 801005c:	4443      	add	r3, r8
 801005e:	a802      	add	r0, sp, #8
 8010060:	a904      	add	r1, sp, #16
 8010062:	9305      	str	r3, [sp, #20]
 8010064:	9e00      	ldr	r6, [sp, #0]
 8010066:	f002 f905 	bl	8012274 <_ZN4quan3uav3osd16transform_to_rawERKNS_5two_d4vectIlEE>
 801006a:	f1b8 0f00 	cmp.w	r8, #0
 801006e:	f8dd 9008 	ldr.w	r9, [sp, #8]
 8010072:	dd20      	ble.n	80100b6 <_ZN4quan3uav3osd11draw_bitmapEPKNS1_12basic_bitmapERKNS_5two_d4vectIlEE+0x7a>
 8010074:	2500      	movs	r5, #0
 8010076:	2e00      	cmp	r6, #0
 8010078:	f8cd 9008 	str.w	r9, [sp, #8]
 801007c:	bfc8      	it	gt
 801007e:	2400      	movgt	r4, #0
 8010080:	dd13      	ble.n	80100aa <_ZN4quan3uav3osd11draw_bitmapEPKNS1_12basic_bitmapERKNS_5two_d4vectIlEE+0x6e>
 8010082:	a904      	add	r1, sp, #16
 8010084:	4638      	mov	r0, r7
 8010086:	9404      	str	r4, [sp, #16]
 8010088:	9505      	str	r5, [sp, #20]
 801008a:	f002 f945 	bl	8012318 <_ZN4quan3uav3osd13get_pixel_rawEPKNS1_12basic_bitmapERKNS_5two_d4vectIlEE>
 801008e:	2803      	cmp	r0, #3
 8010090:	4601      	mov	r1, r0
 8010092:	f104 0401 	add.w	r4, r4, #1
 8010096:	a802      	add	r0, sp, #8
 8010098:	d001      	beq.n	801009e <_ZN4quan3uav3osd11draw_bitmapEPKNS1_12basic_bitmapERKNS_5two_d4vectIlEE+0x62>
 801009a:	f002 f915 	bl	80122c8 <_ZN4quan3uav3osd13set_pixel_rawERKNS_5two_d4vectIlEENS1_11colour_typeE>
 801009e:	9b02      	ldr	r3, [sp, #8]
 80100a0:	42b4      	cmp	r4, r6
 80100a2:	f103 0301 	add.w	r3, r3, #1
 80100a6:	9302      	str	r3, [sp, #8]
 80100a8:	d1eb      	bne.n	8010082 <_ZN4quan3uav3osd11draw_bitmapEPKNS1_12basic_bitmapERKNS_5two_d4vectIlEE+0x46>
 80100aa:	9b03      	ldr	r3, [sp, #12]
 80100ac:	3501      	adds	r5, #1
 80100ae:	3301      	adds	r3, #1
 80100b0:	4545      	cmp	r5, r8
 80100b2:	9303      	str	r3, [sp, #12]
 80100b4:	d1df      	bne.n	8010076 <_ZN4quan3uav3osd11draw_bitmapEPKNS1_12basic_bitmapERKNS_5two_d4vectIlEE+0x3a>
 80100b6:	b007      	add	sp, #28
 80100b8:	e8bd 83f0 	ldmia.w	sp!, {r4, r5, r6, r7, r8, r9, pc}
 80100bc:	4770      	bx	lr
 80100be:	bf00      	nop

080100c0 <prvAddCurrentTaskToDelayedList>:
 80100c0:	4b0d      	ldr	r3, [pc, #52]	; (80100f8 <prvAddCurrentTaskToDelayedList+0x38>)
 80100c2:	4a0e      	ldr	r2, [pc, #56]	; (80100fc <prvAddCurrentTaskToDelayedList+0x3c>)
 80100c4:	6819      	ldr	r1, [r3, #0]
 80100c6:	6812      	ldr	r2, [r2, #0]
 80100c8:	6048      	str	r0, [r1, #4]
 80100ca:	4290      	cmp	r0, r2
 80100cc:	d30d      	bcc.n	80100ea <prvAddCurrentTaskToDelayedList+0x2a>
 80100ce:	4a0c      	ldr	r2, [pc, #48]	; (8010100 <prvAddCurrentTaskToDelayedList+0x40>)
 80100d0:	b510      	push	{r4, lr}
 80100d2:	4604      	mov	r4, r0
 80100d4:	6810      	ldr	r0, [r2, #0]
 80100d6:	6819      	ldr	r1, [r3, #0]
 80100d8:	3104      	adds	r1, #4
 80100da:	f000 fdb1 	bl	8010c40 <vListInsert>
 80100de:	4b09      	ldr	r3, [pc, #36]	; (8010104 <prvAddCurrentTaskToDelayedList+0x44>)
 80100e0:	681a      	ldr	r2, [r3, #0]
 80100e2:	4294      	cmp	r4, r2
 80100e4:	bf38      	it	cc
 80100e6:	601c      	strcc	r4, [r3, #0]
 80100e8:	bd10      	pop	{r4, pc}
 80100ea:	4a07      	ldr	r2, [pc, #28]	; (8010108 <prvAddCurrentTaskToDelayedList+0x48>)
 80100ec:	6810      	ldr	r0, [r2, #0]
 80100ee:	6819      	ldr	r1, [r3, #0]
 80100f0:	3104      	adds	r1, #4
 80100f2:	f000 bda5 	b.w	8010c40 <vListInsert>
 80100f6:	bf00      	nop
 80100f8:	10000d10 	.word	0x10000d10
 80100fc:	10000d1c 	.word	0x10000d1c
 8010100:	10000c70 	.word	0x10000c70
 8010104:	10000d14 	.word	0x10000d14
 8010108:	10000d20 	.word	0x10000d20

0801010c <xTaskGenericCreate.part.5>:
 801010c:	e92d 4ff8 	stmdb	sp!, {r3, r4, r5, r6, r7, r8, r9, sl, fp, lr}
 8010110:	9c0c      	ldr	r4, [sp, #48]	; 0x30
 8010112:	9e0b      	ldr	r6, [sp, #44]	; 0x2c
 8010114:	4681      	mov	r9, r0
 8010116:	468a      	mov	sl, r1
 8010118:	4693      	mov	fp, r2
 801011a:	4698      	mov	r8, r3
 801011c:	b93c      	cbnz	r4, 801012e <xTaskGenericCreate.part.5+0x22>
 801011e:	0090      	lsls	r0, r2, #2
 8010120:	f001 f9fa 	bl	8011518 <pvPortMalloc>
 8010124:	4605      	mov	r5, r0
 8010126:	2800      	cmp	r0, #0
 8010128:	f000 80b8 	beq.w	801029c <xTaskGenericCreate.part.5+0x190>
 801012c:	e000      	b.n	8010130 <xTaskGenericCreate.part.5+0x24>
 801012e:	4625      	mov	r5, r4
 8010130:	2058      	movs	r0, #88	; 0x58
 8010132:	f001 f9f1 	bl	8011518 <pvPortMalloc>
 8010136:	4604      	mov	r4, r0
 8010138:	b1a0      	cbz	r0, 8010164 <xTaskGenericCreate.part.5+0x58>
 801013a:	ea4f 0b8b 	mov.w	fp, fp, lsl #2
 801013e:	6305      	str	r5, [r0, #48]	; 0x30
 8010140:	465a      	mov	r2, fp
 8010142:	4628      	mov	r0, r5
 8010144:	21a5      	movs	r1, #165	; 0xa5
 8010146:	f004 f9db 	bl	8014500 <memset>
 801014a:	6b25      	ldr	r5, [r4, #48]	; 0x30
 801014c:	f1ab 0b04 	sub.w	fp, fp, #4
 8010150:	445d      	add	r5, fp
 8010152:	f025 0507 	bic.w	r5, r5, #7
 8010156:	f10a 33ff 	add.w	r3, sl, #4294967295
 801015a:	f10a 0109 	add.w	r1, sl, #9
 801015e:	f104 0233 	add.w	r2, r4, #51	; 0x33
 8010162:	e005      	b.n	8010170 <xTaskGenericCreate.part.5+0x64>
 8010164:	4628      	mov	r0, r5
 8010166:	f001 f9e9 	bl	801153c <vPortFree>
 801016a:	e097      	b.n	801029c <xTaskGenericCreate.part.5+0x190>
 801016c:	428b      	cmp	r3, r1
 801016e:	d006      	beq.n	801017e <xTaskGenericCreate.part.5+0x72>
 8010170:	f813 0f01 	ldrb.w	r0, [r3, #1]!
 8010174:	f802 0f01 	strb.w	r0, [r2, #1]!
 8010178:	7818      	ldrb	r0, [r3, #0]
 801017a:	2800      	cmp	r0, #0
 801017c:	d1f6      	bne.n	801016c <xTaskGenericCreate.part.5+0x60>
 801017e:	9b0a      	ldr	r3, [sp, #40]	; 0x28
 8010180:	2b04      	cmp	r3, #4
 8010182:	bf28      	it	cs
 8010184:	2304      	movcs	r3, #4
 8010186:	2700      	movs	r7, #0
 8010188:	f104 0b04 	add.w	fp, r4, #4
 801018c:	62e3      	str	r3, [r4, #44]	; 0x2c
 801018e:	64a3      	str	r3, [r4, #72]	; 0x48
 8010190:	4658      	mov	r0, fp
 8010192:	f884 703d 	strb.w	r7, [r4, #61]	; 0x3d
 8010196:	64e7      	str	r7, [r4, #76]	; 0x4c
 8010198:	469a      	mov	sl, r3
 801019a:	f000 fd3d 	bl	8010c18 <vListInitialiseItem>
 801019e:	f104 0018 	add.w	r0, r4, #24
 80101a2:	f000 fd39 	bl	8010c18 <vListInitialiseItem>
 80101a6:	f1ca 0305 	rsb	r3, sl, #5
 80101aa:	6527      	str	r7, [r4, #80]	; 0x50
 80101ac:	61a3      	str	r3, [r4, #24]
 80101ae:	6124      	str	r4, [r4, #16]
 80101b0:	f884 7054 	strb.w	r7, [r4, #84]	; 0x54
 80101b4:	6264      	str	r4, [r4, #36]	; 0x24
 80101b6:	4628      	mov	r0, r5
 80101b8:	4649      	mov	r1, r9
 80101ba:	4642      	mov	r2, r8
 80101bc:	f001 f84e 	bl	801125c <pxPortInitialiseStack>
 80101c0:	6020      	str	r0, [r4, #0]
 80101c2:	b106      	cbz	r6, 80101c6 <xTaskGenericCreate.part.5+0xba>
 80101c4:	6034      	str	r4, [r6, #0]
 80101c6:	f001 f86f 	bl	80112a8 <vPortEnterCritical>
 80101ca:	4a36      	ldr	r2, [pc, #216]	; (80102a4 <xTaskGenericCreate.part.5+0x198>)
 80101cc:	4d36      	ldr	r5, [pc, #216]	; (80102a8 <xTaskGenericCreate.part.5+0x19c>)
 80101ce:	6813      	ldr	r3, [r2, #0]
 80101d0:	f8df 80f8 	ldr.w	r8, [pc, #248]	; 80102cc <xTaskGenericCreate.part.5+0x1c0>
 80101d4:	3301      	adds	r3, #1
 80101d6:	6013      	str	r3, [r2, #0]
 80101d8:	682b      	ldr	r3, [r5, #0]
 80101da:	bb1b      	cbnz	r3, 8010224 <xTaskGenericCreate.part.5+0x118>
 80101dc:	602c      	str	r4, [r5, #0]
 80101de:	6812      	ldr	r2, [r2, #0]
 80101e0:	2a01      	cmp	r2, #1
 80101e2:	d128      	bne.n	8010236 <xTaskGenericCreate.part.5+0x12a>
 80101e4:	461e      	mov	r6, r3
 80101e6:	eb08 0006 	add.w	r0, r8, r6
 80101ea:	3614      	adds	r6, #20
 80101ec:	f000 fd08 	bl	8010c00 <vListInitialise>
 80101f0:	2e64      	cmp	r6, #100	; 0x64
 80101f2:	d1f8      	bne.n	80101e6 <xTaskGenericCreate.part.5+0xda>
 80101f4:	f8df 90d8 	ldr.w	r9, [pc, #216]	; 80102d0 <xTaskGenericCreate.part.5+0x1c4>
 80101f8:	4e2c      	ldr	r6, [pc, #176]	; (80102ac <xTaskGenericCreate.part.5+0x1a0>)
 80101fa:	4648      	mov	r0, r9
 80101fc:	f000 fd00 	bl	8010c00 <vListInitialise>
 8010200:	4630      	mov	r0, r6
 8010202:	f000 fcfd 	bl	8010c00 <vListInitialise>
 8010206:	482a      	ldr	r0, [pc, #168]	; (80102b0 <xTaskGenericCreate.part.5+0x1a4>)
 8010208:	f000 fcfa 	bl	8010c00 <vListInitialise>
 801020c:	4829      	ldr	r0, [pc, #164]	; (80102b4 <xTaskGenericCreate.part.5+0x1a8>)
 801020e:	f000 fcf7 	bl	8010c00 <vListInitialise>
 8010212:	4829      	ldr	r0, [pc, #164]	; (80102b8 <xTaskGenericCreate.part.5+0x1ac>)
 8010214:	f000 fcf4 	bl	8010c00 <vListInitialise>
 8010218:	4a28      	ldr	r2, [pc, #160]	; (80102bc <xTaskGenericCreate.part.5+0x1b0>)
 801021a:	4b29      	ldr	r3, [pc, #164]	; (80102c0 <xTaskGenericCreate.part.5+0x1b4>)
 801021c:	f8c2 9000 	str.w	r9, [r2]
 8010220:	601e      	str	r6, [r3, #0]
 8010222:	e008      	b.n	8010236 <xTaskGenericCreate.part.5+0x12a>
 8010224:	4b27      	ldr	r3, [pc, #156]	; (80102c4 <xTaskGenericCreate.part.5+0x1b8>)
 8010226:	681b      	ldr	r3, [r3, #0]
 8010228:	b92b      	cbnz	r3, 8010236 <xTaskGenericCreate.part.5+0x12a>
 801022a:	682b      	ldr	r3, [r5, #0]
 801022c:	9a0a      	ldr	r2, [sp, #40]	; 0x28
 801022e:	6adb      	ldr	r3, [r3, #44]	; 0x2c
 8010230:	429a      	cmp	r2, r3
 8010232:	bf28      	it	cs
 8010234:	602c      	strcs	r4, [r5, #0]
 8010236:	f8df c09c 	ldr.w	ip, [pc, #156]	; 80102d4 <xTaskGenericCreate.part.5+0x1c8>
 801023a:	f8df e09c 	ldr.w	lr, [pc, #156]	; 80102d8 <xTaskGenericCreate.part.5+0x1cc>
 801023e:	f8dc 3000 	ldr.w	r3, [ip]
 8010242:	6ae0      	ldr	r0, [r4, #44]	; 0x2c
 8010244:	f8de 2000 	ldr.w	r2, [lr]
 8010248:	2601      	movs	r6, #1
 801024a:	4433      	add	r3, r6
 801024c:	fa06 f900 	lsl.w	r9, r6, r0
 8010250:	f04f 0a14 	mov.w	sl, #20
 8010254:	6423      	str	r3, [r4, #64]	; 0x40
 8010256:	ea49 0202 	orr.w	r2, r9, r2
 801025a:	4659      	mov	r1, fp
 801025c:	fb0a 8000 	mla	r0, sl, r0, r8
 8010260:	f8cc 3000 	str.w	r3, [ip]
 8010264:	f8ce 2000 	str.w	r2, [lr]
 8010268:	f000 fcda 	bl	8010c20 <vListInsertEnd>
 801026c:	f001 f83e 	bl	80112ec <vPortExitCritical>
 8010270:	4b14      	ldr	r3, [pc, #80]	; (80102c4 <xTaskGenericCreate.part.5+0x1b8>)
 8010272:	681b      	ldr	r3, [r3, #0]
 8010274:	b17b      	cbz	r3, 8010296 <xTaskGenericCreate.part.5+0x18a>
 8010276:	682b      	ldr	r3, [r5, #0]
 8010278:	9a0a      	ldr	r2, [sp, #40]	; 0x28
 801027a:	6adb      	ldr	r3, [r3, #44]	; 0x2c
 801027c:	429a      	cmp	r2, r3
 801027e:	d90a      	bls.n	8010296 <xTaskGenericCreate.part.5+0x18a>
 8010280:	4b11      	ldr	r3, [pc, #68]	; (80102c8 <xTaskGenericCreate.part.5+0x1bc>)
 8010282:	f04f 5280 	mov.w	r2, #268435456	; 0x10000000
 8010286:	601a      	str	r2, [r3, #0]
 8010288:	f3bf 8f4f 	dsb	sy
 801028c:	f3bf 8f6f 	isb	sy
 8010290:	4630      	mov	r0, r6
 8010292:	e8bd 8ff8 	ldmia.w	sp!, {r3, r4, r5, r6, r7, r8, r9, sl, fp, pc}
 8010296:	4630      	mov	r0, r6
 8010298:	e8bd 8ff8 	ldmia.w	sp!, {r3, r4, r5, r6, r7, r8, r9, sl, fp, pc}
 801029c:	f04f 30ff 	mov.w	r0, #4294967295
 80102a0:	e8bd 8ff8 	ldmia.w	sp!, {r3, r4, r5, r6, r7, r8, r9, sl, fp, pc}
 80102a4:	10000d64 	.word	0x10000d64
 80102a8:	10000d10 	.word	0x10000d10
 80102ac:	10000d50 	.word	0x10000d50
 80102b0:	10000d24 	.word	0x10000d24
 80102b4:	10000c7c 	.word	0x10000c7c
 80102b8:	10000c90 	.word	0x10000c90
 80102bc:	10000c70 	.word	0x10000c70
 80102c0:	10000d20 	.word	0x10000d20
 80102c4:	10000c74 	.word	0x10000c74
 80102c8:	e000ed04 	.word	0xe000ed04
 80102cc:	10000ca8 	.word	0x10000ca8
 80102d0:	10000d3c 	.word	0x10000d3c
 80102d4:	10000d38 	.word	0x10000d38
 80102d8:	10000d68 	.word	0x10000d68

080102dc <xTaskGenericCreate>:
 80102dc:	b470      	push	{r4, r5, r6}
 80102de:	9c03      	ldr	r4, [sp, #12]
 80102e0:	9e04      	ldr	r6, [sp, #16]
 80102e2:	9d05      	ldr	r5, [sp, #20]
 80102e4:	b150      	cbz	r0, 80102fc <xTaskGenericCreate+0x20>
 80102e6:	2c04      	cmp	r4, #4
 80102e8:	d911      	bls.n	801030e <xTaskGenericCreate+0x32>
 80102ea:	f04f 0350 	mov.w	r3, #80	; 0x50
 80102ee:	f383 8811 	msr	BASEPRI, r3
 80102f2:	f3bf 8f6f 	isb	sy
 80102f6:	f3bf 8f4f 	dsb	sy
 80102fa:	e7fe      	b.n	80102fa <xTaskGenericCreate+0x1e>
 80102fc:	f04f 0350 	mov.w	r3, #80	; 0x50
 8010300:	f383 8811 	msr	BASEPRI, r3
 8010304:	f3bf 8f6f 	isb	sy
 8010308:	f3bf 8f4f 	dsb	sy
 801030c:	e7fe      	b.n	801030c <xTaskGenericCreate+0x30>
 801030e:	9403      	str	r4, [sp, #12]
 8010310:	9604      	str	r6, [sp, #16]
 8010312:	9505      	str	r5, [sp, #20]
 8010314:	bc70      	pop	{r4, r5, r6}
 8010316:	f7ff bef9 	b.w	801010c <xTaskGenericCreate.part.5>
 801031a:	bf00      	nop

0801031c <vTaskStartScheduler>:
 801031c:	b530      	push	{r4, r5, lr}
 801031e:	b085      	sub	sp, #20
 8010320:	2400      	movs	r4, #0
 8010322:	9400      	str	r4, [sp, #0]
 8010324:	9401      	str	r4, [sp, #4]
 8010326:	9402      	str	r4, [sp, #8]
 8010328:	4623      	mov	r3, r4
 801032a:	4816      	ldr	r0, [pc, #88]	; (8010384 <vTaskStartScheduler+0x68>)
 801032c:	4916      	ldr	r1, [pc, #88]	; (8010388 <vTaskStartScheduler+0x6c>)
 801032e:	2282      	movs	r2, #130	; 0x82
 8010330:	f7ff feec 	bl	801010c <xTaskGenericCreate.part.5>
 8010334:	2801      	cmp	r0, #1
 8010336:	d00b      	beq.n	8010350 <vTaskStartScheduler+0x34>
 8010338:	b940      	cbnz	r0, 801034c <vTaskStartScheduler+0x30>
 801033a:	f04f 0350 	mov.w	r3, #80	; 0x50
 801033e:	f383 8811 	msr	BASEPRI, r3
 8010342:	f3bf 8f6f 	isb	sy
 8010346:	f3bf 8f4f 	dsb	sy
 801034a:	e7fe      	b.n	801034a <vTaskStartScheduler+0x2e>
 801034c:	b005      	add	sp, #20
 801034e:	bd30      	pop	{r4, r5, pc}
 8010350:	f000 fcf2 	bl	8010d38 <xTimerCreateTimerTask>
 8010354:	2801      	cmp	r0, #1
 8010356:	d1ef      	bne.n	8010338 <vTaskStartScheduler+0x1c>
 8010358:	f04f 0350 	mov.w	r3, #80	; 0x50
 801035c:	f383 8811 	msr	BASEPRI, r3
 8010360:	f3bf 8f6f 	isb	sy
 8010364:	f3bf 8f4f 	dsb	sy
 8010368:	4908      	ldr	r1, [pc, #32]	; (801038c <vTaskStartScheduler+0x70>)
 801036a:	4a09      	ldr	r2, [pc, #36]	; (8010390 <vTaskStartScheduler+0x74>)
 801036c:	4b09      	ldr	r3, [pc, #36]	; (8010394 <vTaskStartScheduler+0x78>)
 801036e:	f04f 35ff 	mov.w	r5, #4294967295
 8010372:	600d      	str	r5, [r1, #0]
 8010374:	6010      	str	r0, [r2, #0]
 8010376:	601c      	str	r4, [r3, #0]
 8010378:	b005      	add	sp, #20
 801037a:	e8bd 4030 	ldmia.w	sp!, {r4, r5, lr}
 801037e:	f001 b827 	b.w	80113d0 <xPortStartScheduler>
 8010382:	bf00      	nop
 8010384:	0801069d 	.word	0x0801069d
 8010388:	08019cf0 	.word	0x08019cf0
 801038c:	10000d14 	.word	0x10000d14
 8010390:	10000c74 	.word	0x10000c74
 8010394:	10000d1c 	.word	0x10000d1c

08010398 <vTaskSuspendAll>:
 8010398:	4a02      	ldr	r2, [pc, #8]	; (80103a4 <vTaskSuspendAll+0xc>)
 801039a:	6813      	ldr	r3, [r2, #0]
 801039c:	3301      	adds	r3, #1
 801039e:	6013      	str	r3, [r2, #0]
 80103a0:	4770      	bx	lr
 80103a2:	bf00      	nop
 80103a4:	10000d0c 	.word	0x10000d0c

080103a8 <xTaskGetTickCount>:
 80103a8:	4b01      	ldr	r3, [pc, #4]	; (80103b0 <xTaskGetTickCount+0x8>)
 80103aa:	6818      	ldr	r0, [r3, #0]
 80103ac:	4770      	bx	lr
 80103ae:	bf00      	nop
 80103b0:	10000d1c 	.word	0x10000d1c

080103b4 <xTaskIncrementTick>:
 80103b4:	e92d 4ff8 	stmdb	sp!, {r3, r4, r5, r6, r7, r8, r9, sl, fp, lr}
 80103b8:	4b4d      	ldr	r3, [pc, #308]	; (80104f0 <xTaskIncrementTick+0x13c>)
 80103ba:	681b      	ldr	r3, [r3, #0]
 80103bc:	2b00      	cmp	r3, #0
 80103be:	d170      	bne.n	80104a2 <xTaskIncrementTick+0xee>
 80103c0:	4b4c      	ldr	r3, [pc, #304]	; (80104f4 <xTaskIncrementTick+0x140>)
 80103c2:	681a      	ldr	r2, [r3, #0]
 80103c4:	3201      	adds	r2, #1
 80103c6:	601a      	str	r2, [r3, #0]
 80103c8:	681f      	ldr	r7, [r3, #0]
 80103ca:	b96f      	cbnz	r7, 80103e8 <xTaskIncrementTick+0x34>
 80103cc:	4b4a      	ldr	r3, [pc, #296]	; (80104f8 <xTaskIncrementTick+0x144>)
 80103ce:	681a      	ldr	r2, [r3, #0]
 80103d0:	6812      	ldr	r2, [r2, #0]
 80103d2:	2a00      	cmp	r2, #0
 80103d4:	d070      	beq.n	80104b8 <xTaskIncrementTick+0x104>
 80103d6:	f04f 0350 	mov.w	r3, #80	; 0x50
 80103da:	f383 8811 	msr	BASEPRI, r3
 80103de:	f3bf 8f6f 	isb	sy
 80103e2:	f3bf 8f4f 	dsb	sy
 80103e6:	e7fe      	b.n	80103e6 <xTaskIncrementTick+0x32>
 80103e8:	f8df b128 	ldr.w	fp, [pc, #296]	; 8010514 <xTaskIncrementTick+0x160>
 80103ec:	f8db 2000 	ldr.w	r2, [fp]
 80103f0:	4297      	cmp	r7, r2
 80103f2:	d33d      	bcc.n	8010470 <xTaskIncrementTick+0xbc>
 80103f4:	4e41      	ldr	r6, [pc, #260]	; (80104fc <xTaskIncrementTick+0x148>)
 80103f6:	4d42      	ldr	r5, [pc, #264]	; (8010500 <xTaskIncrementTick+0x14c>)
 80103f8:	f8df 911c 	ldr.w	r9, [pc, #284]	; 8010518 <xTaskIncrementTick+0x164>
 80103fc:	2400      	movs	r4, #0
 80103fe:	e02d      	b.n	801045c <xTaskIncrementTick+0xa8>
 8010400:	4b3d      	ldr	r3, [pc, #244]	; (80104f8 <xTaskIncrementTick+0x144>)
 8010402:	681a      	ldr	r2, [r3, #0]
 8010404:	68d2      	ldr	r2, [r2, #12]
 8010406:	f8d2 800c 	ldr.w	r8, [r2, #12]
 801040a:	f8d8 1004 	ldr.w	r1, [r8, #4]
 801040e:	f108 0a04 	add.w	sl, r8, #4
 8010412:	428f      	cmp	r7, r1
 8010414:	4650      	mov	r0, sl
 8010416:	d34c      	bcc.n	80104b2 <xTaskIncrementTick+0xfe>
 8010418:	f000 fc2c 	bl	8010c74 <uxListRemove>
 801041c:	f8d8 1028 	ldr.w	r1, [r8, #40]	; 0x28
 8010420:	f108 0018 	add.w	r0, r8, #24
 8010424:	b109      	cbz	r1, 801042a <xTaskIncrementTick+0x76>
 8010426:	f000 fc25 	bl	8010c74 <uxListRemove>
 801042a:	f8d8 002c 	ldr.w	r0, [r8, #44]	; 0x2c
 801042e:	f8d9 3000 	ldr.w	r3, [r9]
 8010432:	2201      	movs	r2, #1
 8010434:	fa02 fc00 	lsl.w	ip, r2, r0
 8010438:	eb00 0080 	add.w	r0, r0, r0, lsl #2
 801043c:	4651      	mov	r1, sl
 801043e:	eb06 0080 	add.w	r0, r6, r0, lsl #2
 8010442:	ea4c 0303 	orr.w	r3, ip, r3
 8010446:	f8c9 3000 	str.w	r3, [r9]
 801044a:	f000 fbe9 	bl	8010c20 <vListInsertEnd>
 801044e:	6828      	ldr	r0, [r5, #0]
 8010450:	f8d8 102c 	ldr.w	r1, [r8, #44]	; 0x2c
 8010454:	6ac2      	ldr	r2, [r0, #44]	; 0x2c
 8010456:	4291      	cmp	r1, r2
 8010458:	bf28      	it	cs
 801045a:	2401      	movcs	r4, #1
 801045c:	4b26      	ldr	r3, [pc, #152]	; (80104f8 <xTaskIncrementTick+0x144>)
 801045e:	681a      	ldr	r2, [r3, #0]
 8010460:	6812      	ldr	r2, [r2, #0]
 8010462:	2a00      	cmp	r2, #0
 8010464:	d1cc      	bne.n	8010400 <xTaskIncrementTick+0x4c>
 8010466:	f04f 32ff 	mov.w	r2, #4294967295
 801046a:	f8cb 2000 	str.w	r2, [fp]
 801046e:	e002      	b.n	8010476 <xTaskIncrementTick+0xc2>
 8010470:	4e22      	ldr	r6, [pc, #136]	; (80104fc <xTaskIncrementTick+0x148>)
 8010472:	4d23      	ldr	r5, [pc, #140]	; (8010500 <xTaskIncrementTick+0x14c>)
 8010474:	2400      	movs	r4, #0
 8010476:	682b      	ldr	r3, [r5, #0]
 8010478:	4a22      	ldr	r2, [pc, #136]	; (8010504 <xTaskIncrementTick+0x150>)
 801047a:	6adb      	ldr	r3, [r3, #44]	; 0x2c
 801047c:	6812      	ldr	r2, [r2, #0]
 801047e:	eb03 0383 	add.w	r3, r3, r3, lsl #2
 8010482:	f856 3023 	ldr.w	r3, [r6, r3, lsl #2]
 8010486:	2b02      	cmp	r3, #2
 8010488:	bf28      	it	cs
 801048a:	2401      	movcs	r4, #1
 801048c:	b90a      	cbnz	r2, 8010492 <xTaskIncrementTick+0xde>
 801048e:	f001 f865 	bl	801155c <vApplicationTickHook>
 8010492:	4b1d      	ldr	r3, [pc, #116]	; (8010508 <xTaskIncrementTick+0x154>)
 8010494:	681b      	ldr	r3, [r3, #0]
 8010496:	2b00      	cmp	r3, #0
 8010498:	bf18      	it	ne
 801049a:	2401      	movne	r4, #1
 801049c:	4620      	mov	r0, r4
 801049e:	e8bd 8ff8 	ldmia.w	sp!, {r3, r4, r5, r6, r7, r8, r9, sl, fp, pc}
 80104a2:	4a18      	ldr	r2, [pc, #96]	; (8010504 <xTaskIncrementTick+0x150>)
 80104a4:	6813      	ldr	r3, [r2, #0]
 80104a6:	3301      	adds	r3, #1
 80104a8:	6013      	str	r3, [r2, #0]
 80104aa:	2400      	movs	r4, #0
 80104ac:	f001 f856 	bl	801155c <vApplicationTickHook>
 80104b0:	e7ef      	b.n	8010492 <xTaskIncrementTick+0xde>
 80104b2:	f8cb 1000 	str.w	r1, [fp]
 80104b6:	e7de      	b.n	8010476 <xTaskIncrementTick+0xc2>
 80104b8:	4a14      	ldr	r2, [pc, #80]	; (801050c <xTaskIncrementTick+0x158>)
 80104ba:	6818      	ldr	r0, [r3, #0]
 80104bc:	4914      	ldr	r1, [pc, #80]	; (8010510 <xTaskIncrementTick+0x15c>)
 80104be:	6814      	ldr	r4, [r2, #0]
 80104c0:	601c      	str	r4, [r3, #0]
 80104c2:	6010      	str	r0, [r2, #0]
 80104c4:	680a      	ldr	r2, [r1, #0]
 80104c6:	3201      	adds	r2, #1
 80104c8:	600a      	str	r2, [r1, #0]
 80104ca:	681a      	ldr	r2, [r3, #0]
 80104cc:	6812      	ldr	r2, [r2, #0]
 80104ce:	b932      	cbnz	r2, 80104de <xTaskIncrementTick+0x12a>
 80104d0:	f8df b040 	ldr.w	fp, [pc, #64]	; 8010514 <xTaskIncrementTick+0x160>
 80104d4:	f04f 32ff 	mov.w	r2, #4294967295
 80104d8:	f8cb 2000 	str.w	r2, [fp]
 80104dc:	e786      	b.n	80103ec <xTaskIncrementTick+0x38>
 80104de:	681a      	ldr	r2, [r3, #0]
 80104e0:	f8df b030 	ldr.w	fp, [pc, #48]	; 8010514 <xTaskIncrementTick+0x160>
 80104e4:	68d2      	ldr	r2, [r2, #12]
 80104e6:	68d2      	ldr	r2, [r2, #12]
 80104e8:	6852      	ldr	r2, [r2, #4]
 80104ea:	f8cb 2000 	str.w	r2, [fp]
 80104ee:	e77d      	b.n	80103ec <xTaskIncrementTick+0x38>
 80104f0:	10000d0c 	.word	0x10000d0c
 80104f4:	10000d1c 	.word	0x10000d1c
 80104f8:	10000c70 	.word	0x10000c70
 80104fc:	10000ca8 	.word	0x10000ca8
 8010500:	10000d10 	.word	0x10000d10
 8010504:	10000ca4 	.word	0x10000ca4
 8010508:	10000d6c 	.word	0x10000d6c
 801050c:	10000d20 	.word	0x10000d20
 8010510:	10000d18 	.word	0x10000d18
 8010514:	10000d14 	.word	0x10000d14
 8010518:	10000d68 	.word	0x10000d68

0801051c <xTaskResumeAll>:
 801051c:	e92d 4ff8 	stmdb	sp!, {r3, r4, r5, r6, r7, r8, r9, sl, fp, lr}
 8010520:	4c35      	ldr	r4, [pc, #212]	; (80105f8 <xTaskResumeAll+0xdc>)
 8010522:	6823      	ldr	r3, [r4, #0]
 8010524:	b943      	cbnz	r3, 8010538 <xTaskResumeAll+0x1c>
 8010526:	f04f 0350 	mov.w	r3, #80	; 0x50
 801052a:	f383 8811 	msr	BASEPRI, r3
 801052e:	f3bf 8f6f 	isb	sy
 8010532:	f3bf 8f4f 	dsb	sy
 8010536:	e7fe      	b.n	8010536 <xTaskResumeAll+0x1a>
 8010538:	f000 feb6 	bl	80112a8 <vPortEnterCritical>
 801053c:	6823      	ldr	r3, [r4, #0]
 801053e:	3b01      	subs	r3, #1
 8010540:	6023      	str	r3, [r4, #0]
 8010542:	6823      	ldr	r3, [r4, #0]
 8010544:	2b00      	cmp	r3, #0
 8010546:	d138      	bne.n	80105ba <xTaskResumeAll+0x9e>
 8010548:	4b2c      	ldr	r3, [pc, #176]	; (80105fc <xTaskResumeAll+0xe0>)
 801054a:	681b      	ldr	r3, [r3, #0]
 801054c:	2b00      	cmp	r3, #0
 801054e:	d034      	beq.n	80105ba <xTaskResumeAll+0x9e>
 8010550:	f8df a0c0 	ldr.w	sl, [pc, #192]	; 8010614 <xTaskResumeAll+0xf8>
 8010554:	4d2a      	ldr	r5, [pc, #168]	; (8010600 <xTaskResumeAll+0xe4>)
 8010556:	4e2b      	ldr	r6, [pc, #172]	; (8010604 <xTaskResumeAll+0xe8>)
 8010558:	f8df b0bc 	ldr.w	fp, [pc, #188]	; 8010618 <xTaskResumeAll+0xfc>
 801055c:	46d1      	mov	r9, sl
 801055e:	e021      	b.n	80105a4 <xTaskResumeAll+0x88>
 8010560:	f8d9 300c 	ldr.w	r3, [r9, #12]
 8010564:	68dc      	ldr	r4, [r3, #12]
 8010566:	f104 0804 	add.w	r8, r4, #4
 801056a:	f104 0018 	add.w	r0, r4, #24
 801056e:	f000 fb81 	bl	8010c74 <uxListRemove>
 8010572:	4640      	mov	r0, r8
 8010574:	f000 fb7e 	bl	8010c74 <uxListRemove>
 8010578:	6ae0      	ldr	r0, [r4, #44]	; 0x2c
 801057a:	6833      	ldr	r3, [r6, #0]
 801057c:	4a22      	ldr	r2, [pc, #136]	; (8010608 <xTaskResumeAll+0xec>)
 801057e:	fa07 fe00 	lsl.w	lr, r7, r0
 8010582:	eb00 0080 	add.w	r0, r0, r0, lsl #2
 8010586:	ea4e 0303 	orr.w	r3, lr, r3
 801058a:	4641      	mov	r1, r8
 801058c:	eb02 0080 	add.w	r0, r2, r0, lsl #2
 8010590:	6033      	str	r3, [r6, #0]
 8010592:	f000 fb45 	bl	8010c20 <vListInsertEnd>
 8010596:	f8db 3000 	ldr.w	r3, [fp]
 801059a:	6ae1      	ldr	r1, [r4, #44]	; 0x2c
 801059c:	6adb      	ldr	r3, [r3, #44]	; 0x2c
 801059e:	4299      	cmp	r1, r3
 80105a0:	bf28      	it	cs
 80105a2:	602f      	strcs	r7, [r5, #0]
 80105a4:	f8da 3000 	ldr.w	r3, [sl]
 80105a8:	2701      	movs	r7, #1
 80105aa:	2b00      	cmp	r3, #0
 80105ac:	d1d8      	bne.n	8010560 <xTaskResumeAll+0x44>
 80105ae:	4c17      	ldr	r4, [pc, #92]	; (801060c <xTaskResumeAll+0xf0>)
 80105b0:	6823      	ldr	r3, [r4, #0]
 80105b2:	b943      	cbnz	r3, 80105c6 <xTaskResumeAll+0xaa>
 80105b4:	682c      	ldr	r4, [r5, #0]
 80105b6:	2c01      	cmp	r4, #1
 80105b8:	d014      	beq.n	80105e4 <xTaskResumeAll+0xc8>
 80105ba:	2400      	movs	r4, #0
 80105bc:	f000 fe96 	bl	80112ec <vPortExitCritical>
 80105c0:	4620      	mov	r0, r4
 80105c2:	e8bd 8ff8 	ldmia.w	sp!, {r3, r4, r5, r6, r7, r8, r9, sl, fp, pc}
 80105c6:	6823      	ldr	r3, [r4, #0]
 80105c8:	2b00      	cmp	r3, #0
 80105ca:	d0f3      	beq.n	80105b4 <xTaskResumeAll+0x98>
 80105cc:	2601      	movs	r6, #1
 80105ce:	f7ff fef1 	bl	80103b4 <xTaskIncrementTick>
 80105d2:	b100      	cbz	r0, 80105d6 <xTaskResumeAll+0xba>
 80105d4:	602e      	str	r6, [r5, #0]
 80105d6:	6823      	ldr	r3, [r4, #0]
 80105d8:	3b01      	subs	r3, #1
 80105da:	6023      	str	r3, [r4, #0]
 80105dc:	6823      	ldr	r3, [r4, #0]
 80105de:	2b00      	cmp	r3, #0
 80105e0:	d1f5      	bne.n	80105ce <xTaskResumeAll+0xb2>
 80105e2:	e7e7      	b.n	80105b4 <xTaskResumeAll+0x98>
 80105e4:	4b0a      	ldr	r3, [pc, #40]	; (8010610 <xTaskResumeAll+0xf4>)
 80105e6:	f04f 5280 	mov.w	r2, #268435456	; 0x10000000
 80105ea:	601a      	str	r2, [r3, #0]
 80105ec:	f3bf 8f4f 	dsb	sy
 80105f0:	f3bf 8f6f 	isb	sy
 80105f4:	e7e2      	b.n	80105bc <xTaskResumeAll+0xa0>
 80105f6:	bf00      	nop
 80105f8:	10000d0c 	.word	0x10000d0c
 80105fc:	10000d64 	.word	0x10000d64
 8010600:	10000d6c 	.word	0x10000d6c
 8010604:	10000d68 	.word	0x10000d68
 8010608:	10000ca8 	.word	0x10000ca8
 801060c:	10000ca4 	.word	0x10000ca4
 8010610:	e000ed04 	.word	0xe000ed04
 8010614:	10000d24 	.word	0x10000d24
 8010618:	10000d10 	.word	0x10000d10

0801061c <vTaskDelay>:
 801061c:	b538      	push	{r3, r4, r5, lr}
 801061e:	b158      	cbz	r0, 8010638 <vTaskDelay+0x1c>
 8010620:	4a19      	ldr	r2, [pc, #100]	; (8010688 <vTaskDelay+0x6c>)
 8010622:	6813      	ldr	r3, [r2, #0]
 8010624:	b18b      	cbz	r3, 801064a <vTaskDelay+0x2e>
 8010626:	f04f 0350 	mov.w	r3, #80	; 0x50
 801062a:	f383 8811 	msr	BASEPRI, r3
 801062e:	f3bf 8f6f 	isb	sy
 8010632:	f3bf 8f4f 	dsb	sy
 8010636:	e7fe      	b.n	8010636 <vTaskDelay+0x1a>
 8010638:	4b14      	ldr	r3, [pc, #80]	; (801068c <vTaskDelay+0x70>)
 801063a:	f04f 5280 	mov.w	r2, #268435456	; 0x10000000
 801063e:	601a      	str	r2, [r3, #0]
 8010640:	f3bf 8f4f 	dsb	sy
 8010644:	f3bf 8f6f 	isb	sy
 8010648:	bd38      	pop	{r3, r4, r5, pc}
 801064a:	6811      	ldr	r1, [r2, #0]
 801064c:	4d10      	ldr	r5, [pc, #64]	; (8010690 <vTaskDelay+0x74>)
 801064e:	4603      	mov	r3, r0
 8010650:	3101      	adds	r1, #1
 8010652:	4810      	ldr	r0, [pc, #64]	; (8010694 <vTaskDelay+0x78>)
 8010654:	6011      	str	r1, [r2, #0]
 8010656:	6804      	ldr	r4, [r0, #0]
 8010658:	6828      	ldr	r0, [r5, #0]
 801065a:	3004      	adds	r0, #4
 801065c:	441c      	add	r4, r3
 801065e:	f000 fb09 	bl	8010c74 <uxListRemove>
 8010662:	b940      	cbnz	r0, 8010676 <vTaskDelay+0x5a>
 8010664:	682b      	ldr	r3, [r5, #0]
 8010666:	490c      	ldr	r1, [pc, #48]	; (8010698 <vTaskDelay+0x7c>)
 8010668:	6ad8      	ldr	r0, [r3, #44]	; 0x2c
 801066a:	680b      	ldr	r3, [r1, #0]
 801066c:	2201      	movs	r2, #1
 801066e:	4082      	lsls	r2, r0
 8010670:	ea23 0302 	bic.w	r3, r3, r2
 8010674:	600b      	str	r3, [r1, #0]
 8010676:	4620      	mov	r0, r4
 8010678:	f7ff fd22 	bl	80100c0 <prvAddCurrentTaskToDelayedList>
 801067c:	f7ff ff4e 	bl	801051c <xTaskResumeAll>
 8010680:	2800      	cmp	r0, #0
 8010682:	d0d9      	beq.n	8010638 <vTaskDelay+0x1c>
 8010684:	bd38      	pop	{r3, r4, r5, pc}
 8010686:	bf00      	nop
 8010688:	10000d0c 	.word	0x10000d0c
 801068c:	e000ed04 	.word	0xe000ed04
 8010690:	10000d10 	.word	0x10000d10
 8010694:	10000d1c 	.word	0x10000d1c
 8010698:	10000d68 	.word	0x10000d68

0801069c <prvIdleTask>:
 801069c:	4e20      	ldr	r6, [pc, #128]	; (8010720 <prvIdleTask+0x84>)
 801069e:	4d21      	ldr	r5, [pc, #132]	; (8010724 <prvIdleTask+0x88>)
 80106a0:	4c21      	ldr	r4, [pc, #132]	; (8010728 <prvIdleTask+0x8c>)
 80106a2:	f8df 808c 	ldr.w	r8, [pc, #140]	; 8010730 <prvIdleTask+0x94>
 80106a6:	f8df 908c 	ldr.w	r9, [pc, #140]	; 8010734 <prvIdleTask+0x98>
 80106aa:	e92d 4888 	stmdb	sp!, {r3, r7, fp, lr}
 80106ae:	46b2      	mov	sl, r6
 80106b0:	e006      	b.n	80106c0 <prvIdleTask+0x24>
 80106b2:	6823      	ldr	r3, [r4, #0]
 80106b4:	6837      	ldr	r7, [r6, #0]
 80106b6:	3301      	adds	r3, #1
 80106b8:	6023      	str	r3, [r4, #0]
 80106ba:	f7ff ff2f 	bl	801051c <xTaskResumeAll>
 80106be:	b98f      	cbnz	r7, 80106e4 <prvIdleTask+0x48>
 80106c0:	682b      	ldr	r3, [r5, #0]
 80106c2:	2b00      	cmp	r3, #0
 80106c4:	d1f5      	bne.n	80106b2 <prvIdleTask+0x16>
 80106c6:	f8d9 3000 	ldr.w	r3, [r9]
 80106ca:	4a18      	ldr	r2, [pc, #96]	; (801072c <prvIdleTask+0x90>)
 80106cc:	2b01      	cmp	r3, #1
 80106ce:	d906      	bls.n	80106de <prvIdleTask+0x42>
 80106d0:	f04f 5380 	mov.w	r3, #268435456	; 0x10000000
 80106d4:	6013      	str	r3, [r2, #0]
 80106d6:	f3bf 8f4f 	dsb	sy
 80106da:	f3bf 8f6f 	isb	sy
 80106de:	f000 ff3b 	bl	8011558 <vApplicationIdleHook>
 80106e2:	e7ed      	b.n	80106c0 <prvIdleTask+0x24>
 80106e4:	f000 fde0 	bl	80112a8 <vPortEnterCritical>
 80106e8:	f8da 300c 	ldr.w	r3, [sl, #12]
 80106ec:	f8d3 b00c 	ldr.w	fp, [r3, #12]
 80106f0:	f10b 0004 	add.w	r0, fp, #4
 80106f4:	f000 fabe 	bl	8010c74 <uxListRemove>
 80106f8:	f8d8 3000 	ldr.w	r3, [r8]
 80106fc:	4a09      	ldr	r2, [pc, #36]	; (8010724 <prvIdleTask+0x88>)
 80106fe:	3b01      	subs	r3, #1
 8010700:	f8c8 3000 	str.w	r3, [r8]
 8010704:	4b07      	ldr	r3, [pc, #28]	; (8010724 <prvIdleTask+0x88>)
 8010706:	681b      	ldr	r3, [r3, #0]
 8010708:	3b01      	subs	r3, #1
 801070a:	6013      	str	r3, [r2, #0]
 801070c:	f000 fdee 	bl	80112ec <vPortExitCritical>
 8010710:	f8db 0030 	ldr.w	r0, [fp, #48]	; 0x30
 8010714:	f000 ff12 	bl	801153c <vPortFree>
 8010718:	4658      	mov	r0, fp
 801071a:	f000 ff0f 	bl	801153c <vPortFree>
 801071e:	e7cf      	b.n	80106c0 <prvIdleTask+0x24>
 8010720:	10000c7c 	.word	0x10000c7c
 8010724:	10000c78 	.word	0x10000c78
 8010728:	10000d0c 	.word	0x10000d0c
 801072c:	e000ed04 	.word	0xe000ed04
 8010730:	10000d64 	.word	0x10000d64
 8010734:	10000ca8 	.word	0x10000ca8

08010738 <vTaskSwitchContext>:
 8010738:	4b23      	ldr	r3, [pc, #140]	; (80107c8 <vTaskSwitchContext+0x90>)
 801073a:	681b      	ldr	r3, [r3, #0]
 801073c:	2b00      	cmp	r3, #0
 801073e:	d135      	bne.n	80107ac <vTaskSwitchContext+0x74>
 8010740:	4a22      	ldr	r2, [pc, #136]	; (80107cc <vTaskSwitchContext+0x94>)
 8010742:	b510      	push	{r4, lr}
 8010744:	4c22      	ldr	r4, [pc, #136]	; (80107d0 <vTaskSwitchContext+0x98>)
 8010746:	6013      	str	r3, [r2, #0]
 8010748:	6823      	ldr	r3, [r4, #0]
 801074a:	6b1b      	ldr	r3, [r3, #48]	; 0x30
 801074c:	681a      	ldr	r2, [r3, #0]
 801074e:	f1b2 3fa5 	cmp.w	r2, #2779096485	; 0xa5a5a5a5
 8010752:	d103      	bne.n	801075c <vTaskSwitchContext+0x24>
 8010754:	685a      	ldr	r2, [r3, #4]
 8010756:	f1b2 3fa5 	cmp.w	r2, #2779096485	; 0xa5a5a5a5
 801075a:	d02b      	beq.n	80107b4 <vTaskSwitchContext+0x7c>
 801075c:	6820      	ldr	r0, [r4, #0]
 801075e:	6821      	ldr	r1, [r4, #0]
 8010760:	3134      	adds	r1, #52	; 0x34
 8010762:	f000 ff0b 	bl	801157c <vApplicationStackOverflowHook>
 8010766:	4b1b      	ldr	r3, [pc, #108]	; (80107d4 <vTaskSwitchContext+0x9c>)
 8010768:	681b      	ldr	r3, [r3, #0]
 801076a:	fab3 f383 	clz	r3, r3
 801076e:	b2db      	uxtb	r3, r3
 8010770:	f1c3 031f 	rsb	r3, r3, #31
 8010774:	eb03 0383 	add.w	r3, r3, r3, lsl #2
 8010778:	009b      	lsls	r3, r3, #2
 801077a:	4817      	ldr	r0, [pc, #92]	; (80107d8 <vTaskSwitchContext+0xa0>)
 801077c:	58c2      	ldr	r2, [r0, r3]
 801077e:	18c1      	adds	r1, r0, r3
 8010780:	b942      	cbnz	r2, 8010794 <vTaskSwitchContext+0x5c>
 8010782:	f04f 0350 	mov.w	r3, #80	; 0x50
 8010786:	f383 8811 	msr	BASEPRI, r3
 801078a:	f3bf 8f6f 	isb	sy
 801078e:	f3bf 8f4f 	dsb	sy
 8010792:	e7fe      	b.n	8010792 <vTaskSwitchContext+0x5a>
 8010794:	684a      	ldr	r2, [r1, #4]
 8010796:	3308      	adds	r3, #8
 8010798:	6852      	ldr	r2, [r2, #4]
 801079a:	604a      	str	r2, [r1, #4]
 801079c:	4403      	add	r3, r0
 801079e:	429a      	cmp	r2, r3
 80107a0:	bf04      	itt	eq
 80107a2:	6852      	ldreq	r2, [r2, #4]
 80107a4:	604a      	streq	r2, [r1, #4]
 80107a6:	68d3      	ldr	r3, [r2, #12]
 80107a8:	6023      	str	r3, [r4, #0]
 80107aa:	bd10      	pop	{r4, pc}
 80107ac:	4b07      	ldr	r3, [pc, #28]	; (80107cc <vTaskSwitchContext+0x94>)
 80107ae:	2201      	movs	r2, #1
 80107b0:	601a      	str	r2, [r3, #0]
 80107b2:	4770      	bx	lr
 80107b4:	689a      	ldr	r2, [r3, #8]
 80107b6:	f1b2 3fa5 	cmp.w	r2, #2779096485	; 0xa5a5a5a5
 80107ba:	d1cf      	bne.n	801075c <vTaskSwitchContext+0x24>
 80107bc:	68db      	ldr	r3, [r3, #12]
 80107be:	f1b3 3fa5 	cmp.w	r3, #2779096485	; 0xa5a5a5a5
 80107c2:	d1cb      	bne.n	801075c <vTaskSwitchContext+0x24>
 80107c4:	e7cf      	b.n	8010766 <vTaskSwitchContext+0x2e>
 80107c6:	bf00      	nop
 80107c8:	10000d0c 	.word	0x10000d0c
 80107cc:	10000d6c 	.word	0x10000d6c
 80107d0:	10000d10 	.word	0x10000d10
 80107d4:	10000d68 	.word	0x10000d68
 80107d8:	10000ca8 	.word	0x10000ca8

080107dc <vTaskPlaceOnEventList>:
 80107dc:	b538      	push	{r3, r4, r5, lr}
 80107de:	2800      	cmp	r0, #0
 80107e0:	d02a      	beq.n	8010838 <vTaskPlaceOnEventList+0x5c>
 80107e2:	4d21      	ldr	r5, [pc, #132]	; (8010868 <vTaskPlaceOnEventList+0x8c>)
 80107e4:	460c      	mov	r4, r1
 80107e6:	6829      	ldr	r1, [r5, #0]
 80107e8:	3118      	adds	r1, #24
 80107ea:	f000 fa29 	bl	8010c40 <vListInsert>
 80107ee:	6828      	ldr	r0, [r5, #0]
 80107f0:	3004      	adds	r0, #4
 80107f2:	f000 fa3f 	bl	8010c74 <uxListRemove>
 80107f6:	b940      	cbnz	r0, 801080a <vTaskPlaceOnEventList+0x2e>
 80107f8:	682b      	ldr	r3, [r5, #0]
 80107fa:	491c      	ldr	r1, [pc, #112]	; (801086c <vTaskPlaceOnEventList+0x90>)
 80107fc:	6ad8      	ldr	r0, [r3, #44]	; 0x2c
 80107fe:	680b      	ldr	r3, [r1, #0]
 8010800:	2201      	movs	r2, #1
 8010802:	4082      	lsls	r2, r0
 8010804:	ea23 0302 	bic.w	r3, r3, r2
 8010808:	600b      	str	r3, [r1, #0]
 801080a:	1c63      	adds	r3, r4, #1
 801080c:	d025      	beq.n	801085a <vTaskPlaceOnEventList+0x7e>
 801080e:	4918      	ldr	r1, [pc, #96]	; (8010870 <vTaskPlaceOnEventList+0x94>)
 8010810:	4a15      	ldr	r2, [pc, #84]	; (8010868 <vTaskPlaceOnEventList+0x8c>)
 8010812:	680b      	ldr	r3, [r1, #0]
 8010814:	6828      	ldr	r0, [r5, #0]
 8010816:	6809      	ldr	r1, [r1, #0]
 8010818:	441c      	add	r4, r3
 801081a:	428c      	cmp	r4, r1
 801081c:	6044      	str	r4, [r0, #4]
 801081e:	d314      	bcc.n	801084a <vTaskPlaceOnEventList+0x6e>
 8010820:	4b14      	ldr	r3, [pc, #80]	; (8010874 <vTaskPlaceOnEventList+0x98>)
 8010822:	6818      	ldr	r0, [r3, #0]
 8010824:	6811      	ldr	r1, [r2, #0]
 8010826:	3104      	adds	r1, #4
 8010828:	f000 fa0a 	bl	8010c40 <vListInsert>
 801082c:	4b12      	ldr	r3, [pc, #72]	; (8010878 <vTaskPlaceOnEventList+0x9c>)
 801082e:	681a      	ldr	r2, [r3, #0]
 8010830:	4294      	cmp	r4, r2
 8010832:	bf38      	it	cc
 8010834:	601c      	strcc	r4, [r3, #0]
 8010836:	bd38      	pop	{r3, r4, r5, pc}
 8010838:	f04f 0350 	mov.w	r3, #80	; 0x50
 801083c:	f383 8811 	msr	BASEPRI, r3
 8010840:	f3bf 8f6f 	isb	sy
 8010844:	f3bf 8f4f 	dsb	sy
 8010848:	e7fe      	b.n	8010848 <vTaskPlaceOnEventList+0x6c>
 801084a:	4b0c      	ldr	r3, [pc, #48]	; (801087c <vTaskPlaceOnEventList+0xa0>)
 801084c:	6818      	ldr	r0, [r3, #0]
 801084e:	6811      	ldr	r1, [r2, #0]
 8010850:	e8bd 4038 	ldmia.w	sp!, {r3, r4, r5, lr}
 8010854:	3104      	adds	r1, #4
 8010856:	f000 b9f3 	b.w	8010c40 <vListInsert>
 801085a:	6829      	ldr	r1, [r5, #0]
 801085c:	4808      	ldr	r0, [pc, #32]	; (8010880 <vTaskPlaceOnEventList+0xa4>)
 801085e:	3104      	adds	r1, #4
 8010860:	e8bd 4038 	ldmia.w	sp!, {r3, r4, r5, lr}
 8010864:	f000 b9dc 	b.w	8010c20 <vListInsertEnd>
 8010868:	10000d10 	.word	0x10000d10
 801086c:	10000d68 	.word	0x10000d68
 8010870:	10000d1c 	.word	0x10000d1c
 8010874:	10000c70 	.word	0x10000c70
 8010878:	10000d14 	.word	0x10000d14
 801087c:	10000d20 	.word	0x10000d20
 8010880:	10000c90 	.word	0x10000c90

08010884 <vTaskPlaceOnEventListRestricted>:
 8010884:	2800      	cmp	r0, #0
 8010886:	d02c      	beq.n	80108e2 <vTaskPlaceOnEventListRestricted+0x5e>
 8010888:	b570      	push	{r4, r5, r6, lr}
 801088a:	4d22      	ldr	r5, [pc, #136]	; (8010914 <vTaskPlaceOnEventListRestricted+0x90>)
 801088c:	460c      	mov	r4, r1
 801088e:	6829      	ldr	r1, [r5, #0]
 8010890:	3118      	adds	r1, #24
 8010892:	4616      	mov	r6, r2
 8010894:	f000 f9c4 	bl	8010c20 <vListInsertEnd>
 8010898:	6828      	ldr	r0, [r5, #0]
 801089a:	3004      	adds	r0, #4
 801089c:	f000 f9ea 	bl	8010c74 <uxListRemove>
 80108a0:	b940      	cbnz	r0, 80108b4 <vTaskPlaceOnEventListRestricted+0x30>
 80108a2:	682b      	ldr	r3, [r5, #0]
 80108a4:	491c      	ldr	r1, [pc, #112]	; (8010918 <vTaskPlaceOnEventListRestricted+0x94>)
 80108a6:	6ad8      	ldr	r0, [r3, #44]	; 0x2c
 80108a8:	680b      	ldr	r3, [r1, #0]
 80108aa:	2201      	movs	r2, #1
 80108ac:	4082      	lsls	r2, r0
 80108ae:	ea23 0302 	bic.w	r3, r3, r2
 80108b2:	600b      	str	r3, [r1, #0]
 80108b4:	2e01      	cmp	r6, #1
 80108b6:	d025      	beq.n	8010904 <vTaskPlaceOnEventListRestricted+0x80>
 80108b8:	4918      	ldr	r1, [pc, #96]	; (801091c <vTaskPlaceOnEventListRestricted+0x98>)
 80108ba:	4a16      	ldr	r2, [pc, #88]	; (8010914 <vTaskPlaceOnEventListRestricted+0x90>)
 80108bc:	680b      	ldr	r3, [r1, #0]
 80108be:	6828      	ldr	r0, [r5, #0]
 80108c0:	6809      	ldr	r1, [r1, #0]
 80108c2:	441c      	add	r4, r3
 80108c4:	428c      	cmp	r4, r1
 80108c6:	6044      	str	r4, [r0, #4]
 80108c8:	d314      	bcc.n	80108f4 <vTaskPlaceOnEventListRestricted+0x70>
 80108ca:	4b15      	ldr	r3, [pc, #84]	; (8010920 <vTaskPlaceOnEventListRestricted+0x9c>)
 80108cc:	6818      	ldr	r0, [r3, #0]
 80108ce:	6811      	ldr	r1, [r2, #0]
 80108d0:	3104      	adds	r1, #4
 80108d2:	f000 f9b5 	bl	8010c40 <vListInsert>
 80108d6:	4b13      	ldr	r3, [pc, #76]	; (8010924 <vTaskPlaceOnEventListRestricted+0xa0>)
 80108d8:	681a      	ldr	r2, [r3, #0]
 80108da:	4294      	cmp	r4, r2
 80108dc:	bf38      	it	cc
 80108de:	601c      	strcc	r4, [r3, #0]
 80108e0:	bd70      	pop	{r4, r5, r6, pc}
 80108e2:	f04f 0350 	mov.w	r3, #80	; 0x50
 80108e6:	f383 8811 	msr	BASEPRI, r3
 80108ea:	f3bf 8f6f 	isb	sy
 80108ee:	f3bf 8f4f 	dsb	sy
 80108f2:	e7fe      	b.n	80108f2 <vTaskPlaceOnEventListRestricted+0x6e>
 80108f4:	4b0c      	ldr	r3, [pc, #48]	; (8010928 <vTaskPlaceOnEventListRestricted+0xa4>)
 80108f6:	6818      	ldr	r0, [r3, #0]
 80108f8:	6811      	ldr	r1, [r2, #0]
 80108fa:	e8bd 4070 	ldmia.w	sp!, {r4, r5, r6, lr}
 80108fe:	3104      	adds	r1, #4
 8010900:	f000 b99e 	b.w	8010c40 <vListInsert>
 8010904:	6829      	ldr	r1, [r5, #0]
 8010906:	4809      	ldr	r0, [pc, #36]	; (801092c <vTaskPlaceOnEventListRestricted+0xa8>)
 8010908:	3104      	adds	r1, #4
 801090a:	e8bd 4070 	ldmia.w	sp!, {r4, r5, r6, lr}
 801090e:	f000 b987 	b.w	8010c20 <vListInsertEnd>
 8010912:	bf00      	nop
 8010914:	10000d10 	.word	0x10000d10
 8010918:	10000d68 	.word	0x10000d68
 801091c:	10000d1c 	.word	0x10000d1c
 8010920:	10000c70 	.word	0x10000c70
 8010924:	10000d14 	.word	0x10000d14
 8010928:	10000d20 	.word	0x10000d20
 801092c:	10000c90 	.word	0x10000c90

08010930 <xTaskRemoveFromEventList>:
 8010930:	b5f8      	push	{r3, r4, r5, r6, r7, lr}
 8010932:	68c3      	ldr	r3, [r0, #12]
 8010934:	68dc      	ldr	r4, [r3, #12]
 8010936:	b32c      	cbz	r4, 8010984 <xTaskRemoveFromEventList+0x54>
 8010938:	f104 0518 	add.w	r5, r4, #24
 801093c:	4628      	mov	r0, r5
 801093e:	f000 f999 	bl	8010c74 <uxListRemove>
 8010942:	4b17      	ldr	r3, [pc, #92]	; (80109a0 <xTaskRemoveFromEventList+0x70>)
 8010944:	681b      	ldr	r3, [r3, #0]
 8010946:	bb33      	cbnz	r3, 8010996 <xTaskRemoveFromEventList+0x66>
 8010948:	1d27      	adds	r7, r4, #4
 801094a:	4e16      	ldr	r6, [pc, #88]	; (80109a4 <xTaskRemoveFromEventList+0x74>)
 801094c:	4638      	mov	r0, r7
 801094e:	f000 f991 	bl	8010c74 <uxListRemove>
 8010952:	6ae3      	ldr	r3, [r4, #44]	; 0x2c
 8010954:	6832      	ldr	r2, [r6, #0]
 8010956:	4814      	ldr	r0, [pc, #80]	; (80109a8 <xTaskRemoveFromEventList+0x78>)
 8010958:	2501      	movs	r5, #1
 801095a:	409d      	lsls	r5, r3
 801095c:	eb03 0383 	add.w	r3, r3, r3, lsl #2
 8010960:	432a      	orrs	r2, r5
 8010962:	4639      	mov	r1, r7
 8010964:	eb00 0083 	add.w	r0, r0, r3, lsl #2
 8010968:	6032      	str	r2, [r6, #0]
 801096a:	f000 f959 	bl	8010c20 <vListInsertEnd>
 801096e:	4b0f      	ldr	r3, [pc, #60]	; (80109ac <xTaskRemoveFromEventList+0x7c>)
 8010970:	6ae2      	ldr	r2, [r4, #44]	; 0x2c
 8010972:	681b      	ldr	r3, [r3, #0]
 8010974:	6adb      	ldr	r3, [r3, #44]	; 0x2c
 8010976:	429a      	cmp	r2, r3
 8010978:	bf83      	ittte	hi
 801097a:	4b0d      	ldrhi	r3, [pc, #52]	; (80109b0 <xTaskRemoveFromEventList+0x80>)
 801097c:	2001      	movhi	r0, #1
 801097e:	6018      	strhi	r0, [r3, #0]
 8010980:	2000      	movls	r0, #0
 8010982:	bdf8      	pop	{r3, r4, r5, r6, r7, pc}
 8010984:	f04f 0350 	mov.w	r3, #80	; 0x50
 8010988:	f383 8811 	msr	BASEPRI, r3
 801098c:	f3bf 8f6f 	isb	sy
 8010990:	f3bf 8f4f 	dsb	sy
 8010994:	e7fe      	b.n	8010994 <xTaskRemoveFromEventList+0x64>
 8010996:	4629      	mov	r1, r5
 8010998:	4806      	ldr	r0, [pc, #24]	; (80109b4 <xTaskRemoveFromEventList+0x84>)
 801099a:	f000 f941 	bl	8010c20 <vListInsertEnd>
 801099e:	e7e6      	b.n	801096e <xTaskRemoveFromEventList+0x3e>
 80109a0:	10000d0c 	.word	0x10000d0c
 80109a4:	10000d68 	.word	0x10000d68
 80109a8:	10000ca8 	.word	0x10000ca8
 80109ac:	10000d10 	.word	0x10000d10
 80109b0:	10000d6c 	.word	0x10000d6c
 80109b4:	10000d24 	.word	0x10000d24

080109b8 <vTaskSetTimeOutState>:
 80109b8:	b130      	cbz	r0, 80109c8 <vTaskSetTimeOutState+0x10>
 80109ba:	4a08      	ldr	r2, [pc, #32]	; (80109dc <vTaskSetTimeOutState+0x24>)
 80109bc:	4b08      	ldr	r3, [pc, #32]	; (80109e0 <vTaskSetTimeOutState+0x28>)
 80109be:	6812      	ldr	r2, [r2, #0]
 80109c0:	681b      	ldr	r3, [r3, #0]
 80109c2:	e880 000c 	stmia.w	r0, {r2, r3}
 80109c6:	4770      	bx	lr
 80109c8:	f04f 0350 	mov.w	r3, #80	; 0x50
 80109cc:	f383 8811 	msr	BASEPRI, r3
 80109d0:	f3bf 8f6f 	isb	sy
 80109d4:	f3bf 8f4f 	dsb	sy
 80109d8:	e7fe      	b.n	80109d8 <vTaskSetTimeOutState+0x20>
 80109da:	bf00      	nop
 80109dc:	10000d18 	.word	0x10000d18
 80109e0:	10000d1c 	.word	0x10000d1c

080109e4 <xTaskCheckForTimeOut>:
 80109e4:	b5f8      	push	{r3, r4, r5, r6, r7, lr}
 80109e6:	b370      	cbz	r0, 8010a46 <xTaskCheckForTimeOut+0x62>
 80109e8:	b321      	cbz	r1, 8010a34 <xTaskCheckForTimeOut+0x50>
 80109ea:	460d      	mov	r5, r1
 80109ec:	4604      	mov	r4, r0
 80109ee:	f000 fc5b 	bl	80112a8 <vPortEnterCritical>
 80109f2:	682a      	ldr	r2, [r5, #0]
 80109f4:	481b      	ldr	r0, [pc, #108]	; (8010a64 <xTaskCheckForTimeOut+0x80>)
 80109f6:	1c53      	adds	r3, r2, #1
 80109f8:	6801      	ldr	r1, [r0, #0]
 80109fa:	d02d      	beq.n	8010a58 <xTaskCheckForTimeOut+0x74>
 80109fc:	4e1a      	ldr	r6, [pc, #104]	; (8010a68 <xTaskCheckForTimeOut+0x84>)
 80109fe:	6827      	ldr	r7, [r4, #0]
 8010a00:	6833      	ldr	r3, [r6, #0]
 8010a02:	429f      	cmp	r7, r3
 8010a04:	6863      	ldr	r3, [r4, #4]
 8010a06:	d001      	beq.n	8010a0c <xTaskCheckForTimeOut+0x28>
 8010a08:	4299      	cmp	r1, r3
 8010a0a:	d20e      	bcs.n	8010a2a <xTaskCheckForTimeOut+0x46>
 8010a0c:	1acf      	subs	r7, r1, r3
 8010a0e:	42ba      	cmp	r2, r7
 8010a10:	d90b      	bls.n	8010a2a <xTaskCheckForTimeOut+0x46>
 8010a12:	1a52      	subs	r2, r2, r1
 8010a14:	4413      	add	r3, r2
 8010a16:	6831      	ldr	r1, [r6, #0]
 8010a18:	6802      	ldr	r2, [r0, #0]
 8010a1a:	602b      	str	r3, [r5, #0]
 8010a1c:	2500      	movs	r5, #0
 8010a1e:	e884 0006 	stmia.w	r4, {r1, r2}
 8010a22:	f000 fc63 	bl	80112ec <vPortExitCritical>
 8010a26:	4628      	mov	r0, r5
 8010a28:	bdf8      	pop	{r3, r4, r5, r6, r7, pc}
 8010a2a:	2501      	movs	r5, #1
 8010a2c:	f000 fc5e 	bl	80112ec <vPortExitCritical>
 8010a30:	4628      	mov	r0, r5
 8010a32:	bdf8      	pop	{r3, r4, r5, r6, r7, pc}
 8010a34:	f04f 0350 	mov.w	r3, #80	; 0x50
 8010a38:	f383 8811 	msr	BASEPRI, r3
 8010a3c:	f3bf 8f6f 	isb	sy
 8010a40:	f3bf 8f4f 	dsb	sy
 8010a44:	e7fe      	b.n	8010a44 <xTaskCheckForTimeOut+0x60>
 8010a46:	f04f 0350 	mov.w	r3, #80	; 0x50
 8010a4a:	f383 8811 	msr	BASEPRI, r3
 8010a4e:	f3bf 8f6f 	isb	sy
 8010a52:	f3bf 8f4f 	dsb	sy
 8010a56:	e7fe      	b.n	8010a56 <xTaskCheckForTimeOut+0x72>
 8010a58:	2500      	movs	r5, #0
 8010a5a:	f000 fc47 	bl	80112ec <vPortExitCritical>
 8010a5e:	4628      	mov	r0, r5
 8010a60:	bdf8      	pop	{r3, r4, r5, r6, r7, pc}
 8010a62:	bf00      	nop
 8010a64:	10000d1c 	.word	0x10000d1c
 8010a68:	10000d18 	.word	0x10000d18

08010a6c <vTaskMissedYield>:
 8010a6c:	4b01      	ldr	r3, [pc, #4]	; (8010a74 <vTaskMissedYield+0x8>)
 8010a6e:	2201      	movs	r2, #1
 8010a70:	601a      	str	r2, [r3, #0]
 8010a72:	4770      	bx	lr
 8010a74:	10000d6c 	.word	0x10000d6c

08010a78 <xTaskGetSchedulerState>:
 8010a78:	4b05      	ldr	r3, [pc, #20]	; (8010a90 <xTaskGetSchedulerState+0x18>)
 8010a7a:	681b      	ldr	r3, [r3, #0]
 8010a7c:	b133      	cbz	r3, 8010a8c <xTaskGetSchedulerState+0x14>
 8010a7e:	4b05      	ldr	r3, [pc, #20]	; (8010a94 <xTaskGetSchedulerState+0x1c>)
 8010a80:	681b      	ldr	r3, [r3, #0]
 8010a82:	2b00      	cmp	r3, #0
 8010a84:	bf0c      	ite	eq
 8010a86:	2002      	moveq	r0, #2
 8010a88:	2000      	movne	r0, #0
 8010a8a:	4770      	bx	lr
 8010a8c:	2001      	movs	r0, #1
 8010a8e:	4770      	bx	lr
 8010a90:	10000c74 	.word	0x10000c74
 8010a94:	10000d0c 	.word	0x10000d0c

08010a98 <vTaskPriorityInherit>:
 8010a98:	2800      	cmp	r0, #0
 8010a9a:	d042      	beq.n	8010b22 <vTaskPriorityInherit+0x8a>
 8010a9c:	e92d 41f0 	stmdb	sp!, {r4, r5, r6, r7, r8, lr}
 8010aa0:	4c21      	ldr	r4, [pc, #132]	; (8010b28 <vTaskPriorityInherit+0x90>)
 8010aa2:	6ac3      	ldr	r3, [r0, #44]	; 0x2c
 8010aa4:	6822      	ldr	r2, [r4, #0]
 8010aa6:	6ad2      	ldr	r2, [r2, #44]	; 0x2c
 8010aa8:	4293      	cmp	r3, r2
 8010aaa:	d212      	bcs.n	8010ad2 <vTaskPriorityInherit+0x3a>
 8010aac:	6982      	ldr	r2, [r0, #24]
 8010aae:	2a00      	cmp	r2, #0
 8010ab0:	db04      	blt.n	8010abc <vTaskPriorityInherit+0x24>
 8010ab2:	6822      	ldr	r2, [r4, #0]
 8010ab4:	6ad2      	ldr	r2, [r2, #44]	; 0x2c
 8010ab6:	f1c2 0205 	rsb	r2, r2, #5
 8010aba:	6182      	str	r2, [r0, #24]
 8010abc:	4d1b      	ldr	r5, [pc, #108]	; (8010b2c <vTaskPriorityInherit+0x94>)
 8010abe:	6942      	ldr	r2, [r0, #20]
 8010ac0:	eb03 0383 	add.w	r3, r3, r3, lsl #2
 8010ac4:	eb05 0383 	add.w	r3, r5, r3, lsl #2
 8010ac8:	429a      	cmp	r2, r3
 8010aca:	d004      	beq.n	8010ad6 <vTaskPriorityInherit+0x3e>
 8010acc:	6823      	ldr	r3, [r4, #0]
 8010ace:	6adb      	ldr	r3, [r3, #44]	; 0x2c
 8010ad0:	62c3      	str	r3, [r0, #44]	; 0x2c
 8010ad2:	e8bd 81f0 	ldmia.w	sp!, {r4, r5, r6, r7, r8, pc}
 8010ad6:	f100 0804 	add.w	r8, r0, #4
 8010ada:	4607      	mov	r7, r0
 8010adc:	4640      	mov	r0, r8
 8010ade:	f000 f8c9 	bl	8010c74 <uxListRemove>
 8010ae2:	b9f8      	cbnz	r0, 8010b24 <vTaskPriorityInherit+0x8c>
 8010ae4:	6afb      	ldr	r3, [r7, #44]	; 0x2c
 8010ae6:	4e12      	ldr	r6, [pc, #72]	; (8010b30 <vTaskPriorityInherit+0x98>)
 8010ae8:	eb03 0283 	add.w	r2, r3, r3, lsl #2
 8010aec:	f855 2022 	ldr.w	r2, [r5, r2, lsl #2]
 8010af0:	b932      	cbnz	r2, 8010b00 <vTaskPriorityInherit+0x68>
 8010af2:	6832      	ldr	r2, [r6, #0]
 8010af4:	2101      	movs	r1, #1
 8010af6:	fa01 f303 	lsl.w	r3, r1, r3
 8010afa:	ea22 0303 	bic.w	r3, r2, r3
 8010afe:	6033      	str	r3, [r6, #0]
 8010b00:	6823      	ldr	r3, [r4, #0]
 8010b02:	6832      	ldr	r2, [r6, #0]
 8010b04:	6ad8      	ldr	r0, [r3, #44]	; 0x2c
 8010b06:	62f8      	str	r0, [r7, #44]	; 0x2c
 8010b08:	2301      	movs	r3, #1
 8010b0a:	4083      	lsls	r3, r0
 8010b0c:	4313      	orrs	r3, r2
 8010b0e:	eb00 0080 	add.w	r0, r0, r0, lsl #2
 8010b12:	4641      	mov	r1, r8
 8010b14:	eb05 0080 	add.w	r0, r5, r0, lsl #2
 8010b18:	6033      	str	r3, [r6, #0]
 8010b1a:	e8bd 41f0 	ldmia.w	sp!, {r4, r5, r6, r7, r8, lr}
 8010b1e:	f000 b87f 	b.w	8010c20 <vListInsertEnd>
 8010b22:	4770      	bx	lr
 8010b24:	4e02      	ldr	r6, [pc, #8]	; (8010b30 <vTaskPriorityInherit+0x98>)
 8010b26:	e7eb      	b.n	8010b00 <vTaskPriorityInherit+0x68>
 8010b28:	10000d10 	.word	0x10000d10
 8010b2c:	10000ca8 	.word	0x10000ca8
 8010b30:	10000d68 	.word	0x10000d68

08010b34 <xTaskPriorityDisinherit>:
 8010b34:	b308      	cbz	r0, 8010b7a <xTaskPriorityDisinherit+0x46>
 8010b36:	b5f8      	push	{r3, r4, r5, r6, r7, lr}
 8010b38:	4b28      	ldr	r3, [pc, #160]	; (8010bdc <xTaskPriorityDisinherit+0xa8>)
 8010b3a:	681b      	ldr	r3, [r3, #0]
 8010b3c:	4298      	cmp	r0, r3
 8010b3e:	d008      	beq.n	8010b52 <xTaskPriorityDisinherit+0x1e>
 8010b40:	f04f 0350 	mov.w	r3, #80	; 0x50
 8010b44:	f383 8811 	msr	BASEPRI, r3
 8010b48:	f3bf 8f6f 	isb	sy
 8010b4c:	f3bf 8f4f 	dsb	sy
 8010b50:	e7fe      	b.n	8010b50 <xTaskPriorityDisinherit+0x1c>
 8010b52:	6cc3      	ldr	r3, [r0, #76]	; 0x4c
 8010b54:	b943      	cbnz	r3, 8010b68 <xTaskPriorityDisinherit+0x34>
 8010b56:	f04f 0350 	mov.w	r3, #80	; 0x50
 8010b5a:	f383 8811 	msr	BASEPRI, r3
 8010b5e:	f3bf 8f6f 	isb	sy
 8010b62:	f3bf 8f4f 	dsb	sy
 8010b66:	e7fe      	b.n	8010b66 <xTaskPriorityDisinherit+0x32>
 8010b68:	6ac1      	ldr	r1, [r0, #44]	; 0x2c
 8010b6a:	6c82      	ldr	r2, [r0, #72]	; 0x48
 8010b6c:	3b01      	subs	r3, #1
 8010b6e:	4291      	cmp	r1, r2
 8010b70:	64c3      	str	r3, [r0, #76]	; 0x4c
 8010b72:	d000      	beq.n	8010b76 <xTaskPriorityDisinherit+0x42>
 8010b74:	b11b      	cbz	r3, 8010b7e <xTaskPriorityDisinherit+0x4a>
 8010b76:	2000      	movs	r0, #0
 8010b78:	bdf8      	pop	{r3, r4, r5, r6, r7, pc}
 8010b7a:	2000      	movs	r0, #0
 8010b7c:	4770      	bx	lr
 8010b7e:	1d07      	adds	r7, r0, #4
 8010b80:	4604      	mov	r4, r0
 8010b82:	4638      	mov	r0, r7
 8010b84:	f000 f876 	bl	8010c74 <uxListRemove>
 8010b88:	b1b8      	cbz	r0, 8010bba <xTaskPriorityDisinherit+0x86>
 8010b8a:	4815      	ldr	r0, [pc, #84]	; (8010be0 <xTaskPriorityDisinherit+0xac>)
 8010b8c:	4a15      	ldr	r2, [pc, #84]	; (8010be4 <xTaskPriorityDisinherit+0xb0>)
 8010b8e:	6ca3      	ldr	r3, [r4, #72]	; 0x48
 8010b90:	6816      	ldr	r6, [r2, #0]
 8010b92:	62e3      	str	r3, [r4, #44]	; 0x2c
 8010b94:	2501      	movs	r5, #1
 8010b96:	fa05 fc03 	lsl.w	ip, r5, r3
 8010b9a:	f1c3 0e05 	rsb	lr, r3, #5
 8010b9e:	eb03 0383 	add.w	r3, r3, r3, lsl #2
 8010ba2:	ea4c 0606 	orr.w	r6, ip, r6
 8010ba6:	eb00 0083 	add.w	r0, r0, r3, lsl #2
 8010baa:	4639      	mov	r1, r7
 8010bac:	f8c4 e018 	str.w	lr, [r4, #24]
 8010bb0:	6016      	str	r6, [r2, #0]
 8010bb2:	f000 f835 	bl	8010c20 <vListInsertEnd>
 8010bb6:	4628      	mov	r0, r5
 8010bb8:	bdf8      	pop	{r3, r4, r5, r6, r7, pc}
 8010bba:	6ae1      	ldr	r1, [r4, #44]	; 0x2c
 8010bbc:	4808      	ldr	r0, [pc, #32]	; (8010be0 <xTaskPriorityDisinherit+0xac>)
 8010bbe:	4a09      	ldr	r2, [pc, #36]	; (8010be4 <xTaskPriorityDisinherit+0xb0>)
 8010bc0:	eb01 0381 	add.w	r3, r1, r1, lsl #2
 8010bc4:	f850 3023 	ldr.w	r3, [r0, r3, lsl #2]
 8010bc8:	2b00      	cmp	r3, #0
 8010bca:	d1e0      	bne.n	8010b8e <xTaskPriorityDisinherit+0x5a>
 8010bcc:	6813      	ldr	r3, [r2, #0]
 8010bce:	2501      	movs	r5, #1
 8010bd0:	408d      	lsls	r5, r1
 8010bd2:	ea23 0305 	bic.w	r3, r3, r5
 8010bd6:	6013      	str	r3, [r2, #0]
 8010bd8:	e7d9      	b.n	8010b8e <xTaskPriorityDisinherit+0x5a>
 8010bda:	bf00      	nop
 8010bdc:	10000d10 	.word	0x10000d10
 8010be0:	10000ca8 	.word	0x10000ca8
 8010be4:	10000d68 	.word	0x10000d68

08010be8 <pvTaskIncrementMutexHeldCount>:
 8010be8:	4b04      	ldr	r3, [pc, #16]	; (8010bfc <pvTaskIncrementMutexHeldCount+0x14>)
 8010bea:	681a      	ldr	r2, [r3, #0]
 8010bec:	b11a      	cbz	r2, 8010bf6 <pvTaskIncrementMutexHeldCount+0xe>
 8010bee:	6819      	ldr	r1, [r3, #0]
 8010bf0:	6cca      	ldr	r2, [r1, #76]	; 0x4c
 8010bf2:	3201      	adds	r2, #1
 8010bf4:	64ca      	str	r2, [r1, #76]	; 0x4c
 8010bf6:	6818      	ldr	r0, [r3, #0]
 8010bf8:	4770      	bx	lr
 8010bfa:	bf00      	nop
 8010bfc:	10000d10 	.word	0x10000d10

08010c00 <vListInitialise>:
 8010c00:	f100 0308 	add.w	r3, r0, #8
 8010c04:	f04f 31ff 	mov.w	r1, #4294967295
 8010c08:	2200      	movs	r2, #0
 8010c0a:	6081      	str	r1, [r0, #8]
 8010c0c:	e880 000c 	stmia.w	r0, {r2, r3}
 8010c10:	60c3      	str	r3, [r0, #12]
 8010c12:	6103      	str	r3, [r0, #16]
 8010c14:	4770      	bx	lr
 8010c16:	bf00      	nop

08010c18 <vListInitialiseItem>:
 8010c18:	2300      	movs	r3, #0
 8010c1a:	6103      	str	r3, [r0, #16]
 8010c1c:	4770      	bx	lr
 8010c1e:	bf00      	nop

08010c20 <vListInsertEnd>:
 8010c20:	e890 000c 	ldmia.w	r0, {r2, r3}
 8010c24:	b410      	push	{r4}
 8010c26:	689c      	ldr	r4, [r3, #8]
 8010c28:	608c      	str	r4, [r1, #8]
 8010c2a:	689c      	ldr	r4, [r3, #8]
 8010c2c:	604b      	str	r3, [r1, #4]
 8010c2e:	3201      	adds	r2, #1
 8010c30:	6061      	str	r1, [r4, #4]
 8010c32:	6099      	str	r1, [r3, #8]
 8010c34:	f85d 4b04 	ldr.w	r4, [sp], #4
 8010c38:	6108      	str	r0, [r1, #16]
 8010c3a:	6002      	str	r2, [r0, #0]
 8010c3c:	4770      	bx	lr
 8010c3e:	bf00      	nop

08010c40 <vListInsert>:
 8010c40:	b430      	push	{r4, r5}
 8010c42:	680d      	ldr	r5, [r1, #0]
 8010c44:	1c6b      	adds	r3, r5, #1
 8010c46:	d011      	beq.n	8010c6c <vListInsert+0x2c>
 8010c48:	f100 0208 	add.w	r2, r0, #8
 8010c4c:	e000      	b.n	8010c50 <vListInsert+0x10>
 8010c4e:	461a      	mov	r2, r3
 8010c50:	6853      	ldr	r3, [r2, #4]
 8010c52:	681c      	ldr	r4, [r3, #0]
 8010c54:	42a5      	cmp	r5, r4
 8010c56:	d2fa      	bcs.n	8010c4e <vListInsert+0xe>
 8010c58:	6804      	ldr	r4, [r0, #0]
 8010c5a:	604b      	str	r3, [r1, #4]
 8010c5c:	3401      	adds	r4, #1
 8010c5e:	6099      	str	r1, [r3, #8]
 8010c60:	608a      	str	r2, [r1, #8]
 8010c62:	6051      	str	r1, [r2, #4]
 8010c64:	6108      	str	r0, [r1, #16]
 8010c66:	6004      	str	r4, [r0, #0]
 8010c68:	bc30      	pop	{r4, r5}
 8010c6a:	4770      	bx	lr
 8010c6c:	6902      	ldr	r2, [r0, #16]
 8010c6e:	6853      	ldr	r3, [r2, #4]
 8010c70:	e7f2      	b.n	8010c58 <vListInsert+0x18>
 8010c72:	bf00      	nop

08010c74 <uxListRemove>:
 8010c74:	6843      	ldr	r3, [r0, #4]
 8010c76:	6881      	ldr	r1, [r0, #8]
 8010c78:	6902      	ldr	r2, [r0, #16]
 8010c7a:	b410      	push	{r4}
 8010c7c:	6099      	str	r1, [r3, #8]
 8010c7e:	6881      	ldr	r1, [r0, #8]
 8010c80:	6854      	ldr	r4, [r2, #4]
 8010c82:	604b      	str	r3, [r1, #4]
 8010c84:	6813      	ldr	r3, [r2, #0]
 8010c86:	4284      	cmp	r4, r0
 8010c88:	bf08      	it	eq
 8010c8a:	6051      	streq	r1, [r2, #4]
 8010c8c:	3b01      	subs	r3, #1
 8010c8e:	2100      	movs	r1, #0
 8010c90:	6101      	str	r1, [r0, #16]
 8010c92:	f85d 4b04 	ldr.w	r4, [sp], #4
 8010c96:	6013      	str	r3, [r2, #0]
 8010c98:	4618      	mov	r0, r3
 8010c9a:	4770      	bx	lr

08010c9c <prvSwitchTimerLists>:
 8010c9c:	e92d 47f0 	stmdb	sp!, {r4, r5, r6, r7, r8, r9, sl, lr}
 8010ca0:	4d22      	ldr	r5, [pc, #136]	; (8010d2c <prvSwitchTimerLists+0x90>)
 8010ca2:	4e23      	ldr	r6, [pc, #140]	; (8010d30 <prvSwitchTimerLists+0x94>)
 8010ca4:	b084      	sub	sp, #16
 8010ca6:	46a8      	mov	r8, r5
 8010ca8:	f04f 0a00 	mov.w	sl, #0
 8010cac:	e00d      	b.n	8010cca <prvSwitchTimerLists+0x2e>
 8010cae:	68db      	ldr	r3, [r3, #12]
 8010cb0:	68dc      	ldr	r4, [r3, #12]
 8010cb2:	681f      	ldr	r7, [r3, #0]
 8010cb4:	f104 0904 	add.w	r9, r4, #4
 8010cb8:	4648      	mov	r0, r9
 8010cba:	f7ff ffdb 	bl	8010c74 <uxListRemove>
 8010cbe:	6a63      	ldr	r3, [r4, #36]	; 0x24
 8010cc0:	4620      	mov	r0, r4
 8010cc2:	4798      	blx	r3
 8010cc4:	69e3      	ldr	r3, [r4, #28]
 8010cc6:	2b01      	cmp	r3, #1
 8010cc8:	d00b      	beq.n	8010ce2 <prvSwitchTimerLists+0x46>
 8010cca:	682b      	ldr	r3, [r5, #0]
 8010ccc:	4917      	ldr	r1, [pc, #92]	; (8010d2c <prvSwitchTimerLists+0x90>)
 8010cce:	681a      	ldr	r2, [r3, #0]
 8010cd0:	2a00      	cmp	r2, #0
 8010cd2:	d1ec      	bne.n	8010cae <prvSwitchTimerLists+0x12>
 8010cd4:	4a17      	ldr	r2, [pc, #92]	; (8010d34 <prvSwitchTimerLists+0x98>)
 8010cd6:	6810      	ldr	r0, [r2, #0]
 8010cd8:	6008      	str	r0, [r1, #0]
 8010cda:	6013      	str	r3, [r2, #0]
 8010cdc:	b004      	add	sp, #16
 8010cde:	e8bd 87f0 	ldmia.w	sp!, {r4, r5, r6, r7, r8, r9, sl, pc}
 8010ce2:	69a3      	ldr	r3, [r4, #24]
 8010ce4:	443b      	add	r3, r7
 8010ce6:	42bb      	cmp	r3, r7
 8010ce8:	4649      	mov	r1, r9
 8010cea:	d818      	bhi.n	8010d1e <prvSwitchTimerLists+0x82>
 8010cec:	6833      	ldr	r3, [r6, #0]
 8010cee:	b16b      	cbz	r3, 8010d0c <prvSwitchTimerLists+0x70>
 8010cf0:	f8cd a004 	str.w	sl, [sp, #4]
 8010cf4:	9702      	str	r7, [sp, #8]
 8010cf6:	9403      	str	r4, [sp, #12]
 8010cf8:	f7ff febe 	bl	8010a78 <xTaskGetSchedulerState>
 8010cfc:	2200      	movs	r2, #0
 8010cfe:	4613      	mov	r3, r2
 8010d00:	6830      	ldr	r0, [r6, #0]
 8010d02:	a901      	add	r1, sp, #4
 8010d04:	f000 fd82 	bl	801180c <xQueueGenericSend>
 8010d08:	2800      	cmp	r0, #0
 8010d0a:	d1de      	bne.n	8010cca <prvSwitchTimerLists+0x2e>
 8010d0c:	f04f 0350 	mov.w	r3, #80	; 0x50
 8010d10:	f383 8811 	msr	BASEPRI, r3
 8010d14:	f3bf 8f6f 	isb	sy
 8010d18:	f3bf 8f4f 	dsb	sy
 8010d1c:	e7fe      	b.n	8010d1c <prvSwitchTimerLists+0x80>
 8010d1e:	6063      	str	r3, [r4, #4]
 8010d20:	6124      	str	r4, [r4, #16]
 8010d22:	f8d8 0000 	ldr.w	r0, [r8]
 8010d26:	f7ff ff8b 	bl	8010c40 <vListInsert>
 8010d2a:	e7ce      	b.n	8010cca <prvSwitchTimerLists+0x2e>
 8010d2c:	10000d70 	.word	0x10000d70
 8010d30:	10000da0 	.word	0x10000da0
 8010d34:	10000da4 	.word	0x10000da4

08010d38 <xTimerCreateTimerTask>:
 8010d38:	b5f0      	push	{r4, r5, r6, r7, lr}
 8010d3a:	4c21      	ldr	r4, [pc, #132]	; (8010dc0 <xTimerCreateTimerTask+0x88>)
 8010d3c:	b085      	sub	sp, #20
 8010d3e:	f000 fab3 	bl	80112a8 <vPortEnterCritical>
 8010d42:	6826      	ldr	r6, [r4, #0]
 8010d44:	b1de      	cbz	r6, 8010d7e <xTimerCreateTimerTask+0x46>
 8010d46:	f000 fad1 	bl	80112ec <vPortExitCritical>
 8010d4a:	6823      	ldr	r3, [r4, #0]
 8010d4c:	b173      	cbz	r3, 8010d6c <xTimerCreateTimerTask+0x34>
 8010d4e:	2300      	movs	r3, #0
 8010d50:	2202      	movs	r2, #2
 8010d52:	e88d 000c 	stmia.w	sp, {r2, r3}
 8010d56:	9302      	str	r3, [sp, #8]
 8010d58:	9303      	str	r3, [sp, #12]
 8010d5a:	481a      	ldr	r0, [pc, #104]	; (8010dc4 <xTimerCreateTimerTask+0x8c>)
 8010d5c:	491a      	ldr	r1, [pc, #104]	; (8010dc8 <xTimerCreateTimerTask+0x90>)
 8010d5e:	f44f 7282 	mov.w	r2, #260	; 0x104
 8010d62:	f7ff fabb 	bl	80102dc <xTaskGenericCreate>
 8010d66:	b108      	cbz	r0, 8010d6c <xTimerCreateTimerTask+0x34>
 8010d68:	b005      	add	sp, #20
 8010d6a:	bdf0      	pop	{r4, r5, r6, r7, pc}
 8010d6c:	f04f 0350 	mov.w	r3, #80	; 0x50
 8010d70:	f383 8811 	msr	BASEPRI, r3
 8010d74:	f3bf 8f6f 	isb	sy
 8010d78:	f3bf 8f4f 	dsb	sy
 8010d7c:	e7fe      	b.n	8010d7c <xTimerCreateTimerTask+0x44>
 8010d7e:	4f13      	ldr	r7, [pc, #76]	; (8010dcc <xTimerCreateTimerTask+0x94>)
 8010d80:	4d13      	ldr	r5, [pc, #76]	; (8010dd0 <xTimerCreateTimerTask+0x98>)
 8010d82:	4638      	mov	r0, r7
 8010d84:	f7ff ff3c 	bl	8010c00 <vListInitialise>
 8010d88:	4628      	mov	r0, r5
 8010d8a:	f7ff ff39 	bl	8010c00 <vListInitialise>
 8010d8e:	4a11      	ldr	r2, [pc, #68]	; (8010dd4 <xTimerCreateTimerTask+0x9c>)
 8010d90:	4b11      	ldr	r3, [pc, #68]	; (8010dd8 <xTimerCreateTimerTask+0xa0>)
 8010d92:	6017      	str	r7, [r2, #0]
 8010d94:	200a      	movs	r0, #10
 8010d96:	4632      	mov	r2, r6
 8010d98:	210c      	movs	r1, #12
 8010d9a:	601d      	str	r5, [r3, #0]
 8010d9c:	f000 fcea 	bl	8011774 <xQueueGenericCreate>
 8010da0:	6020      	str	r0, [r4, #0]
 8010da2:	b118      	cbz	r0, 8010dac <xTimerCreateTimerTask+0x74>
 8010da4:	490d      	ldr	r1, [pc, #52]	; (8010ddc <xTimerCreateTimerTask+0xa4>)
 8010da6:	f001 f8b3 	bl	8011f10 <vQueueAddToRegistry>
 8010daa:	e7cc      	b.n	8010d46 <xTimerCreateTimerTask+0xe>
 8010dac:	f04f 0350 	mov.w	r3, #80	; 0x50
 8010db0:	f383 8811 	msr	BASEPRI, r3
 8010db4:	f3bf 8f6f 	isb	sy
 8010db8:	f3bf 8f4f 	dsb	sy
 8010dbc:	e7fe      	b.n	8010dbc <xTimerCreateTimerTask+0x84>
 8010dbe:	bf00      	nop
 8010dc0:	10000da0 	.word	0x10000da0
 8010dc4:	08010e49 	.word	0x08010e49
 8010dc8:	08019d00 	.word	0x08019d00
 8010dcc:	10000d74 	.word	0x10000d74
 8010dd0:	10000d88 	.word	0x10000d88
 8010dd4:	10000d70 	.word	0x10000d70
 8010dd8:	10000da4 	.word	0x10000da4
 8010ddc:	08019cf8 	.word	0x08019cf8

08010de0 <xTimerGenericCommand>:
 8010de0:	b570      	push	{r4, r5, r6, lr}
 8010de2:	4604      	mov	r4, r0
 8010de4:	b084      	sub	sp, #16
 8010de6:	b318      	cbz	r0, 8010e30 <xTimerGenericCommand+0x50>
 8010de8:	4d16      	ldr	r5, [pc, #88]	; (8010e44 <xTimerGenericCommand+0x64>)
 8010dea:	6828      	ldr	r0, [r5, #0]
 8010dec:	b180      	cbz	r0, 8010e10 <xTimerGenericCommand+0x30>
 8010dee:	4616      	mov	r6, r2
 8010df0:	2905      	cmp	r1, #5
 8010df2:	461a      	mov	r2, r3
 8010df4:	9101      	str	r1, [sp, #4]
 8010df6:	9602      	str	r6, [sp, #8]
 8010df8:	9403      	str	r4, [sp, #12]
 8010dfa:	dc0b      	bgt.n	8010e14 <xTimerGenericCommand+0x34>
 8010dfc:	f7ff fe3c 	bl	8010a78 <xTaskGetSchedulerState>
 8010e00:	2802      	cmp	r0, #2
 8010e02:	d00d      	beq.n	8010e20 <xTimerGenericCommand+0x40>
 8010e04:	2200      	movs	r2, #0
 8010e06:	6828      	ldr	r0, [r5, #0]
 8010e08:	4613      	mov	r3, r2
 8010e0a:	a901      	add	r1, sp, #4
 8010e0c:	f000 fcfe 	bl	801180c <xQueueGenericSend>
 8010e10:	b004      	add	sp, #16
 8010e12:	bd70      	pop	{r4, r5, r6, pc}
 8010e14:	a901      	add	r1, sp, #4
 8010e16:	2300      	movs	r3, #0
 8010e18:	f000 fe3e 	bl	8011a98 <xQueueGenericSendFromISR>
 8010e1c:	b004      	add	sp, #16
 8010e1e:	bd70      	pop	{r4, r5, r6, pc}
 8010e20:	6828      	ldr	r0, [r5, #0]
 8010e22:	9a08      	ldr	r2, [sp, #32]
 8010e24:	a901      	add	r1, sp, #4
 8010e26:	2300      	movs	r3, #0
 8010e28:	f000 fcf0 	bl	801180c <xQueueGenericSend>
 8010e2c:	b004      	add	sp, #16
 8010e2e:	bd70      	pop	{r4, r5, r6, pc}
 8010e30:	f04f 0350 	mov.w	r3, #80	; 0x50
 8010e34:	f383 8811 	msr	BASEPRI, r3
 8010e38:	f3bf 8f6f 	isb	sy
 8010e3c:	f3bf 8f4f 	dsb	sy
 8010e40:	e7fe      	b.n	8010e40 <xTimerGenericCommand+0x60>
 8010e42:	bf00      	nop
 8010e44:	10000da0 	.word	0x10000da0

08010e48 <prvTimerTask>:
 8010e48:	e92d 4ff0 	stmdb	sp!, {r4, r5, r6, r7, r8, r9, sl, fp, lr}
 8010e4c:	4d8c      	ldr	r5, [pc, #560]	; (8011080 <prvTimerTask+0x238>)
 8010e4e:	4f8d      	ldr	r7, [pc, #564]	; (8011084 <prvTimerTask+0x23c>)
 8010e50:	f8df 923c 	ldr.w	r9, [pc, #572]	; 8011090 <prvTimerTask+0x248>
 8010e54:	4c8c      	ldr	r4, [pc, #560]	; (8011088 <prvTimerTask+0x240>)
 8010e56:	b089      	sub	sp, #36	; 0x24
 8010e58:	46aa      	mov	sl, r5
 8010e5a:	683b      	ldr	r3, [r7, #0]
 8010e5c:	681e      	ldr	r6, [r3, #0]
 8010e5e:	2e00      	cmp	r6, #0
 8010e60:	d04e      	beq.n	8010f00 <prvTimerTask+0xb8>
 8010e62:	68db      	ldr	r3, [r3, #12]
 8010e64:	f8d3 b000 	ldr.w	fp, [r3]
 8010e68:	f7ff fa96 	bl	8010398 <vTaskSuspendAll>
 8010e6c:	f7ff fa9c 	bl	80103a8 <xTaskGetTickCount>
 8010e70:	682b      	ldr	r3, [r5, #0]
 8010e72:	4283      	cmp	r3, r0
 8010e74:	4680      	mov	r8, r0
 8010e76:	d855      	bhi.n	8010f24 <prvTimerTask+0xdc>
 8010e78:	4583      	cmp	fp, r0
 8010e7a:	f8ca 0000 	str.w	r0, [sl]
 8010e7e:	d95d      	bls.n	8010f3c <prvTimerTask+0xf4>
 8010e80:	2200      	movs	r2, #0
 8010e82:	ebc8 010b 	rsb	r1, r8, fp
 8010e86:	6820      	ldr	r0, [r4, #0]
 8010e88:	f001 f86e 	bl	8011f68 <vQueueWaitForMessageRestricted>
 8010e8c:	f7ff fb46 	bl	801051c <xTaskResumeAll>
 8010e90:	b938      	cbnz	r0, 8010ea2 <prvTimerTask+0x5a>
 8010e92:	4a7e      	ldr	r2, [pc, #504]	; (801108c <prvTimerTask+0x244>)
 8010e94:	f04f 5380 	mov.w	r3, #268435456	; 0x10000000
 8010e98:	6013      	str	r3, [r2, #0]
 8010e9a:	f3bf 8f4f 	dsb	sy
 8010e9e:	f3bf 8f6f 	isb	sy
 8010ea2:	2601      	movs	r6, #1
 8010ea4:	f04f 0800 	mov.w	r8, #0
 8010ea8:	2200      	movs	r2, #0
 8010eaa:	4613      	mov	r3, r2
 8010eac:	6820      	ldr	r0, [r4, #0]
 8010eae:	a905      	add	r1, sp, #20
 8010eb0:	f000 fea4 	bl	8011bfc <xQueueGenericReceive>
 8010eb4:	2800      	cmp	r0, #0
 8010eb6:	d0d0      	beq.n	8010e5a <prvTimerTask+0x12>
 8010eb8:	9b05      	ldr	r3, [sp, #20]
 8010eba:	2b00      	cmp	r3, #0
 8010ebc:	dbf4      	blt.n	8010ea8 <prvTimerTask+0x60>
 8010ebe:	f8dd b01c 	ldr.w	fp, [sp, #28]
 8010ec2:	f8db 2014 	ldr.w	r2, [fp, #20]
 8010ec6:	b11a      	cbz	r2, 8010ed0 <prvTimerTask+0x88>
 8010ec8:	f10b 0004 	add.w	r0, fp, #4
 8010ecc:	f7ff fed2 	bl	8010c74 <uxListRemove>
 8010ed0:	f7ff fa6a 	bl	80103a8 <xTaskGetTickCount>
 8010ed4:	682a      	ldr	r2, [r5, #0]
 8010ed6:	4290      	cmp	r0, r2
 8010ed8:	d32b      	bcc.n	8010f32 <prvTimerTask+0xea>
 8010eda:	9a05      	ldr	r2, [sp, #20]
 8010edc:	6028      	str	r0, [r5, #0]
 8010ede:	2a09      	cmp	r2, #9
 8010ee0:	d8e2      	bhi.n	8010ea8 <prvTimerTask+0x60>
 8010ee2:	fa06 f202 	lsl.w	r2, r6, r2
 8010ee6:	f412 7f04 	tst.w	r2, #528	; 0x210
 8010eea:	f040 8096 	bne.w	801101a <prvTimerTask+0x1d2>
 8010eee:	f012 0fc7 	tst.w	r2, #199	; 0xc7
 8010ef2:	d165      	bne.n	8010fc0 <prvTimerTask+0x178>
 8010ef4:	0693      	lsls	r3, r2, #26
 8010ef6:	d5d7      	bpl.n	8010ea8 <prvTimerTask+0x60>
 8010ef8:	4658      	mov	r0, fp
 8010efa:	f000 fb1f 	bl	801153c <vPortFree>
 8010efe:	e7d3      	b.n	8010ea8 <prvTimerTask+0x60>
 8010f00:	f7ff fa4a 	bl	8010398 <vTaskSuspendAll>
 8010f04:	f7ff fa50 	bl	80103a8 <xTaskGetTickCount>
 8010f08:	682b      	ldr	r3, [r5, #0]
 8010f0a:	4298      	cmp	r0, r3
 8010f0c:	4680      	mov	r8, r0
 8010f0e:	d309      	bcc.n	8010f24 <prvTimerTask+0xdc>
 8010f10:	f8d9 3000 	ldr.w	r3, [r9]
 8010f14:	f8ca 0000 	str.w	r0, [sl]
 8010f18:	681a      	ldr	r2, [r3, #0]
 8010f1a:	fab2 f282 	clz	r2, r2
 8010f1e:	46b3      	mov	fp, r6
 8010f20:	0952      	lsrs	r2, r2, #5
 8010f22:	e7ae      	b.n	8010e82 <prvTimerTask+0x3a>
 8010f24:	f7ff feba 	bl	8010c9c <prvSwitchTimerLists>
 8010f28:	f8c5 8000 	str.w	r8, [r5]
 8010f2c:	f7ff faf6 	bl	801051c <xTaskResumeAll>
 8010f30:	e7b7      	b.n	8010ea2 <prvTimerTask+0x5a>
 8010f32:	9003      	str	r0, [sp, #12]
 8010f34:	f7ff feb2 	bl	8010c9c <prvSwitchTimerLists>
 8010f38:	9803      	ldr	r0, [sp, #12]
 8010f3a:	e7ce      	b.n	8010eda <prvTimerTask+0x92>
 8010f3c:	f7ff faee 	bl	801051c <xTaskResumeAll>
 8010f40:	4b50      	ldr	r3, [pc, #320]	; (8011084 <prvTimerTask+0x23c>)
 8010f42:	681b      	ldr	r3, [r3, #0]
 8010f44:	68db      	ldr	r3, [r3, #12]
 8010f46:	68de      	ldr	r6, [r3, #12]
 8010f48:	1d31      	adds	r1, r6, #4
 8010f4a:	4608      	mov	r0, r1
 8010f4c:	9103      	str	r1, [sp, #12]
 8010f4e:	f7ff fe91 	bl	8010c74 <uxListRemove>
 8010f52:	69f2      	ldr	r2, [r6, #28]
 8010f54:	9903      	ldr	r1, [sp, #12]
 8010f56:	2a01      	cmp	r2, #1
 8010f58:	d003      	beq.n	8010f62 <prvTimerTask+0x11a>
 8010f5a:	6a73      	ldr	r3, [r6, #36]	; 0x24
 8010f5c:	4630      	mov	r0, r6
 8010f5e:	4798      	blx	r3
 8010f60:	e79f      	b.n	8010ea2 <prvTimerTask+0x5a>
 8010f62:	69b2      	ldr	r2, [r6, #24]
 8010f64:	6136      	str	r6, [r6, #16]
 8010f66:	eb0b 0002 	add.w	r0, fp, r2
 8010f6a:	4540      	cmp	r0, r8
 8010f6c:	6070      	str	r0, [r6, #4]
 8010f6e:	d904      	bls.n	8010f7a <prvTimerTask+0x132>
 8010f70:	4b44      	ldr	r3, [pc, #272]	; (8011084 <prvTimerTask+0x23c>)
 8010f72:	6818      	ldr	r0, [r3, #0]
 8010f74:	f7ff fe64 	bl	8010c40 <vListInsert>
 8010f78:	e7ef      	b.n	8010f5a <prvTimerTask+0x112>
 8010f7a:	ebcb 0808 	rsb	r8, fp, r8
 8010f7e:	4542      	cmp	r2, r8
 8010f80:	d868      	bhi.n	8011054 <prvTimerTask+0x20c>
 8010f82:	6822      	ldr	r2, [r4, #0]
 8010f84:	4b40      	ldr	r3, [pc, #256]	; (8011088 <prvTimerTask+0x240>)
 8010f86:	b192      	cbz	r2, 8010fae <prvTimerTask+0x166>
 8010f88:	f04f 0800 	mov.w	r8, #0
 8010f8c:	9303      	str	r3, [sp, #12]
 8010f8e:	f8cd b018 	str.w	fp, [sp, #24]
 8010f92:	9607      	str	r6, [sp, #28]
 8010f94:	f8cd 8014 	str.w	r8, [sp, #20]
 8010f98:	f7ff fd6e 	bl	8010a78 <xTaskGetSchedulerState>
 8010f9c:	9b03      	ldr	r3, [sp, #12]
 8010f9e:	4642      	mov	r2, r8
 8010fa0:	6818      	ldr	r0, [r3, #0]
 8010fa2:	a905      	add	r1, sp, #20
 8010fa4:	4643      	mov	r3, r8
 8010fa6:	f000 fc31 	bl	801180c <xQueueGenericSend>
 8010faa:	2800      	cmp	r0, #0
 8010fac:	d1d5      	bne.n	8010f5a <prvTimerTask+0x112>
 8010fae:	f04f 0350 	mov.w	r3, #80	; 0x50
 8010fb2:	f383 8811 	msr	BASEPRI, r3
 8010fb6:	f3bf 8f6f 	isb	sy
 8010fba:	f3bf 8f4f 	dsb	sy
 8010fbe:	e7fe      	b.n	8010fbe <prvTimerTask+0x176>
 8010fc0:	9a06      	ldr	r2, [sp, #24]
 8010fc2:	f8db 3018 	ldr.w	r3, [fp, #24]
 8010fc6:	f8cb b010 	str.w	fp, [fp, #16]
 8010fca:	1899      	adds	r1, r3, r2
 8010fcc:	4281      	cmp	r1, r0
 8010fce:	f8cb 1004 	str.w	r1, [fp, #4]
 8010fd2:	d835      	bhi.n	8011040 <prvTimerTask+0x1f8>
 8010fd4:	1a82      	subs	r2, r0, r2
 8010fd6:	4293      	cmp	r3, r2
 8010fd8:	d841      	bhi.n	801105e <prvTimerTask+0x216>
 8010fda:	f8db 2024 	ldr.w	r2, [fp, #36]	; 0x24
 8010fde:	4658      	mov	r0, fp
 8010fe0:	4790      	blx	r2
 8010fe2:	f8db 201c 	ldr.w	r2, [fp, #28]
 8010fe6:	2a01      	cmp	r2, #1
 8010fe8:	f47f af5e 	bne.w	8010ea8 <prvTimerTask+0x60>
 8010fec:	f8db 3018 	ldr.w	r3, [fp, #24]
 8010ff0:	9a06      	ldr	r2, [sp, #24]
 8010ff2:	f8cd 8000 	str.w	r8, [sp]
 8010ff6:	2100      	movs	r1, #0
 8010ff8:	441a      	add	r2, r3
 8010ffa:	4658      	mov	r0, fp
 8010ffc:	460b      	mov	r3, r1
 8010ffe:	f7ff feef 	bl	8010de0 <xTimerGenericCommand>
 8011002:	2800      	cmp	r0, #0
 8011004:	f47f af50 	bne.w	8010ea8 <prvTimerTask+0x60>
 8011008:	f04f 0350 	mov.w	r3, #80	; 0x50
 801100c:	f383 8811 	msr	BASEPRI, r3
 8011010:	f3bf 8f6f 	isb	sy
 8011014:	f3bf 8f4f 	dsb	sy
 8011018:	e7fe      	b.n	8011018 <prvTimerTask+0x1d0>
 801101a:	9a06      	ldr	r2, [sp, #24]
 801101c:	f8cb 2018 	str.w	r2, [fp, #24]
 8011020:	b322      	cbz	r2, 801106c <prvTimerTask+0x224>
 8011022:	4402      	add	r2, r0
 8011024:	4282      	cmp	r2, r0
 8011026:	f8cb 2004 	str.w	r2, [fp, #4]
 801102a:	f8cb b010 	str.w	fp, [fp, #16]
 801102e:	f10b 0104 	add.w	r1, fp, #4
 8011032:	bf94      	ite	ls
 8011034:	f8d9 0000 	ldrls.w	r0, [r9]
 8011038:	6838      	ldrhi	r0, [r7, #0]
 801103a:	f7ff fe01 	bl	8010c40 <vListInsert>
 801103e:	e733      	b.n	8010ea8 <prvTimerTask+0x60>
 8011040:	4282      	cmp	r2, r0
 8011042:	d901      	bls.n	8011048 <prvTimerTask+0x200>
 8011044:	428a      	cmp	r2, r1
 8011046:	d9c8      	bls.n	8010fda <prvTimerTask+0x192>
 8011048:	f10b 0104 	add.w	r1, fp, #4
 801104c:	6838      	ldr	r0, [r7, #0]
 801104e:	f7ff fdf7 	bl	8010c40 <vListInsert>
 8011052:	e729      	b.n	8010ea8 <prvTimerTask+0x60>
 8011054:	f8d9 0000 	ldr.w	r0, [r9]
 8011058:	f7ff fdf2 	bl	8010c40 <vListInsert>
 801105c:	e77d      	b.n	8010f5a <prvTimerTask+0x112>
 801105e:	f10b 0104 	add.w	r1, fp, #4
 8011062:	f8d9 0000 	ldr.w	r0, [r9]
 8011066:	f7ff fdeb 	bl	8010c40 <vListInsert>
 801106a:	e71d      	b.n	8010ea8 <prvTimerTask+0x60>
 801106c:	f04f 0350 	mov.w	r3, #80	; 0x50
 8011070:	f383 8811 	msr	BASEPRI, r3
 8011074:	f3bf 8f6f 	isb	sy
 8011078:	f3bf 8f4f 	dsb	sy
 801107c:	e7fe      	b.n	801107c <prvTimerTask+0x234>
 801107e:	bf00      	nop
 8011080:	10000d9c 	.word	0x10000d9c
 8011084:	10000d70 	.word	0x10000d70
 8011088:	10000da0 	.word	0x10000da0
 801108c:	e000ed04 	.word	0xe000ed04
 8011090:	10000da4 	.word	0x10000da4

08011094 <Reset_Handler>:
 8011094:	2100      	movs	r1, #0
 8011096:	e003      	b.n	80110a0 <LoopCopyDataInit>

08011098 <CopyDataInit>:
 8011098:	4b0b      	ldr	r3, [pc, #44]	; (80110c8 <LoopFillZerobss+0x14>)
 801109a:	585b      	ldr	r3, [r3, r1]
 801109c:	5043      	str	r3, [r0, r1]
 801109e:	3104      	adds	r1, #4

080110a0 <LoopCopyDataInit>:
 80110a0:	480a      	ldr	r0, [pc, #40]	; (80110cc <LoopFillZerobss+0x18>)
 80110a2:	4b0b      	ldr	r3, [pc, #44]	; (80110d0 <LoopFillZerobss+0x1c>)
 80110a4:	1842      	adds	r2, r0, r1
 80110a6:	429a      	cmp	r2, r3
 80110a8:	d3f6      	bcc.n	8011098 <CopyDataInit>
 80110aa:	4a0a      	ldr	r2, [pc, #40]	; (80110d4 <LoopFillZerobss+0x20>)
 80110ac:	e002      	b.n	80110b4 <LoopFillZerobss>

080110ae <FillZerobss>:
 80110ae:	2300      	movs	r3, #0
 80110b0:	f842 3b04 	str.w	r3, [r2], #4

080110b4 <LoopFillZerobss>:
 80110b4:	4b08      	ldr	r3, [pc, #32]	; (80110d8 <LoopFillZerobss+0x24>)
 80110b6:	429a      	cmp	r2, r3
 80110b8:	d3f9      	bcc.n	80110ae <FillZerobss>
 80110ba:	f000 f811 	bl	80110e0 <SystemInit>
 80110be:	f002 ff55 	bl	8013f6c <__libc_init_array>
 80110c2:	f7fb f837 	bl	800c134 <main>
 80110c6:	4770      	bx	lr
 80110c8:	08019d60 	.word	0x08019d60
 80110cc:	10000000 	.word	0x10000000
 80110d0:	1000086c 	.word	0x1000086c
 80110d4:	1000086c 	.word	0x1000086c
 80110d8:	10000e98 	.word	0x10000e98

080110dc <ADC_IRQHandler>:
 80110dc:	e7fe      	b.n	80110dc <ADC_IRQHandler>
	...

080110e0 <SystemInit>:
 80110e0:	493e      	ldr	r1, [pc, #248]	; (80111dc <SystemInit+0xfc>)
 80110e2:	4a3f      	ldr	r2, [pc, #252]	; (80111e0 <SystemInit+0x100>)
 80110e4:	f8d1 3088 	ldr.w	r3, [r1, #136]	; 0x88
 80110e8:	f443 0370 	orr.w	r3, r3, #15728640	; 0xf00000
 80110ec:	f8c1 3088 	str.w	r3, [r1, #136]	; 0x88
 80110f0:	6853      	ldr	r3, [r2, #4]
 80110f2:	f023 4340 	bic.w	r3, r3, #3221225472	; 0xc0000000
 80110f6:	b082      	sub	sp, #8
 80110f8:	6053      	str	r3, [r2, #4]
 80110fa:	f3ef 8314 	mrs	r3, CONTROL
 80110fe:	f023 0304 	bic.w	r3, r3, #4
 8011102:	f383 8814 	msr	CONTROL, r3
 8011106:	4b37      	ldr	r3, [pc, #220]	; (80111e4 <SystemInit+0x104>)
 8011108:	4837      	ldr	r0, [pc, #220]	; (80111e8 <SystemInit+0x108>)
 801110a:	681a      	ldr	r2, [r3, #0]
 801110c:	2100      	movs	r1, #0
 801110e:	f042 0201 	orr.w	r2, r2, #1
 8011112:	601a      	str	r2, [r3, #0]
 8011114:	6099      	str	r1, [r3, #8]
 8011116:	681a      	ldr	r2, [r3, #0]
 8011118:	f022 7284 	bic.w	r2, r2, #17301504	; 0x1080000
 801111c:	f422 3280 	bic.w	r2, r2, #65536	; 0x10000
 8011120:	601a      	str	r2, [r3, #0]
 8011122:	6058      	str	r0, [r3, #4]
 8011124:	681a      	ldr	r2, [r3, #0]
 8011126:	f422 2280 	bic.w	r2, r2, #262144	; 0x40000
 801112a:	601a      	str	r2, [r3, #0]
 801112c:	60d9      	str	r1, [r3, #12]
 801112e:	9100      	str	r1, [sp, #0]
 8011130:	9101      	str	r1, [sp, #4]
 8011132:	681a      	ldr	r2, [r3, #0]
 8011134:	f442 3280 	orr.w	r2, r2, #65536	; 0x10000
 8011138:	601a      	str	r2, [r3, #0]
 801113a:	681a      	ldr	r2, [r3, #0]
 801113c:	f402 3200 	and.w	r2, r2, #131072	; 0x20000
 8011140:	9201      	str	r2, [sp, #4]
 8011142:	9a00      	ldr	r2, [sp, #0]
 8011144:	3201      	adds	r2, #1
 8011146:	9200      	str	r2, [sp, #0]
 8011148:	9a01      	ldr	r2, [sp, #4]
 801114a:	b91a      	cbnz	r2, 8011154 <SystemInit+0x74>
 801114c:	9a00      	ldr	r2, [sp, #0]
 801114e:	f5b2 4fa0 	cmp.w	r2, #20480	; 0x5000
 8011152:	d1f2      	bne.n	801113a <SystemInit+0x5a>
 8011154:	4b23      	ldr	r3, [pc, #140]	; (80111e4 <SystemInit+0x104>)
 8011156:	681b      	ldr	r3, [r3, #0]
 8011158:	f413 3300 	ands.w	r3, r3, #131072	; 0x20000
 801115c:	d005      	beq.n	801116a <SystemInit+0x8a>
 801115e:	2301      	movs	r3, #1
 8011160:	9301      	str	r3, [sp, #4]
 8011162:	9b01      	ldr	r3, [sp, #4]
 8011164:	2b01      	cmp	r3, #1
 8011166:	d004      	beq.n	8011172 <SystemInit+0x92>
 8011168:	e7fe      	b.n	8011168 <SystemInit+0x88>
 801116a:	9301      	str	r3, [sp, #4]
 801116c:	9b01      	ldr	r3, [sp, #4]
 801116e:	2b01      	cmp	r3, #1
 8011170:	d1fa      	bne.n	8011168 <SystemInit+0x88>
 8011172:	4b1c      	ldr	r3, [pc, #112]	; (80111e4 <SystemInit+0x104>)
 8011174:	491d      	ldr	r1, [pc, #116]	; (80111ec <SystemInit+0x10c>)
 8011176:	6c1a      	ldr	r2, [r3, #64]	; 0x40
 8011178:	481d      	ldr	r0, [pc, #116]	; (80111f0 <SystemInit+0x110>)
 801117a:	f042 5280 	orr.w	r2, r2, #268435456	; 0x10000000
 801117e:	641a      	str	r2, [r3, #64]	; 0x40
 8011180:	680a      	ldr	r2, [r1, #0]
 8011182:	f442 4240 	orr.w	r2, r2, #49152	; 0xc000
 8011186:	600a      	str	r2, [r1, #0]
 8011188:	689a      	ldr	r2, [r3, #8]
 801118a:	609a      	str	r2, [r3, #8]
 801118c:	689a      	ldr	r2, [r3, #8]
 801118e:	f442 4200 	orr.w	r2, r2, #32768	; 0x8000
 8011192:	609a      	str	r2, [r3, #8]
 8011194:	689a      	ldr	r2, [r3, #8]
 8011196:	f442 52a0 	orr.w	r2, r2, #5120	; 0x1400
 801119a:	609a      	str	r2, [r3, #8]
 801119c:	6058      	str	r0, [r3, #4]
 801119e:	681a      	ldr	r2, [r3, #0]
 80111a0:	f042 7280 	orr.w	r2, r2, #16777216	; 0x1000000
 80111a4:	601a      	str	r2, [r3, #0]
 80111a6:	6819      	ldr	r1, [r3, #0]
 80111a8:	4a0e      	ldr	r2, [pc, #56]	; (80111e4 <SystemInit+0x104>)
 80111aa:	0189      	lsls	r1, r1, #6
 80111ac:	d5fb      	bpl.n	80111a6 <SystemInit+0xc6>
 80111ae:	4b11      	ldr	r3, [pc, #68]	; (80111f4 <SystemInit+0x114>)
 80111b0:	f240 6105 	movw	r1, #1541	; 0x605
 80111b4:	6019      	str	r1, [r3, #0]
 80111b6:	6893      	ldr	r3, [r2, #8]
 80111b8:	f023 0303 	bic.w	r3, r3, #3
 80111bc:	6093      	str	r3, [r2, #8]
 80111be:	6893      	ldr	r3, [r2, #8]
 80111c0:	f043 0302 	orr.w	r3, r3, #2
 80111c4:	6093      	str	r3, [r2, #8]
 80111c6:	6893      	ldr	r3, [r2, #8]
 80111c8:	f003 030c 	and.w	r3, r3, #12
 80111cc:	2b08      	cmp	r3, #8
 80111ce:	d1fa      	bne.n	80111c6 <SystemInit+0xe6>
 80111d0:	4b02      	ldr	r3, [pc, #8]	; (80111dc <SystemInit+0xfc>)
 80111d2:	f04f 6200 	mov.w	r2, #134217728	; 0x8000000
 80111d6:	609a      	str	r2, [r3, #8]
 80111d8:	b002      	add	sp, #8
 80111da:	4770      	bx	lr
 80111dc:	e000ed00 	.word	0xe000ed00
 80111e0:	e000ef30 	.word	0xe000ef30
 80111e4:	40023800 	.word	0x40023800
 80111e8:	24003010 	.word	0x24003010
 80111ec:	40007000 	.word	0x40007000
 80111f0:	07402a04 	.word	0x07402a04
 80111f4:	40023c00 	.word	0x40023c00

080111f8 <prvTaskExitError>:
 80111f8:	4b0a      	ldr	r3, [pc, #40]	; (8011224 <prvTaskExitError+0x2c>)
 80111fa:	681b      	ldr	r3, [r3, #0]
 80111fc:	3301      	adds	r3, #1
 80111fe:	d008      	beq.n	8011212 <prvTaskExitError+0x1a>
 8011200:	f04f 0350 	mov.w	r3, #80	; 0x50
 8011204:	f383 8811 	msr	BASEPRI, r3
 8011208:	f3bf 8f6f 	isb	sy
 801120c:	f3bf 8f4f 	dsb	sy
 8011210:	e7fe      	b.n	8011210 <prvTaskExitError+0x18>
 8011212:	f04f 0350 	mov.w	r3, #80	; 0x50
 8011216:	f383 8811 	msr	BASEPRI, r3
 801121a:	f3bf 8f6f 	isb	sy
 801121e:	f3bf 8f4f 	dsb	sy
 8011222:	e7fe      	b.n	8011222 <prvTaskExitError+0x2a>
 8011224:	10000004 	.word	0x10000004

08011228 <prvPortStartFirstTask>:
 8011228:	4806      	ldr	r0, [pc, #24]	; (8011244 <prvPortStartFirstTask+0x1c>)
 801122a:	6800      	ldr	r0, [r0, #0]
 801122c:	6800      	ldr	r0, [r0, #0]
 801122e:	f380 8808 	msr	MSP, r0
 8011232:	b662      	cpsie	i
 8011234:	b661      	cpsie	f
 8011236:	f3bf 8f4f 	dsb	sy
 801123a:	f3bf 8f6f 	isb	sy
 801123e:	df00      	svc	0
 8011240:	bf00      	nop
 8011242:	0000      	.short	0x0000
 8011244:	e000ed08 	.word	0xe000ed08

08011248 <vPortEnableVFP>:
 8011248:	f8df 000c 	ldr.w	r0, [pc, #12]	; 8011258 <vPortEnableVFP+0x10>
 801124c:	6801      	ldr	r1, [r0, #0]
 801124e:	f441 0170 	orr.w	r1, r1, #15728640	; 0xf00000
 8011252:	6001      	str	r1, [r0, #0]
 8011254:	4770      	bx	lr
 8011256:	0000      	.short	0x0000
 8011258:	e000ed88 	.word	0xe000ed88

0801125c <pxPortInitialiseStack>:
 801125c:	b430      	push	{r4, r5}
 801125e:	f06f 0302 	mvn.w	r3, #2
 8011262:	f04f 7580 	mov.w	r5, #16777216	; 0x1000000
 8011266:	4c07      	ldr	r4, [pc, #28]	; (8011284 <pxPortInitialiseStack+0x28>)
 8011268:	f840 5c04 	str.w	r5, [r0, #-4]
 801126c:	f840 4c0c 	str.w	r4, [r0, #-12]
 8011270:	f840 1c08 	str.w	r1, [r0, #-8]
 8011274:	f840 2c20 	str.w	r2, [r0, #-32]
 8011278:	f840 3c24 	str.w	r3, [r0, #-36]
 801127c:	bc30      	pop	{r4, r5}
 801127e:	3844      	subs	r0, #68	; 0x44
 8011280:	4770      	bx	lr
 8011282:	bf00      	nop
 8011284:	080111f9 	.word	0x080111f9

08011288 <SVC_Handler>:
 8011288:	4b06      	ldr	r3, [pc, #24]	; (80112a4 <pxCurrentTCBConst2>)
 801128a:	6819      	ldr	r1, [r3, #0]
 801128c:	6808      	ldr	r0, [r1, #0]
 801128e:	e8b0 4ff0 	ldmia.w	r0!, {r4, r5, r6, r7, r8, r9, sl, fp, lr}
 8011292:	f380 8809 	msr	PSP, r0
 8011296:	f3bf 8f6f 	isb	sy
 801129a:	f04f 0000 	mov.w	r0, #0
 801129e:	f380 8811 	msr	BASEPRI, r0
 80112a2:	4770      	bx	lr

080112a4 <pxCurrentTCBConst2>:
 80112a4:	10000d10 	.word	0x10000d10

080112a8 <vPortEnterCritical>:
 80112a8:	f04f 0350 	mov.w	r3, #80	; 0x50
 80112ac:	f383 8811 	msr	BASEPRI, r3
 80112b0:	f3bf 8f6f 	isb	sy
 80112b4:	f3bf 8f4f 	dsb	sy
 80112b8:	4a0a      	ldr	r2, [pc, #40]	; (80112e4 <vPortEnterCritical+0x3c>)
 80112ba:	6813      	ldr	r3, [r2, #0]
 80112bc:	3301      	adds	r3, #1
 80112be:	2b01      	cmp	r3, #1
 80112c0:	6013      	str	r3, [r2, #0]
 80112c2:	d000      	beq.n	80112c6 <vPortEnterCritical+0x1e>
 80112c4:	4770      	bx	lr
 80112c6:	4b08      	ldr	r3, [pc, #32]	; (80112e8 <vPortEnterCritical+0x40>)
 80112c8:	681b      	ldr	r3, [r3, #0]
 80112ca:	f013 0fff 	tst.w	r3, #255	; 0xff
 80112ce:	d0f9      	beq.n	80112c4 <vPortEnterCritical+0x1c>
 80112d0:	f04f 0350 	mov.w	r3, #80	; 0x50
 80112d4:	f383 8811 	msr	BASEPRI, r3
 80112d8:	f3bf 8f6f 	isb	sy
 80112dc:	f3bf 8f4f 	dsb	sy
 80112e0:	e7fe      	b.n	80112e0 <vPortEnterCritical+0x38>
 80112e2:	bf00      	nop
 80112e4:	10000004 	.word	0x10000004
 80112e8:	e000ed04 	.word	0xe000ed04

080112ec <vPortExitCritical>:
 80112ec:	4a08      	ldr	r2, [pc, #32]	; (8011310 <vPortExitCritical+0x24>)
 80112ee:	6813      	ldr	r3, [r2, #0]
 80112f0:	b943      	cbnz	r3, 8011304 <vPortExitCritical+0x18>
 80112f2:	f04f 0350 	mov.w	r3, #80	; 0x50
 80112f6:	f383 8811 	msr	BASEPRI, r3
 80112fa:	f3bf 8f6f 	isb	sy
 80112fe:	f3bf 8f4f 	dsb	sy
 8011302:	e7fe      	b.n	8011302 <vPortExitCritical+0x16>
 8011304:	3b01      	subs	r3, #1
 8011306:	6013      	str	r3, [r2, #0]
 8011308:	b90b      	cbnz	r3, 801130e <vPortExitCritical+0x22>
 801130a:	f383 8811 	msr	BASEPRI, r3
 801130e:	4770      	bx	lr
 8011310:	10000004 	.word	0x10000004

08011314 <PendSV_Handler>:
 8011314:	f3ef 8009 	mrs	r0, PSP
 8011318:	f3bf 8f6f 	isb	sy
 801131c:	4b14      	ldr	r3, [pc, #80]	; (8011370 <pxCurrentTCBConst>)
 801131e:	681a      	ldr	r2, [r3, #0]
 8011320:	f01e 0f10 	tst.w	lr, #16
 8011324:	bf08      	it	eq
 8011326:	ed20 8a10 	vstmdbeq	r0!, {s16-s31}
 801132a:	e920 4ff0 	stmdb	r0!, {r4, r5, r6, r7, r8, r9, sl, fp, lr}
 801132e:	6010      	str	r0, [r2, #0]
 8011330:	f84d 3d04 	str.w	r3, [sp, #-4]!
 8011334:	f04f 0050 	mov.w	r0, #80	; 0x50
 8011338:	f380 8811 	msr	BASEPRI, r0
 801133c:	f3bf 8f4f 	dsb	sy
 8011340:	f3bf 8f6f 	isb	sy
 8011344:	f7ff f9f8 	bl	8010738 <vTaskSwitchContext>
 8011348:	f04f 0000 	mov.w	r0, #0
 801134c:	f380 8811 	msr	BASEPRI, r0
 8011350:	bc08      	pop	{r3}
 8011352:	6819      	ldr	r1, [r3, #0]
 8011354:	6808      	ldr	r0, [r1, #0]
 8011356:	e8b0 4ff0 	ldmia.w	r0!, {r4, r5, r6, r7, r8, r9, sl, fp, lr}
 801135a:	f01e 0f10 	tst.w	lr, #16
 801135e:	bf08      	it	eq
 8011360:	ecb0 8a10 	vldmiaeq	r0!, {s16-s31}
 8011364:	f380 8809 	msr	PSP, r0
 8011368:	f3bf 8f6f 	isb	sy
 801136c:	4770      	bx	lr
 801136e:	bf00      	nop

08011370 <pxCurrentTCBConst>:
 8011370:	10000d10 	.word	0x10000d10

08011374 <SysTick_Handler>:
 8011374:	b508      	push	{r3, lr}
 8011376:	f3ef 8311 	mrs	r3, BASEPRI
 801137a:	f04f 0250 	mov.w	r2, #80	; 0x50
 801137e:	f382 8811 	msr	BASEPRI, r2
 8011382:	f3bf 8f6f 	isb	sy
 8011386:	f3bf 8f4f 	dsb	sy
 801138a:	f7ff f813 	bl	80103b4 <xTaskIncrementTick>
 801138e:	b118      	cbz	r0, 8011398 <SysTick_Handler+0x24>
 8011390:	4b03      	ldr	r3, [pc, #12]	; (80113a0 <SysTick_Handler+0x2c>)
 8011392:	f04f 5280 	mov.w	r2, #268435456	; 0x10000000
 8011396:	601a      	str	r2, [r3, #0]
 8011398:	2300      	movs	r3, #0
 801139a:	f383 8811 	msr	BASEPRI, r3
 801139e:	bd08      	pop	{r3, pc}
 80113a0:	e000ed04 	.word	0xe000ed04

080113a4 <vPortSetupTimerInterrupt>:
 80113a4:	4b06      	ldr	r3, [pc, #24]	; (80113c0 <vPortSetupTimerInterrupt+0x1c>)
 80113a6:	4907      	ldr	r1, [pc, #28]	; (80113c4 <vPortSetupTimerInterrupt+0x20>)
 80113a8:	681b      	ldr	r3, [r3, #0]
 80113aa:	4807      	ldr	r0, [pc, #28]	; (80113c8 <vPortSetupTimerInterrupt+0x24>)
 80113ac:	4a07      	ldr	r2, [pc, #28]	; (80113cc <vPortSetupTimerInterrupt+0x28>)
 80113ae:	fba1 1303 	umull	r1, r3, r1, r3
 80113b2:	099b      	lsrs	r3, r3, #6
 80113b4:	3b01      	subs	r3, #1
 80113b6:	2107      	movs	r1, #7
 80113b8:	6003      	str	r3, [r0, #0]
 80113ba:	6011      	str	r1, [r2, #0]
 80113bc:	4770      	bx	lr
 80113be:	bf00      	nop
 80113c0:	10000000 	.word	0x10000000
 80113c4:	10624dd3 	.word	0x10624dd3
 80113c8:	e000e014 	.word	0xe000e014
 80113cc:	e000e010 	.word	0xe000e010

080113d0 <xPortStartScheduler>:
 80113d0:	4b31      	ldr	r3, [pc, #196]	; (8011498 <xPortStartScheduler+0xc8>)
 80113d2:	4a32      	ldr	r2, [pc, #200]	; (801149c <xPortStartScheduler+0xcc>)
 80113d4:	6819      	ldr	r1, [r3, #0]
 80113d6:	4291      	cmp	r1, r2
 80113d8:	d04c      	beq.n	8011474 <xPortStartScheduler+0xa4>
 80113da:	681a      	ldr	r2, [r3, #0]
 80113dc:	4b30      	ldr	r3, [pc, #192]	; (80114a0 <xPortStartScheduler+0xd0>)
 80113de:	429a      	cmp	r2, r3
 80113e0:	d051      	beq.n	8011486 <xPortStartScheduler+0xb6>
 80113e2:	b510      	push	{r4, lr}
 80113e4:	4b2f      	ldr	r3, [pc, #188]	; (80114a4 <xPortStartScheduler+0xd4>)
 80113e6:	4c30      	ldr	r4, [pc, #192]	; (80114a8 <xPortStartScheduler+0xd8>)
 80113e8:	781a      	ldrb	r2, [r3, #0]
 80113ea:	4830      	ldr	r0, [pc, #192]	; (80114ac <xPortStartScheduler+0xdc>)
 80113ec:	b082      	sub	sp, #8
 80113ee:	b2d2      	uxtb	r2, r2
 80113f0:	21ff      	movs	r1, #255	; 0xff
 80113f2:	9201      	str	r2, [sp, #4]
 80113f4:	7019      	strb	r1, [r3, #0]
 80113f6:	781b      	ldrb	r3, [r3, #0]
 80113f8:	b2db      	uxtb	r3, r3
 80113fa:	f88d 3003 	strb.w	r3, [sp, #3]
 80113fe:	f89d 2003 	ldrb.w	r2, [sp, #3]
 8011402:	f89d 1003 	ldrb.w	r1, [sp, #3]
 8011406:	f002 0250 	and.w	r2, r2, #80	; 0x50
 801140a:	2307      	movs	r3, #7
 801140c:	0609      	lsls	r1, r1, #24
 801140e:	7022      	strb	r2, [r4, #0]
 8011410:	6003      	str	r3, [r0, #0]
 8011412:	d50e      	bpl.n	8011432 <xPortStartScheduler+0x62>
 8011414:	2306      	movs	r3, #6
 8011416:	e000      	b.n	801141a <xPortStartScheduler+0x4a>
 8011418:	460b      	mov	r3, r1
 801141a:	f89d 2003 	ldrb.w	r2, [sp, #3]
 801141e:	0052      	lsls	r2, r2, #1
 8011420:	b2d2      	uxtb	r2, r2
 8011422:	f88d 2003 	strb.w	r2, [sp, #3]
 8011426:	f89d 2003 	ldrb.w	r2, [sp, #3]
 801142a:	0612      	lsls	r2, r2, #24
 801142c:	f103 31ff 	add.w	r1, r3, #4294967295
 8011430:	d4f2      	bmi.n	8011418 <xPortStartScheduler+0x48>
 8011432:	9901      	ldr	r1, [sp, #4]
 8011434:	4c1b      	ldr	r4, [pc, #108]	; (80114a4 <xPortStartScheduler+0xd4>)
 8011436:	4a1e      	ldr	r2, [pc, #120]	; (80114b0 <xPortStartScheduler+0xe0>)
 8011438:	021b      	lsls	r3, r3, #8
 801143a:	b2c9      	uxtb	r1, r1
 801143c:	f403 63e0 	and.w	r3, r3, #1792	; 0x700
 8011440:	6003      	str	r3, [r0, #0]
 8011442:	7021      	strb	r1, [r4, #0]
 8011444:	6813      	ldr	r3, [r2, #0]
 8011446:	f443 0370 	orr.w	r3, r3, #15728640	; 0xf00000
 801144a:	6013      	str	r3, [r2, #0]
 801144c:	6813      	ldr	r3, [r2, #0]
 801144e:	f043 4370 	orr.w	r3, r3, #4026531840	; 0xf0000000
 8011452:	6013      	str	r3, [r2, #0]
 8011454:	f7ff ffa6 	bl	80113a4 <vPortSetupTimerInterrupt>
 8011458:	4b16      	ldr	r3, [pc, #88]	; (80114b4 <xPortStartScheduler+0xe4>)
 801145a:	2200      	movs	r2, #0
 801145c:	601a      	str	r2, [r3, #0]
 801145e:	f7ff fef3 	bl	8011248 <vPortEnableVFP>
 8011462:	4a15      	ldr	r2, [pc, #84]	; (80114b8 <xPortStartScheduler+0xe8>)
 8011464:	6813      	ldr	r3, [r2, #0]
 8011466:	f043 4340 	orr.w	r3, r3, #3221225472	; 0xc0000000
 801146a:	6013      	str	r3, [r2, #0]
 801146c:	f7ff fedc 	bl	8011228 <prvPortStartFirstTask>
 8011470:	f7ff fec2 	bl	80111f8 <prvTaskExitError>
 8011474:	f04f 0350 	mov.w	r3, #80	; 0x50
 8011478:	f383 8811 	msr	BASEPRI, r3
 801147c:	f3bf 8f6f 	isb	sy
 8011480:	f3bf 8f4f 	dsb	sy
 8011484:	e7fe      	b.n	8011484 <xPortStartScheduler+0xb4>
 8011486:	f04f 0350 	mov.w	r3, #80	; 0x50
 801148a:	f383 8811 	msr	BASEPRI, r3
 801148e:	f3bf 8f6f 	isb	sy
 8011492:	f3bf 8f4f 	dsb	sy
 8011496:	e7fe      	b.n	8011496 <xPortStartScheduler+0xc6>
 8011498:	e000ed00 	.word	0xe000ed00
 801149c:	410fc271 	.word	0x410fc271
 80114a0:	410fc270 	.word	0x410fc270
 80114a4:	e000e400 	.word	0xe000e400
 80114a8:	10000da8 	.word	0x10000da8
 80114ac:	10000dac 	.word	0x10000dac
 80114b0:	e000ed20 	.word	0xe000ed20
 80114b4:	10000004 	.word	0x10000004
 80114b8:	e000ef34 	.word	0xe000ef34

080114bc <vPortValidateInterruptPriority>:
 80114bc:	f3ef 8305 	mrs	r3, IPSR
 80114c0:	2b0f      	cmp	r3, #15
 80114c2:	d90e      	bls.n	80114e2 <vPortValidateInterruptPriority+0x26>
 80114c4:	4910      	ldr	r1, [pc, #64]	; (8011508 <vPortValidateInterruptPriority+0x4c>)
 80114c6:	4a11      	ldr	r2, [pc, #68]	; (801150c <vPortValidateInterruptPriority+0x50>)
 80114c8:	5c5b      	ldrb	r3, [r3, r1]
 80114ca:	7812      	ldrb	r2, [r2, #0]
 80114cc:	429a      	cmp	r2, r3
 80114ce:	d908      	bls.n	80114e2 <vPortValidateInterruptPriority+0x26>
 80114d0:	f04f 0350 	mov.w	r3, #80	; 0x50
 80114d4:	f383 8811 	msr	BASEPRI, r3
 80114d8:	f3bf 8f6f 	isb	sy
 80114dc:	f3bf 8f4f 	dsb	sy
 80114e0:	e7fe      	b.n	80114e0 <vPortValidateInterruptPriority+0x24>
 80114e2:	4b0b      	ldr	r3, [pc, #44]	; (8011510 <vPortValidateInterruptPriority+0x54>)
 80114e4:	4a0b      	ldr	r2, [pc, #44]	; (8011514 <vPortValidateInterruptPriority+0x58>)
 80114e6:	681b      	ldr	r3, [r3, #0]
 80114e8:	6812      	ldr	r2, [r2, #0]
 80114ea:	f403 63e0 	and.w	r3, r3, #1792	; 0x700
 80114ee:	4293      	cmp	r3, r2
 80114f0:	d908      	bls.n	8011504 <vPortValidateInterruptPriority+0x48>
 80114f2:	f04f 0350 	mov.w	r3, #80	; 0x50
 80114f6:	f383 8811 	msr	BASEPRI, r3
 80114fa:	f3bf 8f6f 	isb	sy
 80114fe:	f3bf 8f4f 	dsb	sy
 8011502:	e7fe      	b.n	8011502 <vPortValidateInterruptPriority+0x46>
 8011504:	4770      	bx	lr
 8011506:	bf00      	nop
 8011508:	e000e3f0 	.word	0xe000e3f0
 801150c:	10000da8 	.word	0x10000da8
 8011510:	e000ed0c 	.word	0xe000ed0c
 8011514:	10000dac 	.word	0x10000dac

08011518 <pvPortMalloc>:
 8011518:	b510      	push	{r4, lr}
 801151a:	4604      	mov	r4, r0
 801151c:	f7fe ff3c 	bl	8010398 <vTaskSuspendAll>
 8011520:	4620      	mov	r0, r4
 8011522:	f002 fd4b 	bl	8013fbc <malloc>
 8011526:	4604      	mov	r4, r0
 8011528:	f7fe fff8 	bl	801051c <xTaskResumeAll>
 801152c:	b10c      	cbz	r4, 8011532 <pvPortMalloc+0x1a>
 801152e:	4620      	mov	r0, r4
 8011530:	bd10      	pop	{r4, pc}
 8011532:	f000 f815 	bl	8011560 <vApplicationMallocFailedHook>
 8011536:	4620      	mov	r0, r4
 8011538:	bd10      	pop	{r4, pc}
 801153a:	bf00      	nop

0801153c <vPortFree>:
 801153c:	b150      	cbz	r0, 8011554 <vPortFree+0x18>
 801153e:	b510      	push	{r4, lr}
 8011540:	4604      	mov	r4, r0
 8011542:	f7fe ff29 	bl	8010398 <vTaskSuspendAll>
 8011546:	4620      	mov	r0, r4
 8011548:	f002 fd40 	bl	8013fcc <free>
 801154c:	e8bd 4010 	ldmia.w	sp!, {r4, lr}
 8011550:	f7fe bfe4 	b.w	801051c <xTaskResumeAll>
 8011554:	4770      	bx	lr
 8011556:	bf00      	nop

08011558 <vApplicationIdleHook>:
 8011558:	4770      	bx	lr
 801155a:	bf00      	nop

0801155c <vApplicationTickHook>:
 801155c:	4770      	bx	lr
 801155e:	bf00      	nop

08011560 <vApplicationMallocFailedHook>:
 8011560:	f04f 0350 	mov.w	r3, #80	; 0x50
 8011564:	f383 8811 	msr	BASEPRI, r3
 8011568:	f3bf 8f6f 	isb	sy
 801156c:	f3bf 8f4f 	dsb	sy
 8011570:	4b01      	ldr	r3, [pc, #4]	; (8011578 <vApplicationMallocFailedHook+0x18>)
 8011572:	2201      	movs	r2, #1
 8011574:	601a      	str	r2, [r3, #0]
 8011576:	e7fe      	b.n	8011576 <vApplicationMallocFailedHook+0x16>
 8011578:	424082b0 	.word	0x424082b0

0801157c <vApplicationStackOverflowHook>:
 801157c:	f04f 0350 	mov.w	r3, #80	; 0x50
 8011580:	f383 8811 	msr	BASEPRI, r3
 8011584:	f3bf 8f6f 	isb	sy
 8011588:	f3bf 8f4f 	dsb	sy
 801158c:	4b01      	ldr	r3, [pc, #4]	; (8011594 <vApplicationStackOverflowHook+0x18>)
 801158e:	2201      	movs	r2, #1
 8011590:	601a      	str	r2, [r3, #0]
 8011592:	e7fe      	b.n	8011592 <vApplicationStackOverflowHook+0x16>
 8011594:	424082b0 	.word	0x424082b0

08011598 <_sbrk>:
 8011598:	4a08      	ldr	r2, [pc, #32]	; (80115bc <_sbrk+0x24>)
 801159a:	4909      	ldr	r1, [pc, #36]	; (80115c0 <_sbrk+0x28>)
 801159c:	b508      	push	{r3, lr}
 801159e:	6813      	ldr	r3, [r2, #0]
 80115a0:	4418      	add	r0, r3
 80115a2:	4288      	cmp	r0, r1
 80115a4:	d802      	bhi.n	80115ac <_sbrk+0x14>
 80115a6:	6010      	str	r0, [r2, #0]
 80115a8:	4618      	mov	r0, r3
 80115aa:	bd08      	pop	{r3, pc}
 80115ac:	f002 fcd8 	bl	8013f60 <__errno>
 80115b0:	230c      	movs	r3, #12
 80115b2:	6003      	str	r3, [r0, #0]
 80115b4:	f04f 30ff 	mov.w	r0, #4294967295
 80115b8:	bd08      	pop	{r3, pc}
 80115ba:	bf00      	nop
 80115bc:	10000008 	.word	0x10000008
 80115c0:	20012000 	.word	0x20012000

080115c4 <_ZdlPv>:
 80115c4:	b108      	cbz	r0, 80115ca <_ZdlPv+0x6>
 80115c6:	f7ff bfb9 	b.w	801153c <vPortFree>
 80115ca:	4770      	bx	lr

080115cc <prvCopyDataToQueue>:
 80115cc:	b538      	push	{r3, r4, r5, lr}
 80115ce:	4615      	mov	r5, r2
 80115d0:	6c02      	ldr	r2, [r0, #64]	; 0x40
 80115d2:	4604      	mov	r4, r0
 80115d4:	b932      	cbnz	r2, 80115e4 <prvCopyDataToQueue+0x18>
 80115d6:	6805      	ldr	r5, [r0, #0]
 80115d8:	bb45      	cbnz	r5, 801162c <prvCopyDataToQueue+0x60>
 80115da:	6840      	ldr	r0, [r0, #4]
 80115dc:	f7ff faaa 	bl	8010b34 <xTaskPriorityDisinherit>
 80115e0:	6065      	str	r5, [r4, #4]
 80115e2:	e024      	b.n	801162e <prvCopyDataToQueue+0x62>
 80115e4:	b96d      	cbnz	r5, 8011602 <prvCopyDataToQueue+0x36>
 80115e6:	6880      	ldr	r0, [r0, #8]
 80115e8:	f7fa fd0a 	bl	800c000 <memcpy>
 80115ec:	68a1      	ldr	r1, [r4, #8]
 80115ee:	6c23      	ldr	r3, [r4, #64]	; 0x40
 80115f0:	6862      	ldr	r2, [r4, #4]
 80115f2:	440b      	add	r3, r1
 80115f4:	4293      	cmp	r3, r2
 80115f6:	60a3      	str	r3, [r4, #8]
 80115f8:	d318      	bcc.n	801162c <prvCopyDataToQueue+0x60>
 80115fa:	6823      	ldr	r3, [r4, #0]
 80115fc:	60a3      	str	r3, [r4, #8]
 80115fe:	4628      	mov	r0, r5
 8011600:	e015      	b.n	801162e <prvCopyDataToQueue+0x62>
 8011602:	68c0      	ldr	r0, [r0, #12]
 8011604:	f7fa fcfc 	bl	800c000 <memcpy>
 8011608:	6c23      	ldr	r3, [r4, #64]	; 0x40
 801160a:	68e2      	ldr	r2, [r4, #12]
 801160c:	6821      	ldr	r1, [r4, #0]
 801160e:	425b      	negs	r3, r3
 8011610:	441a      	add	r2, r3
 8011612:	428a      	cmp	r2, r1
 8011614:	60e2      	str	r2, [r4, #12]
 8011616:	d202      	bcs.n	801161e <prvCopyDataToQueue+0x52>
 8011618:	6862      	ldr	r2, [r4, #4]
 801161a:	4413      	add	r3, r2
 801161c:	60e3      	str	r3, [r4, #12]
 801161e:	2d02      	cmp	r5, #2
 8011620:	d104      	bne.n	801162c <prvCopyDataToQueue+0x60>
 8011622:	6ba3      	ldr	r3, [r4, #56]	; 0x38
 8011624:	b113      	cbz	r3, 801162c <prvCopyDataToQueue+0x60>
 8011626:	6ba3      	ldr	r3, [r4, #56]	; 0x38
 8011628:	3b01      	subs	r3, #1
 801162a:	63a3      	str	r3, [r4, #56]	; 0x38
 801162c:	2000      	movs	r0, #0
 801162e:	6ba3      	ldr	r3, [r4, #56]	; 0x38
 8011630:	3301      	adds	r3, #1
 8011632:	63a3      	str	r3, [r4, #56]	; 0x38
 8011634:	bd38      	pop	{r3, r4, r5, pc}
 8011636:	bf00      	nop

08011638 <prvCopyDataFromQueue>:
 8011638:	6c02      	ldr	r2, [r0, #64]	; 0x40
 801163a:	4603      	mov	r3, r0
 801163c:	b17a      	cbz	r2, 801165e <prvCopyDataFromQueue+0x26>
 801163e:	b410      	push	{r4}
 8011640:	68c4      	ldr	r4, [r0, #12]
 8011642:	6840      	ldr	r0, [r0, #4]
 8011644:	4414      	add	r4, r2
 8011646:	4284      	cmp	r4, r0
 8011648:	bf28      	it	cs
 801164a:	6818      	ldrcs	r0, [r3, #0]
 801164c:	60dc      	str	r4, [r3, #12]
 801164e:	bf28      	it	cs
 8011650:	60d8      	strcs	r0, [r3, #12]
 8011652:	f85d 4b04 	ldr.w	r4, [sp], #4
 8011656:	4608      	mov	r0, r1
 8011658:	68d9      	ldr	r1, [r3, #12]
 801165a:	f7fa bcd1 	b.w	800c000 <memcpy>
 801165e:	4770      	bx	lr

08011660 <prvUnlockQueue>:
 8011660:	b538      	push	{r3, r4, r5, lr}
 8011662:	4604      	mov	r4, r0
 8011664:	f7ff fe20 	bl	80112a8 <vPortEnterCritical>
 8011668:	6ca3      	ldr	r3, [r4, #72]	; 0x48
 801166a:	2b00      	cmp	r3, #0
 801166c:	dd14      	ble.n	8011698 <prvUnlockQueue+0x38>
 801166e:	6a63      	ldr	r3, [r4, #36]	; 0x24
 8011670:	b193      	cbz	r3, 8011698 <prvUnlockQueue+0x38>
 8011672:	f104 0524 	add.w	r5, r4, #36	; 0x24
 8011676:	e007      	b.n	8011688 <prvUnlockQueue+0x28>
 8011678:	6ca3      	ldr	r3, [r4, #72]	; 0x48
 801167a:	3b01      	subs	r3, #1
 801167c:	64a3      	str	r3, [r4, #72]	; 0x48
 801167e:	6ca3      	ldr	r3, [r4, #72]	; 0x48
 8011680:	2b00      	cmp	r3, #0
 8011682:	dd09      	ble.n	8011698 <prvUnlockQueue+0x38>
 8011684:	6a63      	ldr	r3, [r4, #36]	; 0x24
 8011686:	b13b      	cbz	r3, 8011698 <prvUnlockQueue+0x38>
 8011688:	4628      	mov	r0, r5
 801168a:	f7ff f951 	bl	8010930 <xTaskRemoveFromEventList>
 801168e:	2800      	cmp	r0, #0
 8011690:	d0f2      	beq.n	8011678 <prvUnlockQueue+0x18>
 8011692:	f7ff f9eb 	bl	8010a6c <vTaskMissedYield>
 8011696:	e7ef      	b.n	8011678 <prvUnlockQueue+0x18>
 8011698:	f04f 33ff 	mov.w	r3, #4294967295
 801169c:	64a3      	str	r3, [r4, #72]	; 0x48
 801169e:	f7ff fe25 	bl	80112ec <vPortExitCritical>
 80116a2:	f7ff fe01 	bl	80112a8 <vPortEnterCritical>
 80116a6:	6c63      	ldr	r3, [r4, #68]	; 0x44
 80116a8:	2b00      	cmp	r3, #0
 80116aa:	dd14      	ble.n	80116d6 <prvUnlockQueue+0x76>
 80116ac:	6923      	ldr	r3, [r4, #16]
 80116ae:	b193      	cbz	r3, 80116d6 <prvUnlockQueue+0x76>
 80116b0:	f104 0510 	add.w	r5, r4, #16
 80116b4:	e007      	b.n	80116c6 <prvUnlockQueue+0x66>
 80116b6:	6c63      	ldr	r3, [r4, #68]	; 0x44
 80116b8:	3b01      	subs	r3, #1
 80116ba:	6463      	str	r3, [r4, #68]	; 0x44
 80116bc:	6c63      	ldr	r3, [r4, #68]	; 0x44
 80116be:	2b00      	cmp	r3, #0
 80116c0:	dd09      	ble.n	80116d6 <prvUnlockQueue+0x76>
 80116c2:	6923      	ldr	r3, [r4, #16]
 80116c4:	b13b      	cbz	r3, 80116d6 <prvUnlockQueue+0x76>
 80116c6:	4628      	mov	r0, r5
 80116c8:	f7ff f932 	bl	8010930 <xTaskRemoveFromEventList>
 80116cc:	2800      	cmp	r0, #0
 80116ce:	d0f2      	beq.n	80116b6 <prvUnlockQueue+0x56>
 80116d0:	f7ff f9cc 	bl	8010a6c <vTaskMissedYield>
 80116d4:	e7ef      	b.n	80116b6 <prvUnlockQueue+0x56>
 80116d6:	f04f 33ff 	mov.w	r3, #4294967295
 80116da:	6463      	str	r3, [r4, #68]	; 0x44
 80116dc:	e8bd 4038 	ldmia.w	sp!, {r3, r4, r5, lr}
 80116e0:	f7ff be04 	b.w	80112ec <vPortExitCritical>

080116e4 <xQueueGenericReset>:
 80116e4:	b538      	push	{r3, r4, r5, lr}
 80116e6:	b1d8      	cbz	r0, 8011720 <xQueueGenericReset+0x3c>
 80116e8:	4604      	mov	r4, r0
 80116ea:	460d      	mov	r5, r1
 80116ec:	f7ff fddc 	bl	80112a8 <vPortEnterCritical>
 80116f0:	6c22      	ldr	r2, [r4, #64]	; 0x40
 80116f2:	6be3      	ldr	r3, [r4, #60]	; 0x3c
 80116f4:	6821      	ldr	r1, [r4, #0]
 80116f6:	60a1      	str	r1, [r4, #8]
 80116f8:	fb03 f302 	mul.w	r3, r3, r2
 80116fc:	1a9a      	subs	r2, r3, r2
 80116fe:	440a      	add	r2, r1
 8011700:	440b      	add	r3, r1
 8011702:	2000      	movs	r0, #0
 8011704:	f04f 31ff 	mov.w	r1, #4294967295
 8011708:	63a0      	str	r0, [r4, #56]	; 0x38
 801170a:	60e2      	str	r2, [r4, #12]
 801170c:	6461      	str	r1, [r4, #68]	; 0x44
 801170e:	6063      	str	r3, [r4, #4]
 8011710:	64a1      	str	r1, [r4, #72]	; 0x48
 8011712:	bb05      	cbnz	r5, 8011756 <xQueueGenericReset+0x72>
 8011714:	6923      	ldr	r3, [r4, #16]
 8011716:	b963      	cbnz	r3, 8011732 <xQueueGenericReset+0x4e>
 8011718:	f7ff fde8 	bl	80112ec <vPortExitCritical>
 801171c:	2001      	movs	r0, #1
 801171e:	bd38      	pop	{r3, r4, r5, pc}
 8011720:	f04f 0350 	mov.w	r3, #80	; 0x50
 8011724:	f383 8811 	msr	BASEPRI, r3
 8011728:	f3bf 8f6f 	isb	sy
 801172c:	f3bf 8f4f 	dsb	sy
 8011730:	e7fe      	b.n	8011730 <xQueueGenericReset+0x4c>
 8011732:	f104 0010 	add.w	r0, r4, #16
 8011736:	f7ff f8fb 	bl	8010930 <xTaskRemoveFromEventList>
 801173a:	2801      	cmp	r0, #1
 801173c:	d1ec      	bne.n	8011718 <xQueueGenericReset+0x34>
 801173e:	4b0c      	ldr	r3, [pc, #48]	; (8011770 <xQueueGenericReset+0x8c>)
 8011740:	f04f 5280 	mov.w	r2, #268435456	; 0x10000000
 8011744:	601a      	str	r2, [r3, #0]
 8011746:	f3bf 8f4f 	dsb	sy
 801174a:	f3bf 8f6f 	isb	sy
 801174e:	f7ff fdcd 	bl	80112ec <vPortExitCritical>
 8011752:	2001      	movs	r0, #1
 8011754:	bd38      	pop	{r3, r4, r5, pc}
 8011756:	f104 0010 	add.w	r0, r4, #16
 801175a:	f7ff fa51 	bl	8010c00 <vListInitialise>
 801175e:	f104 0024 	add.w	r0, r4, #36	; 0x24
 8011762:	f7ff fa4d 	bl	8010c00 <vListInitialise>
 8011766:	f7ff fdc1 	bl	80112ec <vPortExitCritical>
 801176a:	2001      	movs	r0, #1
 801176c:	bd38      	pop	{r3, r4, r5, pc}
 801176e:	bf00      	nop
 8011770:	e000ed04 	.word	0xe000ed04

08011774 <xQueueGenericCreate>:
 8011774:	b5f8      	push	{r3, r4, r5, r6, r7, lr}
 8011776:	4606      	mov	r6, r0
 8011778:	b940      	cbnz	r0, 801178c <xQueueGenericCreate+0x18>
 801177a:	f04f 0350 	mov.w	r3, #80	; 0x50
 801177e:	f383 8811 	msr	BASEPRI, r3
 8011782:	f3bf 8f6f 	isb	sy
 8011786:	f3bf 8f4f 	dsb	sy
 801178a:	e7fe      	b.n	801178a <xQueueGenericCreate+0x16>
 801178c:	460f      	mov	r7, r1
 801178e:	4615      	mov	r5, r2
 8011790:	b149      	cbz	r1, 80117a6 <xQueueGenericCreate+0x32>
 8011792:	fb01 f000 	mul.w	r0, r1, r0
 8011796:	3055      	adds	r0, #85	; 0x55
 8011798:	f7ff febe 	bl	8011518 <pvPortMalloc>
 801179c:	4604      	mov	r4, r0
 801179e:	b360      	cbz	r0, 80117fa <xQueueGenericCreate+0x86>
 80117a0:	f100 0354 	add.w	r3, r0, #84	; 0x54
 80117a4:	e005      	b.n	80117b2 <xQueueGenericCreate+0x3e>
 80117a6:	2054      	movs	r0, #84	; 0x54
 80117a8:	f7ff feb6 	bl	8011518 <pvPortMalloc>
 80117ac:	4604      	mov	r4, r0
 80117ae:	4603      	mov	r3, r0
 80117b0:	b318      	cbz	r0, 80117fa <xQueueGenericCreate+0x86>
 80117b2:	6023      	str	r3, [r4, #0]
 80117b4:	63e6      	str	r6, [r4, #60]	; 0x3c
 80117b6:	6427      	str	r7, [r4, #64]	; 0x40
 80117b8:	f7ff fd76 	bl	80112a8 <vPortEnterCritical>
 80117bc:	6c22      	ldr	r2, [r4, #64]	; 0x40
 80117be:	6be3      	ldr	r3, [r4, #60]	; 0x3c
 80117c0:	6821      	ldr	r1, [r4, #0]
 80117c2:	60a1      	str	r1, [r4, #8]
 80117c4:	fb03 f302 	mul.w	r3, r3, r2
 80117c8:	1a9a      	subs	r2, r3, r2
 80117ca:	440a      	add	r2, r1
 80117cc:	440b      	add	r3, r1
 80117ce:	2000      	movs	r0, #0
 80117d0:	f04f 31ff 	mov.w	r1, #4294967295
 80117d4:	63a0      	str	r0, [r4, #56]	; 0x38
 80117d6:	60e2      	str	r2, [r4, #12]
 80117d8:	6461      	str	r1, [r4, #68]	; 0x44
 80117da:	6063      	str	r3, [r4, #4]
 80117dc:	64a1      	str	r1, [r4, #72]	; 0x48
 80117de:	f104 0010 	add.w	r0, r4, #16
 80117e2:	f7ff fa0d 	bl	8010c00 <vListInitialise>
 80117e6:	f104 0024 	add.w	r0, r4, #36	; 0x24
 80117ea:	f7ff fa09 	bl	8010c00 <vListInitialise>
 80117ee:	f7ff fd7d 	bl	80112ec <vPortExitCritical>
 80117f2:	f884 5050 	strb.w	r5, [r4, #80]	; 0x50
 80117f6:	4620      	mov	r0, r4
 80117f8:	bdf8      	pop	{r3, r4, r5, r6, r7, pc}
 80117fa:	f04f 0350 	mov.w	r3, #80	; 0x50
 80117fe:	f383 8811 	msr	BASEPRI, r3
 8011802:	f3bf 8f6f 	isb	sy
 8011806:	f3bf 8f4f 	dsb	sy
 801180a:	e7fe      	b.n	801180a <xQueueGenericCreate+0x96>

0801180c <xQueueGenericSend>:
 801180c:	e92d 47f0 	stmdb	sp!, {r4, r5, r6, r7, r8, r9, sl, lr}
 8011810:	b084      	sub	sp, #16
 8011812:	9201      	str	r2, [sp, #4]
 8011814:	2800      	cmp	r0, #0
 8011816:	f000 80ab 	beq.w	8011970 <xQueueGenericSend+0x164>
 801181a:	2900      	cmp	r1, #0
 801181c:	f000 809b 	beq.w	8011956 <xQueueGenericSend+0x14a>
 8011820:	2b02      	cmp	r3, #2
 8011822:	f000 808b 	beq.w	801193c <xQueueGenericSend+0x130>
 8011826:	4604      	mov	r4, r0
 8011828:	461f      	mov	r7, r3
 801182a:	4688      	mov	r8, r1
 801182c:	f7ff f924 	bl	8010a78 <xTaskGetSchedulerState>
 8011830:	b950      	cbnz	r0, 8011848 <xQueueGenericSend+0x3c>
 8011832:	9e01      	ldr	r6, [sp, #4]
 8011834:	b14e      	cbz	r6, 801184a <xQueueGenericSend+0x3e>
 8011836:	f04f 0350 	mov.w	r3, #80	; 0x50
 801183a:	f383 8811 	msr	BASEPRI, r3
 801183e:	f3bf 8f6f 	isb	sy
 8011842:	f3bf 8f4f 	dsb	sy
 8011846:	e7fe      	b.n	8011846 <xQueueGenericSend+0x3a>
 8011848:	2600      	movs	r6, #0
 801184a:	f7ff fd2d 	bl	80112a8 <vPortEnterCritical>
 801184e:	6ba2      	ldr	r2, [r4, #56]	; 0x38
 8011850:	6be3      	ldr	r3, [r4, #60]	; 0x3c
 8011852:	f8df a240 	ldr.w	sl, [pc, #576]	; 8011a94 <xQueueGenericSend+0x288>
 8011856:	429a      	cmp	r2, r3
 8011858:	f04f 0900 	mov.w	r9, #0
 801185c:	f0c0 80c5 	bcc.w	80119ea <xQueueGenericSend+0x1de>
 8011860:	2f02      	cmp	r7, #2
 8011862:	f000 80c2 	beq.w	80119ea <xQueueGenericSend+0x1de>
 8011866:	9d01      	ldr	r5, [sp, #4]
 8011868:	2d00      	cmp	r5, #0
 801186a:	f000 8107 	beq.w	8011a7c <xQueueGenericSend+0x270>
 801186e:	2e00      	cmp	r6, #0
 8011870:	f000 8100 	beq.w	8011a74 <xQueueGenericSend+0x268>
 8011874:	f7ff fd3a 	bl	80112ec <vPortExitCritical>
 8011878:	f7fe fd8e 	bl	8010398 <vTaskSuspendAll>
 801187c:	f7ff fd14 	bl	80112a8 <vPortEnterCritical>
 8011880:	6c63      	ldr	r3, [r4, #68]	; 0x44
 8011882:	3301      	adds	r3, #1
 8011884:	bf08      	it	eq
 8011886:	f8c4 9044 	streq.w	r9, [r4, #68]	; 0x44
 801188a:	6ca3      	ldr	r3, [r4, #72]	; 0x48
 801188c:	3301      	adds	r3, #1
 801188e:	bf08      	it	eq
 8011890:	f8c4 9048 	streq.w	r9, [r4, #72]	; 0x48
 8011894:	f7ff fd2a 	bl	80112ec <vPortExitCritical>
 8011898:	a802      	add	r0, sp, #8
 801189a:	a901      	add	r1, sp, #4
 801189c:	f7ff f8a2 	bl	80109e4 <xTaskCheckForTimeOut>
 80118a0:	2800      	cmp	r0, #0
 80118a2:	f040 80de 	bne.w	8011a62 <xQueueGenericSend+0x256>
 80118a6:	f7ff fcff 	bl	80112a8 <vPortEnterCritical>
 80118aa:	6ba2      	ldr	r2, [r4, #56]	; 0x38
 80118ac:	6be3      	ldr	r3, [r4, #60]	; 0x3c
 80118ae:	429a      	cmp	r2, r3
 80118b0:	d021      	beq.n	80118f6 <xQueueGenericSend+0xea>
 80118b2:	f7ff fd1b 	bl	80112ec <vPortExitCritical>
 80118b6:	f7ff fcf7 	bl	80112a8 <vPortEnterCritical>
 80118ba:	6ca3      	ldr	r3, [r4, #72]	; 0x48
 80118bc:	2b00      	cmp	r3, #0
 80118be:	f340 80a9 	ble.w	8011a14 <xQueueGenericSend+0x208>
 80118c2:	6a63      	ldr	r3, [r4, #36]	; 0x24
 80118c4:	2b00      	cmp	r3, #0
 80118c6:	f000 80a5 	beq.w	8011a14 <xQueueGenericSend+0x208>
 80118ca:	f104 0524 	add.w	r5, r4, #36	; 0x24
 80118ce:	e00a      	b.n	80118e6 <xQueueGenericSend+0xda>
 80118d0:	6ca3      	ldr	r3, [r4, #72]	; 0x48
 80118d2:	3b01      	subs	r3, #1
 80118d4:	64a3      	str	r3, [r4, #72]	; 0x48
 80118d6:	6ca3      	ldr	r3, [r4, #72]	; 0x48
 80118d8:	2b00      	cmp	r3, #0
 80118da:	f340 809b 	ble.w	8011a14 <xQueueGenericSend+0x208>
 80118de:	6a63      	ldr	r3, [r4, #36]	; 0x24
 80118e0:	2b00      	cmp	r3, #0
 80118e2:	f000 8097 	beq.w	8011a14 <xQueueGenericSend+0x208>
 80118e6:	4628      	mov	r0, r5
 80118e8:	f7ff f822 	bl	8010930 <xTaskRemoveFromEventList>
 80118ec:	2800      	cmp	r0, #0
 80118ee:	d0ef      	beq.n	80118d0 <xQueueGenericSend+0xc4>
 80118f0:	f7ff f8bc 	bl	8010a6c <vTaskMissedYield>
 80118f4:	e7ec      	b.n	80118d0 <xQueueGenericSend+0xc4>
 80118f6:	f104 0510 	add.w	r5, r4, #16
 80118fa:	f7ff fcf7 	bl	80112ec <vPortExitCritical>
 80118fe:	4628      	mov	r0, r5
 8011900:	9901      	ldr	r1, [sp, #4]
 8011902:	f7fe ff6b 	bl	80107dc <vTaskPlaceOnEventList>
 8011906:	f7ff fccf 	bl	80112a8 <vPortEnterCritical>
 801190a:	6ca3      	ldr	r3, [r4, #72]	; 0x48
 801190c:	2b00      	cmp	r3, #0
 801190e:	dd38      	ble.n	8011982 <xQueueGenericSend+0x176>
 8011910:	6a63      	ldr	r3, [r4, #36]	; 0x24
 8011912:	2b00      	cmp	r3, #0
 8011914:	d035      	beq.n	8011982 <xQueueGenericSend+0x176>
 8011916:	f104 0624 	add.w	r6, r4, #36	; 0x24
 801191a:	e007      	b.n	801192c <xQueueGenericSend+0x120>
 801191c:	6ca3      	ldr	r3, [r4, #72]	; 0x48
 801191e:	3b01      	subs	r3, #1
 8011920:	64a3      	str	r3, [r4, #72]	; 0x48
 8011922:	6ca3      	ldr	r3, [r4, #72]	; 0x48
 8011924:	2b00      	cmp	r3, #0
 8011926:	dd2c      	ble.n	8011982 <xQueueGenericSend+0x176>
 8011928:	6a63      	ldr	r3, [r4, #36]	; 0x24
 801192a:	b353      	cbz	r3, 8011982 <xQueueGenericSend+0x176>
 801192c:	4630      	mov	r0, r6
 801192e:	f7fe ffff 	bl	8010930 <xTaskRemoveFromEventList>
 8011932:	2800      	cmp	r0, #0
 8011934:	d0f2      	beq.n	801191c <xQueueGenericSend+0x110>
 8011936:	f7ff f899 	bl	8010a6c <vTaskMissedYield>
 801193a:	e7ef      	b.n	801191c <xQueueGenericSend+0x110>
 801193c:	6bc2      	ldr	r2, [r0, #60]	; 0x3c
 801193e:	2a01      	cmp	r2, #1
 8011940:	f43f af71 	beq.w	8011826 <xQueueGenericSend+0x1a>
 8011944:	f04f 0350 	mov.w	r3, #80	; 0x50
 8011948:	f383 8811 	msr	BASEPRI, r3
 801194c:	f3bf 8f6f 	isb	sy
 8011950:	f3bf 8f4f 	dsb	sy
 8011954:	e7fe      	b.n	8011954 <xQueueGenericSend+0x148>
 8011956:	6c02      	ldr	r2, [r0, #64]	; 0x40
 8011958:	2a00      	cmp	r2, #0
 801195a:	f43f af61 	beq.w	8011820 <xQueueGenericSend+0x14>
 801195e:	f04f 0350 	mov.w	r3, #80	; 0x50
 8011962:	f383 8811 	msr	BASEPRI, r3
 8011966:	f3bf 8f6f 	isb	sy
 801196a:	f3bf 8f4f 	dsb	sy
 801196e:	e7fe      	b.n	801196e <xQueueGenericSend+0x162>
 8011970:	f04f 0350 	mov.w	r3, #80	; 0x50
 8011974:	f383 8811 	msr	BASEPRI, r3
 8011978:	f3bf 8f6f 	isb	sy
 801197c:	f3bf 8f4f 	dsb	sy
 8011980:	e7fe      	b.n	8011980 <xQueueGenericSend+0x174>
 8011982:	f04f 33ff 	mov.w	r3, #4294967295
 8011986:	64a3      	str	r3, [r4, #72]	; 0x48
 8011988:	f7ff fcb0 	bl	80112ec <vPortExitCritical>
 801198c:	f7ff fc8c 	bl	80112a8 <vPortEnterCritical>
 8011990:	6c63      	ldr	r3, [r4, #68]	; 0x44
 8011992:	2b00      	cmp	r3, #0
 8011994:	dc06      	bgt.n	80119a4 <xQueueGenericSend+0x198>
 8011996:	e00f      	b.n	80119b8 <xQueueGenericSend+0x1ac>
 8011998:	6c63      	ldr	r3, [r4, #68]	; 0x44
 801199a:	3b01      	subs	r3, #1
 801199c:	6463      	str	r3, [r4, #68]	; 0x44
 801199e:	6c63      	ldr	r3, [r4, #68]	; 0x44
 80119a0:	2b00      	cmp	r3, #0
 80119a2:	dd09      	ble.n	80119b8 <xQueueGenericSend+0x1ac>
 80119a4:	6923      	ldr	r3, [r4, #16]
 80119a6:	b13b      	cbz	r3, 80119b8 <xQueueGenericSend+0x1ac>
 80119a8:	4628      	mov	r0, r5
 80119aa:	f7fe ffc1 	bl	8010930 <xTaskRemoveFromEventList>
 80119ae:	2800      	cmp	r0, #0
 80119b0:	d0f2      	beq.n	8011998 <xQueueGenericSend+0x18c>
 80119b2:	f7ff f85b 	bl	8010a6c <vTaskMissedYield>
 80119b6:	e7ef      	b.n	8011998 <xQueueGenericSend+0x18c>
 80119b8:	f04f 33ff 	mov.w	r3, #4294967295
 80119bc:	6463      	str	r3, [r4, #68]	; 0x44
 80119be:	f7ff fc95 	bl	80112ec <vPortExitCritical>
 80119c2:	f7fe fdab 	bl	801051c <xTaskResumeAll>
 80119c6:	b938      	cbnz	r0, 80119d8 <xQueueGenericSend+0x1cc>
 80119c8:	f04f 5380 	mov.w	r3, #268435456	; 0x10000000
 80119cc:	f8ca 3000 	str.w	r3, [sl]
 80119d0:	f3bf 8f4f 	dsb	sy
 80119d4:	f3bf 8f6f 	isb	sy
 80119d8:	f7ff fc66 	bl	80112a8 <vPortEnterCritical>
 80119dc:	6ba2      	ldr	r2, [r4, #56]	; 0x38
 80119de:	6be3      	ldr	r3, [r4, #60]	; 0x3c
 80119e0:	429a      	cmp	r2, r3
 80119e2:	f04f 0601 	mov.w	r6, #1
 80119e6:	f4bf af3b 	bcs.w	8011860 <xQueueGenericSend+0x54>
 80119ea:	4641      	mov	r1, r8
 80119ec:	463a      	mov	r2, r7
 80119ee:	4620      	mov	r0, r4
 80119f0:	f7ff fdec 	bl	80115cc <prvCopyDataToQueue>
 80119f4:	6a63      	ldr	r3, [r4, #36]	; 0x24
 80119f6:	2b00      	cmp	r3, #0
 80119f8:	d144      	bne.n	8011a84 <xQueueGenericSend+0x278>
 80119fa:	b138      	cbz	r0, 8011a0c <xQueueGenericSend+0x200>
 80119fc:	4b25      	ldr	r3, [pc, #148]	; (8011a94 <xQueueGenericSend+0x288>)
 80119fe:	f04f 5280 	mov.w	r2, #268435456	; 0x10000000
 8011a02:	601a      	str	r2, [r3, #0]
 8011a04:	f3bf 8f4f 	dsb	sy
 8011a08:	f3bf 8f6f 	isb	sy
 8011a0c:	f7ff fc6e 	bl	80112ec <vPortExitCritical>
 8011a10:	2001      	movs	r0, #1
 8011a12:	e02c      	b.n	8011a6e <xQueueGenericSend+0x262>
 8011a14:	f04f 33ff 	mov.w	r3, #4294967295
 8011a18:	64a3      	str	r3, [r4, #72]	; 0x48
 8011a1a:	f7ff fc67 	bl	80112ec <vPortExitCritical>
 8011a1e:	f7ff fc43 	bl	80112a8 <vPortEnterCritical>
 8011a22:	6c63      	ldr	r3, [r4, #68]	; 0x44
 8011a24:	2b00      	cmp	r3, #0
 8011a26:	dd14      	ble.n	8011a52 <xQueueGenericSend+0x246>
 8011a28:	6923      	ldr	r3, [r4, #16]
 8011a2a:	b193      	cbz	r3, 8011a52 <xQueueGenericSend+0x246>
 8011a2c:	f104 0510 	add.w	r5, r4, #16
 8011a30:	e007      	b.n	8011a42 <xQueueGenericSend+0x236>
 8011a32:	6c63      	ldr	r3, [r4, #68]	; 0x44
 8011a34:	3b01      	subs	r3, #1
 8011a36:	6463      	str	r3, [r4, #68]	; 0x44
 8011a38:	6c63      	ldr	r3, [r4, #68]	; 0x44
 8011a3a:	2b00      	cmp	r3, #0
 8011a3c:	dd09      	ble.n	8011a52 <xQueueGenericSend+0x246>
 8011a3e:	6923      	ldr	r3, [r4, #16]
 8011a40:	b13b      	cbz	r3, 8011a52 <xQueueGenericSend+0x246>
 8011a42:	4628      	mov	r0, r5
 8011a44:	f7fe ff74 	bl	8010930 <xTaskRemoveFromEventList>
 8011a48:	2800      	cmp	r0, #0
 8011a4a:	d0f2      	beq.n	8011a32 <xQueueGenericSend+0x226>
 8011a4c:	f7ff f80e 	bl	8010a6c <vTaskMissedYield>
 8011a50:	e7ef      	b.n	8011a32 <xQueueGenericSend+0x226>
 8011a52:	f04f 33ff 	mov.w	r3, #4294967295
 8011a56:	6463      	str	r3, [r4, #68]	; 0x44
 8011a58:	f7ff fc48 	bl	80112ec <vPortExitCritical>
 8011a5c:	f7fe fd5e 	bl	801051c <xTaskResumeAll>
 8011a60:	e7ba      	b.n	80119d8 <xQueueGenericSend+0x1cc>
 8011a62:	4620      	mov	r0, r4
 8011a64:	f7ff fdfc 	bl	8011660 <prvUnlockQueue>
 8011a68:	f7fe fd58 	bl	801051c <xTaskResumeAll>
 8011a6c:	2000      	movs	r0, #0
 8011a6e:	b004      	add	sp, #16
 8011a70:	e8bd 87f0 	ldmia.w	sp!, {r4, r5, r6, r7, r8, r9, sl, pc}
 8011a74:	a802      	add	r0, sp, #8
 8011a76:	f7fe ff9f 	bl	80109b8 <vTaskSetTimeOutState>
 8011a7a:	e6fb      	b.n	8011874 <xQueueGenericSend+0x68>
 8011a7c:	f7ff fc36 	bl	80112ec <vPortExitCritical>
 8011a80:	4628      	mov	r0, r5
 8011a82:	e7f4      	b.n	8011a6e <xQueueGenericSend+0x262>
 8011a84:	f104 0024 	add.w	r0, r4, #36	; 0x24
 8011a88:	f7fe ff52 	bl	8010930 <xTaskRemoveFromEventList>
 8011a8c:	2801      	cmp	r0, #1
 8011a8e:	d1bd      	bne.n	8011a0c <xQueueGenericSend+0x200>
 8011a90:	e7b4      	b.n	80119fc <xQueueGenericSend+0x1f0>
 8011a92:	bf00      	nop
 8011a94:	e000ed04 	.word	0xe000ed04

08011a98 <xQueueGenericSendFromISR>:
 8011a98:	b300      	cbz	r0, 8011adc <xQueueGenericSendFromISR+0x44>
 8011a9a:	e92d 41f0 	stmdb	sp!, {r4, r5, r6, r7, r8, lr}
 8011a9e:	2900      	cmp	r1, #0
 8011aa0:	d03e      	beq.n	8011b20 <xQueueGenericSendFromISR+0x88>
 8011aa2:	2b02      	cmp	r3, #2
 8011aa4:	d030      	beq.n	8011b08 <xQueueGenericSendFromISR+0x70>
 8011aa6:	4604      	mov	r4, r0
 8011aa8:	461d      	mov	r5, r3
 8011aaa:	4617      	mov	r7, r2
 8011aac:	460e      	mov	r6, r1
 8011aae:	f7ff fd05 	bl	80114bc <vPortValidateInterruptPriority>
 8011ab2:	f3ef 8811 	mrs	r8, BASEPRI
 8011ab6:	f04f 0350 	mov.w	r3, #80	; 0x50
 8011aba:	f383 8811 	msr	BASEPRI, r3
 8011abe:	f3bf 8f6f 	isb	sy
 8011ac2:	f3bf 8f4f 	dsb	sy
 8011ac6:	6ba2      	ldr	r2, [r4, #56]	; 0x38
 8011ac8:	6be3      	ldr	r3, [r4, #60]	; 0x3c
 8011aca:	429a      	cmp	r2, r3
 8011acc:	d30f      	bcc.n	8011aee <xQueueGenericSendFromISR+0x56>
 8011ace:	2d02      	cmp	r5, #2
 8011ad0:	d00d      	beq.n	8011aee <xQueueGenericSendFromISR+0x56>
 8011ad2:	2000      	movs	r0, #0
 8011ad4:	f388 8811 	msr	BASEPRI, r8
 8011ad8:	e8bd 81f0 	ldmia.w	sp!, {r4, r5, r6, r7, r8, pc}
 8011adc:	f04f 0350 	mov.w	r3, #80	; 0x50
 8011ae0:	f383 8811 	msr	BASEPRI, r3
 8011ae4:	f3bf 8f6f 	isb	sy
 8011ae8:	f3bf 8f4f 	dsb	sy
 8011aec:	e7fe      	b.n	8011aec <xQueueGenericSendFromISR+0x54>
 8011aee:	4631      	mov	r1, r6
 8011af0:	462a      	mov	r2, r5
 8011af2:	4620      	mov	r0, r4
 8011af4:	f7ff fd6a 	bl	80115cc <prvCopyDataToQueue>
 8011af8:	6ca3      	ldr	r3, [r4, #72]	; 0x48
 8011afa:	3301      	adds	r3, #1
 8011afc:	d01c      	beq.n	8011b38 <xQueueGenericSendFromISR+0xa0>
 8011afe:	6ca3      	ldr	r3, [r4, #72]	; 0x48
 8011b00:	3301      	adds	r3, #1
 8011b02:	64a3      	str	r3, [r4, #72]	; 0x48
 8011b04:	2001      	movs	r0, #1
 8011b06:	e7e5      	b.n	8011ad4 <xQueueGenericSendFromISR+0x3c>
 8011b08:	6bc4      	ldr	r4, [r0, #60]	; 0x3c
 8011b0a:	2c01      	cmp	r4, #1
 8011b0c:	d0cb      	beq.n	8011aa6 <xQueueGenericSendFromISR+0xe>
 8011b0e:	f04f 0350 	mov.w	r3, #80	; 0x50
 8011b12:	f383 8811 	msr	BASEPRI, r3
 8011b16:	f3bf 8f6f 	isb	sy
 8011b1a:	f3bf 8f4f 	dsb	sy
 8011b1e:	e7fe      	b.n	8011b1e <xQueueGenericSendFromISR+0x86>
 8011b20:	6c04      	ldr	r4, [r0, #64]	; 0x40
 8011b22:	2c00      	cmp	r4, #0
 8011b24:	d0bd      	beq.n	8011aa2 <xQueueGenericSendFromISR+0xa>
 8011b26:	f04f 0350 	mov.w	r3, #80	; 0x50
 8011b2a:	f383 8811 	msr	BASEPRI, r3
 8011b2e:	f3bf 8f6f 	isb	sy
 8011b32:	f3bf 8f4f 	dsb	sy
 8011b36:	e7fe      	b.n	8011b36 <xQueueGenericSendFromISR+0x9e>
 8011b38:	6a63      	ldr	r3, [r4, #36]	; 0x24
 8011b3a:	2b00      	cmp	r3, #0
 8011b3c:	d0e2      	beq.n	8011b04 <xQueueGenericSendFromISR+0x6c>
 8011b3e:	f104 0024 	add.w	r0, r4, #36	; 0x24
 8011b42:	f7fe fef5 	bl	8010930 <xTaskRemoveFromEventList>
 8011b46:	2800      	cmp	r0, #0
 8011b48:	d0dc      	beq.n	8011b04 <xQueueGenericSendFromISR+0x6c>
 8011b4a:	2f00      	cmp	r7, #0
 8011b4c:	d0da      	beq.n	8011b04 <xQueueGenericSendFromISR+0x6c>
 8011b4e:	2001      	movs	r0, #1
 8011b50:	6038      	str	r0, [r7, #0]
 8011b52:	e7bf      	b.n	8011ad4 <xQueueGenericSendFromISR+0x3c>

08011b54 <xQueueGiveFromISR>:
 8011b54:	b570      	push	{r4, r5, r6, lr}
 8011b56:	b360      	cbz	r0, 8011bb2 <xQueueGiveFromISR+0x5e>
 8011b58:	6c03      	ldr	r3, [r0, #64]	; 0x40
 8011b5a:	b143      	cbz	r3, 8011b6e <xQueueGiveFromISR+0x1a>
 8011b5c:	f04f 0350 	mov.w	r3, #80	; 0x50
 8011b60:	f383 8811 	msr	BASEPRI, r3
 8011b64:	f3bf 8f6f 	isb	sy
 8011b68:	f3bf 8f4f 	dsb	sy
 8011b6c:	e7fe      	b.n	8011b6c <xQueueGiveFromISR+0x18>
 8011b6e:	6803      	ldr	r3, [r0, #0]
 8011b70:	2b00      	cmp	r3, #0
 8011b72:	d037      	beq.n	8011be4 <xQueueGiveFromISR+0x90>
 8011b74:	4604      	mov	r4, r0
 8011b76:	460d      	mov	r5, r1
 8011b78:	f7ff fca0 	bl	80114bc <vPortValidateInterruptPriority>
 8011b7c:	f3ef 8611 	mrs	r6, BASEPRI
 8011b80:	f04f 0350 	mov.w	r3, #80	; 0x50
 8011b84:	f383 8811 	msr	BASEPRI, r3
 8011b88:	f3bf 8f6f 	isb	sy
 8011b8c:	f3bf 8f4f 	dsb	sy
 8011b90:	6ba2      	ldr	r2, [r4, #56]	; 0x38
 8011b92:	6be3      	ldr	r3, [r4, #60]	; 0x3c
 8011b94:	429a      	cmp	r2, r3
 8011b96:	d223      	bcs.n	8011be0 <xQueueGiveFromISR+0x8c>
 8011b98:	6ba3      	ldr	r3, [r4, #56]	; 0x38
 8011b9a:	3301      	adds	r3, #1
 8011b9c:	63a3      	str	r3, [r4, #56]	; 0x38
 8011b9e:	6ca3      	ldr	r3, [r4, #72]	; 0x48
 8011ba0:	3301      	adds	r3, #1
 8011ba2:	d00f      	beq.n	8011bc4 <xQueueGiveFromISR+0x70>
 8011ba4:	6ca3      	ldr	r3, [r4, #72]	; 0x48
 8011ba6:	3301      	adds	r3, #1
 8011ba8:	64a3      	str	r3, [r4, #72]	; 0x48
 8011baa:	2001      	movs	r0, #1
 8011bac:	f386 8811 	msr	BASEPRI, r6
 8011bb0:	bd70      	pop	{r4, r5, r6, pc}
 8011bb2:	f04f 0350 	mov.w	r3, #80	; 0x50
 8011bb6:	f383 8811 	msr	BASEPRI, r3
 8011bba:	f3bf 8f6f 	isb	sy
 8011bbe:	f3bf 8f4f 	dsb	sy
 8011bc2:	e7fe      	b.n	8011bc2 <xQueueGiveFromISR+0x6e>
 8011bc4:	6a63      	ldr	r3, [r4, #36]	; 0x24
 8011bc6:	2b00      	cmp	r3, #0
 8011bc8:	d0ef      	beq.n	8011baa <xQueueGiveFromISR+0x56>
 8011bca:	f104 0024 	add.w	r0, r4, #36	; 0x24
 8011bce:	f7fe feaf 	bl	8010930 <xTaskRemoveFromEventList>
 8011bd2:	2800      	cmp	r0, #0
 8011bd4:	d0e9      	beq.n	8011baa <xQueueGiveFromISR+0x56>
 8011bd6:	2d00      	cmp	r5, #0
 8011bd8:	d0e7      	beq.n	8011baa <xQueueGiveFromISR+0x56>
 8011bda:	2001      	movs	r0, #1
 8011bdc:	6028      	str	r0, [r5, #0]
 8011bde:	e7e5      	b.n	8011bac <xQueueGiveFromISR+0x58>
 8011be0:	2000      	movs	r0, #0
 8011be2:	e7e3      	b.n	8011bac <xQueueGiveFromISR+0x58>
 8011be4:	6843      	ldr	r3, [r0, #4]
 8011be6:	2b00      	cmp	r3, #0
 8011be8:	d0c4      	beq.n	8011b74 <xQueueGiveFromISR+0x20>
 8011bea:	f04f 0350 	mov.w	r3, #80	; 0x50
 8011bee:	f383 8811 	msr	BASEPRI, r3
 8011bf2:	f3bf 8f6f 	isb	sy
 8011bf6:	f3bf 8f4f 	dsb	sy
 8011bfa:	e7fe      	b.n	8011bfa <xQueueGiveFromISR+0xa6>

08011bfc <xQueueGenericReceive>:
 8011bfc:	e92d 47f0 	stmdb	sp!, {r4, r5, r6, r7, r8, r9, sl, lr}
 8011c00:	b084      	sub	sp, #16
 8011c02:	9201      	str	r2, [sp, #4]
 8011c04:	2800      	cmp	r0, #0
 8011c06:	f000 812d 	beq.w	8011e64 <xQueueGenericReceive+0x268>
 8011c0a:	2900      	cmp	r1, #0
 8011c0c:	f000 80ee 	beq.w	8011dec <xQueueGenericReceive+0x1f0>
 8011c10:	4604      	mov	r4, r0
 8011c12:	4698      	mov	r8, r3
 8011c14:	460f      	mov	r7, r1
 8011c16:	f7fe ff2f 	bl	8010a78 <xTaskGetSchedulerState>
 8011c1a:	b950      	cbnz	r0, 8011c32 <xQueueGenericReceive+0x36>
 8011c1c:	9e01      	ldr	r6, [sp, #4]
 8011c1e:	b14e      	cbz	r6, 8011c34 <xQueueGenericReceive+0x38>
 8011c20:	f04f 0350 	mov.w	r3, #80	; 0x50
 8011c24:	f383 8811 	msr	BASEPRI, r3
 8011c28:	f3bf 8f6f 	isb	sy
 8011c2c:	f3bf 8f4f 	dsb	sy
 8011c30:	e7fe      	b.n	8011c30 <xQueueGenericReceive+0x34>
 8011c32:	2600      	movs	r6, #0
 8011c34:	f7ff fb38 	bl	80112a8 <vPortEnterCritical>
 8011c38:	6ba3      	ldr	r3, [r4, #56]	; 0x38
 8011c3a:	f8df a23c 	ldr.w	sl, [pc, #572]	; 8011e78 <xQueueGenericReceive+0x27c>
 8011c3e:	f04f 0900 	mov.w	r9, #0
 8011c42:	2b00      	cmp	r3, #0
 8011c44:	d17c      	bne.n	8011d40 <xQueueGenericReceive+0x144>
 8011c46:	9d01      	ldr	r5, [sp, #4]
 8011c48:	2d00      	cmp	r5, #0
 8011c4a:	f000 80ed 	beq.w	8011e28 <xQueueGenericReceive+0x22c>
 8011c4e:	b916      	cbnz	r6, 8011c56 <xQueueGenericReceive+0x5a>
 8011c50:	a802      	add	r0, sp, #8
 8011c52:	f7fe feb1 	bl	80109b8 <vTaskSetTimeOutState>
 8011c56:	f7ff fb49 	bl	80112ec <vPortExitCritical>
 8011c5a:	f7fe fb9d 	bl	8010398 <vTaskSuspendAll>
 8011c5e:	f7ff fb23 	bl	80112a8 <vPortEnterCritical>
 8011c62:	6c63      	ldr	r3, [r4, #68]	; 0x44
 8011c64:	3301      	adds	r3, #1
 8011c66:	bf08      	it	eq
 8011c68:	f8c4 9044 	streq.w	r9, [r4, #68]	; 0x44
 8011c6c:	6ca3      	ldr	r3, [r4, #72]	; 0x48
 8011c6e:	3301      	adds	r3, #1
 8011c70:	bf08      	it	eq
 8011c72:	f8c4 9048 	streq.w	r9, [r4, #72]	; 0x48
 8011c76:	f7ff fb39 	bl	80112ec <vPortExitCritical>
 8011c7a:	a802      	add	r0, sp, #8
 8011c7c:	a901      	add	r1, sp, #4
 8011c7e:	f7fe feb1 	bl	80109e4 <xTaskCheckForTimeOut>
 8011c82:	2800      	cmp	r0, #0
 8011c84:	f040 80c7 	bne.w	8011e16 <xQueueGenericReceive+0x21a>
 8011c88:	f7ff fb0e 	bl	80112a8 <vPortEnterCritical>
 8011c8c:	6ba3      	ldr	r3, [r4, #56]	; 0x38
 8011c8e:	2b00      	cmp	r3, #0
 8011c90:	d16d      	bne.n	8011d6e <xQueueGenericReceive+0x172>
 8011c92:	f7ff fb2b 	bl	80112ec <vPortExitCritical>
 8011c96:	6823      	ldr	r3, [r4, #0]
 8011c98:	2b00      	cmp	r3, #0
 8011c9a:	f000 80b4 	beq.w	8011e06 <xQueueGenericReceive+0x20a>
 8011c9e:	f104 0524 	add.w	r5, r4, #36	; 0x24
 8011ca2:	4628      	mov	r0, r5
 8011ca4:	9901      	ldr	r1, [sp, #4]
 8011ca6:	f7fe fd99 	bl	80107dc <vTaskPlaceOnEventList>
 8011caa:	f7ff fafd 	bl	80112a8 <vPortEnterCritical>
 8011cae:	6ca3      	ldr	r3, [r4, #72]	; 0x48
 8011cb0:	2b00      	cmp	r3, #0
 8011cb2:	dc06      	bgt.n	8011cc2 <xQueueGenericReceive+0xc6>
 8011cb4:	e00f      	b.n	8011cd6 <xQueueGenericReceive+0xda>
 8011cb6:	6ca3      	ldr	r3, [r4, #72]	; 0x48
 8011cb8:	3b01      	subs	r3, #1
 8011cba:	64a3      	str	r3, [r4, #72]	; 0x48
 8011cbc:	6ca3      	ldr	r3, [r4, #72]	; 0x48
 8011cbe:	2b00      	cmp	r3, #0
 8011cc0:	dd09      	ble.n	8011cd6 <xQueueGenericReceive+0xda>
 8011cc2:	6a63      	ldr	r3, [r4, #36]	; 0x24
 8011cc4:	b13b      	cbz	r3, 8011cd6 <xQueueGenericReceive+0xda>
 8011cc6:	4628      	mov	r0, r5
 8011cc8:	f7fe fe32 	bl	8010930 <xTaskRemoveFromEventList>
 8011ccc:	2800      	cmp	r0, #0
 8011cce:	d0f2      	beq.n	8011cb6 <xQueueGenericReceive+0xba>
 8011cd0:	f7fe fecc 	bl	8010a6c <vTaskMissedYield>
 8011cd4:	e7ef      	b.n	8011cb6 <xQueueGenericReceive+0xba>
 8011cd6:	f04f 33ff 	mov.w	r3, #4294967295
 8011cda:	64a3      	str	r3, [r4, #72]	; 0x48
 8011cdc:	f7ff fb06 	bl	80112ec <vPortExitCritical>
 8011ce0:	f7ff fae2 	bl	80112a8 <vPortEnterCritical>
 8011ce4:	6c63      	ldr	r3, [r4, #68]	; 0x44
 8011ce6:	2b00      	cmp	r3, #0
 8011ce8:	dd14      	ble.n	8011d14 <xQueueGenericReceive+0x118>
 8011cea:	6923      	ldr	r3, [r4, #16]
 8011cec:	b193      	cbz	r3, 8011d14 <xQueueGenericReceive+0x118>
 8011cee:	f104 0510 	add.w	r5, r4, #16
 8011cf2:	e007      	b.n	8011d04 <xQueueGenericReceive+0x108>
 8011cf4:	6c63      	ldr	r3, [r4, #68]	; 0x44
 8011cf6:	3b01      	subs	r3, #1
 8011cf8:	6463      	str	r3, [r4, #68]	; 0x44
 8011cfa:	6c63      	ldr	r3, [r4, #68]	; 0x44
 8011cfc:	2b00      	cmp	r3, #0
 8011cfe:	dd09      	ble.n	8011d14 <xQueueGenericReceive+0x118>
 8011d00:	6923      	ldr	r3, [r4, #16]
 8011d02:	b13b      	cbz	r3, 8011d14 <xQueueGenericReceive+0x118>
 8011d04:	4628      	mov	r0, r5
 8011d06:	f7fe fe13 	bl	8010930 <xTaskRemoveFromEventList>
 8011d0a:	2800      	cmp	r0, #0
 8011d0c:	d0f2      	beq.n	8011cf4 <xQueueGenericReceive+0xf8>
 8011d0e:	f7fe fead 	bl	8010a6c <vTaskMissedYield>
 8011d12:	e7ef      	b.n	8011cf4 <xQueueGenericReceive+0xf8>
 8011d14:	f04f 33ff 	mov.w	r3, #4294967295
 8011d18:	6463      	str	r3, [r4, #68]	; 0x44
 8011d1a:	f7ff fae7 	bl	80112ec <vPortExitCritical>
 8011d1e:	f7fe fbfd 	bl	801051c <xTaskResumeAll>
 8011d22:	b938      	cbnz	r0, 8011d34 <xQueueGenericReceive+0x138>
 8011d24:	f04f 5380 	mov.w	r3, #268435456	; 0x10000000
 8011d28:	f8ca 3000 	str.w	r3, [sl]
 8011d2c:	f3bf 8f4f 	dsb	sy
 8011d30:	f3bf 8f6f 	isb	sy
 8011d34:	f7ff fab8 	bl	80112a8 <vPortEnterCritical>
 8011d38:	6ba3      	ldr	r3, [r4, #56]	; 0x38
 8011d3a:	2601      	movs	r6, #1
 8011d3c:	2b00      	cmp	r3, #0
 8011d3e:	d082      	beq.n	8011c46 <xQueueGenericReceive+0x4a>
 8011d40:	4639      	mov	r1, r7
 8011d42:	4620      	mov	r0, r4
 8011d44:	68e5      	ldr	r5, [r4, #12]
 8011d46:	f7ff fc77 	bl	8011638 <prvCopyDataFromQueue>
 8011d4a:	f1b8 0f00 	cmp.w	r8, #0
 8011d4e:	d16f      	bne.n	8011e30 <xQueueGenericReceive+0x234>
 8011d50:	6ba3      	ldr	r3, [r4, #56]	; 0x38
 8011d52:	6822      	ldr	r2, [r4, #0]
 8011d54:	3b01      	subs	r3, #1
 8011d56:	63a3      	str	r3, [r4, #56]	; 0x38
 8011d58:	b912      	cbnz	r2, 8011d60 <xQueueGenericReceive+0x164>
 8011d5a:	f7fe ff45 	bl	8010be8 <pvTaskIncrementMutexHeldCount>
 8011d5e:	6060      	str	r0, [r4, #4]
 8011d60:	6923      	ldr	r3, [r4, #16]
 8011d62:	2b00      	cmp	r3, #0
 8011d64:	d177      	bne.n	8011e56 <xQueueGenericReceive+0x25a>
 8011d66:	f7ff fac1 	bl	80112ec <vPortExitCritical>
 8011d6a:	2001      	movs	r0, #1
 8011d6c:	e059      	b.n	8011e22 <xQueueGenericReceive+0x226>
 8011d6e:	f7ff fabd 	bl	80112ec <vPortExitCritical>
 8011d72:	f7ff fa99 	bl	80112a8 <vPortEnterCritical>
 8011d76:	6ca3      	ldr	r3, [r4, #72]	; 0x48
 8011d78:	2b00      	cmp	r3, #0
 8011d7a:	dd12      	ble.n	8011da2 <xQueueGenericReceive+0x1a6>
 8011d7c:	6a63      	ldr	r3, [r4, #36]	; 0x24
 8011d7e:	b183      	cbz	r3, 8011da2 <xQueueGenericReceive+0x1a6>
 8011d80:	f104 0524 	add.w	r5, r4, #36	; 0x24
 8011d84:	e001      	b.n	8011d8a <xQueueGenericReceive+0x18e>
 8011d86:	6a63      	ldr	r3, [r4, #36]	; 0x24
 8011d88:	b15b      	cbz	r3, 8011da2 <xQueueGenericReceive+0x1a6>
 8011d8a:	4628      	mov	r0, r5
 8011d8c:	f7fe fdd0 	bl	8010930 <xTaskRemoveFromEventList>
 8011d90:	b108      	cbz	r0, 8011d96 <xQueueGenericReceive+0x19a>
 8011d92:	f7fe fe6b 	bl	8010a6c <vTaskMissedYield>
 8011d96:	6ca3      	ldr	r3, [r4, #72]	; 0x48
 8011d98:	3b01      	subs	r3, #1
 8011d9a:	64a3      	str	r3, [r4, #72]	; 0x48
 8011d9c:	6ca3      	ldr	r3, [r4, #72]	; 0x48
 8011d9e:	2b00      	cmp	r3, #0
 8011da0:	dcf1      	bgt.n	8011d86 <xQueueGenericReceive+0x18a>
 8011da2:	f04f 33ff 	mov.w	r3, #4294967295
 8011da6:	64a3      	str	r3, [r4, #72]	; 0x48
 8011da8:	f7ff faa0 	bl	80112ec <vPortExitCritical>
 8011dac:	f7ff fa7c 	bl	80112a8 <vPortEnterCritical>
 8011db0:	6c63      	ldr	r3, [r4, #68]	; 0x44
 8011db2:	2b00      	cmp	r3, #0
 8011db4:	dd12      	ble.n	8011ddc <xQueueGenericReceive+0x1e0>
 8011db6:	6923      	ldr	r3, [r4, #16]
 8011db8:	b183      	cbz	r3, 8011ddc <xQueueGenericReceive+0x1e0>
 8011dba:	f104 0510 	add.w	r5, r4, #16
 8011dbe:	e001      	b.n	8011dc4 <xQueueGenericReceive+0x1c8>
 8011dc0:	6923      	ldr	r3, [r4, #16]
 8011dc2:	b15b      	cbz	r3, 8011ddc <xQueueGenericReceive+0x1e0>
 8011dc4:	4628      	mov	r0, r5
 8011dc6:	f7fe fdb3 	bl	8010930 <xTaskRemoveFromEventList>
 8011dca:	b108      	cbz	r0, 8011dd0 <xQueueGenericReceive+0x1d4>
 8011dcc:	f7fe fe4e 	bl	8010a6c <vTaskMissedYield>
 8011dd0:	6c63      	ldr	r3, [r4, #68]	; 0x44
 8011dd2:	3b01      	subs	r3, #1
 8011dd4:	6463      	str	r3, [r4, #68]	; 0x44
 8011dd6:	6c63      	ldr	r3, [r4, #68]	; 0x44
 8011dd8:	2b00      	cmp	r3, #0
 8011dda:	dcf1      	bgt.n	8011dc0 <xQueueGenericReceive+0x1c4>
 8011ddc:	f04f 33ff 	mov.w	r3, #4294967295
 8011de0:	6463      	str	r3, [r4, #68]	; 0x44
 8011de2:	f7ff fa83 	bl	80112ec <vPortExitCritical>
 8011de6:	f7fe fb99 	bl	801051c <xTaskResumeAll>
 8011dea:	e7a3      	b.n	8011d34 <xQueueGenericReceive+0x138>
 8011dec:	6c02      	ldr	r2, [r0, #64]	; 0x40
 8011dee:	2a00      	cmp	r2, #0
 8011df0:	f43f af0e 	beq.w	8011c10 <xQueueGenericReceive+0x14>
 8011df4:	f04f 0350 	mov.w	r3, #80	; 0x50
 8011df8:	f383 8811 	msr	BASEPRI, r3
 8011dfc:	f3bf 8f6f 	isb	sy
 8011e00:	f3bf 8f4f 	dsb	sy
 8011e04:	e7fe      	b.n	8011e04 <xQueueGenericReceive+0x208>
 8011e06:	f7ff fa4f 	bl	80112a8 <vPortEnterCritical>
 8011e0a:	6860      	ldr	r0, [r4, #4]
 8011e0c:	f7fe fe44 	bl	8010a98 <vTaskPriorityInherit>
 8011e10:	f7ff fa6c 	bl	80112ec <vPortExitCritical>
 8011e14:	e743      	b.n	8011c9e <xQueueGenericReceive+0xa2>
 8011e16:	4620      	mov	r0, r4
 8011e18:	f7ff fc22 	bl	8011660 <prvUnlockQueue>
 8011e1c:	f7fe fb7e 	bl	801051c <xTaskResumeAll>
 8011e20:	2000      	movs	r0, #0
 8011e22:	b004      	add	sp, #16
 8011e24:	e8bd 87f0 	ldmia.w	sp!, {r4, r5, r6, r7, r8, r9, sl, pc}
 8011e28:	f7ff fa60 	bl	80112ec <vPortExitCritical>
 8011e2c:	4628      	mov	r0, r5
 8011e2e:	e7f8      	b.n	8011e22 <xQueueGenericReceive+0x226>
 8011e30:	6a63      	ldr	r3, [r4, #36]	; 0x24
 8011e32:	60e5      	str	r5, [r4, #12]
 8011e34:	2b00      	cmp	r3, #0
 8011e36:	d096      	beq.n	8011d66 <xQueueGenericReceive+0x16a>
 8011e38:	f104 0024 	add.w	r0, r4, #36	; 0x24
 8011e3c:	f7fe fd78 	bl	8010930 <xTaskRemoveFromEventList>
 8011e40:	2800      	cmp	r0, #0
 8011e42:	d090      	beq.n	8011d66 <xQueueGenericReceive+0x16a>
 8011e44:	4b0c      	ldr	r3, [pc, #48]	; (8011e78 <xQueueGenericReceive+0x27c>)
 8011e46:	f04f 5280 	mov.w	r2, #268435456	; 0x10000000
 8011e4a:	601a      	str	r2, [r3, #0]
 8011e4c:	f3bf 8f4f 	dsb	sy
 8011e50:	f3bf 8f6f 	isb	sy
 8011e54:	e787      	b.n	8011d66 <xQueueGenericReceive+0x16a>
 8011e56:	f104 0010 	add.w	r0, r4, #16
 8011e5a:	f7fe fd69 	bl	8010930 <xTaskRemoveFromEventList>
 8011e5e:	2801      	cmp	r0, #1
 8011e60:	d181      	bne.n	8011d66 <xQueueGenericReceive+0x16a>
 8011e62:	e7ef      	b.n	8011e44 <xQueueGenericReceive+0x248>
 8011e64:	f04f 0350 	mov.w	r3, #80	; 0x50
 8011e68:	f383 8811 	msr	BASEPRI, r3
 8011e6c:	f3bf 8f6f 	isb	sy
 8011e70:	f3bf 8f4f 	dsb	sy
 8011e74:	e7fe      	b.n	8011e74 <xQueueGenericReceive+0x278>
 8011e76:	bf00      	nop
 8011e78:	e000ed04 	.word	0xe000ed04

08011e7c <xQueueReceiveFromISR>:
 8011e7c:	b5f8      	push	{r3, r4, r5, r6, r7, lr}
 8011e7e:	b1a0      	cbz	r0, 8011eaa <xQueueReceiveFromISR+0x2e>
 8011e80:	b359      	cbz	r1, 8011eda <xQueueReceiveFromISR+0x5e>
 8011e82:	4604      	mov	r4, r0
 8011e84:	4616      	mov	r6, r2
 8011e86:	460d      	mov	r5, r1
 8011e88:	f7ff fb18 	bl	80114bc <vPortValidateInterruptPriority>
 8011e8c:	f3ef 8711 	mrs	r7, BASEPRI
 8011e90:	f04f 0350 	mov.w	r3, #80	; 0x50
 8011e94:	f383 8811 	msr	BASEPRI, r3
 8011e98:	f3bf 8f6f 	isb	sy
 8011e9c:	f3bf 8f4f 	dsb	sy
 8011ea0:	6ba0      	ldr	r0, [r4, #56]	; 0x38
 8011ea2:	b958      	cbnz	r0, 8011ebc <xQueueReceiveFromISR+0x40>
 8011ea4:	f387 8811 	msr	BASEPRI, r7
 8011ea8:	bdf8      	pop	{r3, r4, r5, r6, r7, pc}
 8011eaa:	f04f 0350 	mov.w	r3, #80	; 0x50
 8011eae:	f383 8811 	msr	BASEPRI, r3
 8011eb2:	f3bf 8f6f 	isb	sy
 8011eb6:	f3bf 8f4f 	dsb	sy
 8011eba:	e7fe      	b.n	8011eba <xQueueReceiveFromISR+0x3e>
 8011ebc:	4629      	mov	r1, r5
 8011ebe:	4620      	mov	r0, r4
 8011ec0:	f7ff fbba 	bl	8011638 <prvCopyDataFromQueue>
 8011ec4:	6ba3      	ldr	r3, [r4, #56]	; 0x38
 8011ec6:	3b01      	subs	r3, #1
 8011ec8:	63a3      	str	r3, [r4, #56]	; 0x38
 8011eca:	6c63      	ldr	r3, [r4, #68]	; 0x44
 8011ecc:	3301      	adds	r3, #1
 8011ece:	d010      	beq.n	8011ef2 <xQueueReceiveFromISR+0x76>
 8011ed0:	6c63      	ldr	r3, [r4, #68]	; 0x44
 8011ed2:	3301      	adds	r3, #1
 8011ed4:	6463      	str	r3, [r4, #68]	; 0x44
 8011ed6:	2001      	movs	r0, #1
 8011ed8:	e7e4      	b.n	8011ea4 <xQueueReceiveFromISR+0x28>
 8011eda:	6c03      	ldr	r3, [r0, #64]	; 0x40
 8011edc:	2b00      	cmp	r3, #0
 8011ede:	d0d0      	beq.n	8011e82 <xQueueReceiveFromISR+0x6>
 8011ee0:	f04f 0350 	mov.w	r3, #80	; 0x50
 8011ee4:	f383 8811 	msr	BASEPRI, r3
 8011ee8:	f3bf 8f6f 	isb	sy
 8011eec:	f3bf 8f4f 	dsb	sy
 8011ef0:	e7fe      	b.n	8011ef0 <xQueueReceiveFromISR+0x74>
 8011ef2:	6923      	ldr	r3, [r4, #16]
 8011ef4:	2b00      	cmp	r3, #0
 8011ef6:	d0ee      	beq.n	8011ed6 <xQueueReceiveFromISR+0x5a>
 8011ef8:	f104 0010 	add.w	r0, r4, #16
 8011efc:	f7fe fd18 	bl	8010930 <xTaskRemoveFromEventList>
 8011f00:	2800      	cmp	r0, #0
 8011f02:	d0e8      	beq.n	8011ed6 <xQueueReceiveFromISR+0x5a>
 8011f04:	2e00      	cmp	r6, #0
 8011f06:	d0e6      	beq.n	8011ed6 <xQueueReceiveFromISR+0x5a>
 8011f08:	2001      	movs	r0, #1
 8011f0a:	6030      	str	r0, [r6, #0]
 8011f0c:	e7ca      	b.n	8011ea4 <xQueueReceiveFromISR+0x28>
 8011f0e:	bf00      	nop

08011f10 <vQueueAddToRegistry>:
 8011f10:	4b14      	ldr	r3, [pc, #80]	; (8011f64 <vQueueAddToRegistry+0x54>)
 8011f12:	681a      	ldr	r2, [r3, #0]
 8011f14:	b410      	push	{r4}
 8011f16:	b18a      	cbz	r2, 8011f3c <vQueueAddToRegistry+0x2c>
 8011f18:	689a      	ldr	r2, [r3, #8]
 8011f1a:	b1ba      	cbz	r2, 8011f4c <vQueueAddToRegistry+0x3c>
 8011f1c:	691a      	ldr	r2, [r3, #16]
 8011f1e:	b1ba      	cbz	r2, 8011f50 <vQueueAddToRegistry+0x40>
 8011f20:	699a      	ldr	r2, [r3, #24]
 8011f22:	b1ba      	cbz	r2, 8011f54 <vQueueAddToRegistry+0x44>
 8011f24:	6a1a      	ldr	r2, [r3, #32]
 8011f26:	b1ba      	cbz	r2, 8011f58 <vQueueAddToRegistry+0x48>
 8011f28:	6a9a      	ldr	r2, [r3, #40]	; 0x28
 8011f2a:	b1ba      	cbz	r2, 8011f5c <vQueueAddToRegistry+0x4c>
 8011f2c:	6b1a      	ldr	r2, [r3, #48]	; 0x30
 8011f2e:	b122      	cbz	r2, 8011f3a <vQueueAddToRegistry+0x2a>
 8011f30:	6b9a      	ldr	r2, [r3, #56]	; 0x38
 8011f32:	b1aa      	cbz	r2, 8011f60 <vQueueAddToRegistry+0x50>
 8011f34:	f85d 4b04 	ldr.w	r4, [sp], #4
 8011f38:	4770      	bx	lr
 8011f3a:	2206      	movs	r2, #6
 8011f3c:	eb03 04c2 	add.w	r4, r3, r2, lsl #3
 8011f40:	f843 1032 	str.w	r1, [r3, r2, lsl #3]
 8011f44:	6060      	str	r0, [r4, #4]
 8011f46:	f85d 4b04 	ldr.w	r4, [sp], #4
 8011f4a:	4770      	bx	lr
 8011f4c:	2201      	movs	r2, #1
 8011f4e:	e7f5      	b.n	8011f3c <vQueueAddToRegistry+0x2c>
 8011f50:	2202      	movs	r2, #2
 8011f52:	e7f3      	b.n	8011f3c <vQueueAddToRegistry+0x2c>
 8011f54:	2203      	movs	r2, #3
 8011f56:	e7f1      	b.n	8011f3c <vQueueAddToRegistry+0x2c>
 8011f58:	2204      	movs	r2, #4
 8011f5a:	e7ef      	b.n	8011f3c <vQueueAddToRegistry+0x2c>
 8011f5c:	2205      	movs	r2, #5
 8011f5e:	e7ed      	b.n	8011f3c <vQueueAddToRegistry+0x2c>
 8011f60:	2207      	movs	r2, #7
 8011f62:	e7eb      	b.n	8011f3c <vQueueAddToRegistry+0x2c>
 8011f64:	10000e54 	.word	0x10000e54

08011f68 <vQueueWaitForMessageRestricted>:
 8011f68:	b570      	push	{r4, r5, r6, lr}
 8011f6a:	4604      	mov	r4, r0
 8011f6c:	460e      	mov	r6, r1
 8011f6e:	4615      	mov	r5, r2
 8011f70:	f7ff f99a 	bl	80112a8 <vPortEnterCritical>
 8011f74:	6c63      	ldr	r3, [r4, #68]	; 0x44
 8011f76:	3301      	adds	r3, #1
 8011f78:	bf04      	itt	eq
 8011f7a:	2300      	moveq	r3, #0
 8011f7c:	6463      	streq	r3, [r4, #68]	; 0x44
 8011f7e:	6ca3      	ldr	r3, [r4, #72]	; 0x48
 8011f80:	3301      	adds	r3, #1
 8011f82:	bf04      	itt	eq
 8011f84:	2300      	moveq	r3, #0
 8011f86:	64a3      	streq	r3, [r4, #72]	; 0x48
 8011f88:	f7ff f9b0 	bl	80112ec <vPortExitCritical>
 8011f8c:	6ba3      	ldr	r3, [r4, #56]	; 0x38
 8011f8e:	b92b      	cbnz	r3, 8011f9c <vQueueWaitForMessageRestricted+0x34>
 8011f90:	4631      	mov	r1, r6
 8011f92:	462a      	mov	r2, r5
 8011f94:	f104 0024 	add.w	r0, r4, #36	; 0x24
 8011f98:	f7fe fc74 	bl	8010884 <vTaskPlaceOnEventListRestricted>
 8011f9c:	f7ff f984 	bl	80112a8 <vPortEnterCritical>
 8011fa0:	6ca3      	ldr	r3, [r4, #72]	; 0x48
 8011fa2:	2b00      	cmp	r3, #0
 8011fa4:	dd14      	ble.n	8011fd0 <vQueueWaitForMessageRestricted+0x68>
 8011fa6:	6a63      	ldr	r3, [r4, #36]	; 0x24
 8011fa8:	b193      	cbz	r3, 8011fd0 <vQueueWaitForMessageRestricted+0x68>
 8011faa:	f104 0524 	add.w	r5, r4, #36	; 0x24
 8011fae:	e007      	b.n	8011fc0 <vQueueWaitForMessageRestricted+0x58>
 8011fb0:	6ca3      	ldr	r3, [r4, #72]	; 0x48
 8011fb2:	3b01      	subs	r3, #1
 8011fb4:	64a3      	str	r3, [r4, #72]	; 0x48
 8011fb6:	6ca3      	ldr	r3, [r4, #72]	; 0x48
 8011fb8:	2b00      	cmp	r3, #0
 8011fba:	dd09      	ble.n	8011fd0 <vQueueWaitForMessageRestricted+0x68>
 8011fbc:	6a63      	ldr	r3, [r4, #36]	; 0x24
 8011fbe:	b13b      	cbz	r3, 8011fd0 <vQueueWaitForMessageRestricted+0x68>
 8011fc0:	4628      	mov	r0, r5
 8011fc2:	f7fe fcb5 	bl	8010930 <xTaskRemoveFromEventList>
 8011fc6:	2800      	cmp	r0, #0
 8011fc8:	d0f2      	beq.n	8011fb0 <vQueueWaitForMessageRestricted+0x48>
 8011fca:	f7fe fd4f 	bl	8010a6c <vTaskMissedYield>
 8011fce:	e7ef      	b.n	8011fb0 <vQueueWaitForMessageRestricted+0x48>
 8011fd0:	f04f 33ff 	mov.w	r3, #4294967295
 8011fd4:	64a3      	str	r3, [r4, #72]	; 0x48
 8011fd6:	f7ff f989 	bl	80112ec <vPortExitCritical>
 8011fda:	f7ff f965 	bl	80112a8 <vPortEnterCritical>
 8011fde:	6c63      	ldr	r3, [r4, #68]	; 0x44
 8011fe0:	2b00      	cmp	r3, #0
 8011fe2:	dd14      	ble.n	801200e <vQueueWaitForMessageRestricted+0xa6>
 8011fe4:	6923      	ldr	r3, [r4, #16]
 8011fe6:	b193      	cbz	r3, 801200e <vQueueWaitForMessageRestricted+0xa6>
 8011fe8:	f104 0510 	add.w	r5, r4, #16
 8011fec:	e007      	b.n	8011ffe <vQueueWaitForMessageRestricted+0x96>
 8011fee:	6c63      	ldr	r3, [r4, #68]	; 0x44
 8011ff0:	3b01      	subs	r3, #1
 8011ff2:	6463      	str	r3, [r4, #68]	; 0x44
 8011ff4:	6c63      	ldr	r3, [r4, #68]	; 0x44
 8011ff6:	2b00      	cmp	r3, #0
 8011ff8:	dd09      	ble.n	801200e <vQueueWaitForMessageRestricted+0xa6>
 8011ffa:	6923      	ldr	r3, [r4, #16]
 8011ffc:	b13b      	cbz	r3, 801200e <vQueueWaitForMessageRestricted+0xa6>
 8011ffe:	4628      	mov	r0, r5
 8012000:	f7fe fc96 	bl	8010930 <xTaskRemoveFromEventList>
 8012004:	2800      	cmp	r0, #0
 8012006:	d0f2      	beq.n	8011fee <vQueueWaitForMessageRestricted+0x86>
 8012008:	f7fe fd30 	bl	8010a6c <vTaskMissedYield>
 801200c:	e7ef      	b.n	8011fee <vQueueWaitForMessageRestricted+0x86>
 801200e:	f04f 33ff 	mov.w	r3, #4294967295
 8012012:	6463      	str	r3, [r4, #68]	; 0x44
 8012014:	e8bd 4070 	ldmia.w	sp!, {r4, r5, r6, lr}
 8012018:	f7ff b968 	b.w	80112ec <vPortExitCritical>

0801201c <_ZN6detail11video_setupEv>:
 801201c:	b538      	push	{r3, r4, r5, lr}
 801201e:	4c2f      	ldr	r4, [pc, #188]	; (80120dc <_ZN6detail11video_setupEv+0xc0>)
 8012020:	4b2f      	ldr	r3, [pc, #188]	; (80120e0 <_ZN6detail11video_setupEv+0xc4>)
 8012022:	6b22      	ldr	r2, [r4, #48]	; 0x30
 8012024:	4d2f      	ldr	r5, [pc, #188]	; (80120e4 <_ZN6detail11video_setupEv+0xc8>)
 8012026:	f042 0202 	orr.w	r2, r2, #2
 801202a:	6322      	str	r2, [r4, #48]	; 0x30
 801202c:	681a      	ldr	r2, [r3, #0]
 801202e:	f042 0203 	orr.w	r2, r2, #3
 8012032:	601a      	str	r2, [r3, #0]
 8012034:	68da      	ldr	r2, [r3, #12]
 8012036:	f022 0203 	bic.w	r2, r2, #3
 801203a:	60da      	str	r2, [r3, #12]
 801203c:	f000 fce4 	bl	8012a08 <_ZN6detail23video_palette_dac_setupEv>
 8012040:	f001 fd22 	bl	8013a88 <_ZN6detail9spi_setupEv>
 8012044:	f001 fe40 	bl	8013cc8 <_ZN6detail15pixel_dma_setupEv>
 8012048:	6b23      	ldr	r3, [r4, #48]	; 0x30
 801204a:	4927      	ldr	r1, [pc, #156]	; (80120e8 <_ZN6detail11video_setupEv+0xcc>)
 801204c:	4a27      	ldr	r2, [pc, #156]	; (80120ec <_ZN6detail11video_setupEv+0xd0>)
 801204e:	f043 0301 	orr.w	r3, r3, #1
 8012052:	6323      	str	r3, [r4, #48]	; 0x30
 8012054:	6b23      	ldr	r3, [r4, #48]	; 0x30
 8012056:	f043 0308 	orr.w	r3, r3, #8
 801205a:	6323      	str	r3, [r4, #48]	; 0x30
 801205c:	782b      	ldrb	r3, [r5, #0]
 801205e:	b323      	cbz	r3, 80120aa <_ZN6detail11video_setupEv+0x8e>
 8012060:	680b      	ldr	r3, [r1, #0]
 8012062:	f023 4340 	bic.w	r3, r3, #3221225472	; 0xc0000000
 8012066:	600b      	str	r3, [r1, #0]
 8012068:	68cb      	ldr	r3, [r1, #12]
 801206a:	f023 4340 	bic.w	r3, r3, #3221225472	; 0xc0000000
 801206e:	f043 4380 	orr.w	r3, r3, #1073741824	; 0x40000000
 8012072:	60cb      	str	r3, [r1, #12]
 8012074:	6813      	ldr	r3, [r2, #0]
 8012076:	f023 0330 	bic.w	r3, r3, #48	; 0x30
 801207a:	6013      	str	r3, [r2, #0]
 801207c:	68d3      	ldr	r3, [r2, #12]
 801207e:	f023 0330 	bic.w	r3, r3, #48	; 0x30
 8012082:	60d3      	str	r3, [r2, #12]
 8012084:	f001 fc8e 	bl	80139a4 <_ZN9video_cfg9spi_clock5setupEv>
 8012088:	f001 fa92 	bl	80135b0 <_ZN9video_cfg7columns5setupEv>
 801208c:	f001 fb9a 	bl	80137c4 <_ZN9video_cfg4rows5setupEv>
 8012090:	f000 ff66 	bl	8012f60 <_ZN13video_buffers4initEv>
 8012094:	f000 fab2 	bl	80125fc <_ZN6detail14sync_sep_setupEv>
 8012098:	f000 fa6a 	bl	8012570 <_ZN6detail15sync_sep_enableEv>
 801209c:	782b      	ldrb	r3, [r5, #0]
 801209e:	b2db      	uxtb	r3, r3
 80120a0:	2b01      	cmp	r3, #1
 80120a2:	bf04      	itt	eq
 80120a4:	4a12      	ldreq	r2, [pc, #72]	; (80120f0 <_ZN6detail11video_setupEv+0xd4>)
 80120a6:	6013      	streq	r3, [r2, #0]
 80120a8:	bd38      	pop	{r3, r4, r5, pc}
 80120aa:	680b      	ldr	r3, [r1, #0]
 80120ac:	f023 4340 	bic.w	r3, r3, #3221225472	; 0xc0000000
 80120b0:	f043 4300 	orr.w	r3, r3, #2147483648	; 0x80000000
 80120b4:	600b      	str	r3, [r1, #0]
 80120b6:	6a4b      	ldr	r3, [r1, #36]	; 0x24
 80120b8:	f023 4370 	bic.w	r3, r3, #4026531840	; 0xf0000000
 80120bc:	f043 5380 	orr.w	r3, r3, #268435456	; 0x10000000
 80120c0:	624b      	str	r3, [r1, #36]	; 0x24
 80120c2:	6813      	ldr	r3, [r2, #0]
 80120c4:	f023 0330 	bic.w	r3, r3, #48	; 0x30
 80120c8:	f043 0320 	orr.w	r3, r3, #32
 80120cc:	6013      	str	r3, [r2, #0]
 80120ce:	6a13      	ldr	r3, [r2, #32]
 80120d0:	f423 6370 	bic.w	r3, r3, #3840	; 0xf00
 80120d4:	f443 7300 	orr.w	r3, r3, #512	; 0x200
 80120d8:	6213      	str	r3, [r2, #32]
 80120da:	e7d3      	b.n	8012084 <_ZN6detail11video_setupEv+0x68>
 80120dc:	40023800 	.word	0x40023800
 80120e0:	40020400 	.word	0x40020400
 80120e4:	10000014 	.word	0x10000014
 80120e8:	40020000 	.word	0x40020000
 80120ec:	40020c00 	.word	0x40020c00
 80120f0:	42008000 	.word	0x42008000

080120f4 <_ZN6detail15video_take_downEv>:
 80120f4:	b508      	push	{r3, lr}
 80120f6:	f001 fdad 	bl	8013c54 <_ZN6detail12spi_takedownEv>
 80120fa:	4910      	ldr	r1, [pc, #64]	; (801213c <_ZN6detail15video_take_downEv+0x48>)
 80120fc:	4a10      	ldr	r2, [pc, #64]	; (8012140 <_ZN6detail15video_take_downEv+0x4c>)
 80120fe:	680b      	ldr	r3, [r1, #0]
 8012100:	f023 4340 	bic.w	r3, r3, #3221225472	; 0xc0000000
 8012104:	600b      	str	r3, [r1, #0]
 8012106:	68cb      	ldr	r3, [r1, #12]
 8012108:	f023 4340 	bic.w	r3, r3, #3221225472	; 0xc0000000
 801210c:	f043 4380 	orr.w	r3, r3, #1073741824	; 0x40000000
 8012110:	60cb      	str	r3, [r1, #12]
 8012112:	6813      	ldr	r3, [r2, #0]
 8012114:	f023 0330 	bic.w	r3, r3, #48	; 0x30
 8012118:	6013      	str	r3, [r2, #0]
 801211a:	68d3      	ldr	r3, [r2, #12]
 801211c:	f023 0330 	bic.w	r3, r3, #48	; 0x30
 8012120:	60d3      	str	r3, [r2, #12]
 8012122:	f000 ff1d 	bl	8012f60 <_ZN13video_buffers4initEv>
 8012126:	f001 fc2f 	bl	8013988 <_ZN9video_cfg9spi_clock8takedownEv>
 801212a:	f001 fb37 	bl	801379c <_ZN9video_cfg4rows8takedownEv>
 801212e:	f001 fa33 	bl	8013598 <_ZN9video_cfg7columns8takedownEv>
 8012132:	e8bd 4008 	ldmia.w	sp!, {r3, lr}
 8012136:	f000 ba43 	b.w	80125c0 <_ZN6detail17sync_sep_takedownEv>
 801213a:	bf00      	nop
 801213c:	40020000 	.word	0x40020000
 8012140:	40020c00 	.word	0x40020c00

08012144 <_Z9osd_setupv>:
 8012144:	e92d 4ff8 	stmdb	sp!, {r3, r4, r5, r6, r7, r8, r9, sl, fp, lr}
 8012148:	f44f 7040 	mov.w	r0, #768	; 0x300
 801214c:	f000 fefe 	bl	8012f4c <NVIC_PriorityGroupConfig>
 8012150:	f000 fe40 	bl	8012dd4 <_ZN6detail10setup_ledsEv>
 8012154:	493c      	ldr	r1, [pc, #240]	; (8012248 <_Z9osd_setupv+0x104>)
 8012156:	4b3d      	ldr	r3, [pc, #244]	; (801224c <_Z9osd_setupv+0x108>)
 8012158:	6b0a      	ldr	r2, [r1, #48]	; 0x30
 801215a:	4f3d      	ldr	r7, [pc, #244]	; (8012250 <_Z9osd_setupv+0x10c>)
 801215c:	f042 0204 	orr.w	r2, r2, #4
 8012160:	630a      	str	r2, [r1, #48]	; 0x30
 8012162:	681a      	ldr	r2, [r3, #0]
 8012164:	f022 6240 	bic.w	r2, r2, #201326592	; 0xc000000
 8012168:	f042 6280 	orr.w	r2, r2, #67108864	; 0x4000000
 801216c:	601a      	str	r2, [r3, #0]
 801216e:	685a      	ldr	r2, [r3, #4]
 8012170:	f422 5200 	bic.w	r2, r2, #8192	; 0x2000
 8012174:	605a      	str	r2, [r3, #4]
 8012176:	689a      	ldr	r2, [r3, #8]
 8012178:	f022 6240 	bic.w	r2, r2, #201326592	; 0xc000000
 801217c:	609a      	str	r2, [r3, #8]
 801217e:	68da      	ldr	r2, [r3, #12]
 8012180:	f022 6240 	bic.w	r2, r2, #201326592	; 0xc000000
 8012184:	60da      	str	r2, [r3, #12]
 8012186:	695a      	ldr	r2, [r3, #20]
 8012188:	f422 5200 	bic.w	r2, r2, #8192	; 0x2000
 801218c:	615a      	str	r2, [r3, #20]
 801218e:	6b0b      	ldr	r3, [r1, #48]	; 0x30
 8012190:	f04f 30ff 	mov.w	r0, #4294967295
 8012194:	f043 0301 	orr.w	r3, r3, #1
 8012198:	630b      	str	r3, [r1, #48]	; 0x30
 801219a:	f1a7 022c 	sub.w	r2, r7, #44	; 0x2c
 801219e:	4604      	mov	r4, r0
 80121a0:	2100      	movs	r1, #0
 80121a2:	f04f 0803 	mov.w	r8, #3
 80121a6:	f04f 0c01 	mov.w	ip, #1
 80121aa:	f04f 0e02 	mov.w	lr, #2
 80121ae:	f852 3b04 	ldr.w	r3, [r2], #4
 80121b2:	005b      	lsls	r3, r3, #1
 80121b4:	fa08 f603 	lsl.w	r6, r8, r3
 80121b8:	fa0c f503 	lsl.w	r5, ip, r3
 80121bc:	42ba      	cmp	r2, r7
 80121be:	fa0e f303 	lsl.w	r3, lr, r3
 80121c2:	ea24 0406 	bic.w	r4, r4, r6
 80121c6:	ea20 0005 	bic.w	r0, r0, r5
 80121ca:	ea41 0103 	orr.w	r1, r1, r3
 80121ce:	d1ee      	bne.n	80121ae <_Z9osd_setupv+0x6a>
 80121d0:	4e20      	ldr	r6, [pc, #128]	; (8012254 <_Z9osd_setupv+0x110>)
 80121d2:	4a1d      	ldr	r2, [pc, #116]	; (8012248 <_Z9osd_setupv+0x104>)
 80121d4:	f8d6 b000 	ldr.w	fp, [r6]
 80121d8:	4d1f      	ldr	r5, [pc, #124]	; (8012258 <_Z9osd_setupv+0x114>)
 80121da:	f8df a084 	ldr.w	sl, [pc, #132]	; 8012260 <_Z9osd_setupv+0x11c>
 80121de:	f8df 9084 	ldr.w	r9, [pc, #132]	; 8012264 <_Z9osd_setupv+0x120>
 80121e2:	f8df 8084 	ldr.w	r8, [pc, #132]	; 8012268 <_Z9osd_setupv+0x124>
 80121e6:	4b19      	ldr	r3, [pc, #100]	; (801224c <_Z9osd_setupv+0x108>)
 80121e8:	f8df c080 	ldr.w	ip, [pc, #128]	; 801226c <_Z9osd_setupv+0x128>
 80121ec:	f8df e080 	ldr.w	lr, [pc, #128]	; 8012270 <_Z9osd_setupv+0x12c>
 80121f0:	4f1a      	ldr	r7, [pc, #104]	; (801225c <_Z9osd_setupv+0x118>)
 80121f2:	ea04 040b 	and.w	r4, r4, fp
 80121f6:	6034      	str	r4, [r6, #0]
 80121f8:	68f4      	ldr	r4, [r6, #12]
 80121fa:	4020      	ands	r0, r4
 80121fc:	4301      	orrs	r1, r0
 80121fe:	60f1      	str	r1, [r6, #12]
 8012200:	6b11      	ldr	r1, [r2, #48]	; 0x30
 8012202:	f041 0102 	orr.w	r1, r1, #2
 8012206:	6311      	str	r1, [r2, #48]	; 0x30
 8012208:	6829      	ldr	r1, [r5, #0]
 801220a:	ea01 0a0a 	and.w	sl, r1, sl
 801220e:	f8c5 a000 	str.w	sl, [r5]
 8012212:	68e9      	ldr	r1, [r5, #12]
 8012214:	ea01 0909 	and.w	r9, r1, r9
 8012218:	ea49 0808 	orr.w	r8, r9, r8
 801221c:	f8c5 800c 	str.w	r8, [r5, #12]
 8012220:	6b11      	ldr	r1, [r2, #48]	; 0x30
 8012222:	f041 0104 	orr.w	r1, r1, #4
 8012226:	6311      	str	r1, [r2, #48]	; 0x30
 8012228:	681a      	ldr	r2, [r3, #0]
 801222a:	ea02 0c0c 	and.w	ip, r2, ip
 801222e:	f8c3 c000 	str.w	ip, [r3]
 8012232:	68da      	ldr	r2, [r3, #12]
 8012234:	ea02 0e0e 	and.w	lr, r2, lr
 8012238:	ea4e 0707 	orr.w	r7, lr, r7
 801223c:	60df      	str	r7, [r3, #12]
 801223e:	2000      	movs	r0, #0
 8012240:	e8bd 4ff8 	ldmia.w	sp!, {r3, r4, r5, r6, r7, r8, r9, sl, fp, lr}
 8012244:	f000 be5a 	b.w	8012efc <_ZN9osd_state3setENS_7state_tE>
 8012248:	40023800 	.word	0x40023800
 801224c:	40020800 	.word	0x40020800
 8012250:	08019d34 	.word	0x08019d34
 8012254:	40020000 	.word	0x40020000
 8012258:	40020400 	.word	0x40020400
 801225c:	a2080a8a 	.word	0xa2080a8a
 8012260:	ff000033 	.word	0xff000033
 8012264:	ffaaaabb 	.word	0xffaaaabb
 8012268:	00aaaa88 	.word	0x00aaaa88
 801226c:	0cf3f030 	.word	0x0cf3f030
 8012270:	aefbfaba 	.word	0xaefbfaba

08012274 <_ZN4quan3uav3osd16transform_to_rawERKNS_5two_d4vectIlEE>:
 8012274:	4a0f      	ldr	r2, [pc, #60]	; (80122b4 <_ZN4quan3uav3osd16transform_to_rawERKNS_5two_d4vectIlEE+0x40>)
 8012276:	4b10      	ldr	r3, [pc, #64]	; (80122b8 <_ZN4quan3uav3osd16transform_to_rawERKNS_5two_d4vectIlEE+0x44>)
 8012278:	b570      	push	{r4, r5, r6, lr}
 801227a:	881b      	ldrh	r3, [r3, #0]
 801227c:	8814      	ldrh	r4, [r2, #0]
 801227e:	4605      	mov	r5, r0
 8012280:	1b1c      	subs	r4, r3, r4
 8012282:	460e      	mov	r6, r1
 8012284:	f000 f968 	bl	8012558 <_ZN4quan3uav3osd14get_video_modeEv>
 8012288:	2802      	cmp	r0, #2
 801228a:	bf0c      	ite	eq
 801228c:	4b0b      	ldreq	r3, [pc, #44]	; (80122bc <_ZN4quan3uav3osd16transform_to_rawERKNS_5two_d4vectIlEE+0x48>)
 801228e:	4b0c      	ldrne	r3, [pc, #48]	; (80122c0 <_ZN4quan3uav3osd16transform_to_rawERKNS_5two_d4vectIlEE+0x4c>)
 8012290:	6870      	ldr	r0, [r6, #4]
 8012292:	881a      	ldrh	r2, [r3, #0]
 8012294:	4b0b      	ldr	r3, [pc, #44]	; (80122c4 <_ZN4quan3uav3osd16transform_to_rawERKNS_5two_d4vectIlEE+0x50>)
 8012296:	6831      	ldr	r1, [r6, #0]
 8012298:	881b      	ldrh	r3, [r3, #0]
 801229a:	f3c4 04cc 	ubfx	r4, r4, #3, #13
 801229e:	1ad3      	subs	r3, r2, r3
 80122a0:	00e4      	lsls	r4, r4, #3
 80122a2:	f3c3 038d 	ubfx	r3, r3, #2, #14
 80122a6:	1a1b      	subs	r3, r3, r0
 80122a8:	eb01 0454 	add.w	r4, r1, r4, lsr #1
 80122ac:	606b      	str	r3, [r5, #4]
 80122ae:	602c      	str	r4, [r5, #0]
 80122b0:	4628      	mov	r0, r5
 80122b2:	bd70      	pop	{r4, r5, r6, pc}
 80122b4:	1000001a 	.word	0x1000001a
 80122b8:	1000001c 	.word	0x1000001c
 80122bc:	10000022 	.word	0x10000022
 80122c0:	1000001e 	.word	0x1000001e
 80122c4:	10000028 	.word	0x10000028

080122c8 <_ZN4quan3uav3osd13set_pixel_rawERKNS_5two_d4vectIlEENS1_11colour_typeE>:
 80122c8:	6803      	ldr	r3, [r0, #0]
 80122ca:	2b00      	cmp	r3, #0
 80122cc:	db1e      	blt.n	801230c <_ZN4quan3uav3osd13set_pixel_rawERKNS_5two_d4vectIlEENS1_11colour_typeE+0x44>
 80122ce:	6840      	ldr	r0, [r0, #4]
 80122d0:	2800      	cmp	r0, #0
 80122d2:	db1b      	blt.n	801230c <_ZN4quan3uav3osd13set_pixel_rawERKNS_5two_d4vectIlEENS1_11colour_typeE+0x44>
 80122d4:	b430      	push	{r4, r5}
 80122d6:	4c0e      	ldr	r4, [pc, #56]	; (8012310 <_ZN4quan3uav3osd13set_pixel_rawERKNS_5two_d4vectIlEENS1_11colour_typeE+0x48>)
 80122d8:	6862      	ldr	r2, [r4, #4]
 80122da:	3a01      	subs	r2, #1
 80122dc:	4290      	cmp	r0, r2
 80122de:	d814      	bhi.n	801230a <_ZN4quan3uav3osd13set_pixel_rawERKNS_5two_d4vectIlEENS1_11colour_typeE+0x42>
 80122e0:	6822      	ldr	r2, [r4, #0]
 80122e2:	1e54      	subs	r4, r2, #1
 80122e4:	42a3      	cmp	r3, r4
 80122e6:	d810      	bhi.n	801230a <_ZN4quan3uav3osd13set_pixel_rawERKNS_5two_d4vectIlEENS1_11colour_typeE+0x42>
 80122e8:	4c0a      	ldr	r4, [pc, #40]	; (8012314 <_ZN4quan3uav3osd13set_pixel_rawERKNS_5two_d4vectIlEENS1_11colour_typeE+0x4c>)
 80122ea:	6865      	ldr	r5, [r4, #4]
 80122ec:	6864      	ldr	r4, [r4, #4]
 80122ee:	682d      	ldr	r5, [r5, #0]
 80122f0:	3208      	adds	r2, #8
 80122f2:	f504 5450 	add.w	r4, r4, #13312	; 0x3400
 80122f6:	3301      	adds	r3, #1
 80122f8:	fb00 3302 	mla	r3, r0, r2, r3
 80122fc:	b2c9      	uxtb	r1, r1
 80122fe:	6822      	ldr	r2, [r4, #0]
 8012300:	f845 1023 	str.w	r1, [r5, r3, lsl #2]
 8012304:	1049      	asrs	r1, r1, #1
 8012306:	f842 1023 	str.w	r1, [r2, r3, lsl #2]
 801230a:	bc30      	pop	{r4, r5}
 801230c:	4770      	bx	lr
 801230e:	bf00      	nop
 8012310:	10000e04 	.word	0x10000e04
 8012314:	10000df4 	.word	0x10000df4

08012318 <_ZN4quan3uav3osd13get_pixel_rawEPKNS1_12basic_bitmapERKNS_5two_d4vectIlEE>:
 8012318:	b530      	push	{r4, r5, lr}
 801231a:	6803      	ldr	r3, [r0, #0]
 801231c:	b083      	sub	sp, #12
 801231e:	460d      	mov	r5, r1
 8012320:	681b      	ldr	r3, [r3, #0]
 8012322:	4601      	mov	r1, r0
 8012324:	4604      	mov	r4, r0
 8012326:	4668      	mov	r0, sp
 8012328:	4798      	blx	r3
 801232a:	682b      	ldr	r3, [r5, #0]
 801232c:	9a00      	ldr	r2, [sp, #0]
 801232e:	2b00      	cmp	r3, #0
 8012330:	db01      	blt.n	8012336 <_ZN4quan3uav3osd13get_pixel_rawEPKNS1_12basic_bitmapERKNS_5two_d4vectIlEE+0x1e>
 8012332:	429a      	cmp	r2, r3
 8012334:	dc02      	bgt.n	801233c <_ZN4quan3uav3osd13get_pixel_rawEPKNS1_12basic_bitmapERKNS_5two_d4vectIlEE+0x24>
 8012336:	2003      	movs	r0, #3
 8012338:	b003      	add	sp, #12
 801233a:	bd30      	pop	{r4, r5, pc}
 801233c:	6869      	ldr	r1, [r5, #4]
 801233e:	2900      	cmp	r1, #0
 8012340:	dbf9      	blt.n	8012336 <_ZN4quan3uav3osd13get_pixel_rawEPKNS1_12basic_bitmapERKNS_5two_d4vectIlEE+0x1e>
 8012342:	9801      	ldr	r0, [sp, #4]
 8012344:	4281      	cmp	r1, r0
 8012346:	daf6      	bge.n	8012336 <_ZN4quan3uav3osd13get_pixel_rawEPKNS1_12basic_bitmapERKNS_5two_d4vectIlEE+0x1e>
 8012348:	6820      	ldr	r0, [r4, #0]
 801234a:	fb01 3302 	mla	r3, r1, r2, r3
 801234e:	6842      	ldr	r2, [r0, #4]
 8012350:	4620      	mov	r0, r4
 8012352:	005c      	lsls	r4, r3, #1
 8012354:	4790      	blx	r2
 8012356:	08e3      	lsrs	r3, r4, #3
 8012358:	f004 0407 	and.w	r4, r4, #7
 801235c:	5cc0      	ldrb	r0, [r0, r3]
 801235e:	4120      	asrs	r0, r4
 8012360:	f000 0003 	and.w	r0, r0, #3
 8012364:	e7e8      	b.n	8012338 <_ZN4quan3uav3osd13get_pixel_rawEPKNS1_12basic_bitmapERKNS_5two_d4vectIlEE+0x20>
 8012366:	bf00      	nop

08012368 <_ZN4quan3uav3osd8get_sizeEPKNS1_10basic_fontE>:
 8012368:	680b      	ldr	r3, [r1, #0]
 801236a:	b570      	push	{r4, r5, r6, lr}
 801236c:	689b      	ldr	r3, [r3, #8]
 801236e:	460c      	mov	r4, r1
 8012370:	4605      	mov	r5, r0
 8012372:	4608      	mov	r0, r1
 8012374:	4798      	blx	r3
 8012376:	6823      	ldr	r3, [r4, #0]
 8012378:	4606      	mov	r6, r0
 801237a:	685b      	ldr	r3, [r3, #4]
 801237c:	4620      	mov	r0, r4
 801237e:	4798      	blx	r3
 8012380:	602e      	str	r6, [r5, #0]
 8012382:	6068      	str	r0, [r5, #4]
 8012384:	4628      	mov	r0, r5
 8012386:	bd70      	pop	{r4, r5, r6, pc}

08012388 <_ZN4quan3uav3osd8get_charEPKNS1_10basic_fontEl>:
 8012388:	6803      	ldr	r3, [r0, #0]
 801238a:	691b      	ldr	r3, [r3, #16]
 801238c:	4718      	bx	r3
 801238e:	bf00      	nop

08012390 <_ZN4quan3uav3osd8get_sizeEPKNS1_12basic_bitmapE>:
 8012390:	b510      	push	{r4, lr}
 8012392:	680b      	ldr	r3, [r1, #0]
 8012394:	4604      	mov	r4, r0
 8012396:	681b      	ldr	r3, [r3, #0]
 8012398:	4798      	blx	r3
 801239a:	4620      	mov	r0, r4
 801239c:	bd10      	pop	{r4, pc}
 801239e:	bf00      	nop

080123a0 <_ZN12_GLOBAL__N_19draw_taskEPv>:
 80123a0:	b5f0      	push	{r4, r5, r6, r7, lr}
 80123a2:	2064      	movs	r0, #100	; 0x64
 80123a4:	b083      	sub	sp, #12
 80123a6:	f7fe f939 	bl	801061c <vTaskDelay>
 80123aa:	4c12      	ldr	r4, [pc, #72]	; (80123f4 <_ZN12_GLOBAL__N_19draw_taskEPv+0x54>)
 80123ac:	4e12      	ldr	r6, [pc, #72]	; (80123f8 <_ZN12_GLOBAL__N_19draw_taskEPv+0x58>)
 80123ae:	4d13      	ldr	r5, [pc, #76]	; (80123fc <_ZN12_GLOBAL__N_19draw_taskEPv+0x5c>)
 80123b0:	4f13      	ldr	r7, [pc, #76]	; (8012400 <_ZN12_GLOBAL__N_19draw_taskEPv+0x60>)
 80123b2:	7823      	ldrb	r3, [r4, #0]
 80123b4:	2b02      	cmp	r3, #2
 80123b6:	d001      	beq.n	80123bc <_ZN12_GLOBAL__N_19draw_taskEPv+0x1c>
 80123b8:	f7f9 fec6 	bl	800c148 <_ZN4quan3uav3osd7on_drawEv>
 80123bc:	7823      	ldrb	r3, [r4, #0]
 80123be:	2b01      	cmp	r3, #1
 80123c0:	d00f      	beq.n	80123e2 <_ZN12_GLOBAL__N_19draw_taskEPv+0x42>
 80123c2:	7823      	ldrb	r3, [r4, #0]
 80123c4:	2b00      	cmp	r3, #0
 80123c6:	d1f4      	bne.n	80123b2 <_ZN12_GLOBAL__N_19draw_taskEPv+0x12>
 80123c8:	782b      	ldrb	r3, [r5, #0]
 80123ca:	9701      	str	r7, [sp, #4]
 80123cc:	2b00      	cmp	r3, #0
 80123ce:	d0f0      	beq.n	80123b2 <_ZN12_GLOBAL__N_19draw_taskEPv+0x12>
 80123d0:	a801      	add	r0, sp, #4
 80123d2:	f000 fea1 	bl	8013118 <_ZN6detail16swap_osd_buffersERKN4quan14fixed_quantityINS0_4meta4unitINS2_17abstract_quantityINS2_9dimensionINS2_8rationalILx0ELx1EEENS6_ILx1ELx1EEES7_S7_S7_S7_S7_EENS2_10components7of_timeEEENS2_17conversion_factorINS6_ILxn3ELx1EEES8_NS2_5int32ILl0EEEEEEEfEE>
 80123d6:	2800      	cmp	r0, #0
 80123d8:	d1eb      	bne.n	80123b2 <_ZN12_GLOBAL__N_19draw_taskEPv+0x12>
 80123da:	2001      	movs	r0, #1
 80123dc:	f000 fd8e 	bl	8012efc <_ZN9osd_state3setENS_7state_tE>
 80123e0:	e7e7      	b.n	80123b2 <_ZN12_GLOBAL__N_19draw_taskEPv+0x12>
 80123e2:	7833      	ldrb	r3, [r6, #0]
 80123e4:	2000      	movs	r0, #0
 80123e6:	b113      	cbz	r3, 80123ee <_ZN12_GLOBAL__N_19draw_taskEPv+0x4e>
 80123e8:	f000 fd88 	bl	8012efc <_ZN9osd_state3setENS_7state_tE>
 80123ec:	e7e9      	b.n	80123c2 <_ZN12_GLOBAL__N_19draw_taskEPv+0x22>
 80123ee:	f000 fedd 	bl	80131ac <_ZN6detail16swap_osd_buffersEv>
 80123f2:	e7de      	b.n	80123b2 <_ZN12_GLOBAL__N_19draw_taskEPv+0x12>
 80123f4:	10000014 	.word	0x10000014
 80123f8:	10000df3 	.word	0x10000df3
 80123fc:	1000000c 	.word	0x1000000c
 8012400:	447a0000 	.word	0x447a0000

08012404 <_Z16create_draw_taskv>:
 8012404:	b500      	push	{lr}
 8012406:	b085      	sub	sp, #20
 8012408:	f000 fe60 	bl	80130cc <_ZN6detail26create_osd_swap_semaphoresEv>
 801240c:	2302      	movs	r3, #2
 801240e:	9300      	str	r3, [sp, #0]
 8012410:	4a07      	ldr	r2, [pc, #28]	; (8012430 <_Z16create_draw_taskv+0x2c>)
 8012412:	9201      	str	r2, [sp, #4]
 8012414:	2300      	movs	r3, #0
 8012416:	9302      	str	r3, [sp, #8]
 8012418:	9303      	str	r3, [sp, #12]
 801241a:	4906      	ldr	r1, [pc, #24]	; (8012434 <_Z16create_draw_taskv+0x30>)
 801241c:	4b06      	ldr	r3, [pc, #24]	; (8012438 <_Z16create_draw_taskv+0x34>)
 801241e:	4807      	ldr	r0, [pc, #28]	; (801243c <_Z16create_draw_taskv+0x38>)
 8012420:	f241 3288 	movw	r2, #5000	; 0x1388
 8012424:	f7fd ff5a 	bl	80102dc <xTaskGenericCreate>
 8012428:	b005      	add	sp, #20
 801242a:	f85d fb04 	ldr.w	pc, [sp], #4
 801242e:	bf00      	nop
 8012430:	10000db8 	.word	0x10000db8
 8012434:	08019d34 	.word	0x08019d34
 8012438:	10000db4 	.word	0x10000db4
 801243c:	080123a1 	.word	0x080123a1

08012440 <_ZN12_GLOBAL__N_118sync_sep_new_frameEv>:
 8012440:	4a32      	ldr	r2, [pc, #200]	; (801250c <_ZN12_GLOBAL__N_118sync_sep_new_frameEv+0xcc>)
 8012442:	7813      	ldrb	r3, [r2, #0]
 8012444:	b5f0      	push	{r4, r5, r6, r7, lr}
 8012446:	f003 01ff 	and.w	r1, r3, #255	; 0xff
 801244a:	b193      	cbz	r3, 8012472 <_ZN12_GLOBAL__N_118sync_sep_new_frameEv+0x32>
 801244c:	4f30      	ldr	r7, [pc, #192]	; (8012510 <_ZN12_GLOBAL__N_118sync_sep_new_frameEv+0xd0>)
 801244e:	4e31      	ldr	r6, [pc, #196]	; (8012514 <_ZN12_GLOBAL__N_118sync_sep_new_frameEv+0xd4>)
 8012450:	4d31      	ldr	r5, [pc, #196]	; (8012518 <_ZN12_GLOBAL__N_118sync_sep_new_frameEv+0xd8>)
 8012452:	4c32      	ldr	r4, [pc, #200]	; (801251c <_ZN12_GLOBAL__N_118sync_sep_new_frameEv+0xdc>)
 8012454:	4832      	ldr	r0, [pc, #200]	; (8012520 <_ZN12_GLOBAL__N_118sync_sep_new_frameEv+0xe0>)
 8012456:	4a33      	ldr	r2, [pc, #204]	; (8012524 <_ZN12_GLOBAL__N_118sync_sep_new_frameEv+0xe4>)
 8012458:	2300      	movs	r3, #0
 801245a:	f04f 0e01 	mov.w	lr, #1
 801245e:	f04f 31ff 	mov.w	r1, #4294967295
 8012462:	f887 e000 	strb.w	lr, [r7]
 8012466:	7033      	strb	r3, [r6, #0]
 8012468:	602b      	str	r3, [r5, #0]
 801246a:	6023      	str	r3, [r4, #0]
 801246c:	6003      	str	r3, [r0, #0]
 801246e:	6011      	str	r1, [r2, #0]
 8012470:	bdf0      	pop	{r4, r5, r6, r7, pc}
 8012472:	4b2d      	ldr	r3, [pc, #180]	; (8012528 <_ZN12_GLOBAL__N_118sync_sep_new_frameEv+0xe8>)
 8012474:	482d      	ldr	r0, [pc, #180]	; (801252c <_ZN12_GLOBAL__N_118sync_sep_new_frameEv+0xec>)
 8012476:	6019      	str	r1, [r3, #0]
 8012478:	68c3      	ldr	r3, [r0, #12]
 801247a:	4c2d      	ldr	r4, [pc, #180]	; (8012530 <_ZN12_GLOBAL__N_118sync_sep_new_frameEv+0xf0>)
 801247c:	492d      	ldr	r1, [pc, #180]	; (8012534 <_ZN12_GLOBAL__N_118sync_sep_new_frameEv+0xf4>)
 801247e:	4e2e      	ldr	r6, [pc, #184]	; (8012538 <_ZN12_GLOBAL__N_118sync_sep_new_frameEv+0xf8>)
 8012480:	4d2e      	ldr	r5, [pc, #184]	; (801253c <_ZN12_GLOBAL__N_118sync_sep_new_frameEv+0xfc>)
 8012482:	f023 0306 	bic.w	r3, r3, #6
 8012486:	60c3      	str	r3, [r0, #12]
 8012488:	8823      	ldrh	r3, [r4, #0]
 801248a:	880c      	ldrh	r4, [r1, #0]
 801248c:	7811      	ldrb	r1, [r2, #0]
 801248e:	6830      	ldr	r0, [r6, #0]
 8012490:	6028      	str	r0, [r5, #0]
 8012492:	1b1b      	subs	r3, r3, r4
 8012494:	f3c3 03cc 	ubfx	r3, r3, #3, #13
 8012498:	00db      	lsls	r3, r3, #3
 801249a:	b9c9      	cbnz	r1, 80124d0 <_ZN12_GLOBAL__N_118sync_sep_new_frameEv+0x90>
 801249c:	2802      	cmp	r0, #2
 801249e:	d029      	beq.n	80124f4 <_ZN12_GLOBAL__N_118sync_sep_new_frameEv+0xb4>
 80124a0:	4927      	ldr	r1, [pc, #156]	; (8012540 <_ZN12_GLOBAL__N_118sync_sep_new_frameEv+0x100>)
 80124a2:	4828      	ldr	r0, [pc, #160]	; (8012544 <_ZN12_GLOBAL__N_118sync_sep_new_frameEv+0x104>)
 80124a4:	8809      	ldrh	r1, [r1, #0]
 80124a6:	8800      	ldrh	r0, [r0, #0]
 80124a8:	4c27      	ldr	r4, [pc, #156]	; (8012548 <_ZN12_GLOBAL__N_118sync_sep_new_frameEv+0x108>)
 80124aa:	7815      	ldrb	r5, [r2, #0]
 80124ac:	6023      	str	r3, [r4, #0]
 80124ae:	1a0a      	subs	r2, r1, r0
 80124b0:	f3c2 024e 	ubfx	r2, r2, #1, #15
 80124b4:	6062      	str	r2, [r4, #4]
 80124b6:	b10d      	cbz	r5, 80124bc <_ZN12_GLOBAL__N_118sync_sep_new_frameEv+0x7c>
 80124b8:	4b24      	ldr	r3, [pc, #144]	; (801254c <_ZN12_GLOBAL__N_118sync_sep_new_frameEv+0x10c>)
 80124ba:	8819      	ldrh	r1, [r3, #0]
 80124bc:	4b24      	ldr	r3, [pc, #144]	; (8012550 <_ZN12_GLOBAL__N_118sync_sep_new_frameEv+0x110>)
 80124be:	4a25      	ldr	r2, [pc, #148]	; (8012554 <_ZN12_GLOBAL__N_118sync_sep_new_frameEv+0x114>)
 80124c0:	0849      	lsrs	r1, r1, #1
 80124c2:	3902      	subs	r1, #2
 80124c4:	2400      	movs	r4, #0
 80124c6:	2001      	movs	r0, #1
 80124c8:	62d9      	str	r1, [r3, #44]	; 0x2c
 80124ca:	625c      	str	r4, [r3, #36]	; 0x24
 80124cc:	6010      	str	r0, [r2, #0]
 80124ce:	bdf0      	pop	{r4, r5, r6, r7, pc}
 80124d0:	491e      	ldr	r1, [pc, #120]	; (801254c <_ZN12_GLOBAL__N_118sync_sep_new_frameEv+0x10c>)
 80124d2:	4c1c      	ldr	r4, [pc, #112]	; (8012544 <_ZN12_GLOBAL__N_118sync_sep_new_frameEv+0x104>)
 80124d4:	8809      	ldrh	r1, [r1, #0]
 80124d6:	8824      	ldrh	r4, [r4, #0]
 80124d8:	4d1b      	ldr	r5, [pc, #108]	; (8012548 <_ZN12_GLOBAL__N_118sync_sep_new_frameEv+0x108>)
 80124da:	7816      	ldrb	r6, [r2, #0]
 80124dc:	602b      	str	r3, [r5, #0]
 80124de:	1b0a      	subs	r2, r1, r4
 80124e0:	f3c2 024e 	ubfx	r2, r2, #1, #15
 80124e4:	606a      	str	r2, [r5, #4]
 80124e6:	2e00      	cmp	r6, #0
 80124e8:	d1e8      	bne.n	80124bc <_ZN12_GLOBAL__N_118sync_sep_new_frameEv+0x7c>
 80124ea:	2802      	cmp	r0, #2
 80124ec:	bf1c      	itt	ne
 80124ee:	4b14      	ldrne	r3, [pc, #80]	; (8012540 <_ZN12_GLOBAL__N_118sync_sep_new_frameEv+0x100>)
 80124f0:	8819      	ldrhne	r1, [r3, #0]
 80124f2:	e7e3      	b.n	80124bc <_ZN12_GLOBAL__N_118sync_sep_new_frameEv+0x7c>
 80124f4:	4915      	ldr	r1, [pc, #84]	; (801254c <_ZN12_GLOBAL__N_118sync_sep_new_frameEv+0x10c>)
 80124f6:	4813      	ldr	r0, [pc, #76]	; (8012544 <_ZN12_GLOBAL__N_118sync_sep_new_frameEv+0x104>)
 80124f8:	4c13      	ldr	r4, [pc, #76]	; (8012548 <_ZN12_GLOBAL__N_118sync_sep_new_frameEv+0x108>)
 80124fa:	8809      	ldrh	r1, [r1, #0]
 80124fc:	8800      	ldrh	r0, [r0, #0]
 80124fe:	6023      	str	r3, [r4, #0]
 8012500:	1a0b      	subs	r3, r1, r0
 8012502:	f3c3 034e 	ubfx	r3, r3, #1, #15
 8012506:	7812      	ldrb	r2, [r2, #0]
 8012508:	6063      	str	r3, [r4, #4]
 801250a:	e7d7      	b.n	80124bc <_ZN12_GLOBAL__N_118sync_sep_new_frameEv+0x7c>
 801250c:	10000014 	.word	0x10000014
 8012510:	10000df3 	.word	0x10000df3
 8012514:	10000dd0 	.word	0x10000dd0
 8012518:	10000dc4 	.word	0x10000dc4
 801251c:	10000dd4 	.word	0x10000dd4
 8012520:	10000dc8 	.word	0x10000dc8
 8012524:	10000010 	.word	0x10000010
 8012528:	42030000 	.word	0x42030000
 801252c:	40001800 	.word	0x40001800
 8012530:	1000001c 	.word	0x1000001c
 8012534:	1000001a 	.word	0x1000001a
 8012538:	10000dc0 	.word	0x10000dc0
 801253c:	10000dcc 	.word	0x10000dcc
 8012540:	1000001e 	.word	0x1000001e
 8012544:	10000028 	.word	0x10000028
 8012548:	10000e04 	.word	0x10000e04
 801254c:	10000022 	.word	0x10000022
 8012550:	40000400 	.word	0x40000400
 8012554:	42008000 	.word	0x42008000

08012558 <_ZN4quan3uav3osd14get_video_modeEv>:
 8012558:	4b03      	ldr	r3, [pc, #12]	; (8012568 <_ZN4quan3uav3osd14get_video_modeEv+0x10>)
 801255a:	781b      	ldrb	r3, [r3, #0]
 801255c:	b10b      	cbz	r3, 8012562 <_ZN4quan3uav3osd14get_video_modeEv+0xa>
 801255e:	2002      	movs	r0, #2
 8012560:	4770      	bx	lr
 8012562:	4b02      	ldr	r3, [pc, #8]	; (801256c <_ZN4quan3uav3osd14get_video_modeEv+0x14>)
 8012564:	6818      	ldr	r0, [r3, #0]
 8012566:	4770      	bx	lr
 8012568:	10000014 	.word	0x10000014
 801256c:	10000dcc 	.word	0x10000dcc

08012570 <_ZN6detail15sync_sep_enableEv>:
 8012570:	b5f0      	push	{r4, r5, r6, r7, lr}
 8012572:	4a0c      	ldr	r2, [pc, #48]	; (80125a4 <_ZN6detail15sync_sep_enableEv+0x34>)
 8012574:	480c      	ldr	r0, [pc, #48]	; (80125a8 <_ZN6detail15sync_sep_enableEv+0x38>)
 8012576:	f8df e044 	ldr.w	lr, [pc, #68]	; 80125bc <_ZN6detail15sync_sep_enableEv+0x4c>
 801257a:	4f0c      	ldr	r7, [pc, #48]	; (80125ac <_ZN6detail15sync_sep_enableEv+0x3c>)
 801257c:	4e0c      	ldr	r6, [pc, #48]	; (80125b0 <_ZN6detail15sync_sep_enableEv+0x40>)
 801257e:	4d0d      	ldr	r5, [pc, #52]	; (80125b4 <_ZN6detail15sync_sep_enableEv+0x44>)
 8012580:	490d      	ldr	r1, [pc, #52]	; (80125b8 <_ZN6detail15sync_sep_enableEv+0x48>)
 8012582:	2300      	movs	r3, #0
 8012584:	f04f 34ff 	mov.w	r4, #4294967295
 8012588:	6004      	str	r4, [r0, #0]
 801258a:	f88e 3000 	strb.w	r3, [lr]
 801258e:	603b      	str	r3, [r7, #0]
 8012590:	6033      	str	r3, [r6, #0]
 8012592:	602b      	str	r3, [r5, #0]
 8012594:	6113      	str	r3, [r2, #16]
 8012596:	68d3      	ldr	r3, [r2, #12]
 8012598:	2001      	movs	r0, #1
 801259a:	f043 0306 	orr.w	r3, r3, #6
 801259e:	60d3      	str	r3, [r2, #12]
 80125a0:	6008      	str	r0, [r1, #0]
 80125a2:	bdf0      	pop	{r4, r5, r6, r7, pc}
 80125a4:	40001800 	.word	0x40001800
 80125a8:	10000010 	.word	0x10000010
 80125ac:	10000dc4 	.word	0x10000dc4
 80125b0:	10000dd4 	.word	0x10000dd4
 80125b4:	10000dc8 	.word	0x10000dc8
 80125b8:	42030000 	.word	0x42030000
 80125bc:	10000dd0 	.word	0x10000dd0

080125c0 <_ZN6detail17sync_sep_takedownEv>:
 80125c0:	480b      	ldr	r0, [pc, #44]	; (80125f0 <_ZN6detail17sync_sep_takedownEv+0x30>)
 80125c2:	4a0c      	ldr	r2, [pc, #48]	; (80125f4 <_ZN6detail17sync_sep_takedownEv+0x34>)
 80125c4:	4b0c      	ldr	r3, [pc, #48]	; (80125f8 <_ZN6detail17sync_sep_takedownEv+0x38>)
 80125c6:	b410      	push	{r4}
 80125c8:	f44f 6400 	mov.w	r4, #2048	; 0x800
 80125cc:	f8c0 4084 	str.w	r4, [r0, #132]	; 0x84
 80125d0:	2100      	movs	r1, #0
 80125d2:	6019      	str	r1, [r3, #0]
 80125d4:	6813      	ldr	r3, [r2, #0]
 80125d6:	f85d 4b04 	ldr.w	r4, [sp], #4
 80125da:	f023 5340 	bic.w	r3, r3, #805306368	; 0x30000000
 80125de:	6013      	str	r3, [r2, #0]
 80125e0:	68d3      	ldr	r3, [r2, #12]
 80125e2:	f023 5340 	bic.w	r3, r3, #805306368	; 0x30000000
 80125e6:	f043 5380 	orr.w	r3, r3, #268435456	; 0x10000000
 80125ea:	60d3      	str	r3, [r2, #12]
 80125ec:	4770      	bx	lr
 80125ee:	bf00      	nop
 80125f0:	e000e100 	.word	0xe000e100
 80125f4:	40020400 	.word	0x40020400
 80125f8:	10000dc0 	.word	0x10000dc0

080125fc <_ZN6detail14sync_sep_setupEv>:
 80125fc:	4b2c      	ldr	r3, [pc, #176]	; (80126b0 <_ZN6detail14sync_sep_setupEv+0xb4>)
 80125fe:	4a2d      	ldr	r2, [pc, #180]	; (80126b4 <_ZN6detail14sync_sep_setupEv+0xb8>)
 8012600:	6b19      	ldr	r1, [r3, #48]	; 0x30
 8012602:	482d      	ldr	r0, [pc, #180]	; (80126b8 <_ZN6detail14sync_sep_setupEv+0xbc>)
 8012604:	f041 0102 	orr.w	r1, r1, #2
 8012608:	b470      	push	{r4, r5, r6}
 801260a:	6319      	str	r1, [r3, #48]	; 0x30
 801260c:	6b19      	ldr	r1, [r3, #48]	; 0x30
 801260e:	4c2b      	ldr	r4, [pc, #172]	; (80126bc <_ZN6detail14sync_sep_setupEv+0xc0>)
 8012610:	f041 0102 	orr.w	r1, r1, #2
 8012614:	6319      	str	r1, [r3, #48]	; 0x30
 8012616:	6811      	ldr	r1, [r2, #0]
 8012618:	f021 5140 	bic.w	r1, r1, #805306368	; 0x30000000
 801261c:	f041 5100 	orr.w	r1, r1, #536870912	; 0x20000000
 8012620:	6011      	str	r1, [r2, #0]
 8012622:	68d1      	ldr	r1, [r2, #12]
 8012624:	f021 5140 	bic.w	r1, r1, #805306368	; 0x30000000
 8012628:	f041 5180 	orr.w	r1, r1, #268435456	; 0x10000000
 801262c:	60d1      	str	r1, [r2, #12]
 801262e:	6a51      	ldr	r1, [r2, #36]	; 0x24
 8012630:	f021 6170 	bic.w	r1, r1, #251658240	; 0xf000000
 8012634:	f041 6110 	orr.w	r1, r1, #150994944	; 0x9000000
 8012638:	6251      	str	r1, [r2, #36]	; 0x24
 801263a:	6811      	ldr	r1, [r2, #0]
 801263c:	f021 4140 	bic.w	r1, r1, #3221225472	; 0xc0000000
 8012640:	6011      	str	r1, [r2, #0]
 8012642:	68d1      	ldr	r1, [r2, #12]
 8012644:	f021 4140 	bic.w	r1, r1, #3221225472	; 0xc0000000
 8012648:	60d1      	str	r1, [r2, #12]
 801264a:	6c1a      	ldr	r2, [r3, #64]	; 0x40
 801264c:	f042 0240 	orr.w	r2, r2, #64	; 0x40
 8012650:	641a      	str	r2, [r3, #64]	; 0x40
 8012652:	6a1a      	ldr	r2, [r3, #32]
 8012654:	f042 0240 	orr.w	r2, r2, #64	; 0x40
 8012658:	621a      	str	r2, [r3, #32]
 801265a:	2501      	movs	r5, #1
 801265c:	f04f 0200 	mov.w	r2, #0
 8012660:	6a19      	ldr	r1, [r3, #32]
 8012662:	f365 0201 	bfi	r2, r5, #0, #2
 8012666:	2502      	movs	r5, #2
 8012668:	f365 2209 	bfi	r2, r5, #8, #2
 801266c:	b292      	uxth	r2, r2
 801266e:	f021 0140 	bic.w	r1, r1, #64	; 0x40
 8012672:	f64f 76ff 	movw	r6, #65535	; 0xffff
 8012676:	2513      	movs	r5, #19
 8012678:	6219      	str	r1, [r3, #32]
 801267a:	62c6      	str	r6, [r0, #44]	; 0x2c
 801267c:	6182      	str	r2, [r0, #24]
 801267e:	6205      	str	r5, [r0, #32]
 8012680:	7823      	ldrb	r3, [r4, #0]
 8012682:	f003 02ff 	and.w	r2, r3, #255	; 0xff
 8012686:	b153      	cbz	r3, 801269e <_ZN6detail14sync_sep_setupEv+0xa2>
 8012688:	2a01      	cmp	r2, #1
 801268a:	d106      	bne.n	801269a <_ZN6detail14sync_sep_setupEv+0x9e>
 801268c:	4b0c      	ldr	r3, [pc, #48]	; (80126c0 <_ZN6detail14sync_sep_setupEv+0xc4>)
 801268e:	21c0      	movs	r1, #192	; 0xc0
 8012690:	f44f 6200 	mov.w	r2, #2048	; 0x800
 8012694:	f883 132b 	strb.w	r1, [r3, #811]	; 0x32b
 8012698:	605a      	str	r2, [r3, #4]
 801269a:	bc70      	pop	{r4, r5, r6}
 801269c:	4770      	bx	lr
 801269e:	4b08      	ldr	r3, [pc, #32]	; (80126c0 <_ZN6detail14sync_sep_setupEv+0xc4>)
 80126a0:	21b0      	movs	r1, #176	; 0xb0
 80126a2:	f883 132b 	strb.w	r1, [r3, #811]	; 0x32b
 80126a6:	f44f 6200 	mov.w	r2, #2048	; 0x800
 80126aa:	605a      	str	r2, [r3, #4]
 80126ac:	bc70      	pop	{r4, r5, r6}
 80126ae:	4770      	bx	lr
 80126b0:	40023800 	.word	0x40023800
 80126b4:	40020400 	.word	0x40020400
 80126b8:	40001800 	.word	0x40001800
 80126bc:	10000014 	.word	0x10000014
 80126c0:	e000e100 	.word	0xe000e100

080126c4 <TIM8_BRK_TIM12_IRQHandler>:
 80126c4:	4a8f      	ldr	r2, [pc, #572]	; (8012904 <TIM8_BRK_TIM12_IRQHandler+0x240>)
 80126c6:	6913      	ldr	r3, [r2, #16]
 80126c8:	4668      	mov	r0, sp
 80126ca:	f020 0107 	bic.w	r1, r0, #7
 80126ce:	b29b      	uxth	r3, r3
 80126d0:	468d      	mov	sp, r1
 80126d2:	0799      	lsls	r1, r3, #30
 80126d4:	b5f1      	push	{r0, r4, r5, r6, r7, lr}
 80126d6:	d426      	bmi.n	8012726 <TIM8_BRK_TIM12_IRQHandler+0x62>
 80126d8:	075b      	lsls	r3, r3, #29
 80126da:	d403      	bmi.n	80126e4 <TIM8_BRK_TIM12_IRQHandler+0x20>
 80126dc:	e8bd 40f1 	ldmia.w	sp!, {r0, r4, r5, r6, r7, lr}
 80126e0:	4685      	mov	sp, r0
 80126e2:	4770      	bx	lr
 80126e4:	4988      	ldr	r1, [pc, #544]	; (8012908 <TIM8_BRK_TIM12_IRQHandler+0x244>)
 80126e6:	4889      	ldr	r0, [pc, #548]	; (801290c <TIM8_BRK_TIM12_IRQHandler+0x248>)
 80126e8:	780b      	ldrb	r3, [r1, #0]
 80126ea:	2200      	movs	r2, #0
 80126ec:	6002      	str	r2, [r0, #0]
 80126ee:	2b00      	cmp	r3, #0
 80126f0:	d0f4      	beq.n	80126dc <TIM8_BRK_TIM12_IRQHandler+0x18>
 80126f2:	4b84      	ldr	r3, [pc, #528]	; (8012904 <TIM8_BRK_TIM12_IRQHandler+0x240>)
 80126f4:	4886      	ldr	r0, [pc, #536]	; (8012910 <TIM8_BRK_TIM12_IRQHandler+0x24c>)
 80126f6:	6b9b      	ldr	r3, [r3, #56]	; 0x38
 80126f8:	8800      	ldrh	r0, [r0, #0]
 80126fa:	1a1b      	subs	r3, r3, r0
 80126fc:	b29b      	uxth	r3, r3
 80126fe:	2bda      	cmp	r3, #218	; 0xda
 8012700:	d839      	bhi.n	8012776 <TIM8_BRK_TIM12_IRQHandler+0xb2>
 8012702:	2baf      	cmp	r3, #175	; 0xaf
 8012704:	d85a      	bhi.n	80127bc <TIM8_BRK_TIM12_IRQHandler+0xf8>
 8012706:	4883      	ldr	r0, [pc, #524]	; (8012914 <TIM8_BRK_TIM12_IRQHandler+0x250>)
 8012708:	4c83      	ldr	r4, [pc, #524]	; (8012918 <TIM8_BRK_TIM12_IRQHandler+0x254>)
 801270a:	4a84      	ldr	r2, [pc, #528]	; (801291c <TIM8_BRK_TIM12_IRQHandler+0x258>)
 801270c:	4e84      	ldr	r6, [pc, #528]	; (8012920 <TIM8_BRK_TIM12_IRQHandler+0x25c>)
 801270e:	2300      	movs	r3, #0
 8012710:	f04f 35ff 	mov.w	r5, #4294967295
 8012714:	6033      	str	r3, [r6, #0]
 8012716:	6003      	str	r3, [r0, #0]
 8012718:	6023      	str	r3, [r4, #0]
 801271a:	6015      	str	r5, [r2, #0]
 801271c:	e8bd 40f1 	ldmia.w	sp!, {r0, r4, r5, r6, r7, lr}
 8012720:	700b      	strb	r3, [r1, #0]
 8012722:	4685      	mov	sp, r0
 8012724:	4770      	bx	lr
 8012726:	4978      	ldr	r1, [pc, #480]	; (8012908 <TIM8_BRK_TIM12_IRQHandler+0x244>)
 8012728:	4c7e      	ldr	r4, [pc, #504]	; (8012924 <TIM8_BRK_TIM12_IRQHandler+0x260>)
 801272a:	7808      	ldrb	r0, [r1, #0]
 801272c:	2500      	movs	r5, #0
 801272e:	6025      	str	r5, [r4, #0]
 8012730:	b928      	cbnz	r0, 801273e <TIM8_BRK_TIM12_IRQHandler+0x7a>
 8012732:	4877      	ldr	r0, [pc, #476]	; (8012910 <TIM8_BRK_TIM12_IRQHandler+0x24c>)
 8012734:	6b52      	ldr	r2, [r2, #52]	; 0x34
 8012736:	8002      	strh	r2, [r0, #0]
 8012738:	2201      	movs	r2, #1
 801273a:	700a      	strb	r2, [r1, #0]
 801273c:	e7cc      	b.n	80126d8 <TIM8_BRK_TIM12_IRQHandler+0x14>
 801273e:	4c74      	ldr	r4, [pc, #464]	; (8012910 <TIM8_BRK_TIM12_IRQHandler+0x24c>)
 8012740:	6b50      	ldr	r0, [r2, #52]	; 0x34
 8012742:	8822      	ldrh	r2, [r4, #0]
 8012744:	b280      	uxth	r0, r0
 8012746:	1a82      	subs	r2, r0, r2
 8012748:	b292      	uxth	r2, r2
 801274a:	f640 2595 	movw	r5, #2709	; 0xa95
 801274e:	42aa      	cmp	r2, r5
 8012750:	8020      	strh	r0, [r4, #0]
 8012752:	d81b      	bhi.n	801278c <TIM8_BRK_TIM12_IRQHandler+0xc8>
 8012754:	f640 206a 	movw	r0, #2666	; 0xa6a
 8012758:	4282      	cmp	r2, r0
 801275a:	d847      	bhi.n	80127ec <TIM8_BRK_TIM12_IRQHandler+0x128>
 801275c:	4e70      	ldr	r6, [pc, #448]	; (8012920 <TIM8_BRK_TIM12_IRQHandler+0x25c>)
 801275e:	486d      	ldr	r0, [pc, #436]	; (8012914 <TIM8_BRK_TIM12_IRQHandler+0x250>)
 8012760:	4c6d      	ldr	r4, [pc, #436]	; (8012918 <TIM8_BRK_TIM12_IRQHandler+0x254>)
 8012762:	4a6e      	ldr	r2, [pc, #440]	; (801291c <TIM8_BRK_TIM12_IRQHandler+0x258>)
 8012764:	2500      	movs	r5, #0
 8012766:	f04f 37ff 	mov.w	r7, #4294967295
 801276a:	700d      	strb	r5, [r1, #0]
 801276c:	6005      	str	r5, [r0, #0]
 801276e:	6025      	str	r5, [r4, #0]
 8012770:	6035      	str	r5, [r6, #0]
 8012772:	6017      	str	r7, [r2, #0]
 8012774:	e7b0      	b.n	80126d8 <TIM8_BRK_TIM12_IRQHandler+0x14>
 8012776:	f640 00ca 	movw	r0, #2250	; 0x8ca
 801277a:	4283      	cmp	r3, r0
 801277c:	d916      	bls.n	80127ac <TIM8_BRK_TIM12_IRQHandler+0xe8>
 801277e:	f5b3 6f12 	cmp.w	r3, #2336	; 0x920
 8012782:	d2c0      	bcs.n	8012706 <TIM8_BRK_TIM12_IRQHandler+0x42>
 8012784:	4b64      	ldr	r3, [pc, #400]	; (8012918 <TIM8_BRK_TIM12_IRQHandler+0x254>)
 8012786:	2204      	movs	r2, #4
 8012788:	601a      	str	r2, [r3, #0]
 801278a:	e7a7      	b.n	80126dc <TIM8_BRK_TIM12_IRQHandler+0x18>
 801278c:	f5a2 52a6 	sub.w	r2, r2, #5312	; 0x14c0
 8012790:	3a16      	subs	r2, #22
 8012792:	2a54      	cmp	r2, #84	; 0x54
 8012794:	d8e2      	bhi.n	801275c <TIM8_BRK_TIM12_IRQHandler+0x98>
 8012796:	485f      	ldr	r0, [pc, #380]	; (8012914 <TIM8_BRK_TIM12_IRQHandler+0x250>)
 8012798:	4e61      	ldr	r6, [pc, #388]	; (8012920 <TIM8_BRK_TIM12_IRQHandler+0x25c>)
 801279a:	6802      	ldr	r2, [r0, #0]
 801279c:	2402      	movs	r4, #2
 801279e:	6034      	str	r4, [r6, #0]
 80127a0:	2a03      	cmp	r2, #3
 80127a2:	d899      	bhi.n	80126d8 <TIM8_BRK_TIM12_IRQHandler+0x14>
 80127a4:	e8df f002 	tbb	[pc, r2]
 80127a8:	110e0e17 	.word	0x110e0e17
 80127ac:	f5a3 73bb 	sub.w	r3, r3, #374	; 0x176
 80127b0:	2b2a      	cmp	r3, #42	; 0x2a
 80127b2:	4858      	ldr	r0, [pc, #352]	; (8012914 <TIM8_BRK_TIM12_IRQHandler+0x250>)
 80127b4:	4c58      	ldr	r4, [pc, #352]	; (8012918 <TIM8_BRK_TIM12_IRQHandler+0x254>)
 80127b6:	d94b      	bls.n	8012850 <TIM8_BRK_TIM12_IRQHandler+0x18c>
 80127b8:	4a58      	ldr	r2, [pc, #352]	; (801291c <TIM8_BRK_TIM12_IRQHandler+0x258>)
 80127ba:	e7a7      	b.n	801270c <TIM8_BRK_TIM12_IRQHandler+0x48>
 80127bc:	4b56      	ldr	r3, [pc, #344]	; (8012918 <TIM8_BRK_TIM12_IRQHandler+0x254>)
 80127be:	2203      	movs	r2, #3
 80127c0:	601a      	str	r2, [r3, #0]
 80127c2:	e78b      	b.n	80126dc <TIM8_BRK_TIM12_IRQHandler+0x18>
 80127c4:	4c54      	ldr	r4, [pc, #336]	; (8012918 <TIM8_BRK_TIM12_IRQHandler+0x254>)
 80127c6:	4a55      	ldr	r2, [pc, #340]	; (801291c <TIM8_BRK_TIM12_IRQHandler+0x258>)
 80127c8:	e7cc      	b.n	8012764 <TIM8_BRK_TIM12_IRQHandler+0xa0>
 80127ca:	4c53      	ldr	r4, [pc, #332]	; (8012918 <TIM8_BRK_TIM12_IRQHandler+0x254>)
 80127cc:	6822      	ldr	r2, [r4, #0]
 80127ce:	2a03      	cmp	r2, #3
 80127d0:	d066      	beq.n	80128a0 <TIM8_BRK_TIM12_IRQHandler+0x1dc>
 80127d2:	4a52      	ldr	r2, [pc, #328]	; (801291c <TIM8_BRK_TIM12_IRQHandler+0x258>)
 80127d4:	e7c6      	b.n	8012764 <TIM8_BRK_TIM12_IRQHandler+0xa0>
 80127d6:	4c50      	ldr	r4, [pc, #320]	; (8012918 <TIM8_BRK_TIM12_IRQHandler+0x254>)
 80127d8:	4a50      	ldr	r2, [pc, #320]	; (801291c <TIM8_BRK_TIM12_IRQHandler+0x258>)
 80127da:	2500      	movs	r5, #0
 80127dc:	f04f 37ff 	mov.w	r7, #4294967295
 80127e0:	6017      	str	r7, [r2, #0]
 80127e2:	700d      	strb	r5, [r1, #0]
 80127e4:	6005      	str	r5, [r0, #0]
 80127e6:	6025      	str	r5, [r4, #0]
 80127e8:	6035      	str	r5, [r6, #0]
 80127ea:	e775      	b.n	80126d8 <TIM8_BRK_TIM12_IRQHandler+0x14>
 80127ec:	4849      	ldr	r0, [pc, #292]	; (8012914 <TIM8_BRK_TIM12_IRQHandler+0x250>)
 80127ee:	4e4c      	ldr	r6, [pc, #304]	; (8012920 <TIM8_BRK_TIM12_IRQHandler+0x25c>)
 80127f0:	6802      	ldr	r2, [r0, #0]
 80127f2:	2403      	movs	r4, #3
 80127f4:	6034      	str	r4, [r6, #0]
 80127f6:	2a03      	cmp	r2, #3
 80127f8:	f63f af6e 	bhi.w	80126d8 <TIM8_BRK_TIM12_IRQHandler+0x14>
 80127fc:	a401      	add	r4, pc, #4	; (adr r4, 8012804 <TIM8_BRK_TIM12_IRQHandler+0x140>)
 80127fe:	f854 f022 	ldr.w	pc, [r4, r2, lsl #2]
 8012802:	bf00      	nop
 8012804:	0801283f 	.word	0x0801283f
 8012808:	08012831 	.word	0x08012831
 801280c:	08012815 	.word	0x08012815
 8012810:	080127cb 	.word	0x080127cb
 8012814:	4c40      	ldr	r4, [pc, #256]	; (8012918 <TIM8_BRK_TIM12_IRQHandler+0x254>)
 8012816:	6825      	ldr	r5, [r4, #0]
 8012818:	2d03      	cmp	r5, #3
 801281a:	d050      	beq.n	80128be <TIM8_BRK_TIM12_IRQHandler+0x1fa>
 801281c:	2d04      	cmp	r5, #4
 801281e:	d1d8      	bne.n	80127d2 <TIM8_BRK_TIM12_IRQHandler+0x10e>
 8012820:	4a3e      	ldr	r2, [pc, #248]	; (801291c <TIM8_BRK_TIM12_IRQHandler+0x258>)
 8012822:	6815      	ldr	r5, [r2, #0]
 8012824:	3501      	adds	r5, #1
 8012826:	2d06      	cmp	r5, #6
 8012828:	6015      	str	r5, [r2, #0]
 801282a:	f77f af55 	ble.w	80126d8 <TIM8_BRK_TIM12_IRQHandler+0x14>
 801282e:	e799      	b.n	8012764 <TIM8_BRK_TIM12_IRQHandler+0xa0>
 8012830:	4c39      	ldr	r4, [pc, #228]	; (8012918 <TIM8_BRK_TIM12_IRQHandler+0x254>)
 8012832:	6822      	ldr	r2, [r4, #0]
 8012834:	2a04      	cmp	r2, #4
 8012836:	d050      	beq.n	80128da <TIM8_BRK_TIM12_IRQHandler+0x216>
 8012838:	2a03      	cmp	r2, #3
 801283a:	d1ca      	bne.n	80127d2 <TIM8_BRK_TIM12_IRQHandler+0x10e>
 801283c:	e7f0      	b.n	8012820 <TIM8_BRK_TIM12_IRQHandler+0x15c>
 801283e:	4c36      	ldr	r4, [pc, #216]	; (8012918 <TIM8_BRK_TIM12_IRQHandler+0x254>)
 8012840:	6822      	ldr	r2, [r4, #0]
 8012842:	2a03      	cmp	r2, #3
 8012844:	d1c8      	bne.n	80127d8 <TIM8_BRK_TIM12_IRQHandler+0x114>
 8012846:	4a35      	ldr	r2, [pc, #212]	; (801291c <TIM8_BRK_TIM12_IRQHandler+0x258>)
 8012848:	2101      	movs	r1, #1
 801284a:	6011      	str	r1, [r2, #0]
 801284c:	6001      	str	r1, [r0, #0]
 801284e:	e743      	b.n	80126d8 <TIM8_BRK_TIM12_IRQHandler+0x14>
 8012850:	6803      	ldr	r3, [r0, #0]
 8012852:	2502      	movs	r5, #2
 8012854:	2b03      	cmp	r3, #3
 8012856:	6025      	str	r5, [r4, #0]
 8012858:	d1ae      	bne.n	80127b8 <TIM8_BRK_TIM12_IRQHandler+0xf4>
 801285a:	4b33      	ldr	r3, [pc, #204]	; (8012928 <TIM8_BRK_TIM12_IRQHandler+0x264>)
 801285c:	681b      	ldr	r3, [r3, #0]
 801285e:	2b01      	cmp	r3, #1
 8012860:	d015      	beq.n	801288e <TIM8_BRK_TIM12_IRQHandler+0x1ca>
 8012862:	2b02      	cmp	r3, #2
 8012864:	f47f af3a 	bne.w	80126dc <TIM8_BRK_TIM12_IRQHandler+0x18>
 8012868:	4d2c      	ldr	r5, [pc, #176]	; (801291c <TIM8_BRK_TIM12_IRQHandler+0x258>)
 801286a:	682b      	ldr	r3, [r5, #0]
 801286c:	3b04      	subs	r3, #4
 801286e:	2b01      	cmp	r3, #1
 8012870:	d913      	bls.n	801289a <TIM8_BRK_TIM12_IRQHandler+0x1d6>
 8012872:	4f2e      	ldr	r7, [pc, #184]	; (801292c <TIM8_BRK_TIM12_IRQHandler+0x268>)
 8012874:	4e2a      	ldr	r6, [pc, #168]	; (8012920 <TIM8_BRK_TIM12_IRQHandler+0x25c>)
 8012876:	f04f 0e01 	mov.w	lr, #1
 801287a:	f04f 33ff 	mov.w	r3, #4294967295
 801287e:	f8c7 e000 	str.w	lr, [r7]
 8012882:	700a      	strb	r2, [r1, #0]
 8012884:	6002      	str	r2, [r0, #0]
 8012886:	6022      	str	r2, [r4, #0]
 8012888:	6032      	str	r2, [r6, #0]
 801288a:	602b      	str	r3, [r5, #0]
 801288c:	e726      	b.n	80126dc <TIM8_BRK_TIM12_IRQHandler+0x18>
 801288e:	4a23      	ldr	r2, [pc, #140]	; (801291c <TIM8_BRK_TIM12_IRQHandler+0x258>)
 8012890:	6813      	ldr	r3, [r2, #0]
 8012892:	3b05      	subs	r3, #5
 8012894:	2b01      	cmp	r3, #1
 8012896:	f63f af39 	bhi.w	801270c <TIM8_BRK_TIM12_IRQHandler+0x48>
 801289a:	f7ff fdd1 	bl	8012440 <_ZN12_GLOBAL__N_118sync_sep_new_frameEv>
 801289e:	e71d      	b.n	80126dc <TIM8_BRK_TIM12_IRQHandler+0x18>
 80128a0:	4a1e      	ldr	r2, [pc, #120]	; (801291c <TIM8_BRK_TIM12_IRQHandler+0x258>)
 80128a2:	4f21      	ldr	r7, [pc, #132]	; (8012928 <TIM8_BRK_TIM12_IRQHandler+0x264>)
 80128a4:	6815      	ldr	r5, [r2, #0]
 80128a6:	683f      	ldr	r7, [r7, #0]
 80128a8:	3501      	adds	r5, #1
 80128aa:	2f01      	cmp	r7, #1
 80128ac:	6015      	str	r5, [r2, #0]
 80128ae:	d01e      	beq.n	80128ee <TIM8_BRK_TIM12_IRQHandler+0x22a>
 80128b0:	2f02      	cmp	r7, #2
 80128b2:	f47f af57 	bne.w	8012764 <TIM8_BRK_TIM12_IRQHandler+0xa0>
 80128b6:	2d05      	cmp	r5, #5
 80128b8:	f73f af54 	bgt.w	8012764 <TIM8_BRK_TIM12_IRQHandler+0xa0>
 80128bc:	e70c      	b.n	80126d8 <TIM8_BRK_TIM12_IRQHandler+0x14>
 80128be:	4a17      	ldr	r2, [pc, #92]	; (801291c <TIM8_BRK_TIM12_IRQHandler+0x258>)
 80128c0:	6817      	ldr	r7, [r2, #0]
 80128c2:	2f06      	cmp	r7, #6
 80128c4:	d017      	beq.n	80128f6 <TIM8_BRK_TIM12_IRQHandler+0x232>
 80128c6:	2f05      	cmp	r7, #5
 80128c8:	f47f af4c 	bne.w	8012764 <TIM8_BRK_TIM12_IRQHandler+0xa0>
 80128cc:	4c16      	ldr	r4, [pc, #88]	; (8012928 <TIM8_BRK_TIM12_IRQHandler+0x264>)
 80128ce:	6005      	str	r5, [r0, #0]
 80128d0:	2101      	movs	r1, #1
 80128d2:	2002      	movs	r0, #2
 80128d4:	6020      	str	r0, [r4, #0]
 80128d6:	6011      	str	r1, [r2, #0]
 80128d8:	e6fe      	b.n	80126d8 <TIM8_BRK_TIM12_IRQHandler+0x14>
 80128da:	4a10      	ldr	r2, [pc, #64]	; (801291c <TIM8_BRK_TIM12_IRQHandler+0x258>)
 80128dc:	6815      	ldr	r5, [r2, #0]
 80128de:	2d03      	cmp	r5, #3
 80128e0:	f77f af40 	ble.w	8012764 <TIM8_BRK_TIM12_IRQHandler+0xa0>
 80128e4:	2402      	movs	r4, #2
 80128e6:	2101      	movs	r1, #1
 80128e8:	6004      	str	r4, [r0, #0]
 80128ea:	6011      	str	r1, [r2, #0]
 80128ec:	e6f4      	b.n	80126d8 <TIM8_BRK_TIM12_IRQHandler+0x14>
 80128ee:	2d06      	cmp	r5, #6
 80128f0:	f73f af38 	bgt.w	8012764 <TIM8_BRK_TIM12_IRQHandler+0xa0>
 80128f4:	e6f0      	b.n	80126d8 <TIM8_BRK_TIM12_IRQHandler+0x14>
 80128f6:	4c0c      	ldr	r4, [pc, #48]	; (8012928 <TIM8_BRK_TIM12_IRQHandler+0x264>)
 80128f8:	6005      	str	r5, [r0, #0]
 80128fa:	2101      	movs	r1, #1
 80128fc:	6021      	str	r1, [r4, #0]
 80128fe:	6011      	str	r1, [r2, #0]
 8012900:	e6ea      	b.n	80126d8 <TIM8_BRK_TIM12_IRQHandler+0x14>
 8012902:	bf00      	nop
 8012904:	40001800 	.word	0x40001800
 8012908:	10000dd0 	.word	0x10000dd0
 801290c:	42030208 	.word	0x42030208
 8012910:	10000dbc 	.word	0x10000dbc
 8012914:	10000dc4 	.word	0x10000dc4
 8012918:	10000dd4 	.word	0x10000dd4
 801291c:	10000010 	.word	0x10000010
 8012920:	10000dc8 	.word	0x10000dc8
 8012924:	42030204 	.word	0x42030204
 8012928:	10000dc0 	.word	0x10000dc0
 801292c:	424082b0 	.word	0x424082b0

08012930 <_ZN6detail8dac_busyEv>:
 8012930:	4b05      	ldr	r3, [pc, #20]	; (8012948 <_ZN6detail8dac_busyEv+0x18>)
 8012932:	685b      	ldr	r3, [r3, #4]
 8012934:	b10b      	cbz	r3, 801293a <_ZN6detail8dac_busyEv+0xa>
 8012936:	2001      	movs	r0, #1
 8012938:	4770      	bx	lr
 801293a:	4b04      	ldr	r3, [pc, #16]	; (801294c <_ZN6detail8dac_busyEv+0x1c>)
 801293c:	6818      	ldr	r0, [r3, #0]
 801293e:	3000      	adds	r0, #0
 8012940:	bf18      	it	ne
 8012942:	2001      	movne	r0, #1
 8012944:	4770      	bx	lr
 8012946:	bf00      	nop
 8012948:	10000dd8 	.word	0x10000dd8
 801294c:	42288000 	.word	0x42288000

08012950 <TIM1_UP_TIM10_IRQHandler>:
 8012950:	4668      	mov	r0, sp
 8012952:	f020 0107 	bic.w	r1, r0, #7
 8012956:	468d      	mov	sp, r1
 8012958:	b4f1      	push	{r0, r4, r5, r6, r7}
 801295a:	4b23      	ldr	r3, [pc, #140]	; (80129e8 <TIM1_UP_TIM10_IRQHandler+0x98>)
 801295c:	4823      	ldr	r0, [pc, #140]	; (80129ec <TIM1_UP_TIM10_IRQHandler+0x9c>)
 801295e:	2200      	movs	r2, #0
 8012960:	611a      	str	r2, [r3, #16]
 8012962:	7803      	ldrb	r3, [r0, #0]
 8012964:	b90b      	cbnz	r3, 801296a <TIM1_UP_TIM10_IRQHandler+0x1a>
 8012966:	4a22      	ldr	r2, [pc, #136]	; (80129f0 <TIM1_UP_TIM10_IRQHandler+0xa0>)
 8012968:	6013      	str	r3, [r2, #0]
 801296a:	4c22      	ldr	r4, [pc, #136]	; (80129f4 <TIM1_UP_TIM10_IRQHandler+0xa4>)
 801296c:	8821      	ldrh	r1, [r4, #0]
 801296e:	f401 4200 	and.w	r2, r1, #32768	; 0x8000
 8012972:	b292      	uxth	r2, r2
 8012974:	b192      	cbz	r2, 801299c <TIM1_UP_TIM10_IRQHandler+0x4c>
 8012976:	4a20      	ldr	r2, [pc, #128]	; (80129f8 <TIM1_UP_TIM10_IRQHandler+0xa8>)
 8012978:	2501      	movs	r5, #1
 801297a:	6015      	str	r5, [r2, #0]
 801297c:	bf00      	nop
 801297e:	4a1f      	ldr	r2, [pc, #124]	; (80129fc <TIM1_UP_TIM10_IRQHandler+0xac>)
 8012980:	2500      	movs	r5, #0
 8012982:	2b0f      	cmp	r3, #15
 8012984:	6015      	str	r5, [r2, #0]
 8012986:	d00c      	beq.n	80129a2 <TIM1_UP_TIM10_IRQHandler+0x52>
 8012988:	0049      	lsls	r1, r1, #1
 801298a:	3301      	adds	r3, #1
 801298c:	8021      	strh	r1, [r4, #0]
 801298e:	7003      	strb	r3, [r0, #0]
 8012990:	bcf1      	pop	{r0, r4, r5, r6, r7}
 8012992:	4b1a      	ldr	r3, [pc, #104]	; (80129fc <TIM1_UP_TIM10_IRQHandler+0xac>)
 8012994:	2201      	movs	r2, #1
 8012996:	601a      	str	r2, [r3, #0]
 8012998:	4685      	mov	sp, r0
 801299a:	4770      	bx	lr
 801299c:	4d16      	ldr	r5, [pc, #88]	; (80129f8 <TIM1_UP_TIM10_IRQHandler+0xa8>)
 801299e:	602a      	str	r2, [r5, #0]
 80129a0:	e7ec      	b.n	801297c <TIM1_UP_TIM10_IRQHandler+0x2c>
 80129a2:	4a17      	ldr	r2, [pc, #92]	; (8012a00 <TIM1_UP_TIM10_IRQHandler+0xb0>)
 80129a4:	6853      	ldr	r3, [r2, #4]
 80129a6:	b1bb      	cbz	r3, 80129d8 <TIM1_UP_TIM10_IRQHandler+0x88>
 80129a8:	6811      	ldr	r1, [r2, #0]
 80129aa:	881e      	ldrh	r6, [r3, #0]
 80129ac:	b1c9      	cbz	r1, 80129e2 <TIM1_UP_TIM10_IRQHandler+0x92>
 80129ae:	4d14      	ldr	r5, [pc, #80]	; (8012a00 <TIM1_UP_TIM10_IRQHandler+0xb0>)
 80129b0:	8026      	strh	r6, [r4, #0]
 80129b2:	3302      	adds	r3, #2
 80129b4:	f105 0718 	add.w	r7, r5, #24
 80129b8:	42bb      	cmp	r3, r7
 80129ba:	6053      	str	r3, [r2, #4]
 80129bc:	bf04      	itt	eq
 80129be:	f105 0308 	addeq.w	r3, r5, #8
 80129c2:	606b      	streq	r3, [r5, #4]
 80129c4:	428b      	cmp	r3, r1
 80129c6:	bf04      	itt	eq
 80129c8:	2300      	moveq	r3, #0
 80129ca:	6053      	streq	r3, [r2, #4]
 80129cc:	4b08      	ldr	r3, [pc, #32]	; (80129f0 <TIM1_UP_TIM10_IRQHandler+0xa0>)
 80129ce:	2100      	movs	r1, #0
 80129d0:	2201      	movs	r2, #1
 80129d2:	7001      	strb	r1, [r0, #0]
 80129d4:	601a      	str	r2, [r3, #0]
 80129d6:	e7db      	b.n	8012990 <TIM1_UP_TIM10_IRQHandler+0x40>
 80129d8:	490a      	ldr	r1, [pc, #40]	; (8012a04 <TIM1_UP_TIM10_IRQHandler+0xb4>)
 80129da:	4a03      	ldr	r2, [pc, #12]	; (80129e8 <TIM1_UP_TIM10_IRQHandler+0x98>)
 80129dc:	600b      	str	r3, [r1, #0]
 80129de:	6253      	str	r3, [r2, #36]	; 0x24
 80129e0:	e7f4      	b.n	80129cc <TIM1_UP_TIM10_IRQHandler+0x7c>
 80129e2:	6013      	str	r3, [r2, #0]
 80129e4:	4619      	mov	r1, r3
 80129e6:	e7e2      	b.n	80129ae <TIM1_UP_TIM10_IRQHandler+0x5e>
 80129e8:	40014400 	.word	0x40014400
 80129ec:	10000df2 	.word	0x10000df2
 80129f0:	42400298 	.word	0x42400298
 80129f4:	10000df0 	.word	0x10000df0
 80129f8:	4240029c 	.word	0x4240029c
 80129fc:	424102a0 	.word	0x424102a0
 8012a00:	10000dd8 	.word	0x10000dd8
 8012a04:	42288000 	.word	0x42288000

08012a08 <_ZN6detail23video_palette_dac_setupEv>:
 8012a08:	49a0      	ldr	r1, [pc, #640]	; (8012c8c <_ZN6detail23video_palette_dac_setupEv+0x284>)
 8012a0a:	4ba1      	ldr	r3, [pc, #644]	; (8012c90 <_ZN6detail23video_palette_dac_setupEv+0x288>)
 8012a0c:	6b08      	ldr	r0, [r1, #48]	; 0x30
 8012a0e:	4aa1      	ldr	r2, [pc, #644]	; (8012c94 <_ZN6detail23video_palette_dac_setupEv+0x28c>)
 8012a10:	f040 0001 	orr.w	r0, r0, #1
 8012a14:	b5f0      	push	{r4, r5, r6, r7, lr}
 8012a16:	6308      	str	r0, [r1, #48]	; 0x30
 8012a18:	6818      	ldr	r0, [r3, #0]
 8012a1a:	4c9f      	ldr	r4, [pc, #636]	; (8012c98 <_ZN6detail23video_palette_dac_setupEv+0x290>)
 8012a1c:	4d9f      	ldr	r5, [pc, #636]	; (8012c9c <_ZN6detail23video_palette_dac_setupEv+0x294>)
 8012a1e:	4ea0      	ldr	r6, [pc, #640]	; (8012ca0 <_ZN6detail23video_palette_dac_setupEv+0x298>)
 8012a20:	f420 5040 	bic.w	r0, r0, #12288	; 0x3000
 8012a24:	f440 5080 	orr.w	r0, r0, #4096	; 0x1000
 8012a28:	6018      	str	r0, [r3, #0]
 8012a2a:	6858      	ldr	r0, [r3, #4]
 8012a2c:	f020 0040 	bic.w	r0, r0, #64	; 0x40
 8012a30:	6058      	str	r0, [r3, #4]
 8012a32:	6898      	ldr	r0, [r3, #8]
 8012a34:	f420 5040 	bic.w	r0, r0, #12288	; 0x3000
 8012a38:	f440 5000 	orr.w	r0, r0, #8192	; 0x2000
 8012a3c:	6098      	str	r0, [r3, #8]
 8012a3e:	68d8      	ldr	r0, [r3, #12]
 8012a40:	f420 5040 	bic.w	r0, r0, #12288	; 0x3000
 8012a44:	60d8      	str	r0, [r3, #12]
 8012a46:	6958      	ldr	r0, [r3, #20]
 8012a48:	f040 0040 	orr.w	r0, r0, #64	; 0x40
 8012a4c:	6158      	str	r0, [r3, #20]
 8012a4e:	6b08      	ldr	r0, [r1, #48]	; 0x30
 8012a50:	f040 0001 	orr.w	r0, r0, #1
 8012a54:	6308      	str	r0, [r1, #48]	; 0x30
 8012a56:	6818      	ldr	r0, [r3, #0]
 8012a58:	f420 4040 	bic.w	r0, r0, #49152	; 0xc000
 8012a5c:	f440 4080 	orr.w	r0, r0, #16384	; 0x4000
 8012a60:	6018      	str	r0, [r3, #0]
 8012a62:	6858      	ldr	r0, [r3, #4]
 8012a64:	f020 0080 	bic.w	r0, r0, #128	; 0x80
 8012a68:	6058      	str	r0, [r3, #4]
 8012a6a:	6898      	ldr	r0, [r3, #8]
 8012a6c:	f420 4040 	bic.w	r0, r0, #49152	; 0xc000
 8012a70:	f440 4000 	orr.w	r0, r0, #32768	; 0x8000
 8012a74:	6098      	str	r0, [r3, #8]
 8012a76:	68d8      	ldr	r0, [r3, #12]
 8012a78:	f420 4040 	bic.w	r0, r0, #49152	; 0xc000
 8012a7c:	60d8      	str	r0, [r3, #12]
 8012a7e:	6958      	ldr	r0, [r3, #20]
 8012a80:	f020 0080 	bic.w	r0, r0, #128	; 0x80
 8012a84:	6158      	str	r0, [r3, #20]
 8012a86:	6b0b      	ldr	r3, [r1, #48]	; 0x30
 8012a88:	f043 0304 	orr.w	r3, r3, #4
 8012a8c:	630b      	str	r3, [r1, #48]	; 0x30
 8012a8e:	6813      	ldr	r3, [r2, #0]
 8012a90:	f423 3340 	bic.w	r3, r3, #196608	; 0x30000
 8012a94:	f443 3380 	orr.w	r3, r3, #65536	; 0x10000
 8012a98:	6013      	str	r3, [r2, #0]
 8012a9a:	6853      	ldr	r3, [r2, #4]
 8012a9c:	f423 7380 	bic.w	r3, r3, #256	; 0x100
 8012aa0:	6053      	str	r3, [r2, #4]
 8012aa2:	6893      	ldr	r3, [r2, #8]
 8012aa4:	f423 3340 	bic.w	r3, r3, #196608	; 0x30000
 8012aa8:	f443 3300 	orr.w	r3, r3, #131072	; 0x20000
 8012aac:	6093      	str	r3, [r2, #8]
 8012aae:	68d3      	ldr	r3, [r2, #12]
 8012ab0:	f423 3340 	bic.w	r3, r3, #196608	; 0x30000
 8012ab4:	60d3      	str	r3, [r2, #12]
 8012ab6:	6953      	ldr	r3, [r2, #20]
 8012ab8:	f443 7380 	orr.w	r3, r3, #256	; 0x100
 8012abc:	6153      	str	r3, [r2, #20]
 8012abe:	6c4b      	ldr	r3, [r1, #68]	; 0x44
 8012ac0:	f04f 0c00 	mov.w	ip, #0
 8012ac4:	f443 3300 	orr.w	r3, r3, #131072	; 0x20000
 8012ac8:	f04f 7200 	mov.w	r2, #33554432	; 0x2000000
 8012acc:	f04f 0e04 	mov.w	lr, #4
 8012ad0:	f44f 67d2 	mov.w	r7, #1680	; 0x690
 8012ad4:	20f0      	movs	r0, #240	; 0xf0
 8012ad6:	644b      	str	r3, [r1, #68]	; 0x44
 8012ad8:	f8c4 e000 	str.w	lr, [r4]
 8012adc:	62e7      	str	r7, [r4, #44]	; 0x2c
 8012ade:	f8c4 c024 	str.w	ip, [r4, #36]	; 0x24
 8012ae2:	f8c4 c010 	str.w	ip, [r4, #16]
 8012ae6:	f885 0319 	strb.w	r0, [r5, #793]	; 0x319
 8012aea:	602a      	str	r2, [r5, #0]
 8012aec:	7833      	ldrb	r3, [r6, #0]
 8012aee:	496d      	ldr	r1, [pc, #436]	; (8012ca4 <_ZN6detail23video_palette_dac_setupEv+0x29c>)
 8012af0:	f003 02ff 	and.w	r2, r3, #255	; 0xff
 8012af4:	2b00      	cmp	r3, #0
 8012af6:	d06f      	beq.n	8012bd8 <_ZN6detail23video_palette_dac_setupEv+0x1d0>
 8012af8:	4a6b      	ldr	r2, [pc, #428]	; (8012ca8 <_ZN6detail23video_palette_dac_setupEv+0x2a0>)
 8012afa:	680b      	ldr	r3, [r1, #0]
 8012afc:	f8c2 c000 	str.w	ip, [r2]
 8012b00:	2b00      	cmp	r3, #0
 8012b02:	f000 80dc 	beq.w	8012cbe <_ZN6detail23video_palette_dac_setupEv+0x2b6>
 8012b06:	684a      	ldr	r2, [r1, #4]
 8012b08:	f44f 608c 	mov.w	r0, #1120	; 0x460
 8012b0c:	8018      	strh	r0, [r3, #0]
 8012b0e:	2a00      	cmp	r2, #0
 8012b10:	f000 80f4 	beq.w	8012cfc <_ZN6detail23video_palette_dac_setupEv+0x2f4>
 8012b14:	4c63      	ldr	r4, [pc, #396]	; (8012ca4 <_ZN6detail23video_palette_dac_setupEv+0x29c>)
 8012b16:	3302      	adds	r3, #2
 8012b18:	f104 0018 	add.w	r0, r4, #24
 8012b1c:	4283      	cmp	r3, r0
 8012b1e:	600b      	str	r3, [r1, #0]
 8012b20:	f000 80df 	beq.w	8012ce2 <_ZN6detail23video_palette_dac_setupEv+0x2da>
 8012b24:	429a      	cmp	r2, r3
 8012b26:	f000 80c8 	beq.w	8012cba <_ZN6detail23video_palette_dac_setupEv+0x2b2>
 8012b2a:	4a5f      	ldr	r2, [pc, #380]	; (8012ca8 <_ZN6detail23video_palette_dac_setupEv+0x2a0>)
 8012b2c:	4e5f      	ldr	r6, [pc, #380]	; (8012cac <_ZN6detail23video_palette_dac_setupEv+0x2a4>)
 8012b2e:	2401      	movs	r4, #1
 8012b30:	2500      	movs	r5, #0
 8012b32:	6034      	str	r4, [r6, #0]
 8012b34:	6014      	str	r4, [r2, #0]
 8012b36:	6015      	str	r5, [r2, #0]
 8012b38:	2b00      	cmp	r3, #0
 8012b3a:	f000 80f1 	beq.w	8012d20 <_ZN6detail23video_palette_dac_setupEv+0x318>
 8012b3e:	684a      	ldr	r2, [r1, #4]
 8012b40:	4d58      	ldr	r5, [pc, #352]	; (8012ca4 <_ZN6detail23video_palette_dac_setupEv+0x29c>)
 8012b42:	f644 3410 	movw	r4, #19216	; 0x4b10
 8012b46:	801c      	strh	r4, [r3, #0]
 8012b48:	2a00      	cmp	r2, #0
 8012b4a:	f000 8111 	beq.w	8012d70 <_ZN6detail23video_palette_dac_setupEv+0x368>
 8012b4e:	3302      	adds	r3, #2
 8012b50:	4283      	cmp	r3, r0
 8012b52:	600b      	str	r3, [r1, #0]
 8012b54:	4c53      	ldr	r4, [pc, #332]	; (8012ca4 <_ZN6detail23video_palette_dac_setupEv+0x29c>)
 8012b56:	f000 80fe 	beq.w	8012d56 <_ZN6detail23video_palette_dac_setupEv+0x34e>
 8012b5a:	429a      	cmp	r2, r3
 8012b5c:	f000 80de 	beq.w	8012d1c <_ZN6detail23video_palette_dac_setupEv+0x314>
 8012b60:	4a51      	ldr	r2, [pc, #324]	; (8012ca8 <_ZN6detail23video_palette_dac_setupEv+0x2a0>)
 8012b62:	4e52      	ldr	r6, [pc, #328]	; (8012cac <_ZN6detail23video_palette_dac_setupEv+0x2a4>)
 8012b64:	2401      	movs	r4, #1
 8012b66:	2500      	movs	r5, #0
 8012b68:	6034      	str	r4, [r6, #0]
 8012b6a:	6014      	str	r4, [r2, #0]
 8012b6c:	6015      	str	r5, [r2, #0]
 8012b6e:	2b00      	cmp	r3, #0
 8012b70:	f000 80af 	beq.w	8012cd2 <_ZN6detail23video_palette_dac_setupEv+0x2ca>
 8012b74:	684a      	ldr	r2, [r1, #4]
 8012b76:	4d4b      	ldr	r5, [pc, #300]	; (8012ca4 <_ZN6detail23video_palette_dac_setupEv+0x29c>)
 8012b78:	f248 1460 	movw	r4, #33120	; 0x8160
 8012b7c:	801c      	strh	r4, [r3, #0]
 8012b7e:	2a00      	cmp	r2, #0
 8012b80:	f000 80e6 	beq.w	8012d50 <_ZN6detail23video_palette_dac_setupEv+0x348>
 8012b84:	3302      	adds	r3, #2
 8012b86:	4283      	cmp	r3, r0
 8012b88:	600b      	str	r3, [r1, #0]
 8012b8a:	4c46      	ldr	r4, [pc, #280]	; (8012ca4 <_ZN6detail23video_palette_dac_setupEv+0x29c>)
 8012b8c:	f000 80d3 	beq.w	8012d36 <_ZN6detail23video_palette_dac_setupEv+0x32e>
 8012b90:	429a      	cmp	r2, r3
 8012b92:	f000 80bb 	beq.w	8012d0c <_ZN6detail23video_palette_dac_setupEv+0x304>
 8012b96:	4a44      	ldr	r2, [pc, #272]	; (8012ca8 <_ZN6detail23video_palette_dac_setupEv+0x2a0>)
 8012b98:	4e44      	ldr	r6, [pc, #272]	; (8012cac <_ZN6detail23video_palette_dac_setupEv+0x2a4>)
 8012b9a:	2401      	movs	r4, #1
 8012b9c:	2500      	movs	r5, #0
 8012b9e:	6034      	str	r4, [r6, #0]
 8012ba0:	6014      	str	r4, [r2, #0]
 8012ba2:	6015      	str	r5, [r2, #0]
 8012ba4:	b193      	cbz	r3, 8012bcc <_ZN6detail23video_palette_dac_setupEv+0x1c4>
 8012ba6:	684a      	ldr	r2, [r1, #4]
 8012ba8:	4d3e      	ldr	r5, [pc, #248]	; (8012ca4 <_ZN6detail23video_palette_dac_setupEv+0x29c>)
 8012baa:	f24d 24d0 	movw	r4, #53968	; 0xd2d0
 8012bae:	801c      	strh	r4, [r3, #0]
 8012bb0:	2a00      	cmp	r2, #0
 8012bb2:	d067      	beq.n	8012c84 <_ZN6detail23video_palette_dac_setupEv+0x27c>
 8012bb4:	3302      	adds	r3, #2
 8012bb6:	4c3b      	ldr	r4, [pc, #236]	; (8012ca4 <_ZN6detail23video_palette_dac_setupEv+0x29c>)
 8012bb8:	600b      	str	r3, [r1, #0]
 8012bba:	4283      	cmp	r3, r0
 8012bbc:	bf04      	itt	eq
 8012bbe:	f104 0308 	addeq.w	r3, r4, #8
 8012bc2:	6023      	streq	r3, [r4, #0]
 8012bc4:	429a      	cmp	r2, r3
 8012bc6:	bf04      	itt	eq
 8012bc8:	2300      	moveq	r3, #0
 8012bca:	600b      	streq	r3, [r1, #0]
 8012bcc:	4937      	ldr	r1, [pc, #220]	; (8012cac <_ZN6detail23video_palette_dac_setupEv+0x2a4>)
 8012bce:	4a36      	ldr	r2, [pc, #216]	; (8012ca8 <_ZN6detail23video_palette_dac_setupEv+0x2a0>)
 8012bd0:	2301      	movs	r3, #1
 8012bd2:	600b      	str	r3, [r1, #0]
 8012bd4:	6013      	str	r3, [r2, #0]
 8012bd6:	bdf0      	pop	{r4, r5, r6, r7, pc}
 8012bd8:	4833      	ldr	r0, [pc, #204]	; (8012ca8 <_ZN6detail23video_palette_dac_setupEv+0x2a0>)
 8012bda:	680b      	ldr	r3, [r1, #0]
 8012bdc:	6002      	str	r2, [r0, #0]
 8012bde:	2b00      	cmp	r3, #0
 8012be0:	d06d      	beq.n	8012cbe <_ZN6detail23video_palette_dac_setupEv+0x2b6>
 8012be2:	684a      	ldr	r2, [r1, #4]
 8012be4:	f24c 20d0 	movw	r0, #49872	; 0xc2d0
 8012be8:	8018      	strh	r0, [r3, #0]
 8012bea:	2a00      	cmp	r2, #0
 8012bec:	f000 80c3 	beq.w	8012d76 <_ZN6detail23video_palette_dac_setupEv+0x36e>
 8012bf0:	4c2c      	ldr	r4, [pc, #176]	; (8012ca4 <_ZN6detail23video_palette_dac_setupEv+0x29c>)
 8012bf2:	3302      	adds	r3, #2
 8012bf4:	f104 0018 	add.w	r0, r4, #24
 8012bf8:	4283      	cmp	r3, r0
 8012bfa:	600b      	str	r3, [r1, #0]
 8012bfc:	d058      	beq.n	8012cb0 <_ZN6detail23video_palette_dac_setupEv+0x2a8>
 8012bfe:	429a      	cmp	r2, r3
 8012c00:	d05b      	beq.n	8012cba <_ZN6detail23video_palette_dac_setupEv+0x2b2>
 8012c02:	4a29      	ldr	r2, [pc, #164]	; (8012ca8 <_ZN6detail23video_palette_dac_setupEv+0x2a0>)
 8012c04:	4e29      	ldr	r6, [pc, #164]	; (8012cac <_ZN6detail23video_palette_dac_setupEv+0x2a4>)
 8012c06:	2401      	movs	r4, #1
 8012c08:	2500      	movs	r5, #0
 8012c0a:	6034      	str	r4, [r6, #0]
 8012c0c:	6014      	str	r4, [r2, #0]
 8012c0e:	6015      	str	r5, [r2, #0]
 8012c10:	2b00      	cmp	r3, #0
 8012c12:	f000 8085 	beq.w	8012d20 <_ZN6detail23video_palette_dac_setupEv+0x318>
 8012c16:	684a      	ldr	r2, [r1, #4]
 8012c18:	4d22      	ldr	r5, [pc, #136]	; (8012ca4 <_ZN6detail23video_palette_dac_setupEv+0x29c>)
 8012c1a:	f248 4460 	movw	r4, #33888	; 0x8460
 8012c1e:	801c      	strh	r4, [r3, #0]
 8012c20:	2a00      	cmp	r2, #0
 8012c22:	f000 80ae 	beq.w	8012d82 <_ZN6detail23video_palette_dac_setupEv+0x37a>
 8012c26:	3302      	adds	r3, #2
 8012c28:	4283      	cmp	r3, r0
 8012c2a:	600b      	str	r3, [r1, #0]
 8012c2c:	4c1d      	ldr	r4, [pc, #116]	; (8012ca4 <_ZN6detail23video_palette_dac_setupEv+0x29c>)
 8012c2e:	d070      	beq.n	8012d12 <_ZN6detail23video_palette_dac_setupEv+0x30a>
 8012c30:	429a      	cmp	r2, r3
 8012c32:	d073      	beq.n	8012d1c <_ZN6detail23video_palette_dac_setupEv+0x314>
 8012c34:	4a1c      	ldr	r2, [pc, #112]	; (8012ca8 <_ZN6detail23video_palette_dac_setupEv+0x2a0>)
 8012c36:	4e1d      	ldr	r6, [pc, #116]	; (8012cac <_ZN6detail23video_palette_dac_setupEv+0x2a4>)
 8012c38:	2401      	movs	r4, #1
 8012c3a:	2500      	movs	r5, #0
 8012c3c:	6034      	str	r4, [r6, #0]
 8012c3e:	6014      	str	r4, [r2, #0]
 8012c40:	6015      	str	r5, [r2, #0]
 8012c42:	2b00      	cmp	r3, #0
 8012c44:	d045      	beq.n	8012cd2 <_ZN6detail23video_palette_dac_setupEv+0x2ca>
 8012c46:	684a      	ldr	r2, [r1, #4]
 8012c48:	4d16      	ldr	r5, [pc, #88]	; (8012ca4 <_ZN6detail23video_palette_dac_setupEv+0x29c>)
 8012c4a:	f644 3410 	movw	r4, #19216	; 0x4b10
 8012c4e:	801c      	strh	r4, [r3, #0]
 8012c50:	2a00      	cmp	r2, #0
 8012c52:	f000 8093 	beq.w	8012d7c <_ZN6detail23video_palette_dac_setupEv+0x374>
 8012c56:	3302      	adds	r3, #2
 8012c58:	4283      	cmp	r3, r0
 8012c5a:	600b      	str	r3, [r1, #0]
 8012c5c:	4c11      	ldr	r4, [pc, #68]	; (8012ca4 <_ZN6detail23video_palette_dac_setupEv+0x29c>)
 8012c5e:	d050      	beq.n	8012d02 <_ZN6detail23video_palette_dac_setupEv+0x2fa>
 8012c60:	429a      	cmp	r2, r3
 8012c62:	d053      	beq.n	8012d0c <_ZN6detail23video_palette_dac_setupEv+0x304>
 8012c64:	4a10      	ldr	r2, [pc, #64]	; (8012ca8 <_ZN6detail23video_palette_dac_setupEv+0x2a0>)
 8012c66:	4e11      	ldr	r6, [pc, #68]	; (8012cac <_ZN6detail23video_palette_dac_setupEv+0x2a4>)
 8012c68:	2401      	movs	r4, #1
 8012c6a:	2500      	movs	r5, #0
 8012c6c:	6034      	str	r4, [r6, #0]
 8012c6e:	6014      	str	r4, [r2, #0]
 8012c70:	6015      	str	r5, [r2, #0]
 8012c72:	2b00      	cmp	r3, #0
 8012c74:	d0aa      	beq.n	8012bcc <_ZN6detail23video_palette_dac_setupEv+0x1c4>
 8012c76:	684a      	ldr	r2, [r1, #4]
 8012c78:	4d0a      	ldr	r5, [pc, #40]	; (8012ca4 <_ZN6detail23video_palette_dac_setupEv+0x29c>)
 8012c7a:	f44f 54be 	mov.w	r4, #6080	; 0x17c0
 8012c7e:	801c      	strh	r4, [r3, #0]
 8012c80:	2a00      	cmp	r2, #0
 8012c82:	d197      	bne.n	8012bb4 <_ZN6detail23video_palette_dac_setupEv+0x1ac>
 8012c84:	606b      	str	r3, [r5, #4]
 8012c86:	461a      	mov	r2, r3
 8012c88:	e794      	b.n	8012bb4 <_ZN6detail23video_palette_dac_setupEv+0x1ac>
 8012c8a:	bf00      	nop
 8012c8c:	40023800 	.word	0x40023800
 8012c90:	40020000 	.word	0x40020000
 8012c94:	40020800 	.word	0x40020800
 8012c98:	40014400 	.word	0x40014400
 8012c9c:	e000e100 	.word	0xe000e100
 8012ca0:	10000014 	.word	0x10000014
 8012ca4:	10000dd8 	.word	0x10000dd8
 8012ca8:	42288180 	.word	0x42288180
 8012cac:	42288000 	.word	0x42288000
 8012cb0:	f104 0308 	add.w	r3, r4, #8
 8012cb4:	429a      	cmp	r2, r3
 8012cb6:	6023      	str	r3, [r4, #0]
 8012cb8:	d166      	bne.n	8012d88 <_ZN6detail23video_palette_dac_setupEv+0x380>
 8012cba:	2300      	movs	r3, #0
 8012cbc:	600b      	str	r3, [r1, #0]
 8012cbe:	4b3e      	ldr	r3, [pc, #248]	; (8012db8 <_ZN6detail23video_palette_dac_setupEv+0x3b0>)
 8012cc0:	483e      	ldr	r0, [pc, #248]	; (8012dbc <_ZN6detail23video_palette_dac_setupEv+0x3b4>)
 8012cc2:	2201      	movs	r2, #1
 8012cc4:	2100      	movs	r1, #0
 8012cc6:	6002      	str	r2, [r0, #0]
 8012cc8:	601a      	str	r2, [r3, #0]
 8012cca:	6019      	str	r1, [r3, #0]
 8012ccc:	6002      	str	r2, [r0, #0]
 8012cce:	601a      	str	r2, [r3, #0]
 8012cd0:	6019      	str	r1, [r3, #0]
 8012cd2:	4b39      	ldr	r3, [pc, #228]	; (8012db8 <_ZN6detail23video_palette_dac_setupEv+0x3b0>)
 8012cd4:	4839      	ldr	r0, [pc, #228]	; (8012dbc <_ZN6detail23video_palette_dac_setupEv+0x3b4>)
 8012cd6:	2201      	movs	r2, #1
 8012cd8:	2100      	movs	r1, #0
 8012cda:	6002      	str	r2, [r0, #0]
 8012cdc:	601a      	str	r2, [r3, #0]
 8012cde:	6019      	str	r1, [r3, #0]
 8012ce0:	e774      	b.n	8012bcc <_ZN6detail23video_palette_dac_setupEv+0x1c4>
 8012ce2:	f104 0308 	add.w	r3, r4, #8
 8012ce6:	429a      	cmp	r2, r3
 8012ce8:	6023      	str	r3, [r4, #0]
 8012cea:	d0e6      	beq.n	8012cba <_ZN6detail23video_palette_dac_setupEv+0x2b2>
 8012cec:	4a32      	ldr	r2, [pc, #200]	; (8012db8 <_ZN6detail23video_palette_dac_setupEv+0x3b0>)
 8012cee:	4e33      	ldr	r6, [pc, #204]	; (8012dbc <_ZN6detail23video_palette_dac_setupEv+0x3b4>)
 8012cf0:	2401      	movs	r4, #1
 8012cf2:	2500      	movs	r5, #0
 8012cf4:	6034      	str	r4, [r6, #0]
 8012cf6:	6014      	str	r4, [r2, #0]
 8012cf8:	6015      	str	r5, [r2, #0]
 8012cfa:	e720      	b.n	8012b3e <_ZN6detail23video_palette_dac_setupEv+0x136>
 8012cfc:	604b      	str	r3, [r1, #4]
 8012cfe:	461a      	mov	r2, r3
 8012d00:	e708      	b.n	8012b14 <_ZN6detail23video_palette_dac_setupEv+0x10c>
 8012d02:	f104 0308 	add.w	r3, r4, #8
 8012d06:	429a      	cmp	r2, r3
 8012d08:	6023      	str	r3, [r4, #0]
 8012d0a:	d14d      	bne.n	8012da8 <_ZN6detail23video_palette_dac_setupEv+0x3a0>
 8012d0c:	2300      	movs	r3, #0
 8012d0e:	600b      	str	r3, [r1, #0]
 8012d10:	e7df      	b.n	8012cd2 <_ZN6detail23video_palette_dac_setupEv+0x2ca>
 8012d12:	f104 0308 	add.w	r3, r4, #8
 8012d16:	429a      	cmp	r2, r3
 8012d18:	6023      	str	r3, [r4, #0]
 8012d1a:	d13d      	bne.n	8012d98 <_ZN6detail23video_palette_dac_setupEv+0x390>
 8012d1c:	2300      	movs	r3, #0
 8012d1e:	600b      	str	r3, [r1, #0]
 8012d20:	4b25      	ldr	r3, [pc, #148]	; (8012db8 <_ZN6detail23video_palette_dac_setupEv+0x3b0>)
 8012d22:	4826      	ldr	r0, [pc, #152]	; (8012dbc <_ZN6detail23video_palette_dac_setupEv+0x3b4>)
 8012d24:	2201      	movs	r2, #1
 8012d26:	2100      	movs	r1, #0
 8012d28:	6002      	str	r2, [r0, #0]
 8012d2a:	601a      	str	r2, [r3, #0]
 8012d2c:	6019      	str	r1, [r3, #0]
 8012d2e:	6002      	str	r2, [r0, #0]
 8012d30:	601a      	str	r2, [r3, #0]
 8012d32:	6019      	str	r1, [r3, #0]
 8012d34:	e74a      	b.n	8012bcc <_ZN6detail23video_palette_dac_setupEv+0x1c4>
 8012d36:	f104 0308 	add.w	r3, r4, #8
 8012d3a:	429a      	cmp	r2, r3
 8012d3c:	6023      	str	r3, [r4, #0]
 8012d3e:	d0e5      	beq.n	8012d0c <_ZN6detail23video_palette_dac_setupEv+0x304>
 8012d40:	4a1d      	ldr	r2, [pc, #116]	; (8012db8 <_ZN6detail23video_palette_dac_setupEv+0x3b0>)
 8012d42:	4e1e      	ldr	r6, [pc, #120]	; (8012dbc <_ZN6detail23video_palette_dac_setupEv+0x3b4>)
 8012d44:	2401      	movs	r4, #1
 8012d46:	2500      	movs	r5, #0
 8012d48:	6034      	str	r4, [r6, #0]
 8012d4a:	6014      	str	r4, [r2, #0]
 8012d4c:	6015      	str	r5, [r2, #0]
 8012d4e:	e72a      	b.n	8012ba6 <_ZN6detail23video_palette_dac_setupEv+0x19e>
 8012d50:	606b      	str	r3, [r5, #4]
 8012d52:	461a      	mov	r2, r3
 8012d54:	e716      	b.n	8012b84 <_ZN6detail23video_palette_dac_setupEv+0x17c>
 8012d56:	f104 0308 	add.w	r3, r4, #8
 8012d5a:	429a      	cmp	r2, r3
 8012d5c:	6023      	str	r3, [r4, #0]
 8012d5e:	d0dd      	beq.n	8012d1c <_ZN6detail23video_palette_dac_setupEv+0x314>
 8012d60:	4a15      	ldr	r2, [pc, #84]	; (8012db8 <_ZN6detail23video_palette_dac_setupEv+0x3b0>)
 8012d62:	4e16      	ldr	r6, [pc, #88]	; (8012dbc <_ZN6detail23video_palette_dac_setupEv+0x3b4>)
 8012d64:	2401      	movs	r4, #1
 8012d66:	2500      	movs	r5, #0
 8012d68:	6034      	str	r4, [r6, #0]
 8012d6a:	6014      	str	r4, [r2, #0]
 8012d6c:	6015      	str	r5, [r2, #0]
 8012d6e:	e701      	b.n	8012b74 <_ZN6detail23video_palette_dac_setupEv+0x16c>
 8012d70:	606b      	str	r3, [r5, #4]
 8012d72:	461a      	mov	r2, r3
 8012d74:	e6eb      	b.n	8012b4e <_ZN6detail23video_palette_dac_setupEv+0x146>
 8012d76:	604b      	str	r3, [r1, #4]
 8012d78:	461a      	mov	r2, r3
 8012d7a:	e739      	b.n	8012bf0 <_ZN6detail23video_palette_dac_setupEv+0x1e8>
 8012d7c:	606b      	str	r3, [r5, #4]
 8012d7e:	461a      	mov	r2, r3
 8012d80:	e769      	b.n	8012c56 <_ZN6detail23video_palette_dac_setupEv+0x24e>
 8012d82:	606b      	str	r3, [r5, #4]
 8012d84:	461a      	mov	r2, r3
 8012d86:	e74e      	b.n	8012c26 <_ZN6detail23video_palette_dac_setupEv+0x21e>
 8012d88:	4a0b      	ldr	r2, [pc, #44]	; (8012db8 <_ZN6detail23video_palette_dac_setupEv+0x3b0>)
 8012d8a:	4e0c      	ldr	r6, [pc, #48]	; (8012dbc <_ZN6detail23video_palette_dac_setupEv+0x3b4>)
 8012d8c:	2401      	movs	r4, #1
 8012d8e:	2500      	movs	r5, #0
 8012d90:	6034      	str	r4, [r6, #0]
 8012d92:	6014      	str	r4, [r2, #0]
 8012d94:	6015      	str	r5, [r2, #0]
 8012d96:	e73e      	b.n	8012c16 <_ZN6detail23video_palette_dac_setupEv+0x20e>
 8012d98:	4a07      	ldr	r2, [pc, #28]	; (8012db8 <_ZN6detail23video_palette_dac_setupEv+0x3b0>)
 8012d9a:	4e08      	ldr	r6, [pc, #32]	; (8012dbc <_ZN6detail23video_palette_dac_setupEv+0x3b4>)
 8012d9c:	2401      	movs	r4, #1
 8012d9e:	2500      	movs	r5, #0
 8012da0:	6034      	str	r4, [r6, #0]
 8012da2:	6014      	str	r4, [r2, #0]
 8012da4:	6015      	str	r5, [r2, #0]
 8012da6:	e74e      	b.n	8012c46 <_ZN6detail23video_palette_dac_setupEv+0x23e>
 8012da8:	4a03      	ldr	r2, [pc, #12]	; (8012db8 <_ZN6detail23video_palette_dac_setupEv+0x3b0>)
 8012daa:	4e04      	ldr	r6, [pc, #16]	; (8012dbc <_ZN6detail23video_palette_dac_setupEv+0x3b4>)
 8012dac:	2401      	movs	r4, #1
 8012dae:	2500      	movs	r5, #0
 8012db0:	6034      	str	r4, [r6, #0]
 8012db2:	6014      	str	r4, [r2, #0]
 8012db4:	6015      	str	r5, [r2, #0]
 8012db6:	e75e      	b.n	8012c76 <_ZN6detail23video_palette_dac_setupEv+0x26e>
 8012db8:	42288180 	.word	0x42288180
 8012dbc:	42288000 	.word	0x42288000

08012dc0 <_GLOBAL__sub_I__ZN6detail8dac_busyEv>:
 8012dc0:	4b03      	ldr	r3, [pc, #12]	; (8012dd0 <_GLOBAL__sub_I__ZN6detail8dac_busyEv+0x10>)
 8012dc2:	2200      	movs	r2, #0
 8012dc4:	f103 0108 	add.w	r1, r3, #8
 8012dc8:	e883 0006 	stmia.w	r3, {r1, r2}
 8012dcc:	4770      	bx	lr
 8012dce:	bf00      	nop
 8012dd0:	10000dd8 	.word	0x10000dd8

08012dd4 <_ZN6detail10setup_ledsEv>:
 8012dd4:	490e      	ldr	r1, [pc, #56]	; (8012e10 <_ZN6detail10setup_ledsEv+0x3c>)
 8012dd6:	4b0f      	ldr	r3, [pc, #60]	; (8012e14 <_ZN6detail10setup_ledsEv+0x40>)
 8012dd8:	6b0a      	ldr	r2, [r1, #48]	; 0x30
 8012dda:	f042 0202 	orr.w	r2, r2, #2
 8012dde:	630a      	str	r2, [r1, #48]	; 0x30
 8012de0:	681a      	ldr	r2, [r3, #0]
 8012de2:	f022 7240 	bic.w	r2, r2, #50331648	; 0x3000000
 8012de6:	f042 7280 	orr.w	r2, r2, #16777216	; 0x1000000
 8012dea:	601a      	str	r2, [r3, #0]
 8012dec:	685a      	ldr	r2, [r3, #4]
 8012dee:	f422 5280 	bic.w	r2, r2, #4096	; 0x1000
 8012df2:	605a      	str	r2, [r3, #4]
 8012df4:	689a      	ldr	r2, [r3, #8]
 8012df6:	f022 7240 	bic.w	r2, r2, #50331648	; 0x3000000
 8012dfa:	609a      	str	r2, [r3, #8]
 8012dfc:	68da      	ldr	r2, [r3, #12]
 8012dfe:	f022 7240 	bic.w	r2, r2, #50331648	; 0x3000000
 8012e02:	60da      	str	r2, [r3, #12]
 8012e04:	695a      	ldr	r2, [r3, #20]
 8012e06:	f422 5280 	bic.w	r2, r2, #4096	; 0x1000
 8012e0a:	615a      	str	r2, [r3, #20]
 8012e0c:	4770      	bx	lr
 8012e0e:	bf00      	nop
 8012e10:	40023800 	.word	0x40023800
 8012e14:	40020400 	.word	0x40020400

08012e18 <_ZN9osd_state7suspendEv>:
 8012e18:	b508      	push	{r3, lr}
 8012e1a:	f7fe fa45 	bl	80112a8 <vPortEnterCritical>
 8012e1e:	b672      	cpsid	i
 8012e20:	4b30      	ldr	r3, [pc, #192]	; (8012ee4 <_ZN9osd_state7suspendEv+0xcc>)
 8012e22:	6a1a      	ldr	r2, [r3, #32]
 8012e24:	f042 0240 	orr.w	r2, r2, #64	; 0x40
 8012e28:	621a      	str	r2, [r3, #32]
 8012e2a:	6a1a      	ldr	r2, [r3, #32]
 8012e2c:	f022 0240 	bic.w	r2, r2, #64	; 0x40
 8012e30:	621a      	str	r2, [r3, #32]
 8012e32:	6a5a      	ldr	r2, [r3, #36]	; 0x24
 8012e34:	f442 3280 	orr.w	r2, r2, #65536	; 0x10000
 8012e38:	625a      	str	r2, [r3, #36]	; 0x24
 8012e3a:	6a5a      	ldr	r2, [r3, #36]	; 0x24
 8012e3c:	f422 3280 	bic.w	r2, r2, #65536	; 0x10000
 8012e40:	625a      	str	r2, [r3, #36]	; 0x24
 8012e42:	6a1a      	ldr	r2, [r3, #32]
 8012e44:	f042 0201 	orr.w	r2, r2, #1
 8012e48:	621a      	str	r2, [r3, #32]
 8012e4a:	6a1a      	ldr	r2, [r3, #32]
 8012e4c:	f022 0201 	bic.w	r2, r2, #1
 8012e50:	621a      	str	r2, [r3, #32]
 8012e52:	6a1a      	ldr	r2, [r3, #32]
 8012e54:	f042 0202 	orr.w	r2, r2, #2
 8012e58:	621a      	str	r2, [r3, #32]
 8012e5a:	6a1a      	ldr	r2, [r3, #32]
 8012e5c:	f022 0202 	bic.w	r2, r2, #2
 8012e60:	621a      	str	r2, [r3, #32]
 8012e62:	6c1a      	ldr	r2, [r3, #64]	; 0x40
 8012e64:	f422 4240 	bic.w	r2, r2, #49152	; 0xc000
 8012e68:	641a      	str	r2, [r3, #64]	; 0x40
 8012e6a:	6a1a      	ldr	r2, [r3, #32]
 8012e6c:	f442 4240 	orr.w	r2, r2, #49152	; 0xc000
 8012e70:	621a      	str	r2, [r3, #32]
 8012e72:	6a1a      	ldr	r2, [r3, #32]
 8012e74:	f422 4240 	bic.w	r2, r2, #49152	; 0xc000
 8012e78:	621a      	str	r2, [r3, #32]
 8012e7a:	f7ff f93b 	bl	80120f4 <_ZN6detail15video_take_downEv>
 8012e7e:	b662      	cpsie	i
 8012e80:	f000 f938 	bl	80130f4 <_ZN6detail25reset_osd_swap_semaphoresEv>
 8012e84:	4a18      	ldr	r2, [pc, #96]	; (8012ee8 <_ZN9osd_state7suspendEv+0xd0>)
 8012e86:	6813      	ldr	r3, [r2, #0]
 8012e88:	07db      	lsls	r3, r3, #31
 8012e8a:	d506      	bpl.n	8012e9a <_ZN9osd_state7suspendEv+0x82>
 8012e8c:	6813      	ldr	r3, [r2, #0]
 8012e8e:	f023 0301 	bic.w	r3, r3, #1
 8012e92:	6013      	str	r3, [r2, #0]
 8012e94:	6813      	ldr	r3, [r2, #0]
 8012e96:	07d9      	lsls	r1, r3, #31
 8012e98:	d4f8      	bmi.n	8012e8c <_ZN9osd_state7suspendEv+0x74>
 8012e9a:	4a14      	ldr	r2, [pc, #80]	; (8012eec <_ZN9osd_state7suspendEv+0xd4>)
 8012e9c:	6813      	ldr	r3, [r2, #0]
 8012e9e:	07d8      	lsls	r0, r3, #31
 8012ea0:	d506      	bpl.n	8012eb0 <_ZN9osd_state7suspendEv+0x98>
 8012ea2:	6813      	ldr	r3, [r2, #0]
 8012ea4:	f023 0301 	bic.w	r3, r3, #1
 8012ea8:	6013      	str	r3, [r2, #0]
 8012eaa:	6813      	ldr	r3, [r2, #0]
 8012eac:	07db      	lsls	r3, r3, #31
 8012eae:	d4f8      	bmi.n	8012ea2 <_ZN9osd_state7suspendEv+0x8a>
 8012eb0:	4a0f      	ldr	r2, [pc, #60]	; (8012ef0 <_ZN9osd_state7suspendEv+0xd8>)
 8012eb2:	4810      	ldr	r0, [pc, #64]	; (8012ef4 <_ZN9osd_state7suspendEv+0xdc>)
 8012eb4:	68d3      	ldr	r3, [r2, #12]
 8012eb6:	4910      	ldr	r1, [pc, #64]	; (8012ef8 <_ZN9osd_state7suspendEv+0xe0>)
 8012eb8:	f443 6377 	orr.w	r3, r3, #3952	; 0xf70
 8012ebc:	f043 030d 	orr.w	r3, r3, #13
 8012ec0:	60d3      	str	r3, [r2, #12]
 8012ec2:	68d3      	ldr	r3, [r2, #12]
 8012ec4:	f423 6377 	bic.w	r3, r3, #3952	; 0xf70
 8012ec8:	f023 030d 	bic.w	r3, r3, #13
 8012ecc:	60d3      	str	r3, [r2, #12]
 8012ece:	2200      	movs	r2, #0
 8012ed0:	2302      	movs	r3, #2
 8012ed2:	7002      	strb	r2, [r0, #0]
 8012ed4:	700b      	strb	r3, [r1, #0]
 8012ed6:	f7fe fa09 	bl	80112ec <vPortExitCritical>
 8012eda:	f7ff fd29 	bl	8012930 <_ZN6detail8dac_busyEv>
 8012ede:	2800      	cmp	r0, #0
 8012ee0:	d1fb      	bne.n	8012eda <_ZN9osd_state7suspendEv+0xc2>
 8012ee2:	bd08      	pop	{r3, pc}
 8012ee4:	40023800 	.word	0x40023800
 8012ee8:	40026070 	.word	0x40026070
 8012eec:	40026088 	.word	0x40026088
 8012ef0:	40026000 	.word	0x40026000
 8012ef4:	10000df3 	.word	0x10000df3
 8012ef8:	10000014 	.word	0x10000014

08012efc <_ZN9osd_state3setENS_7state_tE>:
 8012efc:	b510      	push	{r4, lr}
 8012efe:	4c12      	ldr	r4, [pc, #72]	; (8012f48 <_ZN9osd_state3setENS_7state_tE+0x4c>)
 8012f00:	7823      	ldrb	r3, [r4, #0]
 8012f02:	4283      	cmp	r3, r0
 8012f04:	d010      	beq.n	8012f28 <_ZN9osd_state3setENS_7state_tE+0x2c>
 8012f06:	2801      	cmp	r0, #1
 8012f08:	d013      	beq.n	8012f32 <_ZN9osd_state3setENS_7state_tE+0x36>
 8012f0a:	d302      	bcc.n	8012f12 <_ZN9osd_state3setENS_7state_tE+0x16>
 8012f0c:	2802      	cmp	r0, #2
 8012f0e:	d00c      	beq.n	8012f2a <_ZN9osd_state3setENS_7state_tE+0x2e>
 8012f10:	bd10      	pop	{r4, pc}
 8012f12:	7823      	ldrb	r3, [r4, #0]
 8012f14:	2b02      	cmp	r3, #2
 8012f16:	d001      	beq.n	8012f1c <_ZN9osd_state3setENS_7state_tE+0x20>
 8012f18:	f7ff ff7e 	bl	8012e18 <_ZN9osd_state7suspendEv>
 8012f1c:	2300      	movs	r3, #0
 8012f1e:	7023      	strb	r3, [r4, #0]
 8012f20:	e8bd 4010 	ldmia.w	sp!, {r4, lr}
 8012f24:	f7ff b87a 	b.w	801201c <_ZN6detail11video_setupEv>
 8012f28:	bd10      	pop	{r4, pc}
 8012f2a:	e8bd 4010 	ldmia.w	sp!, {r4, lr}
 8012f2e:	f7ff bf73 	b.w	8012e18 <_ZN9osd_state7suspendEv>
 8012f32:	7823      	ldrb	r3, [r4, #0]
 8012f34:	2b02      	cmp	r3, #2
 8012f36:	d001      	beq.n	8012f3c <_ZN9osd_state3setENS_7state_tE+0x40>
 8012f38:	f7ff ff6e 	bl	8012e18 <_ZN9osd_state7suspendEv>
 8012f3c:	2301      	movs	r3, #1
 8012f3e:	7023      	strb	r3, [r4, #0]
 8012f40:	e8bd 4010 	ldmia.w	sp!, {r4, lr}
 8012f44:	f7ff b86a 	b.w	801201c <_ZN6detail11video_setupEv>
 8012f48:	10000014 	.word	0x10000014

08012f4c <NVIC_PriorityGroupConfig>:
 8012f4c:	f040 60bf 	orr.w	r0, r0, #100139008	; 0x5f80000
 8012f50:	4b02      	ldr	r3, [pc, #8]	; (8012f5c <NVIC_PriorityGroupConfig+0x10>)
 8012f52:	f440 3000 	orr.w	r0, r0, #131072	; 0x20000
 8012f56:	60d8      	str	r0, [r3, #12]
 8012f58:	4770      	bx	lr
 8012f5a:	bf00      	nop
 8012f5c:	e000ed00 	.word	0xe000ed00

08012f60 <_ZN13video_buffers4initEv>:
 8012f60:	4b3f      	ldr	r3, [pc, #252]	; (8013060 <_ZN13video_buffers4initEv+0x100>)
 8012f62:	4a40      	ldr	r2, [pc, #256]	; (8013064 <_ZN13video_buffers4initEv+0x104>)
 8012f64:	4940      	ldr	r1, [pc, #256]	; (8013068 <_ZN13video_buffers4initEv+0x108>)
 8012f66:	f5b3 1f80 	cmp.w	r3, #1048576	; 0x100000
 8012f6a:	bf36      	itet	cc
 8012f6c:	4b3f      	ldrcc	r3, [pc, #252]	; (801306c <_ZN13video_buffers4initEv+0x10c>)
 8012f6e:	2300      	movcs	r3, #0
 8012f70:	015b      	lslcc	r3, r3, #5
 8012f72:	f5b2 1f80 	cmp.w	r2, #1048576	; 0x100000
 8012f76:	e92d 41f0 	stmdb	sp!, {r4, r5, r6, r7, r8, lr}
 8012f7a:	4a3d      	ldr	r2, [pc, #244]	; (8013070 <_ZN13video_buffers4initEv+0x110>)
 8012f7c:	600b      	str	r3, [r1, #0]
 8012f7e:	bf38      	it	cc
 8012f80:	4b3c      	ldrcc	r3, [pc, #240]	; (8013074 <_ZN13video_buffers4initEv+0x114>)
 8012f82:	493d      	ldr	r1, [pc, #244]	; (8013078 <_ZN13video_buffers4initEv+0x118>)
 8012f84:	4f3d      	ldr	r7, [pc, #244]	; (801307c <_ZN13video_buffers4initEv+0x11c>)
 8012f86:	f8df 8124 	ldr.w	r8, [pc, #292]	; 80130ac <_ZN13video_buffers4initEv+0x14c>
 8012f8a:	4e3d      	ldr	r6, [pc, #244]	; (8013080 <_ZN13video_buffers4initEv+0x120>)
 8012f8c:	bf34      	ite	cc
 8012f8e:	015b      	lslcc	r3, r3, #5
 8012f90:	2300      	movcs	r3, #0
 8012f92:	f5b2 1f80 	cmp.w	r2, #1048576	; 0x100000
 8012f96:	600b      	str	r3, [r1, #0]
 8012f98:	bf38      	it	cc
 8012f9a:	4b3a      	ldrcc	r3, [pc, #232]	; (8013084 <_ZN13video_buffers4initEv+0x124>)
 8012f9c:	4a3a      	ldr	r2, [pc, #232]	; (8013088 <_ZN13video_buffers4initEv+0x128>)
 8012f9e:	493b      	ldr	r1, [pc, #236]	; (801308c <_ZN13video_buffers4initEv+0x12c>)
 8012fa0:	bf34      	ite	cc
 8012fa2:	015b      	lslcc	r3, r3, #5
 8012fa4:	2300      	movcs	r3, #0
 8012fa6:	600b      	str	r3, [r1, #0]
 8012fa8:	f5b2 1f80 	cmp.w	r2, #1048576	; 0x100000
 8012fac:	4938      	ldr	r1, [pc, #224]	; (8013090 <_ZN13video_buffers4initEv+0x130>)
 8012fae:	bf38      	it	cc
 8012fb0:	4a38      	ldrcc	r2, [pc, #224]	; (8013094 <_ZN13video_buffers4initEv+0x134>)
 8012fb2:	4b39      	ldr	r3, [pc, #228]	; (8013098 <_ZN13video_buffers4initEv+0x138>)
 8012fb4:	880c      	ldrh	r4, [r1, #0]
 8012fb6:	4939      	ldr	r1, [pc, #228]	; (801309c <_ZN13video_buffers4initEv+0x13c>)
 8012fb8:	881b      	ldrh	r3, [r3, #0]
 8012fba:	bf34      	ite	cc
 8012fbc:	0152      	lslcc	r2, r2, #5
 8012fbe:	2200      	movcs	r2, #0
 8012fc0:	600a      	str	r2, [r1, #0]
 8012fc2:	1b1c      	subs	r4, r3, r4
 8012fc4:	f7ff fac8 	bl	8012558 <_ZN4quan3uav3osd14get_video_modeEv>
 8012fc8:	2802      	cmp	r0, #2
 8012fca:	bf0c      	ite	eq
 8012fcc:	4b34      	ldreq	r3, [pc, #208]	; (80130a0 <_ZN13video_buffers4initEv+0x140>)
 8012fce:	4b35      	ldrne	r3, [pc, #212]	; (80130a4 <_ZN13video_buffers4initEv+0x144>)
 8012fd0:	4a35      	ldr	r2, [pc, #212]	; (80130a8 <_ZN13video_buffers4initEv+0x148>)
 8012fd2:	881b      	ldrh	r3, [r3, #0]
 8012fd4:	8812      	ldrh	r2, [r2, #0]
 8012fd6:	f898 1000 	ldrb.w	r1, [r8]
 8012fda:	f3c4 04cc 	ubfx	r4, r4, #3, #13
 8012fde:	00e4      	lsls	r4, r4, #3
 8012fe0:	603c      	str	r4, [r7, #0]
 8012fe2:	1a9a      	subs	r2, r3, r2
 8012fe4:	08e4      	lsrs	r4, r4, #3
 8012fe6:	f3c2 024e 	ubfx	r2, r2, #1, #15
 8012fea:	3401      	adds	r4, #1
 8012fec:	607a      	str	r2, [r7, #4]
 8012fee:	fb02 4504 	mla	r5, r2, r4, r4
 8012ff2:	b1a9      	cbz	r1, 8013020 <_ZN13video_buffers4initEv+0xc0>
 8012ff4:	6870      	ldr	r0, [r6, #4]
 8012ff6:	462a      	mov	r2, r5
 8012ff8:	3004      	adds	r0, #4
 8012ffa:	2100      	movs	r1, #0
 8012ffc:	f001 fa80 	bl	8014500 <memset>
 8013000:	687a      	ldr	r2, [r7, #4]
 8013002:	f898 3000 	ldrb.w	r3, [r8]
 8013006:	6870      	ldr	r0, [r6, #4]
 8013008:	fb02 4404 	mla	r4, r2, r4, r4
 801300c:	b1bb      	cbz	r3, 801303e <_ZN13video_buffers4initEv+0xde>
 801300e:	4622      	mov	r2, r4
 8013010:	3004      	adds	r0, #4
 8013012:	2100      	movs	r1, #0
 8013014:	f001 fa74 	bl	8014500 <memset>
 8013018:	2300      	movs	r3, #0
 801301a:	60b3      	str	r3, [r6, #8]
 801301c:	e8bd 81f0 	ldmia.w	sp!, {r4, r5, r6, r7, r8, pc}
 8013020:	6830      	ldr	r0, [r6, #0]
 8013022:	462a      	mov	r2, r5
 8013024:	21ff      	movs	r1, #255	; 0xff
 8013026:	3004      	adds	r0, #4
 8013028:	f001 fa6a 	bl	8014500 <memset>
 801302c:	6830      	ldr	r0, [r6, #0]
 801302e:	f500 5050 	add.w	r0, r0, #13312	; 0x3400
 8013032:	462a      	mov	r2, r5
 8013034:	21ff      	movs	r1, #255	; 0xff
 8013036:	3004      	adds	r0, #4
 8013038:	f001 fa62 	bl	8014500 <memset>
 801303c:	e7e0      	b.n	8013000 <_ZN13video_buffers4initEv+0xa0>
 801303e:	21ff      	movs	r1, #255	; 0xff
 8013040:	4622      	mov	r2, r4
 8013042:	3004      	adds	r0, #4
 8013044:	f001 fa5c 	bl	8014500 <memset>
 8013048:	6870      	ldr	r0, [r6, #4]
 801304a:	f500 5050 	add.w	r0, r0, #13312	; 0x3400
 801304e:	4622      	mov	r2, r4
 8013050:	3004      	adds	r0, #4
 8013052:	21ff      	movs	r1, #255	; 0xff
 8013054:	f001 fa54 	bl	8014500 <memset>
 8013058:	2300      	movs	r3, #0
 801305a:	60b3      	str	r3, [r6, #8]
 801305c:	e8bd 81f0 	ldmia.w	sp!, {r4, r5, r6, r7, r8, pc}
 8013060:	00012004 	.word	0x00012004
 8013064:	00015404 	.word	0x00015404
 8013068:	20012000 	.word	0x20012000
 801306c:	21112004 	.word	0x21112004
 8013070:	00018804 	.word	0x00018804
 8013074:	21115404 	.word	0x21115404
 8013078:	20015400 	.word	0x20015400
 801307c:	10000e04 	.word	0x10000e04
 8013080:	10000df4 	.word	0x10000df4
 8013084:	21118804 	.word	0x21118804
 8013088:	0001bc04 	.word	0x0001bc04
 801308c:	20018800 	.word	0x20018800
 8013090:	1000001a 	.word	0x1000001a
 8013094:	2111bc04 	.word	0x2111bc04
 8013098:	1000001c 	.word	0x1000001c
 801309c:	2001bc00 	.word	0x2001bc00
 80130a0:	10000022 	.word	0x10000022
 80130a4:	1000001e 	.word	0x1000001e
 80130a8:	10000028 	.word	0x10000028
 80130ac:	10000014 	.word	0x10000014

080130b0 <_GLOBAL__sub_I__ZN13video_buffers3osd9m_buffersE>:
 80130b0:	4904      	ldr	r1, [pc, #16]	; (80130c4 <_GLOBAL__sub_I__ZN13video_buffers3osd9m_buffersE+0x14>)
 80130b2:	4b05      	ldr	r3, [pc, #20]	; (80130c8 <_GLOBAL__sub_I__ZN13video_buffers3osd9m_buffersE+0x18>)
 80130b4:	2200      	movs	r2, #0
 80130b6:	f501 40d0 	add.w	r0, r1, #26624	; 0x6800
 80130ba:	6019      	str	r1, [r3, #0]
 80130bc:	609a      	str	r2, [r3, #8]
 80130be:	6058      	str	r0, [r3, #4]
 80130c0:	731a      	strb	r2, [r3, #12]
 80130c2:	4770      	bx	lr
 80130c4:	20012000 	.word	0x20012000
 80130c8:	10000df4 	.word	0x10000df4

080130cc <_ZN6detail26create_osd_swap_semaphoresEv>:
 80130cc:	b508      	push	{r3, lr}
 80130ce:	2100      	movs	r1, #0
 80130d0:	2203      	movs	r2, #3
 80130d2:	2001      	movs	r0, #1
 80130d4:	f7fe fb4e 	bl	8011774 <xQueueGenericCreate>
 80130d8:	4b04      	ldr	r3, [pc, #16]	; (80130ec <_ZN6detail26create_osd_swap_semaphoresEv+0x20>)
 80130da:	2100      	movs	r1, #0
 80130dc:	6018      	str	r0, [r3, #0]
 80130de:	2203      	movs	r2, #3
 80130e0:	2001      	movs	r0, #1
 80130e2:	f7fe fb47 	bl	8011774 <xQueueGenericCreate>
 80130e6:	4b02      	ldr	r3, [pc, #8]	; (80130f0 <_ZN6detail26create_osd_swap_semaphoresEv+0x24>)
 80130e8:	6018      	str	r0, [r3, #0]
 80130ea:	bd08      	pop	{r3, pc}
 80130ec:	10000e14 	.word	0x10000e14
 80130f0:	10000e10 	.word	0x10000e10

080130f4 <_ZN6detail25reset_osd_swap_semaphoresEv>:
 80130f4:	b508      	push	{r3, lr}
 80130f6:	4b06      	ldr	r3, [pc, #24]	; (8013110 <_ZN6detail25reset_osd_swap_semaphoresEv+0x1c>)
 80130f8:	2100      	movs	r1, #0
 80130fa:	6818      	ldr	r0, [r3, #0]
 80130fc:	f7fe faf2 	bl	80116e4 <xQueueGenericReset>
 8013100:	4b04      	ldr	r3, [pc, #16]	; (8013114 <_ZN6detail25reset_osd_swap_semaphoresEv+0x20>)
 8013102:	2100      	movs	r1, #0
 8013104:	6818      	ldr	r0, [r3, #0]
 8013106:	e8bd 4008 	ldmia.w	sp!, {r3, lr}
 801310a:	f7fe baeb 	b.w	80116e4 <xQueueGenericReset>
 801310e:	bf00      	nop
 8013110:	10000e14 	.word	0x10000e14
 8013114:	10000e10 	.word	0x10000e10

08013118 <_ZN6detail16swap_osd_buffersERKN4quan14fixed_quantityINS0_4meta4unitINS2_17abstract_quantityINS2_9dimensionINS2_8rationalILx0ELx1EEENS6_ILx1ELx1EEES7_S7_S7_S7_S7_EENS2_10components7of_timeEEENS2_17conversion_factorINS6_ILxn3ELx1EEES8_NS2_5int32ILl0EEEEEEEfEE>:
 8013118:	4b1f      	ldr	r3, [pc, #124]	; (8013198 <_ZN6detail16swap_osd_buffersERKN4quan14fixed_quantityINS0_4meta4unitINS2_17abstract_quantityINS2_9dimensionINS2_8rationalILx0ELx1EEENS6_ILx1ELx1EEES7_S7_S7_S7_S7_EENS2_10components7of_timeEEENS2_17conversion_factorINS6_ILxn3ELx1EEES8_NS2_5int32ILl0EEEEEEEfEE+0x80>)
 801311a:	2100      	movs	r1, #0
 801311c:	b570      	push	{r4, r5, r6, lr}
 801311e:	460a      	mov	r2, r1
 8013120:	4604      	mov	r4, r0
 8013122:	6818      	ldr	r0, [r3, #0]
 8013124:	460b      	mov	r3, r1
 8013126:	f7fe fb71 	bl	801180c <xQueueGenericSend>
 801312a:	2801      	cmp	r0, #1
 801312c:	d001      	beq.n	8013132 <_ZN6detail16swap_osd_buffersERKN4quan14fixed_quantityINS0_4meta4unitINS2_17abstract_quantityINS2_9dimensionINS2_8rationalILx0ELx1EEENS6_ILx1ELx1EEES7_S7_S7_S7_S7_EENS2_10components7of_timeEEENS2_17conversion_factorINS6_ILxn3ELx1EEES8_NS2_5int32ILl0EEEEEEEfEE+0x1a>
 801312e:	2000      	movs	r0, #0
 8013130:	bd70      	pop	{r4, r5, r6, pc}
 8013132:	edd4 7a00 	vldr	s15, [r4]
 8013136:	4b19      	ldr	r3, [pc, #100]	; (801319c <_ZN6detail16swap_osd_buffersERKN4quan14fixed_quantityINS0_4meta4unitINS2_17abstract_quantityINS2_9dimensionINS2_8rationalILx0ELx1EEENS6_ILx1ELx1EEES7_S7_S7_S7_S7_EENS2_10components7of_timeEEENS2_17conversion_factorINS6_ILxn3ELx1EEES8_NS2_5int32ILl0EEEEEEEfEE+0x84>)
 8013138:	eefc 7ae7 	vcvt.u32.f32	s15, s15
 801313c:	2100      	movs	r1, #0
 801313e:	6818      	ldr	r0, [r3, #0]
 8013140:	ee17 2a90 	vmov	r2, s15
 8013144:	460b      	mov	r3, r1
 8013146:	f7fe fd59 	bl	8011bfc <xQueueGenericReceive>
 801314a:	2801      	cmp	r0, #1
 801314c:	4604      	mov	r4, r0
 801314e:	d1ee      	bne.n	801312e <_ZN6detail16swap_osd_buffersERKN4quan14fixed_quantityINS0_4meta4unitINS2_17abstract_quantityINS2_9dimensionINS2_8rationalILx0ELx1EEENS6_ILx1ELx1EEES7_S7_S7_S7_S7_EENS2_10components7of_timeEEENS2_17conversion_factorINS6_ILxn3ELx1EEES8_NS2_5int32ILl0EEEEEEEfEE+0x16>
 8013150:	4b13      	ldr	r3, [pc, #76]	; (80131a0 <_ZN6detail16swap_osd_buffersERKN4quan14fixed_quantityINS0_4meta4unitINS2_17abstract_quantityINS2_9dimensionINS2_8rationalILx0ELx1EEENS6_ILx1ELx1EEES7_S7_S7_S7_S7_EENS2_10components7of_timeEEENS2_17conversion_factorINS6_ILxn3ELx1EEES8_NS2_5int32ILl0EEEEEEEfEE+0x88>)
 8013152:	4a14      	ldr	r2, [pc, #80]	; (80131a4 <_ZN6detail16swap_osd_buffersERKN4quan14fixed_quantityINS0_4meta4unitINS2_17abstract_quantityINS2_9dimensionINS2_8rationalILx0ELx1EEENS6_ILx1ELx1EEES7_S7_S7_S7_S7_EENS2_10components7of_timeEEENS2_17conversion_factorINS6_ILxn3ELx1EEES8_NS2_5int32ILl0EEEEEEEfEE+0x8c>)
 8013154:	681d      	ldr	r5, [r3, #0]
 8013156:	685b      	ldr	r3, [r3, #4]
 8013158:	7811      	ldrb	r1, [r2, #0]
 801315a:	08ed      	lsrs	r5, r5, #3
 801315c:	1c5a      	adds	r2, r3, #1
 801315e:	fb05 2502 	mla	r5, r5, r2, r2
 8013162:	b141      	cbz	r1, 8013176 <_ZN6detail16swap_osd_buffersERKN4quan14fixed_quantityINS0_4meta4unitINS2_17abstract_quantityINS2_9dimensionINS2_8rationalILx0ELx1EEENS6_ILx1ELx1EEES7_S7_S7_S7_S7_EENS2_10components7of_timeEEENS2_17conversion_factorINS6_ILxn3ELx1EEES8_NS2_5int32ILl0EEEEEEEfEE+0x5e>
 8013164:	4b10      	ldr	r3, [pc, #64]	; (80131a8 <_ZN6detail16swap_osd_buffersERKN4quan14fixed_quantityINS0_4meta4unitINS2_17abstract_quantityINS2_9dimensionINS2_8rationalILx0ELx1EEENS6_ILx1ELx1EEES7_S7_S7_S7_S7_EENS2_10components7of_timeEEENS2_17conversion_factorINS6_ILxn3ELx1EEES8_NS2_5int32ILl0EEEEEEEfEE+0x90>)
 8013166:	6858      	ldr	r0, [r3, #4]
 8013168:	462a      	mov	r2, r5
 801316a:	2100      	movs	r1, #0
 801316c:	3004      	adds	r0, #4
 801316e:	f001 f9c7 	bl	8014500 <memset>
 8013172:	4620      	mov	r0, r4
 8013174:	bd70      	pop	{r4, r5, r6, pc}
 8013176:	4e0c      	ldr	r6, [pc, #48]	; (80131a8 <_ZN6detail16swap_osd_buffersERKN4quan14fixed_quantityINS0_4meta4unitINS2_17abstract_quantityINS2_9dimensionINS2_8rationalILx0ELx1EEENS6_ILx1ELx1EEES7_S7_S7_S7_S7_EENS2_10components7of_timeEEENS2_17conversion_factorINS6_ILxn3ELx1EEES8_NS2_5int32ILl0EEEEEEEfEE+0x90>)
 8013178:	6870      	ldr	r0, [r6, #4]
 801317a:	462a      	mov	r2, r5
 801317c:	21ff      	movs	r1, #255	; 0xff
 801317e:	3004      	adds	r0, #4
 8013180:	f001 f9be 	bl	8014500 <memset>
 8013184:	6870      	ldr	r0, [r6, #4]
 8013186:	f500 5050 	add.w	r0, r0, #13312	; 0x3400
 801318a:	462a      	mov	r2, r5
 801318c:	21ff      	movs	r1, #255	; 0xff
 801318e:	3004      	adds	r0, #4
 8013190:	f001 f9b6 	bl	8014500 <memset>
 8013194:	4620      	mov	r0, r4
 8013196:	bd70      	pop	{r4, r5, r6, pc}
 8013198:	10000e14 	.word	0x10000e14
 801319c:	10000e10 	.word	0x10000e10
 80131a0:	10000e04 	.word	0x10000e04
 80131a4:	10000014 	.word	0x10000014
 80131a8:	10000df4 	.word	0x10000df4

080131ac <_ZN6detail16swap_osd_buffersEv>:
 80131ac:	b538      	push	{r3, r4, r5, lr}
 80131ae:	4b1c      	ldr	r3, [pc, #112]	; (8013220 <_ZN6detail16swap_osd_buffersEv+0x74>)
 80131b0:	2100      	movs	r1, #0
 80131b2:	6818      	ldr	r0, [r3, #0]
 80131b4:	460a      	mov	r2, r1
 80131b6:	460b      	mov	r3, r1
 80131b8:	f7fe fb28 	bl	801180c <xQueueGenericSend>
 80131bc:	2801      	cmp	r0, #1
 80131be:	d000      	beq.n	80131c2 <_ZN6detail16swap_osd_buffersEv+0x16>
 80131c0:	bd38      	pop	{r3, r4, r5, pc}
 80131c2:	4b18      	ldr	r3, [pc, #96]	; (8013224 <_ZN6detail16swap_osd_buffersEv+0x78>)
 80131c4:	2100      	movs	r1, #0
 80131c6:	6818      	ldr	r0, [r3, #0]
 80131c8:	f04f 32ff 	mov.w	r2, #4294967295
 80131cc:	460b      	mov	r3, r1
 80131ce:	f7fe fd15 	bl	8011bfc <xQueueGenericReceive>
 80131d2:	2801      	cmp	r0, #1
 80131d4:	d1f4      	bne.n	80131c0 <_ZN6detail16swap_osd_buffersEv+0x14>
 80131d6:	4a14      	ldr	r2, [pc, #80]	; (8013228 <_ZN6detail16swap_osd_buffersEv+0x7c>)
 80131d8:	4914      	ldr	r1, [pc, #80]	; (801322c <_ZN6detail16swap_osd_buffersEv+0x80>)
 80131da:	e892 0018 	ldmia.w	r2, {r3, r4}
 80131de:	780a      	ldrb	r2, [r1, #0]
 80131e0:	08db      	lsrs	r3, r3, #3
 80131e2:	3401      	adds	r4, #1
 80131e4:	fb03 4404 	mla	r4, r3, r4, r4
 80131e8:	b142      	cbz	r2, 80131fc <_ZN6detail16swap_osd_buffersEv+0x50>
 80131ea:	4b11      	ldr	r3, [pc, #68]	; (8013230 <_ZN6detail16swap_osd_buffersEv+0x84>)
 80131ec:	6858      	ldr	r0, [r3, #4]
 80131ee:	4622      	mov	r2, r4
 80131f0:	3004      	adds	r0, #4
 80131f2:	2100      	movs	r1, #0
 80131f4:	e8bd 4038 	ldmia.w	sp!, {r3, r4, r5, lr}
 80131f8:	f001 b982 	b.w	8014500 <memset>
 80131fc:	4d0c      	ldr	r5, [pc, #48]	; (8013230 <_ZN6detail16swap_osd_buffersEv+0x84>)
 80131fe:	6868      	ldr	r0, [r5, #4]
 8013200:	4622      	mov	r2, r4
 8013202:	21ff      	movs	r1, #255	; 0xff
 8013204:	3004      	adds	r0, #4
 8013206:	f001 f97b 	bl	8014500 <memset>
 801320a:	6868      	ldr	r0, [r5, #4]
 801320c:	f500 5050 	add.w	r0, r0, #13312	; 0x3400
 8013210:	4622      	mov	r2, r4
 8013212:	3004      	adds	r0, #4
 8013214:	21ff      	movs	r1, #255	; 0xff
 8013216:	e8bd 4038 	ldmia.w	sp!, {r3, r4, r5, lr}
 801321a:	f001 b971 	b.w	8014500 <memset>
 801321e:	bf00      	nop
 8013220:	10000e14 	.word	0x10000e14
 8013224:	10000e10 	.word	0x10000e10
 8013228:	10000e04 	.word	0x10000e04
 801322c:	10000014 	.word	0x10000014
 8013230:	10000df4 	.word	0x10000df4

08013234 <_ZN9video_cfg7columns3osd6enableEv>:
 8013234:	4b2b      	ldr	r3, [pc, #172]	; (80132e4 <_ZN9video_cfg7columns3osd6enableEv+0xb0>)
 8013236:	492c      	ldr	r1, [pc, #176]	; (80132e8 <_ZN9video_cfg7columns3osd6enableEv+0xb4>)
 8013238:	881b      	ldrh	r3, [r3, #0]
 801323a:	f8df c0cc 	ldr.w	ip, [pc, #204]	; 8013308 <_ZN9video_cfg7columns3osd6enableEv+0xd4>
 801323e:	482b      	ldr	r0, [pc, #172]	; (80132ec <_ZN9video_cfg7columns3osd6enableEv+0xb8>)
 8013240:	f3c3 030e 	ubfx	r3, r3, #0, #15
 8013244:	e92d 43f0 	stmdb	sp!, {r4, r5, r6, r7, r8, r9, lr}
 8013248:	ea4f 0e43 	mov.w	lr, r3, lsl #1
 801324c:	f8df 80bc 	ldr.w	r8, [pc, #188]	; 801330c <_ZN9video_cfg7columns3osd6enableEv+0xd8>
 8013250:	4e27      	ldr	r6, [pc, #156]	; (80132f0 <_ZN9video_cfg7columns3osd6enableEv+0xbc>)
 8013252:	4f28      	ldr	r7, [pc, #160]	; (80132f4 <_ZN9video_cfg7columns3osd6enableEv+0xc0>)
 8013254:	4d28      	ldr	r5, [pc, #160]	; (80132f8 <_ZN9video_cfg7columns3osd6enableEv+0xc4>)
 8013256:	6800      	ldr	r0, [r0, #0]
 8013258:	2400      	movs	r4, #0
 801325a:	f10e 3eff 	add.w	lr, lr, #4294967295
 801325e:	f103 39ff 	add.w	r9, r3, #4294967295
 8013262:	624c      	str	r4, [r1, #36]	; 0x24
 8013264:	f8c1 e02c 	str.w	lr, [r1, #44]	; 0x2c
 8013268:	f8c1 9034 	str.w	r9, [r1, #52]	; 0x34
 801326c:	f8b8 1000 	ldrh.w	r1, [r8]
 8013270:	f04f 4280 	mov.w	r2, #1073741824	; 0x40000000
 8013274:	fb03 f101 	mul.w	r1, r3, r1
 8013278:	3901      	subs	r1, #1
 801327a:	6254      	str	r4, [r2, #36]	; 0x24
 801327c:	6411      	str	r1, [r2, #64]	; 0x40
 801327e:	f8bc 1000 	ldrh.w	r1, [ip]
 8013282:	3107      	adds	r1, #7
 8013284:	fb03 f301 	mul.w	r3, r3, r1
 8013288:	3b01      	subs	r3, #1
 801328a:	62d3      	str	r3, [r2, #44]	; 0x2c
 801328c:	6893      	ldr	r3, [r2, #8]
 801328e:	2101      	movs	r1, #1
 8013290:	f043 0306 	orr.w	r3, r3, #6
 8013294:	6093      	str	r3, [r2, #8]
 8013296:	b083      	sub	sp, #12
 8013298:	603c      	str	r4, [r7, #0]
 801329a:	4622      	mov	r2, r4
 801329c:	6031      	str	r1, [r6, #0]
 801329e:	4621      	mov	r1, r4
 80132a0:	602c      	str	r4, [r5, #0]
 80132a2:	f7fe fdeb 	bl	8011e7c <xQueueReceiveFromISR>
 80132a6:	2801      	cmp	r0, #1
 80132a8:	4e14      	ldr	r6, [pc, #80]	; (80132fc <_ZN9video_cfg7columns3osd6enableEv+0xc8>)
 80132aa:	d00e      	beq.n	80132ca <_ZN9video_cfg7columns3osd6enableEv+0x96>
 80132ac:	682b      	ldr	r3, [r5, #0]
 80132ae:	2200      	movs	r2, #0
 80132b0:	60b2      	str	r2, [r6, #8]
 80132b2:	b13b      	cbz	r3, 80132c4 <_ZN9video_cfg7columns3osd6enableEv+0x90>
 80132b4:	4b12      	ldr	r3, [pc, #72]	; (8013300 <_ZN9video_cfg7columns3osd6enableEv+0xcc>)
 80132b6:	f04f 5280 	mov.w	r2, #268435456	; 0x10000000
 80132ba:	601a      	str	r2, [r3, #0]
 80132bc:	f3bf 8f4f 	dsb	sy
 80132c0:	f3bf 8f6f 	isb	sy
 80132c4:	b003      	add	sp, #12
 80132c6:	e8bd 83f0 	ldmia.w	sp!, {r4, r5, r6, r7, r8, r9, pc}
 80132ca:	6833      	ldr	r3, [r6, #0]
 80132cc:	9301      	str	r3, [sp, #4]
 80132ce:	6873      	ldr	r3, [r6, #4]
 80132d0:	6033      	str	r3, [r6, #0]
 80132d2:	4a0c      	ldr	r2, [pc, #48]	; (8013304 <_ZN9video_cfg7columns3osd6enableEv+0xd0>)
 80132d4:	9b01      	ldr	r3, [sp, #4]
 80132d6:	6073      	str	r3, [r6, #4]
 80132d8:	6810      	ldr	r0, [r2, #0]
 80132da:	7334      	strb	r4, [r6, #12]
 80132dc:	4629      	mov	r1, r5
 80132de:	f7fe fc39 	bl	8011b54 <xQueueGiveFromISR>
 80132e2:	e7e3      	b.n	80132ac <_ZN9video_cfg7columns3osd6enableEv+0x78>
 80132e4:	1000002a 	.word	0x1000002a
 80132e8:	40014000 	.word	0x40014000
 80132ec:	10000e14 	.word	0x10000e14
 80132f0:	42000198 	.word	0x42000198
 80132f4:	42000218 	.word	0x42000218
 80132f8:	10000e0c 	.word	0x10000e0c
 80132fc:	10000df4 	.word	0x10000df4
 8013300:	e000ed04 	.word	0xe000ed04
 8013304:	10000e10 	.word	0x10000e10
 8013308:	1000001c 	.word	0x1000001c
 801330c:	1000001a 	.word	0x1000001a

08013310 <_ZN9video_cfg7columns3osd7disableEv>:
 8013310:	f04f 4180 	mov.w	r1, #1073741824	; 0x40000000
 8013314:	b410      	push	{r4}
 8013316:	688b      	ldr	r3, [r1, #8]
 8013318:	4c05      	ldr	r4, [pc, #20]	; (8013330 <_ZN9video_cfg7columns3osd7disableEv+0x20>)
 801331a:	4806      	ldr	r0, [pc, #24]	; (8013334 <_ZN9video_cfg7columns3osd7disableEv+0x24>)
 801331c:	2200      	movs	r2, #0
 801331e:	f023 0307 	bic.w	r3, r3, #7
 8013322:	608b      	str	r3, [r1, #8]
 8013324:	6022      	str	r2, [r4, #0]
 8013326:	6002      	str	r2, [r0, #0]
 8013328:	f85d 4b04 	ldr.w	r4, [sp], #4
 801332c:	4770      	bx	lr
 801332e:	bf00      	nop
 8013330:	42000218 	.word	0x42000218
 8013334:	42000198 	.word	0x42000198

08013338 <_ZN9video_cfg7columns5telem6enableEv>:
 8013338:	4b10      	ldr	r3, [pc, #64]	; (801337c <_ZN9video_cfg7columns5telem6enableEv+0x44>)
 801333a:	4911      	ldr	r1, [pc, #68]	; (8013380 <_ZN9video_cfg7columns5telem6enableEv+0x48>)
 801333c:	881b      	ldrh	r3, [r3, #0]
 801333e:	8809      	ldrh	r1, [r1, #0]
 8013340:	f3c3 030e 	ubfx	r3, r3, #0, #15
 8013344:	b470      	push	{r4, r5, r6}
 8013346:	f04f 4280 	mov.w	r2, #1073741824	; 0x40000000
 801334a:	4e0e      	ldr	r6, [pc, #56]	; (8013384 <_ZN9video_cfg7columns5telem6enableEv+0x4c>)
 801334c:	4d0e      	ldr	r5, [pc, #56]	; (8013388 <_ZN9video_cfg7columns5telem6enableEv+0x50>)
 801334e:	4c0f      	ldr	r4, [pc, #60]	; (801338c <_ZN9video_cfg7columns5telem6enableEv+0x54>)
 8013350:	fb03 f101 	mul.w	r1, r3, r1
 8013354:	2000      	movs	r0, #0
 8013356:	3901      	subs	r1, #1
 8013358:	6250      	str	r0, [r2, #36]	; 0x24
 801335a:	6411      	str	r1, [r2, #64]	; 0x40
 801335c:	8831      	ldrh	r1, [r6, #0]
 801335e:	3901      	subs	r1, #1
 8013360:	fb03 f301 	mul.w	r3, r3, r1
 8013364:	3b01      	subs	r3, #1
 8013366:	2101      	movs	r1, #1
 8013368:	62d3      	str	r3, [r2, #44]	; 0x2c
 801336a:	6028      	str	r0, [r5, #0]
 801336c:	6021      	str	r1, [r4, #0]
 801336e:	6893      	ldr	r3, [r2, #8]
 8013370:	f043 0306 	orr.w	r3, r3, #6
 8013374:	6093      	str	r3, [r2, #8]
 8013376:	bc70      	pop	{r4, r5, r6}
 8013378:	4770      	bx	lr
 801337a:	bf00      	nop
 801337c:	1000002c 	.word	0x1000002c
 8013380:	10000016 	.word	0x10000016
 8013384:	10000018 	.word	0x10000018
 8013388:	42000218 	.word	0x42000218
 801338c:	42000198 	.word	0x42000198

08013390 <_ZN9video_cfg7columns5telem7disableEv>:
 8013390:	f04f 4180 	mov.w	r1, #1073741824	; 0x40000000
 8013394:	b410      	push	{r4}
 8013396:	688b      	ldr	r3, [r1, #8]
 8013398:	4c05      	ldr	r4, [pc, #20]	; (80133b0 <_ZN9video_cfg7columns5telem7disableEv+0x20>)
 801339a:	4806      	ldr	r0, [pc, #24]	; (80133b4 <_ZN9video_cfg7columns5telem7disableEv+0x24>)
 801339c:	2200      	movs	r2, #0
 801339e:	f023 0307 	bic.w	r3, r3, #7
 80133a2:	608b      	str	r3, [r1, #8]
 80133a4:	6022      	str	r2, [r4, #0]
 80133a6:	6002      	str	r2, [r0, #0]
 80133a8:	f85d 4b04 	ldr.w	r4, [sp], #4
 80133ac:	4770      	bx	lr
 80133ae:	bf00      	nop
 80133b0:	42000218 	.word	0x42000218
 80133b4:	42000198 	.word	0x42000198

080133b8 <_ZN9video_cfg7columns3osd5beginEv>:
 80133b8:	4869      	ldr	r0, [pc, #420]	; (8013560 <_ZN9video_cfg7columns3osd5beginEv+0x1a8>)
 80133ba:	4a6a      	ldr	r2, [pc, #424]	; (8013564 <_ZN9video_cfg7columns3osd5beginEv+0x1ac>)
 80133bc:	7803      	ldrb	r3, [r0, #0]
 80133be:	e92d 4ff0 	stmdb	sp!, {r4, r5, r6, r7, r8, r9, sl, fp, lr}
 80133c2:	f003 07ff 	and.w	r7, r3, #255	; 0xff
 80133c6:	2b00      	cmp	r3, #0
 80133c8:	d053      	beq.n	8013472 <_ZN9video_cfg7columns3osd5beginEv+0xba>
 80133ca:	4967      	ldr	r1, [pc, #412]	; (8013568 <_ZN9video_cfg7columns3osd5beginEv+0x1b0>)
 80133cc:	4b67      	ldr	r3, [pc, #412]	; (801356c <_ZN9video_cfg7columns3osd5beginEv+0x1b4>)
 80133ce:	f8b1 c000 	ldrh.w	ip, [r1]
 80133d2:	8812      	ldrh	r2, [r2, #0]
 80133d4:	681e      	ldr	r6, [r3, #0]
 80133d6:	6899      	ldr	r1, [r3, #8]
 80133d8:	f8df e1b0 	ldr.w	lr, [pc, #432]	; 801358c <_ZN9video_cfg7columns3osd5beginEv+0x1d4>
 80133dc:	4f64      	ldr	r7, [pc, #400]	; (8013570 <_ZN9video_cfg7columns3osd5beginEv+0x1b8>)
 80133de:	4b65      	ldr	r3, [pc, #404]	; (8013574 <_ZN9video_cfg7columns3osd5beginEv+0x1bc>)
 80133e0:	4c65      	ldr	r4, [pc, #404]	; (8013578 <_ZN9video_cfg7columns3osd5beginEv+0x1c0>)
 80133e2:	4d66      	ldr	r5, [pc, #408]	; (801357c <_ZN9video_cfg7columns3osd5beginEv+0x1c4>)
 80133e4:	ebcc 0202 	rsb	r2, ip, r2
 80133e8:	f3c2 02cc 	ubfx	r2, r2, #3, #13
 80133ec:	4431      	add	r1, r6
 80133ee:	f102 0c01 	add.w	ip, r2, #1
 80133f2:	f101 0804 	add.w	r8, r1, #4
 80133f6:	f101 0905 	add.w	r9, r1, #5
 80133fa:	f818 600c 	ldrb.w	r6, [r8, ip]
 80133fe:	f026 060f 	bic.w	r6, r6, #15
 8013402:	f808 600c 	strb.w	r6, [r8, ip]
 8013406:	f8ce 900c 	str.w	r9, [lr, #12]
 801340a:	f8ce 2004 	str.w	r2, [lr, #4]
 801340e:	68fa      	ldr	r2, [r7, #12]
 8013410:	f442 6277 	orr.w	r2, r2, #3952	; 0xf70
 8013414:	f042 020d 	orr.w	r2, r2, #13
 8013418:	60fa      	str	r2, [r7, #12]
 801341a:	6c1a      	ldr	r2, [r3, #64]	; 0x40
 801341c:	f442 4240 	orr.w	r2, r2, #49152	; 0xc000
 8013420:	641a      	str	r2, [r3, #64]	; 0x40
 8013422:	6a1a      	ldr	r2, [r3, #32]
 8013424:	f442 4240 	orr.w	r2, r2, #49152	; 0xc000
 8013428:	621a      	str	r2, [r3, #32]
 801342a:	6a1a      	ldr	r2, [r3, #32]
 801342c:	f24c 3780 	movw	r7, #50048	; 0xc380
 8013430:	f422 4240 	bic.w	r2, r2, #49152	; 0xc000
 8013434:	2602      	movs	r6, #2
 8013436:	f04f 0e00 	mov.w	lr, #0
 801343a:	621a      	str	r2, [r3, #32]
 801343c:	6027      	str	r7, [r4, #0]
 801343e:	6066      	str	r6, [r4, #4]
 8013440:	f8c5 e000 	str.w	lr, [r5]
 8013444:	7803      	ldrb	r3, [r0, #0]
 8013446:	f003 02ff 	and.w	r2, r3, #255	; 0xff
 801344a:	b923      	cbnz	r3, 8013456 <_ZN9video_cfg7columns3osd5beginEv+0x9e>
 801344c:	4b4c      	ldr	r3, [pc, #304]	; (8013580 <_ZN9video_cfg7columns3osd5beginEv+0x1c8>)
 801344e:	484d      	ldr	r0, [pc, #308]	; (8013584 <_ZN9video_cfg7columns3osd5beginEv+0x1cc>)
 8013450:	601f      	str	r7, [r3, #0]
 8013452:	605e      	str	r6, [r3, #4]
 8013454:	6002      	str	r2, [r0, #0]
 8013456:	790b      	ldrb	r3, [r1, #4]
 8013458:	4c47      	ldr	r4, [pc, #284]	; (8013578 <_ZN9video_cfg7columns3osd5beginEv+0x1c0>)
 801345a:	494b      	ldr	r1, [pc, #300]	; (8013588 <_ZN9video_cfg7columns3osd5beginEv+0x1d0>)
 801345c:	4a4b      	ldr	r2, [pc, #300]	; (801358c <_ZN9video_cfg7columns3osd5beginEv+0x1d4>)
 801345e:	f003 03fe 	and.w	r3, r3, #254	; 0xfe
 8013462:	2001      	movs	r0, #1
 8013464:	81a3      	strh	r3, [r4, #12]
 8013466:	6008      	str	r0, [r1, #0]
 8013468:	6813      	ldr	r3, [r2, #0]
 801346a:	4303      	orrs	r3, r0
 801346c:	6013      	str	r3, [r2, #0]
 801346e:	e8bd 8ff0 	ldmia.w	sp!, {r4, r5, r6, r7, r8, r9, sl, fp, pc}
 8013472:	4b3d      	ldr	r3, [pc, #244]	; (8013568 <_ZN9video_cfg7columns3osd5beginEv+0x1b0>)
 8013474:	493d      	ldr	r1, [pc, #244]	; (801356c <_ZN9video_cfg7columns3osd5beginEv+0x1b4>)
 8013476:	881c      	ldrh	r4, [r3, #0]
 8013478:	8812      	ldrh	r2, [r2, #0]
 801347a:	680d      	ldr	r5, [r1, #0]
 801347c:	688b      	ldr	r3, [r1, #8]
 801347e:	f8d1 e000 	ldr.w	lr, [r1]
 8013482:	f8df 8110 	ldr.w	r8, [pc, #272]	; 8013594 <_ZN9video_cfg7columns3osd5beginEv+0x1dc>
 8013486:	f8df 9104 	ldr.w	r9, [pc, #260]	; 801358c <_ZN9video_cfg7columns3osd5beginEv+0x1d4>
 801348a:	f8df c0e4 	ldr.w	ip, [pc, #228]	; 8013570 <_ZN9video_cfg7columns3osd5beginEv+0x1b8>
 801348e:	4939      	ldr	r1, [pc, #228]	; (8013574 <_ZN9video_cfg7columns3osd5beginEv+0x1bc>)
 8013490:	1b12      	subs	r2, r2, r4
 8013492:	f3c2 02cc 	ubfx	r2, r2, #3, #13
 8013496:	441d      	add	r5, r3
 8013498:	1c56      	adds	r6, r2, #1
 801349a:	f105 0b04 	add.w	fp, r5, #4
 801349e:	f503 5450 	add.w	r4, r3, #13312	; 0x3400
 80134a2:	f81b a006 	ldrb.w	sl, [fp, r6]
 80134a6:	4474      	add	r4, lr
 80134a8:	f04a 0a0f 	orr.w	sl, sl, #15
 80134ac:	f80b a006 	strb.w	sl, [fp, r6]
 80134b0:	f104 0a04 	add.w	sl, r4, #4
 80134b4:	3405      	adds	r4, #5
 80134b6:	f81a b006 	ldrb.w	fp, [sl, r6]
 80134ba:	f04b 0b0f 	orr.w	fp, fp, #15
 80134be:	f80a b006 	strb.w	fp, [sl, r6]
 80134c2:	1d6e      	adds	r6, r5, #5
 80134c4:	f8c9 600c 	str.w	r6, [r9, #12]
 80134c8:	f8c8 400c 	str.w	r4, [r8, #12]
 80134cc:	f8c9 2004 	str.w	r2, [r9, #4]
 80134d0:	f8c8 2004 	str.w	r2, [r8, #4]
 80134d4:	f8dc 200c 	ldr.w	r2, [ip, #12]
 80134d8:	4c27      	ldr	r4, [pc, #156]	; (8013578 <_ZN9video_cfg7columns3osd5beginEv+0x1c0>)
 80134da:	4e28      	ldr	r6, [pc, #160]	; (801357c <_ZN9video_cfg7columns3osd5beginEv+0x1c4>)
 80134dc:	f442 6277 	orr.w	r2, r2, #3952	; 0xf70
 80134e0:	f042 020d 	orr.w	r2, r2, #13
 80134e4:	f8cc 200c 	str.w	r2, [ip, #12]
 80134e8:	6c0a      	ldr	r2, [r1, #64]	; 0x40
 80134ea:	f442 4240 	orr.w	r2, r2, #49152	; 0xc000
 80134ee:	640a      	str	r2, [r1, #64]	; 0x40
 80134f0:	6a0a      	ldr	r2, [r1, #32]
 80134f2:	f442 4240 	orr.w	r2, r2, #49152	; 0xc000
 80134f6:	620a      	str	r2, [r1, #32]
 80134f8:	6a0a      	ldr	r2, [r1, #32]
 80134fa:	f24c 3880 	movw	r8, #50048	; 0xc380
 80134fe:	f422 4240 	bic.w	r2, r2, #49152	; 0xc000
 8013502:	f04f 0c02 	mov.w	ip, #2
 8013506:	620a      	str	r2, [r1, #32]
 8013508:	f8c4 8000 	str.w	r8, [r4]
 801350c:	f8c4 c004 	str.w	ip, [r4, #4]
 8013510:	6037      	str	r7, [r6, #0]
 8013512:	7802      	ldrb	r2, [r0, #0]
 8013514:	f002 01ff 	and.w	r1, r2, #255	; 0xff
 8013518:	b932      	cbnz	r2, 8013528 <_ZN9video_cfg7columns3osd5beginEv+0x170>
 801351a:	4a19      	ldr	r2, [pc, #100]	; (8013580 <_ZN9video_cfg7columns3osd5beginEv+0x1c8>)
 801351c:	4819      	ldr	r0, [pc, #100]	; (8013584 <_ZN9video_cfg7columns3osd5beginEv+0x1cc>)
 801351e:	f8c2 8000 	str.w	r8, [r2]
 8013522:	f8c2 c004 	str.w	ip, [r2, #4]
 8013526:	6001      	str	r1, [r0, #0]
 8013528:	792a      	ldrb	r2, [r5, #4]
 801352a:	4f13      	ldr	r7, [pc, #76]	; (8013578 <_ZN9video_cfg7columns3osd5beginEv+0x1c0>)
 801352c:	4e14      	ldr	r6, [pc, #80]	; (8013580 <_ZN9video_cfg7columns3osd5beginEv+0x1c8>)
 801352e:	4d16      	ldr	r5, [pc, #88]	; (8013588 <_ZN9video_cfg7columns3osd5beginEv+0x1d0>)
 8013530:	4c17      	ldr	r4, [pc, #92]	; (8013590 <_ZN9video_cfg7columns3osd5beginEv+0x1d8>)
 8013532:	4816      	ldr	r0, [pc, #88]	; (801358c <_ZN9video_cfg7columns3osd5beginEv+0x1d4>)
 8013534:	4917      	ldr	r1, [pc, #92]	; (8013594 <_ZN9video_cfg7columns3osd5beginEv+0x1dc>)
 8013536:	4473      	add	r3, lr
 8013538:	f042 0201 	orr.w	r2, r2, #1
 801353c:	f503 5350 	add.w	r3, r3, #13312	; 0x3400
 8013540:	81ba      	strh	r2, [r7, #12]
 8013542:	791b      	ldrb	r3, [r3, #4]
 8013544:	2201      	movs	r2, #1
 8013546:	4313      	orrs	r3, r2
 8013548:	81b3      	strh	r3, [r6, #12]
 801354a:	602a      	str	r2, [r5, #0]
 801354c:	6022      	str	r2, [r4, #0]
 801354e:	6803      	ldr	r3, [r0, #0]
 8013550:	4313      	orrs	r3, r2
 8013552:	6003      	str	r3, [r0, #0]
 8013554:	680b      	ldr	r3, [r1, #0]
 8013556:	4313      	orrs	r3, r2
 8013558:	600b      	str	r3, [r1, #0]
 801355a:	e8bd 8ff0 	ldmia.w	sp!, {r4, r5, r6, r7, r8, r9, sl, fp, pc}
 801355e:	bf00      	nop
 8013560:	10000014 	.word	0x10000014
 8013564:	1000001c 	.word	0x1000001c
 8013568:	1000001a 	.word	0x1000001a
 801356c:	10000df4 	.word	0x10000df4
 8013570:	40026000 	.word	0x40026000
 8013574:	40023800 	.word	0x40023800
 8013578:	40003800 	.word	0x40003800
 801357c:	42070020 	.word	0x42070020
 8013580:	40003c00 	.word	0x40003c00
 8013584:	42078020 	.word	0x42078020
 8013588:	42070018 	.word	0x42070018
 801358c:	40026070 	.word	0x40026070
 8013590:	42078018 	.word	0x42078018
 8013594:	40026088 	.word	0x40026088

08013598 <_ZN9video_cfg7columns8takedownEv>:
 8013598:	4b04      	ldr	r3, [pc, #16]	; (80135ac <_ZN9video_cfg7columns8takedownEv+0x14>)
 801359a:	f04f 5180 	mov.w	r1, #268435456	; 0x10000000
 801359e:	2280      	movs	r2, #128	; 0x80
 80135a0:	f8c3 1080 	str.w	r1, [r3, #128]	; 0x80
 80135a4:	f8c3 2088 	str.w	r2, [r3, #136]	; 0x88
 80135a8:	4770      	bx	lr
 80135aa:	bf00      	nop
 80135ac:	e000e100 	.word	0xe000e100

080135b0 <_ZN9video_cfg7columns5setupEv>:
 80135b0:	4b30      	ldr	r3, [pc, #192]	; (8013674 <_ZN9video_cfg7columns5setupEv+0xc4>)
 80135b2:	4831      	ldr	r0, [pc, #196]	; (8013678 <_ZN9video_cfg7columns5setupEv+0xc8>)
 80135b4:	6c1a      	ldr	r2, [r3, #64]	; 0x40
 80135b6:	f042 0201 	orr.w	r2, r2, #1
 80135ba:	b430      	push	{r4, r5}
 80135bc:	641a      	str	r2, [r3, #64]	; 0x40
 80135be:	6a1a      	ldr	r2, [r3, #32]
 80135c0:	f042 0201 	orr.w	r2, r2, #1
 80135c4:	621a      	str	r2, [r3, #32]
 80135c6:	6a19      	ldr	r1, [r3, #32]
 80135c8:	f04f 4280 	mov.w	r2, #1073741824	; 0x40000000
 80135cc:	f021 0101 	bic.w	r1, r1, #1
 80135d0:	240c      	movs	r4, #12
 80135d2:	6219      	str	r1, [r3, #32]
 80135d4:	6014      	str	r4, [r2, #0]
 80135d6:	6851      	ldr	r1, [r2, #4]
 80135d8:	f64f 730f 	movw	r3, #65295	; 0xff0f
 80135dc:	400b      	ands	r3, r1
 80135de:	f043 0370 	orr.w	r3, r3, #112	; 0x70
 80135e2:	6053      	str	r3, [r2, #4]
 80135e4:	6893      	ldr	r3, [r2, #8]
 80135e6:	7801      	ldrb	r1, [r0, #0]
 80135e8:	2901      	cmp	r1, #1
 80135ea:	bf0c      	ite	eq
 80135ec:	2102      	moveq	r1, #2
 80135ee:	2105      	movne	r1, #5
 80135f0:	f36f 13c7 	bfc	r3, #7, #1
 80135f4:	f361 1306 	bfi	r3, r1, #4, #3
 80135f8:	f36f 0302 	bfc	r3, #0, #3
 80135fc:	b29b      	uxth	r3, r3
 80135fe:	6093      	str	r3, [r2, #8]
 8013600:	6993      	ldr	r3, [r2, #24]
 8013602:	7802      	ldrb	r2, [r0, #0]
 8013604:	f002 01ff 	and.w	r1, r2, #255	; 0xff
 8013608:	b352      	cbz	r2, 8013660 <_ZN9video_cfg7columns5setupEv+0xb0>
 801360a:	2200      	movs	r2, #0
 801360c:	f362 0301 	bfi	r3, r2, #0, #2
 8013610:	f023 03fc 	bic.w	r3, r3, #252	; 0xfc
 8013614:	f04f 4280 	mov.w	r2, #1073741824	; 0x40000000
 8013618:	041b      	lsls	r3, r3, #16
 801361a:	0c1b      	lsrs	r3, r3, #16
 801361c:	6193      	str	r3, [r2, #24]
 801361e:	69d0      	ldr	r0, [r2, #28]
 8013620:	4916      	ldr	r1, [pc, #88]	; (801367c <_ZN9video_cfg7columns5setupEv+0xcc>)
 8013622:	f248 03ff 	movw	r3, #33023	; 0x80ff
 8013626:	4003      	ands	r3, r0
 8013628:	f443 43e0 	orr.w	r3, r3, #28672	; 0x7000
 801362c:	61d3      	str	r3, [r2, #28]
 801362e:	6a13      	ldr	r3, [r2, #32]
 8013630:	f36f 03c3 	bfc	r3, #3, #1
 8013634:	f36f 0341 	bfc	r3, #1, #1
 8013638:	f443 5340 	orr.w	r3, r3, #12288	; 0x3000
 801363c:	b29b      	uxth	r3, r3
 801363e:	2000      	movs	r0, #0
 8013640:	6213      	str	r3, [r2, #32]
 8013642:	6290      	str	r0, [r2, #40]	; 0x28
 8013644:	68d3      	ldr	r3, [r2, #12]
 8013646:	f043 0341 	orr.w	r3, r3, #65	; 0x41
 801364a:	25b0      	movs	r5, #176	; 0xb0
 801364c:	b29b      	uxth	r3, r3
 801364e:	60d3      	str	r3, [r2, #12]
 8013650:	f04f 5480 	mov.w	r4, #268435456	; 0x10000000
 8013654:	6110      	str	r0, [r2, #16]
 8013656:	f881 531c 	strb.w	r5, [r1, #796]	; 0x31c
 801365a:	600c      	str	r4, [r1, #0]
 801365c:	bc30      	pop	{r4, r5}
 801365e:	4770      	bx	lr
 8013660:	f361 330e 	bfi	r3, r1, #12, #3
 8013664:	f361 2309 	bfi	r3, r1, #8, #2
 8013668:	f361 23cb 	bfi	r3, r1, #11, #1
 801366c:	f361 238a 	bfi	r3, r1, #10, #1
 8013670:	2201      	movs	r2, #1
 8013672:	e7cb      	b.n	801360c <_ZN9video_cfg7columns5setupEv+0x5c>
 8013674:	40023800 	.word	0x40023800
 8013678:	10000014 	.word	0x10000014
 801367c:	e000e100 	.word	0xe000e100

08013680 <TIM2_IRQHandler>:
 8013680:	4668      	mov	r0, sp
 8013682:	f020 0107 	bic.w	r1, r0, #7
 8013686:	4a29      	ldr	r2, [pc, #164]	; (801372c <TIM2_IRQHandler+0xac>)
 8013688:	468d      	mov	sp, r1
 801368a:	b579      	push	{r0, r3, r4, r5, r6, lr}
 801368c:	6813      	ldr	r3, [r2, #0]
 801368e:	2b00      	cmp	r3, #0
 8013690:	d030      	beq.n	80136f4 <TIM2_IRQHandler+0x74>
 8013692:	4b27      	ldr	r3, [pc, #156]	; (8013730 <TIM2_IRQHandler+0xb0>)
 8013694:	681b      	ldr	r3, [r3, #0]
 8013696:	2100      	movs	r1, #0
 8013698:	2b01      	cmp	r3, #1
 801369a:	6011      	str	r1, [r2, #0]
 801369c:	d026      	beq.n	80136ec <TIM2_IRQHandler+0x6c>
 801369e:	4d25      	ldr	r5, [pc, #148]	; (8013734 <TIM2_IRQHandler+0xb4>)
 80136a0:	4825      	ldr	r0, [pc, #148]	; (8013738 <TIM2_IRQHandler+0xb8>)
 80136a2:	6029      	str	r1, [r5, #0]
 80136a4:	4c25      	ldr	r4, [pc, #148]	; (801373c <TIM2_IRQHandler+0xbc>)
 80136a6:	4a26      	ldr	r2, [pc, #152]	; (8013740 <TIM2_IRQHandler+0xc0>)
 80136a8:	4b26      	ldr	r3, [pc, #152]	; (8013744 <TIM2_IRQHandler+0xc4>)
 80136aa:	8812      	ldrh	r2, [r2, #0]
 80136ac:	881b      	ldrh	r3, [r3, #0]
 80136ae:	2601      	movs	r6, #1
 80136b0:	f04f 4580 	mov.w	r5, #1073741824	; 0x40000000
 80136b4:	6006      	str	r6, [r0, #0]
 80136b6:	4824      	ldr	r0, [pc, #144]	; (8013748 <TIM2_IRQHandler+0xc8>)
 80136b8:	6269      	str	r1, [r5, #36]	; 0x24
 80136ba:	6261      	str	r1, [r4, #36]	; 0x24
 80136bc:	6c04      	ldr	r4, [r0, #64]	; 0x40
 80136be:	4d23      	ldr	r5, [pc, #140]	; (801374c <TIM2_IRQHandler+0xcc>)
 80136c0:	4e23      	ldr	r6, [pc, #140]	; (8013750 <TIM2_IRQHandler+0xd0>)
 80136c2:	68a9      	ldr	r1, [r5, #8]
 80136c4:	f424 4440 	bic.w	r4, r4, #49152	; 0xc000
 80136c8:	6404      	str	r4, [r0, #64]	; 0x40
 80136ca:	6a04      	ldr	r4, [r0, #32]
 80136cc:	f444 4440 	orr.w	r4, r4, #49152	; 0xc000
 80136d0:	1ad2      	subs	r2, r2, r3
 80136d2:	6204      	str	r4, [r0, #32]
 80136d4:	1c4b      	adds	r3, r1, #1
 80136d6:	f3c2 02cc 	ubfx	r2, r2, #3, #13
 80136da:	7831      	ldrb	r1, [r6, #0]
 80136dc:	4413      	add	r3, r2
 80136de:	60ab      	str	r3, [r5, #8]
 80136e0:	b1c9      	cbz	r1, 8013716 <TIM2_IRQHandler+0x96>
 80136e2:	4a1c      	ldr	r2, [pc, #112]	; (8013754 <TIM2_IRQHandler+0xd4>)
 80136e4:	6813      	ldr	r3, [r2, #0]
 80136e6:	f023 0301 	bic.w	r3, r3, #1
 80136ea:	6013      	str	r3, [r2, #0]
 80136ec:	e8bd 4079 	ldmia.w	sp!, {r0, r3, r4, r5, r6, lr}
 80136f0:	4685      	mov	sp, r0
 80136f2:	4770      	bx	lr
 80136f4:	4a0f      	ldr	r2, [pc, #60]	; (8013734 <TIM2_IRQHandler+0xb4>)
 80136f6:	6811      	ldr	r1, [r2, #0]
 80136f8:	2900      	cmp	r1, #0
 80136fa:	d0f7      	beq.n	80136ec <TIM2_IRQHandler+0x6c>
 80136fc:	480e      	ldr	r0, [pc, #56]	; (8013738 <TIM2_IRQHandler+0xb8>)
 80136fe:	490c      	ldr	r1, [pc, #48]	; (8013730 <TIM2_IRQHandler+0xb0>)
 8013700:	6013      	str	r3, [r2, #0]
 8013702:	6003      	str	r3, [r0, #0]
 8013704:	680b      	ldr	r3, [r1, #0]
 8013706:	2b01      	cmp	r3, #1
 8013708:	d0f0      	beq.n	80136ec <TIM2_IRQHandler+0x6c>
 801370a:	f7ff fe55 	bl	80133b8 <_ZN9video_cfg7columns3osd5beginEv>
 801370e:	e8bd 4079 	ldmia.w	sp!, {r0, r3, r4, r5, r6, lr}
 8013712:	4685      	mov	sp, r0
 8013714:	4770      	bx	lr
 8013716:	490f      	ldr	r1, [pc, #60]	; (8013754 <TIM2_IRQHandler+0xd4>)
 8013718:	4a0f      	ldr	r2, [pc, #60]	; (8013758 <TIM2_IRQHandler+0xd8>)
 801371a:	680b      	ldr	r3, [r1, #0]
 801371c:	f023 0301 	bic.w	r3, r3, #1
 8013720:	600b      	str	r3, [r1, #0]
 8013722:	6813      	ldr	r3, [r2, #0]
 8013724:	f023 0301 	bic.w	r3, r3, #1
 8013728:	6013      	str	r3, [r2, #0]
 801372a:	e7df      	b.n	80136ec <TIM2_IRQHandler+0x6c>
 801372c:	42000200 	.word	0x42000200
 8013730:	10000e18 	.word	0x10000e18
 8013734:	42000218 	.word	0x42000218
 8013738:	42000198 	.word	0x42000198
 801373c:	40014000 	.word	0x40014000
 8013740:	1000001c 	.word	0x1000001c
 8013744:	1000001a 	.word	0x1000001a
 8013748:	40023800 	.word	0x40023800
 801374c:	10000df4 	.word	0x10000df4
 8013750:	10000014 	.word	0x10000014
 8013754:	40026070 	.word	0x40026070
 8013758:	40026088 	.word	0x40026088

0801375c <_ZN9video_cfg4rows3osd5beginEv>:
 801375c:	4b02      	ldr	r3, [pc, #8]	; (8013768 <_ZN9video_cfg4rows3osd5beginEv+0xc>)
 801375e:	2202      	movs	r2, #2
 8013760:	601a      	str	r2, [r3, #0]
 8013762:	f7ff bd67 	b.w	8013234 <_ZN9video_cfg7columns3osd6enableEv>
 8013766:	bf00      	nop
 8013768:	10000e18 	.word	0x10000e18

0801376c <_ZN9video_cfg4rows3osd3endEv>:
 801376c:	b508      	push	{r3, lr}
 801376e:	f7ff fdcf 	bl	8013310 <_ZN9video_cfg7columns3osd7disableEv>
 8013772:	4b07      	ldr	r3, [pc, #28]	; (8013790 <_ZN9video_cfg4rows3osd3endEv+0x24>)
 8013774:	4a07      	ldr	r2, [pc, #28]	; (8013794 <_ZN9video_cfg4rows3osd3endEv+0x28>)
 8013776:	781b      	ldrb	r3, [r3, #0]
 8013778:	2100      	movs	r1, #0
 801377a:	f003 00ff 	and.w	r0, r3, #255	; 0xff
 801377e:	6011      	str	r1, [r2, #0]
 8013780:	b103      	cbz	r3, 8013784 <_ZN9video_cfg4rows3osd3endEv+0x18>
 8013782:	bd08      	pop	{r3, pc}
 8013784:	4b04      	ldr	r3, [pc, #16]	; (8013798 <_ZN9video_cfg4rows3osd3endEv+0x2c>)
 8013786:	6018      	str	r0, [r3, #0]
 8013788:	e8bd 4008 	ldmia.w	sp!, {r3, lr}
 801378c:	f7fe bef0 	b.w	8012570 <_ZN6detail15sync_sep_enableEv>
 8013790:	10000014 	.word	0x10000014
 8013794:	10000e18 	.word	0x10000e18
 8013798:	42008000 	.word	0x42008000

0801379c <_ZN9video_cfg4rows8takedownEv>:
 801379c:	b430      	push	{r4, r5}
 801379e:	4906      	ldr	r1, [pc, #24]	; (80137b8 <_ZN9video_cfg4rows8takedownEv+0x1c>)
 80137a0:	4c06      	ldr	r4, [pc, #24]	; (80137bc <_ZN9video_cfg4rows8takedownEv+0x20>)
 80137a2:	4b07      	ldr	r3, [pc, #28]	; (80137c0 <_ZN9video_cfg4rows8takedownEv+0x24>)
 80137a4:	f04f 5500 	mov.w	r5, #536870912	; 0x20000000
 80137a8:	2000      	movs	r0, #0
 80137aa:	2201      	movs	r2, #1
 80137ac:	f8c4 5080 	str.w	r5, [r4, #128]	; 0x80
 80137b0:	6008      	str	r0, [r1, #0]
 80137b2:	701a      	strb	r2, [r3, #0]
 80137b4:	bc30      	pop	{r4, r5}
 80137b6:	4770      	bx	lr
 80137b8:	10000e18 	.word	0x10000e18
 80137bc:	e000e100 	.word	0xe000e100
 80137c0:	10000024 	.word	0x10000024

080137c4 <_ZN9video_cfg4rows5setupEv>:
 80137c4:	4b39      	ldr	r3, [pc, #228]	; (80138ac <_ZN9video_cfg4rows5setupEv+0xe8>)
 80137c6:	781b      	ldrb	r3, [r3, #0]
 80137c8:	f003 02ff 	and.w	r2, r3, #255	; 0xff
 80137cc:	b10b      	cbz	r3, 80137d2 <_ZN9video_cfg4rows5setupEv+0xe>
 80137ce:	f000 bad3 	b.w	8013d78 <_ZN6detail25internal_video_mode_setupEv>
 80137d2:	4937      	ldr	r1, [pc, #220]	; (80138b0 <_ZN9video_cfg4rows5setupEv+0xec>)
 80137d4:	4b37      	ldr	r3, [pc, #220]	; (80138b4 <_ZN9video_cfg4rows5setupEv+0xf0>)
 80137d6:	4838      	ldr	r0, [pc, #224]	; (80138b8 <_ZN9video_cfg4rows5setupEv+0xf4>)
 80137d8:	b570      	push	{r4, r5, r6, lr}
 80137da:	6c0e      	ldr	r6, [r1, #64]	; 0x40
 80137dc:	4d37      	ldr	r5, [pc, #220]	; (80138bc <_ZN9video_cfg4rows5setupEv+0xf8>)
 80137de:	4c38      	ldr	r4, [pc, #224]	; (80138c0 <_ZN9video_cfg4rows5setupEv+0xfc>)
 80137e0:	f046 0602 	orr.w	r6, r6, #2
 80137e4:	640e      	str	r6, [r1, #64]	; 0x40
 80137e6:	6a0e      	ldr	r6, [r1, #32]
 80137e8:	f046 0602 	orr.w	r6, r6, #2
 80137ec:	620e      	str	r6, [r1, #32]
 80137ee:	6a0e      	ldr	r6, [r1, #32]
 80137f0:	f026 0602 	bic.w	r6, r6, #2
 80137f4:	620e      	str	r6, [r1, #32]
 80137f6:	6819      	ldr	r1, [r3, #0]
 80137f8:	f041 0108 	orr.w	r1, r1, #8
 80137fc:	b289      	uxth	r1, r1
 80137fe:	6019      	str	r1, [r3, #0]
 8013800:	6859      	ldr	r1, [r3, #4]
 8013802:	f362 11c7 	bfi	r1, r2, #7, #1
 8013806:	b289      	uxth	r1, r1
 8013808:	6059      	str	r1, [r3, #4]
 801380a:	6899      	ldr	r1, [r3, #8]
 801380c:	ea6f 4181 	mvn.w	r1, r1, lsl #18
 8013810:	ea6f 4191 	mvn.w	r1, r1, lsr #18
 8013814:	f362 310d 	bfi	r1, r2, #12, #2
 8013818:	f362 210b 	bfi	r1, r2, #8, #4
 801381c:	b289      	uxth	r1, r1
 801381e:	6099      	str	r1, [r3, #8]
 8013820:	6999      	ldr	r1, [r3, #24]
 8013822:	2601      	movs	r6, #1
 8013824:	f366 0101 	bfi	r1, r6, #0, #2
 8013828:	f362 1107 	bfi	r1, r2, #4, #4
 801382c:	f362 2109 	bfi	r1, r2, #8, #2
 8013830:	f362 310e 	bfi	r1, r2, #12, #3
 8013834:	f362 21cb 	bfi	r1, r2, #11, #1
 8013838:	b289      	uxth	r1, r1
 801383a:	6199      	str	r1, [r3, #24]
 801383c:	6a19      	ldr	r1, [r3, #32]
 801383e:	f041 0110 	orr.w	r1, r1, #16
 8013842:	b289      	uxth	r1, r1
 8013844:	6219      	str	r1, [r3, #32]
 8013846:	69d9      	ldr	r1, [r3, #28]
 8013848:	f362 0101 	bfi	r1, r2, #0, #2
 801384c:	f362 1106 	bfi	r1, r2, #4, #3
 8013850:	f362 01c3 	bfi	r1, r2, #3, #1
 8013854:	f362 2109 	bfi	r1, r2, #8, #2
 8013858:	f362 310e 	bfi	r1, r2, #12, #3
 801385c:	f362 21cb 	bfi	r1, r2, #11, #1
 8013860:	882a      	ldrh	r2, [r5, #0]
 8013862:	b289      	uxth	r1, r1
 8013864:	3a01      	subs	r2, #1
 8013866:	61d9      	str	r1, [r3, #28]
 8013868:	639a      	str	r2, [r3, #56]	; 0x38
 801386a:	8822      	ldrh	r2, [r4, #0]
 801386c:	3a01      	subs	r2, #1
 801386e:	63da      	str	r2, [r3, #60]	; 0x3c
 8013870:	8802      	ldrh	r2, [r0, #0]
 8013872:	40f2      	lsrs	r2, r6
 8013874:	3a01      	subs	r2, #1
 8013876:	641a      	str	r2, [r3, #64]	; 0x40
 8013878:	f7fe fe6e 	bl	8012558 <_ZN4quan3uav3osd14get_video_modeEv>
 801387c:	2802      	cmp	r0, #2
 801387e:	bf0c      	ite	eq
 8013880:	4b10      	ldreq	r3, [pc, #64]	; (80138c4 <_ZN9video_cfg4rows5setupEv+0x100>)
 8013882:	4b11      	ldrne	r3, [pc, #68]	; (80138c8 <_ZN9video_cfg4rows5setupEv+0x104>)
 8013884:	4a0b      	ldr	r2, [pc, #44]	; (80138b4 <_ZN9video_cfg4rows5setupEv+0xf0>)
 8013886:	881b      	ldrh	r3, [r3, #0]
 8013888:	4910      	ldr	r1, [pc, #64]	; (80138cc <_ZN9video_cfg4rows5setupEv+0x108>)
 801388a:	085b      	lsrs	r3, r3, #1
 801388c:	3b02      	subs	r3, #2
 801388e:	62d3      	str	r3, [r2, #44]	; 0x2c
 8013890:	68d3      	ldr	r3, [r2, #12]
 8013892:	f043 031d 	orr.w	r3, r3, #29
 8013896:	b29b      	uxth	r3, r3
 8013898:	2500      	movs	r5, #0
 801389a:	24b0      	movs	r4, #176	; 0xb0
 801389c:	60d3      	str	r3, [r2, #12]
 801389e:	f04f 5000 	mov.w	r0, #536870912	; 0x20000000
 80138a2:	6255      	str	r5, [r2, #36]	; 0x24
 80138a4:	f881 431d 	strb.w	r4, [r1, #797]	; 0x31d
 80138a8:	6008      	str	r0, [r1, #0]
 80138aa:	bd70      	pop	{r4, r5, r6, pc}
 80138ac:	10000014 	.word	0x10000014
 80138b0:	40023800 	.word	0x40023800
 80138b4:	40000400 	.word	0x40000400
 80138b8:	10000028 	.word	0x10000028
 80138bc:	10000020 	.word	0x10000020
 80138c0:	10000026 	.word	0x10000026
 80138c4:	10000022 	.word	0x10000022
 80138c8:	1000001e 	.word	0x1000001e
 80138cc:	e000e100 	.word	0xe000e100

080138d0 <TIM3_IRQHandler>:
 80138d0:	4668      	mov	r0, sp
 80138d2:	f020 0107 	bic.w	r1, r0, #7
 80138d6:	468d      	mov	sp, r1
 80138d8:	b531      	push	{r0, r4, r5, lr}
 80138da:	4d23      	ldr	r5, [pc, #140]	; (8013968 <TIM3_IRQHandler+0x98>)
 80138dc:	782b      	ldrb	r3, [r5, #0]
 80138de:	f003 02ff 	and.w	r2, r3, #255	; 0xff
 80138e2:	b9b3      	cbnz	r3, 8013912 <TIM3_IRQHandler+0x42>
 80138e4:	4b21      	ldr	r3, [pc, #132]	; (801396c <TIM3_IRQHandler+0x9c>)
 80138e6:	691b      	ldr	r3, [r3, #16]
 80138e8:	b29b      	uxth	r3, r3
 80138ea:	f013 0404 	ands.w	r4, r3, #4
 80138ee:	d130      	bne.n	8013952 <TIM3_IRQHandler+0x82>
 80138f0:	f013 0208 	ands.w	r2, r3, #8
 80138f4:	d123      	bne.n	801393e <TIM3_IRQHandler+0x6e>
 80138f6:	f013 0410 	ands.w	r4, r3, #16
 80138fa:	d010      	beq.n	801391e <TIM3_IRQHandler+0x4e>
 80138fc:	491c      	ldr	r1, [pc, #112]	; (8013970 <TIM3_IRQHandler+0xa0>)
 80138fe:	4b1d      	ldr	r3, [pc, #116]	; (8013974 <TIM3_IRQHandler+0xa4>)
 8013900:	600a      	str	r2, [r1, #0]
 8013902:	2202      	movs	r2, #2
 8013904:	601a      	str	r2, [r3, #0]
 8013906:	f7ff fc95 	bl	8013234 <_ZN9video_cfg7columns3osd6enableEv>
 801390a:	e8bd 4031 	ldmia.w	sp!, {r0, r4, r5, lr}
 801390e:	4685      	mov	sp, r0
 8013910:	4770      	bx	lr
 8013912:	f000 fa8d 	bl	8013e30 <_ZN6detail26do_internal_video_mode_irqEv>
 8013916:	e8bd 4031 	ldmia.w	sp!, {r0, r4, r5, lr}
 801391a:	4685      	mov	sp, r0
 801391c:	4770      	bx	lr
 801391e:	4b16      	ldr	r3, [pc, #88]	; (8013978 <TIM3_IRQHandler+0xa8>)
 8013920:	601c      	str	r4, [r3, #0]
 8013922:	f7ff fcf5 	bl	8013310 <_ZN9video_cfg7columns3osd7disableEv>
 8013926:	782b      	ldrb	r3, [r5, #0]
 8013928:	4a12      	ldr	r2, [pc, #72]	; (8013974 <TIM3_IRQHandler+0xa4>)
 801392a:	f003 01ff 	and.w	r1, r3, #255	; 0xff
 801392e:	6014      	str	r4, [r2, #0]
 8013930:	2b00      	cmp	r3, #0
 8013932:	d1ea      	bne.n	801390a <TIM3_IRQHandler+0x3a>
 8013934:	4b11      	ldr	r3, [pc, #68]	; (801397c <TIM3_IRQHandler+0xac>)
 8013936:	6019      	str	r1, [r3, #0]
 8013938:	f7fe fe1a 	bl	8012570 <_ZN6detail15sync_sep_enableEv>
 801393c:	e7e5      	b.n	801390a <TIM3_IRQHandler+0x3a>
 801393e:	4b10      	ldr	r3, [pc, #64]	; (8013980 <TIM3_IRQHandler+0xb0>)
 8013940:	601c      	str	r4, [r3, #0]
 8013942:	f7ff fd25 	bl	8013390 <_ZN9video_cfg7columns5telem7disableEv>
 8013946:	4b0b      	ldr	r3, [pc, #44]	; (8013974 <TIM3_IRQHandler+0xa4>)
 8013948:	601c      	str	r4, [r3, #0]
 801394a:	e8bd 4031 	ldmia.w	sp!, {r0, r4, r5, lr}
 801394e:	4685      	mov	sp, r0
 8013950:	4770      	bx	lr
 8013952:	490c      	ldr	r1, [pc, #48]	; (8013984 <TIM3_IRQHandler+0xb4>)
 8013954:	4b07      	ldr	r3, [pc, #28]	; (8013974 <TIM3_IRQHandler+0xa4>)
 8013956:	600a      	str	r2, [r1, #0]
 8013958:	2201      	movs	r2, #1
 801395a:	601a      	str	r2, [r3, #0]
 801395c:	f7ff fcec 	bl	8013338 <_ZN9video_cfg7columns5telem6enableEv>
 8013960:	e8bd 4031 	ldmia.w	sp!, {r0, r4, r5, lr}
 8013964:	4685      	mov	sp, r0
 8013966:	4770      	bx	lr
 8013968:	10000014 	.word	0x10000014
 801396c:	40000400 	.word	0x40000400
 8013970:	42008210 	.word	0x42008210
 8013974:	10000e18 	.word	0x10000e18
 8013978:	42008200 	.word	0x42008200
 801397c:	42008000 	.word	0x42008000
 8013980:	4200820c 	.word	0x4200820c
 8013984:	42008208 	.word	0x42008208

08013988 <_ZN9video_cfg9spi_clock8takedownEv>:
 8013988:	4a05      	ldr	r2, [pc, #20]	; (80139a0 <_ZN9video_cfg9spi_clock8takedownEv+0x18>)
 801398a:	6813      	ldr	r3, [r2, #0]
 801398c:	f023 0330 	bic.w	r3, r3, #48	; 0x30
 8013990:	6013      	str	r3, [r2, #0]
 8013992:	68d3      	ldr	r3, [r2, #12]
 8013994:	f023 0330 	bic.w	r3, r3, #48	; 0x30
 8013998:	f043 0310 	orr.w	r3, r3, #16
 801399c:	60d3      	str	r3, [r2, #12]
 801399e:	4770      	bx	lr
 80139a0:	40020000 	.word	0x40020000

080139a4 <_ZN9video_cfg9spi_clock5setupEv>:
 80139a4:	4a34      	ldr	r2, [pc, #208]	; (8013a78 <_ZN9video_cfg9spi_clock5setupEv+0xd4>)
 80139a6:	4935      	ldr	r1, [pc, #212]	; (8013a7c <_ZN9video_cfg9spi_clock5setupEv+0xd8>)
 80139a8:	4b35      	ldr	r3, [pc, #212]	; (8013a80 <_ZN9video_cfg9spi_clock5setupEv+0xdc>)
 80139aa:	4836      	ldr	r0, [pc, #216]	; (8013a84 <_ZN9video_cfg9spi_clock5setupEv+0xe0>)
 80139ac:	b410      	push	{r4}
 80139ae:	6b14      	ldr	r4, [r2, #48]	; 0x30
 80139b0:	f044 0401 	orr.w	r4, r4, #1
 80139b4:	6314      	str	r4, [r2, #48]	; 0x30
 80139b6:	680c      	ldr	r4, [r1, #0]
 80139b8:	f024 0430 	bic.w	r4, r4, #48	; 0x30
 80139bc:	f044 0420 	orr.w	r4, r4, #32
 80139c0:	600c      	str	r4, [r1, #0]
 80139c2:	688c      	ldr	r4, [r1, #8]
 80139c4:	f044 0430 	orr.w	r4, r4, #48	; 0x30
 80139c8:	608c      	str	r4, [r1, #8]
 80139ca:	694c      	ldr	r4, [r1, #20]
 80139cc:	f024 0404 	bic.w	r4, r4, #4
 80139d0:	614c      	str	r4, [r1, #20]
 80139d2:	6a0c      	ldr	r4, [r1, #32]
 80139d4:	f424 6470 	bic.w	r4, r4, #3840	; 0xf00
 80139d8:	f444 7440 	orr.w	r4, r4, #768	; 0x300
 80139dc:	620c      	str	r4, [r1, #32]
 80139de:	6c51      	ldr	r1, [r2, #68]	; 0x44
 80139e0:	f441 3180 	orr.w	r1, r1, #65536	; 0x10000
 80139e4:	6451      	str	r1, [r2, #68]	; 0x44
 80139e6:	6a51      	ldr	r1, [r2, #36]	; 0x24
 80139e8:	f441 3180 	orr.w	r1, r1, #65536	; 0x10000
 80139ec:	6251      	str	r1, [r2, #36]	; 0x24
 80139ee:	6a51      	ldr	r1, [r2, #36]	; 0x24
 80139f0:	f421 3180 	bic.w	r1, r1, #65536	; 0x10000
 80139f4:	6251      	str	r1, [r2, #36]	; 0x24
 80139f6:	681a      	ldr	r2, [r3, #0]
 80139f8:	f36f 2209 	bfc	r2, #8, #2
 80139fc:	f36f 12c7 	bfc	r2, #7, #1
 8013a00:	f042 0204 	orr.w	r2, r2, #4
 8013a04:	f022 020b 	bic.w	r2, r2, #11
 8013a08:	0412      	lsls	r2, r2, #16
 8013a0a:	0c12      	lsrs	r2, r2, #16
 8013a0c:	601a      	str	r2, [r3, #0]
 8013a0e:	689a      	ldr	r2, [r3, #8]
 8013a10:	f36f 32cf 	bfc	r2, #15, #1
 8013a14:	f36f 328e 	bfc	r2, #14, #1
 8013a18:	f36f 320d 	bfc	r2, #12, #2
 8013a1c:	f36f 220b 	bfc	r2, #8, #4
 8013a20:	2105      	movs	r1, #5
 8013a22:	f36f 1206 	bfc	r2, #4, #3
 8013a26:	f361 0202 	bfi	r2, r1, #0, #3
 8013a2a:	b292      	uxth	r2, r2
 8013a2c:	609a      	str	r2, [r3, #8]
 8013a2e:	699a      	ldr	r2, [r3, #24]
 8013a30:	f36f 0201 	bfc	r2, #0, #2
 8013a34:	f042 0270 	orr.w	r2, r2, #112	; 0x70
 8013a38:	f022 020c 	bic.w	r2, r2, #12
 8013a3c:	0412      	lsls	r2, r2, #16
 8013a3e:	0c12      	lsrs	r2, r2, #16
 8013a40:	619a      	str	r2, [r3, #24]
 8013a42:	6a1a      	ldr	r2, [r3, #32]
 8013a44:	f042 0201 	orr.w	r2, r2, #1
 8013a48:	f36f 0241 	bfc	r2, #1, #1
 8013a4c:	b292      	uxth	r2, r2
 8013a4e:	621a      	str	r2, [r3, #32]
 8013a50:	8802      	ldrh	r2, [r0, #0]
 8013a52:	0052      	lsls	r2, r2, #1
 8013a54:	b292      	uxth	r2, r2
 8013a56:	0850      	lsrs	r0, r2, #1
 8013a58:	2100      	movs	r1, #0
 8013a5a:	3a01      	subs	r2, #1
 8013a5c:	3801      	subs	r0, #1
 8013a5e:	62da      	str	r2, [r3, #44]	; 0x2c
 8013a60:	6358      	str	r0, [r3, #52]	; 0x34
 8013a62:	6259      	str	r1, [r3, #36]	; 0x24
 8013a64:	6119      	str	r1, [r3, #16]
 8013a66:	60d9      	str	r1, [r3, #12]
 8013a68:	681a      	ldr	r2, [r3, #0]
 8013a6a:	f042 0201 	orr.w	r2, r2, #1
 8013a6e:	601a      	str	r2, [r3, #0]
 8013a70:	f85d 4b04 	ldr.w	r4, [sp], #4
 8013a74:	4770      	bx	lr
 8013a76:	bf00      	nop
 8013a78:	40023800 	.word	0x40023800
 8013a7c:	40020000 	.word	0x40020000
 8013a80:	40014000 	.word	0x40014000
 8013a84:	1000002a 	.word	0x1000002a

08013a88 <_ZN6detail9spi_setupEv>:
 8013a88:	496e      	ldr	r1, [pc, #440]	; (8013c44 <_ZN6detail9spi_setupEv+0x1bc>)
 8013a8a:	4b6f      	ldr	r3, [pc, #444]	; (8013c48 <_ZN6detail9spi_setupEv+0x1c0>)
 8013a8c:	6b0a      	ldr	r2, [r1, #48]	; 0x30
 8013a8e:	486f      	ldr	r0, [pc, #444]	; (8013c4c <_ZN6detail9spi_setupEv+0x1c4>)
 8013a90:	f042 0202 	orr.w	r2, r2, #2
 8013a94:	630a      	str	r2, [r1, #48]	; 0x30
 8013a96:	681a      	ldr	r2, [r3, #0]
 8013a98:	f022 6240 	bic.w	r2, r2, #201326592	; 0xc000000
 8013a9c:	f042 6200 	orr.w	r2, r2, #134217728	; 0x8000000
 8013aa0:	601a      	str	r2, [r3, #0]
 8013aa2:	68da      	ldr	r2, [r3, #12]
 8013aa4:	f022 6240 	bic.w	r2, r2, #201326592	; 0xc000000
 8013aa8:	f042 6200 	orr.w	r2, r2, #134217728	; 0x8000000
 8013aac:	60da      	str	r2, [r3, #12]
 8013aae:	6a5a      	ldr	r2, [r3, #36]	; 0x24
 8013ab0:	f422 0270 	bic.w	r2, r2, #15728640	; 0xf00000
 8013ab4:	f442 02a0 	orr.w	r2, r2, #5242880	; 0x500000
 8013ab8:	625a      	str	r2, [r3, #36]	; 0x24
 8013aba:	6b0b      	ldr	r3, [r1, #48]	; 0x30
 8013abc:	f043 0304 	orr.w	r3, r3, #4
 8013ac0:	630b      	str	r3, [r1, #48]	; 0x30
 8013ac2:	7803      	ldrb	r3, [r0, #0]
 8013ac4:	2b00      	cmp	r3, #0
 8013ac6:	d175      	bne.n	8013bb4 <_ZN6detail9spi_setupEv+0x12c>
 8013ac8:	f103 4380 	add.w	r3, r3, #1073741824	; 0x40000000
 8013acc:	f503 3302 	add.w	r3, r3, #133120	; 0x20800
 8013ad0:	681a      	ldr	r2, [r3, #0]
 8013ad2:	f022 0230 	bic.w	r2, r2, #48	; 0x30
 8013ad6:	f042 0220 	orr.w	r2, r2, #32
 8013ada:	601a      	str	r2, [r3, #0]
 8013adc:	685a      	ldr	r2, [r3, #4]
 8013ade:	f022 0204 	bic.w	r2, r2, #4
 8013ae2:	605a      	str	r2, [r3, #4]
 8013ae4:	689a      	ldr	r2, [r3, #8]
 8013ae6:	f042 0230 	orr.w	r2, r2, #48	; 0x30
 8013aea:	609a      	str	r2, [r3, #8]
 8013aec:	68da      	ldr	r2, [r3, #12]
 8013aee:	f022 0230 	bic.w	r2, r2, #48	; 0x30
 8013af2:	f042 0210 	orr.w	r2, r2, #16
 8013af6:	60da      	str	r2, [r3, #12]
 8013af8:	695a      	ldr	r2, [r3, #20]
 8013afa:	f042 0204 	orr.w	r2, r2, #4
 8013afe:	615a      	str	r2, [r3, #20]
 8013b00:	6a1a      	ldr	r2, [r3, #32]
 8013b02:	f422 6270 	bic.w	r2, r2, #3840	; 0xf00
 8013b06:	f442 62a0 	orr.w	r2, r2, #1280	; 0x500
 8013b0a:	621a      	str	r2, [r3, #32]
 8013b0c:	4a4d      	ldr	r2, [pc, #308]	; (8013c44 <_ZN6detail9spi_setupEv+0x1bc>)
 8013b0e:	6b13      	ldr	r3, [r2, #48]	; 0x30
 8013b10:	f043 0304 	orr.w	r3, r3, #4
 8013b14:	6313      	str	r3, [r2, #48]	; 0x30
 8013b16:	7803      	ldrb	r3, [r0, #0]
 8013b18:	2b00      	cmp	r3, #0
 8013b1a:	d164      	bne.n	8013be6 <_ZN6detail9spi_setupEv+0x15e>
 8013b1c:	f103 4380 	add.w	r3, r3, #1073741824	; 0x40000000
 8013b20:	f503 3302 	add.w	r3, r3, #133120	; 0x20800
 8013b24:	681a      	ldr	r2, [r3, #0]
 8013b26:	f422 1240 	bic.w	r2, r2, #3145728	; 0x300000
 8013b2a:	f442 1200 	orr.w	r2, r2, #2097152	; 0x200000
 8013b2e:	601a      	str	r2, [r3, #0]
 8013b30:	68da      	ldr	r2, [r3, #12]
 8013b32:	f422 1240 	bic.w	r2, r2, #3145728	; 0x300000
 8013b36:	f442 1200 	orr.w	r2, r2, #2097152	; 0x200000
 8013b3a:	60da      	str	r2, [r3, #12]
 8013b3c:	6a5a      	ldr	r2, [r3, #36]	; 0x24
 8013b3e:	f422 6270 	bic.w	r2, r2, #3840	; 0xf00
 8013b42:	f442 62c0 	orr.w	r2, r2, #1536	; 0x600
 8013b46:	625a      	str	r2, [r3, #36]	; 0x24
 8013b48:	4a3e      	ldr	r2, [pc, #248]	; (8013c44 <_ZN6detail9spi_setupEv+0x1bc>)
 8013b4a:	6b13      	ldr	r3, [r2, #48]	; 0x30
 8013b4c:	f043 0304 	orr.w	r3, r3, #4
 8013b50:	6313      	str	r3, [r2, #48]	; 0x30
 8013b52:	7803      	ldrb	r3, [r0, #0]
 8013b54:	2b00      	cmp	r3, #0
 8013b56:	d052      	beq.n	8013bfe <_ZN6detail9spi_setupEv+0x176>
 8013b58:	6b11      	ldr	r1, [r2, #48]	; 0x30
 8013b5a:	4b3d      	ldr	r3, [pc, #244]	; (8013c50 <_ZN6detail9spi_setupEv+0x1c8>)
 8013b5c:	f041 0104 	orr.w	r1, r1, #4
 8013b60:	6311      	str	r1, [r2, #48]	; 0x30
 8013b62:	681a      	ldr	r2, [r3, #0]
 8013b64:	f422 5240 	bic.w	r2, r2, #12288	; 0x3000
 8013b68:	f442 5200 	orr.w	r2, r2, #8192	; 0x2000
 8013b6c:	601a      	str	r2, [r3, #0]
 8013b6e:	685a      	ldr	r2, [r3, #4]
 8013b70:	f022 0240 	bic.w	r2, r2, #64	; 0x40
 8013b74:	605a      	str	r2, [r3, #4]
 8013b76:	689a      	ldr	r2, [r3, #8]
 8013b78:	f422 5240 	bic.w	r2, r2, #12288	; 0x3000
 8013b7c:	609a      	str	r2, [r3, #8]
 8013b7e:	68da      	ldr	r2, [r3, #12]
 8013b80:	f422 5240 	bic.w	r2, r2, #12288	; 0x3000
 8013b84:	f442 5200 	orr.w	r2, r2, #8192	; 0x2000
 8013b88:	60da      	str	r2, [r3, #12]
 8013b8a:	695a      	ldr	r2, [r3, #20]
 8013b8c:	f022 0240 	bic.w	r2, r2, #64	; 0x40
 8013b90:	615a      	str	r2, [r3, #20]
 8013b92:	6a1a      	ldr	r2, [r3, #32]
 8013b94:	f022 6270 	bic.w	r2, r2, #251658240	; 0xf000000
 8013b98:	f042 7200 	orr.w	r2, r2, #33554432	; 0x2000000
 8013b9c:	621a      	str	r2, [r3, #32]
 8013b9e:	681a      	ldr	r2, [r3, #0]
 8013ba0:	f422 0240 	bic.w	r2, r2, #12582912	; 0xc00000
 8013ba4:	601a      	str	r2, [r3, #0]
 8013ba6:	68da      	ldr	r2, [r3, #12]
 8013ba8:	f422 0240 	bic.w	r2, r2, #12582912	; 0xc00000
 8013bac:	f442 0200 	orr.w	r2, r2, #8388608	; 0x800000
 8013bb0:	60da      	str	r2, [r3, #12]
 8013bb2:	4770      	bx	lr
 8013bb4:	4b26      	ldr	r3, [pc, #152]	; (8013c50 <_ZN6detail9spi_setupEv+0x1c8>)
 8013bb6:	681a      	ldr	r2, [r3, #0]
 8013bb8:	f022 0230 	bic.w	r2, r2, #48	; 0x30
 8013bbc:	f042 0220 	orr.w	r2, r2, #32
 8013bc0:	601a      	str	r2, [r3, #0]
 8013bc2:	685a      	ldr	r2, [r3, #4]
 8013bc4:	f022 0204 	bic.w	r2, r2, #4
 8013bc8:	605a      	str	r2, [r3, #4]
 8013bca:	689a      	ldr	r2, [r3, #8]
 8013bcc:	f042 0230 	orr.w	r2, r2, #48	; 0x30
 8013bd0:	609a      	str	r2, [r3, #8]
 8013bd2:	68da      	ldr	r2, [r3, #12]
 8013bd4:	f022 0230 	bic.w	r2, r2, #48	; 0x30
 8013bd8:	f042 0220 	orr.w	r2, r2, #32
 8013bdc:	60da      	str	r2, [r3, #12]
 8013bde:	695a      	ldr	r2, [r3, #20]
 8013be0:	f022 0204 	bic.w	r2, r2, #4
 8013be4:	e78b      	b.n	8013afe <_ZN6detail9spi_setupEv+0x76>
 8013be6:	4a1a      	ldr	r2, [pc, #104]	; (8013c50 <_ZN6detail9spi_setupEv+0x1c8>)
 8013be8:	6813      	ldr	r3, [r2, #0]
 8013bea:	f423 1340 	bic.w	r3, r3, #3145728	; 0x300000
 8013bee:	6013      	str	r3, [r2, #0]
 8013bf0:	68d3      	ldr	r3, [r2, #12]
 8013bf2:	f423 1340 	bic.w	r3, r3, #3145728	; 0x300000
 8013bf6:	f443 1380 	orr.w	r3, r3, #1048576	; 0x100000
 8013bfa:	60d3      	str	r3, [r2, #12]
 8013bfc:	e7a4      	b.n	8013b48 <_ZN6detail9spi_setupEv+0xc0>
 8013bfe:	f103 4380 	add.w	r3, r3, #1073741824	; 0x40000000
 8013c02:	f503 3302 	add.w	r3, r3, #133120	; 0x20800
 8013c06:	681a      	ldr	r2, [r3, #0]
 8013c08:	f422 0240 	bic.w	r2, r2, #12582912	; 0xc00000
 8013c0c:	f442 0200 	orr.w	r2, r2, #8388608	; 0x800000
 8013c10:	601a      	str	r2, [r3, #0]
 8013c12:	685a      	ldr	r2, [r3, #4]
 8013c14:	f422 6200 	bic.w	r2, r2, #2048	; 0x800
 8013c18:	605a      	str	r2, [r3, #4]
 8013c1a:	689a      	ldr	r2, [r3, #8]
 8013c1c:	f442 0240 	orr.w	r2, r2, #12582912	; 0xc00000
 8013c20:	609a      	str	r2, [r3, #8]
 8013c22:	68da      	ldr	r2, [r3, #12]
 8013c24:	f422 0240 	bic.w	r2, r2, #12582912	; 0xc00000
 8013c28:	f442 0280 	orr.w	r2, r2, #4194304	; 0x400000
 8013c2c:	60da      	str	r2, [r3, #12]
 8013c2e:	695a      	ldr	r2, [r3, #20]
 8013c30:	f442 6200 	orr.w	r2, r2, #2048	; 0x800
 8013c34:	615a      	str	r2, [r3, #20]
 8013c36:	6a5a      	ldr	r2, [r3, #36]	; 0x24
 8013c38:	f422 4270 	bic.w	r2, r2, #61440	; 0xf000
 8013c3c:	f442 42c0 	orr.w	r2, r2, #24576	; 0x6000
 8013c40:	625a      	str	r2, [r3, #36]	; 0x24
 8013c42:	4770      	bx	lr
 8013c44:	40023800 	.word	0x40023800
 8013c48:	40020400 	.word	0x40020400
 8013c4c:	10000014 	.word	0x10000014
 8013c50:	40020800 	.word	0x40020800

08013c54 <_ZN6detail12spi_takedownEv>:
 8013c54:	491a      	ldr	r1, [pc, #104]	; (8013cc0 <_ZN6detail12spi_takedownEv+0x6c>)
 8013c56:	4b1b      	ldr	r3, [pc, #108]	; (8013cc4 <_ZN6detail12spi_takedownEv+0x70>)
 8013c58:	680a      	ldr	r2, [r1, #0]
 8013c5a:	f022 6240 	bic.w	r2, r2, #201326592	; 0xc000000
 8013c5e:	600a      	str	r2, [r1, #0]
 8013c60:	68ca      	ldr	r2, [r1, #12]
 8013c62:	f022 6240 	bic.w	r2, r2, #201326592	; 0xc000000
 8013c66:	f042 6280 	orr.w	r2, r2, #67108864	; 0x4000000
 8013c6a:	60ca      	str	r2, [r1, #12]
 8013c6c:	681a      	ldr	r2, [r3, #0]
 8013c6e:	f022 0230 	bic.w	r2, r2, #48	; 0x30
 8013c72:	601a      	str	r2, [r3, #0]
 8013c74:	68da      	ldr	r2, [r3, #12]
 8013c76:	f022 0230 	bic.w	r2, r2, #48	; 0x30
 8013c7a:	f042 0210 	orr.w	r2, r2, #16
 8013c7e:	60da      	str	r2, [r3, #12]
 8013c80:	681a      	ldr	r2, [r3, #0]
 8013c82:	f422 1240 	bic.w	r2, r2, #3145728	; 0x300000
 8013c86:	601a      	str	r2, [r3, #0]
 8013c88:	68da      	ldr	r2, [r3, #12]
 8013c8a:	f422 1240 	bic.w	r2, r2, #3145728	; 0x300000
 8013c8e:	f442 1280 	orr.w	r2, r2, #1048576	; 0x100000
 8013c92:	60da      	str	r2, [r3, #12]
 8013c94:	681a      	ldr	r2, [r3, #0]
 8013c96:	f422 0240 	bic.w	r2, r2, #12582912	; 0xc00000
 8013c9a:	601a      	str	r2, [r3, #0]
 8013c9c:	68da      	ldr	r2, [r3, #12]
 8013c9e:	f422 0240 	bic.w	r2, r2, #12582912	; 0xc00000
 8013ca2:	f442 0280 	orr.w	r2, r2, #4194304	; 0x400000
 8013ca6:	60da      	str	r2, [r3, #12]
 8013ca8:	681a      	ldr	r2, [r3, #0]
 8013caa:	f422 5240 	bic.w	r2, r2, #12288	; 0x3000
 8013cae:	601a      	str	r2, [r3, #0]
 8013cb0:	68da      	ldr	r2, [r3, #12]
 8013cb2:	f422 5240 	bic.w	r2, r2, #12288	; 0x3000
 8013cb6:	f442 5280 	orr.w	r2, r2, #4096	; 0x1000
 8013cba:	60da      	str	r2, [r3, #12]
 8013cbc:	4770      	bx	lr
 8013cbe:	bf00      	nop
 8013cc0:	40020400 	.word	0x40020400
 8013cc4:	40020800 	.word	0x40020800

08013cc8 <_ZN6detail15pixel_dma_setupEv>:
 8013cc8:	4a24      	ldr	r2, [pc, #144]	; (8013d5c <_ZN6detail15pixel_dma_setupEv+0x94>)
 8013cca:	6b13      	ldr	r3, [r2, #48]	; 0x30
 8013ccc:	f443 1300 	orr.w	r3, r3, #2097152	; 0x200000
 8013cd0:	6313      	str	r3, [r2, #48]	; 0x30
 8013cd2:	2314      	movs	r3, #20
 8013cd4:	bf00      	nop
 8013cd6:	3b01      	subs	r3, #1
 8013cd8:	f013 03ff 	ands.w	r3, r3, #255	; 0xff
 8013cdc:	d1fa      	bne.n	8013cd4 <_ZN6detail15pixel_dma_setupEv+0xc>
 8013cde:	4b1f      	ldr	r3, [pc, #124]	; (8013d5c <_ZN6detail15pixel_dma_setupEv+0x94>)
 8013ce0:	4a1f      	ldr	r2, [pc, #124]	; (8013d60 <_ZN6detail15pixel_dma_setupEv+0x98>)
 8013ce2:	6919      	ldr	r1, [r3, #16]
 8013ce4:	f441 1100 	orr.w	r1, r1, #2097152	; 0x200000
 8013ce8:	6119      	str	r1, [r3, #16]
 8013cea:	6919      	ldr	r1, [r3, #16]
 8013cec:	f421 1100 	bic.w	r1, r1, #2097152	; 0x200000
 8013cf0:	6119      	str	r1, [r3, #16]
 8013cf2:	6813      	ldr	r3, [r2, #0]
 8013cf4:	07db      	lsls	r3, r3, #31
 8013cf6:	d506      	bpl.n	8013d06 <_ZN6detail15pixel_dma_setupEv+0x3e>
 8013cf8:	6813      	ldr	r3, [r2, #0]
 8013cfa:	f023 0301 	bic.w	r3, r3, #1
 8013cfe:	6013      	str	r3, [r2, #0]
 8013d00:	6813      	ldr	r3, [r2, #0]
 8013d02:	07d8      	lsls	r0, r3, #31
 8013d04:	d4fc      	bmi.n	8013d00 <_ZN6detail15pixel_dma_setupEv+0x38>
 8013d06:	4b16      	ldr	r3, [pc, #88]	; (8013d60 <_ZN6detail15pixel_dma_setupEv+0x98>)
 8013d08:	4a16      	ldr	r2, [pc, #88]	; (8013d64 <_ZN6detail15pixel_dma_setupEv+0x9c>)
 8013d0a:	601a      	str	r2, [r3, #0]
 8013d0c:	695a      	ldr	r2, [r3, #20]
 8013d0e:	4816      	ldr	r0, [pc, #88]	; (8013d68 <_ZN6detail15pixel_dma_setupEv+0xa0>)
 8013d10:	4916      	ldr	r1, [pc, #88]	; (8013d6c <_ZN6detail15pixel_dma_setupEv+0xa4>)
 8013d12:	f042 0204 	orr.w	r2, r2, #4
 8013d16:	615a      	str	r2, [r3, #20]
 8013d18:	695a      	ldr	r2, [r3, #20]
 8013d1a:	f042 0203 	orr.w	r2, r2, #3
 8013d1e:	615a      	str	r2, [r3, #20]
 8013d20:	6098      	str	r0, [r3, #8]
 8013d22:	780b      	ldrb	r3, [r1, #0]
 8013d24:	b103      	cbz	r3, 8013d28 <_ZN6detail15pixel_dma_setupEv+0x60>
 8013d26:	4770      	bx	lr
 8013d28:	4a11      	ldr	r2, [pc, #68]	; (8013d70 <_ZN6detail15pixel_dma_setupEv+0xa8>)
 8013d2a:	6813      	ldr	r3, [r2, #0]
 8013d2c:	07d9      	lsls	r1, r3, #31
 8013d2e:	d506      	bpl.n	8013d3e <_ZN6detail15pixel_dma_setupEv+0x76>
 8013d30:	6813      	ldr	r3, [r2, #0]
 8013d32:	f023 0301 	bic.w	r3, r3, #1
 8013d36:	6013      	str	r3, [r2, #0]
 8013d38:	6813      	ldr	r3, [r2, #0]
 8013d3a:	07db      	lsls	r3, r3, #31
 8013d3c:	d4fc      	bmi.n	8013d38 <_ZN6detail15pixel_dma_setupEv+0x70>
 8013d3e:	4b0c      	ldr	r3, [pc, #48]	; (8013d70 <_ZN6detail15pixel_dma_setupEv+0xa8>)
 8013d40:	4a08      	ldr	r2, [pc, #32]	; (8013d64 <_ZN6detail15pixel_dma_setupEv+0x9c>)
 8013d42:	601a      	str	r2, [r3, #0]
 8013d44:	695a      	ldr	r2, [r3, #20]
 8013d46:	490b      	ldr	r1, [pc, #44]	; (8013d74 <_ZN6detail15pixel_dma_setupEv+0xac>)
 8013d48:	f042 0204 	orr.w	r2, r2, #4
 8013d4c:	615a      	str	r2, [r3, #20]
 8013d4e:	695a      	ldr	r2, [r3, #20]
 8013d50:	f042 0203 	orr.w	r2, r2, #3
 8013d54:	615a      	str	r2, [r3, #20]
 8013d56:	6099      	str	r1, [r3, #8]
 8013d58:	4770      	bx	lr
 8013d5a:	bf00      	nop
 8013d5c:	40023800 	.word	0x40023800
 8013d60:	40026070 	.word	0x40026070
 8013d64:	00030440 	.word	0x00030440
 8013d68:	4000380c 	.word	0x4000380c
 8013d6c:	10000014 	.word	0x10000014
 8013d70:	40026088 	.word	0x40026088
 8013d74:	40003c0c 	.word	0x40003c0c

08013d78 <_ZN6detail25internal_video_mode_setupEv>:
 8013d78:	4927      	ldr	r1, [pc, #156]	; (8013e18 <_ZN6detail25internal_video_mode_setupEv+0xa0>)
 8013d7a:	4b28      	ldr	r3, [pc, #160]	; (8013e1c <_ZN6detail25internal_video_mode_setupEv+0xa4>)
 8013d7c:	e92d 4ff0 	stmdb	sp!, {r4, r5, r6, r7, r8, r9, sl, fp, lr}
 8013d80:	f44f 7097 	mov.w	r0, #302	; 0x12e
 8013d84:	4c26      	ldr	r4, [pc, #152]	; (8013e20 <_ZN6detail25internal_video_mode_setupEv+0xa8>)
 8013d86:	6008      	str	r0, [r1, #0]
 8013d88:	6c21      	ldr	r1, [r4, #64]	; 0x40
 8013d8a:	f8df e0a0 	ldr.w	lr, [pc, #160]	; 8013e2c <_ZN6detail25internal_video_mode_setupEv+0xb4>
 8013d8e:	4d25      	ldr	r5, [pc, #148]	; (8013e24 <_ZN6detail25internal_video_mode_setupEv+0xac>)
 8013d90:	4e25      	ldr	r6, [pc, #148]	; (8013e28 <_ZN6detail25internal_video_mode_setupEv+0xb0>)
 8013d92:	2200      	movs	r2, #0
 8013d94:	2703      	movs	r7, #3
 8013d96:	f041 0102 	orr.w	r1, r1, #2
 8013d9a:	f88e 7000 	strb.w	r7, [lr]
 8013d9e:	702a      	strb	r2, [r5, #0]
 8013da0:	6421      	str	r1, [r4, #64]	; 0x40
 8013da2:	6a25      	ldr	r5, [r4, #32]
 8013da4:	4611      	mov	r1, r2
 8013da6:	f045 0502 	orr.w	r5, r5, #2
 8013daa:	4610      	mov	r0, r2
 8013dac:	f362 0101 	bfi	r1, r2, #0, #2
 8013db0:	6225      	str	r5, [r4, #32]
 8013db2:	f362 10c7 	bfi	r0, r2, #7, #1
 8013db6:	f362 0182 	bfi	r1, r2, #2, #1
 8013dba:	6a25      	ldr	r5, [r4, #32]
 8013dbc:	f367 1006 	bfi	r0, r7, #4, #3
 8013dc0:	f362 01c3 	bfi	r1, r2, #3, #1
 8013dc4:	2706      	movs	r7, #6
 8013dc6:	f367 1106 	bfi	r1, r7, #4, #3
 8013dca:	f040 0008 	orr.w	r0, r0, #8
 8013dce:	2701      	movs	r7, #1
 8013dd0:	fa1f fb81 	uxth.w	fp, r1
 8013dd4:	b280      	uxth	r0, r0
 8013dd6:	f025 0502 	bic.w	r5, r5, #2
 8013dda:	f04f 0980 	mov.w	r9, #128	; 0x80
 8013dde:	f44f 7cc5 	mov.w	ip, #394	; 0x18a
 8013de2:	f241 41ff 	movw	r1, #5375	; 0x14ff
 8013de6:	f04f 0eb0 	mov.w	lr, #176	; 0xb0
 8013dea:	6225      	str	r5, [r4, #32]
 8013dec:	601a      	str	r2, [r3, #0]
 8013dee:	f04f 5400 	mov.w	r4, #536870912	; 0x20000000
 8013df2:	6058      	str	r0, [r3, #4]
 8013df4:	f8c3 9008 	str.w	r9, [r3, #8]
 8013df8:	60df      	str	r7, [r3, #12]
 8013dfa:	611a      	str	r2, [r3, #16]
 8013dfc:	615a      	str	r2, [r3, #20]
 8013dfe:	f8c3 b018 	str.w	fp, [r3, #24]
 8013e02:	621f      	str	r7, [r3, #32]
 8013e04:	625a      	str	r2, [r3, #36]	; 0x24
 8013e06:	f8c3 c034 	str.w	ip, [r3, #52]	; 0x34
 8013e0a:	62d9      	str	r1, [r3, #44]	; 0x2c
 8013e0c:	f886 e31d 	strb.w	lr, [r6, #797]	; 0x31d
 8013e10:	6034      	str	r4, [r6, #0]
 8013e12:	e8bd 8ff0 	ldmia.w	sp!, {r4, r5, r6, r7, r8, r9, sl, fp, pc}
 8013e16:	bf00      	nop
 8013e18:	10000e1c 	.word	0x10000e1c
 8013e1c:	40000400 	.word	0x40000400
 8013e20:	40023800 	.word	0x40023800
 8013e24:	1000002e 	.word	0x1000002e
 8013e28:	e000e100 	.word	0xe000e100
 8013e2c:	1000002f 	.word	0x1000002f

08013e30 <_ZN6detail26do_internal_video_mode_irqEv>:
 8013e30:	b538      	push	{r3, r4, r5, lr}
 8013e32:	4b3e      	ldr	r3, [pc, #248]	; (8013f2c <_ZN6detail26do_internal_video_mode_irqEv+0xfc>)
 8013e34:	691b      	ldr	r3, [r3, #16]
 8013e36:	07db      	lsls	r3, r3, #31
 8013e38:	d400      	bmi.n	8013e3c <_ZN6detail26do_internal_video_mode_irqEv+0xc>
 8013e3a:	bd38      	pop	{r3, r4, r5, pc}
 8013e3c:	4b3c      	ldr	r3, [pc, #240]	; (8013f30 <_ZN6detail26do_internal_video_mode_irqEv+0x100>)
 8013e3e:	4a3d      	ldr	r2, [pc, #244]	; (8013f34 <_ZN6detail26do_internal_video_mode_irqEv+0x104>)
 8013e40:	2100      	movs	r1, #0
 8013e42:	6019      	str	r1, [r3, #0]
 8013e44:	7813      	ldrb	r3, [r2, #0]
 8013e46:	2b03      	cmp	r3, #3
 8013e48:	d8f7      	bhi.n	8013e3a <_ZN6detail26do_internal_video_mode_irqEv+0xa>
 8013e4a:	e8df f003 	tbb	[pc, r3]
 8013e4e:	2930      	.short	0x2930
 8013e50:	0213      	.short	0x0213
 8013e52:	4c39      	ldr	r4, [pc, #228]	; (8013f38 <_ZN6detail26do_internal_video_mode_irqEv+0x108>)
 8013e54:	6823      	ldr	r3, [r4, #0]
 8013e56:	f5b3 7f96 	cmp.w	r3, #300	; 0x12c
 8013e5a:	d062      	beq.n	8013f22 <_ZN6detail26do_internal_video_mode_irqEv+0xf2>
 8013e5c:	f240 112f 	movw	r1, #303	; 0x12f
 8013e60:	428b      	cmp	r3, r1
 8013e62:	d03d      	beq.n	8013ee0 <_ZN6detail26do_internal_video_mode_irqEv+0xb0>
 8013e64:	2b11      	cmp	r3, #17
 8013e66:	d102      	bne.n	8013e6e <_ZN6detail26do_internal_video_mode_irqEv+0x3e>
 8013e68:	f7ff fc78 	bl	801375c <_ZN9video_cfg4rows3osd5beginEv>
 8013e6c:	6823      	ldr	r3, [r4, #0]
 8013e6e:	3301      	adds	r3, #1
 8013e70:	6023      	str	r3, [r4, #0]
 8013e72:	bd38      	pop	{r3, r4, r5, pc}
 8013e74:	4c30      	ldr	r4, [pc, #192]	; (8013f38 <_ZN6detail26do_internal_video_mode_irqEv+0x108>)
 8013e76:	6823      	ldr	r3, [r4, #0]
 8013e78:	2b03      	cmp	r3, #3
 8013e7a:	d049      	beq.n	8013f10 <_ZN6detail26do_internal_video_mode_irqEv+0xe0>
 8013e7c:	2b04      	cmp	r3, #4
 8013e7e:	d1f6      	bne.n	8013e6e <_ZN6detail26do_internal_video_mode_irqEv+0x3e>
 8013e80:	4b2e      	ldr	r3, [pc, #184]	; (8013f3c <_ZN6detail26do_internal_video_mode_irqEv+0x10c>)
 8013e82:	781b      	ldrb	r3, [r3, #0]
 8013e84:	b11b      	cbz	r3, 8013e8e <_ZN6detail26do_internal_video_mode_irqEv+0x5e>
 8013e86:	4b29      	ldr	r3, [pc, #164]	; (8013f2c <_ZN6detail26do_internal_video_mode_irqEv+0xfc>)
 8013e88:	f241 41ff 	movw	r1, #5375	; 0x14ff
 8013e8c:	62d9      	str	r1, [r3, #44]	; 0x2c
 8013e8e:	4827      	ldr	r0, [pc, #156]	; (8013f2c <_ZN6detail26do_internal_video_mode_irqEv+0xfc>)
 8013e90:	f44f 75c5 	mov.w	r5, #394	; 0x18a
 8013e94:	2103      	movs	r1, #3
 8013e96:	2300      	movs	r3, #0
 8013e98:	6345      	str	r5, [r0, #52]	; 0x34
 8013e9a:	7011      	strb	r1, [r2, #0]
 8013e9c:	6023      	str	r3, [r4, #0]
 8013e9e:	bd38      	pop	{r3, r4, r5, pc}
 8013ea0:	4925      	ldr	r1, [pc, #148]	; (8013f38 <_ZN6detail26do_internal_video_mode_irqEv+0x108>)
 8013ea2:	680b      	ldr	r3, [r1, #0]
 8013ea4:	2b04      	cmp	r3, #4
 8013ea6:	d026      	beq.n	8013ef6 <_ZN6detail26do_internal_video_mode_irqEv+0xc6>
 8013ea8:	3301      	adds	r3, #1
 8013eaa:	600b      	str	r3, [r1, #0]
 8013eac:	bd38      	pop	{r3, r4, r5, pc}
 8013eae:	4c22      	ldr	r4, [pc, #136]	; (8013f38 <_ZN6detail26do_internal_video_mode_irqEv+0x108>)
 8013eb0:	6823      	ldr	r3, [r4, #0]
 8013eb2:	b953      	cbnz	r3, 8013eca <_ZN6detail26do_internal_video_mode_irqEv+0x9a>
 8013eb4:	4921      	ldr	r1, [pc, #132]	; (8013f3c <_ZN6detail26do_internal_video_mode_irqEv+0x10c>)
 8013eb6:	4a1d      	ldr	r2, [pc, #116]	; (8013f2c <_ZN6detail26do_internal_video_mode_irqEv+0xfc>)
 8013eb8:	7809      	ldrb	r1, [r1, #0]
 8013eba:	20c4      	movs	r0, #196	; 0xc4
 8013ebc:	6350      	str	r0, [r2, #52]	; 0x34
 8013ebe:	2900      	cmp	r1, #0
 8013ec0:	d0d5      	beq.n	8013e6e <_ZN6detail26do_internal_video_mode_irqEv+0x3e>
 8013ec2:	f640 217f 	movw	r1, #2687	; 0xa7f
 8013ec6:	62d1      	str	r1, [r2, #44]	; 0x2c
 8013ec8:	e7d1      	b.n	8013e6e <_ZN6detail26do_internal_video_mode_irqEv+0x3e>
 8013eca:	2b05      	cmp	r3, #5
 8013ecc:	d1cf      	bne.n	8013e6e <_ZN6detail26do_internal_video_mode_irqEv+0x3e>
 8013ece:	4917      	ldr	r1, [pc, #92]	; (8013f2c <_ZN6detail26do_internal_video_mode_irqEv+0xfc>)
 8013ed0:	2501      	movs	r5, #1
 8013ed2:	f640 00f5 	movw	r0, #2293	; 0x8f5
 8013ed6:	2300      	movs	r3, #0
 8013ed8:	7015      	strb	r5, [r2, #0]
 8013eda:	6348      	str	r0, [r1, #52]	; 0x34
 8013edc:	6023      	str	r3, [r4, #0]
 8013ede:	bd38      	pop	{r3, r4, r5, pc}
 8013ee0:	4b16      	ldr	r3, [pc, #88]	; (8013f3c <_ZN6detail26do_internal_video_mode_irqEv+0x10c>)
 8013ee2:	781b      	ldrb	r3, [r3, #0]
 8013ee4:	b91b      	cbnz	r3, 8013eee <_ZN6detail26do_internal_video_mode_irqEv+0xbe>
 8013ee6:	4b11      	ldr	r3, [pc, #68]	; (8013f2c <_ZN6detail26do_internal_video_mode_irqEv+0xfc>)
 8013ee8:	f640 217f 	movw	r1, #2687	; 0xa7f
 8013eec:	62d9      	str	r1, [r3, #44]	; 0x2c
 8013eee:	2300      	movs	r3, #0
 8013ef0:	7013      	strb	r3, [r2, #0]
 8013ef2:	6023      	str	r3, [r4, #0]
 8013ef4:	bd38      	pop	{r3, r4, r5, pc}
 8013ef6:	4b0d      	ldr	r3, [pc, #52]	; (8013f2c <_ZN6detail26do_internal_video_mode_irqEv+0xfc>)
 8013ef8:	4810      	ldr	r0, [pc, #64]	; (8013f3c <_ZN6detail26do_internal_video_mode_irqEv+0x10c>)
 8013efa:	2502      	movs	r5, #2
 8013efc:	24c4      	movs	r4, #196	; 0xc4
 8013efe:	7015      	strb	r5, [r2, #0]
 8013f00:	635c      	str	r4, [r3, #52]	; 0x34
 8013f02:	7803      	ldrb	r3, [r0, #0]
 8013f04:	2200      	movs	r2, #0
 8013f06:	f083 0301 	eor.w	r3, r3, #1
 8013f0a:	7003      	strb	r3, [r0, #0]
 8013f0c:	600a      	str	r2, [r1, #0]
 8013f0e:	bd38      	pop	{r3, r4, r5, pc}
 8013f10:	4a0a      	ldr	r2, [pc, #40]	; (8013f3c <_ZN6detail26do_internal_video_mode_irqEv+0x10c>)
 8013f12:	7812      	ldrb	r2, [r2, #0]
 8013f14:	2a00      	cmp	r2, #0
 8013f16:	d1aa      	bne.n	8013e6e <_ZN6detail26do_internal_video_mode_irqEv+0x3e>
 8013f18:	4a04      	ldr	r2, [pc, #16]	; (8013f2c <_ZN6detail26do_internal_video_mode_irqEv+0xfc>)
 8013f1a:	f241 41ff 	movw	r1, #5375	; 0x14ff
 8013f1e:	62d1      	str	r1, [r2, #44]	; 0x2c
 8013f20:	e7a5      	b.n	8013e6e <_ZN6detail26do_internal_video_mode_irqEv+0x3e>
 8013f22:	f7ff fc23 	bl	801376c <_ZN9video_cfg4rows3osd3endEv>
 8013f26:	6823      	ldr	r3, [r4, #0]
 8013f28:	e7a1      	b.n	8013e6e <_ZN6detail26do_internal_video_mode_irqEv+0x3e>
 8013f2a:	bf00      	nop
 8013f2c:	40000400 	.word	0x40000400
 8013f30:	42008200 	.word	0x42008200
 8013f34:	1000002f 	.word	0x1000002f
 8013f38:	10000e1c 	.word	0x10000e1c
 8013f3c:	1000002e 	.word	0x1000002e

08013f40 <__aeabi_atexit>:
 8013f40:	4603      	mov	r3, r0
 8013f42:	4608      	mov	r0, r1
 8013f44:	4619      	mov	r1, r3
 8013f46:	f000 b801 	b.w	8013f4c <__cxa_atexit>
 8013f4a:	bf00      	nop

08013f4c <__cxa_atexit>:
 8013f4c:	b410      	push	{r4}
 8013f4e:	460c      	mov	r4, r1
 8013f50:	4613      	mov	r3, r2
 8013f52:	4601      	mov	r1, r0
 8013f54:	4622      	mov	r2, r4
 8013f56:	2002      	movs	r0, #2
 8013f58:	f85d 4b04 	ldr.w	r4, [sp], #4
 8013f5c:	f000 bb34 	b.w	80145c8 <__register_exitproc>

08013f60 <__errno>:
 8013f60:	4b01      	ldr	r3, [pc, #4]	; (8013f68 <__errno+0x8>)
 8013f62:	6818      	ldr	r0, [r3, #0]
 8013f64:	4770      	bx	lr
 8013f66:	bf00      	nop
 8013f68:	10000458 	.word	0x10000458

08013f6c <__libc_init_array>:
 8013f6c:	b570      	push	{r4, r5, r6, lr}
 8013f6e:	4e0f      	ldr	r6, [pc, #60]	; (8013fac <__libc_init_array+0x40>)
 8013f70:	4d0f      	ldr	r5, [pc, #60]	; (8013fb0 <__libc_init_array+0x44>)
 8013f72:	1b76      	subs	r6, r6, r5
 8013f74:	10b6      	asrs	r6, r6, #2
 8013f76:	bf18      	it	ne
 8013f78:	2400      	movne	r4, #0
 8013f7a:	d005      	beq.n	8013f88 <__libc_init_array+0x1c>
 8013f7c:	3401      	adds	r4, #1
 8013f7e:	f855 3b04 	ldr.w	r3, [r5], #4
 8013f82:	4798      	blx	r3
 8013f84:	42a6      	cmp	r6, r4
 8013f86:	d1f9      	bne.n	8013f7c <__libc_init_array+0x10>
 8013f88:	4e0a      	ldr	r6, [pc, #40]	; (8013fb4 <__libc_init_array+0x48>)
 8013f8a:	4d0b      	ldr	r5, [pc, #44]	; (8013fb8 <__libc_init_array+0x4c>)
 8013f8c:	1b76      	subs	r6, r6, r5
 8013f8e:	f005 fedb 	bl	8019d48 <_init>
 8013f92:	10b6      	asrs	r6, r6, #2
 8013f94:	bf18      	it	ne
 8013f96:	2400      	movne	r4, #0
 8013f98:	d006      	beq.n	8013fa8 <__libc_init_array+0x3c>
 8013f9a:	3401      	adds	r4, #1
 8013f9c:	f855 3b04 	ldr.w	r3, [r5], #4
 8013fa0:	4798      	blx	r3
 8013fa2:	42a6      	cmp	r6, r4
 8013fa4:	d1f9      	bne.n	8013f9a <__libc_init_array+0x2e>
 8013fa6:	bd70      	pop	{r4, r5, r6, pc}
 8013fa8:	bd70      	pop	{r4, r5, r6, pc}
 8013faa:	bf00      	nop
 8013fac:	08000188 	.word	0x08000188
 8013fb0:	08000188 	.word	0x08000188
 8013fb4:	08000194 	.word	0x08000194
 8013fb8:	08000188 	.word	0x08000188

08013fbc <malloc>:
 8013fbc:	4b02      	ldr	r3, [pc, #8]	; (8013fc8 <malloc+0xc>)
 8013fbe:	4601      	mov	r1, r0
 8013fc0:	6818      	ldr	r0, [r3, #0]
 8013fc2:	f000 b80b 	b.w	8013fdc <_malloc_r>
 8013fc6:	bf00      	nop
 8013fc8:	10000458 	.word	0x10000458

08013fcc <free>:
 8013fcc:	4b02      	ldr	r3, [pc, #8]	; (8013fd8 <free+0xc>)
 8013fce:	4601      	mov	r1, r0
 8013fd0:	6818      	ldr	r0, [r3, #0]
 8013fd2:	f000 bb99 	b.w	8014708 <_free_r>
 8013fd6:	bf00      	nop
 8013fd8:	10000458 	.word	0x10000458

08013fdc <_malloc_r>:
 8013fdc:	e92d 4ff0 	stmdb	sp!, {r4, r5, r6, r7, r8, r9, sl, fp, lr}
 8013fe0:	f101 050b 	add.w	r5, r1, #11
 8013fe4:	2d16      	cmp	r5, #22
 8013fe6:	b083      	sub	sp, #12
 8013fe8:	4606      	mov	r6, r0
 8013fea:	d927      	bls.n	801403c <_malloc_r+0x60>
 8013fec:	f035 0507 	bics.w	r5, r5, #7
 8013ff0:	f100 80b6 	bmi.w	8014160 <_malloc_r+0x184>
 8013ff4:	42a9      	cmp	r1, r5
 8013ff6:	f200 80b3 	bhi.w	8014160 <_malloc_r+0x184>
 8013ffa:	f000 facf 	bl	801459c <__malloc_lock>
 8013ffe:	f5b5 7ffc 	cmp.w	r5, #504	; 0x1f8
 8014002:	d222      	bcs.n	801404a <_malloc_r+0x6e>
 8014004:	4fc2      	ldr	r7, [pc, #776]	; (8014310 <_malloc_r+0x334>)
 8014006:	08e8      	lsrs	r0, r5, #3
 8014008:	eb07 03c0 	add.w	r3, r7, r0, lsl #3
 801400c:	68dc      	ldr	r4, [r3, #12]
 801400e:	429c      	cmp	r4, r3
 8014010:	f000 81c8 	beq.w	80143a4 <_malloc_r+0x3c8>
 8014014:	6863      	ldr	r3, [r4, #4]
 8014016:	68e1      	ldr	r1, [r4, #12]
 8014018:	68a5      	ldr	r5, [r4, #8]
 801401a:	f023 0303 	bic.w	r3, r3, #3
 801401e:	4423      	add	r3, r4
 8014020:	4630      	mov	r0, r6
 8014022:	685a      	ldr	r2, [r3, #4]
 8014024:	60e9      	str	r1, [r5, #12]
 8014026:	f042 0201 	orr.w	r2, r2, #1
 801402a:	608d      	str	r5, [r1, #8]
 801402c:	605a      	str	r2, [r3, #4]
 801402e:	f000 fab7 	bl	80145a0 <__malloc_unlock>
 8014032:	3408      	adds	r4, #8
 8014034:	4620      	mov	r0, r4
 8014036:	b003      	add	sp, #12
 8014038:	e8bd 8ff0 	ldmia.w	sp!, {r4, r5, r6, r7, r8, r9, sl, fp, pc}
 801403c:	2910      	cmp	r1, #16
 801403e:	f200 808f 	bhi.w	8014160 <_malloc_r+0x184>
 8014042:	f000 faab 	bl	801459c <__malloc_lock>
 8014046:	2510      	movs	r5, #16
 8014048:	e7dc      	b.n	8014004 <_malloc_r+0x28>
 801404a:	0a68      	lsrs	r0, r5, #9
 801404c:	f000 808f 	beq.w	801416e <_malloc_r+0x192>
 8014050:	2804      	cmp	r0, #4
 8014052:	f200 8154 	bhi.w	80142fe <_malloc_r+0x322>
 8014056:	09a8      	lsrs	r0, r5, #6
 8014058:	3038      	adds	r0, #56	; 0x38
 801405a:	0041      	lsls	r1, r0, #1
 801405c:	4fac      	ldr	r7, [pc, #688]	; (8014310 <_malloc_r+0x334>)
 801405e:	eb07 0181 	add.w	r1, r7, r1, lsl #2
 8014062:	68cc      	ldr	r4, [r1, #12]
 8014064:	42a1      	cmp	r1, r4
 8014066:	d106      	bne.n	8014076 <_malloc_r+0x9a>
 8014068:	e00c      	b.n	8014084 <_malloc_r+0xa8>
 801406a:	2a00      	cmp	r2, #0
 801406c:	f280 8082 	bge.w	8014174 <_malloc_r+0x198>
 8014070:	68e4      	ldr	r4, [r4, #12]
 8014072:	42a1      	cmp	r1, r4
 8014074:	d006      	beq.n	8014084 <_malloc_r+0xa8>
 8014076:	6863      	ldr	r3, [r4, #4]
 8014078:	f023 0303 	bic.w	r3, r3, #3
 801407c:	1b5a      	subs	r2, r3, r5
 801407e:	2a0f      	cmp	r2, #15
 8014080:	ddf3      	ble.n	801406a <_malloc_r+0x8e>
 8014082:	3801      	subs	r0, #1
 8014084:	3001      	adds	r0, #1
 8014086:	49a2      	ldr	r1, [pc, #648]	; (8014310 <_malloc_r+0x334>)
 8014088:	693c      	ldr	r4, [r7, #16]
 801408a:	f101 0e08 	add.w	lr, r1, #8
 801408e:	4574      	cmp	r4, lr
 8014090:	f000 817d 	beq.w	801438e <_malloc_r+0x3b2>
 8014094:	6863      	ldr	r3, [r4, #4]
 8014096:	f023 0303 	bic.w	r3, r3, #3
 801409a:	1b5a      	subs	r2, r3, r5
 801409c:	2a0f      	cmp	r2, #15
 801409e:	f300 8163 	bgt.w	8014368 <_malloc_r+0x38c>
 80140a2:	2a00      	cmp	r2, #0
 80140a4:	f8c1 e014 	str.w	lr, [r1, #20]
 80140a8:	f8c1 e010 	str.w	lr, [r1, #16]
 80140ac:	da73      	bge.n	8014196 <_malloc_r+0x1ba>
 80140ae:	f5b3 7f00 	cmp.w	r3, #512	; 0x200
 80140b2:	f080 8139 	bcs.w	8014328 <_malloc_r+0x34c>
 80140b6:	08db      	lsrs	r3, r3, #3
 80140b8:	eb01 08c3 	add.w	r8, r1, r3, lsl #3
 80140bc:	ea4f 0ca3 	mov.w	ip, r3, asr #2
 80140c0:	684a      	ldr	r2, [r1, #4]
 80140c2:	f8d8 9008 	ldr.w	r9, [r8, #8]
 80140c6:	f8c4 9008 	str.w	r9, [r4, #8]
 80140ca:	2301      	movs	r3, #1
 80140cc:	fa03 f30c 	lsl.w	r3, r3, ip
 80140d0:	4313      	orrs	r3, r2
 80140d2:	f8c4 800c 	str.w	r8, [r4, #12]
 80140d6:	604b      	str	r3, [r1, #4]
 80140d8:	f8c8 4008 	str.w	r4, [r8, #8]
 80140dc:	f8c9 400c 	str.w	r4, [r9, #12]
 80140e0:	1082      	asrs	r2, r0, #2
 80140e2:	2401      	movs	r4, #1
 80140e4:	4094      	lsls	r4, r2
 80140e6:	429c      	cmp	r4, r3
 80140e8:	d862      	bhi.n	80141b0 <_malloc_r+0x1d4>
 80140ea:	4223      	tst	r3, r4
 80140ec:	d106      	bne.n	80140fc <_malloc_r+0x120>
 80140ee:	f020 0003 	bic.w	r0, r0, #3
 80140f2:	0064      	lsls	r4, r4, #1
 80140f4:	4223      	tst	r3, r4
 80140f6:	f100 0004 	add.w	r0, r0, #4
 80140fa:	d0fa      	beq.n	80140f2 <_malloc_r+0x116>
 80140fc:	eb07 08c0 	add.w	r8, r7, r0, lsl #3
 8014100:	46c4      	mov	ip, r8
 8014102:	4681      	mov	r9, r0
 8014104:	f8dc 300c 	ldr.w	r3, [ip, #12]
 8014108:	459c      	cmp	ip, r3
 801410a:	d107      	bne.n	801411c <_malloc_r+0x140>
 801410c:	e141      	b.n	8014392 <_malloc_r+0x3b6>
 801410e:	2900      	cmp	r1, #0
 8014110:	f280 8151 	bge.w	80143b6 <_malloc_r+0x3da>
 8014114:	68db      	ldr	r3, [r3, #12]
 8014116:	459c      	cmp	ip, r3
 8014118:	f000 813b 	beq.w	8014392 <_malloc_r+0x3b6>
 801411c:	685a      	ldr	r2, [r3, #4]
 801411e:	f022 0203 	bic.w	r2, r2, #3
 8014122:	1b51      	subs	r1, r2, r5
 8014124:	290f      	cmp	r1, #15
 8014126:	ddf2      	ble.n	801410e <_malloc_r+0x132>
 8014128:	461c      	mov	r4, r3
 801412a:	f8d3 c00c 	ldr.w	ip, [r3, #12]
 801412e:	f854 8f08 	ldr.w	r8, [r4, #8]!
 8014132:	195a      	adds	r2, r3, r5
 8014134:	f045 0901 	orr.w	r9, r5, #1
 8014138:	f041 0501 	orr.w	r5, r1, #1
 801413c:	f8c3 9004 	str.w	r9, [r3, #4]
 8014140:	4630      	mov	r0, r6
 8014142:	f8c8 c00c 	str.w	ip, [r8, #12]
 8014146:	f8cc 8008 	str.w	r8, [ip, #8]
 801414a:	617a      	str	r2, [r7, #20]
 801414c:	613a      	str	r2, [r7, #16]
 801414e:	f8c2 e00c 	str.w	lr, [r2, #12]
 8014152:	f8c2 e008 	str.w	lr, [r2, #8]
 8014156:	6055      	str	r5, [r2, #4]
 8014158:	5051      	str	r1, [r2, r1]
 801415a:	f000 fa21 	bl	80145a0 <__malloc_unlock>
 801415e:	e769      	b.n	8014034 <_malloc_r+0x58>
 8014160:	2400      	movs	r4, #0
 8014162:	230c      	movs	r3, #12
 8014164:	4620      	mov	r0, r4
 8014166:	6033      	str	r3, [r6, #0]
 8014168:	b003      	add	sp, #12
 801416a:	e8bd 8ff0 	ldmia.w	sp!, {r4, r5, r6, r7, r8, r9, sl, fp, pc}
 801416e:	217e      	movs	r1, #126	; 0x7e
 8014170:	203f      	movs	r0, #63	; 0x3f
 8014172:	e773      	b.n	801405c <_malloc_r+0x80>
 8014174:	4423      	add	r3, r4
 8014176:	68e1      	ldr	r1, [r4, #12]
 8014178:	685a      	ldr	r2, [r3, #4]
 801417a:	68a5      	ldr	r5, [r4, #8]
 801417c:	f042 0201 	orr.w	r2, r2, #1
 8014180:	60e9      	str	r1, [r5, #12]
 8014182:	4630      	mov	r0, r6
 8014184:	608d      	str	r5, [r1, #8]
 8014186:	605a      	str	r2, [r3, #4]
 8014188:	f000 fa0a 	bl	80145a0 <__malloc_unlock>
 801418c:	3408      	adds	r4, #8
 801418e:	4620      	mov	r0, r4
 8014190:	b003      	add	sp, #12
 8014192:	e8bd 8ff0 	ldmia.w	sp!, {r4, r5, r6, r7, r8, r9, sl, fp, pc}
 8014196:	4423      	add	r3, r4
 8014198:	4630      	mov	r0, r6
 801419a:	685a      	ldr	r2, [r3, #4]
 801419c:	f042 0201 	orr.w	r2, r2, #1
 80141a0:	605a      	str	r2, [r3, #4]
 80141a2:	f000 f9fd 	bl	80145a0 <__malloc_unlock>
 80141a6:	3408      	adds	r4, #8
 80141a8:	4620      	mov	r0, r4
 80141aa:	b003      	add	sp, #12
 80141ac:	e8bd 8ff0 	ldmia.w	sp!, {r4, r5, r6, r7, r8, r9, sl, fp, pc}
 80141b0:	68bc      	ldr	r4, [r7, #8]
 80141b2:	6863      	ldr	r3, [r4, #4]
 80141b4:	f023 0803 	bic.w	r8, r3, #3
 80141b8:	4545      	cmp	r5, r8
 80141ba:	d804      	bhi.n	80141c6 <_malloc_r+0x1ea>
 80141bc:	ebc5 0308 	rsb	r3, r5, r8
 80141c0:	2b0f      	cmp	r3, #15
 80141c2:	f300 808c 	bgt.w	80142de <_malloc_r+0x302>
 80141c6:	4b53      	ldr	r3, [pc, #332]	; (8014314 <_malloc_r+0x338>)
 80141c8:	f8df a158 	ldr.w	sl, [pc, #344]	; 8014324 <_malloc_r+0x348>
 80141cc:	681a      	ldr	r2, [r3, #0]
 80141ce:	f8da 3000 	ldr.w	r3, [sl]
 80141d2:	3301      	adds	r3, #1
 80141d4:	442a      	add	r2, r5
 80141d6:	eb04 0b08 	add.w	fp, r4, r8
 80141da:	f000 8150 	beq.w	801447e <_malloc_r+0x4a2>
 80141de:	f502 5280 	add.w	r2, r2, #4096	; 0x1000
 80141e2:	320f      	adds	r2, #15
 80141e4:	f422 627f 	bic.w	r2, r2, #4080	; 0xff0
 80141e8:	f022 020f 	bic.w	r2, r2, #15
 80141ec:	4611      	mov	r1, r2
 80141ee:	4630      	mov	r0, r6
 80141f0:	9201      	str	r2, [sp, #4]
 80141f2:	f000 f9d7 	bl	80145a4 <_sbrk_r>
 80141f6:	f1b0 3fff 	cmp.w	r0, #4294967295
 80141fa:	4681      	mov	r9, r0
 80141fc:	9a01      	ldr	r2, [sp, #4]
 80141fe:	f000 8147 	beq.w	8014490 <_malloc_r+0x4b4>
 8014202:	4583      	cmp	fp, r0
 8014204:	f200 80ee 	bhi.w	80143e4 <_malloc_r+0x408>
 8014208:	4b43      	ldr	r3, [pc, #268]	; (8014318 <_malloc_r+0x33c>)
 801420a:	6819      	ldr	r1, [r3, #0]
 801420c:	45cb      	cmp	fp, r9
 801420e:	4411      	add	r1, r2
 8014210:	6019      	str	r1, [r3, #0]
 8014212:	f000 8142 	beq.w	801449a <_malloc_r+0x4be>
 8014216:	f8da 0000 	ldr.w	r0, [sl]
 801421a:	f8df e108 	ldr.w	lr, [pc, #264]	; 8014324 <_malloc_r+0x348>
 801421e:	3001      	adds	r0, #1
 8014220:	bf1b      	ittet	ne
 8014222:	ebcb 0b09 	rsbne	fp, fp, r9
 8014226:	4459      	addne	r1, fp
 8014228:	f8ce 9000 	streq.w	r9, [lr]
 801422c:	6019      	strne	r1, [r3, #0]
 801422e:	f019 0107 	ands.w	r1, r9, #7
 8014232:	f000 8107 	beq.w	8014444 <_malloc_r+0x468>
 8014236:	f1c1 0008 	rsb	r0, r1, #8
 801423a:	f5c1 5180 	rsb	r1, r1, #4096	; 0x1000
 801423e:	4481      	add	r9, r0
 8014240:	3108      	adds	r1, #8
 8014242:	444a      	add	r2, r9
 8014244:	f3c2 020b 	ubfx	r2, r2, #0, #12
 8014248:	ebc2 0a01 	rsb	sl, r2, r1
 801424c:	4651      	mov	r1, sl
 801424e:	4630      	mov	r0, r6
 8014250:	9301      	str	r3, [sp, #4]
 8014252:	f000 f9a7 	bl	80145a4 <_sbrk_r>
 8014256:	1c43      	adds	r3, r0, #1
 8014258:	9b01      	ldr	r3, [sp, #4]
 801425a:	f000 812c 	beq.w	80144b6 <_malloc_r+0x4da>
 801425e:	ebc9 0200 	rsb	r2, r9, r0
 8014262:	4452      	add	r2, sl
 8014264:	f042 0201 	orr.w	r2, r2, #1
 8014268:	6819      	ldr	r1, [r3, #0]
 801426a:	f8c7 9008 	str.w	r9, [r7, #8]
 801426e:	4451      	add	r1, sl
 8014270:	42bc      	cmp	r4, r7
 8014272:	f8c9 2004 	str.w	r2, [r9, #4]
 8014276:	6019      	str	r1, [r3, #0]
 8014278:	f8df a09c 	ldr.w	sl, [pc, #156]	; 8014318 <_malloc_r+0x33c>
 801427c:	d016      	beq.n	80142ac <_malloc_r+0x2d0>
 801427e:	f1b8 0f0f 	cmp.w	r8, #15
 8014282:	f240 80ee 	bls.w	8014462 <_malloc_r+0x486>
 8014286:	6862      	ldr	r2, [r4, #4]
 8014288:	f1a8 030c 	sub.w	r3, r8, #12
 801428c:	f023 0307 	bic.w	r3, r3, #7
 8014290:	18e0      	adds	r0, r4, r3
 8014292:	f002 0201 	and.w	r2, r2, #1
 8014296:	f04f 0e05 	mov.w	lr, #5
 801429a:	431a      	orrs	r2, r3
 801429c:	2b0f      	cmp	r3, #15
 801429e:	6062      	str	r2, [r4, #4]
 80142a0:	f8c0 e004 	str.w	lr, [r0, #4]
 80142a4:	f8c0 e008 	str.w	lr, [r0, #8]
 80142a8:	f200 8109 	bhi.w	80144be <_malloc_r+0x4e2>
 80142ac:	4b1b      	ldr	r3, [pc, #108]	; (801431c <_malloc_r+0x340>)
 80142ae:	68bc      	ldr	r4, [r7, #8]
 80142b0:	681a      	ldr	r2, [r3, #0]
 80142b2:	4291      	cmp	r1, r2
 80142b4:	bf88      	it	hi
 80142b6:	6019      	strhi	r1, [r3, #0]
 80142b8:	4b19      	ldr	r3, [pc, #100]	; (8014320 <_malloc_r+0x344>)
 80142ba:	681a      	ldr	r2, [r3, #0]
 80142bc:	4291      	cmp	r1, r2
 80142be:	6862      	ldr	r2, [r4, #4]
 80142c0:	bf88      	it	hi
 80142c2:	6019      	strhi	r1, [r3, #0]
 80142c4:	f022 0203 	bic.w	r2, r2, #3
 80142c8:	4295      	cmp	r5, r2
 80142ca:	eba2 0305 	sub.w	r3, r2, r5
 80142ce:	d801      	bhi.n	80142d4 <_malloc_r+0x2f8>
 80142d0:	2b0f      	cmp	r3, #15
 80142d2:	dc04      	bgt.n	80142de <_malloc_r+0x302>
 80142d4:	4630      	mov	r0, r6
 80142d6:	f000 f963 	bl	80145a0 <__malloc_unlock>
 80142da:	2400      	movs	r4, #0
 80142dc:	e6aa      	b.n	8014034 <_malloc_r+0x58>
 80142de:	1962      	adds	r2, r4, r5
 80142e0:	f043 0301 	orr.w	r3, r3, #1
 80142e4:	f045 0501 	orr.w	r5, r5, #1
 80142e8:	6065      	str	r5, [r4, #4]
 80142ea:	4630      	mov	r0, r6
 80142ec:	60ba      	str	r2, [r7, #8]
 80142ee:	6053      	str	r3, [r2, #4]
 80142f0:	f000 f956 	bl	80145a0 <__malloc_unlock>
 80142f4:	3408      	adds	r4, #8
 80142f6:	4620      	mov	r0, r4
 80142f8:	b003      	add	sp, #12
 80142fa:	e8bd 8ff0 	ldmia.w	sp!, {r4, r5, r6, r7, r8, r9, sl, fp, pc}
 80142fe:	2814      	cmp	r0, #20
 8014300:	d968      	bls.n	80143d4 <_malloc_r+0x3f8>
 8014302:	2854      	cmp	r0, #84	; 0x54
 8014304:	f200 8097 	bhi.w	8014436 <_malloc_r+0x45a>
 8014308:	0b28      	lsrs	r0, r5, #12
 801430a:	306e      	adds	r0, #110	; 0x6e
 801430c:	0041      	lsls	r1, r0, #1
 801430e:	e6a5      	b.n	801405c <_malloc_r+0x80>
 8014310:	1000045c 	.word	0x1000045c
 8014314:	10000e28 	.word	0x10000e28
 8014318:	10000e2c 	.word	0x10000e2c
 801431c:	10000e24 	.word	0x10000e24
 8014320:	10000e20 	.word	0x10000e20
 8014324:	10000868 	.word	0x10000868
 8014328:	0a5a      	lsrs	r2, r3, #9
 801432a:	2a04      	cmp	r2, #4
 801432c:	d955      	bls.n	80143da <_malloc_r+0x3fe>
 801432e:	2a14      	cmp	r2, #20
 8014330:	f200 80a7 	bhi.w	8014482 <_malloc_r+0x4a6>
 8014334:	325b      	adds	r2, #91	; 0x5b
 8014336:	ea4f 0c42 	mov.w	ip, r2, lsl #1
 801433a:	eb07 0c8c 	add.w	ip, r7, ip, lsl #2
 801433e:	f8df 81bc 	ldr.w	r8, [pc, #444]	; 80144fc <_malloc_r+0x520>
 8014342:	f8dc 1008 	ldr.w	r1, [ip, #8]
 8014346:	4561      	cmp	r1, ip
 8014348:	d07f      	beq.n	801444a <_malloc_r+0x46e>
 801434a:	684a      	ldr	r2, [r1, #4]
 801434c:	f022 0203 	bic.w	r2, r2, #3
 8014350:	4293      	cmp	r3, r2
 8014352:	d202      	bcs.n	801435a <_malloc_r+0x37e>
 8014354:	6889      	ldr	r1, [r1, #8]
 8014356:	458c      	cmp	ip, r1
 8014358:	d1f7      	bne.n	801434a <_malloc_r+0x36e>
 801435a:	68ca      	ldr	r2, [r1, #12]
 801435c:	687b      	ldr	r3, [r7, #4]
 801435e:	60e2      	str	r2, [r4, #12]
 8014360:	60a1      	str	r1, [r4, #8]
 8014362:	6094      	str	r4, [r2, #8]
 8014364:	60cc      	str	r4, [r1, #12]
 8014366:	e6bb      	b.n	80140e0 <_malloc_r+0x104>
 8014368:	1963      	adds	r3, r4, r5
 801436a:	f042 0701 	orr.w	r7, r2, #1
 801436e:	f045 0501 	orr.w	r5, r5, #1
 8014372:	6065      	str	r5, [r4, #4]
 8014374:	4630      	mov	r0, r6
 8014376:	614b      	str	r3, [r1, #20]
 8014378:	610b      	str	r3, [r1, #16]
 801437a:	f8c3 e00c 	str.w	lr, [r3, #12]
 801437e:	f8c3 e008 	str.w	lr, [r3, #8]
 8014382:	605f      	str	r7, [r3, #4]
 8014384:	509a      	str	r2, [r3, r2]
 8014386:	3408      	adds	r4, #8
 8014388:	f000 f90a 	bl	80145a0 <__malloc_unlock>
 801438c:	e652      	b.n	8014034 <_malloc_r+0x58>
 801438e:	684b      	ldr	r3, [r1, #4]
 8014390:	e6a6      	b.n	80140e0 <_malloc_r+0x104>
 8014392:	f109 0901 	add.w	r9, r9, #1
 8014396:	f019 0f03 	tst.w	r9, #3
 801439a:	f10c 0c08 	add.w	ip, ip, #8
 801439e:	f47f aeb1 	bne.w	8014104 <_malloc_r+0x128>
 80143a2:	e02c      	b.n	80143fe <_malloc_r+0x422>
 80143a4:	f104 0308 	add.w	r3, r4, #8
 80143a8:	6964      	ldr	r4, [r4, #20]
 80143aa:	42a3      	cmp	r3, r4
 80143ac:	bf08      	it	eq
 80143ae:	3002      	addeq	r0, #2
 80143b0:	f43f ae69 	beq.w	8014086 <_malloc_r+0xaa>
 80143b4:	e62e      	b.n	8014014 <_malloc_r+0x38>
 80143b6:	441a      	add	r2, r3
 80143b8:	461c      	mov	r4, r3
 80143ba:	6851      	ldr	r1, [r2, #4]
 80143bc:	68db      	ldr	r3, [r3, #12]
 80143be:	f854 5f08 	ldr.w	r5, [r4, #8]!
 80143c2:	f041 0101 	orr.w	r1, r1, #1
 80143c6:	6051      	str	r1, [r2, #4]
 80143c8:	4630      	mov	r0, r6
 80143ca:	60eb      	str	r3, [r5, #12]
 80143cc:	609d      	str	r5, [r3, #8]
 80143ce:	f000 f8e7 	bl	80145a0 <__malloc_unlock>
 80143d2:	e62f      	b.n	8014034 <_malloc_r+0x58>
 80143d4:	305b      	adds	r0, #91	; 0x5b
 80143d6:	0041      	lsls	r1, r0, #1
 80143d8:	e640      	b.n	801405c <_malloc_r+0x80>
 80143da:	099a      	lsrs	r2, r3, #6
 80143dc:	3238      	adds	r2, #56	; 0x38
 80143de:	ea4f 0c42 	mov.w	ip, r2, lsl #1
 80143e2:	e7aa      	b.n	801433a <_malloc_r+0x35e>
 80143e4:	42bc      	cmp	r4, r7
 80143e6:	4b45      	ldr	r3, [pc, #276]	; (80144fc <_malloc_r+0x520>)
 80143e8:	f43f af0e 	beq.w	8014208 <_malloc_r+0x22c>
 80143ec:	689c      	ldr	r4, [r3, #8]
 80143ee:	6862      	ldr	r2, [r4, #4]
 80143f0:	f022 0203 	bic.w	r2, r2, #3
 80143f4:	e768      	b.n	80142c8 <_malloc_r+0x2ec>
 80143f6:	f8d8 8000 	ldr.w	r8, [r8]
 80143fa:	4598      	cmp	r8, r3
 80143fc:	d17c      	bne.n	80144f8 <_malloc_r+0x51c>
 80143fe:	f010 0f03 	tst.w	r0, #3
 8014402:	f1a8 0308 	sub.w	r3, r8, #8
 8014406:	f100 30ff 	add.w	r0, r0, #4294967295
 801440a:	d1f4      	bne.n	80143f6 <_malloc_r+0x41a>
 801440c:	687b      	ldr	r3, [r7, #4]
 801440e:	ea23 0304 	bic.w	r3, r3, r4
 8014412:	607b      	str	r3, [r7, #4]
 8014414:	0064      	lsls	r4, r4, #1
 8014416:	429c      	cmp	r4, r3
 8014418:	f63f aeca 	bhi.w	80141b0 <_malloc_r+0x1d4>
 801441c:	2c00      	cmp	r4, #0
 801441e:	f43f aec7 	beq.w	80141b0 <_malloc_r+0x1d4>
 8014422:	4223      	tst	r3, r4
 8014424:	4648      	mov	r0, r9
 8014426:	f47f ae69 	bne.w	80140fc <_malloc_r+0x120>
 801442a:	0064      	lsls	r4, r4, #1
 801442c:	4223      	tst	r3, r4
 801442e:	f100 0004 	add.w	r0, r0, #4
 8014432:	d0fa      	beq.n	801442a <_malloc_r+0x44e>
 8014434:	e662      	b.n	80140fc <_malloc_r+0x120>
 8014436:	f5b0 7faa 	cmp.w	r0, #340	; 0x154
 801443a:	d818      	bhi.n	801446e <_malloc_r+0x492>
 801443c:	0be8      	lsrs	r0, r5, #15
 801443e:	3077      	adds	r0, #119	; 0x77
 8014440:	0041      	lsls	r1, r0, #1
 8014442:	e60b      	b.n	801405c <_malloc_r+0x80>
 8014444:	f44f 5180 	mov.w	r1, #4096	; 0x1000
 8014448:	e6fb      	b.n	8014242 <_malloc_r+0x266>
 801444a:	f8d8 3004 	ldr.w	r3, [r8, #4]
 801444e:	1092      	asrs	r2, r2, #2
 8014450:	f04f 0c01 	mov.w	ip, #1
 8014454:	fa0c f202 	lsl.w	r2, ip, r2
 8014458:	4313      	orrs	r3, r2
 801445a:	f8c8 3004 	str.w	r3, [r8, #4]
 801445e:	460a      	mov	r2, r1
 8014460:	e77d      	b.n	801435e <_malloc_r+0x382>
 8014462:	2301      	movs	r3, #1
 8014464:	f8c9 3004 	str.w	r3, [r9, #4]
 8014468:	464c      	mov	r4, r9
 801446a:	2200      	movs	r2, #0
 801446c:	e72c      	b.n	80142c8 <_malloc_r+0x2ec>
 801446e:	f240 5354 	movw	r3, #1364	; 0x554
 8014472:	4298      	cmp	r0, r3
 8014474:	d81c      	bhi.n	80144b0 <_malloc_r+0x4d4>
 8014476:	0ca8      	lsrs	r0, r5, #18
 8014478:	307c      	adds	r0, #124	; 0x7c
 801447a:	0041      	lsls	r1, r0, #1
 801447c:	e5ee      	b.n	801405c <_malloc_r+0x80>
 801447e:	3210      	adds	r2, #16
 8014480:	e6b4      	b.n	80141ec <_malloc_r+0x210>
 8014482:	2a54      	cmp	r2, #84	; 0x54
 8014484:	d823      	bhi.n	80144ce <_malloc_r+0x4f2>
 8014486:	0b1a      	lsrs	r2, r3, #12
 8014488:	326e      	adds	r2, #110	; 0x6e
 801448a:	ea4f 0c42 	mov.w	ip, r2, lsl #1
 801448e:	e754      	b.n	801433a <_malloc_r+0x35e>
 8014490:	68bc      	ldr	r4, [r7, #8]
 8014492:	6862      	ldr	r2, [r4, #4]
 8014494:	f022 0203 	bic.w	r2, r2, #3
 8014498:	e716      	b.n	80142c8 <_malloc_r+0x2ec>
 801449a:	f3cb 000b 	ubfx	r0, fp, #0, #12
 801449e:	2800      	cmp	r0, #0
 80144a0:	f47f aeb9 	bne.w	8014216 <_malloc_r+0x23a>
 80144a4:	4442      	add	r2, r8
 80144a6:	68bb      	ldr	r3, [r7, #8]
 80144a8:	f042 0201 	orr.w	r2, r2, #1
 80144ac:	605a      	str	r2, [r3, #4]
 80144ae:	e6fd      	b.n	80142ac <_malloc_r+0x2d0>
 80144b0:	21fc      	movs	r1, #252	; 0xfc
 80144b2:	207e      	movs	r0, #126	; 0x7e
 80144b4:	e5d2      	b.n	801405c <_malloc_r+0x80>
 80144b6:	2201      	movs	r2, #1
 80144b8:	f04f 0a00 	mov.w	sl, #0
 80144bc:	e6d4      	b.n	8014268 <_malloc_r+0x28c>
 80144be:	f104 0108 	add.w	r1, r4, #8
 80144c2:	4630      	mov	r0, r6
 80144c4:	f000 f920 	bl	8014708 <_free_r>
 80144c8:	f8da 1000 	ldr.w	r1, [sl]
 80144cc:	e6ee      	b.n	80142ac <_malloc_r+0x2d0>
 80144ce:	f5b2 7faa 	cmp.w	r2, #340	; 0x154
 80144d2:	d804      	bhi.n	80144de <_malloc_r+0x502>
 80144d4:	0bda      	lsrs	r2, r3, #15
 80144d6:	3277      	adds	r2, #119	; 0x77
 80144d8:	ea4f 0c42 	mov.w	ip, r2, lsl #1
 80144dc:	e72d      	b.n	801433a <_malloc_r+0x35e>
 80144de:	f240 5154 	movw	r1, #1364	; 0x554
 80144e2:	428a      	cmp	r2, r1
 80144e4:	d804      	bhi.n	80144f0 <_malloc_r+0x514>
 80144e6:	0c9a      	lsrs	r2, r3, #18
 80144e8:	327c      	adds	r2, #124	; 0x7c
 80144ea:	ea4f 0c42 	mov.w	ip, r2, lsl #1
 80144ee:	e724      	b.n	801433a <_malloc_r+0x35e>
 80144f0:	f04f 0cfc 	mov.w	ip, #252	; 0xfc
 80144f4:	227e      	movs	r2, #126	; 0x7e
 80144f6:	e720      	b.n	801433a <_malloc_r+0x35e>
 80144f8:	687b      	ldr	r3, [r7, #4]
 80144fa:	e78b      	b.n	8014414 <_malloc_r+0x438>
 80144fc:	1000045c 	.word	0x1000045c

08014500 <memset>:
 8014500:	b470      	push	{r4, r5, r6}
 8014502:	0784      	lsls	r4, r0, #30
 8014504:	d046      	beq.n	8014594 <memset+0x94>
 8014506:	1e54      	subs	r4, r2, #1
 8014508:	2a00      	cmp	r2, #0
 801450a:	d041      	beq.n	8014590 <memset+0x90>
 801450c:	b2cd      	uxtb	r5, r1
 801450e:	4603      	mov	r3, r0
 8014510:	e002      	b.n	8014518 <memset+0x18>
 8014512:	1e62      	subs	r2, r4, #1
 8014514:	b3e4      	cbz	r4, 8014590 <memset+0x90>
 8014516:	4614      	mov	r4, r2
 8014518:	f803 5b01 	strb.w	r5, [r3], #1
 801451c:	079a      	lsls	r2, r3, #30
 801451e:	d1f8      	bne.n	8014512 <memset+0x12>
 8014520:	2c03      	cmp	r4, #3
 8014522:	d92e      	bls.n	8014582 <memset+0x82>
 8014524:	b2cd      	uxtb	r5, r1
 8014526:	ea45 2505 	orr.w	r5, r5, r5, lsl #8
 801452a:	2c0f      	cmp	r4, #15
 801452c:	ea45 4505 	orr.w	r5, r5, r5, lsl #16
 8014530:	d919      	bls.n	8014566 <memset+0x66>
 8014532:	f103 0210 	add.w	r2, r3, #16
 8014536:	4626      	mov	r6, r4
 8014538:	3e10      	subs	r6, #16
 801453a:	2e0f      	cmp	r6, #15
 801453c:	f842 5c10 	str.w	r5, [r2, #-16]
 8014540:	f842 5c0c 	str.w	r5, [r2, #-12]
 8014544:	f842 5c08 	str.w	r5, [r2, #-8]
 8014548:	f842 5c04 	str.w	r5, [r2, #-4]
 801454c:	f102 0210 	add.w	r2, r2, #16
 8014550:	d8f2      	bhi.n	8014538 <memset+0x38>
 8014552:	f1a4 0210 	sub.w	r2, r4, #16
 8014556:	f022 020f 	bic.w	r2, r2, #15
 801455a:	f004 040f 	and.w	r4, r4, #15
 801455e:	3210      	adds	r2, #16
 8014560:	2c03      	cmp	r4, #3
 8014562:	4413      	add	r3, r2
 8014564:	d90d      	bls.n	8014582 <memset+0x82>
 8014566:	461e      	mov	r6, r3
 8014568:	4622      	mov	r2, r4
 801456a:	3a04      	subs	r2, #4
 801456c:	2a03      	cmp	r2, #3
 801456e:	f846 5b04 	str.w	r5, [r6], #4
 8014572:	d8fa      	bhi.n	801456a <memset+0x6a>
 8014574:	1f22      	subs	r2, r4, #4
 8014576:	f022 0203 	bic.w	r2, r2, #3
 801457a:	3204      	adds	r2, #4
 801457c:	4413      	add	r3, r2
 801457e:	f004 0403 	and.w	r4, r4, #3
 8014582:	b12c      	cbz	r4, 8014590 <memset+0x90>
 8014584:	b2c9      	uxtb	r1, r1
 8014586:	441c      	add	r4, r3
 8014588:	f803 1b01 	strb.w	r1, [r3], #1
 801458c:	42a3      	cmp	r3, r4
 801458e:	d1fb      	bne.n	8014588 <memset+0x88>
 8014590:	bc70      	pop	{r4, r5, r6}
 8014592:	4770      	bx	lr
 8014594:	4614      	mov	r4, r2
 8014596:	4603      	mov	r3, r0
 8014598:	e7c2      	b.n	8014520 <memset+0x20>
 801459a:	bf00      	nop

0801459c <__malloc_lock>:
 801459c:	4770      	bx	lr
 801459e:	bf00      	nop

080145a0 <__malloc_unlock>:
 80145a0:	4770      	bx	lr
 80145a2:	bf00      	nop

080145a4 <_sbrk_r>:
 80145a4:	b538      	push	{r3, r4, r5, lr}
 80145a6:	4c07      	ldr	r4, [pc, #28]	; (80145c4 <_sbrk_r+0x20>)
 80145a8:	2300      	movs	r3, #0
 80145aa:	4605      	mov	r5, r0
 80145ac:	4608      	mov	r0, r1
 80145ae:	6023      	str	r3, [r4, #0]
 80145b0:	f7fc fff2 	bl	8011598 <_sbrk>
 80145b4:	1c43      	adds	r3, r0, #1
 80145b6:	d000      	beq.n	80145ba <_sbrk_r+0x16>
 80145b8:	bd38      	pop	{r3, r4, r5, pc}
 80145ba:	6823      	ldr	r3, [r4, #0]
 80145bc:	2b00      	cmp	r3, #0
 80145be:	d0fb      	beq.n	80145b8 <_sbrk_r+0x14>
 80145c0:	602b      	str	r3, [r5, #0]
 80145c2:	bd38      	pop	{r3, r4, r5, pc}
 80145c4:	10000e94 	.word	0x10000e94

080145c8 <__register_exitproc>:
 80145c8:	e92d 47f0 	stmdb	sp!, {r4, r5, r6, r7, r8, r9, sl, lr}
 80145cc:	4c25      	ldr	r4, [pc, #148]	; (8014664 <__register_exitproc+0x9c>)
 80145ce:	6825      	ldr	r5, [r4, #0]
 80145d0:	f8d5 4148 	ldr.w	r4, [r5, #328]	; 0x148
 80145d4:	4606      	mov	r6, r0
 80145d6:	4688      	mov	r8, r1
 80145d8:	4692      	mov	sl, r2
 80145da:	4699      	mov	r9, r3
 80145dc:	b3cc      	cbz	r4, 8014652 <__register_exitproc+0x8a>
 80145de:	6860      	ldr	r0, [r4, #4]
 80145e0:	281f      	cmp	r0, #31
 80145e2:	dc18      	bgt.n	8014616 <__register_exitproc+0x4e>
 80145e4:	1c43      	adds	r3, r0, #1
 80145e6:	b17e      	cbz	r6, 8014608 <__register_exitproc+0x40>
 80145e8:	eb04 0580 	add.w	r5, r4, r0, lsl #2
 80145ec:	2101      	movs	r1, #1
 80145ee:	f8c5 a088 	str.w	sl, [r5, #136]	; 0x88
 80145f2:	f8d4 7188 	ldr.w	r7, [r4, #392]	; 0x188
 80145f6:	fa01 f200 	lsl.w	r2, r1, r0
 80145fa:	4317      	orrs	r7, r2
 80145fc:	2e02      	cmp	r6, #2
 80145fe:	f8c4 7188 	str.w	r7, [r4, #392]	; 0x188
 8014602:	f8c5 9108 	str.w	r9, [r5, #264]	; 0x108
 8014606:	d01e      	beq.n	8014646 <__register_exitproc+0x7e>
 8014608:	3002      	adds	r0, #2
 801460a:	6063      	str	r3, [r4, #4]
 801460c:	f844 8020 	str.w	r8, [r4, r0, lsl #2]
 8014610:	2000      	movs	r0, #0
 8014612:	e8bd 87f0 	ldmia.w	sp!, {r4, r5, r6, r7, r8, r9, sl, pc}
 8014616:	4b14      	ldr	r3, [pc, #80]	; (8014668 <__register_exitproc+0xa0>)
 8014618:	b303      	cbz	r3, 801465c <__register_exitproc+0x94>
 801461a:	f44f 70c8 	mov.w	r0, #400	; 0x190
 801461e:	f7ff fccd 	bl	8013fbc <malloc>
 8014622:	4604      	mov	r4, r0
 8014624:	b1d0      	cbz	r0, 801465c <__register_exitproc+0x94>
 8014626:	f8d5 3148 	ldr.w	r3, [r5, #328]	; 0x148
 801462a:	2700      	movs	r7, #0
 801462c:	e880 0088 	stmia.w	r0, {r3, r7}
 8014630:	f8c5 4148 	str.w	r4, [r5, #328]	; 0x148
 8014634:	4638      	mov	r0, r7
 8014636:	2301      	movs	r3, #1
 8014638:	f8c4 7188 	str.w	r7, [r4, #392]	; 0x188
 801463c:	f8c4 718c 	str.w	r7, [r4, #396]	; 0x18c
 8014640:	2e00      	cmp	r6, #0
 8014642:	d0e1      	beq.n	8014608 <__register_exitproc+0x40>
 8014644:	e7d0      	b.n	80145e8 <__register_exitproc+0x20>
 8014646:	f8d4 118c 	ldr.w	r1, [r4, #396]	; 0x18c
 801464a:	430a      	orrs	r2, r1
 801464c:	f8c4 218c 	str.w	r2, [r4, #396]	; 0x18c
 8014650:	e7da      	b.n	8014608 <__register_exitproc+0x40>
 8014652:	f505 74a6 	add.w	r4, r5, #332	; 0x14c
 8014656:	f8c5 4148 	str.w	r4, [r5, #328]	; 0x148
 801465a:	e7c0      	b.n	80145de <__register_exitproc+0x16>
 801465c:	f04f 30ff 	mov.w	r0, #4294967295
 8014660:	e8bd 87f0 	ldmia.w	sp!, {r4, r5, r6, r7, r8, r9, sl, pc}
 8014664:	08019d44 	.word	0x08019d44
 8014668:	08013fbd 	.word	0x08013fbd

0801466c <_malloc_trim_r>:
 801466c:	b5f8      	push	{r3, r4, r5, r6, r7, lr}
 801466e:	4f23      	ldr	r7, [pc, #140]	; (80146fc <_malloc_trim_r+0x90>)
 8014670:	460c      	mov	r4, r1
 8014672:	4606      	mov	r6, r0
 8014674:	f7ff ff92 	bl	801459c <__malloc_lock>
 8014678:	68bb      	ldr	r3, [r7, #8]
 801467a:	685d      	ldr	r5, [r3, #4]
 801467c:	f025 0503 	bic.w	r5, r5, #3
 8014680:	1b29      	subs	r1, r5, r4
 8014682:	f601 71ef 	addw	r1, r1, #4079	; 0xfef
 8014686:	f421 617f 	bic.w	r1, r1, #4080	; 0xff0
 801468a:	f021 010f 	bic.w	r1, r1, #15
 801468e:	f5a1 5480 	sub.w	r4, r1, #4096	; 0x1000
 8014692:	f5b4 5f80 	cmp.w	r4, #4096	; 0x1000
 8014696:	db07      	blt.n	80146a8 <_malloc_trim_r+0x3c>
 8014698:	4630      	mov	r0, r6
 801469a:	2100      	movs	r1, #0
 801469c:	f7ff ff82 	bl	80145a4 <_sbrk_r>
 80146a0:	68bb      	ldr	r3, [r7, #8]
 80146a2:	442b      	add	r3, r5
 80146a4:	4298      	cmp	r0, r3
 80146a6:	d004      	beq.n	80146b2 <_malloc_trim_r+0x46>
 80146a8:	4630      	mov	r0, r6
 80146aa:	f7ff ff79 	bl	80145a0 <__malloc_unlock>
 80146ae:	2000      	movs	r0, #0
 80146b0:	bdf8      	pop	{r3, r4, r5, r6, r7, pc}
 80146b2:	4630      	mov	r0, r6
 80146b4:	4261      	negs	r1, r4
 80146b6:	f7ff ff75 	bl	80145a4 <_sbrk_r>
 80146ba:	3001      	adds	r0, #1
 80146bc:	d00d      	beq.n	80146da <_malloc_trim_r+0x6e>
 80146be:	4b10      	ldr	r3, [pc, #64]	; (8014700 <_malloc_trim_r+0x94>)
 80146c0:	68ba      	ldr	r2, [r7, #8]
 80146c2:	6819      	ldr	r1, [r3, #0]
 80146c4:	1b2d      	subs	r5, r5, r4
 80146c6:	f045 0501 	orr.w	r5, r5, #1
 80146ca:	4630      	mov	r0, r6
 80146cc:	1b09      	subs	r1, r1, r4
 80146ce:	6055      	str	r5, [r2, #4]
 80146d0:	6019      	str	r1, [r3, #0]
 80146d2:	f7ff ff65 	bl	80145a0 <__malloc_unlock>
 80146d6:	2001      	movs	r0, #1
 80146d8:	bdf8      	pop	{r3, r4, r5, r6, r7, pc}
 80146da:	4630      	mov	r0, r6
 80146dc:	2100      	movs	r1, #0
 80146de:	f7ff ff61 	bl	80145a4 <_sbrk_r>
 80146e2:	68ba      	ldr	r2, [r7, #8]
 80146e4:	1a83      	subs	r3, r0, r2
 80146e6:	2b0f      	cmp	r3, #15
 80146e8:	ddde      	ble.n	80146a8 <_malloc_trim_r+0x3c>
 80146ea:	4c06      	ldr	r4, [pc, #24]	; (8014704 <_malloc_trim_r+0x98>)
 80146ec:	4904      	ldr	r1, [pc, #16]	; (8014700 <_malloc_trim_r+0x94>)
 80146ee:	6824      	ldr	r4, [r4, #0]
 80146f0:	f043 0301 	orr.w	r3, r3, #1
 80146f4:	1b00      	subs	r0, r0, r4
 80146f6:	6053      	str	r3, [r2, #4]
 80146f8:	6008      	str	r0, [r1, #0]
 80146fa:	e7d5      	b.n	80146a8 <_malloc_trim_r+0x3c>
 80146fc:	1000045c 	.word	0x1000045c
 8014700:	10000e2c 	.word	0x10000e2c
 8014704:	10000868 	.word	0x10000868

08014708 <_free_r>:
 8014708:	2900      	cmp	r1, #0
 801470a:	d04e      	beq.n	80147aa <_free_r+0xa2>
 801470c:	e92d 41f0 	stmdb	sp!, {r4, r5, r6, r7, r8, lr}
 8014710:	460c      	mov	r4, r1
 8014712:	4680      	mov	r8, r0
 8014714:	f7ff ff42 	bl	801459c <__malloc_lock>
 8014718:	f854 7c04 	ldr.w	r7, [r4, #-4]
 801471c:	4962      	ldr	r1, [pc, #392]	; (80148a8 <_free_r+0x1a0>)
 801471e:	f027 0201 	bic.w	r2, r7, #1
 8014722:	f1a4 0508 	sub.w	r5, r4, #8
 8014726:	18ab      	adds	r3, r5, r2
 8014728:	688e      	ldr	r6, [r1, #8]
 801472a:	6858      	ldr	r0, [r3, #4]
 801472c:	429e      	cmp	r6, r3
 801472e:	f020 0003 	bic.w	r0, r0, #3
 8014732:	d05a      	beq.n	80147ea <_free_r+0xe2>
 8014734:	07fe      	lsls	r6, r7, #31
 8014736:	6058      	str	r0, [r3, #4]
 8014738:	d40b      	bmi.n	8014752 <_free_r+0x4a>
 801473a:	f854 7c08 	ldr.w	r7, [r4, #-8]
 801473e:	1bed      	subs	r5, r5, r7
 8014740:	f101 0e08 	add.w	lr, r1, #8
 8014744:	68ac      	ldr	r4, [r5, #8]
 8014746:	4574      	cmp	r4, lr
 8014748:	443a      	add	r2, r7
 801474a:	d067      	beq.n	801481c <_free_r+0x114>
 801474c:	68ef      	ldr	r7, [r5, #12]
 801474e:	60e7      	str	r7, [r4, #12]
 8014750:	60bc      	str	r4, [r7, #8]
 8014752:	181c      	adds	r4, r3, r0
 8014754:	6864      	ldr	r4, [r4, #4]
 8014756:	07e4      	lsls	r4, r4, #31
 8014758:	d40c      	bmi.n	8014774 <_free_r+0x6c>
 801475a:	4f54      	ldr	r7, [pc, #336]	; (80148ac <_free_r+0x1a4>)
 801475c:	689c      	ldr	r4, [r3, #8]
 801475e:	42bc      	cmp	r4, r7
 8014760:	4402      	add	r2, r0
 8014762:	d07c      	beq.n	801485e <_free_r+0x156>
 8014764:	68d8      	ldr	r0, [r3, #12]
 8014766:	60e0      	str	r0, [r4, #12]
 8014768:	f042 0301 	orr.w	r3, r2, #1
 801476c:	6084      	str	r4, [r0, #8]
 801476e:	606b      	str	r3, [r5, #4]
 8014770:	50aa      	str	r2, [r5, r2]
 8014772:	e003      	b.n	801477c <_free_r+0x74>
 8014774:	f042 0301 	orr.w	r3, r2, #1
 8014778:	606b      	str	r3, [r5, #4]
 801477a:	50aa      	str	r2, [r5, r2]
 801477c:	f5b2 7f00 	cmp.w	r2, #512	; 0x200
 8014780:	d214      	bcs.n	80147ac <_free_r+0xa4>
 8014782:	08d2      	lsrs	r2, r2, #3
 8014784:	eb01 03c2 	add.w	r3, r1, r2, lsl #3
 8014788:	6848      	ldr	r0, [r1, #4]
 801478a:	689f      	ldr	r7, [r3, #8]
 801478c:	60af      	str	r7, [r5, #8]
 801478e:	1092      	asrs	r2, r2, #2
 8014790:	2401      	movs	r4, #1
 8014792:	fa04 f202 	lsl.w	r2, r4, r2
 8014796:	4310      	orrs	r0, r2
 8014798:	60eb      	str	r3, [r5, #12]
 801479a:	6048      	str	r0, [r1, #4]
 801479c:	609d      	str	r5, [r3, #8]
 801479e:	60fd      	str	r5, [r7, #12]
 80147a0:	4640      	mov	r0, r8
 80147a2:	e8bd 41f0 	ldmia.w	sp!, {r4, r5, r6, r7, r8, lr}
 80147a6:	f7ff befb 	b.w	80145a0 <__malloc_unlock>
 80147aa:	4770      	bx	lr
 80147ac:	0a53      	lsrs	r3, r2, #9
 80147ae:	2b04      	cmp	r3, #4
 80147b0:	d847      	bhi.n	8014842 <_free_r+0x13a>
 80147b2:	0993      	lsrs	r3, r2, #6
 80147b4:	f103 0438 	add.w	r4, r3, #56	; 0x38
 80147b8:	0060      	lsls	r0, r4, #1
 80147ba:	eb01 0080 	add.w	r0, r1, r0, lsl #2
 80147be:	493a      	ldr	r1, [pc, #232]	; (80148a8 <_free_r+0x1a0>)
 80147c0:	6883      	ldr	r3, [r0, #8]
 80147c2:	4283      	cmp	r3, r0
 80147c4:	d043      	beq.n	801484e <_free_r+0x146>
 80147c6:	6859      	ldr	r1, [r3, #4]
 80147c8:	f021 0103 	bic.w	r1, r1, #3
 80147cc:	4291      	cmp	r1, r2
 80147ce:	d902      	bls.n	80147d6 <_free_r+0xce>
 80147d0:	689b      	ldr	r3, [r3, #8]
 80147d2:	4298      	cmp	r0, r3
 80147d4:	d1f7      	bne.n	80147c6 <_free_r+0xbe>
 80147d6:	68da      	ldr	r2, [r3, #12]
 80147d8:	60ea      	str	r2, [r5, #12]
 80147da:	60ab      	str	r3, [r5, #8]
 80147dc:	4640      	mov	r0, r8
 80147de:	6095      	str	r5, [r2, #8]
 80147e0:	60dd      	str	r5, [r3, #12]
 80147e2:	e8bd 41f0 	ldmia.w	sp!, {r4, r5, r6, r7, r8, lr}
 80147e6:	f7ff bedb 	b.w	80145a0 <__malloc_unlock>
 80147ea:	07ff      	lsls	r7, r7, #31
 80147ec:	4402      	add	r2, r0
 80147ee:	d407      	bmi.n	8014800 <_free_r+0xf8>
 80147f0:	f854 3c08 	ldr.w	r3, [r4, #-8]
 80147f4:	1aed      	subs	r5, r5, r3
 80147f6:	441a      	add	r2, r3
 80147f8:	68a8      	ldr	r0, [r5, #8]
 80147fa:	68eb      	ldr	r3, [r5, #12]
 80147fc:	60c3      	str	r3, [r0, #12]
 80147fe:	6098      	str	r0, [r3, #8]
 8014800:	4b2b      	ldr	r3, [pc, #172]	; (80148b0 <_free_r+0x1a8>)
 8014802:	681b      	ldr	r3, [r3, #0]
 8014804:	f042 0001 	orr.w	r0, r2, #1
 8014808:	429a      	cmp	r2, r3
 801480a:	6068      	str	r0, [r5, #4]
 801480c:	608d      	str	r5, [r1, #8]
 801480e:	d3c7      	bcc.n	80147a0 <_free_r+0x98>
 8014810:	4b28      	ldr	r3, [pc, #160]	; (80148b4 <_free_r+0x1ac>)
 8014812:	4640      	mov	r0, r8
 8014814:	6819      	ldr	r1, [r3, #0]
 8014816:	f7ff ff29 	bl	801466c <_malloc_trim_r>
 801481a:	e7c1      	b.n	80147a0 <_free_r+0x98>
 801481c:	1819      	adds	r1, r3, r0
 801481e:	6849      	ldr	r1, [r1, #4]
 8014820:	07c9      	lsls	r1, r1, #31
 8014822:	d409      	bmi.n	8014838 <_free_r+0x130>
 8014824:	68d9      	ldr	r1, [r3, #12]
 8014826:	689b      	ldr	r3, [r3, #8]
 8014828:	4402      	add	r2, r0
 801482a:	f042 0001 	orr.w	r0, r2, #1
 801482e:	60d9      	str	r1, [r3, #12]
 8014830:	608b      	str	r3, [r1, #8]
 8014832:	6068      	str	r0, [r5, #4]
 8014834:	50aa      	str	r2, [r5, r2]
 8014836:	e7b3      	b.n	80147a0 <_free_r+0x98>
 8014838:	f042 0301 	orr.w	r3, r2, #1
 801483c:	606b      	str	r3, [r5, #4]
 801483e:	50aa      	str	r2, [r5, r2]
 8014840:	e7ae      	b.n	80147a0 <_free_r+0x98>
 8014842:	2b14      	cmp	r3, #20
 8014844:	d814      	bhi.n	8014870 <_free_r+0x168>
 8014846:	f103 045b 	add.w	r4, r3, #91	; 0x5b
 801484a:	0060      	lsls	r0, r4, #1
 801484c:	e7b5      	b.n	80147ba <_free_r+0xb2>
 801484e:	684a      	ldr	r2, [r1, #4]
 8014850:	10a4      	asrs	r4, r4, #2
 8014852:	2001      	movs	r0, #1
 8014854:	40a0      	lsls	r0, r4
 8014856:	4302      	orrs	r2, r0
 8014858:	604a      	str	r2, [r1, #4]
 801485a:	461a      	mov	r2, r3
 801485c:	e7bc      	b.n	80147d8 <_free_r+0xd0>
 801485e:	f042 0301 	orr.w	r3, r2, #1
 8014862:	614d      	str	r5, [r1, #20]
 8014864:	610d      	str	r5, [r1, #16]
 8014866:	60ec      	str	r4, [r5, #12]
 8014868:	60ac      	str	r4, [r5, #8]
 801486a:	606b      	str	r3, [r5, #4]
 801486c:	50aa      	str	r2, [r5, r2]
 801486e:	e797      	b.n	80147a0 <_free_r+0x98>
 8014870:	2b54      	cmp	r3, #84	; 0x54
 8014872:	d804      	bhi.n	801487e <_free_r+0x176>
 8014874:	0b13      	lsrs	r3, r2, #12
 8014876:	f103 046e 	add.w	r4, r3, #110	; 0x6e
 801487a:	0060      	lsls	r0, r4, #1
 801487c:	e79d      	b.n	80147ba <_free_r+0xb2>
 801487e:	f5b3 7faa 	cmp.w	r3, #340	; 0x154
 8014882:	d804      	bhi.n	801488e <_free_r+0x186>
 8014884:	0bd3      	lsrs	r3, r2, #15
 8014886:	f103 0477 	add.w	r4, r3, #119	; 0x77
 801488a:	0060      	lsls	r0, r4, #1
 801488c:	e795      	b.n	80147ba <_free_r+0xb2>
 801488e:	f240 5054 	movw	r0, #1364	; 0x554
 8014892:	4283      	cmp	r3, r0
 8014894:	d804      	bhi.n	80148a0 <_free_r+0x198>
 8014896:	0c93      	lsrs	r3, r2, #18
 8014898:	f103 047c 	add.w	r4, r3, #124	; 0x7c
 801489c:	0060      	lsls	r0, r4, #1
 801489e:	e78c      	b.n	80147ba <_free_r+0xb2>
 80148a0:	20fc      	movs	r0, #252	; 0xfc
 80148a2:	247e      	movs	r4, #126	; 0x7e
 80148a4:	e789      	b.n	80147ba <_free_r+0xb2>
 80148a6:	bf00      	nop
 80148a8:	1000045c 	.word	0x1000045c
 80148ac:	10000464 	.word	0x10000464
 80148b0:	10000864 	.word	0x10000864
 80148b4:	10000e28 	.word	0x10000e28
 80148b8:	6c6c6548 	.word	0x6c6c6548
 80148bc:	6f57206f 	.word	0x6f57206f
 80148c0:	00646c72 	.word	0x00646c72
 80148c4:	00000000 	.word	0x00000000

080148c8 <_ZTVN12_GLOBAL__N_125font_OSD_Charset_181_typeE>:
	...
 80148d0:	0800cfa1 0800cf99 0800d6c9 0800dd19     ................

080148e0 <_ZN12_GLOBAL__N_125font_OSD_Charset_172_type6m_dataE>:
 80148e0:	ffffffff abffffab 555affaa ff555aff     ..........ZU.ZU.
 80148f0:	96bf555a 6aaabf56 bfaaaabf eabfaaaa     ZU..V..j........
 8014900:	bffebfab ffffffff ffffffff ffffffff     ................
 8014910:	ffffffff 0000ffff                       ........

08014918 <_ZN12_GLOBAL__N_125font_OSD_Charset_125_type6m_dataE>:
 8014918:	bfffffff e56ffffa ff956fff bfff956f     ......o..o..o...
 8014928:	96ffff96 ff96ffff fffe5bff 96fffe5b     .........[..[...
 8014938:	ff96ffff 6fff96bf 956fff95 ffe56fff     .......o..o..o..
 8014948:	fffffabf 0000ffff                       ........

08014950 <_ZN12_GLOBAL__N_124font_OSD_Charset_95_type6m_dataE>:
 8014950:	ffffffff ffffffff ffffffff ffffffff     ................
 8014960:	ffffffff ffffffff ffffffff ffffffff     ................
 8014970:	ffffffff abffffff 5556eaaa 95555695     ..........VU.VU.
 8014980:	ffeaaaab 0000ffff                       ........

08014988 <_ZTVN12_GLOBAL__N_124font_OSD_Charset_76_typeE>:
	...
 8014990:	0800c76d 0800c765 0800d86d 0800e205     m...e...m.......

080149a0 <_ZN12_GLOBAL__N_124font_OSD_Charset_92_type6m_dataE>:
 80149a0:	ffffffff ffffffff ffffffff 96ffffeb     ................
 80149b0:	fe56ffff fff95bff bfffe56f 56ffff95     ..V..[..o......V
 80149c0:	f95bfffe ffe56fff ffff95bf ebffff96     ..[..o..........
 80149d0:	ffffffff 0000ffff                       ........

080149d8 <_ZTVN12_GLOBAL__N_124font_OSD_Charset_46_typeE>:
	...
 80149e0:	0800c515 0800c50d 0800d8e5 0800e36d     ............m...

080149f0 <_ZTVN12_GLOBAL__N_125font_OSD_Charset_216_typeE>:
	...
 80149f8:	0800d25d 0800d255 0800d63d 0800db75     ]...U...=...u...

08014a08 <_ZN12_GLOBAL__N_125font_OSD_Charset_108_type6m_dataE>:
 8014a08:	ffffffff ffffffff ffffffff ffffffff     ................
 8014a18:	ffafffff fffe5bff 5bfffe5b fe5bfffe     .....[..[..[..[.
 8014a28:	fffe5bff 5bfffe5b aa5bfffe e5555bfa     .[..[..[..[..[U.
 8014a38:	afe5555b 0000faaa                       [U......

08014a40 <_ZTVN12_GLOBAL__N_125font_OSD_Charset_135_typeE>:
	...
 8014a48:	0800cc09 0800cc01 0800d781 0800df41     ............A...

08014a58 <_ZTVN12_GLOBAL__N_124font_OSD_Charset_31_typeE>:
	...
 8014a60:	0800c3e9 0800c3e1 0800d921 0800e421     ........!...!...

08014a70 <_ZN12_GLOBAL__N_125font_OSD_Charset_195_type6m_dataE>:
 8014a70:	ffffffff ffffffff ffaaffff 6ffe55bf     .............U.o
 8014a80:	a96ff955 fff96ff9 95aa556a 6aaa5955     U.o..o..jU..UY.j
 8014a90:	f96a6fa9 aff9556f aafffa55 fffffffe     .oj.oU..U.......
 8014aa0:	ffffffff 0000ffff                       ........

08014aa8 <_ZTVN12_GLOBAL__N_124font_OSD_Charset_44_typeE>:
	...
 8014ab0:	0800c4ed 0800c4e5 0800d8ed 0800e385     ................

08014ac0 <_ZN12_GLOBAL__N_125font_OSD_Charset_105_type6m_dataE>:
 8014ac0:	ffffffff ffffffff ffffffff ffffffff     ................
 8014ad0:	aaffffff fe55bfff fffe55bf 96ffff96     ......U..U......
 8014ae0:	ff96ffff ffff96ff 96ffff96 fe55bfff     ..............U.
 8014af0:	fffe55bf 0000ffaa                       .U......

08014af8 <_ZTVN12_GLOBAL__N_124font_OSD_Charset_78_typeE>:
	...
 8014b00:	0800c795 0800c78d 0800d865 0800e1ed     ........e.......

08014b10 <_ZTVN12_GLOBAL__N_125font_OSD_Charset_248_typeE>:
	...
 8014b18:	0800d4dd 0800d4d5 0800d5bd 0800d9f5     ................

08014b28 <_ZTVN12_GLOBAL__N_125font_OSD_Charset_167_typeE>:
	...
 8014b30:	0800ce89 0800ce81 0800d701 0800ddc1     ................

08014b40 <_ZTVN12_GLOBAL__N_125font_OSD_Charset_220_typeE>:
	...
 8014b48:	0800d2ad 0800d2a5 0800d62d 0800db45     ........-...E...

08014b58 <_ZTVN12_GLOBAL__N_124font_OSD_Charset_89_typeE>:
	...
 8014b60:	0800c871 0800c869 0800d839 0800e169     q...i...9...i...

08014b70 <_ZTVN12_GLOBAL__N_125font_OSD_Charset_178_typeE>:
	...
 8014b78:	0800cf65 0800cf5d 0800d6d5 0800dd3d     e...].......=...

08014b88 <_ZN12_GLOBAL__N_125font_OSD_Charset_130_type6m_dataE>:
 8014b88:	56ffaaab 5996fe55 fe5996fe abfe5a96     ...VU..Y..Y..Z..
 8014b98:	56fffeaa f9a6fff9 bfe555bf a5bfe5a5     ...V.....U......
 8014ba8:	eaaaffe5 ff9696ff 56ff9696 9696ff95     ...........V....
 8014bb8:	ff9696ff 0000ebeb                       ........

08014bc0 <_ZN12_GLOBAL__N_124font_OSD_Charset_87_type6m_dataE>:
 8014bc0:	ffffffff ffafffff e5be5bfa 5be5be5b     .........[..[..[
 8014bd0:	be5be5be e5aa5be5 5be5965b 965be596     ..[..[..[..[..[.
 8014be0:	e5965be5 5be5965b 555be596 f9556fe5     .[..[..[..[U.oU.
 8014bf0:	bff9696f 0000febe                       oi......

08014bf8 <_ZTVN12_GLOBAL__N_125font_OSD_Charset_231_typeE>:
	...
 8014c00:	0800d389 0800d381 0800d601 0800dac1     ................

08014c10 <_ZN12_GLOBAL__N_125font_OSD_Charset_255_type6m_dataE>:
 8014c10:	e6ffeffb 9be6ff9b ff9aa6ff 56ff9966     ............f..V
 8014c20:	9556ff95 ffe69bff fffffbef 5bfffaaf     ..V............[
 8014c30:	9596ffe5 ffea96ff aaffe55b 9656ff96     ........[.....V.
 8014c40:	ffe55bff 0000faaf                       .[......

08014c48 <_ZN12_GLOBAL__N_124font_OSD_Charset_73_type6m_dataE>:
 8014c48:	ffffffff aabfffff f9556ffe bff9556f     .........oU.oU..
 8014c58:	96fffe96 ff96ffff ffff96ff 96ffff96     ................
 8014c68:	ff96ffff ffff96ff 96bfff96 f9556ffe     .............oU.
 8014c78:	bff9556f 0000feaa                       oU......

08014c80 <_ZTVN12_GLOBAL__N_125font_OSD_Charset_150_typeE>:
	...
 8014c88:	0800cd35 0800cd2d 0800d745 0800de8d     5...-...E.......

08014c98 <_ZN12_GLOBAL__N_125font_OSD_Charset_161_type6m_dataE>:
 8014c98:	aaffffff feaaffff fffe95ff 95fffe95     ................
 8014ca8:	aa95fffe faaa55fa 95faa555 aaa5feaa     .....U..U.......
 8014cb8:	ffeaa9ff aafffaaa ffaafffe ffffeaff     ................
 8014cc8:	fffffffa 0000ffff                       ........

08014cd0 <_ZTVN12_GLOBAL__N_125font_OSD_Charset_129_typeE>:
	...
 8014cd8:	0800cb91 0800cb89 0800d799 0800df89     ................

08014ce8 <_ZN12_GLOBAL__N_124font_OSD_Charset_84_type6m_dataE>:
 8014ce8:	ffffffff aaafffff e5555bfa afe5555b     .........[U.[U..
 8014cf8:	96fffa96 ff96ffff ffff96ff 96ffff96     ................
 8014d08:	ff96ffff ffff96ff 96ffff96 ff96ffff     ................
 8014d18:	ffff96ff 0000ffeb                       ........

08014d20 <_ZN12_GLOBAL__N_124font_OSD_Charset_37_type6m_dataE>:
 8014d20:	ffffffff ffffffff ffffffff ffffffff     ................
 8014d30:	ffffffff faffafff 5be5be5b 5bafe56e     ........[..[n..[
 8014d40:	fe56fff9 6fff95bf b95bfae5 e5be5be5     ..V....o..[..[..
 8014d50:	fffaffaf 0000ffff                       ........

08014d58 <_ZN12_GLOBAL__N_125font_OSD_Charset_252_type6m_dataE>:
 8014d58:	e6ffeffb 9be6ff9b ff9aa6ff 56ff9966     ............f..V
 8014d68:	9556ff95 ffe69bff fffffbef 5bfffaaf     ..V............[
 8014d78:	9596ffe5 ffea96ff aaffe55b 9656ff96     ........[.....V.
 8014d88:	ffe55bff 0000faaf                       .[......

08014d90 <_ZTVN12_GLOBAL__N_124font_OSD_Charset_93_typeE>:
	...
 8014d98:	0800c8c1 0800c8b9 0800d829 0800e139     ........)...9...

08014da8 <_ZTVN12_GLOBAL__N_125font_OSD_Charset_182_typeE>:
	...
 8014db0:	0800cfb5 0800cfad 0800d6c5 0800dd0d     ................

08014dc0 <_ZN12_GLOBAL__N_124font_OSD_Charset_81_type6m_dataE>:
 8014dc0:	ffffffff aaffffff fe55bfff 5bf9556f     ..........U.oU.[
 8014dd0:	be5be569 e5be5be5 5be5be5b be5be5be     i.[..[..[..[..[.
 8014de0:	e5aa5be5 5be5965b 595be556 e5556ff9     .[..[..[V.[Y.oU.
 8014df0:	ffe595bf 0000faea                       ........

08014df8 <_ZTVN12_GLOBAL__N_124font_OSD_Charset_15_typeE>:
	...
 8014e00:	0800c2a9 0800c2a1 0800d961 0800e4e1     ........a.......

08014e10 <_ZTVN12_GLOBAL__N_125font_OSD_Charset_110_typeE>:
	...
 8014e18:	0800ca15 0800ca0d 0800d7e5 0800e06d     ............m...

08014e28 <_ZN12_GLOBAL__N_124font_OSD_Charset_17_type6m_dataE>:
 8014e28:	ffffffff ffffffff feaabfff 5bf9556f     ............oU.[
 8014e38:	ff96e5aa 9bffe696 aa9bffe6 5556aaaa     ..............VU
 8014e48:	96aa9695 96955596 559696a5 96aa9696     .....U.....U....
 8014e58:	aa955556 0000aaaa                       VU......

08014e60 <_ZTVN12_GLOBAL__N_124font_OSD_Charset_47_typeE>:
	...
 8014e68:	0800c529 0800c521 0800d8e1 0800e361     )...!.......a...

08014e78 <_ZTVN12_GLOBAL__N_125font_OSD_Charset_217_typeE>:
	...
 8014e80:	0800d271 0800d269 0800d639 0800db69     q...i...9...i...

08014e90 <_ZN12_GLOBAL__N_124font_OSD_Charset_50_type6m_dataE>:
 8014e90:	ffffffff ffffffff ffffffff ffffffff     ................
 8014ea0:	aabfffff f9556ffe 5be5555b 6e5be5aa     .....oU.[U.[..[n
 8014eb0:	f95bafe5 bffe56ff a56fff95 e5555bfa     ..[..V....o..[U.
 8014ec0:	afe5555b 0000faaa                       [U......

08014ec8 <_ZN12_GLOBAL__N_125font_OSD_Charset_153_type6m_dataE>:
 8014ec8:	fbffffff feabffff ffea5aff 55faa555     .........Z..U..U
 8014ed8:	5555a955 aa9555aa 6aeaa96a aaaafaaa     U.UU.U..j..j....
 8014ee8:	ffeaabff abfffaab ffebffff ffffffff     ................
 8014ef8:	ffffffff 0000ffff                       ........

08014f00 <_ZTVN12_GLOBAL__N_125font_OSD_Charset_225_typeE>:
	...
 8014f08:	0800d311 0800d309 0800d619 0800db09     ................

08014f18 <_ZTVN12_GLOBAL__N_125font_OSD_Charset_249_typeE>:
	...
 8014f20:	0800d4f1 0800d4e9 0800d5b9 0800d9e9     ................

08014f30 <_ZN12_GLOBAL__N_124font_OSD_Charset_76_type6m_dataE>:
 8014f30:	ffffffff ffafffff fffe5bff 5bfffe5b     .........[..[..[
 8014f40:	fe5bfffe fffe5bff 5bfffe5b fe5bfffe     ..[..[..[..[..[.
 8014f50:	fffe5bff 5bfffe5b aa5bfffe e5555bfa     .[..[..[..[..[U.
 8014f60:	afe5555b 0000faaa                       [U......

08014f68 <_ZN12_GLOBAL__N_124font_OSD_Charset_62_type6m_dataE>:
 8014f68:	ffffffff ffffffff ffffffff ffffffff     ................
 8014f78:	ffafffff fffe5bff bffff96f 96ffffe5     .....[..o.......
 8014f88:	fe5bffff fffe5bff e5bfff96 fff96fff     ..[..[.......o..
 8014f98:	affffe5b 0000ffff                       [.......

08014fa0 <_ZN12_GLOBAL__N_125font_OSD_Charset_244_type6m_dataE>:
 8014fa0:	aaffffff 5555eaaa 9aaaa695 6699be66     ......UU....f..f
 8014fb0:	a56699b9 99956699 66995566 95669955     ..f..f..fU.fU.f.
 8014fc0:	99a56699 6699b966 aaa699be 9555559a     .f..f..f.....UU.
 8014fd0:	ffeaaaaa 0000ffff                       ........

08014fd8 <_ZN12_GLOBAL__N_125font_OSD_Charset_150_type6m_dataE>:
 8014fd8:	ffffffff ffffafff abffffab af6aaaff     ..............j.
 8014fe8:	55af555a 5556af55 bfa956bf aabfaaaa     ZU.UU.VU.V......
 8014ff8:	eaaaffaa ffffaaff ffffffff ffffffff     ................
 8015008:	ffffffff 0000ffff                       ........

08015010 <_ZN12_GLOBAL__N_124font_OSD_Charset_74_type6m_dataE>:
 8015010:	ffffffff aaffffff e555bffa ffe555bf     ..........U..U..
 8015020:	5bfffa5a fe5bfffe affe5bff 5a5bfe5b     Z..[..[..[..[.[Z
 8015030:	fe5a5bfe 5bfe5a5b 5a5bfe5a fe555bfe     .[Z.[Z.[Z.[Z.[U.
 8015040:	bfff956f 0000ffea                       o.......

08015048 <_ZN12_GLOBAL__N_125font_OSD_Charset_241_type6m_dataE>:
 8015048:	aaffffff 5555aaaa aaaaaa55 95ffff95     ......UUU.......
 8015058:	ff95ffff ffff95ff 95ffff95 ff95ffff     ................
 8015068:	ffff95ff 95ffff95 aaaaffff 555555aa     .............UUU
 8015078:	ffaaaaaa 0000ffff                       ........

08015080 <_ZTVN12_GLOBAL__N_125font_OSD_Charset_179_typeE>:
	...
 8015088:	0800cf79 0800cf71 0800d6d1 0800dd31     y...q.......1...

08015098 <_ZTVN12_GLOBAL__N_125font_OSD_Charset_140_typeE>:
	...
 80150a0:	0800cc6d 0800cc65 0800d76d 0800df05     m...e...m.......

080150b0 <_ZTVN12_GLOBAL__N_124font_OSD_Charset_62_typeE>:
	...
 80150b8:	0800c655 0800c64d 0800d8a5 0800e2ad     U...M...........

080150c8 <_ZTVN12_GLOBAL__N_125font_OSD_Charset_232_typeE>:
	...
 80150d0:	0800d39d 0800d395 0800d5fd 0800dab5     ................

080150e0 <_ZN12_GLOBAL__N_125font_OSD_Charset_176_type6m_dataE>:
 80150e0:	ffffffff ffffffff ffffffff ffffffff     ................
 80150f0:	febfffff fff96fff 9bffe69b f96fffe6     .....o........o.
 8015100:	fffebfff ffffffff ffffffff ffffffff     ................
 8015110:	ffffffff 0000ffff                       ........

08015118 <_ZTVN12_GLOBAL__N_125font_OSD_Charset_151_typeE>:
	...
 8015120:	0800cd49 0800cd41 0800d741 0800de81     I...A...A.......

08015130 <_ZTVN12_GLOBAL__N_125font_OSD_Charset_226_typeE>:
	...
 8015138:	0800d325 0800d31d 0800d615 0800dafd     %...............

08015148 <_ZTVN12_GLOBAL__N_124font_OSD_Charset_94_typeE>:
	...
 8015150:	0800c8d5 0800c8cd 0800d825 0800e12d     ........%...-...

08015160 <_ZN12_GLOBAL__N_125font_OSD_Charset_145_type6m_dataE>:
 8015160:	a9fffffa ea55fffe feaa95ff 95faaa95     ......U.........
 8015170:	aa95faaa fffe95fe 95fffe95 feaafffe     ................
 8015180:	fffeaaff aafffeaa feaafffe ffffffff     ................
 8015190:	ffffffff 0000ffff                       ........

08015198 <_ZN12_GLOBAL__N_124font_OSD_Charset_68_type6m_dataE>:
 8015198:	ffffffff aaafffff fe555bff 5bf9555b     .........[U.[U.[
 80151a8:	be5be56a e5be5be5 5be5be5b be5be5be     j.[..[..[..[..[.
 80151b8:	e5be5be5 5be5be5b 6a5be5be f9555be5     .[..[..[..[j.[U.
 80151c8:	affe555b 0000ffaa                       [U......

080151d0 <_ZN12_GLOBAL__N_125font_OSD_Charset_189_type6m_dataE>:
 80151d0:	ffffffff ffffffff fffffeff fefffffe     ................
 80151e0:	fffeffff aabffeff aa55bffe 555a55aa     ..........U..UZU
 80151f0:	a5555aa5 5a55aa5a be5a55be fffe5aaa     .ZU.Z.UZ.UZ..Z..
 8015200:	55fffe55 0000fffe                       U..U....

08015208 <_ZN12_GLOBAL__N_125font_OSD_Charset_236_type6m_dataE>:
 8015208:	ffffffff ffffffff faaaafff 56e5555b     ............[U.V
 8015218:	aa9695aa 9a55a696 a69a55a6 55a69a55     ......U..U..U..U
 8015228:	96aa969a 5b95aa56 aaafe555 fffffffa     ....V..[U.......
 8015238:	ffffffff 0000ffff                       ........

08015240 <_ZN12_GLOBAL__N_125font_OSD_Charset_142_type6m_dataE>:
 8015240:	ffffffff ffffffff ffffffff ffffffff     ................
 8015250:	ffffffff ffffffff ebffffff 5b96ffaf     ...............[
 8015260:	fe5b96fe 96fe5b96 965bfe5b ff955bff     ..[..[..[.[..[..
 8015270:	bfffe56f 0000fffa                       o.......

08015278 <_ZTVN12_GLOBAL__N_125font_OSD_Charset_254_typeE>:
	...
 8015280:	0800d555 0800d54d 0800d5a5 0800d9ad     U...M...........

08015290 <_ZN12_GLOBAL__N_125font_OSD_Charset_198_type6m_dataE>:
 8015290:	ffffffff ffffffff ffffffff ffffffff     ................
 80152a0:	ffffffff aaaaaaff aaffffff ffffaaaa     ................
 80152b0:	ffffffff ffffffff ffffffff ffffffff     ................
 80152c0:	ffffffff 0000ffff                       ........

080152c8 <_ZN12_GLOBAL__N_124font_OSD_Charset_65_type6m_dataE>:
 80152c8:	ffffffff aaffffff fe55bfff 5bf9556f     ..........U.oU.[
 80152d8:	695be555 e5be5be5 5be5be5b aa5be5be     U.[i.[..[..[..[.
 80152e8:	e5555be5 5be5555b be5be5aa e5be5be5     .[U.[U.[..[..[..
 80152f8:	afe5be5b 0000faff                       [.......

08015300 <_ZTVN12_GLOBAL__N_124font_OSD_Charset_48_typeE>:
	...
 8015308:	0800c53d 0800c535 0800d8dd 0800e355     =...5.......U...

08015318 <_ZTVN12_GLOBAL__N_125font_OSD_Charset_218_typeE>:
	...
 8015320:	0800d285 0800d27d 0800d635 0800db5d     ....}...5...]...

08015330 <_ZN12_GLOBAL__N_125font_OSD_Charset_233_type6m_dataE>:
 8015330:	5bfffaaf 9556ffe5 ffaa96ff 96ff9596     ...[..V.........
 8015340:	9556ff9a ffe55bff fffffaaf 5bfffaaf     ..V..[.........[
 8015350:	9596ffe5 ffea96ff abffe55b 9656ff96     ........[.....V.
 8015360:	ffe55bff 0000faaf                       .[......

08015368 <_ZTVN12_GLOBAL__N_124font_OSD_Charset_97_typeE>:
	...
 8015370:	0800c911 0800c909 0800d819 0800e109     ................

08015380 <_ZTVN12_GLOBAL__N_124font_OSD_Charset_20_typeE>:
	...
 8015388:	0800c30d 0800c305 0800d94d 0800e4a5     ........M.......

08015398 <_ZN12_GLOBAL__N_125font_OSD_Charset_168_type6m_dataE>:
 8015398:	ffffffff bfffefff a5abffea 6a555aaf     .............ZUj
 80153a8:	55aa5555 5556aa55 afa96aab aaffa9aa     UU.UU.VU.j......
 80153b8:	eaabffaa ffeaafff ffffeaff ffffffeb     ................
 80153c8:	ffffffff 0000ffff                       ........

080153d0 <_ZN12_GLOBAL__N_125font_OSD_Charset_230_type6m_dataE>:
 80153d0:	56ffeaab 9556ff95 ffe96bff 6ffff96f     ...V..V..k..o..o
 80153e0:	f96ffff9 fff96fff fffffebf 6ffffebf     ..o..o.........o
 80153f0:	e55bfff9 ff9696ff 56ff9696 9696ff95     ..[........V....
 8015400:	ff9696ff 0000ebeb                       ........

08015408 <_ZTVN12_GLOBAL__N_125font_OSD_Charset_169_typeE>:
	...
 8015410:	0800ceb1 0800cea9 0800d6f9 0800dda9     ................

08015420 <_ZN12_GLOBAL__N_125font_OSD_Charset_140_type6m_dataE>:
 8015420:	ffffffff ffffffff ffffffff ffffffff     ................
 8015430:	ffffffff ffffffff ffffffff ffffffff     ................
 8015440:	ffffffff ffffffff ffffffff ffffffff     ................
 8015450:	ffffffff 0000ffff                       ........

08015458 <_ZN12_GLOBAL__N_123font_OSD_Charset_3_type6m_dataE>:
 8015458:	ffbfffff ffff6fff 6fffff6f ff6fffff     .....o..o..o..o.
 8015468:	ffff6fff 6fffff6f ff5bffff 6fff56bf     .o..o..o..[..V.o
 8015478:	a95bff55 bffe96ff e5bfffe5 fff96fff     U.[..........o..
 8015488:	6fbff96f 00006ff9                       o..o.o..

08015490 <_ZTVN12_GLOBAL__N_124font_OSD_Charset_63_typeE>:
	...
 8015498:	0800c669 0800c661 0800d8a1 0800e2a1     i...a...........

080154a8 <_ZTVN12_GLOBAL__N_125font_OSD_Charset_233_typeE>:
	...
 80154b0:	0800d3b1 0800d3a9 0800d5f9 0800daa9     ................

080154c0 <_ZTVN12_GLOBAL__N_125font_OSD_Charset_152_typeE>:
	...
 80154c8:	0800cd5d 0800cd55 0800d73d 0800de75     ]...U...=...u...

080154d8 <_ZN12_GLOBAL__N_125font_OSD_Charset_134_type6m_dataE>:
 80154d8:	96ffebeb 9696ff96 ffe55bff bffff96f     .........[..o...
 80154e8:	556ffeaa fea96ff9 6fff556f 556ffea9     ..oU.o..oU.o..oU
 80154f8:	feaabff9 fffe5bff 5bfffe5b 955bffea     .....[..[..[..[.
 8015508:	ff955bff 0000eaaf                       .[......

08015510 <_ZN12_GLOBAL__N_125font_OSD_Charset_178_type6m_dataE>:
 8015510:	bfffffff fe6fffff fffa5bff 56ffa556     ......o..[..V..V
 8015520:	5a5bfe55 f96e6ffe bff96fbf 6f6ff96f     U.[Z.on..o..o.oo
 8015530:	fe5a5bf9 56fe5556 fa5bffa5 fffe6fff     .[Z.VU.V..[..o..
 8015540:	ffffffbf 0000ffff                       ........

08015548 <_ZN12_GLOBAL__N_124font_OSD_Charset_57_type6m_dataE>:
 8015548:	ffffffff ffffffff ffffffff ffffffff     ................
 8015558:	aabfffff f9556ffe 5be5555b aa5be5aa     .....oU.[U.[..[.
 8015568:	e5555be5 bfe5556f aaafe5aa e5555be5     .[U.oU.......[U.
 8015578:	aff9555b 0000feaa                       [U......

08015580 <_ZN12_GLOBAL__N_125font_OSD_Charset_225_type6m_dataE>:
 8015580:	ffffffff 99bffeee faaabff9 bfe6566f     ............oV..
 8015590:	9bfffa56 ff9bffff 6ffe9abf aa5bf955     V..........oU.[.
 80155a0:	9abea6e5 66996966 bea69969 9aaaa69a     ....fi.fi.......
 80155b0:	afe5555b 0000faaa                       [U......

080155b8 <_ZN12_GLOBAL__N_125font_OSD_Charset_131_type6m_dataE>:
 80155b8:	96ffffeb ff96ffff ffea96ff 56ff9556     ............V..V
 80155c8:	aaabff95 f955bffe 6fe5a96f a96fe555     ......U.o..oU.o.
 80155d8:	aaaabfe5 ff9556ff 6bff9556 f96fffe9     .....V..V..k..o.
 80155e8:	fff96fff 0000febf                       .o......

080155f0 <_ZN12_GLOBAL__N_124font_OSD_Charset_13_type6m_dataE>:
 80155f0:	aaffffff 5555aaaa aaaaaa55 ffffffff     ......UUU.......
 8015600:	ffffffff ffffffff ffffffff ffffffff     ................
 8015610:	ffffffff ffffffff ffffffff ffffffff     ................
 8015620:	ffffffff 0000ffff                       ........

08015628 <_ZN12_GLOBAL__N_124font_OSD_Charset_54_type6m_dataE>:
 8015628:	ffffffff ffffffff ffffffff ffffffff     ................
 8015638:	aabfffff f9556ffe 5bf9555b aa5bfeaa     .....oU.[U.[..[.
 8015648:	f9555bfe 5be5555b aa5be5aa e5555be5     .[U.[U.[..[..[U.
 8015658:	bff9556f 0000feaa                       oU......

08015660 <_ZN12_GLOBAL__N_125font_OSD_Charset_222_type6m_dataE>:
 8015660:	ffffffff ffffffff ffffffff ffffffff     ................
 8015670:	ffffffff ffffffff ffffffff ffffffff     ................
 8015680:	ffeaaaff 55ffe555 e5aaffe5 ffe5bfff     ....U..U........
 8015690:	bfffe5bf 0000ffe5                       ........

08015698 <_ZTVN12_GLOBAL__N_124font_OSD_Charset_17_typeE>:
	...
 80156a0:	0800c2d1 0800c2c9 0800d959 0800e4c9     ........Y.......

080156b0 <_ZTVN12_GLOBAL__N_125font_OSD_Charset_106_typeE>:
	...
 80156b8:	0800c9c5 0800c9bd 0800d7f5 0800e09d     ................

080156c8 <_ZTVN12_GLOBAL__N_125font_OSD_Charset_195_typeE>:
	...
 80156d0:	0800d0b9 0800d0b1 0800d691 0800dc71     ............q...

080156e0 <_ZN12_GLOBAL__N_124font_OSD_Charset_16_type6m_dataE>:
 80156e0:	6ffeaabf aa5bf955 96ff96e5 fb9bffe6     ...oU.[.........
 80156f0:	ffff9bff 9bffff9b aa9bffff 5556aaaa     ..............VU
 8015700:	96aa9695 96955596 559696a5 96aa9696     .....U.....U....
 8015710:	aa955556 0000aaaa                       VU......

08015718 <_ZTVN12_GLOBAL__N_124font_OSD_Charset_49_typeE>:
	...
 8015720:	0800c551 0800c549 0800d8d9 0800e349     Q...I.......I...

08015730 <_ZTVN12_GLOBAL__N_125font_OSD_Charset_241_typeE>:
	...
 8015738:	0800d451 0800d449 0800d5d9 0800da49     Q...I.......I...

08015748 <_ZTVN12_GLOBAL__N_125font_OSD_Charset_138_typeE>:
	...
 8015750:	0800cc45 0800cc3d 0800d775 0800df1d     E...=...u.......

08015760 <_ZN12_GLOBAL__N_124font_OSD_Charset_28_type6m_dataE>:
 8015760:	ffffffff ffffffff ffffffff ffffffff     ................
 8015770:	ffffffff ffffffff ffffffff ffffffff     ................
 8015780:	ffffffff ffffffff ffffffff ffffffff     ................
 8015790:	ffffffff 0000ffff                       ........

08015798 <_ZTVN12_GLOBAL__N_124font_OSD_Charset_21_typeE>:
	...
 80157a0:	0800c321 0800c319 0800d949 0800e499     !.......I.......

080157b0 <_ZN12_GLOBAL__N_125font_OSD_Charset_126_type6m_dataE>:
 80157b0:	ffffffff ffffffff ffffffff ffffffff     ................
 80157c0:	e5bfeffa 96956f9b 96e55a5b bfebf96f     .....o..[Z..o...
 80157d0:	fffffffe ffffffff ffffffff ffffffff     ................
 80157e0:	ffffffff 0000ffff                       ........

080157e8 <_ZTVN12_GLOBAL__N_124font_OSD_Charset_32_typeE>:
	...
 80157f0:	0800c3fd 0800c3f5 0800d91d 0800e415     ................

08015800 <_ZN12_GLOBAL__N_125font_OSD_Charset_217_type6m_dataE>:
 8015800:	ffffffff eaffffff ff95bfff ffffeaff     ................
 8015810:	ffffffff ffffffff bffffeff f96ffff9     ..............o.
 8015820:	fff95bff 5bfff956 f96ffff9 fff9bfff     .[..V..[..o.....
 8015830:	fffffeff 0000ffff                       ........

08015838 <_ZTVN12_GLOBAL__N_125font_OSD_Charset_121_typeE>:
	...
 8015840:	0800caf1 0800cae9 0800d7b9 0800dfe9     ................

08015850 <_ZN12_GLOBAL__N_125font_OSD_Charset_165_type6m_dataE>:
 8015850:	abffffff fa5afffe ffa955ff 55fea555     ......Z..U..U..U
 8015860:	aa95fea9 ffeaa9fe a5fffaa9 eaaafffe     ................
 8015870:	ffaaaaff aaffaaaa ffffffea ffffffff     ................
 8015880:	ffffffff 0000ffff                       ........

08015888 <_ZN12_GLOBAL__N_125font_OSD_Charset_123_type6m_dataE>:
 8015888:	ffffffff 5bfffeaf f95bfff9 fff956ff     .......[..[..V..
 8015898:	96fffe96 ff96ffff bfffe5bf 96ffffe5     ................
 80158a8:	ff96ffff fffe96ff 5bfff956 f95bfff9     ........V..[..[.
 80158b8:	fffeafff 0000ffff                       ........

080158c0 <_ZN12_GLOBAL__N_124font_OSD_Charset_46_type6m_dataE>:
 80158c0:	ffffffff ffffffff ffffffff ffffffff     ................
 80158d0:	ffffffff ffffffff ffffffff ffffffff     ................
 80158e0:	ffffffff ffffffff ebffffff ff96ffff     ................
 80158f0:	ffff96ff 0000ffeb                       ........

080158f8 <_ZN12_GLOBAL__N_125font_OSD_Charset_214_type6m_dataE>:
 80158f8:	ffffffff ffffffff ffffffff ffffffff     ................
 8015908:	ffffffff ffffffff ffffffff ffffffff     ................
 8015918:	ffffffff ffffffff ffaaffff ffff95ff     ................
 8015928:	9bffff9a 0000ffff                       ........

08015930 <_ZTVN12_GLOBAL__N_124font_OSD_Charset_64_typeE>:
	...
 8015938:	0800c67d 0800c675 0800d89d 0800e295     }...u...........

08015948 <_ZN12_GLOBAL__N_125font_OSD_Charset_120_type6m_dataE>:
 8015948:	ffffffff ffffffff ffffffff ffffffff     ................
 8015958:	ffafffff e5be5bfa 6fe5695b 55bff955     .....[..[i.oU..U
 8015968:	ff96fffe bfff96ff 556ffe55 e5695bf9     ........U.oU.[i.
 8015978:	afe5be5b 0000faff                       [.......

08015980 <_ZTVN12_GLOBAL__N_125font_OSD_Charset_153_typeE>:
	...
 8015988:	0800cd71 0800cd69 0800d739 0800de69     q...i...9...i...

08015998 <_ZN12_GLOBAL__N_125font_OSD_Charset_149_type6m_dataE>:
 8015998:	ffffffff eaaaffea ffa555ff 55ffa555     .........U..U..U
 80159a8:	9695ffa5 feaaa9fe aafeaaaa abeafeaa     ................
 80159b8:	febffefe ffffffff ffffffff ffffffff     ................
 80159c8:	ffffffff 0000ffff                       ........

080159d0 <_ZN12_GLOBAL__N_125font_OSD_Charset_211_type6m_dataE>:
 80159d0:	aaffffff 5555aaaa aaaaaa55 ffffffff     ......UUU.......
 80159e0:	ffffffff ffffffff ffffffff ffffffff     ................
 80159f0:	ffffffff ffffffff ffffffff ffffffff     ................
 8015a00:	ffffffff 0000ffff                       ........

08015a08 <_ZTVN12_GLOBAL__N_125font_OSD_Charset_185_typeE>:
	...
 8015a10:	0800cff1 0800cfe9 0800d6b9 0800dce9     ................

08015a20 <_ZTVN12_GLOBAL__N_124font_OSD_Charset_18_typeE>:
	...
 8015a28:	0800c2e5 0800c2dd 0800d955 0800e4bd     ........U.......

08015a38 <_ZTVN12_GLOBAL__N_125font_OSD_Charset_160_typeE>:
	...
 8015a40:	0800cdfd 0800cdf5 0800d71d 0800de15     ................

08015a50 <_ZTVN12_GLOBAL__N_125font_OSD_Charset_107_typeE>:
	...
 8015a58:	0800c9d9 0800c9d1 0800d7f1 0800e091     ................

08015a68 <_ZTVN12_GLOBAL__N_125font_OSD_Charset_196_typeE>:
	...
 8015a70:	0800d0cd 0800d0c5 0800d68d 0800dc65     ............e...

08015a80 <_ZN12_GLOBAL__N_125font_OSD_Charset_209_type6m_dataE>:
 8015a80:	9bffff9b ff9bffff ffff9bff 9bffff9b     ................
 8015a90:	ff9bffff ffff9bff 9bffff9b ff9bffff     ................
 8015aa0:	ffff9bff 9bffff9b ff9bffff ffff9bff     ................
 8015ab0:	9bffff9b 0000ffff                       ........

08015ab8 <_ZN12_GLOBAL__N_125font_OSD_Charset_115_type6m_dataE>:
 8015ab8:	ffffffff ffffffff ffffffff ffffffff     ................
 8015ac8:	aabfffff f9556ffe 5be5555b aa5be5aa     .....oU.[U.[..[.
 8015ad8:	f9555bfa afe5556f aa5be5aa e5555be5     .[U.oU....[..[U.
 8015ae8:	bff9556f 0000feaa                       oU......

08015af0 <_ZN12_GLOBAL__N_124font_OSD_Charset_38_type6m_dataE>:
 8015af0:	ffffffff ffffffff ffeaffff 6fff95bf     ...............o
 8015b00:	6e6ffe69 fe6e6ffe bfff9a6f e5bfffe5     i.on.on.o.......
 8015b10:	fa9a6fff 9be66f9b 6a9bf9bf 9b956fe6     .o...o.....j.o..
 8015b20:	ffefeabf 0000ffff                       ........

08015b28 <_ZN12_GLOBAL__N_125font_OSD_Charset_206_type6m_dataE>:
 8015b28:	ffffffff ffffffff ffffffff ffffffff     ................
 8015b38:	ffffffff ffffffff ffffffff ffffffff     ................
 8015b48:	ffffffff ffffffff ffffffff ffffffff     ................
 8015b58:	ffffffff 0000ffff                       ........

08015b60 <_ZTVN12_GLOBAL__N_125font_OSD_Charset_139_typeE>:
	...
 8015b68:	0800cc59 0800cc51 0800d771 0800df11     Y...Q...q.......

08015b78 <_ZN12_GLOBAL__N_124font_OSD_Charset_40_type6m_dataE>:
 8015b78:	ffffffff ffffffff faffffff ffe5bfff     ................
 8015b88:	5bfff96f ff96fffe ffff96ff 96ffff96     o..[............
 8015b98:	ff96ffff ffff96ff 5bffff96 f96ffffe     ...........[..o.
 8015ba8:	ffe5bfff 0000faff                       ........

08015bb0 <_ZN12_GLOBAL__N_125font_OSD_Charset_112_type6m_dataE>:
 8015bb0:	ffffffff ffffffff ffffffff ffffffff     ................
 8015bc0:	aaafffff f9555bfe 5be5555b aa5be5aa     .....[U.[U.[..[.
 8015bd0:	e5555be5 5bf9555b fe5bfeaa fffe5bff     .[U.[U.[..[..[..
 8015be0:	affffe5b 0000ffff                       [.......

08015be8 <_ZTVN12_GLOBAL__N_124font_OSD_Charset_22_typeE>:
	...
 8015bf0:	0800c335 0800c32d 0800d945 0800e48d     5...-...E.......

08015c00 <_ZTVN12_GLOBAL__N_123font_OSD_Charset_7_typeE>:
	...
 8015c08:	0800c209 0800c201 0800d981 0800e541     ............A...

08015c18 <_ZN12_GLOBAL__N_124font_OSD_Charset_35_type6m_dataE>:
 8015c18:	ffffffff bebfffff f9696ffe 6bf9696f     .........oi.oi.k
 8015c28:	5556e969 95555695 6be9696b 5556e969     i.VU.VU.ki.ki.VU
 8015c38:	95555695 6fe9696b 696ff969 febebff9     .VU.ki.oi.oi....
 8015c48:	ffffffff 0000ffff                       ........

08015c50 <_ZTVN12_GLOBAL__N_125font_OSD_Charset_111_typeE>:
	...
 8015c58:	0800ca29 0800ca21 0800d7e1 0800e061     )...!.......a...

08015c68 <_ZN12_GLOBAL__N_125font_OSD_Charset_203_type6m_dataE>:
 8015c68:	aaffaaff 5555aaaa 55555555 ffaaaaaa     ......UUUUUU....
 8015c78:	ffffffff ffffffff ffffffff ffffffff     ................
 8015c88:	ffffffff ffffffff ffffffff ffffffff     ................
 8015c98:	ffffffff 0000ffff                       ........

08015ca0 <_ZTVN12_GLOBAL__N_124font_OSD_Charset_33_typeE>:
	...
 8015ca8:	0800c411 0800c409 0800d919 0800e409     ................

08015cb8 <_ZTVN12_GLOBAL__N_125font_OSD_Charset_122_typeE>:
	...
 8015cc0:	0800cb05 0800cafd 0800d7b5 0800dfdd     ................

08015cd0 <_ZN12_GLOBAL__N_124font_OSD_Charset_94_type6m_dataE>:
 8015cd0:	ffffffff ffffffff ffebffff bfff96ff     ................
 8015ce0:	696ffe55 f9be6ff9 fffaffaf ffffffff     U.oi.o..........
 8015cf0:	ffffffff ffffffff ffffffff ffffffff     ................
 8015d00:	ffffffff 0000ffff                       ........

08015d08 <_ZTVN12_GLOBAL__N_124font_OSD_Charset_65_typeE>:
	...
 8015d10:	0800c691 0800c689 0800d899 0800e289     ................

08015d20 <_ZTVN12_GLOBAL__N_125font_OSD_Charset_235_typeE>:
	...
 8015d28:	0800d3d9 0800d3d1 0800d5f1 0800da91     ................

08015d38 <_ZTVN12_GLOBAL__N_125font_OSD_Charset_120_typeE>:
	...
 8015d40:	0800cadd 0800cad5 0800d7bd 0800dff5     ................

08015d50 <_ZTVN12_GLOBAL__N_125font_OSD_Charset_154_typeE>:
	...
 8015d58:	0800cd85 0800cd7d 0800d735 0800de5d     ....}...5...]...

08015d68 <_ZN12_GLOBAL__N_124font_OSD_Charset_91_type6m_dataE>:
 8015d68:	ffffffff abffffff f956fffe fff956ff     ..........V..V..
 8015d78:	96fffe96 ff96ffff ffff96ff 96ffff96     ................
 8015d88:	ff96ffff fffe96ff 56fff956 feabfff9     ........V..V....
 8015d98:	ffffffff 0000ffff                       ........

08015da0 <_ZN12_GLOBAL__N_125font_OSD_Charset_107_type6m_dataE>:
 8015da0:	ffffffff ffffffff ffffffff ffffffff     ................
 8015db0:	ffafffff e5be5bfa 5be56e5b 565bf95a     .....[..[n.[Z.[V
 8015dc0:	ff955bfe 5bff955b 5a5bfe55 e56e5bf9     .[..[..[U.[Z.[n.
 8015dd0:	afe5be5b 0000faff                       [.......

08015dd8 <_ZN12_GLOBAL__N_125font_OSD_Charset_194_type6m_dataE>:
 8015dd8:	ffffffff ffffffff faffafff 5be5be5b     ............[..[
 8015de8:	a95be5b9 e5a55be5 59a5965a 5a5a6596     ..[..[..Z..Y.eZZ
 8015df8:	e56a5ba5 5be5ae5b ffafe5be fffffffa     .[j.[..[........
 8015e08:	ffffffff 0000ffff                       ........

08015e10 <_ZN12_GLOBAL__N_125font_OSD_Charset_104_type6m_dataE>:
 8015e10:	ffffffff ffffffff ffffffff ffffffff     ................
 8015e20:	ffafffff e5be5bfa 5be5be5b aa5be5be     .....[..[..[..[.
 8015e30:	e5555be5 5be5555b be5be5aa e5be5be5     .[U.[U.[..[..[..
 8015e40:	afe5be5b 0000faff                       [.......

08015e48 <_ZN12_GLOBAL__N_124font_OSD_Charset_27_type6m_dataE>:
 8015e48:	aae9555a 96aaea5a eaa56aea aae9555a     ZU..Z....j..ZU..
 8015e58:	555aeaaa e96a5ae9 aae9555a 555aeaaa     ..ZU.Zj.ZU....ZU
 8015e68:	e96a5ae9 aae9555a 595aeaaa e9665ae9     .Zj.ZU....ZY.Zf.
 8015e78:	5ae96a5a 0000e96a                       Zj.Zj...

08015e80 <_ZTVN12_GLOBAL__N_124font_OSD_Charset_19_typeE>:
	...
 8015e88:	0800c2f9 0800c2f1 0800d951 0800e4b1     ........Q.......

08015e98 <_ZN12_GLOBAL__N_125font_OSD_Charset_101_type6m_dataE>:
 8015e98:	ffffffff ffffffff ffffffff ffffffff     ................
 8015ea8:	aaafffff e5555bfa 5be5555b aa5bfaaa     .....[U.[U.[..[.
 8015eb8:	fe555bff 5bfe555b aa5bffaa e5555bfa     .[U.[U.[..[..[U.
 8015ec8:	afe5555b 0000faaa                       [U......

08015ed0 <_ZN12_GLOBAL__N_124font_OSD_Charset_24_type6m_dataE>:
 8015ed0:	fbffffff ffa6ffff fffa56ff a6ffa5a6     .........V......
 8015ee0:	aaa6fa5a 955556e5 5beaaaab 66a6e569     Z....VU....[i..f
 8015ef0:	9a6aa69a a69a6566 66a69a66 e5695b9a     ..j.fe..f..f.[i.
 8015f00:	fffabeaf 0000ffff                       ........

08015f08 <_ZTVN12_GLOBAL__N_124font_OSD_Charset_80_typeE>:
	...
 8015f10:	0800c7bd 0800c7b5 0800d85d 0800e1d5     ........].......

08015f20 <_ZTVN12_GLOBAL__N_125font_OSD_Charset_250_typeE>:
	...
 8015f28:	0800d505 0800d4fd 0800d5b5 0800d9dd     ................

08015f38 <_ZTVN12_GLOBAL__N_125font_OSD_Charset_197_typeE>:
	...
 8015f40:	0800d0e1 0800d0d9 0800d689 0800dc59     ............Y...

08015f50 <_ZN12_GLOBAL__N_125font_OSD_Charset_160_type6m_dataE>:
 8015f50:	ffffffff ffffaaff 56bfffaa ff56bfff     ...........V..V.
 8015f60:	aaaf56bf 55aaaf56 bf555aaf aaff55aa     .V..V..U.ZU..U..
 8015f70:	5aabff56 ffaaafff ffffaabf afffffab     V..Z............
 8015f80:	ffbfffff 0000ffff                       ........

08015f88 <_ZTVN12_GLOBAL__N_125font_OSD_Charset_112_typeE>:
	...
 8015f90:	0800ca3d 0800ca35 0800d7dd 0800e055     =...5.......U...

08015fa0 <_ZTVN12_GLOBAL__N_125font_OSD_Charset_126_typeE>:
	...
 8015fa8:	0800cb55 0800cb4d 0800d7a5 0800dfad     U...M...........

08015fb8 <_ZN12_GLOBAL__N_125font_OSD_Charset_251_type6m_dataE>:
 8015fb8:	56ffabeb 5556fe56 fe5996fe 96fe5a96     ...VV.VU..Y..Z..
 8015fc8:	afebee5b e5afff9a affa5aff fa5bffa5     [........Z....[.
 8015fd8:	ebeba6ff ff9696fb 56ff9696 9696ff95     ...........V....
 8015fe8:	ff9696ff 0000ebeb                       ........

08015ff0 <_ZN12_GLOBAL__N_124font_OSD_Charset_48_type6m_dataE>:
 8015ff0:	ffffffff ffffffff ffffffff ffffffff     ................
 8016000:	aabfffff f9556ffe 5be5555b be5be5aa     .....oU.[U.[..[.
 8016010:	e5be5be5 5be5be5b aa5be5be e5555be5     .[..[..[..[..[U.
 8016020:	bff9556f 0000feaa                       oU......

08016028 <_ZTVN12_GLOBAL__N_124font_OSD_Charset_34_typeE>:
	...
 8016030:	0800c425 0800c41d 0800d915 0800e3fd     %...............

08016040 <_ZN12_GLOBAL__N_124font_OSD_Charset_80_type6m_dataE>:
 8016040:	ffffffff aaafffff fe555bff 5bf9555b     .........[U.[U.[
 8016050:	be5be56a e5be5be5 5be56a5b 555bf955     j.[..[..[j.[U.[U
 8016060:	ffaa5bfe 5bfffe5b fe5bfffe fffe5bff     .[..[..[..[..[..
 8016070:	affffe5b 0000ffff                       [.......

08016078 <_ZTVN12_GLOBAL__N_125font_OSD_Charset_123_typeE>:
	...
 8016080:	0800cb19 0800cb11 0800d7b1 0800dfd1     ................

08016090 <_ZN12_GLOBAL__N_124font_OSD_Charset_19_type6m_dataE>:
 8016090:	6f6ff96f f96fbff9 ffe5bfff ffffe5bf     o.oo..o.........
 80160a0:	5bfffe96 556fffa9 ff56bfff ffff5bff     ...[..oU..V..[..
 80160b0:	6fffff6f ff6fffff ffff6fff 6fffff6f     o..o..o..o..o..o
 80160c0:	ff6fffff 0000bfff                       ..o.....

080160c8 <_ZN12_GLOBAL__N_125font_OSD_Charset_183_type6m_dataE>:
 80160c8:	aafeaabf 5556aa55 95aa5695 9696aa96     ....U.VU.V......
 80160d8:	aa9696aa 96aa9696 5696aa96 55569555     ...........VU.VU
 80160e8:	95555695 56955556 55569555 95555695     .VU.VU.VU.VU.VU.
 80160f8:	aa955556 0000aaaa                       VU......

08016100 <_ZTVN12_GLOBAL__N_124font_OSD_Charset_66_typeE>:
	...
 8016108:	0800c6a5 0800c69d 0800d895 0800e27d     ............}...

08016118 <_ZTVN12_GLOBAL__N_125font_OSD_Charset_236_typeE>:
	...
 8016120:	0800d3ed 0800d3e5 0800d5ed 0800da85     ................

08016130 <_ZTVN12_GLOBAL__N_125font_OSD_Charset_253_typeE>:
	...
 8016138:	0800d541 0800d539 0800d5a9 0800d9b9     A...9...........

08016148 <_ZN12_GLOBAL__N_124font_OSD_Charset_75_type6m_dataE>:
 8016148:	ffffffff ffafffff fafe5bff 5be5be5b     .........[..[..[
 8016158:	5a5be56e fe565bf9 5bff955b f95bffe5     n.[Z.[V.[..[..[.
 8016168:	ffe55bff 5bff955b 5a5bfe56 e56e5bf9     .[..[..[V.[Z.[n.
 8016178:	afe5be5b 0000faff                       [.......

08016180 <_ZN12_GLOBAL__N_125font_OSD_Charset_243_type6m_dataE>:
 8016180:	faffffff ffe5ffff ffffe6ff e6ffffe6     ................
 8016190:	ffe6ffff ffffe6ff e6ffffe6 ffe6ffff     ................
 80161a0:	ffffe6ff e6ffffe6 ffe6ffff ffffe5ff     ................
 80161b0:	fffffffa 0000ffff                       ........

080161b8 <_ZTVN12_GLOBAL__N_125font_OSD_Charset_109_typeE>:
	...
 80161c0:	0800ca01 0800c9f9 0800d7e9 0800e079     ............y...

080161d0 <_ZTVN12_GLOBAL__N_125font_OSD_Charset_198_typeE>:
	...
 80161d8:	0800d0f5 0800d0ed 0800d685 0800dc4d     ............M...

080161e8 <_ZTVN12_GLOBAL__N_124font_OSD_Charset_81_typeE>:
	...
 80161f0:	0800c7d1 0800c7c9 0800d859 0800e1c9     ........Y.......

08016200 <_ZN12_GLOBAL__N_124font_OSD_Charset_72_type6m_dataE>:
 8016200:	ffffffff ffafffff e5be5bfa 5be5be5b     .........[..[..[
 8016210:	be5be5be e5be5be5 5be5aa5b 555be555     ..[..[..[..[U.[U
 8016220:	e5aa5be5 5be5be5b be5be5be e5be5be5     .[..[..[..[..[..
 8016230:	afe5be5b 0000faff                       [.......

08016238 <_ZN12_GLOBAL__N_125font_OSD_Charset_240_type6m_dataE>:
 8016238:	aaffffff 5555aaaa aaaaaa55 55ffe555     ......UUU...U..U
 8016248:	e555ffe5 ffe555ff 55ffe555 e555ffe5     ..U..U..U..U..U.
 8016258:	ffe555ff 55ffe555 aaaaffe5 555555aa     .U..U..U.....UUU
 8016268:	ffaaaaaa 0000ffff                       ........

08016270 <_ZTVN12_GLOBAL__N_125font_OSD_Charset_170_typeE>:
	...
 8016278:	0800cec5 0800cebd 0800d6f5 0800dd9d     ................

08016288 <_ZN12_GLOBAL__N_125font_OSD_Charset_175_type6m_dataE>:
 8016288:	feffffff feaaffff ffaa95ff 95ffaaa5     ................
 8016298:	fa55ffaa ffe955ff 55ffa555 aa95fea5     ..U..U..U..U....
 80162a8:	feaaaafe aafeaaaa fffafffe ffffffff     ................
 80162b8:	ffffffff 0000ffff                       ........

080162c0 <_ZN12_GLOBAL__N_124font_OSD_Charset_98_type6m_dataE>:
 80162c0:	ffffffff ffffffff ffffffff ffffffff     ................
 80162d0:	aaafffff f9555bfe 5be5555b aa5be5aa     .....[U.[U.[..[.
 80162e0:	f9555be5 5bf9555b aa5be5aa e5555be5     .[U.[U.[..[..[U.
 80162f0:	aff9555b 0000feaa                       [U......

080162f8 <_ZN12_GLOBAL__N_125font_OSD_Charset_207_type6m_dataE>:
 80162f8:	6ffeaabf 556ff955 fe55bff9 fffe55bf     ...oU.oU..U..U..
 8016308:	96ffff96 ffebffff ffffffff ffffffff     ................
 8016318:	ffffffff ffffffff ffffffff ffffffff     ................
 8016328:	ffffffff 0000ffff                       ........

08016330 <_ZN12_GLOBAL__N_124font_OSD_Charset_20_type6m_dataE>:
 8016330:	fef96ff9 6ffff96f fe5bfff9 bffe5bff     .o..o..o..[..[..
 8016340:	e56aff96 fff955ff e5fffe95 fff9ffff     ..j..U..........
 8016350:	fffff9ff f9fffff9 fff9ffff fffff9ff     ................
 8016360:	fefffff9 0000ffff                       ........

08016368 <_ZTVN12_GLOBAL__N_125font_OSD_Charset_223_typeE>:
	...
 8016370:	0800d2e9 0800d2e1 0800d621 0800db21     ........!...!...

08016380 <_ZTVN12_GLOBAL__N_124font_OSD_Charset_35_typeE>:
	...
 8016388:	0800c439 0800c431 0800d911 0800e3f1     9...1...........

08016398 <_ZTVN12_GLOBAL__N_125font_OSD_Charset_205_typeE>:
	...
 80163a0:	0800d181 0800d179 0800d669 0800dbf9     ....y...i.......

080163b0 <_ZTVN12_GLOBAL__N_125font_OSD_Charset_124_typeE>:
	...
 80163b8:	0800cb2d 0800cb25 0800d7ad 0800dfc5     -...%...........

080163c8 <_ZTVN12_GLOBAL__N_124font_OSD_Charset_67_typeE>:
	...
 80163d0:	0800c6b9 0800c6b1 0800d891 0800e271     ............q...

080163e0 <_ZTVN12_GLOBAL__N_125font_OSD_Charset_237_typeE>:
	...
 80163e8:	0800d401 0800d3f9 0800d5e9 0800da79     ............y...

080163f8 <_ZN12_GLOBAL__N_125font_OSD_Charset_141_type6m_dataE>:
 80163f8:	ffffffff ffffffff ffffffff ffffffff     ................
 8016408:	ffffffff ffffffff ebffffff 6f96febf     ...............o
 8016418:	f95a56f9 96f95556 6596f965 f96a96f9     .VZ.VU..e..e..j.
 8016428:	ebf96f96 0000febf                       .o......

08016430 <_ZN12_GLOBAL__N_124font_OSD_Charset_64_type6m_dataE>:
 8016430:	ffffffff ffffffff ffffffff bfffaaff     ................
 8016440:	aa6ffe55 e6ba9bf9 669a65a6 6a669a5a     U.o......e.fZ.fj
 8016450:	9a5a669a e6e665a6 ff9bf9ba e6aa6ffa     .fZ..e.......o..
 8016460:	fff955bf 0000feaa                       .U......

08016468 <_ZN12_GLOBAL__N_125font_OSD_Charset_232_type6m_dataE>:
 8016468:	6ffffebf e55bfff9 ff9696ff 56ff9696     ...o..[........V
 8016478:	9696ff95 ff9696ff fffeabeb 5bfffaaf     ...............[
 8016488:	9596ffe5 ffea96ff aaffe55b 9656ff96     ........[.....V.
 8016498:	ffe55bff 0000faaf                       .[......

080164a0 <_ZTVN12_GLOBAL__N_124font_OSD_Charset_68_typeE>:
	...
 80164a8:	0800c6cd 0800c6c5 0800d88d 0800e265     ............e...

080164b8 <_ZN12_GLOBAL__N_125font_OSD_Charset_167_type6m_dataE>:
 80164b8:	ffffffff faafffff ffe9aaff 55fea555     ............U..U
 80164c8:	a955fa95 faaaa9fa aafaaaaa ffeaffea     ..U.............
 80164d8:	ffffeaff aaffffaa ffabffff ffffffff     ................
 80164e8:	ffffffff 0000ffff                       ........

080164f0 <_ZTVN12_GLOBAL__N_124font_OSD_Charset_50_typeE>:
	...
 80164f8:	0800c565 0800c55d 0800d8d5 0800e33d     e...].......=...

08016508 <_ZTVN12_GLOBAL__N_125font_OSD_Charset_117_typeE>:
	...
 8016510:	0800caa1 0800ca99 0800d7c9 0800e019     ................

08016520 <_ZTVN12_GLOBAL__N_124font_OSD_Charset_23_typeE>:
	...
 8016528:	0800c349 0800c341 0800d941 0800e481     I...A...A.......

08016538 <_ZN12_GLOBAL__N_125font_OSD_Charset_164_type6m_dataE>:
 8016538:	ffffffff ffffffff abebffbf ff5aaaff     ..............Z.
 8016548:	56bf555a 5556bf55 af5555af aaab5555     ZU.VU.VU.UU.UU..
 8016558:	aaaaabaa afaaaaab ffffaaaa ffffffff     ................
 8016568:	ffffffff 0000ffff                       ........

08016570 <_ZTVN12_GLOBAL__N_125font_OSD_Charset_199_typeE>:
	...
 8016578:	0800d109 0800d101 0800d681 0800dc41     ............A...

08016588 <_ZN12_GLOBAL__N_125font_OSD_Charset_197_type6m_dataE>:
 8016588:	ffffffff ffffffff faffafff 5be5be5b     ............[..[
 8016598:	be5be5be e5aa5be5 65a5965a 556a5996     ..[..[..Z..e.YjU
 80165a8:	f9696fa9 6ff9696f aabff969 fffffffe     .oi.oi.oi.......
 80165b8:	ffffffff 0000ffff                       ........

080165c0 <_ZTVN12_GLOBAL__N_124font_OSD_Charset_82_typeE>:
	...
 80165c8:	0800c7e5 0800c7dd 0800d855 0800e1bd     ........U.......

080165d8 <_ZTVN12_GLOBAL__N_125font_OSD_Charset_252_typeE>:
	...
 80165e0:	0800d52d 0800d525 0800d5ad 0800d9c5     -...%...........

080165f0 <_ZN12_GLOBAL__N_123font_OSD_Charset_2_type6m_dataE>:
 80165f0:	56feaaaa 96aafea5 fe96aafe aafea55a     ...V........Z...
 8016600:	96aafe96 fea556fe aaaaaaaa 96bfa956     .....V......V...
 8016610:	9696bfa5 bf9696bf 96bf9696 a596bf96     ................
 8016620:	bfa956bf 0000aaaa                       .V......

08016628 <_ZTVN12_GLOBAL__N_125font_OSD_Charset_171_typeE>:
	...
 8016630:	0800ced9 0800ced1 0800d6f1 0800dd91     ................

08016640 <_ZN12_GLOBAL__N_124font_OSD_Charset_21_type6m_dataE>:
 8016640:	aa955556 ffffaaaa ffffffff ffffffff     VU..............
 8016650:	ffffffff ffffffff ffffffff ffffffff     ................
 8016660:	ffffffff ffffffff ffffffff ffffffff     ................
 8016670:	ffffffff 0000ffff                       ........

08016678 <_ZN12_GLOBAL__N_124font_OSD_Charset_33_type6m_dataE>:
 8016678:	ffffffff 96ffffeb ff96ffff ffff96ff     ................
 8016688:	96ffff96 ff96ffff ffff96ff 96ffff96     ................
 8016698:	ff96ffff ffffebff 96ffffeb ff96ffff     ................
 80166a8:	ffffebff 0000ffff                       ........

080166b0 <_ZN12_GLOBAL__N_125font_OSD_Charset_133_type6m_dataE>:
 80166b0:	5affaaab 5a96ff95 fe5556fe abfe5a96     ...Z...Z.VU..Z..
 80166c0:	f96fffaa fff96fff 6ffea96f 556ff955     ..o..o..o..oU.oU
 80166d0:	eaaabff9 ff9556ff 6bff9556 f96fffe9     .....V..V..k..o.
 80166e0:	fff96fff 0000febf                       .o......

080166e8 <_ZTVN12_GLOBAL__N_124font_OSD_Charset_98_typeE>:
	...
 80166f0:	0800c925 0800c91d 0800d815 0800e0fd     %...............

08016700 <_ZN12_GLOBAL__N_124font_OSD_Charset_56_type6m_dataE>:
 8016700:	ffffffff ffffffff ffffffff ffffffff     ................
 8016710:	aabfffff f9556ffe 5be5555b aa5be5aa     .....oU.[U.[..[.
 8016720:	f9556fe5 5bf9556f aa5be5aa e5555be5     .oU.oU.[..[..[U.
 8016730:	bff9556f 0000feaa                       oU......

08016738 <_ZN12_GLOBAL__N_125font_OSD_Charset_224_type6m_dataE>:
 8016738:	96ffebeb 9556ff96 ff9966ff abfb9aa6     ......V..f......
 8016748:	e55be6ea e69696e6 96fb9696 e55bfb96     ..[...........[.
 8016758:	e6eaabe6 96e6e556 9696fb96 ff9696ff     ....V...........
 8016768:	abffe556 0000fffa                       V.......

08016770 <_ZTVN12_GLOBAL__N_124font_OSD_Charset_36_typeE>:
	...
 8016778:	0800c44d 0800c445 0800d90d 0800e3e5     M...E...........

08016788 <_ZTVN12_GLOBAL__N_125font_OSD_Charset_206_typeE>:
	...
 8016790:	0800d195 0800d18d 0800d665 0800dbed     ........e.......

080167a0 <_ZTVN12_GLOBAL__N_125font_OSD_Charset_125_typeE>:
	...
 80167a8:	0800cb41 0800cb39 0800d7a9 0800dfb9     A...9...........

080167b8 <_ZN12_GLOBAL__N_125font_OSD_Charset_159_type6m_dataE>:
 80167b8:	faffffff fffaffff ffffe9ff 95febfa5     ................
 80167c8:	9655feaa fea555fe 55ffa555 a555ffa5     ..U..U..U..U..U.
 80167d8:	ffa96aff aaffeaaa eaaaffea ffeabfff     .j..............
 80167e8:	ffffffff 0000ffff                       ........

080167f0 <_ZN12_GLOBAL__N_125font_OSD_Charset_111_type6m_dataE>:
 80167f0:	ffffffff ffffffff ffffffff ffffffff     ................
 8016800:	aabfffff f9556ffe 5be5555b be5be5aa     .....oU.[U.[..[.
 8016810:	e5be5be5 5be5be5b aa5be5be e5555be5     .[..[..[..[..[U.
 8016820:	bff9556f 0000feaa                       oU......

08016828 <_ZN12_GLOBAL__N_125font_OSD_Charset_221_type6m_dataE>:
 8016828:	ffffffff ffffffff ffffffff ffffffff     ................
 8016838:	ffffffff ffffffff ffffffff ffffffff     ................
 8016848:	aaabffff ff555bff 5bff555b fe5bffaa     .....[U.[U.[..[.
 8016858:	fffe5bff 0000fe5b                       .[..[...

08016860 <_ZN12_GLOBAL__N_125font_OSD_Charset_156_type6m_dataE>:
 8016860:	ffffffff afffeabf 556affa5 bf555abf     ..........jU.ZU.
 8016870:	aabf556a 6aabff56 ff6aafff abff5abf     jU..V..j..j..Z..
 8016880:	aaaaffaa ffaaaaff ffffaaab ffffffff     ................
 8016890:	ffffffff 0000ffff                       ........

08016898 <_ZTVN12_GLOBAL__N_125font_OSD_Charset_238_typeE>:
	...
 80168a0:	0800d415 0800d40d 0800d5e5 0800da6d     ............m...

080168b0 <_ZTVN12_GLOBAL__N_123font_OSD_Charset_3_typeE>:
	...
 80168b8:	0800c1b9 0800c1b1 0800d991 0800e571     ............q...

080168c8 <_ZTVN12_GLOBAL__N_125font_OSD_Charset_157_typeE>:
	...
 80168d0:	0800cdc1 0800cdb9 0800d729 0800de39     ........)...9...

080168e0 <_ZN12_GLOBAL__N_125font_OSD_Charset_247_type6m_dataE>:
 80168e0:	ffffffff ffffafff 55bfff5a ffa56fff     ........Z..U.o..
 80168f0:	5bffba5b bf96ffbe ffbf96ff 96ffbf96     [..[............
 8016900:	be5bffbf ffba5bff bfffa56f 5affff55     ..[..[..o...U..Z
 8016910:	ffafffff 0000ffff                       ........

08016918 <_ZTVN12_GLOBAL__N_125font_OSD_Charset_210_typeE>:
	...
 8016920:	0800d1e5 0800d1dd 0800d655 0800dbbd     ........U.......

08016930 <_ZTVN12_GLOBAL__N_124font_OSD_Charset_79_typeE>:
	...
 8016938:	0800c7a9 0800c7a1 0800d861 0800e1e1     ........a.......

08016948 <_ZTVN12_GLOBAL__N_125font_OSD_Charset_116_typeE>:
	...
 8016950:	0800ca8d 0800ca85 0800d7cd 0800e025     ............%...

08016960 <_ZTVN12_GLOBAL__N_124font_OSD_Charset_51_typeE>:
	...
 8016968:	0800c579 0800c571 0800d8d1 0800e331     y...q.......1...

08016978 <_ZTVN12_GLOBAL__N_125font_OSD_Charset_221_typeE>:
	...
 8016980:	0800d2c1 0800d2b9 0800d629 0800db39     ........)...9...

08016990 <_ZN12_GLOBAL__N_124font_OSD_Charset_10_type6m_dataE>:
 8016990:	ffffffff ffffffff ffffffff ffffffff     ................
 80169a0:	ffffffff aaaaaaff aa555555 ffffaaaa     ........UUU.....
 80169b0:	ffffffff ffffffff ffffffff ffffffff     ................
 80169c0:	ffffffff 0000ffff                       ........

080169c8 <_ZTVN12_GLOBAL__N_125font_OSD_Charset_251_typeE>:
	...
 80169d0:	0800d519 0800d511 0800d5b1 0800d9d1     ................

080169e0 <_ZN12_GLOBAL__N_125font_OSD_Charset_122_type6m_dataE>:
 80169e0:	ffffffff ffffffff ffffffff ffffffff     ................
 80169f0:	aaafffff e5555bfa afe5555b 5bffe56a     .....[U.[U..j..[
 8016a00:	fe56fff9 6fff95bf a95bffe5 e5555bfa     ..V....o..[..[U.
 8016a10:	afe5555b 0000faaa                       [U......

08016a18 <_ZTVN12_GLOBAL__N_124font_OSD_Charset_83_typeE>:
	...
 8016a20:	0800c7f9 0800c7f1 0800d851 0800e1b1     ........Q.......

08016a30 <_ZN12_GLOBAL__N_124font_OSD_Charset_34_type6m_dataE>:
 8016a30:	bfffffff be6ffeff e5695bf9 bfe5b96f     ......o..[i.o...
 8016a40:	f9bfe6f9 f9be6fe6 fffeffbf ffffffff     .....o..........
 8016a50:	ffffffff ffffffff ffffffff ffffffff     ................
 8016a60:	ffffffff 0000ffff                       ........

08016a68 <_ZN12_GLOBAL__N_124font_OSD_Charset_45_type6m_dataE>:
 8016a68:	ffffffff ffffffff ffffffff ffffffff     ................
 8016a78:	ffffffff ffffffff ffffffff ffffffff     ................
 8016a88:	feaabfff 6ff9556f aabff955 fffffffe     ....oU.oU.......
 8016a98:	ffffffff 0000ffff                       ........

08016aa0 <_ZTVN12_GLOBAL__N_125font_OSD_Charset_172_typeE>:
	...
 8016aa8:	0800ceed 0800cee5 0800d6ed 0800dd85     ................

08016ab8 <_ZN12_GLOBAL__N_125font_OSD_Charset_213_type6m_dataE>:
 8016ab8:	ffffffff ffffffff ffffffff ffffffff     ................
 8016ac8:	ffffffff ffffffff ffffffff ffffffff     ................
 8016ad8:	ffffffff ffffffff ffffffff 56ffffaa     ...............V
 8016ae8:	ffa6ffff 0000e6ff                       ........

08016af0 <_ZN12_GLOBAL__N_125font_OSD_Charset_148_type6m_dataE>:
 8016af0:	ffffffff bfffffff 6abfffaa ff5abfff     ...........j..Z.
 8016b00:	56bf556b 5555af55 af5556af aabfa56a     kU.VU.UU.VU.j...
 8016b10:	aaaaffaa ffaaabff bfffeaaf fffffffe     ................
 8016b20:	ffffffff 0000ffff                       ........

08016b28 <_ZN12_GLOBAL__N_125font_OSD_Charset_210_type6m_dataE>:
 8016b28:	ffffffff ffffffff ffffffff ffffffff     ................
 8016b38:	ffffffff ffffffff ffffffff ffffffff     ................
 8016b48:	ffffffff ffffffff aaaaffff 555555aa     .............UUU
 8016b58:	ffaaaaaa 0000ffff                       ........

08016b60 <_ZN12_GLOBAL__N_125font_OSD_Charset_239_type6m_dataE>:
 8016b60:	aaffffff 5555aaaa aaaaaa55 55f95555     ......UUU...UU.U
 8016b70:	5555f955 f95555f9 55f95555 5555f955     U.UU.UU.UU.UU.UU
 8016b80:	f95555f9 55f95555 aaaaf955 555555aa     .UU.UU.UU....UUU
 8016b90:	ffaaaaaa 0000ffff                       ........

08016b98 <_ZTVN12_GLOBAL__N_124font_OSD_Charset_37_typeE>:
	...
 8016ba0:	0800c461 0800c459 0800d909 0800e3d9     a...Y...........

08016bb0 <_ZTVN12_GLOBAL__N_125font_OSD_Charset_207_typeE>:
	...
 8016bb8:	0800d1a9 0800d1a1 0800d661 0800dbe1     ........a.......

08016bc8 <_ZTVN12_GLOBAL__N_125font_OSD_Charset_108_typeE>:
	...
 8016bd0:	0800c9ed 0800c9e5 0800d7ed 0800e085     ................

08016be0 <_ZTVN12_GLOBAL__N_124font_OSD_Charset_69_typeE>:
	...
 8016be8:	0800c6e1 0800c6d9 0800d889 0800e259     ............Y...

08016bf8 <_ZTVN12_GLOBAL__N_125font_OSD_Charset_239_typeE>:
	...
 8016c00:	0800d429 0800d421 0800d5e1 0800da61     )...!.......a...

08016c10 <_ZTVN12_GLOBAL__N_123font_OSD_Charset_4_typeE>:
	...
 8016c18:	0800c1cd 0800c1c5 0800d98d 0800e565     ............e...

08016c28 <_ZTVN12_GLOBAL__N_125font_OSD_Charset_158_typeE>:
	...
 8016c30:	0800cdd5 0800cdcd 0800d725 0800de2d     ........%...-...

08016c40 <_ZN12_GLOBAL__N_123font_OSD_Charset_9_type6m_dataE>:
 8016c40:	ffffffff ffffffff ffffffff ffffffff     ................
 8016c50:	ffffffff ffffffff aaffffff 5555aaaa     ..............UU
 8016c60:	aaaaaa55 ffffffff ffffffff ffffffff     U...............
 8016c70:	ffffffff 0000ffff                       ........

08016c78 <_ZTVN12_GLOBAL__N_125font_OSD_Charset_211_typeE>:
	...
 8016c80:	0800d1f9 0800d1f1 0800d651 0800dbb1     ........Q.......

08016c90 <_ZN12_GLOBAL__N_125font_OSD_Charset_205_type6m_dataE>:
 8016c90:	fffffeaa ffffffff ffffffff ffffffff     ................
 8016ca0:	ffffffff ffffffff ffffffff ffffffff     ................
 8016cb0:	ffffffff ffffffff ffffffff ffffffff     ................
 8016cc0:	ffffffff 0000ffff                       ........

08016cc8 <_ZN12_GLOBAL__N_124font_OSD_Charset_12_type6m_dataE>:
 8016cc8:	ffffffff ffffffff aaaaaaff aa555555     ............UUU.
 8016cd8:	ffffaaaa ffffffff ffffffff ffffffff     ................
 8016ce8:	ffffffff ffffffff ffffffff ffffffff     ................
 8016cf8:	ffffffff 0000ffff                       ........

08016d00 <_ZN12_GLOBAL__N_123font_OSD_Charset_6_type6m_dataE>:
 8016d00:	ffffffff ffffffff ffffffff ffffffff     ................
 8016d10:	ffffffff ffffffff ffffffff ffffffff     ................
 8016d20:	ffffffff ffffffff ffffffff aaaaaaff     ................
 8016d30:	aa555555 0000aaaa                       UUU.....

08016d38 <_ZN12_GLOBAL__N_124font_OSD_Charset_23_type6m_dataE>:
 8016d38:	56ffeaab 9556ff95 ffea96ff 96fff956     ...V..V.....V...
 8016d48:	9556ffea ff9556ff ffffeaab 56fffaab     ..V..V.........V
 8016d58:	e556ffe5 fffa96ff 96fff956 ff96fffe     ..V.....V.......
 8016d68:	ffff96ff 0000ffeb                       ........

08016d70 <_ZTVN12_GLOBAL__N_125font_OSD_Charset_136_typeE>:
	...
 8016d78:	0800cc1d 0800cc15 0800d77d 0800df35     ........}...5...

08016d88 <_ZTVN12_GLOBAL__N_124font_OSD_Charset_52_typeE>:
	...
 8016d90:	0800c58d 0800c585 0800d8cd 0800e325     ............%...

08016da0 <_ZTVN12_GLOBAL__N_125font_OSD_Charset_222_typeE>:
	...
 8016da8:	0800d2d5 0800d2cd 0800d625 0800db2d     ........%...-...

08016db8 <_ZN12_GLOBAL__N_125font_OSD_Charset_202_type6m_dataE>:
 8016db8:	5bfffe5b 555baaaa 55555b55 ffaaaaab     [..[..[UU[UU....
 8016dc8:	ffffffff ffffffff ffffffff ffffffff     ................
 8016dd8:	ffffffff ffffffff ffffffff ffffffff     ................
 8016de8:	ffffffff 0000ffff                       ........

08016df0 <_ZTVN12_GLOBAL__N_125font_OSD_Charset_141_typeE>:
	...
 8016df8:	0800cc81 0800cc79 0800d769 0800def9     ....y...i.......

08016e08 <_ZN12_GLOBAL__N_125font_OSD_Charset_137_type6m_dataE>:
 8016e08:	5bffeaaf 5a96ff95 fe5556fe ebfe5a96     ...[...Z.VU..Z..
 8016e18:	96ffffaa ff96ffff ffff96ff 96ffff96     ................
 8016e28:	eaaaffff ff9556ff 56ff96a6 e596ffe9     .....V.....V....
 8016e38:	ff9696ff 0000ebeb                       ........

08016e40 <_ZN12_GLOBAL__N_125font_OSD_Charset_179_type6m_dataE>:
 8016e40:	ffffffff ffffffff ffffffff bfffbeff     ................
 8016e50:	556ffe69 e5555bf9 9695a656 a69696e6     i.oU.[U.V.......
 8016e60:	96569696 5696ab96 555b95aa f9556fe5     ..V....V..[U.oU.
 8016e70:	bffe69bf 0000febe                       .i......

08016e78 <_ZTVN12_GLOBAL__N_124font_OSD_Charset_84_typeE>:
	...
 8016e80:	0800c80d 0800c805 0800d84d 0800e1a5     ........M.......

08016e90 <_ZN12_GLOBAL__N_125font_OSD_Charset_228_type6m_dataE>:
 8016e90:	ffffffff faafffff ffe55bff 96fffa96     .........[......
 8016ea0:	fa96ffff 96e55beb afe6faaf e55be6fa     .....[........[.
 8016eb0:	e69696e6 56e69696 9696e695 e6eaabe6     .......V........
 8016ec0:	ff96ffff 0000ebff                       ........

08016ec8 <_ZTVN12_GLOBAL__N_125font_OSD_Charset_173_typeE>:
	...
 8016ed0:	0800cf01 0800cef9 0800d6e9 0800dd79     ............y...

08016ee0 <_ZTVN12_GLOBAL__N_125font_OSD_Charset_164_typeE>:
	...
 8016ee8:	0800ce4d 0800ce45 0800d70d 0800dde5     M...E...........

08016ef8 <_ZTVN12_GLOBAL__N_124font_OSD_Charset_95_typeE>:
	...
 8016f00:	0800c8e9 0800c8e1 0800d821 0800e121     ........!...!...

08016f10 <_ZN12_GLOBAL__N_124font_OSD_Charset_90_type6m_dataE>:
 8016f10:	ffffffff aaafffff e5555bfa afe5555b     .........[U.[U..
 8016f20:	bfffe5aa e56fffe5 fff95bff 95bffe56     ......o..[..V...
 8016f30:	ffe56fff 5bfff95b aa5bfffe e5555bfa     .o..[..[..[..[U.
 8016f40:	afe5555b 0000faaa                       [U......

08016f48 <_ZN12_GLOBAL__N_124font_OSD_Charset_22_type6m_dataE>:
 8016f48:	5bfffaaf 9556ffe5 ff9696ff 96ffeb96     ...[..V.........
 8016f58:	9556ff96 ffe55bff fffffaaf 56fffaab     ..V..[.........V
 8016f68:	9696ffe5 ff9696ff 56ffe556 e596fff9     ........V..V....
 8016f78:	ff9696ff 0000ebeb                       ........

08016f80 <_ZTVN12_GLOBAL__N_124font_OSD_Charset_38_typeE>:
	...
 8016f88:	0800c475 0800c46d 0800d905 0800e3cd     u...m...........

08016f98 <_ZTVN12_GLOBAL__N_125font_OSD_Charset_208_typeE>:
	...
 8016fa0:	0800d1bd 0800d1b5 0800d65d 0800dbd5     ........].......

08016fb0 <_ZN12_GLOBAL__N_125font_OSD_Charset_196_type6m_dataE>:
 8016fb0:	ffffffff ffffffff feaabfff 6ff9556f     ............oU.o
 8016fc0:	a96ff955 fff96ffe 65aa956a a96a5595     U.o..o..j..e.Uj.
 8016fd0:	ffa96faa 6ff9556f aabff955 fffffffe     .o..oU.oU.......
 8016fe0:	ffffffff 0000ffff                       ........

08016fe8 <_ZN12_GLOBAL__N_125font_OSD_Charset_103_type6m_dataE>:
 8016fe8:	ffffffff ffffffff ffffffff ffffffff     ................
 8016ff8:	aabfffff f9556ffe 5be5555b aa5be5a9     .....oU.[U.[..[.
 8017008:	e55a5bfa 5be55a5b a95be5aa e5555be5     .[Z.[Z.[..[..[U.
 8017018:	bff9556f 0000feaa                       oU......

08017020 <_ZTVN12_GLOBAL__N_121font_OSD_Charset_typeE>:
	...
 8017028:	0800d575 0800d579 0800d57d 0800d581     u...y...}.......
 8017038:	0800d589 0800d59d 0800e5a1 00000000     ................

08017048 <_ZTVN12_GLOBAL__N_125font_OSD_Charset_127_typeE>:
	...
 8017050:	0800cb69 0800cb61 0800d7a1 0800dfa1     i...a...........

08017060 <_ZN12_GLOBAL__N_124font_OSD_Charset_26_type6m_dataE>:
 8017060:	aaffffff 5555faaa a55555e9 a59a5555     ......UU.UU.UU..
 8017070:	6aa99a5a 95aaaa95 5695a55a 95569595     Z..j....Z..V..V.
 8017080:	95955695 59959556 5aa5a565 faaaaae9     .V..V..Ye..Z....
 8017090:	ffffffff 0000ffff                       ........

08017098 <_ZTVN12_GLOBAL__N_124font_OSD_Charset_10_typeE>:
	...
 80170a0:	0800c245 0800c23d 0800d975 0800e51d     E...=...u.......

080170b0 <_ZN12_GLOBAL__N_125font_OSD_Charset_190_type6m_dataE>:
 80170b0:	ffffffff ffffffff ffffffff ffffffff     ................
 80170c0:	ffffffff fffeaaff 55fffe55 feaafffe     ........U..U....
 80170d0:	fffeaaff 55fffe55 feaafffe ffffffff     ....U..U........
 80170e0:	ffffffff 0000ffff                       ........

080170e8 <_ZN12_GLOBAL__N_125font_OSD_Charset_100_type6m_dataE>:
 80170e8:	ffffffff ffffffff ffffffff ffffffff     ................
 80170f8:	aaafffff fe555bff 5bf9555b be5be56a     .....[U.[U.[j.[.
 8017108:	e5be5be5 5be5be5b 6a5be5be f9555be5     .[..[..[..[j.[U.
 8017118:	affe555b 0000ffaa                       [U......

08017120 <_ZN12_GLOBAL__N_125font_OSD_Charset_129_type6m_dataE>:
 8017120:	96ffebeb e596ff96 fffa56ff 96ffe596     .........V......
 8017130:	aaabff96 e5656ffa 6fe5996f a96fe599     .....oe.o..o..o.
 8017140:	eaaabfe5 ff97d6ff 56ff9696 9696ff95     ...........V....
 8017150:	ff9696ff 0000ebeb                       ........

08017158 <_ZTVN12_GLOBAL__N_125font_OSD_Charset_159_typeE>:
	...
 8017160:	0800cde9 0800cde1 0800d721 0800de21     ........!...!...

08017170 <_ZTVN12_GLOBAL__N_125font_OSD_Charset_212_typeE>:
	...
 8017178:	0800d20d 0800d205 0800d64d 0800dba5     ........M.......

08017188 <_ZTVN12_GLOBAL__N_125font_OSD_Charset_194_typeE>:
	...
 8017190:	0800d0a5 0800d09d 0800d695 0800dc7d     ............}...

080171a0 <_ZTVN12_GLOBAL__N_125font_OSD_Charset_168_typeE>:
	...
 80171a8:	0800ce9d 0800ce95 0800d6fd 0800ddb5     ................

080171b8 <_ZTVN12_GLOBAL__N_124font_OSD_Charset_53_typeE>:
	...
 80171c0:	0800c5a1 0800c599 0800d8c9 0800e319     ................

080171d0 <_ZN12_GLOBAL__N_124font_OSD_Charset_82_type6m_dataE>:
 80171d0:	ffffffff aaafffff fe555bff 5bf9555b     .........[U.[U.[
 80171e0:	be5be56a e5be5be5 5be56a5b 955bf955     j.[..[..[j.[U.[.
 80171f0:	ff955bfe 5bfe565b 6e5bf95a e5be5be5     .[..[V.[Z.[n.[..
 8017200:	afe5be5b 0000faff                       [.......

08017208 <_ZN12_GLOBAL__N_125font_OSD_Charset_250_type6m_dataE>:
 8017208:	ffffefff 5fffff97 fe6ebffe bbfe696f     ......._..n.oi..
 8017218:	a5a6f969 f9a696f9 96f9a69b a5a6f9a6     i...............
 8017228:	f969bbf9 bffe696f 5ffffe6e ff97fffe     ..i.oi..n.._....
 8017238:	ffffefff 0000ffff                       ........

08017240 <_ZTVN12_GLOBAL__N_125font_OSD_Charset_142_typeE>:
	...
 8017248:	0800cc95 0800cc8d 0800d765 0800deed     ........e.......

08017258 <_ZN12_GLOBAL__N_125font_OSD_Charset_185_type6m_dataE>:
 8017258:	ffffffff ffffffff 95bfffea ffe56fff     .............o..
 8017268:	56fff95b fa95bffe 5be5556f 5aaff955     [..V....oU.[U..Z
 8017278:	ff96fbfe 66ffe5a6 fe56fff9 fff956ff     .......f..V..V..
 8017288:	fffffeab 0000ffff                       ........

08017290 <_ZN12_GLOBAL__N_124font_OSD_Charset_11_type6m_dataE>:
 8017290:	ffffffff ffffffff ffffffff aaffffff     ................
 80172a0:	5555aaaa aaaaaa55 ffffffff ffffffff     ..UUU...........
 80172b0:	ffffffff ffffffff ffffffff ffffffff     ................
 80172c0:	ffffffff 0000ffff                       ........

080172c8 <_ZTVN12_GLOBAL__N_124font_OSD_Charset_85_typeE>:
	...
 80172d0:	0800c821 0800c819 0800d849 0800e199     !.......I.......

080172e0 <_ZTVN12_GLOBAL__N_125font_OSD_Charset_255_typeE>:
	...
 80172e8:	0800d569 0800d561 0800d5a1 0800d9a1     i...a...........

080172f8 <_ZTVN12_GLOBAL__N_125font_OSD_Charset_174_typeE>:
	...
 8017300:	0800cf15 0800cf0d 0800d6e5 0800dd6d     ............m...

08017310 <_ZN12_GLOBAL__N_125font_OSD_Charset_182_type6m_dataE>:
 8017310:	aafeaabf 5556aa55 95aa5695 9696aa96     ....U.VU.V......
 8017320:	aa9696aa 96aa9696 9696aa96 aa9696aa     ................
 8017330:	96aa9696 5696aa96 55569555 95555695     .......VU.VU.VU.
 8017340:	aa955556 0000aaaa                       VU......

08017348 <_ZTVN12_GLOBAL__N_124font_OSD_Charset_96_typeE>:
	...
 8017350:	0800c8fd 0800c8f5 0800d81d 0800e115     ................

08017360 <_ZN12_GLOBAL__N_124font_OSD_Charset_15_type6m_dataE>:
 8017360:	a9ebfa56 9aa996e5 e96aa996 a5f96aa5     V.........j..j..
 8017370:	a696e69a 9aa95b9a 5b6aa95b 55af6aa5     .....[..[.j[.j.U
 8017380:	9559bf6a bfeaa9bf e56ffff9 ff955bff     j.Y.......o..[..
 8017390:	aafa5556 0000eaaa                       VU......

08017398 <_ZN12_GLOBAL__N_125font_OSD_Charset_118_type6m_dataE>:
 8017398:	ffffffff ffffffff ffffffff ffffffff     ................
 80173a8:	ffafffff e5be5bfa 5be5be5b be5be5be     .....[..[..[..[.
 80173b8:	e5be5be5 5be5be5b 556fe569 fe55bff9     .[..[..[i.oU..U.
 80173c8:	ffff96ff 0000ffeb                       ........

080173d0 <_ZTVN12_GLOBAL__N_124font_OSD_Charset_39_typeE>:
	...
 80173d8:	0800c489 0800c481 0800d901 0800e3c1     ................

080173e8 <_ZTVN12_GLOBAL__N_125font_OSD_Charset_209_typeE>:
	...
 80173f0:	0800d1d1 0800d1c9 0800d659 0800dbc9     ........Y.......

08017400 <_ZTVN12_GLOBAL__N_125font_OSD_Charset_128_typeE>:
	...
 8017408:	0800cb7d 0800cb75 0800d79d 0800df95     }...u...........

08017418 <_ZTVN12_GLOBAL__N_124font_OSD_Charset_11_typeE>:
	...
 8017420:	0800c259 0800c251 0800d971 0800e511     Y...Q...q.......

08017430 <_ZTVN12_GLOBAL__N_125font_OSD_Charset_100_typeE>:
	...
 8017438:	0800c94d 0800c945 0800d80d 0800e0e5     M...E...........

08017448 <_ZTVN12_GLOBAL__N_123font_OSD_Charset_6_typeE>:
	...
 8017450:	0800c1f5 0800c1ed 0800d985 0800e54d     ............M...

08017460 <_ZN12_GLOBAL__N_125font_OSD_Charset_177_type6m_dataE>:
 8017460:	ffffffff 96ffffeb fe55bfff bff9556f     ..........U.oU..
 8017470:	96fffe96 ff96ffff ffff96ff 96ffff96     ................
 8017480:	ff96ffff 6ffe96bf 55bff955 ff96fffe     .......oU..U....
 8017490:	ffffebff 0000ffff                       ........

08017498 <_ZN12_GLOBAL__N_125font_OSD_Charset_174_type6m_dataE>:
 8017498:	ffffffff afffaabf 55abff56 bf556aff     ........V..U.jU.
 80174a8:	aaaf56aa 5aaaaf56 af5aaaaf ffff6aff     .V..V..Z..Z..j..
 80174b8:	abffffaa ffabffff ffffafff ffffffbf     ................
 80174c8:	ffffffff 0000ffff                       ........

080174d0 <_ZN12_GLOBAL__N_125font_OSD_Charset_114_type6m_dataE>:
 80174d0:	ffffffff ffffffff ffffffff ffffffff     ................
 80174e0:	aaafffff f9555bfe 5be5555b aa5be5aa     .....[U.[U.[..[.
 80174f0:	f9555be5 5bfe955b 5a5bfe56 e56e5bf9     .[U.[..[V.[Z.[n.
 8017500:	afe5be5b 0000faff                       [.......

08017508 <_ZN12_GLOBAL__N_124font_OSD_Charset_97_type6m_dataE>:
 8017508:	ffffffff ffffffff ffffffff ffffffff     ................
 8017518:	aaffffff fe55bfff 5bf9556f aa5be569     ......U.oU.[i.[.
 8017528:	e5aa5be5 5be5555b aa5be555 e5be5be5     .[..[U.[U.[..[..
 8017538:	afe5be5b 0000faff                       [.......

08017540 <_ZTVN12_GLOBAL__N_124font_OSD_Charset_54_typeE>:
	...
 8017548:	0800c5b5 0800c5ad 0800d8c5 0800e30d     ................

08017558 <_ZTVN12_GLOBAL__N_125font_OSD_Charset_224_typeE>:
	...
 8017560:	0800d2fd 0800d2f5 0800d61d 0800db15     ................

08017570 <_ZN12_GLOBAL__N_125font_OSD_Charset_171_type6m_dataE>:
 8017570:	faffffff ffeaffff ffffeaff 55ffaaa9     ...............U
 8017580:	5555faa5 fa9555fa aafe956a aaaafeaa     ..UU.U..j.......
 8017590:	ffaaabfe ffffaaff ffffffff ffffffff     ................
 80175a0:	ffffffff 0000ffff                       ........

080175a8 <_ZN12_GLOBAL__N_125font_OSD_Charset_186_type6m_dataE>:
 80175a8:	abffffff 555baaaa 55555b55 5baaaa5b     ......[UU[UU[..[
 80175b8:	5a5beaaa e55a5be5 5beaaa5b fe5bfffe     ..[Z.[Z.[..[..[.
 80175c8:	fffe5bff 5bfffe5b fe5bfffe fffe5bff     .[..[..[..[..[..
 80175d8:	5bfffe5b 0000fffe                       [..[....

080175e0 <_ZTVN12_GLOBAL__N_124font_OSD_Charset_86_typeE>:
	...
 80175e8:	0800c835 0800c82d 0800d845 0800e18d     5...-...E.......

080175f8 <_ZTVN12_GLOBAL__N_125font_OSD_Charset_175_typeE>:
	...
 8017600:	0800cf29 0800cf21 0800d6e1 0800dd61     )...!.......a...

08017610 <_ZTVN12_GLOBAL__N_125font_OSD_Charset_183_typeE>:
	...
 8017618:	0800cfc9 0800cfc1 0800d6c1 0800dd01     ................

08017628 <_ZN12_GLOBAL__N_124font_OSD_Charset_43_type6m_dataE>:
 8017628:	ffffffff ffffffff ffffffff ffffffff     ................
 8017638:	ffffffff ffffffff ffffffff 96ffffeb     ................
 8017648:	fe96bfff 6ff9556f 96bff955 ff96fffe     ....oU.oU.......
 8017658:	ffffebff 0000ffff                       ........

08017660 <_ZN12_GLOBAL__N_125font_OSD_Charset_169_type6m_dataE>:
 8017660:	ffffffff ffffffff ffaaaaff 55fe9555     ............U..U
 8017670:	9555fe95 fa9555fe aafaaaaa aaaafaaa     ..U..U..........
 8017680:	fffffffa ffffffff ffffffff ffffffff     ................
 8017690:	ffffffff 0000ffff                       ........

08017698 <_ZN12_GLOBAL__N_125font_OSD_Charset_231_type6m_dataE>:
 8017698:	96ffeaab 9696ff96 ff9696ff 96ff9556     ............V...
 80176a8:	9696ff96 ff9696ff ffffebeb 6ffffebf     ...............o
 80176b8:	e55bfff9 ff9696ff 56ff9696 9696ff95     ..[........V....
 80176c8:	ff9696ff 0000ebeb                       ........

080176d0 <_ZN12_GLOBAL__N_125font_OSD_Charset_166_type6m_dataE>:
 80176d0:	ffffffff bfffffff aaabfffe bf6a6aff     .............jj.
 80176e0:	55af5556 55556a55 aa9555aa aaaa95aa     VU.UUjUU.U......
 80176f0:	aaaaafaa ffaaabff ffffabff ffffffff     ................
 8017700:	ffffffff 0000ffff                       ........

08017708 <_ZN12_GLOBAL__N_124font_OSD_Charset_89_type6m_dataE>:
 8017708:	ffffffff ffafffff e5be5bfa 5be5be5b     .........[..[..[
 8017718:	be5be5be e5be5be5 6fe5695b 55bff955     ..[..[..[i.oU..U
 8017728:	ff96fffe ffff96ff 96ffff96 ff96ffff     ................
 8017738:	ffff96ff 0000ffeb                       ........

08017740 <_ZTVN12_GLOBAL__N_124font_OSD_Charset_12_typeE>:
	...
 8017748:	0800c26d 0800c265 0800d96d 0800e505     m...e...m.......

08017758 <_ZN12_GLOBAL__N_125font_OSD_Charset_163_type6m_dataE>:
 8017758:	faffffff faaaffff ffe955ff 95ffea55     .........U..U...
 8017768:	fa95fffa fffaa5ff 55feaa95 aaa9faaa     ...........U....
 8017778:	feaaaafa eafffaaa ffffffff ffffffff     ................
 8017788:	ffffffff 0000ffff                       ........

08017790 <_ZTVN12_GLOBAL__N_125font_OSD_Charset_101_typeE>:
	...
 8017798:	0800c961 0800c959 0800d809 0800e0d9     a...Y...........

080177a8 <_ZTVN12_GLOBAL__N_125font_OSD_Charset_190_typeE>:
	...
 80177b0:	0800d055 0800d04d 0800d6a5 0800dcad     U...M...........

080177c0 <_ZN12_GLOBAL__N_124font_OSD_Charset_86_type6m_dataE>:
 80177c0:	ffffffff ffafffff e5be5bfa 5be5be5b     .........[..[..[
 80177d0:	be5be5be e5be5be5 5be5be5b be5be5be     ..[..[..[..[..[.
 80177e0:	e5be5be5 6fe5695b 556ff969 fe55bff9     .[..[i.oi.oU..U.
 80177f0:	ffff96ff 0000ffeb                       ........

080177f8 <_ZN12_GLOBAL__N_125font_OSD_Charset_254_type6m_dataE>:
 80177f8:	ffffffff ffffffff ffffffff ffffffff     ................
 8017808:	ffffffff efefabff a69b9a56 99a69659     ........V...Y...
 8017818:	9999a699 a69a9a56 9be69b9b 9b9be69b     ....V...........
 8017828:	fb9b9be6 0000efef                       ........

08017830 <_ZTVN12_GLOBAL__N_124font_OSD_Charset_55_typeE>:
	...
 8017838:	0800c5c9 0800c5c1 0800d8c1 0800e301     ................

08017848 <_ZTVN12_GLOBAL__N_125font_OSD_Charset_144_typeE>:
	...
 8017850:	0800ccbd 0800ccb5 0800d75d 0800ded5     ........].......

08017860 <_ZTVN12_GLOBAL__N_124font_OSD_Charset_61_typeE>:
	...
 8017868:	0800c641 0800c639 0800d8a9 0800e2b9     A...9...........

08017878 <_ZN12_GLOBAL__N_125font_OSD_Charset_199_type6m_dataE>:
 8017878:	ffffffff ffffffff ffffffff ffffffff     ................
 8017888:	ffffffff ffffffff 95aaffea 6e5a55bf     .............UZn
 8017898:	fe596fa9 ffff95bf fbffffe6 ffffffff     .oY.............
 80178a8:	ffffffff 0000ffff                       ........

080178b0 <_ZN12_GLOBAL__N_125font_OSD_Charset_158_type6m_dataE>:
 80178b0:	ffffffff afffafff 556bffaa ff55abff     ..........kU..U.
 80178c0:	afff56af 5aafff56 af56aabf aaaf55aa     .V..V..Z..V..U..
 80178d0:	aaaabf6a ffaaafff ffffabff ffffffff     j...............
 80178e0:	ffffffff 0000ffff                       ........

080178e8 <_ZN12_GLOBAL__N_125font_OSD_Charset_220_type6m_dataE>:
 80178e8:	fffe5bff 5bfffe5b aa5bfffe ff555bff     .[..[..[..[..[U.
 80178f8:	abff555b ffffffaa ffffffff ffffffff     [U..............
 8017908:	ffffffff ffffffff ffffffff ffffffff     ................
 8017918:	ffffffff 0000ffff                       ........

08017920 <_ZN12_GLOBAL__N_125font_OSD_Charset_249_type6m_dataE>:
 8017920:	ffebffff bfff96ff 996fff95 569a5aab     ..........o..Z.V
 8017930:	e5a69b95 9be5a69b a69be5a6 e5a69be5     ................
 8017940:	9b95569b ff9a5aab bfff996f 96ffff95     .V...Z..o.......
 8017950:	ffebffff 0000ffff                       ........

08017958 <_ZN12_GLOBAL__N_125font_OSD_Charset_155_type6m_dataE>:
 8017958:	ffffffff febfffff ffeaaaff 55ffa9a9     ...............U
 8017968:	5555fe95 a95555fa 56aa5556 aaaaaaaa     ..UU.UU.VU.V....
 8017978:	faaaaaaa eaffeaaa ffffffff ffffffff     ................
 8017988:	ffffffff 0000ffff                       ........

08017990 <_ZN12_GLOBAL__N_124font_OSD_Charset_78_type6m_dataE>:
 8017990:	ffffffff ffafffff e5be5bfa 5be5be5b     .........[..[..[
 80179a0:	b95be5be e5b95be5 5be5a55b 565be595     ..[..[..[..[..[V
 80179b0:	e55a5be5 5be56e5b be5be56e e5be5be5     .[Z.[n.[n.[..[..
 80179c0:	afe5be5b 0000faff                       [.......

080179c8 <_ZN12_GLOBAL__N_124font_OSD_Charset_51_type6m_dataE>:
 80179c8:	ffffffff ffffffff ffffffff ffffffff     ................
 80179d8:	aaafffff f9555bfe afe5555b aaffe5aa     .....[U.[U......
 80179e8:	f955bfe5 fff955bf aaafe5aa e5555be5     ..U..U.......[U.
 80179f8:	aff9555b 0000feaa                       [U......

08017a00 <_ZN12_GLOBAL__N_125font_OSD_Charset_246_type6m_dataE>:
 8017a00:	f9fffffe faf9ffff ffe5baff 95ffe5a5     ................
 8017a10:	fe5afffa ffa96fff 6ffe596f a96ffe59     ..Z..o..oY.oY.o.
 8017a20:	fffe5aff a5fffa95 e5baffe5 fffaf9ff     .Z..............
 8017a30:	fefffff9 0000ffff                       ........

08017a38 <_ZTVN12_GLOBAL__N_125font_OSD_Charset_187_typeE>:
	...
 8017a40:	0800d019 0800d011 0800d6b1 0800dcd1     ................

08017a50 <_ZN12_GLOBAL__N_125font_OSD_Charset_152_type6m_dataE>:
 8017a50:	ffffffff ffffffff aaaaffff bf5556bf     .............VU.
 8017a60:	56bf5556 5556af55 afaaaaaf aaafaaaa     VU.VU.VU........
 8017a70:	ffffffaa ffffffff ffffffff ffffffff     ................
 8017a80:	ffffffff 0000ffff                       ........

08017a88 <_ZTVN12_GLOBAL__N_124font_OSD_Charset_70_typeE>:
	...
 8017a90:	0800c6f5 0800c6ed 0800d885 0800e24d     ............M...

08017aa0 <_ZTVN12_GLOBAL__N_125font_OSD_Charset_240_typeE>:
	...
 8017aa8:	0800d43d 0800d435 0800d5dd 0800da55     =...5.......U...

08017ab8 <_ZN12_GLOBAL__N_124font_OSD_Charset_63_type6m_dataE>:
 8017ab8:	ffffffff aabfffff f9556ffe 56e5555b     .........oU.[U.V
 8017ac8:	ff9695aa 96ffeb96 ff95bfff 5bffe56f     ............o..[
 8017ad8:	fe56fff9 ffff96ff ebffffeb ff96ffff     ..V.............
 8017ae8:	ffff96ff 0000ffeb                       ........

08017af0 <_ZTVN12_GLOBAL__N_125font_OSD_Charset_146_typeE>:
	...
 8017af8:	0800cce5 0800ccdd 0800d755 0800debd     ........U.......

08017b08 <_ZTVN12_GLOBAL__N_125font_OSD_Charset_102_typeE>:
	...
 8017b10:	0800c975 0800c96d 0800d805 0800e0cd     u...m...........

08017b20 <_ZTVN12_GLOBAL__N_125font_OSD_Charset_191_typeE>:
	...
 8017b28:	0800d069 0800d061 0800d6a1 0800dca1     i...a...........

08017b38 <_ZN12_GLOBAL__N_125font_OSD_Charset_121_type6m_dataE>:
 8017b38:	ffffffff ffffffff ffffffff ffffffff     ................
 8017b48:	ffafffff e5be5bfa 5be5be5b 695be5be     .....[..[..[..[i
 8017b58:	f9556fe5 fffe55bf 96ffff96 ff96ffff     .oU..U..........
 8017b68:	ffff96ff 0000ffeb                       ........

08017b70 <_ZTVN12_GLOBAL__N_123font_OSD_Charset_8_typeE>:
	...
 8017b78:	0800c21d 0800c215 0800d97d 0800e535     ........}...5...

08017b88 <_ZN12_GLOBAL__N_124font_OSD_Charset_44_type6m_dataE>:
 8017b88:	ffffffff ffffffff ffffffff ffffffff     ................
 8017b98:	ffffffff ffffffff ffffffff ffffffff     ................
 8017ba8:	ffffffff ffffebff 96ffff96 ffe5bfff     ................
 8017bb8:	bffff96f 0000fffe                       o.......

08017bc0 <_ZTVN12_GLOBAL__N_124font_OSD_Charset_24_typeE>:
	...
 8017bc8:	0800c35d 0800c355 0800d93d 0800e475     ]...U...=...u...

08017bd8 <_ZTVN12_GLOBAL__N_125font_OSD_Charset_113_typeE>:
	...
 8017be0:	0800ca51 0800ca49 0800d7d9 0800e049     Q...I.......I...

08017bf0 <_ZN12_GLOBAL__N_125font_OSD_Charset_147_type6m_dataE>:
 8017bf0:	aaffffff fa95fffe ffea55ff 95ffa955     .........U..U...
 8017c00:	aa95feaa faaaa5fa a9faaaa5 ffaafaff     ................
 8017c10:	ffffeaff faffffea fffeffff ffffffff     ................
 8017c20:	ffffffff 0000ffff                       ........

08017c28 <_ZTVN12_GLOBAL__N_124font_OSD_Charset_56_typeE>:
	...
 8017c30:	0800c5dd 0800c5d5 0800d8bd 0800e2f5     ................

08017c40 <_ZN12_GLOBAL__N_125font_OSD_Charset_238_type6m_dataE>:
 8017c40:	aaffffff 5555aaaa aaaaaa55 55555555     ......UUU...UUUU
 8017c50:	55555555 55555555 55555555 55555555     UUUUUUUUUUUUUUUU
 8017c60:	55555555 55555555 aaaa5555 555555aa     UUUUUUUUUU...UUU
 8017c70:	ffaaaaaa 0000ffff                       ........

08017c78 <_ZTVN12_GLOBAL__N_125font_OSD_Charset_145_typeE>:
	...
 8017c80:	0800ccd1 0800ccc9 0800d759 0800dec9     ........Y.......

08017c90 <_ZN12_GLOBAL__N_125font_OSD_Charset_144_type6m_dataE>:
 8017c90:	ffbfffff bfffabff 556bff5a af55aabf     ........Z.kU..U.
 8017ca0:	aaaf55aa 55aabf55 ff55afff afff55af     .U..U..U..U..U..
 8017cb0:	aaafff55 ffaaafff bfffaaaf ffffffaa     U...............
 8017cc0:	ffffffff 0000ffff                       ........

08017cc8 <_ZN12_GLOBAL__N_1L27font_OSD_Charset_char_arrayE>:
 8017cc8:	10000914 10000940 10000964 10000988     ....@...d.......
 8017cd8:	100009b4 100009d4 100009f8 10000938     ............8...
 8017ce8:	10000980 10000a6c 10000a1c 10000a4c     ....l.......L...
 8017cf8:	10000a68 10000a8c 10000aa8 10000ac8     h...............
 8017d08:	10000aec 10000a18 10000b20 10000b40     ........ ...@...
 8017d18:	10000af0 10000a40 10000ac4 10000878     ....@.......x...
 8017d28:	10000b5c 10000b78 10000b94 10000bb4     \...x...........
 8017d38:	10000bd4 10000bfc 10000b98 10000bb8     ................
 8017d48:	10000bd8 10000c00 10000c20 10000acc     ........ .......
 8017d58:	10000c60 1000087c 100008a0 100008c8     `...|...........
 8017d68:	10000c64 10000884 100008a4 100008d0     d...............
 8017d78:	10000c04 10000910 10000880 10000960     ............`...
 8017d88:	10000984 100009b0 10000944 10000968     ........D...h...
 8017d98:	1000098c 100009b8 100009d8 100009fc     ................
 8017da8:	10000a20 10000a50 10000a70 10000a90      ...P...p.......
 8017db8:	10000a24 10000a54 10000ae4 10000a94     $...T...........
 8017dc8:	10000aac 10000ad0 10000af4 10000b08     ................
 8017dd8:	10000c48 10000b44 10000af8 10000b0c     H...D...........
 8017de8:	10000b24 10000b48 10000b60 10000b7c     $...H...`...|...
 8017df8:	10000978 10000bbc 10000bdc 10000c08     x...............
 8017e08:	10000ba0 10000bc0 10000be4 10000c0c     ................
 8017e18:	10000c28 10000c44 10000c6c 1000088c     (...D...l.......
 8017e28:	100008ac 100008d8 1000086c 10000890     ........l.......
 8017e38:	100008b4 100008e0 10000c1c 10000920     ............ ...
 8017e48:	1000094c 10000970 10000994 100009c0     L...p...........
 8017e58:	10000be0 10000c58 10000c24 10000c40     ....X...$...@...
 8017e68:	10000c68 10000888 100008a8 100008d4     h...............
 8017e78:	100008f8 10000918 100008b0 100008dc     ................
 8017e88:	100008fc 1000091c 10000948 1000096c     ........H...l...
 8017e98:	10000990 100009bc 100009dc 10000a00     ................
 8017ea8:	1000099c 100009c4 100009e0 10000a08     ................
 8017eb8:	10000a2c 1000089c 10000a74 10000a98     ,.......t.......
 8017ec8:	10000ab0 10000ad4 100008f4 1000093c     ............<...
 8017ed8:	10000a48 10000adc 10000b00 10000b14     H...............
 8017ee8:	10000b2c 10000b4c 10000b64 10000b80     ,...L...d.......
 8017ef8:	10000b34 10000b54 10000b68 10000b88     4...T...h.......
 8017f08:	10000ba8 10000bc8 10000bec 10000c10     ................
 8017f18:	10000c30 100008f0 10000bf4 10000c14     0...............
 8017f28:	10000c38 10000c50 10000870 10000998     8...P...p.......
 8017f38:	100008bc 100008e4 10000900 10000924     ............$...
 8017f48:	100009f0 100008ec 1000090c 1000092c     ............,...
 8017f58:	10000954 10000974 100009a4 100009c8     T...t...........
 8017f68:	10000a28 10000c2c 100009ac 100009d0     (...,...........
 8017f78:	10000a44 10000a10 10000a38 10000a60     D.......8...`...
 8017f88:	10000a84 10000aa4 10000ab8 100009e8     ................
 8017f98:	10000930 10000958 10000ac0 10000ae8     0...X...........
 8017fa8:	1000095c 10000b1c 10000b38 10000b04     \.......8.......
 8017fb8:	10000b6c 10000b8c 10000b3c 10000b58     l.......<...X...
 8017fc8:	10000b70 10000b90 10000bb0 10000bd0     p...............
 8017fd8:	10000bf8 10000c18 10000c3c 10000a9c     ........<.......
 8017fe8:	10000a0c 10000a30 10000a58 10000a7c     ....0...X...|...
 8017ff8:	10000aa0 10000ab4 10000ad8 10000afc     ................
 8018008:	10000b10 10000b28 10000ae0 10000a78     ....(.......x...
 8018018:	10000b18 10000b30 10000b50 10000b9c     ....0...P.......
 8018028:	10000b84 10000ba4 10000bc4 10000be8     ................
 8018038:	10000c5c 10000bac 10000bcc 10000bf0     \...............
 8018048:	10000904 10000c34 10000c4c 100009e4     ....4...L.......
 8018058:	10000894 100008b8 10000c54 10000874     ........T...t...
 8018068:	10000898 100008c0 100008e8 10000908     ................
 8018078:	10000928 10000950 10000a14 100009a0     (...P...........
 8018088:	10000934 10000b74 1000097c 100009a8     4...t...|.......
 8018098:	100009cc 100009ec 100008c4 10000a34     ............4...
 80180a8:	10000a5c 10000a80 100008cc 10000a3c     \...........<...
 80180b8:	10000a64 10000a88 100009f4 10000abc     d...............

080180c8 <_ZN12_GLOBAL__N_124font_OSD_Charset_67_type6m_dataE>:
 80180c8:	ffffffff aaffffff fe55bfff 5bf9556f     ..........U.oU.[
 80180d8:	be5be569 fafe5be5 5bfffe5b fe5bfffe     i.[..[..[..[..[.
 80180e8:	fffe5bff 5bfafe5b 695be5be f9556fe5     .[..[..[..[i.oU.
 80180f8:	fffe55bf 0000ffaa                       .U......

08018100 <_ZN12_GLOBAL__N_125font_OSD_Charset_235_type6m_dataE>:
 8018100:	ffffffff ffffffff faaaafff 56e5555b     ............[U.V
 8018110:	aa9695aa 9aaaa696 a69aaaa6 aaa69aaa     ................
 8018120:	96aa969a 5b95aa56 aaafe555 fffffffa     ....V..[U.......
 8018130:	ffffffff 0000ffff                       ........

08018138 <_ZTVN12_GLOBAL__N_125font_OSD_Charset_215_typeE>:
	...
 8018140:	0800d249 0800d241 0800d641 0800db81     I...A...A.......

08018150 <_ZTVN12_GLOBAL__N_125font_OSD_Charset_105_typeE>:
	...
 8018158:	0800c9b1 0800c9a9 0800d7f9 0800e0a9     ................

08018168 <_ZN12_GLOBAL__N_124font_OSD_Charset_52_type6m_dataE>:
 8018168:	ffffffff ffffffff ffffffff ffffffff     ................
 8018178:	afffffff f95bfffe bff956ff 696ff965     ......[..V..e.oi
 8018188:	f96a5bf9 5be5555b 6aafe555 f96ffff9     .[j.[U.[U..j..o.
 8018198:	fff96fff 0000febf                       .o......

080181a0 <_ZTVN12_GLOBAL__N_125font_OSD_Charset_177_typeE>:
	...
 80181a8:	0800cf51 0800cf49 0800d6d9 0800dd49     Q...I.......I...

080181b8 <_ZTVN12_GLOBAL__N_124font_OSD_Charset_99_typeE>:
	...
 80181c0:	0800c939 0800c931 0800d811 0800e0f1     9...1...........

080181d0 <_ZN12_GLOBAL__N_123font_OSD_Charset_8_type6m_dataE>:
 80181d0:	ffffffff ffffffff ffffffff ffffffff     ................
 80181e0:	ffffffff ffffffff ffffffff ffffffff     ................
 80181f0:	aaaaaaff aa555555 ffffaaaa ffffffff     ....UUU.........
 8018200:	ffffffff 0000ffff                       ........

08018208 <_ZTVN12_GLOBAL__N_125font_OSD_Charset_188_typeE>:
	...
 8018210:	0800d02d 0800d025 0800d6ad 0800dcc5     -...%...........

08018220 <_ZTVN12_GLOBAL__N_124font_OSD_Charset_71_typeE>:
	...
 8018228:	0800c709 0800c701 0800d881 0800e241     ............A...

08018238 <_ZN12_GLOBAL__N_125font_OSD_Charset_117_type6m_dataE>:
 8018238:	ffffffff ffffffff ffffffff ffffffff     ................
 8018248:	ffafffff e5be5bfa 5be5be5b be5be5be     .....[..[..[..[.
 8018258:	e5be5be5 5be5be5b aa5be5be e5555be5     .[..[..[..[..[U.
 8018268:	bff9556f 0000feaa                       oU......

08018270 <_ZN12_GLOBAL__N_123font_OSD_Charset_5_type6m_dataE>:
 8018270:	ffffffff ffffffff ffffffff ffffffff     ................
 8018280:	ffffffff ffffffff ffffffff ffffffff     ................
 8018290:	ffffffff ffffffff ffffffff ffffffff     ................
 80182a0:	56aaaaaa 00009555                       ...VU...

080182a8 <_ZN12_GLOBAL__N_125font_OSD_Charset_139_type6m_dataE>:
 80182a8:	ffffffff ffffffff ffffffff ffffffff     ................
 80182b8:	ffffffff ffffffff ffffffff ffffffff     ................
 80182c8:	ffffffff ffffffff ffffffff ffffffff     ................
 80182d8:	ffffffff 0000ffff                       ........

080182e0 <_ZN12_GLOBAL__N_125font_OSD_Charset_201_type6m_dataE>:
 80182e0:	ffffffff eaffffff ff95bfff ffffeaff     ................
 80182f0:	ffffffff ffffffff ffffffff ffffffff     ................
 8018300:	ffeaaaff aaff9555 ffffffea ffffffff     ....U...........
 8018310:	ffffffff 0000ffff                       ........

08018318 <_ZTVN12_GLOBAL__N_124font_OSD_Charset_14_typeE>:
	...
 8018320:	0800c295 0800c28d 0800d965 0800e4ed     ........e.......

08018330 <_ZTVN12_GLOBAL__N_124font_OSD_Charset_13_typeE>:
	...
 8018338:	0800c281 0800c279 0800d969 0800e4f9     ....y...i.......

08018348 <_ZTVN12_GLOBAL__N_125font_OSD_Charset_103_typeE>:
	...
 8018350:	0800c989 0800c981 0800d801 0800e0c1     ................

08018360 <_ZTVN12_GLOBAL__N_125font_OSD_Charset_192_typeE>:
	...
 8018368:	0800d07d 0800d075 0800d69d 0800dc95     }...u...........

08018378 <_ZTVN12_GLOBAL__N_125font_OSD_Charset_219_typeE>:
	...
 8018380:	0800d299 0800d291 0800d631 0800db51     ........1...Q...

08018390 <_ZN12_GLOBAL__N_124font_OSD_Charset_59_type6m_dataE>:
 8018390:	ffffffff ffffffff ffffffff ffffffff     ................
 80183a0:	ffffffff ffebffff ffff96ff ebffff96     ................
 80183b0:	ffffffff ffffffff 96ffffeb ff96ffff     ................
 80183c0:	ffffe5bf 0000fffa                       ........

080183c8 <_ZTVN12_GLOBAL__N_123font_OSD_Charset_9_typeE>:
	...
 80183d0:	0800c231 0800c229 0800d979 0800e529     1...)...y...)...

080183e0 <_ZN12_GLOBAL__N_125font_OSD_Charset_227_type6m_dataE>:
 80183e0:	ffffffff ebebffff ff9696ff 96ff9696     ................
 80183f0:	e55bff96 96f96feb abe6febf e556e6fa     ..[..o........V.
 8018400:	e69696e6 96e6a956 e556e696 e6faabe6     ....V.....V.....
 8018410:	ff96ffff 0000ebff                       ........

08018418 <_ZTVN12_GLOBAL__N_124font_OSD_Charset_25_typeE>:
	...
 8018420:	0800c371 0800c369 0800d939 0800e469     q...i...9...i...

08018430 <_ZTVN12_GLOBAL__N_125font_OSD_Charset_114_typeE>:
	...
 8018438:	0800ca65 0800ca5d 0800d7d5 0800e03d     e...].......=...

08018448 <_ZN12_GLOBAL__N_125font_OSD_Charset_187_type6m_dataE>:
 8018448:	aaffffff 5555aaaa 55555555 ffaaaaaa     ......UUUUUU....
 8018458:	ffffffff ffaaffff 6ffe55bf aa5bf955     .........U.oU.[.
 8018468:	96ff96e5 9696ff96 ff9696ff e5aa5b96     .............[..
 8018478:	bff9556f 0000fe55                       oU..U...

08018480 <_ZTVN12_GLOBAL__N_124font_OSD_Charset_57_typeE>:
	...
 8018488:	0800c5f1 0800c5e9 0800d8b9 0800e2e9     ................

08018498 <_ZTVN12_GLOBAL__N_125font_OSD_Charset_227_typeE>:
	...
 80184a0:	0800d339 0800d331 0800d611 0800daf1     9...1...........

080184b0 <_ZTVN12_GLOBAL__N_125font_OSD_Charset_176_typeE>:
	...
 80184b8:	0800cf3d 0800cf35 0800d6dd 0800dd55     =...5.......U...

080184c8 <_ZN12_GLOBAL__N_124font_OSD_Charset_53_type6m_dataE>:
 80184c8:	ffffffff ffffffff ffffffff ffffffff     ................
 80184d8:	aaafffff e5555bfa 5be5555b 555bfaaa     .....[U.[U.[..[U
 80184e8:	e5555bf9 afe5aaaf aa5be5bf e5555be5     .[U.......[..[U.
 80184f8:	bff9556b 0000feaa                       kU......

08018500 <_ZN12_GLOBAL__N_125font_OSD_Charset_192_type6m_dataE>:
 8018500:	ffffffff ffffffff ffffffff ffffffff     ................
 8018510:	ffffffff ffffffff 55aaaaaa aaaa5555     ...........UUU..
 8018520:	ffffffaa ffffffff ffffffff ffffffff     ................
 8018530:	ffffffff 0000ffff                       ........

08018538 <_ZTVN12_GLOBAL__N_125font_OSD_Charset_137_typeE>:
	...
 8018540:	0800cc31 0800cc29 0800d779 0800df29     1...)...y...)...

08018550 <_ZTVN12_GLOBAL__N_123font_OSD_Charset_5_typeE>:
	...
 8018558:	0800c1e1 0800c1d9 0800d989 0800e559     ............Y...

08018568 <_ZN12_GLOBAL__N_125font_OSD_Charset_102_type6m_dataE>:
 8018568:	ffffffff ffffffff ffffffff ffffffff     ................
 8018578:	aaafffff e5555bfa 5be5555b aa5bfaaa     .....[U.[U.[..[.
 8018588:	f9555bfe 5bf9555b fe5bfeaa fffe5bff     .[U.[U.[..[..[..
 8018598:	affffe5b 0000ffff                       [.......

080185a0 <_ZN12_GLOBAL__N_124font_OSD_Charset_25_type6m_dataE>:
 80185a0:	aaffffff 5555faaa a55555e9 a59a5555     ......UU.UU.UU..
 80185b0:	6aa99a5a 95aaaa95 aa95aaaa aaaa95aa     Z..j............
 80185c0:	956aa995 55955aa5 5555a555 faaaaae9     ..j..Z.UU.UU....
 80185d0:	ffffffff 0000ffff                       ........

080185d8 <_ZTVN12_GLOBAL__N_124font_OSD_Charset_40_typeE>:
	...
 80185e0:	0800c49d 0800c495 0800d8fd 0800e3b5     ................

080185f0 <_ZN12_GLOBAL__N_125font_OSD_Charset_128_type6m_dataE>:
 80185f0:	96ffeaab a596ff96 ffaa56ff 96ffa596     .........V......
 8018600:	aaabff96 955996ea 66e9a996 a966f9a9     ......Y....f..f.
 8018610:	eaaaabf9 ff9696ff 56ff9696 9696ff95     ...........V....
 8018620:	ff9696ff 0000eaab                       ........

08018628 <_ZN12_GLOBAL__N_124font_OSD_Charset_61_type6m_dataE>:
 8018628:	ffffffff ffffffff ffffffff ffffffff     ................
 8018638:	ffffffff feaabfff 6ff9556f aabff955     ........oU.oU...
 8018648:	fffffffe bfffffff 556ffeaa f9556ff9     ..........oU.oU.
 8018658:	fffeaabf 0000ffff                       ........

08018660 <_ZTVN12_GLOBAL__N_125font_OSD_Charset_189_typeE>:
	...
 8018668:	0800d041 0800d039 0800d6a9 0800dcb9     A...9...........

08018678 <_ZTVN12_GLOBAL__N_124font_OSD_Charset_72_typeE>:
	...
 8018680:	0800c71d 0800c715 0800d87d 0800e235     ........}...5...

08018690 <_ZTVN12_GLOBAL__N_125font_OSD_Charset_242_typeE>:
	...
 8018698:	0800d465 0800d45d 0800d5d5 0800da3d     e...].......=...

080186a8 <_ZTVN12_GLOBAL__N_125font_OSD_Charset_161_typeE>:
	...
 80186b0:	0800ce11 0800ce09 0800d719 0800de09     ................

080186c0 <_ZN12_GLOBAL__N_125font_OSD_Charset_216_type6m_dataE>:
 80186c0:	ffffffff abffffff fe56ffff ffffabff     ..........V.....
 80186d0:	ffffffff ffffffff ffffbfff 6ffffe6f     ............o..o
 80186e0:	e56ffff9 ff956fff 6fffe56f fe6ffff9     ..o..o..o..o..o.
 80186f0:	ffffbfff 0000ffff                       ........

080186f8 <_ZTVN12_GLOBAL__N_125font_OSD_Charset_104_typeE>:
	...
 8018700:	0800c99d 0800c995 0800d7fd 0800e0b5     ................

08018710 <_ZTVN12_GLOBAL__N_125font_OSD_Charset_193_typeE>:
	...
 8018718:	0800d091 0800d089 0800d699 0800dc89     ................

08018728 <_ZN12_GLOBAL__N_125font_OSD_Charset_184_type6m_dataE>:
 8018728:	aafeaabf 5556aa55 95aa5695 9696aa96     ....U.VU.V......
 8018738:	555696aa 95555695 56955556 55569555     ..VU.VU.VU.VU.VU
 8018748:	95555695 56955556 55569555 95555695     .VU.VU.VU.VU.VU.
 8018758:	aa955556 0000aaaa                       VU......

08018760 <_ZTVN12_GLOBAL__N_124font_OSD_Charset_26_typeE>:
	...
 8018768:	0800c385 0800c37d 0800d935 0800e45d     ....}...5...]...

08018778 <_ZN12_GLOBAL__N_124font_OSD_Charset_42_type6m_dataE>:
 8018778:	ffffffff fffbffff 9bffe6ef 5b96ff96     ...............[
 8018788:	696fe5be ea55abf9 ab955556 696fea55     ..oi..U.VU..U.oi
 8018798:	e5be5bf9 e696ff96 fffb9bff ffffffef     .[..............
 80187a8:	ffffffff 0000ffff                       ........

080187b0 <_ZN12_GLOBAL__N_125font_OSD_Charset_181_type6m_dataE>:
 80187b0:	aafeaabf 5556aa55 95aa5695 9696aa96     ....U.VU.V......
 80187c0:	aa9696aa 96aa9696 9696aa96 aa9696aa     ................
 80187d0:	96aa9696 9696aa96 aa9696aa 95555696     .............VU.
 80187e0:	aa955556 0000aaaa                       VU......

080187e8 <_ZN12_GLOBAL__N_124font_OSD_Charset_32_type6m_dataE>:
 80187e8:	ffffffff ffffffff ffffffff ffffffff     ................
 80187f8:	ffffffff ffffffff ffffffff ffffffff     ................
 8018808:	ffffffff ffffffff ffffffff ffffffff     ................
 8018818:	ffffffff 0000ffff                       ........

08018820 <_ZN12_GLOBAL__N_124font_OSD_Charset_14_type6m_dataE>:
 8018820:	55aaaaaa aaaa5555 ffffffaa ffffffff     ...UUU..........
 8018830:	ffffffff ffffffff ffffffff ffffffff     ................
 8018840:	ffffffff ffffffff ffffffff ffffffff     ................
 8018850:	ffffffff 0000ffff                       ........

08018858 <_ZTVN12_GLOBAL__N_124font_OSD_Charset_58_typeE>:
	...
 8018860:	0800c605 0800c5fd 0800d8b5 0800e2dd     ................

08018870 <_ZTVN12_GLOBAL__N_125font_OSD_Charset_228_typeE>:
	...
 8018878:	0800d34d 0800d345 0800d60d 0800dae5     M...E...........

08018888 <_ZN12_GLOBAL__N_124font_OSD_Charset_41_type6m_dataE>:
 8018888:	ffffffff ffffffff fffebfff bffff96f     ............o...
 8018898:	96ffffe5 fe5bffff fffe5bff 5bfffe5b     ......[..[..[..[
 80188a8:	fe5bfffe fffe5bff 96fffe5b ffe5bfff     ..[..[..[.......
 80188b8:	bffff96f 0000fffe                       o.......

080188c0 <_ZTVN12_GLOBAL__N_125font_OSD_Charset_147_typeE>:
	...
 80188c8:	0800ccf9 0800ccf1 0800d751 0800deb1     ........Q.......

080188d8 <_ZTVN12_GLOBAL__N_124font_OSD_Charset_30_typeE>:
	...
 80188e0:	0800c3d5 0800c3cd 0800d925 0800e42d     ........%...-...

080188f0 <_ZTVN12_GLOBAL__N_125font_OSD_Charset_200_typeE>:
	...
 80188f8:	0800d11d 0800d115 0800d67d 0800dc35     ........}...5...

08018908 <_ZTVN12_GLOBAL__N_125font_OSD_Charset_234_typeE>:
	...
 8018910:	0800d3c5 0800d3bd 0800d5f5 0800da9d     ................

08018920 <_ZN12_GLOBAL__N_125font_OSD_Charset_208_type6m_dataE>:
 8018920:	ffe6ffff ffffe6ff e6ffffe6 ffe6ffff     ................
 8018930:	ffffe6ff e6ffffe6 ffe6ffff ffffe6ff     ................
 8018940:	e6ffffe6 ffe6ffff ffffe6ff e6ffffe6     ................
 8018950:	ffe6ffff 0000e6ff                       ........

08018958 <_ZTVN12_GLOBAL__N_124font_OSD_Charset_41_typeE>:
	...
 8018960:	0800c4b1 0800c4a9 0800d8f9 0800e3a9     ................

08018970 <_ZTVN12_GLOBAL__N_125font_OSD_Charset_130_typeE>:
	...
 8018978:	0800cba5 0800cb9d 0800d795 0800df7d     ............}...

08018988 <_ZN12_GLOBAL__N_124font_OSD_Charset_70_type6m_dataE>:
 8018988:	ffffffff aaafffff e5555bfa 5be5555b     .........[U.[U.[
 8018998:	fe5bfaaa fffe5bff 5bffaa5b 555bfe55     ..[..[..[..[U.[U
 80189a8:	ffaa5bfe 5bfffe5b fe5bfffe fffe5bff     .[..[..[..[..[..
 80189b8:	affffe5b 0000ffff                       [.......

080189c0 <_ZN12_GLOBAL__N_124font_OSD_Charset_99_type6m_dataE>:
 80189c0:	ffffffff ffffffff ffffffff ffffffff     ................
 80189d0:	aabfffff f9556ffe 5be5555b fe5be5aa     .....oU.[U.[..[.
 80189e0:	fffe5bfa 5bfffe5b aa5bfafe e5555be5     .[..[..[..[..[U.
 80189f0:	bff9556f 0000feaa                       oU......

080189f8 <_ZN12_GLOBAL__N_125font_OSD_Charset_219_type6m_dataE>:
 80189f8:	ffffffff ffffffff aaaaaaff 55555555     ............UUUU
 8018a08:	aaaa5555 ffffffaa ffffffff ffffffff     UU..............
 8018a18:	ffffffff ffffffff ffffffff ffffffff     ................
 8018a28:	ffffffff 0000ffff                       ........

08018a30 <_ZTVN12_GLOBAL__N_124font_OSD_Charset_73_typeE>:
	...
 8018a38:	0800c731 0800c729 0800d879 0800e229     1...)...y...)...

08018a48 <_ZTVN12_GLOBAL__N_125font_OSD_Charset_243_typeE>:
	...
 8018a50:	0800d479 0800d471 0800d5d1 0800da31     y...q.......1...

08018a60 <_ZN12_GLOBAL__N_125font_OSD_Charset_173_type6m_dataE>:
 8018a60:	ffffffff feaaffff fffea9ff 55fffea5     ...............U
 8018a70:	9555ffe9 fa5555fe 5afa9555 aaaafaa9     ..U..UU.U..Z....
 8018a80:	ffaaaafe abffeaaa febffffa ffffffff     ................
 8018a90:	ffffffff 0000ffff                       ........

08018a98 <_ZTVN12_GLOBAL__N_125font_OSD_Charset_162_typeE>:
	...
 8018aa0:	0800ce25 0800ce1d 0800d715 0800ddfd     %...............

08018ab0 <_ZN12_GLOBAL__N_124font_OSD_Charset_96_type6m_dataE>:
 8018ab0:	afffffff fe5bffff fff96fff ffffe5bf     ......[..o......
 8018ac0:	ebffff96 ffffffff ffffffff ffffffff     ................
 8018ad0:	ffffffff ffffffff ffffffff ffffffff     ................
 8018ae0:	ffffffff 0000ffff                       ........

08018ae8 <_ZN12_GLOBAL__N_124font_OSD_Charset_31_type6m_dataE>:
 8018ae8:	ffffffff ebffffff fe96bfff 6bfa55af     .............U.k
 8018af8:	555ae955 aaaaaaa5 56955556 95569a95     U.ZU....VU.V..V.
 8018b08:	9a9aa69a a6955aa6 5aa6955a aaaaaa95     .....Z..Z..Z....
 8018b18:	ffffffff 0000ffff                       ........

08018b20 <_ZN12_GLOBAL__N_125font_OSD_Charset_170_type6m_dataE>:
 8018b20:	ffffffff afffffff 95aaafaa af5555af     .............UU.
 8018b30:	56bf5556 6a5abf55 ffaa9aff aaffaaaa     VU.VU.Zj........
 8018b40:	feabffaa ffffabff ffffffef ffffffff     ................
 8018b50:	ffffffff 0000ffff                       ........

08018b58 <_ZN12_GLOBAL__N_124font_OSD_Charset_93_type6m_dataE>:
 8018b58:	ffffffff eabfffff ff956fff bfff956f     .........o..o...
 8018b68:	96ffff96 ff96ffff ffff96ff 96ffff96     ................
 8018b78:	ff96ffff 6fff96bf 956fff95 ffeabfff     .......o..o.....
 8018b88:	ffffffff 0000ffff                       ........

08018b90 <_ZN12_GLOBAL__N_124font_OSD_Charset_71_type6m_dataE>:
 8018b90:	ffffffff aabfffff fe556fff 5bf9555b     .........oU.[U.[
 8018ba0:	be5be569 e5be5be5 5bfafe5b 5a5bfaae     i.[..[..[..[..[Z
 8018bb0:	e55a5be5 5be5ae5b aa5be5be e5555be5     .[Z.[..[..[..[U.
 8018bc0:	bfe5556f 0000faaa                       oU......

08018bc8 <_ZN12_GLOBAL__N_125font_OSD_Charset_109_type6m_dataE>:
 8018bc8:	ffffffff ffffffff ffffffff ffffffff     ................
 8018bd8:	ffafffff e5be5bfa 5be5695b 965be555     .....[..[i.[U.[.
 8018be8:	e5965be5 5be5aa5b be5be5be e5be5be5     .[..[..[..[..[..
 8018bf8:	afe5be5b 0000faff                       [.......

08018c00 <_ZN12_GLOBAL__N_124font_OSD_Charset_30_type6m_dataE>:
 8018c00:	fafffffe ffe9ffff ffffa5ff 55fffe95     ...............U
 8018c10:	e955fffa ffa5aaff aafea5aa e555fae5     ..U...........U.
 8018c20:	ffe5aafb aaffe5aa e5aaffe5 ffe5aaff     ................
 8018c30:	aaffe5aa 0000ffea                       ........

08018c38 <_ZTVN12_GLOBAL__N_124font_OSD_Charset_27_typeE>:
	...
 8018c40:	0800c399 0800c391 0800d931 0800e451     ........1...Q...

08018c50 <_ZN12_GLOBAL__N_125font_OSD_Charset_106_type6m_dataE>:
 8018c50:	ffffffff ffffffff ffffffff ffffffff     ................
 8018c60:	abffffff e556fffa ffe556ff 6ffff96b     ......V..V..k..o
 8018c70:	f96ffff9 bff96fff 696ff96e f9556ff9     ..o..o..n.oi.oU.
 8018c80:	fffe55bf 0000ffaa                       .U......

08018c88 <_ZTVN12_GLOBAL__N_125font_OSD_Charset_180_typeE>:
	...
 8018c90:	0800cf8d 0800cf85 0800d6cd 0800dd25     ............%...

08018ca0 <_ZN12_GLOBAL__N_124font_OSD_Charset_29_type6m_dataE>:
 8018ca0:	ffbfffff ffffafff 5affff6b ff56bfff     ........k..Z..V.
 8018cb0:	6bff55af 555aff55 af555abf 5bef555b     .U.kU.ZU.ZU.[U.[
 8018cc0:	aa5bff55 ffaa5bff 5bffaa5b aa5bffaa     U.[..[..[..[..[.
 8018cd0:	ffaa5bff 0000aaab                       .[......

08018cd8 <_ZN12_GLOBAL__N_124font_OSD_Charset_79_type6m_dataE>:
 8018cd8:	ffffffff aaffffff fe55bfff 5bf9556f     ..........U.oU.[
 8018ce8:	be5be569 e5be5be5 5be5be5b be5be5be     i.[..[..[..[..[.
 8018cf8:	e5be5be5 5be5be5b 695be5be f9556fe5     .[..[..[..[i.oU.
 8018d08:	fffe55bf 0000ffaa                       .U......

08018d10 <_ZTVN12_GLOBAL__N_124font_OSD_Charset_59_typeE>:
	...
 8018d18:	0800c619 0800c611 0800d8b1 0800e2d1     ................

08018d28 <_ZTVN12_GLOBAL__N_125font_OSD_Charset_229_typeE>:
	...
 8018d30:	0800d361 0800d359 0800d609 0800dad9     a...Y...........

08018d40 <_ZTVN12_GLOBAL__N_125font_OSD_Charset_148_typeE>:
	...
 8018d48:	0800cd0d 0800cd05 0800d74d 0800dea5     ........M.......

08018d58 <_ZTVN12_GLOBAL__N_125font_OSD_Charset_156_typeE>:
	...
 8018d60:	0800cdad 0800cda5 0800d72d 0800de45     ........-...E...

08018d70 <_ZTVN12_GLOBAL__N_125font_OSD_Charset_155_typeE>:
	...
 8018d78:	0800cd99 0800cd91 0800d731 0800de51     ........1...Q...

08018d88 <_ZTVN12_GLOBAL__N_125font_OSD_Charset_201_typeE>:
	...
 8018d90:	0800d131 0800d129 0800d679 0800dc29     1...)...y...)...

08018da0 <_ZN12_GLOBAL__N_124font_OSD_Charset_88_type6m_dataE>:
 8018da0:	ffffffff ffafffff e5be5bfa 5be5be5b     .........[..[..[
 8018db0:	be5be5be f9696fe5 fffe55bf 96ffff96     ..[..oi..U......
 8018dc0:	fe55bfff 5bf9696f be5be5be e5be5be5     ..U.oi.[..[..[..
 8018dd0:	afe5be5b 0000faff                       [.......

08018dd8 <_ZN12_GLOBAL__N_125font_OSD_Charset_162_type6m_dataE>:
 8018dd8:	ffffffff ffffafff 6bffffaf bf5afebf     ...........k..Z.
 8018de8:	96bf56aa 555abf55 ff555aff 5aff555a     .V..U.ZU.ZU.ZU.Z
 8018df8:	a96aff55 ffaaabff abffaaab feabffaa     U.j.............
 8018e08:	ffffffff 0000ffff                       ........

08018e10 <_ZTVN12_GLOBAL__N_124font_OSD_Charset_42_typeE>:
	...
 8018e18:	0800c4c5 0800c4bd 0800d8f5 0800e39d     ................

08018e28 <_ZN12_GLOBAL__N_124font_OSD_Charset_85_type6m_dataE>:
 8018e28:	ffffffff ffafffff e5be5bfa 5be5be5b     .........[..[..[
 8018e38:	be5be5be e5be5be5 5be5be5b be5be5be     ..[..[..[..[..[.
 8018e48:	e5be5be5 5be5be5b 695be5be f9556fe5     .[..[..[..[i.oU.
 8018e58:	fffe55bf 0000ffaa                       .U......

08018e60 <_ZTVN12_GLOBAL__N_125font_OSD_Charset_131_typeE>:
	...
 8018e68:	0800cbb9 0800cbb1 0800d791 0800df71     ............q...

08018e78 <_ZN12_GLOBAL__N_125font_OSD_Charset_253_type6m_dataE>:
 8018e78:	ffffffff ffffffff ffffffff ffffffff     ................
 8018e88:	ffffffff efefafff a69b9a5b 99a69659     ........[...Y...
 8018e98:	9999a699 a69a9956 99a69b99 9b99a69b     ....V...........
 8018ea8:	fb9b99a6 0000efee                       ........

08018eb0 <_ZTVN12_GLOBAL__N_125font_OSD_Charset_184_typeE>:
	...
 8018eb8:	0800cfdd 0800cfd5 0800d6bd 0800dcf5     ................

08018ec8 <_ZN12_GLOBAL__N_125font_OSD_Charset_188_type6m_dataE>:
 8018ec8:	aaffffff fe55fffe aaaa55ff 5b555a5a     ......U..U..ZZU[
 8018ed8:	5a5b555a 5a5a5b5a 5b5a5a5b 555b5a5a     ZU[ZZ[ZZ[ZZ[ZZ[U
 8018ee8:	5a555b5a 5b5aaa5b fe5b5bfe 5bfe5b5b     Z[UZ[.Z[.[[.[[.[
 8018ef8:	5b5bfe5b 00005bfe                       [.[[.[..

08018f00 <_ZTVN12_GLOBAL__N_124font_OSD_Charset_74_typeE>:
	...
 8018f08:	0800c745 0800c73d 0800d875 0800e21d     E...=...u.......

08018f18 <_ZTVN12_GLOBAL__N_125font_OSD_Charset_244_typeE>:
	...
 8018f20:	0800d48d 0800d485 0800d5cd 0800da25     ............%...

08018f30 <_ZTVN12_GLOBAL__N_125font_OSD_Charset_163_typeE>:
	...
 8018f38:	0800ce39 0800ce31 0800d711 0800ddf1     9...1...........

08018f48 <_ZTVN12_GLOBAL__N_125font_OSD_Charset_186_typeE>:
	...
 8018f50:	0800d005 0800cffd 0800d6b5 0800dcdd     ................

08018f60 <_ZN12_GLOBAL__N_123font_OSD_Charset_0_type6m_dataE>:
 8018f60:	ffffffff ffffffff ffffffff ffffffff     ................
 8018f70:	ffffffff ffffffff ffffffff ffffffff     ................
 8018f80:	ffffffff ffffffff ffffffff ffffffff     ................
 8018f90:	ffffffff 0000ffff                       ........

08018f98 <_ZN12_GLOBAL__N_125font_OSD_Charset_157_type6m_dataE>:
 8018f98:	ffffffff fffeffff ffebeaff 55ffaaa5     ...............U
 8018fa8:	9555ffa5 fe9555fe 55fa5555 aaaafa55     ..U..U..UU.UU...
 8018fb8:	eaaaaaea aaeaaaaa fffffaaa ffffffff     ................
 8018fc8:	ffffffff 0000ffff                       ........

08018fd0 <_ZTVN12_GLOBAL__N_125font_OSD_Charset_115_typeE>:
	...
 8018fd8:	0800ca79 0800ca71 0800d7d1 0800e031     y...q.......1...

08018fe8 <_ZTVN12_GLOBAL__N_124font_OSD_Charset_28_typeE>:
	...
 8018ff0:	0800c3ad 0800c3a5 0800d92d 0800e445     ........-...E...

08019000 <_ZN12_GLOBAL__N_125font_OSD_Charset_248_type6m_dataE>:
 8019000:	faffffff ffa5ffff fffe55ff 55fff955     .........U..U..U
 8019010:	e555ffe5 ff9555ff 55ff9555 9555ff95     ..U..U..U..U..U.
 8019020:	ffe555ff 55ffe555 fe55fff9 ffffa5ff     .U..U..U..U.....
 8019030:	fffffffa 0000ffff                       ........

08019038 <_ZN12_GLOBAL__N_125font_OSD_Charset_154_type6m_dataE>:
 8019038:	ffffffff afffffff aa6bfffa af555abf     ..........k..ZU.
 8019048:	6aaf5556 6aaaaf55 ffaaaaaf ffffaaab     VU.jU..j........
 8019058:	abffffab ffaaffff ffffaaff ffffffea     ................
 8019068:	ffffffff 0000ffff                       ........

08019070 <_ZN12_GLOBAL__N_125font_OSD_Charset_193_type6m_dataE>:
 8019070:	ffffffff ffffffff ffffffff ffffffff     ................
 8019080:	fbffffff ffe6ffff 95aae6ea e6ea55a6     .............U..
 8019090:	ffe6ffaa fffffbff ffffffff ffffffff     ................
 80190a0:	ffffffff 0000ffff                       ........

080190a8 <_ZN12_GLOBAL__N_124font_OSD_Charset_77_type6m_dataE>:
 80190a8:	ffffffff ffafffff e5be5bfa 5be5695b     .........[..[i.[
 80190b8:	555be555 e5965be5 5be5965b be5be5aa     U.[U.[..[..[..[.
 80190c8:	e5be5be5 5be5be5b be5be5be e5be5be5     .[..[..[..[..[..
 80190d8:	afe5be5b 0000faff                       [.......

080190e0 <_ZN12_GLOBAL__N_125font_OSD_Charset_245_type6m_dataE>:
 80190e0:	ffbfffff afff6fff ae5bff6f ff5a5bff     .....o..o.[..[Z.
 80190f0:	bfff56af f96affa5 bff965bf 6afff965     .V....j..e..e..j
 8019100:	a5bffff9 ff56afff 5bff5a5b 6fafffae     ......V.[Z.[...o
 8019110:	ff6fffff 0000afff                       ..o.....

08019118 <_ZN12_GLOBAL__N_125font_OSD_Charset_151_type6m_dataE>:
 8019118:	ffffffff faaaffff faaa56ff 55fa5555     .........V..UU.U
 8019128:	9555fa95 fea5a9fe aaffa6aa aaaaffaa     ..U.............
 8019138:	ffeabfff ffffeaff fffffffb ffffffff     ................
 8019148:	ffffffff 0000ffff                       ........

08019150 <_ZTVN12_GLOBAL__N_125font_OSD_Charset_149_typeE>:
	...
 8019158:	0800cd21 0800cd19 0800d749 0800de99     !.......I.......

08019168 <_ZN12_GLOBAL__N_125font_OSD_Charset_242_type6m_dataE>:
 8019168:	aaffffff 5555aaaa aaaaaa55 ffffffff     ......UUU.......
 8019178:	ffffffff ffffffff ffffffff ffffffff     ................
 8019188:	ffffffff ffffffff aaaaffff 555555aa     .............UUU
 8019198:	ffaaaaaa 0000ffff                       ........

080191a0 <_ZTVN12_GLOBAL__N_125font_OSD_Charset_202_typeE>:
	...
 80191a8:	0800d145 0800d13d 0800d675 0800dc1d     E...=...u.......

080191b8 <_ZTVN12_GLOBAL__N_125font_OSD_Charset_143_typeE>:
	...
 80191c0:	0800cca9 0800cca1 0800d761 0800dee1     ........a.......

080191d0 <_ZTVN12_GLOBAL__N_124font_OSD_Charset_43_typeE>:
	...
 80191d8:	0800c4d9 0800c4d1 0800d8f1 0800e391     ................

080191e8 <_ZTVN12_GLOBAL__N_125font_OSD_Charset_213_typeE>:
	...
 80191f0:	0800d221 0800d219 0800d649 0800db99     !.......I.......

08019200 <_ZTVN12_GLOBAL__N_125font_OSD_Charset_132_typeE>:
	...
 8019208:	0800cbcd 0800cbc5 0800d78d 0800df65     ............e...

08019218 <_ZN12_GLOBAL__N_125font_OSD_Charset_110_type6m_dataE>:
 8019218:	ffffffff ffffffff ffffffff ffffffff     ................
 8019228:	ffafffff e5be5bfa 5be5be5b a55be5b9     .....[..[..[..[.
 8019238:	e5955be5 5be5565b 6e5be55a e5be5be5     .[..[V.[Z.[n.[..
 8019248:	afe5be5b 0000faff                       [.......

08019250 <_ZTVN12_GLOBAL__N_124font_OSD_Charset_75_typeE>:
	...
 8019258:	0800c759 0800c751 0800d871 0800e211     Y...Q...q.......

08019268 <_ZTVN12_GLOBAL__N_125font_OSD_Charset_245_typeE>:
	...
 8019270:	0800d4a1 0800d499 0800d5c9 0800da19     ................

08019280 <_ZN12_GLOBAL__N_125font_OSD_Charset_146_type6m_dataE>:
 8019280:	ffffffff bfffbfff 56aaffaa ff5aaaff     ...........V..Z.
 8019290:	afff56aa 556bff55 bf555aff aabf555a     .V..U.kU.ZU.ZU..
 80192a0:	aaaabf56 ffaaaabf ffffaabf ffffffaf     V...............
 80192b0:	ffffffff 0000ffff                       ........

080192b8 <_ZN12_GLOBAL__N_124font_OSD_Charset_69_type6m_dataE>:
 80192b8:	ffffffff aaafffff e5555bfa 5be5555b     .........[U.[U.[
 80192c8:	fe5bfaaa fffe5bff 5bffaa5b 555bfe55     ..[..[..[..[U.[U
 80192d8:	ffaa5bfe 5bfffe5b aa5bfffe e5555bfa     .[..[..[..[..[U.
 80192e8:	afe5555b 0000faaa                       [U......

080192f0 <_ZN12_GLOBAL__N_125font_OSD_Charset_237_type6m_dataE>:
 80192f0:	ffffffff ffffafff 9bffff5b ff9bffff     ........[.......
 8019300:	ffff9bff 9bffff9b ff9bffff ffff9bff     ................
 8019310:	9bffff9b ff9bffff ffff9bff 5bffff9b     ...............[
 8019320:	ffafffff 0000ffff                       ........

08019328 <_ZN12_GLOBAL__N_125font_OSD_Charset_143_type6m_dataE>:
 8019328:	ffffffff ffffffff ffffffff ffffffff     ................
 8019338:	ffffffff ffffffff bfffffff e56ffffa     ..............o.
 8019348:	ff955bff 96ff9a9b 5556fe5a fe5a96fe     .[......Z.VU..Z.
 8019358:	ebfe5b96 0000ffaf                       .[......

08019360 <_ZN12_GLOBAL__N_124font_OSD_Charset_66_type6m_dataE>:
 8019360:	ffffffff aaafffff fe555bff 5bf9555b     .........[U.[U.[
 8019370:	be5be56a e5be5be5 5be56a5b 555bf955     j.[..[..[j.[U.[U
 8019380:	e56a5bf9 5be5be5b 6a5be5be f9555be5     .[j.[..[..[j.[U.
 8019390:	affe555b 0000ffaa                       [U......

08019398 <_ZN12_GLOBAL__N_125font_OSD_Charset_234_type6m_dataE>:
 8019398:	96ffebeb 9556ff96 ff9966ff abfb9aa6     ......V..f......
 80193a8:	a55be6aa e69696e6 56fb9696 9696fb95     ..[........V....
 80193b8:	e6abebe6 96e69696 9696fb96 ffe55bff     .............[..
 80193c8:	bffff96f 0000fffe                       o.......

080193d0 <_ZTVN12_GLOBAL__N_125font_OSD_Charset_118_typeE>:
	...
 80193d8:	0800cab5 0800caad 0800d7c5 0800e00d     ................

080193e8 <_ZTVN12_GLOBAL__N_124font_OSD_Charset_29_typeE>:
	...
 80193f0:	0800c3c1 0800c3b9 0800d929 0800e439     ........)...9...

08019400 <_ZTVN12_GLOBAL__N_124font_OSD_Charset_90_typeE>:
	...
 8019408:	0800c885 0800c87d 0800d835 0800e15d     ....}...5...]...

08019418 <_ZN12_GLOBAL__N_123font_OSD_Charset_7_type6m_dataE>:
 8019418:	ffffffff ffffffff ffffffff ffffffff     ................
 8019428:	ffffffff ffffffff ffffffff ffffffff     ................
 8019438:	ffffffff aaffffff 5555aaaa aaaaaa55     ..........UUU...
 8019448:	ffffffff 0000ffff                       ........

08019450 <_ZN12_GLOBAL__N_123font_OSD_Charset_4_type6m_dataE>:
 8019450:	f9fffffe fff9ffff fffff9ff f9fffff9     ................
 8019460:	fff9ffff fffff9ff 95ffffe5 f955fffe     ..............U.
 8019470:	ffe56aff ffff96bf 5bfffe5b f96ffffe     .j......[..[..o.
 8019480:	f9f96ffe 0000f96f                       .o..o...

08019488 <_ZTVN12_GLOBAL__N_125font_OSD_Charset_203_typeE>:
	...
 8019490:	0800d159 0800d151 0800d671 0800dc11     Y...Q...q.......

080194a0 <_ZN12_GLOBAL__N_125font_OSD_Charset_138_type6m_dataE>:
 80194a0:	56ffabab 5996fe56 fe5996fe 96fe5996     ...VV..Y..Y..Y..
 80194b0:	aaaafe59 f955bffe 6fe5a96f a96fe555     Y.....U.o..oU.o.
 80194c0:	eaaaafe5 ff9696ff 96ff9696 e55bff96     ..............[.
 80194d0:	fff96fff 0000febf                       .o......

080194d8 <_ZN12_GLOBAL__N_125font_OSD_Charset_200_type6m_dataE>:
 80194d8:	ffffffff abffffff fe56ffff ffffabff     ..........V.....
 80194e8:	ffffffff ffffffff ffffffff ffffffff     ................
 80194f8:	aaabffff ff5556ff ffffaaab ffffffff     .....VU.........
 8019508:	ffffffff 0000ffff                       ........

08019510 <_ZN12_GLOBAL__N_125font_OSD_Charset_229_type6m_dataE>:
 8019510:	ffffffff faafffff ffe55bff 96fffa96     .........[......
 8019520:	fa96ffff 96e55beb abe6faaf e556e6fa     .....[........V.
 8019530:	e69696e6 96e6a956 e556e696 e6faabe6     ....V.....V.....
 8019540:	ff96ffff 0000ebff                       ........

08019548 <_ZN12_GLOBAL__N_123font_OSD_Charset_1_type6m_dataE>:
 8019548:	5afeaaaa 9696fea5 fe96a6fe 6afea5aa     ...Z...........j
 8019558:	aa5afea9 fe9556fe aaaaaaaa 96bfa956     ..Z..V......V...
 8019568:	9696bfa5 bf9696bf 96bf9696 a596bf96     ................
 8019578:	bfa956bf 0000aaaa                       .V......

08019580 <_ZN12_GLOBAL__N_125font_OSD_Charset_135_type6m_dataE>:
 8019580:	56ffeaab 9556ff95 ffe96bff 6ffff96f     ...V..V..k..o..o
 8019590:	babffff9 f965bffe bff955bf 65bff965     ......e..U..e..e
 80195a0:	faaafff9 ffe55bff 9bff9a9b a55bff96     .....[........[.
 80195b0:	ff965bff 0000abaf                       .[......

080195b8 <_ZTVN12_GLOBAL__N_125font_OSD_Charset_214_typeE>:
	...
 80195c0:	0800d235 0800d22d 0800d645 0800db8d     5...-...E.......

080195d0 <_ZTVN12_GLOBAL__N_125font_OSD_Charset_133_typeE>:
	...
 80195d8:	0800cbe1 0800cbd9 0800d789 0800df59     ............Y...

080195e8 <_ZTVN12_GLOBAL__N_123font_OSD_Charset_0_typeE>:
	...
 80195f0:	0800c17d 0800c175 0800d99d 0800e595     }...u...........

08019600 <_ZN12_GLOBAL__N_125font_OSD_Charset_226_type6m_dataE>:
 8019600:	ffffffff ebebffff ff9696ff 96ff9696     ................
 8019610:	e55bff96 96f96feb afe6febf e55be6fa     ..[..o........[.
 8019620:	e69696e6 56e69696 9696e695 e6ebebe6     .......V........
 8019630:	ff96ffff 0000ebff                       ........

08019638 <_ZN12_GLOBAL__N_125font_OSD_Charset_132_type6m_dataE>:
 8019638:	96ffffeb ff96ffff ffea96ff 56ff9556     ............V..V
 8019648:	aaabff95 f9556ffe 5be5695b 556fe569     .....oU.[i.[i.oU
 8019658:	eaaabff9 bf9695bf 55bf9655 9565bf95     ........U..U..e.
 8019668:	ff95a5bf 0000eaaa                       ........

08019670 <_ZN12_GLOBAL__N_124font_OSD_Charset_49_type6m_dataE>:
 8019670:	ffffffff ffffffff ffffffff ffffffff     ................
 8019680:	ebffffff ff96ffff 6fff95bf 956fff95     ...........o..o.
 8019690:	ff96bfff ffff96ff 96bfff96 f9556ffe     .............oU.
 80196a0:	bff9556f 0000feaa                       oU......

080196a8 <_ZN12_GLOBAL__N_124font_OSD_Charset_55_type6m_dataE>:
 80196a8:	ffffffff ffffffff ffffffff ffffffff     ................
 80196b8:	aaafffff e5555bfa afe5555b 6fffe5aa     .....[U.[U.....o
 80196c8:	f95bffe5 fffe56ff 96ffff96 ff96ffff     ..[..V..........
 80196d8:	ffff96ff 0000ffeb                       ........

080196e0 <_ZTVN12_GLOBAL__N_125font_OSD_Charset_246_typeE>:
	...
 80196e8:	0800d4b5 0800d4ad 0800d5c5 0800da0d     ................

080196f8 <_ZN12_GLOBAL__N_125font_OSD_Charset_223_type6m_dataE>:
 80196f8:	bfffe5bf e5bfffe5 ffe5aaff 55ffe555     ............U..U
 8019708:	eaaaffe5 ffffffff ffffffff ffffffff     ................
 8019718:	ffffffff ffffffff ffffffff ffffffff     ................
 8019728:	ffffffff 0000ffff                       ........

08019730 <_ZTVN12_GLOBAL__N_125font_OSD_Charset_165_typeE>:
	...
 8019738:	0800ce61 0800ce59 0800d709 0800ddd9     a...Y...........

08019748 <_ZN12_GLOBAL__N_124font_OSD_Charset_58_type6m_dataE>:
 8019748:	ffffffff ffffffff ffffffff ffffffff     ................
 8019758:	ffffffff ffebffff ffff96ff ebffff96     ................
 8019768:	ffffffff ffffffff 96ffffeb ff96ffff     ................
 8019778:	ffffebff 0000ffff                       ........

08019780 <_ZN12_GLOBAL__N_125font_OSD_Charset_191_type6m_dataE>:
 8019780:	ffffffff ffffffff ffffffff ffffffff     ................
 8019790:	ffffffff ffffffff ffffffff ebffffff     ................
 80197a0:	ff96ffff bfff96ff 55bffe55 f9556ffe     ........U..U.oU.
 80197b0:	bff9556f 0000feaa                       oU......

080197b8 <_ZTVN12_GLOBAL__N_123font_OSD_Charset_2_typeE>:
	...
 80197c0:	0800c1a5 0800c19d 0800d995 0800e57d     ............}...

080197d0 <_ZTVN12_GLOBAL__N_124font_OSD_Charset_87_typeE>:
	...
 80197d8:	0800c849 0800c841 0800d841 0800e181     I...A...A.......

080197e8 <_ZTVN12_GLOBAL__N_125font_OSD_Charset_119_typeE>:
	...
 80197f0:	0800cac9 0800cac1 0800d7c1 0800e001     ................

08019800 <_ZN12_GLOBAL__N_125font_OSD_Charset_127_type6m_dataE>:
 8019800:	abffffff f99bfffe ffe59bff 9bff959b     ................
 8019810:	559bfe55 fe559bf9 9bff959b f99bffe5     U..U..U.........
 8019820:	fffe9bff 9bffff9b ff9bffff fffe9aff     ................
 8019830:	aafffe56 0000fffe                       V.......

08019838 <_ZTVN12_GLOBAL__N_124font_OSD_Charset_91_typeE>:
	...
 8019840:	0800c899 0800c891 0800d831 0800e151     ........1...Q...

08019850 <_ZTVN12_GLOBAL__N_124font_OSD_Charset_16_typeE>:
	...
 8019858:	0800c2bd 0800c2b5 0800d95d 0800e4d5     ........].......

08019868 <_ZN12_GLOBAL__N_125font_OSD_Charset_218_type6m_dataE>:
 8019868:	ffffffff ffffffff ffffffff ffffffff     ................
 8019878:	ffffffff ffffffff ffffffff ffffffff     ................
 8019888:	aaaaaaff 55555555 aaaa5555 ffffffaa     ....UUUUUU......
 8019898:	ffffffff 0000ffff                       ........

080198a0 <_ZN12_GLOBAL__N_125font_OSD_Charset_124_type6m_dataE>:
 80198a0:	ffffffff ebffffff ff96ffff ffff96ff     ................
 80198b0:	96ffff96 ff96ffff ffff96ff 96ffff96     ................
 80198c0:	ff96ffff ffff96ff 96ffff96 ffebffff     ................
 80198d0:	ffffffff 0000ffff                       ........

080198d8 <_ZN12_GLOBAL__N_124font_OSD_Charset_47_type6m_dataE>:
 80198d8:	ffffffff ffffffff ffffffff ffebffff     ................
 80198e8:	bfff96ff e56fff95 fff95bff 95bffe56     ......o..[..V...
 80198f8:	ffe56fff 56fff95b ff96fffe ffffebff     .o..[..V........
 8019908:	ffffffff 0000ffff                       ........

08019910 <_ZN12_GLOBAL__N_125font_OSD_Charset_215_type6m_dataE>:
 8019910:	9affff9b ff95ffff ffffaaff ffffffff     ................
 8019920:	ffffffff ffffffff ffffffff ffffffff     ................
 8019930:	ffffffff ffffffff ffffffff ffffffff     ................
 8019940:	ffffffff 0000ffff                       ........

08019948 <_ZTVN12_GLOBAL__N_125font_OSD_Charset_204_typeE>:
	...
 8019950:	0800d16d 0800d165 0800d66d 0800dc05     m...e...m.......

08019960 <_ZN12_GLOBAL__N_124font_OSD_Charset_83_type6m_dataE>:
 8019960:	ffffffff aaffffff f955bffe 5be5556f     ..........U.oU.[
 8019970:	fe5be5a9 fffe5bfa 6fffa95b 55bffe55     ..[..[..[..oU..U
 8019980:	e56afff9 afe5bfff 6a5be5bf f9555be5     ..j.......[j.[U.
 8019990:	bffe556f 0000ffaa                       oU......

08019998 <_ZTVN12_GLOBAL__N_124font_OSD_Charset_45_typeE>:
	...
 80199a0:	0800c501 0800c4f9 0800d8e9 0800e379     ............y...

080199b0 <_ZTVN12_GLOBAL__N_125font_OSD_Charset_134_typeE>:
	...
 80199b8:	0800cbf5 0800cbed 0800d785 0800df4d     ............M...

080199c8 <_ZTVN12_GLOBAL__N_123font_OSD_Charset_1_typeE>:
	...
 80199d0:	0800c191 0800c189 0800d999 0800e589     ................

080199e0 <_ZN12_GLOBAL__N_125font_OSD_Charset_136_type6m_dataE>:
 80199e0:	ffffffff ffffffff ffffffff 96ffebeb     ................
 80199f0:	9556ff96 ff9966ff abff9aa6 9556ffea     ..V..f........V.
 8019a00:	ffeaabff a6ff9556 9556ffea ff9aabff     ....V.....V.....
 8019a10:	abff9556 0000ffea                       V.......

08019a18 <_ZN12_GLOBAL__N_125font_OSD_Charset_212_type6m_dataE>:
 8019a18:	ffe6ffff ffffa6ff aaffff56 ffffffff     ........V.......
 8019a28:	ffffffff ffffffff ffffffff ffffffff     ................
 8019a38:	ffffffff ffffffff ffffffff ffffffff     ................
 8019a48:	ffffffff 0000ffff                       ........

08019a50 <_ZN12_GLOBAL__N_125font_OSD_Charset_180_type6m_dataE>:
 8019a50:	aafeaabf 5556aa55 96aa9695 a69a96a6     ....U.VU........
 8019a60:	96a69a96 9a96a69a a69a96a6 96a69a96     ................
 8019a70:	9aaaa69a a69a96a6 aaa69a96 96aa969a     ................
 8019a80:	aa955556 0000aaaa                       VU......

08019a88 <_ZTVN12_GLOBAL__N_124font_OSD_Charset_77_typeE>:
	...
 8019a90:	0800c781 0800c779 0800d869 0800e1f9     ....y...i.......

08019aa0 <_ZTVN12_GLOBAL__N_125font_OSD_Charset_247_typeE>:
	...
 8019aa8:	0800d4c9 0800d4c1 0800d5c1 0800da01     ................

08019ab8 <_ZTVN12_GLOBAL__N_125font_OSD_Charset_166_typeE>:
	...
 8019ac0:	0800ce75 0800ce6d 0800d705 0800ddcd     u...m...........

08019ad0 <_ZN12_GLOBAL__N_125font_OSD_Charset_119_type6m_dataE>:
 8019ad0:	ffffffff ffffffff ffffffff ffffffff     ................
 8019ae0:	ffafffff e5be5bfa 5be5be5b be5be5be     .....[..[..[..[.
 8019af0:	e5aa5be5 5be5965b 555be596 f9556fe5     .[..[..[..[U.oU.
 8019b00:	bff9696f 0000febe                       oi......

08019b08 <_ZTVN12_GLOBAL__N_124font_OSD_Charset_88_typeE>:
	...
 8019b10:	0800c85d 0800c855 0800d83d 0800e175     ]...U...=...u...

08019b20 <_ZN12_GLOBAL__N_125font_OSD_Charset_116_type6m_dataE>:
 8019b20:	ffffffff ffffffff ffffffff ffffffff     ................
 8019b30:	aaafffff e5555bfa afe5555b 96fffa96     .....[U.[U......
 8019b40:	ff96ffff ffff96ff 96ffff96 ff96ffff     ................
 8019b50:	ffff96ff 0000ffeb                       ........

08019b58 <_ZN12_GLOBAL__N_124font_OSD_Charset_39_type6m_dataE>:
 8019b58:	ffffffff 9bffffef fe56ffff fffe5bff     ..........V..[..
 8019b68:	6ffffe6f ff9bfffe ffffefff ffffffff     o..o............
 8019b78:	ffffffff ffffffff ffffffff ffffffff     ................
 8019b88:	ffffffff 0000ffff                       ........

08019b90 <_ZTVN12_GLOBAL__N_124font_OSD_Charset_60_typeE>:
	...
 8019b98:	0800c62d 0800c625 0800d8ad 0800e2c5     -...%...........

08019ba8 <_ZTVN12_GLOBAL__N_125font_OSD_Charset_230_typeE>:
	...
 8019bb0:	0800d375 0800d36d 0800d605 0800dacd     u...m...........

08019bc0 <_ZN12_GLOBAL__N_125font_OSD_Charset_113_type6m_dataE>:
 8019bc0:	ffffffff ffffffff ffffffff ffffffff     ................
 8019bd0:	aabfffff f9556ffe 5be5555b be5be5aa     .....oU.[U.[..[.
 8019be0:	e5be5be5 5be5ae5b 5a5be55a e5555bf9     .[..[..[Z.[Z.[U.
 8019bf0:	bfe5956f 0000faea                       o.......

08019bf8 <_ZN12_GLOBAL__N_124font_OSD_Charset_18_type6m_dataE>:
 8019bf8:	ffffffff ffefffff f9bf9bfe 5be5be5b     ............[..[
 8019c08:	955bfa69 ff955bff bffe556f 56fff955     i.[..[..oU..U..V
 8019c18:	faa9bfe5 9bfff96f f9a6fff9 feaaaaff     ....o...........
 8019c28:	aaf95556 0000faaa                       VU......

08019c30 <_ZN12_GLOBAL__N_124font_OSD_Charset_60_type6m_dataE>:
 8019c30:	ffffffff ffffffff ffffffff ffffffff     ................
 8019c40:	bfffffff f96ffffe fffe5bff e5bfff96     ......o..[......
 8019c50:	fff96fff bffff96f 96ffffe5 fe5bffff     .o..o.........[.
 8019c60:	fff96fff 0000febf                       .o......

08019c68 <_ZN12_GLOBAL__N_124font_OSD_Charset_36_type6m_dataE>:
 8019c68:	ffffffff 96ffffeb fe96bfff 5bf9556f     ............oU.[
 8019c78:	965be555 fa965be5 6ffe555b 96aff955     U.[..[..[U.oU...
 8019c88:	e5965be5 6fe5555b 96bff955 ff96fffe     .[..[U.oU.......
 8019c98:	ffffebff 0000ffff                       ........

08019ca0 <_ZN12_GLOBAL__N_125font_OSD_Charset_204_type6m_dataE>:
 8019ca0:	5aabfe5b fe55fffe fffe55ff fffffeaa     [..Z..U..U......
 8019cb0:	ffffffff ffffffff ffffffff ffffffff     ................
 8019cc0:	ffffffff ffffffff ffffffff ffffffff     ................
 8019cd0:	ffffffff 0000ffff                       ........

08019cd8 <_ZTVN12_GLOBAL__N_124font_OSD_Charset_92_typeE>:
	...
 8019ce0:	0800c8ad 0800c8a5 0800d82d 0800e145     ........-...E...
 8019cf0:	454c4449 00000000 51726d54 00000000     IDLE....TmrQ....
 8019d00:	20726d54 00637653                       Tmr Svc.

08019d08 <_ZN12_GLOBAL__N_1L12gpioa_unusedE>:
 8019d08:	00000000 00000001 00000004 00000005     ................
 8019d18:	00000008 00000009 0000000a 0000000b     ................
 8019d28:	0000000c 0000000d 0000000e 77617264     ............draw
 8019d38:	7361745f 0000006b 00000043              _task...C...

08019d44 <_global_impure_ptr>:
 8019d44:	10000030                                0...

08019d48 <_init>:
 8019d48:	b5f8      	push	{r3, r4, r5, r6, r7, lr}
 8019d4a:	bf00      	nop
 8019d4c:	bcf8      	pop	{r3, r4, r5, r6, r7}
 8019d4e:	bc08      	pop	{r3}
 8019d50:	469e      	mov	lr, r3
 8019d52:	4770      	bx	lr

08019d54 <_fini>:
 8019d54:	b5f8      	push	{r3, r4, r5, r6, r7, lr}
 8019d56:	bf00      	nop
 8019d58:	bcf8      	pop	{r3, r4, r5, r6, r7}
 8019d5a:	bc08      	pop	{r3}
 8019d5c:	469e      	mov	lr, r3
 8019d5e:	4770      	bx	lr
