
main.elf:     file format elf32-littlearm


Disassembly of section .text:

08000188 <_ZN12_GLOBAL__N_14idleEv>:
 8000188:	4770      	bx	lr

0800018a <_ZN12_GLOBAL__N_112on_button_upEv>:
 800018a:	4b03      	ldr	r3, [pc, #12]	; (8000198 <_ZN12_GLOBAL__N_112on_button_upEv+0xe>)
 800018c:	4a03      	ldr	r2, [pc, #12]	; (800019c <_ZN12_GLOBAL__N_112on_button_upEv+0x12>)
 800018e:	4804      	ldr	r0, [pc, #16]	; (80001a0 <_ZN12_GLOBAL__N_112on_button_upEv+0x16>)
 8000190:	601a      	str	r2, [r3, #0]
 8000192:	605a      	str	r2, [r3, #4]
 8000194:	6098      	str	r0, [r3, #8]
 8000196:	4770      	bx	lr
 8000198:	10000000 	.word	0x10000000
 800019c:	08000189 	.word	0x08000189
 80001a0:	080001f1 	.word	0x080001f1

080001a4 <_ZN12_GLOBAL__N_114on_button_downEv>:
 80001a4:	4a01      	ldr	r2, [pc, #4]	; (80001ac <_ZN12_GLOBAL__N_114on_button_downEv+0x8>)
 80001a6:	4b02      	ldr	r3, [pc, #8]	; (80001b0 <_ZN12_GLOBAL__N_114on_button_downEv+0xc>)
 80001a8:	605a      	str	r2, [r3, #4]
 80001aa:	4770      	bx	lr
 80001ac:	0800018b 	.word	0x0800018b
 80001b0:	10000000 	.word	0x10000000

080001b4 <_ZN12_GLOBAL__N_122initial_on_button_downEv>:
 80001b4:	4b04      	ldr	r3, [pc, #16]	; (80001c8 <_ZN12_GLOBAL__N_122initial_on_button_downEv+0x14>)
 80001b6:	22c8      	movs	r2, #200	; 0xc8
 80001b8:	605a      	str	r2, [r3, #4]
 80001ba:	601a      	str	r2, [r3, #0]
 80001bc:	4a03      	ldr	r2, [pc, #12]	; (80001cc <_ZN12_GLOBAL__N_122initial_on_button_downEv+0x18>)
 80001be:	2064      	movs	r0, #100	; 0x64
 80001c0:	2101      	movs	r1, #1
 80001c2:	6098      	str	r0, [r3, #8]
 80001c4:	6011      	str	r1, [r2, #0]
 80001c6:	4770      	bx	lr
 80001c8:	100009d4 	.word	0x100009d4
 80001cc:	424182b4 	.word	0x424182b4

080001d0 <_ZN12_GLOBAL__N_120initial_on_button_upEv>:
 80001d0:	4b05      	ldr	r3, [pc, #20]	; (80001e8 <_ZN12_GLOBAL__N_120initial_on_button_upEv+0x18>)
 80001d2:	f44f 72c8 	mov.w	r2, #400	; 0x190
 80001d6:	20c8      	movs	r0, #200	; 0xc8
 80001d8:	601a      	str	r2, [r3, #0]
 80001da:	605a      	str	r2, [r3, #4]
 80001dc:	6098      	str	r0, [r3, #8]
 80001de:	4b03      	ldr	r3, [pc, #12]	; (80001ec <_ZN12_GLOBAL__N_120initial_on_button_upEv+0x1c>)
 80001e0:	2101      	movs	r1, #1
 80001e2:	6019      	str	r1, [r3, #0]
 80001e4:	4770      	bx	lr
 80001e6:	bf00      	nop
 80001e8:	100009d4 	.word	0x100009d4
 80001ec:	424182b4 	.word	0x424182b4

080001f0 <_ZN12_GLOBAL__N_18wait1secEv>:
 80001f0:	4b15      	ldr	r3, [pc, #84]	; (8000248 <_ZN12_GLOBAL__N_18wait1secEv+0x58>)
 80001f2:	6818      	ldr	r0, [r3, #0]
 80001f4:	b510      	push	{r4, lr}
 80001f6:	b938      	cbnz	r0, 8000208 <_ZN12_GLOBAL__N_18wait1secEv+0x18>
 80001f8:	4914      	ldr	r1, [pc, #80]	; (800024c <_ZN12_GLOBAL__N_18wait1secEv+0x5c>)
 80001fa:	4b15      	ldr	r3, [pc, #84]	; (8000250 <_ZN12_GLOBAL__N_18wait1secEv+0x60>)
 80001fc:	22fa      	movs	r2, #250	; 0xfa
 80001fe:	2001      	movs	r0, #1
 8000200:	604a      	str	r2, [r1, #4]
 8000202:	600a      	str	r2, [r1, #0]
 8000204:	608a      	str	r2, [r1, #8]
 8000206:	6018      	str	r0, [r3, #0]
 8000208:	4a0f      	ldr	r2, [pc, #60]	; (8000248 <_ZN12_GLOBAL__N_18wait1secEv+0x58>)
 800020a:	6811      	ldr	r1, [r2, #0]
 800020c:	1c48      	adds	r0, r1, #1
 800020e:	2832      	cmp	r0, #50	; 0x32
 8000210:	6010      	str	r0, [r2, #0]
 8000212:	d117      	bne.n	8000244 <_ZN12_GLOBAL__N_18wait1secEv+0x54>
 8000214:	f000 fc8a 	bl	8000b2c <_ZN9telemetry8set_homeEv>
 8000218:	4b0c      	ldr	r3, [pc, #48]	; (800024c <_ZN12_GLOBAL__N_18wait1secEv+0x5c>)
 800021a:	490d      	ldr	r1, [pc, #52]	; (8000250 <_ZN12_GLOBAL__N_18wait1secEv+0x60>)
 800021c:	2401      	movs	r4, #1
 800021e:	2200      	movs	r2, #0
 8000220:	609a      	str	r2, [r3, #8]
 8000222:	605c      	str	r4, [r3, #4]
 8000224:	600c      	str	r4, [r1, #0]
 8000226:	f000 fa01 	bl	800062c <_ZN7azimuth5motor6enableEv>
 800022a:	4b0a      	ldr	r3, [pc, #40]	; (8000254 <_ZN12_GLOBAL__N_18wait1secEv+0x64>)
 800022c:	490a      	ldr	r1, [pc, #40]	; (8000258 <_ZN12_GLOBAL__N_18wait1secEv+0x68>)
 800022e:	f44f 7096 	mov.w	r0, #300	; 0x12c
 8000232:	f44f 722f 	mov.w	r2, #700	; 0x2bc
 8000236:	6058      	str	r0, [r3, #4]
 8000238:	6018      	str	r0, [r3, #0]
 800023a:	609a      	str	r2, [r3, #8]
 800023c:	4807      	ldr	r0, [pc, #28]	; (800025c <_ZN12_GLOBAL__N_18wait1secEv+0x6c>)
 800023e:	4b08      	ldr	r3, [pc, #32]	; (8000260 <_ZN12_GLOBAL__N_18wait1secEv+0x70>)
 8000240:	600c      	str	r4, [r1, #0]
 8000242:	6098      	str	r0, [r3, #8]
 8000244:	bd10      	pop	{r4, pc}
 8000246:	bf00      	nop
 8000248:	1000090c 	.word	0x1000090c
 800024c:	100009c8 	.word	0x100009c8
 8000250:	424182bc 	.word	0x424182bc
 8000254:	100009bc 	.word	0x100009bc
 8000258:	424182b0 	.word	0x424182b0
 800025c:	08000265 	.word	0x08000265
 8000260:	10000000 	.word	0x10000000

08000264 <_ZN12_GLOBAL__N_18trackingEv>:
 8000264:	f000 bde6 	b.w	8000e34 <_ZN9telemetry6recalcEv>

08000268 <_Z13on_20ms_eventv>:
 8000268:	b508      	push	{r3, lr}
 800026a:	f000 fc69 	bl	8000b40 <_ZN9telemetry10filter_posEv>
 800026e:	4b03      	ldr	r3, [pc, #12]	; (800027c <_Z13on_20ms_eventv+0x14>)
 8000270:	6898      	ldr	r0, [r3, #8]
 8000272:	4780      	blx	r0
 8000274:	e8bd 4008 	ldmia.w	sp!, {r3, lr}
 8000278:	f001 b874 	b.w	8001364 <_Z11update_ledsv>
 800027c:	10000000 	.word	0x10000000

08000280 <_Z22on_change_button_stateb>:
 8000280:	b508      	push	{r3, lr}
 8000282:	4b03      	ldr	r3, [pc, #12]	; (8000290 <_Z22on_change_button_stateb+0x10>)
 8000284:	b108      	cbz	r0, 800028a <_Z22on_change_button_stateb+0xa>
 8000286:	6818      	ldr	r0, [r3, #0]
 8000288:	e000      	b.n	800028c <_Z22on_change_button_stateb+0xc>
 800028a:	6858      	ldr	r0, [r3, #4]
 800028c:	4780      	blx	r0
 800028e:	bd08      	pop	{r3, pc}
 8000290:	10000000 	.word	0x10000000

08000294 <_ZN12_GLOBAL__N_119initial_20_ms_eventEv>:
 8000294:	b510      	push	{r4, lr}
 8000296:	4c27      	ldr	r4, [pc, #156]	; (8000334 <_ZN12_GLOBAL__N_119initial_20_ms_eventEv+0xa0>)
 8000298:	6863      	ldr	r3, [r4, #4]
 800029a:	bb2b      	cbnz	r3, 80002e8 <_ZN12_GLOBAL__N_119initial_20_ms_eventEv+0x54>
 800029c:	f000 f9cc 	bl	8000638 <_ZN7azimuth5motor7disableEv>
 80002a0:	4825      	ldr	r0, [pc, #148]	; (8000338 <_ZN12_GLOBAL__N_119initial_20_ms_eventEv+0xa4>)
 80002a2:	4b26      	ldr	r3, [pc, #152]	; (800033c <_ZN12_GLOBAL__N_119initial_20_ms_eventEv+0xa8>)
 80002a4:	6802      	ldr	r2, [r0, #0]
 80002a6:	b96a      	cbnz	r2, 80002c4 <_ZN12_GLOBAL__N_119initial_20_ms_eventEv+0x30>
 80002a8:	4925      	ldr	r1, [pc, #148]	; (8000340 <_ZN12_GLOBAL__N_119initial_20_ms_eventEv+0xac>)
 80002aa:	2002      	movs	r0, #2
 80002ac:	6008      	str	r0, [r1, #0]
 80002ae:	2264      	movs	r2, #100	; 0x64
 80002b0:	f44f 7061 	mov.w	r0, #900	; 0x384
 80002b4:	601a      	str	r2, [r3, #0]
 80002b6:	605a      	str	r2, [r3, #4]
 80002b8:	6098      	str	r0, [r3, #8]
 80002ba:	4b22      	ldr	r3, [pc, #136]	; (8000344 <_ZN12_GLOBAL__N_119initial_20_ms_eventEv+0xb0>)
 80002bc:	2101      	movs	r1, #1
 80002be:	6019      	str	r1, [r3, #0]
 80002c0:	2303      	movs	r3, #3
 80002c2:	e00d      	b.n	80002e0 <_ZN12_GLOBAL__N_119initial_20_ms_eventEv+0x4c>
 80002c4:	4820      	ldr	r0, [pc, #128]	; (8000348 <_ZN12_GLOBAL__N_119initial_20_ms_eventEv+0xb4>)
 80002c6:	4921      	ldr	r1, [pc, #132]	; (800034c <_ZN12_GLOBAL__N_119initial_20_ms_eventEv+0xb8>)
 80002c8:	4a21      	ldr	r2, [pc, #132]	; (8000350 <_ZN12_GLOBAL__N_119initial_20_ms_eventEv+0xbc>)
 80002ca:	6001      	str	r1, [r0, #0]
 80002cc:	6042      	str	r2, [r0, #4]
 80002ce:	21c8      	movs	r1, #200	; 0xc8
 80002d0:	f44f 70c8 	mov.w	r0, #400	; 0x190
 80002d4:	4a1b      	ldr	r2, [pc, #108]	; (8000344 <_ZN12_GLOBAL__N_119initial_20_ms_eventEv+0xb0>)
 80002d6:	6058      	str	r0, [r3, #4]
 80002d8:	6018      	str	r0, [r3, #0]
 80002da:	6099      	str	r1, [r3, #8]
 80002dc:	2301      	movs	r3, #1
 80002de:	6013      	str	r3, [r2, #0]
 80002e0:	481c      	ldr	r0, [pc, #112]	; (8000354 <_ZN12_GLOBAL__N_119initial_20_ms_eventEv+0xc0>)
 80002e2:	6063      	str	r3, [r4, #4]
 80002e4:	f002 fe98 	bl	8003018 <_ZN4quan5stm3211serial_portINS0_5usart6moduleILm1073760256EEELj1000ELj1000ENS_3mcu3pinINS0_4gpio6moduleILm1073875968EEELm8EEENS6_IS9_Lm9EEEE5writeEPKc>
 80002e8:	4812      	ldr	r0, [pc, #72]	; (8000334 <_ZN12_GLOBAL__N_119initial_20_ms_eventEv+0xa0>)
 80002ea:	6843      	ldr	r3, [r0, #4]
 80002ec:	2b01      	cmp	r3, #1
 80002ee:	d11f      	bne.n	8000330 <_ZN12_GLOBAL__N_119initial_20_ms_eventEv+0x9c>
 80002f0:	4a19      	ldr	r2, [pc, #100]	; (8000358 <_ZN12_GLOBAL__N_119initial_20_ms_eventEv+0xc4>)
 80002f2:	7811      	ldrb	r1, [r2, #0]
 80002f4:	b1e1      	cbz	r1, 8000330 <_ZN12_GLOBAL__N_119initial_20_ms_eventEv+0x9c>
 80002f6:	4911      	ldr	r1, [pc, #68]	; (800033c <_ZN12_GLOBAL__N_119initial_20_ms_eventEv+0xa8>)
 80002f8:	2200      	movs	r2, #0
 80002fa:	608b      	str	r3, [r1, #8]
 80002fc:	604a      	str	r2, [r1, #4]
 80002fe:	4911      	ldr	r1, [pc, #68]	; (8000344 <_ZN12_GLOBAL__N_119initial_20_ms_eventEv+0xb0>)
 8000300:	600a      	str	r2, [r1, #0]
 8000302:	4a16      	ldr	r2, [pc, #88]	; (800035c <_ZN12_GLOBAL__N_119initial_20_ms_eventEv+0xc8>)
 8000304:	f44f 71fa 	mov.w	r1, #500	; 0x1f4
 8000308:	6011      	str	r1, [r2, #0]
 800030a:	6051      	str	r1, [r2, #4]
 800030c:	6091      	str	r1, [r2, #8]
 800030e:	4a14      	ldr	r2, [pc, #80]	; (8000360 <_ZN12_GLOBAL__N_119initial_20_ms_eventEv+0xcc>)
 8000310:	6013      	str	r3, [r2, #0]
 8000312:	4a14      	ldr	r2, [pc, #80]	; (8000364 <_ZN12_GLOBAL__N_119initial_20_ms_eventEv+0xd0>)
 8000314:	f44f 7196 	mov.w	r1, #300	; 0x12c
 8000318:	6011      	str	r1, [r2, #0]
 800031a:	6051      	str	r1, [r2, #4]
 800031c:	f44f 712f 	mov.w	r1, #700	; 0x2bc
 8000320:	6091      	str	r1, [r2, #8]
 8000322:	4a11      	ldr	r2, [pc, #68]	; (8000368 <_ZN12_GLOBAL__N_119initial_20_ms_eventEv+0xd4>)
 8000324:	4911      	ldr	r1, [pc, #68]	; (800036c <_ZN12_GLOBAL__N_119initial_20_ms_eventEv+0xd8>)
 8000326:	6013      	str	r3, [r2, #0]
 8000328:	4b07      	ldr	r3, [pc, #28]	; (8000348 <_ZN12_GLOBAL__N_119initial_20_ms_eventEv+0xb4>)
 800032a:	2202      	movs	r2, #2
 800032c:	6019      	str	r1, [r3, #0]
 800032e:	6042      	str	r2, [r0, #4]
 8000330:	bd10      	pop	{r4, pc}
 8000332:	bf00      	nop
 8000334:	1000090c 	.word	0x1000090c
 8000338:	42400200 	.word	0x42400200
 800033c:	100009d4 	.word	0x100009d4
 8000340:	100009ac 	.word	0x100009ac
 8000344:	424182b4 	.word	0x424182b4
 8000348:	10000000 	.word	0x10000000
 800034c:	080001b5 	.word	0x080001b5
 8000350:	080001d1 	.word	0x080001d1
 8000354:	0800dd20 	.word	0x0800dd20
 8000358:	10000953 	.word	0x10000953
 800035c:	100009c8 	.word	0x100009c8
 8000360:	424182bc 	.word	0x424182bc
 8000364:	100009b0 	.word	0x100009b0
 8000368:	424182b8 	.word	0x424182b8
 800036c:	080001a5 	.word	0x080001a5

08000370 <_ZN7azimuth7encoder4zeroEv>:
 8000370:	4b02      	ldr	r3, [pc, #8]	; (800037c <_ZN7azimuth7encoder4zeroEv+0xc>)
 8000372:	2000      	movs	r0, #0
 8000374:	6258      	str	r0, [r3, #36]	; 0x24
 8000376:	f000 b977 	b.w	8000668 <_ZN7azimuth5motor19set_target_positionEm>
 800037a:	bf00      	nop
 800037c:	40000400 	.word	0x40000400

08000380 <_ZN7azimuth7encoder5setupEv>:
 8000380:	4b29      	ldr	r3, [pc, #164]	; (8000428 <_ZN7azimuth7encoder5setupEv+0xa8>)
 8000382:	6b1a      	ldr	r2, [r3, #48]	; 0x30
 8000384:	f042 0002 	orr.w	r0, r2, #2
 8000388:	6318      	str	r0, [r3, #48]	; 0x30
 800038a:	6b19      	ldr	r1, [r3, #48]	; 0x30
 800038c:	4827      	ldr	r0, [pc, #156]	; (800042c <_ZN7azimuth7encoder5setupEv+0xac>)
 800038e:	f041 0204 	orr.w	r2, r1, #4
 8000392:	631a      	str	r2, [r3, #48]	; 0x30
 8000394:	6801      	ldr	r1, [r0, #0]
 8000396:	f421 6240 	bic.w	r2, r1, #3072	; 0xc00
 800039a:	f442 6100 	orr.w	r1, r2, #2048	; 0x800
 800039e:	6001      	str	r1, [r0, #0]
 80003a0:	6a02      	ldr	r2, [r0, #32]
 80003a2:	f422 0170 	bic.w	r1, r2, #15728640	; 0xf00000
 80003a6:	f441 1200 	orr.w	r2, r1, #2097152	; 0x200000
 80003aa:	6202      	str	r2, [r0, #32]
 80003ac:	f8d0 1400 	ldr.w	r1, [r0, #1024]	; 0x400
 80003b0:	f421 5240 	bic.w	r2, r1, #12288	; 0x3000
 80003b4:	f442 5100 	orr.w	r1, r2, #8192	; 0x2000
 80003b8:	f8c0 1400 	str.w	r1, [r0, #1024]	; 0x400
 80003bc:	f8d0 2420 	ldr.w	r2, [r0, #1056]	; 0x420
 80003c0:	f022 6170 	bic.w	r1, r2, #251658240	; 0xf000000
 80003c4:	f041 7200 	orr.w	r2, r1, #33554432	; 0x2000000
 80003c8:	4919      	ldr	r1, [pc, #100]	; (8000430 <_ZN7azimuth7encoder5setupEv+0xb0>)
 80003ca:	f8c0 2420 	str.w	r2, [r0, #1056]	; 0x420
 80003ce:	2200      	movs	r2, #0
 80003d0:	600a      	str	r2, [r1, #0]
 80003d2:	6c18      	ldr	r0, [r3, #64]	; 0x40
 80003d4:	f040 0002 	orr.w	r0, r0, #2
 80003d8:	6418      	str	r0, [r3, #64]	; 0x40
 80003da:	6a18      	ldr	r0, [r3, #32]
 80003dc:	f040 0002 	orr.w	r0, r0, #2
 80003e0:	6218      	str	r0, [r3, #32]
 80003e2:	6a18      	ldr	r0, [r3, #32]
 80003e4:	f020 0002 	bic.w	r0, r0, #2
 80003e8:	6218      	str	r0, [r3, #32]
 80003ea:	f5a3 330d 	sub.w	r3, r3, #144384	; 0x23400
 80003ee:	f242 507f 	movw	r0, #9599	; 0x257f
 80003f2:	62d8      	str	r0, [r3, #44]	; 0x2c
 80003f4:	625a      	str	r2, [r3, #36]	; 0x24
 80003f6:	6898      	ldr	r0, [r3, #8]
 80003f8:	f020 0004 	bic.w	r0, r0, #4
 80003fc:	f040 0003 	orr.w	r0, r0, #3
 8000400:	6098      	str	r0, [r3, #8]
 8000402:	6998      	ldr	r0, [r3, #24]
 8000404:	f420 7000 	bic.w	r0, r0, #512	; 0x200
 8000408:	f020 0002 	bic.w	r0, r0, #2
 800040c:	f440 7080 	orr.w	r0, r0, #256	; 0x100
 8000410:	f040 0001 	orr.w	r0, r0, #1
 8000414:	6198      	str	r0, [r3, #24]
 8000416:	6a18      	ldr	r0, [r3, #32]
 8000418:	f020 00aa 	bic.w	r0, r0, #170	; 0xaa
 800041c:	6218      	str	r0, [r3, #32]
 800041e:	60da      	str	r2, [r3, #12]
 8000420:	611a      	str	r2, [r3, #16]
 8000422:	2201      	movs	r2, #1
 8000424:	600a      	str	r2, [r1, #0]
 8000426:	4770      	bx	lr
 8000428:	40023800 	.word	0x40023800
 800042c:	40020400 	.word	0x40020400
 8000430:	42008000 	.word	0x42008000

08000434 <_ZN7azimuth5motor9setup_pwmEv>:
 8000434:	f04f 4380 	mov.w	r3, #1073741824	; 0x40000000
 8000438:	68da      	ldr	r2, [r3, #12]
 800043a:	f422 7000 	bic.w	r0, r2, #512	; 0x200
 800043e:	60d8      	str	r0, [r3, #12]
 8000440:	68d9      	ldr	r1, [r3, #12]
 8000442:	f021 0202 	bic.w	r2, r1, #2
 8000446:	60da      	str	r2, [r3, #12]
 8000448:	6918      	ldr	r0, [r3, #16]
 800044a:	f020 0102 	bic.w	r1, r0, #2
 800044e:	6119      	str	r1, [r3, #16]
 8000450:	6a1a      	ldr	r2, [r3, #32]
 8000452:	f022 000b 	bic.w	r0, r2, #11
 8000456:	6218      	str	r0, [r3, #32]
 8000458:	6999      	ldr	r1, [r3, #24]
 800045a:	f021 0213 	bic.w	r2, r1, #19
 800045e:	f042 0068 	orr.w	r0, r2, #104	; 0x68
 8000462:	2100      	movs	r1, #0
 8000464:	6198      	str	r0, [r3, #24]
 8000466:	6359      	str	r1, [r3, #52]	; 0x34
 8000468:	6a1a      	ldr	r2, [r3, #32]
 800046a:	f042 0001 	orr.w	r0, r2, #1
 800046e:	6218      	str	r0, [r3, #32]
 8000470:	4770      	bx	lr

08000472 <_ZN7azimuth5motor18setup_calc_compareEv>:
 8000472:	f04f 4380 	mov.w	r3, #1073741824	; 0x40000000
 8000476:	68da      	ldr	r2, [r3, #12]
 8000478:	f042 0010 	orr.w	r0, r2, #16
 800047c:	60d8      	str	r0, [r3, #12]
 800047e:	68d9      	ldr	r1, [r3, #12]
 8000480:	f421 5280 	bic.w	r2, r1, #4096	; 0x1000
 8000484:	60da      	str	r2, [r3, #12]
 8000486:	6918      	ldr	r0, [r3, #16]
 8000488:	f020 0110 	bic.w	r1, r0, #16
 800048c:	6119      	str	r1, [r3, #16]
 800048e:	6a1a      	ldr	r2, [r3, #32]
 8000490:	f422 4010 	bic.w	r0, r2, #36864	; 0x9000
 8000494:	6218      	str	r0, [r3, #32]
 8000496:	69d9      	ldr	r1, [r3, #28]
 8000498:	f248 40d0 	movw	r0, #34000	; 0x84d0
 800049c:	f421 42f6 	bic.w	r2, r1, #31488	; 0x7b00
 80004a0:	61da      	str	r2, [r3, #28]
 80004a2:	6418      	str	r0, [r3, #64]	; 0x40
 80004a4:	6a19      	ldr	r1, [r3, #32]
 80004a6:	f441 5280 	orr.w	r2, r1, #4096	; 0x1000
 80004aa:	621a      	str	r2, [r3, #32]
 80004ac:	4770      	bx	lr

080004ae <_ZN7azimuth5motor6set_kPEf>:
 80004ae:	4b02      	ldr	r3, [pc, #8]	; (80004b8 <_ZN7azimuth5motor6set_kPEf+0xa>)
 80004b0:	ed83 0a00 	vstr	s0, [r3]
 80004b4:	4770      	bx	lr
 80004b6:	bf00      	nop
 80004b8:	1000000c 	.word	0x1000000c

080004bc <_ZN7azimuth5motor6set_kDEf>:
 80004bc:	4b01      	ldr	r3, [pc, #4]	; (80004c4 <_ZN7azimuth5motor6set_kDEf+0x8>)
 80004be:	ed83 0a01 	vstr	s0, [r3, #4]
 80004c2:	4770      	bx	lr
 80004c4:	1000000c 	.word	0x1000000c

080004c8 <_ZN7azimuth5motor6get_kPEv>:
 80004c8:	4b01      	ldr	r3, [pc, #4]	; (80004d0 <_ZN7azimuth5motor6get_kPEv+0x8>)
 80004ca:	ed93 0a00 	vldr	s0, [r3]
 80004ce:	4770      	bx	lr
 80004d0:	1000000c 	.word	0x1000000c

080004d4 <_ZN7azimuth5motor6get_kDEv>:
 80004d4:	4b01      	ldr	r3, [pc, #4]	; (80004dc <_ZN7azimuth5motor6get_kDEv+0x8>)
 80004d6:	ed93 0a01 	vldr	s0, [r3, #4]
 80004da:	4770      	bx	lr
 80004dc:	1000000c 	.word	0x1000000c

080004e0 <_ZN7azimuth5motor11setup_portsEv>:
 80004e0:	b51f      	push	{r0, r1, r2, r3, r4, lr}
 80004e2:	4b14      	ldr	r3, [pc, #80]	; (8000534 <_ZN7azimuth5motor11setup_portsEv+0x54>)
 80004e4:	6b1a      	ldr	r2, [r3, #48]	; 0x30
 80004e6:	f042 0001 	orr.w	r0, r2, #1
 80004ea:	6318      	str	r0, [r3, #48]	; 0x30
 80004ec:	6b19      	ldr	r1, [r3, #48]	; 0x30
 80004ee:	f041 0202 	orr.w	r2, r1, #2
 80004f2:	631a      	str	r2, [r3, #48]	; 0x30
 80004f4:	6b18      	ldr	r0, [r3, #48]	; 0x30
 80004f6:	f040 0101 	orr.w	r1, r0, #1
 80004fa:	6319      	str	r1, [r3, #48]	; 0x30
 80004fc:	f5a3 5360 	sub.w	r3, r3, #14336	; 0x3800
 8000500:	681a      	ldr	r2, [r3, #0]
 8000502:	f022 4040 	bic.w	r0, r2, #3221225472	; 0xc0000000
 8000506:	f040 4100 	orr.w	r1, r0, #2147483648	; 0x80000000
 800050a:	6019      	str	r1, [r3, #0]
 800050c:	685a      	ldr	r2, [r3, #4]
 800050e:	f422 4000 	bic.w	r0, r2, #32768	; 0x8000
 8000512:	6058      	str	r0, [r3, #4]
 8000514:	a801      	add	r0, sp, #4
 8000516:	f002 fde3 	bl	80030e0 <_ZNK4quan4meta4impl27for_each_type_sequence_implINS0_13type_sequenceIINS_5stm3210periph_regINS4_4gpio6moduleILm1073872896EEELm8EmEENS5_IS8_Lm12EmEENS5_IS8_Lm16EmEENS5_IS8_Lm20EmEENS5_IS8_Lm24EmEENS5_IS8_Lm28EmEENS5_IS8_Lm32EmEENS5_IS8_Lm36EmEEEEENS4_6detail24apply_periph_reg_actionsIS8_NS3_IINSI_17periph_reg_actionINS5_IS8_Lm0EmEENS0_6bit_orELm2147483648EEENSK_ISL_NS0_7bit_andELm3221225471EEENSK_ISG_SM_Lm268435456EEENSK_ISG_SO_Lm536870911EEENSK_INS5_IS8_Lm4EmEESM_Lm0EEENSK_ISS_SO_Lm4294934527EEENSK_IS9_SM_Lm0EEENSK_IS9_SO_Lm1073741823EEENSK_ISC_SO_Lm4294934527EEEEEEEELb1EvEclEv>
 800051a:	f002 fdf3 	bl	8003104 <_ZN4quan5stm326detail26periph_reg_combined_actionINS0_10periph_regINS0_4gpio6moduleILm1073873920EEELm0EmEELm1ELm4294967293EE11with_or_fun5applyEv>
 800051e:	a802      	add	r0, sp, #8
 8000520:	f002 fdbe 	bl	80030a0 <_ZNK4quan4meta4impl27for_each_type_sequence_implINS0_13type_sequenceIINS_5stm3210periph_regINS4_4gpio6moduleILm1073873920EEELm4EmEENS5_IS8_Lm8EmEENS5_IS8_Lm12EmEENS5_IS8_Lm16EmEENS5_IS8_Lm20EmEENS5_IS8_Lm24EmEENS5_IS8_Lm28EmEENS5_IS8_Lm32EmEENS5_IS8_Lm36EmEEEEENS4_6detail24apply_periph_reg_actionsIS8_NS3_IINSJ_17periph_reg_actionINS5_IS8_Lm0EmEENS0_6bit_orELm1EEENSL_ISM_NS0_7bit_andELm4294967293EEENSL_IS9_SN_Lm0EEENSL_IS9_SP_Lm4294967294EEENSL_ISA_SN_Lm0EEENSL_ISA_SP_Lm4294967292EEENSL_ISD_SP_Lm4294967294EEEEEEEELb1EvEclEv>
 8000524:	f002 fdf8 	bl	8003118 <_ZN4quan5stm326detail26periph_reg_combined_actionINS0_10periph_regINS0_4gpio6moduleILm1073872896EEELm0EmEELm65536ELm4294836223EE11with_or_fun5applyEv>
 8000528:	a803      	add	r0, sp, #12
 800052a:	f002 fdc9 	bl	80030c0 <_ZNK4quan4meta4impl27for_each_type_sequence_implINS0_13type_sequenceIINS_5stm3210periph_regINS4_4gpio6moduleILm1073872896EEELm4EmEENS5_IS8_Lm8EmEENS5_IS8_Lm12EmEENS5_IS8_Lm16EmEENS5_IS8_Lm20EmEENS5_IS8_Lm24EmEENS5_IS8_Lm28EmEENS5_IS8_Lm32EmEENS5_IS8_Lm36EmEEEEENS4_6detail24apply_periph_reg_actionsIS8_NS3_IINSJ_17periph_reg_actionINS5_IS8_Lm0EmEENS0_6bit_orELm65536EEENSL_ISM_NS0_7bit_andELm4294836223EEENSL_IS9_SN_Lm0EEENSL_IS9_SP_Lm4294967039EEENSL_ISA_SN_Lm0EEENSL_ISA_SP_Lm4294770687EEENSL_ISD_SP_Lm4294967039EEEEEEEELb1EvEclEv>
 800052e:	b005      	add	sp, #20
 8000530:	bd00      	pop	{pc}
 8000532:	bf00      	nop
 8000534:	40023800 	.word	0x40023800

08000538 <_ZNK4quan11impl_detail23arithmetic_convert_implIfdvEclERKd.isra.8>:
 8000538:	b538      	push	{r3, r4, r5, lr}
 800053a:	f04f 4260 	mov.w	r2, #3758096384	; 0xe0000000
 800053e:	4b12      	ldr	r3, [pc, #72]	; (8000588 <_ZNK4quan11impl_detail23arithmetic_convert_implIfdvEclERKd.isra.8+0x50>)
 8000540:	4604      	mov	r4, r0
 8000542:	460d      	mov	r5, r1
 8000544:	f002 f8a6 	bl	8002694 <__aeabi_dcmpge>
 8000548:	b138      	cbz	r0, 800055a <_ZNK4quan11impl_detail23arithmetic_convert_implIfdvEclERKd.isra.8+0x22>
 800054a:	4620      	mov	r0, r4
 800054c:	4629      	mov	r1, r5
 800054e:	f04f 4260 	mov.w	r2, #3758096384	; 0xe0000000
 8000552:	4b0e      	ldr	r3, [pc, #56]	; (800058c <_ZNK4quan11impl_detail23arithmetic_convert_implIfdvEclERKd.isra.8+0x54>)
 8000554:	f002 f894 	bl	8002680 <__aeabi_dcmple>
 8000558:	b970      	cbnz	r0, 8000578 <_ZNK4quan11impl_detail23arithmetic_convert_implIfdvEclERKd.isra.8+0x40>
 800055a:	2200      	movs	r2, #0
 800055c:	2300      	movs	r3, #0
 800055e:	4620      	mov	r0, r4
 8000560:	4629      	mov	r1, r5
 8000562:	f002 f8a1 	bl	80026a8 <__aeabi_dcmpgt>
 8000566:	eddf 7a0a 	vldr	s15, [pc, #40]	; 8000590 <_ZNK4quan11impl_detail23arithmetic_convert_implIfdvEclERKd.isra.8+0x58>
 800056a:	ed9f 0a0a 	vldr	s0, [pc, #40]	; 8000594 <_ZNK4quan11impl_detail23arithmetic_convert_implIfdvEclERKd.isra.8+0x5c>
 800056e:	2800      	cmp	r0, #0
 8000570:	bf08      	it	eq
 8000572:	eeb0 0a67 	vmoveq.f32	s0, s15
 8000576:	bd38      	pop	{r3, r4, r5, pc}
 8000578:	4620      	mov	r0, r4
 800057a:	4629      	mov	r1, r5
 800057c:	f002 f8c6 	bl	800270c <__aeabi_d2f>
 8000580:	ee00 0a10 	vmov	s0, r0
 8000584:	bd38      	pop	{r3, r4, r5, pc}
 8000586:	bf00      	nop
 8000588:	c7efffff 	.word	0xc7efffff
 800058c:	47efffff 	.word	0x47efffff
 8000590:	ff7fffff 	.word	0xff7fffff
 8000594:	7f7fffff 	.word	0x7f7fffff

08000598 <_ZN12_GLOBAL__N_117update_duty_cycleEf>:
 8000598:	b508      	push	{r3, lr}
 800059a:	eddf 0a1f 	vldr	s1, [pc, #124]	; 8000618 <_ZN12_GLOBAL__N_117update_duty_cycleEf+0x80>
 800059e:	ed2d 8b02 	vpush	{d8}
 80005a2:	eeb0 8a40 	vmov.f32	s16, s0
 80005a6:	eeb0 0ac0 	vabs.f32	s0, s0
 80005aa:	f00a faf5 	bl	800ab98 <fminf>
 80005ae:	4b1b      	ldr	r3, [pc, #108]	; (800061c <_ZN12_GLOBAL__N_117update_duty_cycleEf+0x84>)
 80005b0:	edd3 7a00 	vldr	s15, [r3]
 80005b4:	eddf 0a1a 	vldr	s1, [pc, #104]	; 8000620 <_ZN12_GLOBAL__N_117update_duty_cycleEf+0x88>
 80005b8:	eeb4 0ae7 	vcmpe.f32	s0, s15
 80005bc:	eef1 fa10 	vmrs	APSR_nzcv, fpscr
 80005c0:	ed9f 1a18 	vldr	s2, [pc, #96]	; 8000624 <_ZN12_GLOBAL__N_117update_duty_cycleEf+0x8c>
 80005c4:	bfd8      	it	le
 80005c6:	eeb0 0a60 	vmovle.f32	s0, s1
 80005ca:	ee20 0a01 	vmul.f32	s0, s0, s2
 80005ce:	f04f 4180 	mov.w	r1, #1073741824	; 0x40000000
 80005d2:	eefc 1ac0 	vcvt.u32.f32	s3, s0
 80005d6:	eeb5 8ac0 	vcmpe.f32	s16, #0.0
 80005da:	ee11 2a90 	vmov	r2, s3
 80005de:	eef1 fa10 	vmrs	APSR_nzcv, fpscr
 80005e2:	b290      	uxth	r0, r2
 80005e4:	6348      	str	r0, [r1, #52]	; 0x34
 80005e6:	f501 3301 	add.w	r3, r1, #132096	; 0x20400
 80005ea:	4a0f      	ldr	r2, [pc, #60]	; (8000628 <_ZN12_GLOBAL__N_117update_duty_cycleEf+0x90>)
 80005ec:	d408      	bmi.n	8000600 <_ZN12_GLOBAL__N_117update_duty_cycleEf+0x68>
 80005ee:	6959      	ldr	r1, [r3, #20]
 80005f0:	f041 0001 	orr.w	r0, r1, #1
 80005f4:	6158      	str	r0, [r3, #20]
 80005f6:	6953      	ldr	r3, [r2, #20]
 80005f8:	f423 7180 	bic.w	r1, r3, #256	; 0x100
 80005fc:	6151      	str	r1, [r2, #20]
 80005fe:	e007      	b.n	8000610 <_ZN12_GLOBAL__N_117update_duty_cycleEf+0x78>
 8000600:	6950      	ldr	r0, [r2, #20]
 8000602:	f440 7180 	orr.w	r1, r0, #256	; 0x100
 8000606:	6151      	str	r1, [r2, #20]
 8000608:	695a      	ldr	r2, [r3, #20]
 800060a:	f022 0001 	bic.w	r0, r2, #1
 800060e:	6158      	str	r0, [r3, #20]
 8000610:	ecbd 8b02 	vpop	{d8}
 8000614:	bd08      	pop	{r3, pc}
 8000616:	bf00      	nop
 8000618:	3f666666 	.word	0x3f666666
 800061c:	10000014 	.word	0x10000014
 8000620:	00000000 	.word	0x00000000
 8000624:	471c4000 	.word	0x471c4000
 8000628:	40020000 	.word	0x40020000

0800062c <_ZN7azimuth5motor6enableEv>:
 800062c:	4b01      	ldr	r3, [pc, #4]	; (8000634 <_ZN7azimuth5motor6enableEv+0x8>)
 800062e:	2201      	movs	r2, #1
 8000630:	701a      	strb	r2, [r3, #0]
 8000632:	4770      	bx	lr
 8000634:	1000091c 	.word	0x1000091c

08000638 <_ZN7azimuth5motor7disableEv>:
 8000638:	4b01      	ldr	r3, [pc, #4]	; (8000640 <_ZN7azimuth5motor7disableEv+0x8>)
 800063a:	2200      	movs	r2, #0
 800063c:	701a      	strb	r2, [r3, #0]
 800063e:	4770      	bx	lr
 8000640:	1000091c 	.word	0x1000091c

08000644 <_ZN7azimuth5motor7enabledEv>:
 8000644:	4b01      	ldr	r3, [pc, #4]	; (800064c <_ZN7azimuth5motor7enabledEv+0x8>)
 8000646:	7818      	ldrb	r0, [r3, #0]
 8000648:	4770      	bx	lr
 800064a:	bf00      	nop
 800064c:	1000091c 	.word	0x1000091c

08000650 <_ZN7azimuth5motor19get_actual_positionEv>:
 8000650:	4b01      	ldr	r3, [pc, #4]	; (8000658 <_ZN7azimuth5motor19get_actual_positionEv+0x8>)
 8000652:	6a58      	ldr	r0, [r3, #36]	; 0x24
 8000654:	4770      	bx	lr
 8000656:	bf00      	nop
 8000658:	40000400 	.word	0x40000400

0800065c <_ZN7azimuth5motor19get_target_positionEv>:
 800065c:	4b01      	ldr	r3, [pc, #4]	; (8000664 <_ZN7azimuth5motor19get_target_positionEv+0x8>)
 800065e:	6818      	ldr	r0, [r3, #0]
 8000660:	4770      	bx	lr
 8000662:	bf00      	nop
 8000664:	10000918 	.word	0x10000918

08000668 <_ZN7azimuth5motor19set_target_positionEm>:
 8000668:	f44f 5316 	mov.w	r3, #9600	; 0x2580
 800066c:	fb90 f2f3 	sdiv	r2, r0, r3
 8000670:	4902      	ldr	r1, [pc, #8]	; (800067c <_ZN7azimuth5motor19set_target_positionEm+0x14>)
 8000672:	fb02 0013 	mls	r0, r2, r3, r0
 8000676:	6008      	str	r0, [r1, #0]
 8000678:	4770      	bx	lr
 800067a:	bf00      	nop
 800067c:	10000918 	.word	0x10000918

08000680 <_ZN7azimuth5motor11set_azimuthEN4quan22fraction_of_revolutionINS1_4meta8rationalILx1ELx1EEENS4_ILx360ELx1EEEfEE>:
 8000680:	b510      	push	{r4, lr}
 8000682:	ed2d 8b04 	vpush	{d8-d9}
 8000686:	4604      	mov	r4, r0
 8000688:	b082      	sub	sp, #8
 800068a:	2000      	movs	r0, #0
 800068c:	2100      	movs	r1, #0
 800068e:	f7ff ff53 	bl	8000538 <_ZNK4quan11impl_detail23arithmetic_convert_implIfdvEclERKd.isra.8>
 8000692:	eef0 8a40 	vmov.f32	s17, s0
 8000696:	2300      	movs	r3, #0
 8000698:	4620      	mov	r0, r4
 800069a:	4669      	mov	r1, sp
 800069c:	aa01      	add	r2, sp, #4
 800069e:	9300      	str	r3, [sp, #0]
 80006a0:	edcd 8a01 	vstr	s17, [sp, #4]
 80006a4:	f002 fd42 	bl	800312c <_ZN4quan7compareINS_4meta8rationalILx1ELx1EEENS2_ILx360ELx1EEEfS4_fEEiRKNS_22fraction_of_revolutionIT_T0_T1_EERKNS5_IS6_T2_T3_EERKNS1_9binary_opIS9_NS1_5minusESE_vE4typeE>
 80006a8:	2800      	cmp	r0, #0
 80006aa:	ed9f 9a1a 	vldr	s18, [pc, #104]	; 8000714 <_ZN7azimuth5motor11set_azimuthEN4quan22fraction_of_revolutionINS1_4meta8rationalILx1ELx1EEENS4_ILx360ELx1EEEfEE+0x94>
 80006ae:	da06      	bge.n	80006be <_ZN7azimuth5motor11set_azimuthEN4quan22fraction_of_revolutionINS1_4meta8rationalILx1ELx1EEENS4_ILx360ELx1EEEfEE+0x3e>
 80006b0:	ed94 2a00 	vldr	s4, [r4]
 80006b4:	ee32 9a09 	vadd.f32	s18, s4, s18
 80006b8:	ed84 9a00 	vstr	s18, [r4]
 80006bc:	e7eb      	b.n	8000696 <_ZN7azimuth5motor11set_azimuthEN4quan22fraction_of_revolutionINS1_4meta8rationalILx1ELx1EEENS4_ILx360ELx1EEEfEE+0x16>
 80006be:	4620      	mov	r0, r4
 80006c0:	4669      	mov	r1, sp
 80006c2:	aa01      	add	r2, sp, #4
 80006c4:	ed8d 9a00 	vstr	s18, [sp]
 80006c8:	edcd 8a01 	vstr	s17, [sp, #4]
 80006cc:	f002 fd2e 	bl	800312c <_ZN4quan7compareINS_4meta8rationalILx1ELx1EEENS2_ILx360ELx1EEEfS4_fEEiRKNS_22fraction_of_revolutionIT_T0_T1_EERKNS5_IS6_T2_T3_EERKNS1_9binary_opIS9_NS1_5minusESE_vE4typeE>
 80006d0:	2800      	cmp	r0, #0
 80006d2:	ed9f 8a10 	vldr	s16, [pc, #64]	; 8000714 <_ZN7azimuth5motor11set_azimuthEN4quan22fraction_of_revolutionINS1_4meta8rationalILx1ELx1EEENS4_ILx360ELx1EEEfEE+0x94>
 80006d6:	edd4 7a00 	vldr	s15, [r4]
 80006da:	dd04      	ble.n	80006e6 <_ZN7azimuth5motor11set_azimuthEN4quan22fraction_of_revolutionINS1_4meta8rationalILx1ELx1EEENS4_ILx360ELx1EEEfEE+0x66>
 80006dc:	ee77 1ac8 	vsub.f32	s3, s15, s16
 80006e0:	edc4 1a00 	vstr	s3, [r4]
 80006e4:	e7eb      	b.n	80006be <_ZN7azimuth5motor11set_azimuthEN4quan22fraction_of_revolutionINS1_4meta8rationalILx1ELx1EEENS4_ILx360ELx1EEEfEE+0x3e>
 80006e6:	ee38 0a67 	vsub.f32	s0, s16, s15
 80006ea:	eddf 0a0b 	vldr	s1, [pc, #44]	; 8000718 <_ZN7azimuth5motor11set_azimuthEN4quan22fraction_of_revolutionINS1_4meta8rationalILx1ELx1EEENS4_ILx360ELx1EEEfEE+0x98>
 80006ee:	ee20 1a20 	vmul.f32	s2, s0, s1
 80006f2:	f44f 5016 	mov.w	r0, #9600	; 0x2580
 80006f6:	eebc 8ac1 	vcvt.u32.f32	s16, s2
 80006fa:	ee18 2a10 	vmov	r2, s16
 80006fe:	fb92 f1f0 	sdiv	r1, r2, r0
 8000702:	fb00 2311 	mls	r3, r0, r1, r2
 8000706:	4a05      	ldr	r2, [pc, #20]	; (800071c <_ZN7azimuth5motor11set_azimuthEN4quan22fraction_of_revolutionINS1_4meta8rationalILx1ELx1EEENS4_ILx360ELx1EEEfEE+0x9c>)
 8000708:	6013      	str	r3, [r2, #0]
 800070a:	b002      	add	sp, #8
 800070c:	ecbd 8b04 	vpop	{d8-d9}
 8000710:	bd10      	pop	{r4, pc}
 8000712:	bf00      	nop
 8000714:	43b40000 	.word	0x43b40000
 8000718:	41d55555 	.word	0x41d55555
 800071c:	10000918 	.word	0x10000918

08000720 <_ZN7azimuth5motor18get_target_azimuthEv>:
 8000720:	4b08      	ldr	r3, [pc, #32]	; (8000744 <_ZN7azimuth5motor18get_target_azimuthEv+0x24>)
 8000722:	ed93 7a00 	vldr	s14, [r3]
 8000726:	eddf 7a08 	vldr	s15, [pc, #32]	; 8000748 <_ZN7azimuth5motor18get_target_azimuthEv+0x28>
 800072a:	eeb8 0ac7 	vcvt.f32.s32	s0, s14
 800072e:	eddf 6a07 	vldr	s13, [pc, #28]	; 800074c <_ZN7azimuth5motor18get_target_azimuthEv+0x2c>
 8000732:	ee60 0a27 	vmul.f32	s1, s0, s15
 8000736:	ee80 1aa6 	vdiv.f32	s2, s1, s13
 800073a:	ee71 1a67 	vsub.f32	s3, s2, s15
 800073e:	edc0 1a00 	vstr	s3, [r0]
 8000742:	4770      	bx	lr
 8000744:	10000918 	.word	0x10000918
 8000748:	43b40000 	.word	0x43b40000
 800074c:	46160000 	.word	0x46160000

08000750 <_ZN7azimuth5motor7do_calcEv>:
 8000750:	492e      	ldr	r1, [pc, #184]	; (800080c <_ZN7azimuth5motor7do_calcEv+0xbc>)
 8000752:	4b2f      	ldr	r3, [pc, #188]	; (8000810 <_ZN7azimuth5motor7do_calcEv+0xc0>)
 8000754:	680a      	ldr	r2, [r1, #0]
 8000756:	6a58      	ldr	r0, [r3, #36]	; 0x24
 8000758:	f5b2 5fe1 	cmp.w	r2, #7200	; 0x1c20
 800075c:	6008      	str	r0, [r1, #0]
 800075e:	dd02      	ble.n	8000766 <_ZN7azimuth5motor7do_calcEv+0x16>
 8000760:	f5b0 6f16 	cmp.w	r0, #2400	; 0x960
 8000764:	db4c      	blt.n	8000800 <_ZN7azimuth5motor7do_calcEv+0xb0>
 8000766:	f5b0 5fe1 	cmp.w	r0, #7200	; 0x1c20
 800076a:	dd4d      	ble.n	8000808 <_ZN7azimuth5motor7do_calcEv+0xb8>
 800076c:	f5b2 6f16 	cmp.w	r2, #2400	; 0x960
 8000770:	da4a      	bge.n	8000808 <_ZN7azimuth5motor7do_calcEv+0xb8>
 8000772:	4928      	ldr	r1, [pc, #160]	; (8000814 <_ZN7azimuth5motor7do_calcEv+0xc4>)
 8000774:	1a8b      	subs	r3, r1, r2
 8000776:	18c2      	adds	r2, r0, r3
 8000778:	4927      	ldr	r1, [pc, #156]	; (8000818 <_ZN7azimuth5motor7do_calcEv+0xc8>)
 800077a:	680b      	ldr	r3, [r1, #0]
 800077c:	1a1b      	subs	r3, r3, r0
 800077e:	f5b3 5f96 	cmp.w	r3, #4800	; 0x12c0
 8000782:	dd02      	ble.n	800078a <_ZN7azimuth5motor7do_calcEv+0x3a>
 8000784:	f5a3 5316 	sub.w	r3, r3, #9600	; 0x2580
 8000788:	e004      	b.n	8000794 <_ZN7azimuth5motor7do_calcEv+0x44>
 800078a:	f513 5f96 	cmn.w	r3, #4800	; 0x12c0
 800078e:	bfb8      	it	lt
 8000790:	f503 5316 	addlt.w	r3, r3, #9600	; 0x2580
 8000794:	ea83 70e3 	eor.w	r0, r3, r3, asr #31
 8000798:	eba0 70e3 	sub.w	r0, r0, r3, asr #31
 800079c:	2805      	cmp	r0, #5
 800079e:	491f      	ldr	r1, [pc, #124]	; (800081c <_ZN7azimuth5motor7do_calcEv+0xcc>)
 80007a0:	dd0d      	ble.n	80007be <_ZN7azimuth5motor7do_calcEv+0x6e>
 80007a2:	b962      	cbnz	r2, 80007be <_ZN7azimuth5motor7do_calcEv+0x6e>
 80007a4:	ee07 3a90 	vmov	s15, r3
 80007a8:	ed91 0a00 	vldr	s0, [r1]
 80007ac:	eef8 6ae7 	vcvt.f32.s32	s13, s15
 80007b0:	ed9f 7a1b 	vldr	s14, [pc, #108]	; 8000820 <_ZN7azimuth5motor7do_calcEv+0xd0>
 80007b4:	ee06 0a87 	vmla.f32	s0, s13, s14
 80007b8:	ed81 0a00 	vstr	s0, [r1]
 80007bc:	e001      	b.n	80007c2 <_ZN7azimuth5motor7do_calcEv+0x72>
 80007be:	2000      	movs	r0, #0
 80007c0:	6008      	str	r0, [r1, #0]
 80007c2:	4918      	ldr	r1, [pc, #96]	; (8000824 <_ZN7azimuth5motor7do_calcEv+0xd4>)
 80007c4:	7808      	ldrb	r0, [r1, #0]
 80007c6:	b1b8      	cbz	r0, 80007f8 <_ZN7azimuth5motor7do_calcEv+0xa8>
 80007c8:	ee02 2a10 	vmov	s4, r2
 80007cc:	4a16      	ldr	r2, [pc, #88]	; (8000828 <_ZN7azimuth5motor7do_calcEv+0xd8>)
 80007ce:	4913      	ldr	r1, [pc, #76]	; (800081c <_ZN7azimuth5motor7do_calcEv+0xcc>)
 80007d0:	ee00 3a90 	vmov	s1, r3
 80007d4:	4b15      	ldr	r3, [pc, #84]	; (800082c <_ZN7azimuth5motor7do_calcEv+0xdc>)
 80007d6:	eeb8 6ac2 	vcvt.f32.s32	s12, s4
 80007da:	edd2 2a00 	vldr	s5, [r2]
 80007de:	eeb8 1ae0 	vcvt.f32.s32	s2, s1
 80007e2:	edd3 1a00 	vldr	s3, [r3]
 80007e6:	ee26 3a22 	vmul.f32	s6, s12, s5
 80007ea:	ee11 3a21 	vnmls.f32	s6, s2, s3
 80007ee:	edd1 3a00 	vldr	s7, [r1]
 80007f2:	ee33 0a23 	vadd.f32	s0, s6, s7
 80007f6:	e001      	b.n	80007fc <_ZN7azimuth5motor7do_calcEv+0xac>
 80007f8:	ed9f 0a0d 	vldr	s0, [pc, #52]	; 8000830 <_ZN7azimuth5motor7do_calcEv+0xe0>
 80007fc:	f7ff becc 	b.w	8000598 <_ZN12_GLOBAL__N_117update_duty_cycleEf>
 8000800:	f5c2 5216 	rsb	r2, r2, #9600	; 0x2580
 8000804:	1812      	adds	r2, r2, r0
 8000806:	e7b7      	b.n	8000778 <_ZN7azimuth5motor7do_calcEv+0x28>
 8000808:	1a82      	subs	r2, r0, r2
 800080a:	e7b5      	b.n	8000778 <_ZN7azimuth5motor7do_calcEv+0x28>
 800080c:	10000914 	.word	0x10000914
 8000810:	40000400 	.word	0x40000400
 8000814:	ffffda80 	.word	0xffffda80
 8000818:	10000918 	.word	0x10000918
 800081c:	10000920 	.word	0x10000920
 8000820:	37a7c5ac 	.word	0x37a7c5ac
 8000824:	1000091c 	.word	0x1000091c
 8000828:	10000010 	.word	0x10000010
 800082c:	1000000c 	.word	0x1000000c
 8000830:	00000000 	.word	0x00000000

08000834 <_ZNK4quan11impl_detail23arithmetic_convert_implIfdvEclERKd.isra.28>:
 8000834:	b538      	push	{r3, r4, r5, lr}
 8000836:	f04f 4260 	mov.w	r2, #3758096384	; 0xe0000000
 800083a:	4b12      	ldr	r3, [pc, #72]	; (8000884 <_ZNK4quan11impl_detail23arithmetic_convert_implIfdvEclERKd.isra.28+0x50>)
 800083c:	4604      	mov	r4, r0
 800083e:	460d      	mov	r5, r1
 8000840:	f001 ff28 	bl	8002694 <__aeabi_dcmpge>
 8000844:	b138      	cbz	r0, 8000856 <_ZNK4quan11impl_detail23arithmetic_convert_implIfdvEclERKd.isra.28+0x22>
 8000846:	4620      	mov	r0, r4
 8000848:	4629      	mov	r1, r5
 800084a:	f04f 4260 	mov.w	r2, #3758096384	; 0xe0000000
 800084e:	4b0e      	ldr	r3, [pc, #56]	; (8000888 <_ZNK4quan11impl_detail23arithmetic_convert_implIfdvEclERKd.isra.28+0x54>)
 8000850:	f001 ff16 	bl	8002680 <__aeabi_dcmple>
 8000854:	b970      	cbnz	r0, 8000874 <_ZNK4quan11impl_detail23arithmetic_convert_implIfdvEclERKd.isra.28+0x40>
 8000856:	2200      	movs	r2, #0
 8000858:	2300      	movs	r3, #0
 800085a:	4620      	mov	r0, r4
 800085c:	4629      	mov	r1, r5
 800085e:	f001 ff23 	bl	80026a8 <__aeabi_dcmpgt>
 8000862:	eddf 7a0a 	vldr	s15, [pc, #40]	; 800088c <_ZNK4quan11impl_detail23arithmetic_convert_implIfdvEclERKd.isra.28+0x58>
 8000866:	ed9f 0a0a 	vldr	s0, [pc, #40]	; 8000890 <_ZNK4quan11impl_detail23arithmetic_convert_implIfdvEclERKd.isra.28+0x5c>
 800086a:	2800      	cmp	r0, #0
 800086c:	bf08      	it	eq
 800086e:	eeb0 0a67 	vmoveq.f32	s0, s15
 8000872:	bd38      	pop	{r3, r4, r5, pc}
 8000874:	4620      	mov	r0, r4
 8000876:	4629      	mov	r1, r5
 8000878:	f001 ff48 	bl	800270c <__aeabi_d2f>
 800087c:	ee00 0a10 	vmov	s0, r0
 8000880:	bd38      	pop	{r3, r4, r5, pc}
 8000882:	bf00      	nop
 8000884:	c7efffff 	.word	0xc7efffff
 8000888:	47efffff 	.word	0x47efffff
 800088c:	ff7fffff 	.word	0xff7fffff
 8000890:	7f7fffff 	.word	0x7f7fffff

08000894 <_ZN9main_loop5setupEv>:
 8000894:	b538      	push	{r3, r4, r5, lr}
 8000896:	f04f 4584 	mov.w	r5, #1107296256	; 0x42000000
 800089a:	2300      	movs	r3, #0
 800089c:	4a19      	ldr	r2, [pc, #100]	; (8000904 <_ZN9main_loop5setupEv+0x70>)
 800089e:	602b      	str	r3, [r5, #0]
 80008a0:	6c11      	ldr	r1, [r2, #64]	; 0x40
 80008a2:	f04f 4480 	mov.w	r4, #1073741824	; 0x40000000
 80008a6:	f041 0001 	orr.w	r0, r1, #1
 80008aa:	f649 4140 	movw	r1, #40000	; 0x9c40
 80008ae:	6410      	str	r0, [r2, #64]	; 0x40
 80008b0:	1e48      	subs	r0, r1, #1
 80008b2:	2229      	movs	r2, #41	; 0x29
 80008b4:	62a2      	str	r2, [r4, #40]	; 0x28
 80008b6:	62e1      	str	r1, [r4, #44]	; 0x2c
 80008b8:	6260      	str	r0, [r4, #36]	; 0x24
 80008ba:	6822      	ldr	r2, [r4, #0]
 80008bc:	f422 717e 	bic.w	r1, r2, #1016	; 0x3f8
 80008c0:	f041 0006 	orr.w	r0, r1, #6
 80008c4:	6020      	str	r0, [r4, #0]
 80008c6:	60e3      	str	r3, [r4, #12]
 80008c8:	6163      	str	r3, [r4, #20]
 80008ca:	68a3      	ldr	r3, [r4, #8]
 80008cc:	f023 0207 	bic.w	r2, r3, #7
 80008d0:	60a2      	str	r2, [r4, #8]
 80008d2:	f7ff fdce 	bl	8000472 <_ZN7azimuth5motor18setup_calc_compareEv>
 80008d6:	f7ff fdad 	bl	8000434 <_ZN7azimuth5motor9setup_pwmEv>
 80008da:	f000 f88f 	bl	80009fc <_ZN9main_loop25elevation_servo_setup_pwmEv>
 80008de:	490a      	ldr	r1, [pc, #40]	; (8000908 <_ZN9main_loop5setupEv+0x74>)
 80008e0:	20a0      	movs	r0, #160	; 0xa0
 80008e2:	f04f 5380 	mov.w	r3, #268435456	; 0x10000000
 80008e6:	f881 031c 	strb.w	r0, [r1, #796]	; 0x31c
 80008ea:	600b      	str	r3, [r1, #0]
 80008ec:	68e2      	ldr	r2, [r4, #12]
 80008ee:	f042 0101 	orr.w	r1, r2, #1
 80008f2:	60e1      	str	r1, [r4, #12]
 80008f4:	6820      	ldr	r0, [r4, #0]
 80008f6:	2201      	movs	r2, #1
 80008f8:	f020 0302 	bic.w	r3, r0, #2
 80008fc:	6023      	str	r3, [r4, #0]
 80008fe:	602a      	str	r2, [r5, #0]
 8000900:	bd38      	pop	{r3, r4, r5, pc}
 8000902:	bf00      	nop
 8000904:	40023800 	.word	0x40023800
 8000908:	e000e100 	.word	0xe000e100

0800090c <TIM2_IRQHandler>:
 800090c:	f04f 4380 	mov.w	r3, #1073741824	; 0x40000000
 8000910:	4668      	mov	r0, sp
 8000912:	691a      	ldr	r2, [r3, #16]
 8000914:	f020 0107 	bic.w	r1, r0, #7
 8000918:	468d      	mov	sp, r1
 800091a:	07d1      	lsls	r1, r2, #31
 800091c:	b501      	push	{r0, lr}
 800091e:	d50d      	bpl.n	800093c <TIM2_IRQHandler+0x30>
 8000920:	f248 40d0 	movw	r0, #34000	; 0x84d0
 8000924:	490b      	ldr	r1, [pc, #44]	; (8000954 <TIM2_IRQHandler+0x48>)
 8000926:	6418      	str	r0, [r3, #64]	; 0x40
 8000928:	6808      	ldr	r0, [r1, #0]
 800092a:	0041      	lsls	r1, r0, #1
 800092c:	6399      	str	r1, [r3, #56]	; 0x38
 800092e:	f103 2302 	add.w	r3, r3, #33554944	; 0x2000200
 8000932:	2000      	movs	r0, #0
 8000934:	6018      	str	r0, [r3, #0]
 8000936:	4808      	ldr	r0, [pc, #32]	; (8000958 <TIM2_IRQHandler+0x4c>)
 8000938:	2101      	movs	r1, #1
 800093a:	7001      	strb	r1, [r0, #0]
 800093c:	06d3      	lsls	r3, r2, #27
 800093e:	d505      	bpl.n	800094c <TIM2_IRQHandler+0x40>
 8000940:	4b06      	ldr	r3, [pc, #24]	; (800095c <TIM2_IRQHandler+0x50>)
 8000942:	4807      	ldr	r0, [pc, #28]	; (8000960 <TIM2_IRQHandler+0x54>)
 8000944:	2201      	movs	r2, #1
 8000946:	2100      	movs	r1, #0
 8000948:	701a      	strb	r2, [r3, #0]
 800094a:	6001      	str	r1, [r0, #0]
 800094c:	e8bd 4001 	ldmia.w	sp!, {r0, lr}
 8000950:	4685      	mov	sp, r0
 8000952:	4770      	bx	lr
 8000954:	10000018 	.word	0x10000018
 8000958:	10000909 	.word	0x10000909
 800095c:	1000090a 	.word	0x1000090a
 8000960:	42000210 	.word	0x42000210

08000964 <_ZN9main_loop13set_elevationEN4quan22fraction_of_revolutionINS0_4meta8rationalILx1ELx1EEENS3_ILx360ELx1EEEfEE>:
 8000964:	b530      	push	{r4, r5, lr}
 8000966:	ed2d 8b02 	vpush	{d8}
 800096a:	ed9f 8a20 	vldr	s16, [pc, #128]	; 80009ec <_ZN9main_loop13set_elevationEN4quan22fraction_of_revolutionINS0_4meta8rationalILx1ELx1EEENS3_ILx360ELx1EEEfEE+0x88>
 800096e:	b087      	sub	sp, #28
 8000970:	4604      	mov	r4, r0
 8000972:	2100      	movs	r1, #0
 8000974:	2000      	movs	r0, #0
 8000976:	ed8d 8a01 	vstr	s16, [sp, #4]
 800097a:	f7ff ff5b 	bl	8000834 <_ZNK4quan11impl_detail23arithmetic_convert_implIfdvEclERKd.isra.28>
 800097e:	ad01      	add	r5, sp, #4
 8000980:	4629      	mov	r1, r5
 8000982:	4620      	mov	r0, r4
 8000984:	aa04      	add	r2, sp, #16
 8000986:	eef0 8a40 	vmov.f32	s17, s0
 800098a:	ed8d 0a04 	vstr	s0, [sp, #16]
 800098e:	f002 fbcd 	bl	800312c <_ZN4quan7compareINS_4meta8rationalILx1ELx1EEENS2_ILx360ELx1EEEfS4_fEEiRKNS_22fraction_of_revolutionIT_T0_T1_EERKNS5_IS6_T2_T3_EERKNS1_9binary_opIS9_NS1_5minusESE_vE4typeE>
 8000992:	ea14 0020 	ands.w	r0, r4, r0, asr #32
 8000996:	bf38      	it	cc
 8000998:	4628      	movcc	r0, r5
 800099a:	2100      	movs	r1, #0
 800099c:	6803      	ldr	r3, [r0, #0]
 800099e:	9103      	str	r1, [sp, #12]
 80009a0:	ac02      	add	r4, sp, #8
 80009a2:	ad03      	add	r5, sp, #12
 80009a4:	4629      	mov	r1, r5
 80009a6:	aa04      	add	r2, sp, #16
 80009a8:	4620      	mov	r0, r4
 80009aa:	9302      	str	r3, [sp, #8]
 80009ac:	edcd 8a04 	vstr	s17, [sp, #16]
 80009b0:	f002 fbbc 	bl	800312c <_ZN4quan7compareINS_4meta8rationalILx1ELx1EEENS2_ILx360ELx1EEEfS4_fEEiRKNS_22fraction_of_revolutionIT_T0_T1_EERKNS5_IS6_T2_T3_EERKNS1_9binary_opIS9_NS1_5minusESE_vE4typeE>
 80009b4:	2800      	cmp	r0, #0
 80009b6:	bfd4      	ite	le
 80009b8:	462a      	movle	r2, r5
 80009ba:	4622      	movgt	r2, r4
 80009bc:	ed92 7a00 	vldr	s14, [r2]
 80009c0:	eddf 7a0b 	vldr	s15, [pc, #44]	; 80009f0 <_ZN9main_loop13set_elevationEN4quan22fraction_of_revolutionINS0_4meta8rationalILx1ELx1EEENS3_ILx360ELx1EEEfEE+0x8c>
 80009c4:	ee27 0a27 	vmul.f32	s0, s14, s15
 80009c8:	ed9f 1a0a 	vldr	s2, [pc, #40]	; 80009f4 <_ZN9main_loop13set_elevationEN4quan22fraction_of_revolutionINS0_4meta8rationalILx1ELx1EEENS3_ILx360ELx1EEEfEE+0x90>
 80009cc:	eec0 0a08 	vdiv.f32	s1, s0, s16
 80009d0:	4668      	mov	r0, sp
 80009d2:	a905      	add	r1, sp, #20
 80009d4:	ee30 8a81 	vadd.f32	s16, s1, s2
 80009d8:	ed8d 8a05 	vstr	s16, [sp, #20]
 80009dc:	f002 fbce 	bl	800317c <_ZNK4quan11impl_detail23arithmetic_convert_implImfvEclERKf>
 80009e0:	4b05      	ldr	r3, [pc, #20]	; (80009f8 <_ZN9main_loop13set_elevationEN4quan22fraction_of_revolutionINS0_4meta8rationalILx1ELx1EEENS3_ILx360ELx1EEEfEE+0x94>)
 80009e2:	6018      	str	r0, [r3, #0]
 80009e4:	b007      	add	sp, #28
 80009e6:	ecbd 8b02 	vpop	{d8}
 80009ea:	bd30      	pop	{r4, r5, pc}
 80009ec:	42b40000 	.word	0x42b40000
 80009f0:	44610000 	.word	0x44610000
 80009f4:	447a0000 	.word	0x447a0000
 80009f8:	10000018 	.word	0x10000018

080009fc <_ZN9main_loop25elevation_servo_setup_pwmEv>:
 80009fc:	f04f 4380 	mov.w	r3, #1073741824	; 0x40000000
 8000a00:	490a      	ldr	r1, [pc, #40]	; (8000a2c <_ZN9main_loop25elevation_servo_setup_pwmEv+0x30>)
 8000a02:	6a1a      	ldr	r2, [r3, #32]
 8000a04:	f022 0010 	bic.w	r0, r2, #16
 8000a08:	6218      	str	r0, [r3, #32]
 8000a0a:	680a      	ldr	r2, [r1, #0]
 8000a0c:	0050      	lsls	r0, r2, #1
 8000a0e:	6398      	str	r0, [r3, #56]	; 0x38
 8000a10:	6999      	ldr	r1, [r3, #24]
 8000a12:	f421 52f8 	bic.w	r2, r1, #7936	; 0x1f00
 8000a16:	f442 40c0 	orr.w	r0, r2, #24576	; 0x6000
 8000a1a:	6198      	str	r0, [r3, #24]
 8000a1c:	6a19      	ldr	r1, [r3, #32]
 8000a1e:	f021 02a0 	bic.w	r2, r1, #160	; 0xa0
 8000a22:	f042 0010 	orr.w	r0, r2, #16
 8000a26:	6218      	str	r0, [r3, #32]
 8000a28:	4770      	bx	lr
 8000a2a:	bf00      	nop
 8000a2c:	10000018 	.word	0x10000018

08000a30 <_ZN9main_loop27elevation_servo_setup_portsEv>:
 8000a30:	4b0c      	ldr	r3, [pc, #48]	; (8000a64 <_ZN9main_loop27elevation_servo_setup_portsEv+0x34>)
 8000a32:	b507      	push	{r0, r1, r2, lr}
 8000a34:	6b1a      	ldr	r2, [r3, #48]	; 0x30
 8000a36:	f5a3 5160 	sub.w	r1, r3, #14336	; 0x3800
 8000a3a:	f042 0001 	orr.w	r0, r2, #1
 8000a3e:	6318      	str	r0, [r3, #48]	; 0x30
 8000a40:	680b      	ldr	r3, [r1, #0]
 8000a42:	f023 020c 	bic.w	r2, r3, #12
 8000a46:	f042 0008 	orr.w	r0, r2, #8
 8000a4a:	6008      	str	r0, [r1, #0]
 8000a4c:	684b      	ldr	r3, [r1, #4]
 8000a4e:	f023 0202 	bic.w	r2, r3, #2
 8000a52:	604a      	str	r2, [r1, #4]
 8000a54:	6888      	ldr	r0, [r1, #8]
 8000a56:	f020 030c 	bic.w	r3, r0, #12
 8000a5a:	608b      	str	r3, [r1, #8]
 8000a5c:	a801      	add	r0, sp, #4
 8000a5e:	f002 fbcb 	bl	80031f8 <_ZNK4quan4meta4impl27for_each_type_sequence_implINS0_13type_sequenceIINS_5stm3210periph_regINS4_4gpio6moduleILm1073872896EEELm12EmEENS5_IS8_Lm16EmEENS5_IS8_Lm20EmEENS5_IS8_Lm24EmEENS5_IS8_Lm28EmEENS5_IS8_Lm32EmEENS5_IS8_Lm36EmEEEEENS4_6detail24apply_periph_reg_actionsIS8_NS3_IINSH_17periph_reg_actionINS5_IS8_Lm0EmEENS0_6bit_orELm8EEENSJ_ISK_NS0_7bit_andELm4294967291EEENSJ_ISE_SL_Lm16EEENSJ_ISE_SN_Lm4294967071EEENSJ_INS5_IS8_Lm4EmEESL_Lm0EEENSJ_ISR_SN_Lm4294967293EEENSJ_IS9_SL_Lm0EEENSJ_IS9_SN_Lm4294967283EEENSJ_INS5_IS8_Lm8EmEESL_Lm0EEENSJ_ISW_SN_Lm4294967283EEENSJ_ISB_SN_Lm4294967293EEEEEEEELb1EvEclEv>
 8000a62:	bd0e      	pop	{r1, r2, r3, pc}
 8000a64:	40023800 	.word	0x40023800

08000a68 <_ZNK4quan11impl_detail23arithmetic_convert_implIfdvEclERKd.isra.37>:
 8000a68:	b538      	push	{r3, r4, r5, lr}
 8000a6a:	f04f 4260 	mov.w	r2, #3758096384	; 0xe0000000
 8000a6e:	4b12      	ldr	r3, [pc, #72]	; (8000ab8 <_ZNK4quan11impl_detail23arithmetic_convert_implIfdvEclERKd.isra.37+0x50>)
 8000a70:	4604      	mov	r4, r0
 8000a72:	460d      	mov	r5, r1
 8000a74:	f001 fe0e 	bl	8002694 <__aeabi_dcmpge>
 8000a78:	b138      	cbz	r0, 8000a8a <_ZNK4quan11impl_detail23arithmetic_convert_implIfdvEclERKd.isra.37+0x22>
 8000a7a:	4620      	mov	r0, r4
 8000a7c:	4629      	mov	r1, r5
 8000a7e:	f04f 4260 	mov.w	r2, #3758096384	; 0xe0000000
 8000a82:	4b0e      	ldr	r3, [pc, #56]	; (8000abc <_ZNK4quan11impl_detail23arithmetic_convert_implIfdvEclERKd.isra.37+0x54>)
 8000a84:	f001 fdfc 	bl	8002680 <__aeabi_dcmple>
 8000a88:	b970      	cbnz	r0, 8000aa8 <_ZNK4quan11impl_detail23arithmetic_convert_implIfdvEclERKd.isra.37+0x40>
 8000a8a:	2200      	movs	r2, #0
 8000a8c:	2300      	movs	r3, #0
 8000a8e:	4620      	mov	r0, r4
 8000a90:	4629      	mov	r1, r5
 8000a92:	f001 fe09 	bl	80026a8 <__aeabi_dcmpgt>
 8000a96:	eddf 7a0a 	vldr	s15, [pc, #40]	; 8000ac0 <_ZNK4quan11impl_detail23arithmetic_convert_implIfdvEclERKd.isra.37+0x58>
 8000a9a:	ed9f 0a0a 	vldr	s0, [pc, #40]	; 8000ac4 <_ZNK4quan11impl_detail23arithmetic_convert_implIfdvEclERKd.isra.37+0x5c>
 8000a9e:	2800      	cmp	r0, #0
 8000aa0:	bf08      	it	eq
 8000aa2:	eeb0 0a67 	vmoveq.f32	s0, s15
 8000aa6:	bd38      	pop	{r3, r4, r5, pc}
 8000aa8:	4620      	mov	r0, r4
 8000aaa:	4629      	mov	r1, r5
 8000aac:	f001 fe2e 	bl	800270c <__aeabi_d2f>
 8000ab0:	ee00 0a10 	vmov	s0, r0
 8000ab4:	bd38      	pop	{r3, r4, r5, pc}
 8000ab6:	bf00      	nop
 8000ab8:	c7efffff 	.word	0xc7efffff
 8000abc:	47efffff 	.word	0x47efffff
 8000ac0:	ff7fffff 	.word	0xff7fffff
 8000ac4:	7f7fffff 	.word	0x7f7fffff

08000ac8 <_ZN4quan3uav10fletcher16EPKhm>:
 8000ac8:	e92d 43f0 	stmdb	sp!, {r4, r5, r6, r7, r8, r9, lr}
 8000acc:	23ff      	movs	r3, #255	; 0xff
 8000ace:	461a      	mov	r2, r3
 8000ad0:	b309      	cbz	r1, 8000b16 <_ZN4quan3uav10fletcher16EPKhm+0x4e>
 8000ad2:	2914      	cmp	r1, #20
 8000ad4:	bf34      	ite	cc
 8000ad6:	460e      	movcc	r6, r1
 8000ad8:	2614      	movcs	r6, #20
 8000ada:	b2f6      	uxtb	r6, r6
 8000adc:	1b89      	subs	r1, r1, r6
 8000ade:	4607      	mov	r7, r0
 8000ae0:	f817 5b01 	ldrb.w	r5, [r7], #1
 8000ae4:	eb06 0900 	add.w	r9, r6, r0
 8000ae8:	1955      	adds	r5, r2, r5
 8000aea:	b2aa      	uxth	r2, r5
 8000aec:	fa5f f989 	uxtb.w	r9, r9
 8000af0:	fa5f f887 	uxtb.w	r8, r7
 8000af4:	189c      	adds	r4, r3, r2
 8000af6:	45c1      	cmp	r9, r8
 8000af8:	4694      	mov	ip, r2
 8000afa:	b2a3      	uxth	r3, r4
 8000afc:	d1f0      	bne.n	8000ae0 <_ZN4quan3uav10fletcher16EPKhm+0x18>
 8000afe:	1e73      	subs	r3, r6, #1
 8000b00:	b2da      	uxtb	r2, r3
 8000b02:	b2eb      	uxtb	r3, r5
 8000b04:	1c56      	adds	r6, r2, #1
 8000b06:	eb03 221c 	add.w	r2, r3, ip, lsr #8
 8000b0a:	f3c4 2307 	ubfx	r3, r4, #8, #8
 8000b0e:	1980      	adds	r0, r0, r6
 8000b10:	fa53 f384 	uxtab	r3, r3, r4
 8000b14:	e7dc      	b.n	8000ad0 <_ZN4quan3uav10fletcher16EPKhm+0x8>
 8000b16:	0a11      	lsrs	r1, r2, #8
 8000b18:	b2d8      	uxtb	r0, r3
 8000b1a:	eb00 2313 	add.w	r3, r0, r3, lsr #8
 8000b1e:	fa51 f282 	uxtab	r2, r1, r2
 8000b22:	ea42 2103 	orr.w	r1, r2, r3, lsl #8
 8000b26:	b288      	uxth	r0, r1
 8000b28:	e8bd 83f0 	ldmia.w	sp!, {r4, r5, r6, r7, r8, r9, pc}

08000b2c <_ZN9telemetry8set_homeEv>:
 8000b2c:	4b03      	ldr	r3, [pc, #12]	; (8000b3c <_ZN9telemetry8set_homeEv+0x10>)
 8000b2e:	f103 020c 	add.w	r2, r3, #12
 8000b32:	ca07      	ldmia	r2, {r0, r1, r2}
 8000b34:	e883 0007 	stmia.w	r3, {r0, r1, r2}
 8000b38:	4770      	bx	lr
 8000b3a:	bf00      	nop
 8000b3c:	10000924 	.word	0x10000924

08000b40 <_ZN9telemetry10filter_posEv>:
 8000b40:	4b11      	ldr	r3, [pc, #68]	; (8000b88 <_ZN9telemetry10filter_posEv+0x48>)
 8000b42:	eddf 7a12 	vldr	s15, [pc, #72]	; 8000b8c <_ZN9telemetry10filter_posEv+0x4c>
 8000b46:	edd3 6a03 	vldr	s13, [r3, #12]
 8000b4a:	ed93 1a04 	vldr	s2, [r3, #16]
 8000b4e:	edd3 2a05 	vldr	s5, [r3, #20]
 8000b52:	ed9f 7a0f 	vldr	s14, [pc, #60]	; 8000b90 <_ZN9telemetry10filter_posEv+0x50>
 8000b56:	ed93 6a06 	vldr	s12, [r3, #24]
 8000b5a:	edd3 0a07 	vldr	s1, [r3, #28]
 8000b5e:	ed93 2a08 	vldr	s4, [r3, #32]
 8000b62:	ee26 0aa7 	vmul.f32	s0, s13, s15
 8000b66:	ee61 1a27 	vmul.f32	s3, s2, s15
 8000b6a:	ee22 3aa7 	vmul.f32	s6, s5, s15
 8000b6e:	ee06 0a07 	vmla.f32	s0, s12, s14
 8000b72:	ee40 1a87 	vmla.f32	s3, s1, s14
 8000b76:	ee02 3a07 	vmla.f32	s6, s4, s14
 8000b7a:	ed83 0a06 	vstr	s0, [r3, #24]
 8000b7e:	edc3 1a07 	vstr	s3, [r3, #28]
 8000b82:	ed83 3a08 	vstr	s6, [r3, #32]
 8000b86:	4770      	bx	lr
 8000b88:	10000924 	.word	0x10000924
 8000b8c:	3d4cccd0 	.word	0x3d4cccd0
 8000b90:	3f733333 	.word	0x3f733333

08000b94 <_ZN12_GLOBAL__N_132update_position_from_array_inputEv>:
 8000b94:	b57f      	push	{r0, r1, r2, r3, r4, r5, r6, lr}
 8000b96:	4b29      	ldr	r3, [pc, #164]	; (8000c3c <_ZN12_GLOBAL__N_132update_position_from_array_inputEv+0xa8>)
 8000b98:	f893 2026 	ldrb.w	r2, [r3, #38]	; 0x26
 8000b9c:	f893 1025 	ldrb.w	r1, [r3, #37]	; 0x25
 8000ba0:	f893 5024 	ldrb.w	r5, [r3, #36]	; 0x24
 8000ba4:	f893 6027 	ldrb.w	r6, [r3, #39]	; 0x27
 8000ba8:	0410      	lsls	r0, r2, #16
 8000baa:	ea40 2401 	orr.w	r4, r0, r1, lsl #8
 8000bae:	f893 202a 	ldrb.w	r2, [r3, #42]	; 0x2a
 8000bb2:	f893 0029 	ldrb.w	r0, [r3, #41]	; 0x29
 8000bb6:	432c      	orrs	r4, r5
 8000bb8:	ea44 6106 	orr.w	r1, r4, r6, lsl #24
 8000bbc:	0414      	lsls	r4, r2, #16
 8000bbe:	f893 6028 	ldrb.w	r6, [r3, #40]	; 0x28
 8000bc2:	f893 202e 	ldrb.w	r2, [r3, #46]	; 0x2e
 8000bc6:	ee07 1a90 	vmov	s15, r1
 8000bca:	ea44 2500 	orr.w	r5, r4, r0, lsl #8
 8000bce:	f893 102b 	ldrb.w	r1, [r3, #43]	; 0x2b
 8000bd2:	f893 002d 	ldrb.w	r0, [r3, #45]	; 0x2d
 8000bd6:	f893 302c 	ldrb.w	r3, [r3, #44]	; 0x2c
 8000bda:	0414      	lsls	r4, r2, #16
 8000bdc:	4335      	orrs	r5, r6
 8000bde:	ea45 6601 	orr.w	r6, r5, r1, lsl #24
 8000be2:	ea44 2500 	orr.w	r5, r4, r0, lsl #8
 8000be6:	431d      	orrs	r5, r3
 8000be8:	eeb8 0ae7 	vcvt.f32.s32	s0, s15
 8000bec:	022b      	lsls	r3, r5, #8
 8000bee:	a903      	add	r1, sp, #12
 8000bf0:	a801      	add	r0, sp, #4
 8000bf2:	bf48      	it	mi
 8000bf4:	f045 457f 	orrmi.w	r5, r5, #4278190080	; 0xff000000
 8000bf8:	ed8d 0a03 	vstr	s0, [sp, #12]
 8000bfc:	f002 fb3c 	bl	8003278 <_ZN4quan22fraction_of_revolutionINS_4meta8rationalILx1ELx1EEENS2_ILx360ELx1EEEfEC1INS2_ILx3600000000ELx1EEEfEERKNS0_IS3_T_T0_EE>
 8000c00:	ee07 6a10 	vmov	s14, r6
 8000c04:	4c0d      	ldr	r4, [pc, #52]	; (8000c3c <_ZN12_GLOBAL__N_132update_position_from_array_inputEv+0xa8>)
 8000c06:	9901      	ldr	r1, [sp, #4]
 8000c08:	eef8 0ac7 	vcvt.f32.s32	s1, s14
 8000c0c:	60e1      	str	r1, [r4, #12]
 8000c0e:	a802      	add	r0, sp, #8
 8000c10:	a903      	add	r1, sp, #12
 8000c12:	edcd 0a03 	vstr	s1, [sp, #12]
 8000c16:	f002 fb2f 	bl	8003278 <_ZN4quan22fraction_of_revolutionINS_4meta8rationalILx1ELx1EEENS2_ILx360ELx1EEEfEC1INS2_ILx3600000000ELx1EEEfEERKNS0_IS3_T_T0_EE>
 8000c1a:	ee01 5a10 	vmov	s2, r5
 8000c1e:	ed9f 2a08 	vldr	s4, [pc, #32]	; 8000c40 <_ZN12_GLOBAL__N_132update_position_from_array_inputEv+0xac>
 8000c22:	eef8 1ac1 	vcvt.f32.s32	s3, s2
 8000c26:	9802      	ldr	r0, [sp, #8]
 8000c28:	ee61 2a82 	vmul.f32	s5, s3, s4
 8000c2c:	2201      	movs	r2, #1
 8000c2e:	6120      	str	r0, [r4, #16]
 8000c30:	edc4 2a05 	vstr	s5, [r4, #20]
 8000c34:	f884 202f 	strb.w	r2, [r4, #47]	; 0x2f
 8000c38:	bd7f      	pop	{r0, r1, r2, r3, r4, r5, r6, pc}
 8000c3a:	bf00      	nop
 8000c3c:	10000924 	.word	0x10000924
 8000c40:	447a0000 	.word	0x447a0000

08000c44 <_ZN9telemetry41parse_input_from_FrSky_with_cobs_protocolEv>:
 8000c44:	e92d 43f0 	stmdb	sp!, {r4, r5, r6, r7, r8, r9, lr}
 8000c48:	b087      	sub	sp, #28
 8000c4a:	4876      	ldr	r0, [pc, #472]	; (8000e24 <_ZN9telemetry41parse_input_from_FrSky_with_cobs_protocolEv+0x1e0>)
 8000c4c:	4669      	mov	r1, sp
 8000c4e:	f000 fb1b 	bl	8001288 <_ZN9FrSky2WSP14basic_protocol9get_frameERA9_h>
 8000c52:	2800      	cmp	r0, #0
 8000c54:	f000 80e2 	beq.w	8000e1c <_ZN9telemetry41parse_input_from_FrSky_with_cobs_protocolEv+0x1d8>
 8000c58:	f89d 3000 	ldrb.w	r3, [sp]
 8000c5c:	2bfd      	cmp	r3, #253	; 0xfd
 8000c5e:	f040 80dd 	bne.w	8000e1c <_ZN9telemetry41parse_input_from_FrSky_with_cobs_protocolEv+0x1d8>
 8000c62:	f89d 6001 	ldrb.w	r6, [sp, #1]
 8000c66:	2500      	movs	r5, #0
 8000c68:	42b5      	cmp	r5, r6
 8000c6a:	f080 80d7 	bcs.w	8000e1c <_ZN9telemetry41parse_input_from_FrSky_with_cobs_protocolEv+0x1d8>
 8000c6e:	4b6e      	ldr	r3, [pc, #440]	; (8000e28 <_ZN9telemetry41parse_input_from_FrSky_with_cobs_protocolEv+0x1e4>)
 8000c70:	a906      	add	r1, sp, #24
 8000c72:	1948      	adds	r0, r1, r5
 8000c74:	f893 1064 	ldrb.w	r1, [r3, #100]	; 0x64
 8000c78:	f810 2c15 	ldrb.w	r2, [r0, #-21]
 8000c7c:	b399      	cbz	r1, 8000ce6 <_ZN9telemetry41parse_input_from_FrSky_with_cobs_protocolEv+0xa2>
 8000c7e:	6e99      	ldr	r1, [r3, #104]	; 0x68
 8000c80:	290f      	cmp	r1, #15
 8000c82:	d82e      	bhi.n	8000ce2 <_ZN9telemetry41parse_input_from_FrSky_with_cobs_protocolEv+0x9e>
 8000c84:	b13a      	cbz	r2, 8000c96 <_ZN9telemetry41parse_input_from_FrSky_with_cobs_protocolEv+0x52>
 8000c86:	290f      	cmp	r1, #15
 8000c88:	d02b      	beq.n	8000ce2 <_ZN9telemetry41parse_input_from_FrSky_with_cobs_protocolEv+0x9e>
 8000c8a:	1858      	adds	r0, r3, r1
 8000c8c:	f880 203e 	strb.w	r2, [r0, #62]	; 0x3e
 8000c90:	1c4a      	adds	r2, r1, #1
 8000c92:	669a      	str	r2, [r3, #104]	; 0x68
 8000c94:	e02c      	b.n	8000cf0 <_ZN9telemetry41parse_input_from_FrSky_with_cobs_protocolEv+0xac>
 8000c96:	1e4f      	subs	r7, r1, #1
 8000c98:	f103 043e 	add.w	r4, r3, #62	; 0x3e
 8000c9c:	3330      	adds	r3, #48	; 0x30
 8000c9e:	eb04 0c07 	add.w	ip, r4, r7
 8000ca2:	19df      	adds	r7, r3, r7
 8000ca4:	4564      	cmp	r4, ip
 8000ca6:	d225      	bcs.n	8000cf4 <_ZN9telemetry41parse_input_from_FrSky_with_cobs_protocolEv+0xb0>
 8000ca8:	4620      	mov	r0, r4
 8000caa:	461a      	mov	r2, r3
 8000cac:	f810 8b01 	ldrb.w	r8, [r0], #1
 8000cb0:	f1c3 0901 	rsb	r9, r3, #1
 8000cb4:	eb09 0e02 	add.w	lr, r9, r2
 8000cb8:	fa5f f98e 	uxtb.w	r9, lr
 8000cbc:	45c1      	cmp	r9, r8
 8000cbe:	4604      	mov	r4, r0
 8000cc0:	d208      	bcs.n	8000cd4 <_ZN9telemetry41parse_input_from_FrSky_with_cobs_protocolEv+0x90>
 8000cc2:	3001      	adds	r0, #1
 8000cc4:	42ba      	cmp	r2, r7
 8000cc6:	f080 80a4 	bcs.w	8000e12 <_ZN9telemetry41parse_input_from_FrSky_with_cobs_protocolEv+0x1ce>
 8000cca:	f810 4c01 	ldrb.w	r4, [r0, #-1]
 8000cce:	f802 4b01 	strb.w	r4, [r2], #1
 8000cd2:	e7ed      	b.n	8000cb0 <_ZN9telemetry41parse_input_from_FrSky_with_cobs_protocolEv+0x6c>
 8000cd4:	42ba      	cmp	r2, r7
 8000cd6:	d202      	bcs.n	8000cde <_ZN9telemetry41parse_input_from_FrSky_with_cobs_protocolEv+0x9a>
 8000cd8:	2300      	movs	r3, #0
 8000cda:	f802 3b01 	strb.w	r3, [r2], #1
 8000cde:	4613      	mov	r3, r2
 8000ce0:	e7e0      	b.n	8000ca4 <_ZN9telemetry41parse_input_from_FrSky_with_cobs_protocolEv+0x60>
 8000ce2:	2100      	movs	r1, #0
 8000ce4:	e097      	b.n	8000e16 <_ZN9telemetry41parse_input_from_FrSky_with_cobs_protocolEv+0x1d2>
 8000ce6:	b91a      	cbnz	r2, 8000cf0 <_ZN9telemetry41parse_input_from_FrSky_with_cobs_protocolEv+0xac>
 8000ce8:	2001      	movs	r0, #1
 8000cea:	f883 0064 	strb.w	r0, [r3, #100]	; 0x64
 8000cee:	669a      	str	r2, [r3, #104]	; 0x68
 8000cf0:	3501      	adds	r5, #1
 8000cf2:	e7b9      	b.n	8000c68 <_ZN9telemetry41parse_input_from_FrSky_with_cobs_protocolEv+0x24>
 8000cf4:	4f4c      	ldr	r7, [pc, #304]	; (8000e28 <_ZN9telemetry41parse_input_from_FrSky_with_cobs_protocolEv+0x1e4>)
 8000cf6:	1e4a      	subs	r2, r1, #1
 8000cf8:	fa5f f882 	uxtb.w	r8, r2
 8000cfc:	f897 0030 	ldrb.w	r0, [r7, #48]	; 0x30
 8000d00:	f1a8 0304 	sub.w	r3, r8, #4
 8000d04:	f000 040f 	and.w	r4, r0, #15
 8000d08:	46b9      	mov	r9, r7
 8000d0a:	2b0a      	cmp	r3, #10
 8000d0c:	f200 8081 	bhi.w	8000e12 <_ZN9telemetry41parse_input_from_FrSky_with_cobs_protocolEv+0x1ce>
 8000d10:	e8df f003 	tbb	[pc, r3]
 8000d14:	0a087f06 	.word	0x0a087f06
 8000d18:	7f0e0c7f 	.word	0x7f0e0c7f
 8000d1c:	1210      	.short	0x1210
 8000d1e:	15          	.byte	0x15
 8000d1f:	00          	.byte	0x00
 8000d20:	2c01      	cmp	r4, #1
 8000d22:	e00a      	b.n	8000d3a <_ZN9telemetry41parse_input_from_FrSky_with_cobs_protocolEv+0xf6>
 8000d24:	2c02      	cmp	r4, #2
 8000d26:	e008      	b.n	8000d3a <_ZN9telemetry41parse_input_from_FrSky_with_cobs_protocolEv+0xf6>
 8000d28:	2c03      	cmp	r4, #3
 8000d2a:	e006      	b.n	8000d3a <_ZN9telemetry41parse_input_from_FrSky_with_cobs_protocolEv+0xf6>
 8000d2c:	2c04      	cmp	r4, #4
 8000d2e:	e004      	b.n	8000d3a <_ZN9telemetry41parse_input_from_FrSky_with_cobs_protocolEv+0xf6>
 8000d30:	2c05      	cmp	r4, #5
 8000d32:	e002      	b.n	8000d3a <_ZN9telemetry41parse_input_from_FrSky_with_cobs_protocolEv+0xf6>
 8000d34:	2c06      	cmp	r4, #6
 8000d36:	e000      	b.n	8000d3a <_ZN9telemetry41parse_input_from_FrSky_with_cobs_protocolEv+0xf6>
 8000d38:	2c07      	cmp	r4, #7
 8000d3a:	d16a      	bne.n	8000e12 <_ZN9telemetry41parse_input_from_FrSky_with_cobs_protocolEv+0x1ce>
 8000d3c:	e019      	b.n	8000d72 <_ZN9telemetry41parse_input_from_FrSky_with_cobs_protocolEv+0x12e>
 8000d3e:	2808      	cmp	r0, #8
 8000d40:	d167      	bne.n	8000e12 <_ZN9telemetry41parse_input_from_FrSky_with_cobs_protocolEv+0x1ce>
 8000d42:	210c      	movs	r1, #12
 8000d44:	4839      	ldr	r0, [pc, #228]	; (8000e2c <_ZN9telemetry41parse_input_from_FrSky_with_cobs_protocolEv+0x1e8>)
 8000d46:	f7ff febf 	bl	8000ac8 <_ZN4quan3uav10fletcher16EPKhm>
 8000d4a:	f897 103d 	ldrb.w	r1, [r7, #61]	; 0x3d
 8000d4e:	f897 203c 	ldrb.w	r2, [r7, #60]	; 0x3c
 8000d52:	ea42 2301 	orr.w	r3, r2, r1, lsl #8
 8000d56:	4298      	cmp	r0, r3
 8000d58:	d15b      	bne.n	8000e12 <_ZN9telemetry41parse_input_from_FrSky_with_cobs_protocolEv+0x1ce>
 8000d5a:	4835      	ldr	r0, [pc, #212]	; (8000e30 <_ZN9telemetry41parse_input_from_FrSky_with_cobs_protocolEv+0x1ec>)
 8000d5c:	4602      	mov	r2, r0
 8000d5e:	f852 1f0d 	ldr.w	r1, [r2, #13]!
 8000d62:	6853      	ldr	r3, [r2, #4]
 8000d64:	6001      	str	r1, [r0, #0]
 8000d66:	8911      	ldrh	r1, [r2, #8]
 8000d68:	7a92      	ldrb	r2, [r2, #10]
 8000d6a:	6043      	str	r3, [r0, #4]
 8000d6c:	8101      	strh	r1, [r0, #8]
 8000d6e:	7282      	strb	r2, [r0, #10]
 8000d70:	e04a      	b.n	8000e08 <_ZN9telemetry41parse_input_from_FrSky_with_cobs_protocolEv+0x1c4>
 8000d72:	f1a8 0702 	sub.w	r7, r8, #2
 8000d76:	4639      	mov	r1, r7
 8000d78:	482c      	ldr	r0, [pc, #176]	; (8000e2c <_ZN9telemetry41parse_input_from_FrSky_with_cobs_protocolEv+0x1e8>)
 8000d7a:	f7ff fea5 	bl	8000ac8 <_ZN4quan3uav10fletcher16EPKhm>
 8000d7e:	444f      	add	r7, r9
 8000d80:	eb09 0308 	add.w	r3, r9, r8
 8000d84:	f897 2030 	ldrb.w	r2, [r7, #48]	; 0x30
 8000d88:	f893 102f 	ldrb.w	r1, [r3, #47]	; 0x2f
 8000d8c:	ea42 2301 	orr.w	r3, r2, r1, lsl #8
 8000d90:	4298      	cmp	r0, r3
 8000d92:	d13e      	bne.n	8000e12 <_ZN9telemetry41parse_input_from_FrSky_with_cobs_protocolEv+0x1ce>
 8000d94:	4a26      	ldr	r2, [pc, #152]	; (8000e30 <_ZN9telemetry41parse_input_from_FrSky_with_cobs_protocolEv+0x1ec>)
 8000d96:	6810      	ldr	r0, [r2, #0]
 8000d98:	6851      	ldr	r1, [r2, #4]
 8000d9a:	ab03      	add	r3, sp, #12
 8000d9c:	c303      	stmia	r3!, {r0, r1}
 8000d9e:	8910      	ldrh	r0, [r2, #8]
 8000da0:	7a91      	ldrb	r1, [r2, #10]
 8000da2:	8018      	strh	r0, [r3, #0]
 8000da4:	7099      	strb	r1, [r3, #2]
 8000da6:	ea4f 0c54 	mov.w	ip, r4, lsr #1
 8000daa:	2201      	movs	r2, #1
 8000dac:	f64f 70ff 	movw	r0, #65535	; 0xffff
 8000db0:	b2d1      	uxtb	r1, r2
 8000db2:	1e4b      	subs	r3, r1, #1
 8000db4:	b2db      	uxtb	r3, r3
 8000db6:	4461      	add	r1, ip
 8000db8:	42a3      	cmp	r3, r4
 8000dba:	b2c9      	uxtb	r1, r1
 8000dbc:	d21b      	bcs.n	8000df6 <_ZN9telemetry41parse_input_from_FrSky_with_cobs_protocolEv+0x1b2>
 8000dbe:	1057      	asrs	r7, r2, #1
 8000dc0:	f013 0f01 	tst.w	r3, #1
 8000dc4:	4b18      	ldr	r3, [pc, #96]	; (8000e28 <_ZN9telemetry41parse_input_from_FrSky_with_cobs_protocolEv+0x1e4>)
 8000dc6:	441f      	add	r7, r3
 8000dc8:	f897 3030 	ldrb.w	r3, [r7, #48]	; 0x30
 8000dcc:	d101      	bne.n	8000dd2 <_ZN9telemetry41parse_input_from_FrSky_with_cobs_protocolEv+0x18e>
 8000dce:	091b      	lsrs	r3, r3, #4
 8000dd0:	e001      	b.n	8000dd6 <_ZN9telemetry41parse_input_from_FrSky_with_cobs_protocolEv+0x192>
 8000dd2:	f003 030f 	and.w	r3, r3, #15
 8000dd6:	b200      	sxth	r0, r0
 8000dd8:	4283      	cmp	r3, r0
 8000dda:	dd1a      	ble.n	8000e12 <_ZN9telemetry41parse_input_from_FrSky_with_cobs_protocolEv+0x1ce>
 8000ddc:	3201      	adds	r2, #1
 8000dde:	2b0a      	cmp	r3, #10
 8000de0:	d817      	bhi.n	8000e12 <_ZN9telemetry41parse_input_from_FrSky_with_cobs_protocolEv+0x1ce>
 8000de2:	af06      	add	r7, sp, #24
 8000de4:	18f8      	adds	r0, r7, r3
 8000de6:	4f10      	ldr	r7, [pc, #64]	; (8000e28 <_ZN9telemetry41parse_input_from_FrSky_with_cobs_protocolEv+0x1e4>)
 8000de8:	1879      	adds	r1, r7, r1
 8000dea:	f891 1030 	ldrb.w	r1, [r1, #48]	; 0x30
 8000dee:	f800 1c0c 	strb.w	r1, [r0, #-12]
 8000df2:	4618      	mov	r0, r3
 8000df4:	e7dc      	b.n	8000db0 <_ZN9telemetry41parse_input_from_FrSky_with_cobs_protocolEv+0x16c>
 8000df6:	ab03      	add	r3, sp, #12
 8000df8:	cb03      	ldmia	r3!, {r0, r1}
 8000dfa:	4a0d      	ldr	r2, [pc, #52]	; (8000e30 <_ZN9telemetry41parse_input_from_FrSky_with_cobs_protocolEv+0x1ec>)
 8000dfc:	6010      	str	r0, [r2, #0]
 8000dfe:	6051      	str	r1, [r2, #4]
 8000e00:	8818      	ldrh	r0, [r3, #0]
 8000e02:	7899      	ldrb	r1, [r3, #2]
 8000e04:	8110      	strh	r0, [r2, #8]
 8000e06:	7291      	strb	r1, [r2, #10]
 8000e08:	f7ff fec4 	bl	8000b94 <_ZN12_GLOBAL__N_132update_position_from_array_inputEv>
 8000e0c:	2200      	movs	r2, #0
 8000e0e:	4b06      	ldr	r3, [pc, #24]	; (8000e28 <_ZN9telemetry41parse_input_from_FrSky_with_cobs_protocolEv+0x1e4>)
 8000e10:	e76d      	b.n	8000cee <_ZN9telemetry41parse_input_from_FrSky_with_cobs_protocolEv+0xaa>
 8000e12:	4b05      	ldr	r3, [pc, #20]	; (8000e28 <_ZN9telemetry41parse_input_from_FrSky_with_cobs_protocolEv+0x1e4>)
 8000e14:	2100      	movs	r1, #0
 8000e16:	f883 1064 	strb.w	r1, [r3, #100]	; 0x64
 8000e1a:	e769      	b.n	8000cf0 <_ZN9telemetry41parse_input_from_FrSky_with_cobs_protocolEv+0xac>
 8000e1c:	b007      	add	sp, #28
 8000e1e:	e8bd 83f0 	ldmia.w	sp!, {r4, r5, r6, r7, r8, r9, pc}
 8000e22:	bf00      	nop
 8000e24:	10000974 	.word	0x10000974
 8000e28:	10000924 	.word	0x10000924
 8000e2c:	10000954 	.word	0x10000954
 8000e30:	10000948 	.word	0x10000948

08000e34 <_ZN9telemetry6recalcEv>:
 8000e34:	e92d 4ff0 	stmdb	sp!, {r4, r5, r6, r7, r8, r9, sl, fp, lr}
 8000e38:	4e95      	ldr	r6, [pc, #596]	; (8001090 <_ZN9telemetry6recalcEv+0x25c>)
 8000e3a:	ed2d 8b02 	vpush	{d8}
 8000e3e:	edd6 7a06 	vldr	s15, [r6, #24]
 8000e42:	ed96 8a00 	vldr	s16, [r6]
 8000e46:	ee37 0ac8 	vsub.f32	s0, s15, s16
 8000e4a:	b0a3      	sub	sp, #140	; 0x8c
 8000e4c:	ee10 0a10 	vmov	r0, s0
 8000e50:	f001 f946 	bl	80020e0 <__aeabi_f2d>
 8000e54:	ed96 7a07 	vldr	s14, [r6, #28]
 8000e58:	edd6 0a01 	vldr	s1, [r6, #4]
 8000e5c:	ee37 1a60 	vsub.f32	s2, s14, s1
 8000e60:	4604      	mov	r4, r0
 8000e62:	ee11 0a10 	vmov	r0, s2
 8000e66:	460d      	mov	r5, r1
 8000e68:	f001 f93a 	bl	80020e0 <__aeabi_f2d>
 8000e6c:	eeb5 8ac0 	vcmpe.f32	s16, #0.0
 8000e70:	eef1 fa10 	vmrs	APSR_nzcv, fpscr
 8000e74:	bf48      	it	mi
 8000e76:	eeb1 8a48 	vnegmi.f32	s16, s16
 8000e7a:	ee38 8a08 	vadd.f32	s16, s16, s16
 8000e7e:	4606      	mov	r6, r0
 8000e80:	ee18 0a10 	vmov	r0, s16
 8000e84:	460f      	mov	r7, r1
 8000e86:	f001 f92b 	bl	80020e0 <__aeabi_f2d>
 8000e8a:	a377      	add	r3, pc, #476	; (adr r3, 8001068 <_ZN9telemetry6recalcEv+0x234>)
 8000e8c:	e9d3 2300 	ldrd	r2, r3, [r3]
 8000e90:	f001 f97a 	bl	8002188 <__aeabi_dmul>
 8000e94:	2200      	movs	r2, #0
 8000e96:	4b7f      	ldr	r3, [pc, #508]	; (8001094 <_ZN9telemetry6recalcEv+0x260>)
 8000e98:	f001 faa0 	bl	80023dc <__aeabi_ddiv>
 8000e9c:	ec41 0b10 	vmov	d0, r0, r1
 8000ea0:	f009 fe1e 	bl	800aae0 <cos>
 8000ea4:	a372      	add	r3, pc, #456	; (adr r3, 8001070 <_ZN9telemetry6recalcEv+0x23c>)
 8000ea6:	e9d3 2300 	ldrd	r2, r3, [r3]
 8000eaa:	ec51 0b10 	vmov	r0, r1, d0
 8000eae:	f001 f96b 	bl	8002188 <__aeabi_dmul>
 8000eb2:	4602      	mov	r2, r0
 8000eb4:	460b      	mov	r3, r1
 8000eb6:	4630      	mov	r0, r6
 8000eb8:	4639      	mov	r1, r7
 8000eba:	f001 f965 	bl	8002188 <__aeabi_dmul>
 8000ebe:	4b76      	ldr	r3, [pc, #472]	; (8001098 <_ZN9telemetry6recalcEv+0x264>)
 8000ec0:	2200      	movs	r2, #0
 8000ec2:	ec43 2b12 	vmov	d2, r2, r3
 8000ec6:	e9cd 0102 	strd	r0, r1, [sp, #8]
 8000eca:	a802      	add	r0, sp, #8
 8000ecc:	a908      	add	r1, sp, #32
 8000ece:	ed8d 2b08 	vstr	d2, [sp, #32]
 8000ed2:	f002 f9a5 	bl	8003220 <_ZN4quandvINS_4meta4unitINS1_17abstract_quantityINS1_9dimensionINS1_8rationalILx1ELx1EEENS5_ILx0ELx1EEES7_S7_S7_S7_S7_EENS1_10components9of_lengthEEENS1_17conversion_factorIS7_S6_NS1_5int32ILl0EEEEEEENS_22fraction_of_revolutionIS6_NS5_ILx360ELx1EEEdEENS_16mathematic_angleIS6_dEEEENS1_12binary_op_ifINS1_10is_numericIT1_EENS_14fixed_quantityIT_T0_EENS1_7dividesESO_E4typeERKST_RKSO_>
 8000ed6:	a366      	add	r3, pc, #408	; (adr r3, 8001070 <_ZN9telemetry6recalcEv+0x23c>)
 8000ed8:	e9d3 2300 	ldrd	r2, r3, [r3]
 8000edc:	4620      	mov	r0, r4
 8000ede:	4629      	mov	r1, r5
 8000ee0:	ec5b ab10 	vmov	sl, fp, d0
 8000ee4:	f001 f950 	bl	8002188 <__aeabi_dmul>
 8000ee8:	4b6b      	ldr	r3, [pc, #428]	; (8001098 <_ZN9telemetry6recalcEv+0x264>)
 8000eea:	2200      	movs	r2, #0
 8000eec:	ec43 2b13 	vmov	d3, r2, r3
 8000ef0:	e9cd 0102 	strd	r0, r1, [sp, #8]
 8000ef4:	a802      	add	r0, sp, #8
 8000ef6:	a908      	add	r1, sp, #32
 8000ef8:	ed8d 3b08 	vstr	d3, [sp, #32]
 8000efc:	f002 f990 	bl	8003220 <_ZN4quandvINS_4meta4unitINS1_17abstract_quantityINS1_9dimensionINS1_8rationalILx1ELx1EEENS5_ILx0ELx1EEES7_S7_S7_S7_S7_EENS1_10components9of_lengthEEENS1_17conversion_factorIS7_S6_NS1_5int32ILl0EEEEEEENS_22fraction_of_revolutionIS6_NS5_ILx360ELx1EEEdEENS_16mathematic_angleIS6_dEEEENS1_12binary_op_ifINS1_10is_numericIT1_EENS_14fixed_quantityIT_T0_EENS1_7dividesESO_E4typeERKST_RKSO_>
 8000f00:	4652      	mov	r2, sl
 8000f02:	465b      	mov	r3, fp
 8000f04:	4650      	mov	r0, sl
 8000f06:	4659      	mov	r1, fp
 8000f08:	ee10 9a10 	vmov	r9, s0
 8000f0c:	ee10 8a90 	vmov	r8, s1
 8000f10:	f001 f93a 	bl	8002188 <__aeabi_dmul>
 8000f14:	464a      	mov	r2, r9
 8000f16:	4606      	mov	r6, r0
 8000f18:	460f      	mov	r7, r1
 8000f1a:	4643      	mov	r3, r8
 8000f1c:	4648      	mov	r0, r9
 8000f1e:	4641      	mov	r1, r8
 8000f20:	f001 f932 	bl	8002188 <__aeabi_dmul>
 8000f24:	4602      	mov	r2, r0
 8000f26:	460b      	mov	r3, r1
 8000f28:	4630      	mov	r0, r6
 8000f2a:	4639      	mov	r1, r7
 8000f2c:	f000 ff7a 	bl	8001e24 <__adddf3>
 8000f30:	ed9f 1b51 	vldr	d1, [pc, #324]	; 8001078 <_ZN9telemetry6recalcEv+0x244>
 8000f34:	ec41 0b10 	vmov	d0, r0, r1
 8000f38:	f009 fe7a 	bl	800ac30 <pow>
 8000f3c:	4b57      	ldr	r3, [pc, #348]	; (800109c <_ZN9telemetry6recalcEv+0x268>)
 8000f3e:	2200      	movs	r2, #0
 8000f40:	ee10 4a90 	vmov	r4, s1
 8000f44:	ec43 2b14 	vmov	d4, r2, r3
 8000f48:	ee10 0a10 	vmov	r0, s0
 8000f4c:	f024 4100 	bic.w	r1, r4, #2147483648	; 0x80000000
 8000f50:	2200      	movs	r2, #0
 8000f52:	f04f 4380 	mov.w	r3, #1073741824	; 0x40000000
 8000f56:	ee10 5a10 	vmov	r5, s0
 8000f5a:	ed8d 4b04 	vstr	d4, [sp, #16]
 8000f5e:	f001 fba3 	bl	80026a8 <__aeabi_dcmpgt>
 8000f62:	b930      	cbnz	r0, 8000f72 <_ZN9telemetry6recalcEv+0x13e>
 8000f64:	2200      	movs	r2, #0
 8000f66:	2300      	movs	r3, #0
 8000f68:	ec43 2b15 	vmov	d5, r2, r3
 8000f6c:	ed8d 5b06 	vstr	d5, [sp, #24]
 8000f70:	e040      	b.n	8000ff4 <_ZN9telemetry6recalcEv+0x1c0>
 8000f72:	464e      	mov	r6, r9
 8000f74:	f108 4700 	add.w	r7, r8, #2147483648	; 0x80000000
 8000f78:	ec4b ab11 	vmov	d1, sl, fp
 8000f7c:	ec47 6b10 	vmov	d0, r6, r7
 8000f80:	f009 fe54 	bl	800ac2c <atan2>
 8000f84:	a33e      	add	r3, pc, #248	; (adr r3, 8001080 <_ZN9telemetry6recalcEv+0x24c>)
 8000f86:	e9d3 2300 	ldrd	r2, r3, [r3]
 8000f8a:	ec51 0b10 	vmov	r0, r1, d0
 8000f8e:	f000 ff49 	bl	8001e24 <__adddf3>
 8000f92:	2200      	movs	r2, #0
 8000f94:	4b3f      	ldr	r3, [pc, #252]	; (8001094 <_ZN9telemetry6recalcEv+0x260>)
 8000f96:	f001 f8f7 	bl	8002188 <__aeabi_dmul>
 8000f9a:	a33b      	add	r3, pc, #236	; (adr r3, 8001088 <_ZN9telemetry6recalcEv+0x254>)
 8000f9c:	e9d3 2300 	ldrd	r2, r3, [r3]
 8000fa0:	f001 fa1c 	bl	80023dc <__aeabi_ddiv>
 8000fa4:	4b3a      	ldr	r3, [pc, #232]	; (8001090 <_ZN9telemetry6recalcEv+0x25c>)
 8000fa6:	edd3 2a02 	vldr	s5, [r3, #8]
 8000faa:	edd3 1a08 	vldr	s3, [r3, #32]
 8000fae:	ee71 3ae2 	vsub.f32	s7, s3, s5
 8000fb2:	e9cd 0106 	strd	r0, r1, [sp, #24]
 8000fb6:	ee13 0a90 	vmov	r0, s7
 8000fba:	f001 f891 	bl	80020e0 <__aeabi_f2d>
 8000fbe:	2200      	movs	r2, #0
 8000fc0:	4b37      	ldr	r3, [pc, #220]	; (80010a0 <_ZN9telemetry6recalcEv+0x26c>)
 8000fc2:	4606      	mov	r6, r0
 8000fc4:	460f      	mov	r7, r1
 8000fc6:	4628      	mov	r0, r5
 8000fc8:	4621      	mov	r1, r4
 8000fca:	f001 f8dd 	bl	8002188 <__aeabi_dmul>
 8000fce:	ec47 6b10 	vmov	d0, r6, r7
 8000fd2:	ec41 0b11 	vmov	d1, r0, r1
 8000fd6:	f009 fe29 	bl	800ac2c <atan2>
 8000fda:	2200      	movs	r2, #0
 8000fdc:	ec51 0b10 	vmov	r0, r1, d0
 8000fe0:	4b2c      	ldr	r3, [pc, #176]	; (8001094 <_ZN9telemetry6recalcEv+0x260>)
 8000fe2:	f001 f8d1 	bl	8002188 <__aeabi_dmul>
 8000fe6:	a328      	add	r3, pc, #160	; (adr r3, 8001088 <_ZN9telemetry6recalcEv+0x254>)
 8000fe8:	e9d3 2300 	ldrd	r2, r3, [r3]
 8000fec:	f001 f9f6 	bl	80023dc <__aeabi_ddiv>
 8000ff0:	e9cd 0104 	strd	r0, r1, [sp, #16]
 8000ff4:	a906      	add	r1, sp, #24
 8000ff6:	a801      	add	r0, sp, #4
 8000ff8:	f002 f932 	bl	8003260 <_ZN4quan22fraction_of_revolutionINS_4meta8rationalILx1ELx1EEENS2_ILx360ELx1EEEfEC1IS4_dEERKNS0_IS3_T_T0_EE>
 8000ffc:	a801      	add	r0, sp, #4
 8000ffe:	f7ff fb3f 	bl	8000680 <_ZN7azimuth5motor11set_azimuthEN4quan22fraction_of_revolutionINS1_4meta8rationalILx1ELx1EEENS4_ILx360ELx1EEEfEE>
 8001002:	a904      	add	r1, sp, #16
 8001004:	a801      	add	r0, sp, #4
 8001006:	f002 f92b 	bl	8003260 <_ZN4quan22fraction_of_revolutionINS_4meta8rationalILx1ELx1EEENS2_ILx360ELx1EEEfEC1IS4_dEERKNS0_IS3_T_T0_EE>
 800100a:	a801      	add	r0, sp, #4
 800100c:	f7ff fcaa 	bl	8000964 <_ZN9main_loop13set_elevationEN4quan22fraction_of_revolutionINS0_4meta8rationalILx1ELx1EEENS3_ILx360ELx1EEEfEE>
 8001010:	481f      	ldr	r0, [pc, #124]	; (8001090 <_ZN9telemetry6recalcEv+0x25c>)
 8001012:	6ec2      	ldr	r2, [r0, #108]	; 0x6c
 8001014:	1c51      	adds	r1, r2, #1
 8001016:	2905      	cmp	r1, #5
 8001018:	d001      	beq.n	800101e <_ZN9telemetry6recalcEv+0x1ea>
 800101a:	66c1      	str	r1, [r0, #108]	; 0x6c
 800101c:	e01c      	b.n	8001058 <_ZN9telemetry6recalcEv+0x224>
 800101e:	2300      	movs	r3, #0
 8001020:	66c3      	str	r3, [r0, #108]	; 0x6c
 8001022:	4920      	ldr	r1, [pc, #128]	; (80010a4 <_ZN9telemetry6recalcEv+0x270>)
 8001024:	462a      	mov	r2, r5
 8001026:	4623      	mov	r3, r4
 8001028:	a808      	add	r0, sp, #32
 800102a:	f003 fb73 	bl	8004714 <sprintf>
 800102e:	a808      	add	r0, sp, #32
 8001030:	f001 fff2 	bl	8003018 <_ZN4quan5stm3211serial_portINS0_5usart6moduleILm1073760256EEELj1000ELj1000ENS_3mcu3pinINS0_4gpio6moduleILm1073875968EEELm8EEENS6_IS9_Lm9EEEE5writeEPKc>
 8001034:	491c      	ldr	r1, [pc, #112]	; (80010a8 <_ZN9telemetry6recalcEv+0x274>)
 8001036:	e9dd 2306 	ldrd	r2, r3, [sp, #24]
 800103a:	a808      	add	r0, sp, #32
 800103c:	f003 fb6a 	bl	8004714 <sprintf>
 8001040:	a808      	add	r0, sp, #32
 8001042:	f001 ffe9 	bl	8003018 <_ZN4quan5stm3211serial_portINS0_5usart6moduleILm1073760256EEELj1000ELj1000ENS_3mcu3pinINS0_4gpio6moduleILm1073875968EEELm8EEENS6_IS9_Lm9EEEE5writeEPKc>
 8001046:	a808      	add	r0, sp, #32
 8001048:	4918      	ldr	r1, [pc, #96]	; (80010ac <_ZN9telemetry6recalcEv+0x278>)
 800104a:	e9dd 2304 	ldrd	r2, r3, [sp, #16]
 800104e:	f003 fb61 	bl	8004714 <sprintf>
 8001052:	a808      	add	r0, sp, #32
 8001054:	f001 ffe0 	bl	8003018 <_ZN4quan5stm3211serial_portINS0_5usart6moduleILm1073760256EEELj1000ELj1000ENS_3mcu3pinINS0_4gpio6moduleILm1073875968EEELm8EEENS6_IS9_Lm9EEEE5writeEPKc>
 8001058:	b023      	add	sp, #140	; 0x8c
 800105a:	ecbd 8b02 	vpop	{d8}
 800105e:	e8bd 8ff0 	ldmia.w	sp!, {r4, r5, r6, r7, r8, r9, sl, fp, pc}
 8001062:	bf00      	nop
 8001064:	f3af 8000 	nop.w
 8001068:	54442d18 	.word	0x54442d18
 800106c:	400921fb 	.word	0x400921fb
 8001070:	00000000 	.word	0x00000000
 8001074:	41584dae 	.word	0x41584dae
 8001078:	00000000 	.word	0x00000000
 800107c:	3fe00000 	.word	0x3fe00000
 8001080:	60000000 	.word	0x60000000
 8001084:	3ff921fb 	.word	0x3ff921fb
 8001088:	54442d18 	.word	0x54442d18
 800108c:	401921fb 	.word	0x401921fb
 8001090:	10000924 	.word	0x10000924
 8001094:	40768000 	.word	0x40768000
 8001098:	3ff00000 	.word	0x3ff00000
 800109c:	40568000 	.word	0x40568000
 80010a0:	408f4000 	.word	0x408f4000
 80010a4:	0800dd3a 	.word	0x0800dd3a
 80010a8:	0800dd4b 	.word	0x0800dd4b
 80010ac:	0800dd5d 	.word	0x0800dd5d

080010b0 <_ZN9telemetry54parse_input_from_FrSky_with_high_level_escape_protocolEv>:
 80010b0:	e92d 43f0 	stmdb	sp!, {r4, r5, r6, r7, r8, r9, lr}
 80010b4:	4c61      	ldr	r4, [pc, #388]	; (800123c <_ZN9telemetry54parse_input_from_FrSky_with_high_level_escape_protocolEv+0x18c>)
 80010b6:	b087      	sub	sp, #28
 80010b8:	f104 0050 	add.w	r0, r4, #80	; 0x50
 80010bc:	a903      	add	r1, sp, #12
 80010be:	f000 f8e3 	bl	8001288 <_ZN9FrSky2WSP14basic_protocol9get_frameERA9_h>
 80010c2:	2800      	cmp	r0, #0
 80010c4:	f000 80b7 	beq.w	8001236 <_ZN9telemetry54parse_input_from_FrSky_with_high_level_escape_protocolEv+0x186>
 80010c8:	f89d 300c 	ldrb.w	r3, [sp, #12]
 80010cc:	2bfd      	cmp	r3, #253	; 0xfd
 80010ce:	f040 80b2 	bne.w	8001236 <_ZN9telemetry54parse_input_from_FrSky_with_high_level_escape_protocolEv+0x186>
 80010d2:	f89d 700d 	ldrb.w	r7, [sp, #13]
 80010d6:	1e78      	subs	r0, r7, #1
 80010d8:	2805      	cmp	r0, #5
 80010da:	f04f 0600 	mov.w	r6, #0
 80010de:	d924      	bls.n	800112a <_ZN9telemetry54parse_input_from_FrSky_with_high_level_escape_protocolEv+0x7a>
 80010e0:	6726      	str	r6, [r4, #112]	; 0x70
 80010e2:	e0a8      	b.n	8001236 <_ZN9telemetry54parse_input_from_FrSky_with_high_level_escape_protocolEv+0x186>
 80010e4:	a906      	add	r1, sp, #24
 80010e6:	1988      	adds	r0, r1, r6
 80010e8:	f810 1c09 	ldrb.w	r1, [r0, #-9]
 80010ec:	7011      	strb	r1, [r2, #0]
 80010ee:	6f9a      	ldr	r2, [r3, #120]	; 0x78
 80010f0:	b90a      	cbnz	r2, 80010f6 <_ZN9telemetry54parse_input_from_FrSky_with_high_level_escape_protocolEv+0x46>
 80010f2:	6f58      	ldr	r0, [r3, #116]	; 0x74
 80010f4:	6798      	str	r0, [r3, #120]	; 0x78
 80010f6:	6f59      	ldr	r1, [r3, #116]	; 0x74
 80010f8:	4a50      	ldr	r2, [pc, #320]	; (800123c <_ZN9telemetry54parse_input_from_FrSky_with_high_level_escape_protocolEv+0x18c>)
 80010fa:	1c48      	adds	r0, r1, #1
 80010fc:	6758      	str	r0, [r3, #116]	; 0x74
 80010fe:	f102 037f 	add.w	r3, r2, #127	; 0x7f
 8001102:	4298      	cmp	r0, r3
 8001104:	bf08      	it	eq
 8001106:	f102 037c 	addeq.w	r3, r2, #124	; 0x7c
 800110a:	484c      	ldr	r0, [pc, #304]	; (800123c <_ZN9telemetry54parse_input_from_FrSky_with_high_level_escape_protocolEv+0x18c>)
 800110c:	bf08      	it	eq
 800110e:	6753      	streq	r3, [r2, #116]	; 0x74
 8001110:	6f41      	ldr	r1, [r0, #116]	; 0x74
 8001112:	6f82      	ldr	r2, [r0, #120]	; 0x78
 8001114:	4291      	cmp	r1, r2
 8001116:	d101      	bne.n	800111c <_ZN9telemetry54parse_input_from_FrSky_with_high_level_escape_protocolEv+0x6c>
 8001118:	2300      	movs	r3, #0
 800111a:	6743      	str	r3, [r0, #116]	; 0x74
 800111c:	4847      	ldr	r0, [pc, #284]	; (800123c <_ZN9telemetry54parse_input_from_FrSky_with_high_level_escape_protocolEv+0x18c>)
 800111e:	6f81      	ldr	r1, [r0, #120]	; 0x78
 8001120:	b941      	cbnz	r1, 8001134 <_ZN9telemetry54parse_input_from_FrSky_with_high_level_escape_protocolEv+0x84>
 8001122:	3601      	adds	r6, #1
 8001124:	42be      	cmp	r6, r7
 8001126:	f080 8086 	bcs.w	8001236 <_ZN9telemetry54parse_input_from_FrSky_with_high_level_escape_protocolEv+0x186>
 800112a:	4b44      	ldr	r3, [pc, #272]	; (800123c <_ZN9telemetry54parse_input_from_FrSky_with_high_level_escape_protocolEv+0x18c>)
 800112c:	6f5a      	ldr	r2, [r3, #116]	; 0x74
 800112e:	2a00      	cmp	r2, #0
 8001130:	d1d8      	bne.n	80010e4 <_ZN9telemetry54parse_input_from_FrSky_with_high_level_escape_protocolEv+0x34>
 8001132:	e7f3      	b.n	800111c <_ZN9telemetry54parse_input_from_FrSky_with_high_level_escape_protocolEv+0x6c>
 8001134:	6f42      	ldr	r2, [r0, #116]	; 0x74
 8001136:	b12a      	cbz	r2, 8001144 <_ZN9telemetry54parse_input_from_FrSky_with_high_level_escape_protocolEv+0x94>
 8001138:	428a      	cmp	r2, r1
 800113a:	bf98      	it	ls
 800113c:	3203      	addls	r2, #3
 800113e:	1a53      	subs	r3, r2, r1
 8001140:	2b02      	cmp	r3, #2
 8001142:	ddee      	ble.n	8001122 <_ZN9telemetry54parse_input_from_FrSky_with_high_level_escape_protocolEv+0x72>
 8001144:	4c3d      	ldr	r4, [pc, #244]	; (800123c <_ZN9telemetry54parse_input_from_FrSky_with_high_level_escape_protocolEv+0x18c>)
 8001146:	6f25      	ldr	r5, [r4, #112]	; 0x70
 8001148:	f104 0980 	add.w	r9, r4, #128	; 0x80
 800114c:	44a9      	add	r9, r5
 800114e:	eb04 0805 	add.w	r8, r4, r5
 8001152:	4649      	mov	r1, r9
 8001154:	f104 0074 	add.w	r0, r4, #116	; 0x74
 8001158:	f002 f8a2 	bl	80032a0 <_ZN4quan4fifoIhLi3ELb0EE3getERh>
 800115c:	f898 1080 	ldrb.w	r1, [r8, #128]	; 0x80
 8001160:	295e      	cmp	r1, #94	; 0x5e
 8001162:	4620      	mov	r0, r4
 8001164:	d105      	bne.n	8001172 <_ZN9telemetry54parse_input_from_FrSky_with_high_level_escape_protocolEv+0xc2>
 8001166:	b10d      	cbz	r5, 800116c <_ZN9telemetry54parse_input_from_FrSky_with_high_level_escape_protocolEv+0xbc>
 8001168:	f884 1080 	strb.w	r1, [r4, #128]	; 0x80
 800116c:	2001      	movs	r0, #1
 800116e:	6720      	str	r0, [r4, #112]	; 0x70
 8001170:	e7d7      	b.n	8001122 <_ZN9telemetry54parse_input_from_FrSky_with_high_level_escape_protocolEv+0x72>
 8001172:	2d00      	cmp	r5, #0
 8001174:	d0d5      	beq.n	8001122 <_ZN9telemetry54parse_input_from_FrSky_with_high_level_escape_protocolEv+0x72>
 8001176:	295d      	cmp	r1, #93	; 0x5d
 8001178:	d109      	bne.n	800118e <_ZN9telemetry54parse_input_from_FrSky_with_high_level_escape_protocolEv+0xde>
 800117a:	3074      	adds	r0, #116	; 0x74
 800117c:	4649      	mov	r1, r9
 800117e:	f002 f88f 	bl	80032a0 <_ZN4quan4fifoIhLi3ELb0EE3getERh>
 8001182:	f898 0080 	ldrb.w	r0, [r8, #128]	; 0x80
 8001186:	f080 0260 	eor.w	r2, r0, #96	; 0x60
 800118a:	f888 2080 	strb.w	r2, [r8, #128]	; 0x80
 800118e:	3501      	adds	r5, #1
 8001190:	2d07      	cmp	r5, #7
 8001192:	4b2a      	ldr	r3, [pc, #168]	; (800123c <_ZN9telemetry54parse_input_from_FrSky_with_high_level_escape_protocolEv+0x18c>)
 8001194:	6725      	str	r5, [r4, #112]	; 0x70
 8001196:	d1c4      	bne.n	8001122 <_ZN9telemetry54parse_input_from_FrSky_with_high_level_escape_protocolEv+0x72>
 8001198:	2400      	movs	r4, #0
 800119a:	671c      	str	r4, [r3, #112]	; 0x70
 800119c:	f893 3080 	ldrb.w	r3, [r3, #128]	; 0x80
 80011a0:	2201      	movs	r2, #1
 80011a2:	4c26      	ldr	r4, [pc, #152]	; (800123c <_ZN9telemetry54parse_input_from_FrSky_with_high_level_escape_protocolEv+0x18c>)
 80011a4:	f104 0180 	add.w	r1, r4, #128	; 0x80
 80011a8:	5c50      	ldrb	r0, [r2, r1]
 80011aa:	1819      	adds	r1, r3, r0
 80011ac:	eb01 2021 	add.w	r0, r1, r1, asr #8
 80011b0:	3201      	adds	r2, #1
 80011b2:	181b      	adds	r3, r3, r0
 80011b4:	2a06      	cmp	r2, #6
 80011b6:	b2db      	uxtb	r3, r3
 80011b8:	d1f3      	bne.n	80011a2 <_ZN9telemetry54parse_input_from_FrSky_with_high_level_escape_protocolEv+0xf2>
 80011ba:	f894 1086 	ldrb.w	r1, [r4, #134]	; 0x86
 80011be:	4299      	cmp	r1, r3
 80011c0:	d1af      	bne.n	8001122 <_ZN9telemetry54parse_input_from_FrSky_with_high_level_escape_protocolEv+0x72>
 80011c2:	f894 3084 	ldrb.w	r3, [r4, #132]	; 0x84
 80011c6:	f894 0083 	ldrb.w	r0, [r4, #131]	; 0x83
 80011ca:	041a      	lsls	r2, r3, #16
 80011cc:	eb02 2100 	add.w	r1, r2, r0, lsl #8
 80011d0:	f894 0082 	ldrb.w	r0, [r4, #130]	; 0x82
 80011d4:	f894 2085 	ldrb.w	r2, [r4, #133]	; 0x85
 80011d8:	180b      	adds	r3, r1, r0
 80011da:	f894 0081 	ldrb.w	r0, [r4, #129]	; 0x81
 80011de:	eb03 6102 	add.w	r1, r3, r2, lsl #24
 80011e2:	2802      	cmp	r0, #2
 80011e4:	ee07 1a90 	vmov	s15, r1
 80011e8:	d00e      	beq.n	8001208 <_ZN9telemetry54parse_input_from_FrSky_with_high_level_escape_protocolEv+0x158>
 80011ea:	2808      	cmp	r0, #8
 80011ec:	d017      	beq.n	800121e <_ZN9telemetry54parse_input_from_FrSky_with_high_level_escape_protocolEv+0x16e>
 80011ee:	2801      	cmp	r0, #1
 80011f0:	d197      	bne.n	8001122 <_ZN9telemetry54parse_input_from_FrSky_with_high_level_escape_protocolEv+0x72>
 80011f2:	eeb8 0ae7 	vcvt.f32.s32	s0, s15
 80011f6:	a801      	add	r0, sp, #4
 80011f8:	a902      	add	r1, sp, #8
 80011fa:	ed8d 0a02 	vstr	s0, [sp, #8]
 80011fe:	f002 f83b 	bl	8003278 <_ZN4quan22fraction_of_revolutionINS_4meta8rationalILx1ELx1EEENS2_ILx360ELx1EEEfEC1INS2_ILx3600000000ELx1EEEfEERKNS0_IS3_T_T0_EE>
 8001202:	9b01      	ldr	r3, [sp, #4]
 8001204:	60e3      	str	r3, [r4, #12]
 8001206:	e78c      	b.n	8001122 <_ZN9telemetry54parse_input_from_FrSky_with_high_level_escape_protocolEv+0x72>
 8001208:	eef8 1ae7 	vcvt.f32.s32	s3, s15
 800120c:	a902      	add	r1, sp, #8
 800120e:	a801      	add	r0, sp, #4
 8001210:	edcd 1a02 	vstr	s3, [sp, #8]
 8001214:	f002 f830 	bl	8003278 <_ZN4quan22fraction_of_revolutionINS_4meta8rationalILx1ELx1EEENS2_ILx360ELx1EEEfEC1INS2_ILx3600000000ELx1EEEfEERKNS0_IS3_T_T0_EE>
 8001218:	9901      	ldr	r1, [sp, #4]
 800121a:	6121      	str	r1, [r4, #16]
 800121c:	e781      	b.n	8001122 <_ZN9telemetry54parse_input_from_FrSky_with_high_level_escape_protocolEv+0x72>
 800121e:	eef8 0ae7 	vcvt.f32.s32	s1, s15
 8001222:	ed9f 7a07 	vldr	s14, [pc, #28]	; 8001240 <_ZN9telemetry54parse_input_from_FrSky_with_high_level_escape_protocolEv+0x190>
 8001226:	ee20 1a87 	vmul.f32	s2, s1, s14
 800122a:	2201      	movs	r2, #1
 800122c:	ed84 1a05 	vstr	s2, [r4, #20]
 8001230:	f884 202f 	strb.w	r2, [r4, #47]	; 0x2f
 8001234:	e775      	b.n	8001122 <_ZN9telemetry54parse_input_from_FrSky_with_high_level_escape_protocolEv+0x72>
 8001236:	b007      	add	sp, #28
 8001238:	e8bd 83f0 	ldmia.w	sp!, {r4, r5, r6, r7, r8, r9, pc}
 800123c:	10000924 	.word	0x10000924
 8001240:	447a0000 	.word	0x447a0000

08001244 <_ZN9telemetry11parse_inputEv>:
 8001244:	4b06      	ldr	r3, [pc, #24]	; (8001260 <_ZN9telemetry11parse_inputEv+0x1c>)
 8001246:	f8d3 0088 	ldr.w	r0, [r3, #136]	; 0x88
 800124a:	2801      	cmp	r0, #1
 800124c:	d003      	beq.n	8001256 <_ZN9telemetry11parse_inputEv+0x12>
 800124e:	2802      	cmp	r0, #2
 8001250:	d103      	bne.n	800125a <_ZN9telemetry11parse_inputEv+0x16>
 8001252:	f000 bbd9 	b.w	8001a08 <_Z17parse_commandlinev>
 8001256:	f7ff bcf5 	b.w	8000c44 <_ZN9telemetry41parse_input_from_FrSky_with_cobs_protocolEv>
 800125a:	f7ff bf29 	b.w	80010b0 <_ZN9telemetry54parse_input_from_FrSky_with_high_level_escape_protocolEv>
 800125e:	bf00      	nop
 8001260:	10000924 	.word	0x10000924
 8001264:	f3af 8000 	nop.w

08001268 <_ZN9FrSky2WSP14basic_protocolC1Ev>:
 8001268:	4b06      	ldr	r3, [pc, #24]	; (8001284 <_ZN9FrSky2WSP14basic_protocolC1Ev+0x1c>)
 800126a:	2100      	movs	r1, #0
 800126c:	b510      	push	{r4, lr}
 800126e:	220b      	movs	r2, #11
 8001270:	4604      	mov	r4, r0
 8001272:	6003      	str	r3, [r0, #0]
 8001274:	7101      	strb	r1, [r0, #4]
 8001276:	6101      	str	r1, [r0, #16]
 8001278:	3005      	adds	r0, #5
 800127a:	f003 f969 	bl	8004550 <memset>
 800127e:	4620      	mov	r0, r4
 8001280:	bd10      	pop	{r4, pc}
 8001282:	bf00      	nop
 8001284:	0800dda0 	.word	0x0800dda0

08001288 <_ZN9FrSky2WSP14basic_protocol9get_frameERA9_h>:
 8001288:	b570      	push	{r4, r5, r6, lr}
 800128a:	4604      	mov	r4, r0
 800128c:	460e      	mov	r6, r1
 800128e:	6823      	ldr	r3, [r4, #0]
 8001290:	4620      	mov	r0, r4
 8001292:	6819      	ldr	r1, [r3, #0]
 8001294:	4788      	blx	r1
 8001296:	2802      	cmp	r0, #2
 8001298:	d962      	bls.n	8001360 <_ZN9FrSky2WSP14basic_protocol9get_frameERA9_h+0xd8>
 800129a:	7920      	ldrb	r0, [r4, #4]
 800129c:	6925      	ldr	r5, [r4, #16]
 800129e:	2800      	cmp	r0, #0
 80012a0:	d12c      	bne.n	80012fc <_ZN9FrSky2WSP14basic_protocol9get_frameERA9_h+0x74>
 80012a2:	b115      	cbz	r5, 80012aa <_ZN9FrSky2WSP14basic_protocol9get_frameERA9_h+0x22>
 80012a4:	2d01      	cmp	r5, #1
 80012a6:	d152      	bne.n	800134e <_ZN9FrSky2WSP14basic_protocol9get_frameERA9_h+0xc6>
 80012a8:	e008      	b.n	80012bc <_ZN9FrSky2WSP14basic_protocol9get_frameERA9_h+0x34>
 80012aa:	6823      	ldr	r3, [r4, #0]
 80012ac:	4620      	mov	r0, r4
 80012ae:	6959      	ldr	r1, [r3, #20]
 80012b0:	4788      	blx	r1
 80012b2:	7960      	ldrb	r0, [r4, #5]
 80012b4:	287e      	cmp	r0, #126	; 0x7e
 80012b6:	d1ea      	bne.n	800128e <_ZN9FrSky2WSP14basic_protocol9get_frameERA9_h+0x6>
 80012b8:	2101      	movs	r1, #1
 80012ba:	e04f      	b.n	800135c <_ZN9FrSky2WSP14basic_protocol9get_frameERA9_h+0xd4>
 80012bc:	6822      	ldr	r2, [r4, #0]
 80012be:	4620      	mov	r0, r4
 80012c0:	6953      	ldr	r3, [r2, #20]
 80012c2:	4798      	blx	r3
 80012c4:	79a0      	ldrb	r0, [r4, #6]
 80012c6:	287e      	cmp	r0, #126	; 0x7e
 80012c8:	d103      	bne.n	80012d2 <_ZN9FrSky2WSP14basic_protocol9get_frameERA9_h+0x4a>
 80012ca:	6821      	ldr	r1, [r4, #0]
 80012cc:	4620      	mov	r0, r4
 80012ce:	694a      	ldr	r2, [r1, #20]
 80012d0:	4790      	blx	r2
 80012d2:	79a3      	ldrb	r3, [r4, #6]
 80012d4:	2b7e      	cmp	r3, #126	; 0x7e
 80012d6:	d101      	bne.n	80012dc <_ZN9FrSky2WSP14basic_protocol9get_frameERA9_h+0x54>
 80012d8:	2000      	movs	r0, #0
 80012da:	e038      	b.n	800134e <_ZN9FrSky2WSP14basic_protocol9get_frameERA9_h+0xc6>
 80012dc:	2b7d      	cmp	r3, #125	; 0x7d
 80012de:	d107      	bne.n	80012f0 <_ZN9FrSky2WSP14basic_protocol9get_frameERA9_h+0x68>
 80012e0:	6820      	ldr	r0, [r4, #0]
 80012e2:	6941      	ldr	r1, [r0, #20]
 80012e4:	4620      	mov	r0, r4
 80012e6:	4788      	blx	r1
 80012e8:	79a2      	ldrb	r2, [r4, #6]
 80012ea:	f082 0320 	eor.w	r3, r2, #32
 80012ee:	71a3      	strb	r3, [r4, #6]
 80012f0:	6920      	ldr	r0, [r4, #16]
 80012f2:	2201      	movs	r2, #1
 80012f4:	1c41      	adds	r1, r0, #1
 80012f6:	6121      	str	r1, [r4, #16]
 80012f8:	7122      	strb	r2, [r4, #4]
 80012fa:	e7c8      	b.n	800128e <_ZN9FrSky2WSP14basic_protocol9get_frameERA9_h+0x6>
 80012fc:	6820      	ldr	r0, [r4, #0]
 80012fe:	b115      	cbz	r5, 8001306 <_ZN9FrSky2WSP14basic_protocol9get_frameERA9_h+0x7e>
 8001300:	2d0a      	cmp	r5, #10
 8001302:	d126      	bne.n	8001352 <_ZN9FrSky2WSP14basic_protocol9get_frameERA9_h+0xca>
 8001304:	e008      	b.n	8001318 <_ZN9FrSky2WSP14basic_protocol9get_frameERA9_h+0x90>
 8001306:	6942      	ldr	r2, [r0, #20]
 8001308:	4620      	mov	r0, r4
 800130a:	4790      	blx	r2
 800130c:	7960      	ldrb	r0, [r4, #5]
 800130e:	287e      	cmp	r0, #126	; 0x7e
 8001310:	d022      	beq.n	8001358 <_ZN9FrSky2WSP14basic_protocol9get_frameERA9_h+0xd0>
 8001312:	7125      	strb	r5, [r4, #4]
 8001314:	6125      	str	r5, [r4, #16]
 8001316:	e023      	b.n	8001360 <_ZN9FrSky2WSP14basic_protocol9get_frameERA9_h+0xd8>
 8001318:	6943      	ldr	r3, [r0, #20]
 800131a:	4620      	mov	r0, r4
 800131c:	4798      	blx	r3
 800131e:	7be1      	ldrb	r1, [r4, #15]
 8001320:	297e      	cmp	r1, #126	; 0x7e
 8001322:	d112      	bne.n	800134a <_ZN9FrSky2WSP14basic_protocol9get_frameERA9_h+0xc2>
 8001324:	7960      	ldrb	r0, [r4, #5]
 8001326:	28fd      	cmp	r0, #253	; 0xfd
 8001328:	d103      	bne.n	8001332 <_ZN9FrSky2WSP14basic_protocol9get_frameERA9_h+0xaa>
 800132a:	79a2      	ldrb	r2, [r4, #6]
 800132c:	1e53      	subs	r3, r2, #1
 800132e:	2b05      	cmp	r3, #5
 8001330:	d80b      	bhi.n	800134a <_ZN9FrSky2WSP14basic_protocol9get_frameERA9_h+0xc2>
 8001332:	4621      	mov	r1, r4
 8001334:	f851 0f06 	ldr.w	r0, [r1, #6]!
 8001338:	6030      	str	r0, [r6, #0]
 800133a:	684a      	ldr	r2, [r1, #4]
 800133c:	6072      	str	r2, [r6, #4]
 800133e:	7a0b      	ldrb	r3, [r1, #8]
 8001340:	2100      	movs	r1, #0
 8001342:	7233      	strb	r3, [r6, #8]
 8001344:	2001      	movs	r0, #1
 8001346:	6121      	str	r1, [r4, #16]
 8001348:	bd70      	pop	{r4, r5, r6, pc}
 800134a:	2000      	movs	r0, #0
 800134c:	7120      	strb	r0, [r4, #4]
 800134e:	6120      	str	r0, [r4, #16]
 8001350:	bd70      	pop	{r4, r5, r6, pc}
 8001352:	6902      	ldr	r2, [r0, #16]
 8001354:	4620      	mov	r0, r4
 8001356:	4790      	blx	r2
 8001358:	6923      	ldr	r3, [r4, #16]
 800135a:	1c59      	adds	r1, r3, #1
 800135c:	6121      	str	r1, [r4, #16]
 800135e:	e796      	b.n	800128e <_ZN9FrSky2WSP14basic_protocol9get_frameERA9_h+0x6>
 8001360:	2000      	movs	r0, #0
 8001362:	bd70      	pop	{r4, r5, r6, pc}

08001364 <_Z11update_ledsv>:
 8001364:	4b2e      	ldr	r3, [pc, #184]	; (8001420 <_Z11update_ledsv+0xbc>)
 8001366:	685a      	ldr	r2, [r3, #4]
 8001368:	2a00      	cmp	r2, #0
 800136a:	b510      	push	{r4, lr}
 800136c:	dd0f      	ble.n	800138e <_Z11update_ledsv+0x2a>
 800136e:	6899      	ldr	r1, [r3, #8]
 8001370:	2900      	cmp	r1, #0
 8001372:	dd0c      	ble.n	800138e <_Z11update_ledsv+0x2a>
 8001374:	6818      	ldr	r0, [r3, #0]
 8001376:	3832      	subs	r0, #50	; 0x32
 8001378:	2800      	cmp	r0, #0
 800137a:	6018      	str	r0, [r3, #0]
 800137c:	dc07      	bgt.n	800138e <_Z11update_ledsv+0x2a>
 800137e:	4829      	ldr	r0, [pc, #164]	; (8001424 <_Z11update_ledsv+0xc0>)
 8001380:	6804      	ldr	r4, [r0, #0]
 8001382:	3080      	adds	r0, #128	; 0x80
 8001384:	2c00      	cmp	r4, #0
 8001386:	d030      	beq.n	80013ea <_Z11update_ledsv+0x86>
 8001388:	6019      	str	r1, [r3, #0]
 800138a:	2300      	movs	r3, #0
 800138c:	6003      	str	r3, [r0, #0]
 800138e:	4b24      	ldr	r3, [pc, #144]	; (8001420 <_Z11update_ledsv+0xbc>)
 8001390:	691a      	ldr	r2, [r3, #16]
 8001392:	2a00      	cmp	r2, #0
 8001394:	dd0e      	ble.n	80013b4 <_Z11update_ledsv+0x50>
 8001396:	6959      	ldr	r1, [r3, #20]
 8001398:	2900      	cmp	r1, #0
 800139a:	dd0b      	ble.n	80013b4 <_Z11update_ledsv+0x50>
 800139c:	68d8      	ldr	r0, [r3, #12]
 800139e:	3832      	subs	r0, #50	; 0x32
 80013a0:	2800      	cmp	r0, #0
 80013a2:	60d8      	str	r0, [r3, #12]
 80013a4:	dc06      	bgt.n	80013b4 <_Z11update_ledsv+0x50>
 80013a6:	4820      	ldr	r0, [pc, #128]	; (8001428 <_Z11update_ledsv+0xc4>)
 80013a8:	6804      	ldr	r4, [r0, #0]
 80013aa:	3080      	adds	r0, #128	; 0x80
 80013ac:	b304      	cbz	r4, 80013f0 <_Z11update_ledsv+0x8c>
 80013ae:	60d9      	str	r1, [r3, #12]
 80013b0:	2300      	movs	r3, #0
 80013b2:	6003      	str	r3, [r0, #0]
 80013b4:	4b1a      	ldr	r3, [pc, #104]	; (8001420 <_Z11update_ledsv+0xbc>)
 80013b6:	69da      	ldr	r2, [r3, #28]
 80013b8:	2a00      	cmp	r2, #0
 80013ba:	dd0e      	ble.n	80013da <_Z11update_ledsv+0x76>
 80013bc:	6a19      	ldr	r1, [r3, #32]
 80013be:	2900      	cmp	r1, #0
 80013c0:	dd0b      	ble.n	80013da <_Z11update_ledsv+0x76>
 80013c2:	6998      	ldr	r0, [r3, #24]
 80013c4:	3832      	subs	r0, #50	; 0x32
 80013c6:	2800      	cmp	r0, #0
 80013c8:	6198      	str	r0, [r3, #24]
 80013ca:	dc06      	bgt.n	80013da <_Z11update_ledsv+0x76>
 80013cc:	4817      	ldr	r0, [pc, #92]	; (800142c <_Z11update_ledsv+0xc8>)
 80013ce:	6804      	ldr	r4, [r0, #0]
 80013d0:	3080      	adds	r0, #128	; 0x80
 80013d2:	b184      	cbz	r4, 80013f6 <_Z11update_ledsv+0x92>
 80013d4:	6199      	str	r1, [r3, #24]
 80013d6:	2300      	movs	r3, #0
 80013d8:	6003      	str	r3, [r0, #0]
 80013da:	4b11      	ldr	r3, [pc, #68]	; (8001420 <_Z11update_ledsv+0xbc>)
 80013dc:	6a99      	ldr	r1, [r3, #40]	; 0x28
 80013de:	2900      	cmp	r1, #0
 80013e0:	dd1c      	ble.n	800141c <_Z11update_ledsv+0xb8>
 80013e2:	6ad8      	ldr	r0, [r3, #44]	; 0x2c
 80013e4:	2800      	cmp	r0, #0
 80013e6:	dc09      	bgt.n	80013fc <_Z11update_ledsv+0x98>
 80013e8:	bd10      	pop	{r4, pc}
 80013ea:	601a      	str	r2, [r3, #0]
 80013ec:	2301      	movs	r3, #1
 80013ee:	e7cd      	b.n	800138c <_Z11update_ledsv+0x28>
 80013f0:	60da      	str	r2, [r3, #12]
 80013f2:	2301      	movs	r3, #1
 80013f4:	e7dd      	b.n	80013b2 <_Z11update_ledsv+0x4e>
 80013f6:	619a      	str	r2, [r3, #24]
 80013f8:	2301      	movs	r3, #1
 80013fa:	e7ed      	b.n	80013d8 <_Z11update_ledsv+0x74>
 80013fc:	6a5a      	ldr	r2, [r3, #36]	; 0x24
 80013fe:	3a32      	subs	r2, #50	; 0x32
 8001400:	2a00      	cmp	r2, #0
 8001402:	625a      	str	r2, [r3, #36]	; 0x24
 8001404:	dc0a      	bgt.n	800141c <_Z11update_ledsv+0xb8>
 8001406:	4a0a      	ldr	r2, [pc, #40]	; (8001430 <_Z11update_ledsv+0xcc>)
 8001408:	6814      	ldr	r4, [r2, #0]
 800140a:	3280      	adds	r2, #128	; 0x80
 800140c:	b114      	cbz	r4, 8001414 <_Z11update_ledsv+0xb0>
 800140e:	6258      	str	r0, [r3, #36]	; 0x24
 8001410:	2300      	movs	r3, #0
 8001412:	e001      	b.n	8001418 <_Z11update_ledsv+0xb4>
 8001414:	6259      	str	r1, [r3, #36]	; 0x24
 8001416:	2301      	movs	r3, #1
 8001418:	6013      	str	r3, [r2, #0]
 800141a:	bd10      	pop	{r4, pc}
 800141c:	bd10      	pop	{r4, pc}
 800141e:	bf00      	nop
 8001420:	100009b0 	.word	0x100009b0
 8001424:	42418238 	.word	0x42418238
 8001428:	42418230 	.word	0x42418230
 800142c:	4241823c 	.word	0x4241823c
 8001430:	42418234 	.word	0x42418234

08001434 <_Z10setup_ledsv>:
 8001434:	b51f      	push	{r0, r1, r2, r3, r4, lr}
 8001436:	4c1e      	ldr	r4, [pc, #120]	; (80014b0 <_Z10setup_ledsv+0x7c>)
 8001438:	f002 f81c 	bl	8003474 <_ZN4quan5stm3213module_enableINS0_4gpio6moduleILm1073875968EEEEENS_6where_INS_11is_model_ofINS0_4GpioET_EEvE4typeEv>
 800143c:	6823      	ldr	r3, [r4, #0]
 800143e:	f023 5040 	bic.w	r0, r3, #805306368	; 0x30000000
 8001442:	f040 5180 	orr.w	r1, r0, #268435456	; 0x10000000
 8001446:	6021      	str	r1, [r4, #0]
 8001448:	6862      	ldr	r2, [r4, #4]
 800144a:	f422 4380 	bic.w	r3, r2, #16384	; 0x4000
 800144e:	6063      	str	r3, [r4, #4]
 8001450:	4668      	mov	r0, sp
 8001452:	f002 f817 	bl	8003484 <_ZNK4quan4meta4impl27for_each_type_sequence_implINS0_13type_sequenceIINS_5stm3210periph_regINS4_4gpio6moduleILm1073875968EEELm8EmEENS5_IS8_Lm12EmEENS5_IS8_Lm16EmEENS5_IS8_Lm20EmEENS5_IS8_Lm24EmEENS5_IS8_Lm28EmEENS5_IS8_Lm32EmEENS5_IS8_Lm36EmEEEEENS4_6detail24apply_periph_reg_actionsIS8_NS3_IINSI_17periph_reg_actionINS5_IS8_Lm0EmEENS0_6bit_orELm268435456EEENSK_ISL_NS0_7bit_andELm3758096383EEENSK_INS5_IS8_Lm4EmEESM_Lm0EEENSK_ISQ_SO_Lm4294950911EEENSK_ISA_SM_Lm0EEENSK_ISA_SO_Lm3489660927EEENSK_IS9_SM_Lm0EEENSK_IS9_SO_Lm3489660927EEENSK_ISC_SO_Lm4294950911EEEEEEEELb1EvEclEv>
 8001456:	f002 f80d 	bl	8003474 <_ZN4quan5stm3213module_enableINS0_4gpio6moduleILm1073875968EEEEENS_6where_INS_11is_model_ofINS0_4GpioET_EEvE4typeEv>
 800145a:	a801      	add	r0, sp, #4
 800145c:	f002 f832 	bl	80034c4 <_ZNK4quan4meta4impl27for_each_type_sequence_implINS0_13type_sequenceIINS_5stm3210periph_regINS4_4gpio6moduleILm1073875968EEELm0EmEENS5_IS8_Lm4EmEENS5_IS8_Lm8EmEENS5_IS8_Lm12EmEENS5_IS8_Lm16EmEENS5_IS8_Lm20EmEENS5_IS8_Lm24EmEENS5_IS8_Lm28EmEENS5_IS8_Lm32EmEENS5_IS8_Lm36EmEEEEENS4_6detail24apply_periph_reg_actionsIS8_NS3_IINSK_17periph_reg_actionIS9_NS0_6bit_orELm1073741824EEENSM_IS9_NS0_7bit_andELm2147483647EEENSM_ISA_SN_Lm0EEENSM_ISA_SP_Lm4294934527EEENSM_ISC_SN_Lm0EEENSM_ISC_SP_Lm1073741823EEENSM_ISB_SN_Lm0EEENSM_ISB_SP_Lm1073741823EEENSM_ISE_SP_Lm4294934527EEEEEEEELb1EvEclEv>
 8001460:	f002 f808 	bl	8003474 <_ZN4quan5stm3213module_enableINS0_4gpio6moduleILm1073875968EEEEENS_6where_INS_11is_model_ofINS0_4GpioET_EEvE4typeEv>
 8001464:	a802      	add	r0, sp, #8
 8001466:	f002 f84f 	bl	8003508 <_ZNK4quan4meta4impl27for_each_type_sequence_implINS0_13type_sequenceIINS_5stm3210periph_regINS4_4gpio6moduleILm1073875968EEELm0EmEENS5_IS8_Lm4EmEENS5_IS8_Lm8EmEENS5_IS8_Lm12EmEENS5_IS8_Lm16EmEENS5_IS8_Lm20EmEENS5_IS8_Lm24EmEENS5_IS8_Lm28EmEENS5_IS8_Lm32EmEENS5_IS8_Lm36EmEEEEENS4_6detail24apply_periph_reg_actionsIS8_NS3_IINSK_17periph_reg_actionIS9_NS0_6bit_orELm16777216EEENSM_IS9_NS0_7bit_andELm4261412863EEENSM_ISA_SN_Lm0EEENSM_ISA_SP_Lm4294963199EEENSM_ISC_SN_Lm0EEENSM_ISC_SP_Lm4244635647EEENSM_ISB_SN_Lm0EEENSM_ISB_SP_Lm4244635647EEENSM_ISE_SP_Lm4294963199EEEEEEEELb1EvEclEv>
 800146a:	f002 f803 	bl	8003474 <_ZN4quan5stm3213module_enableINS0_4gpio6moduleILm1073875968EEEEENS_6where_INS_11is_model_ofINS0_4GpioET_EEvE4typeEv>
 800146e:	6820      	ldr	r0, [r4, #0]
 8001470:	f020 6140 	bic.w	r1, r0, #201326592	; 0xc000000
 8001474:	f041 6280 	orr.w	r2, r1, #67108864	; 0x4000000
 8001478:	6022      	str	r2, [r4, #0]
 800147a:	6863      	ldr	r3, [r4, #4]
 800147c:	f423 5000 	bic.w	r0, r3, #8192	; 0x2000
 8001480:	6060      	str	r0, [r4, #4]
 8001482:	a803      	add	r0, sp, #12
 8001484:	f002 f852 	bl	800352c <_ZNK4quan4meta4impl27for_each_type_sequence_implINS0_13type_sequenceIINS_5stm3210periph_regINS4_4gpio6moduleILm1073875968EEELm8EmEENS5_IS8_Lm12EmEENS5_IS8_Lm16EmEENS5_IS8_Lm20EmEENS5_IS8_Lm24EmEENS5_IS8_Lm28EmEENS5_IS8_Lm32EmEENS5_IS8_Lm36EmEEEEENS4_6detail24apply_periph_reg_actionsIS8_NS3_IINSI_17periph_reg_actionINS5_IS8_Lm0EmEENS0_6bit_orELm67108864EEENSK_ISL_NS0_7bit_andELm4160749567EEENSK_INS5_IS8_Lm4EmEESM_Lm0EEENSK_ISQ_SO_Lm4294959103EEENSK_ISA_SM_Lm0EEENSK_ISA_SO_Lm4093640703EEENSK_IS9_SM_Lm0EEENSK_IS9_SO_Lm4093640703EEENSK_ISC_SO_Lm4294959103EEEEEEEELb1EvEclEv>
 8001488:	4a0a      	ldr	r2, [pc, #40]	; (80014b4 <_Z10setup_ledsv+0x80>)
 800148a:	480b      	ldr	r0, [pc, #44]	; (80014b8 <_Z10setup_ledsv+0x84>)
 800148c:	2300      	movs	r3, #0
 800148e:	2101      	movs	r1, #1
 8001490:	6091      	str	r1, [r2, #8]
 8001492:	6053      	str	r3, [r2, #4]
 8001494:	6003      	str	r3, [r0, #0]
 8001496:	6151      	str	r1, [r2, #20]
 8001498:	6113      	str	r3, [r2, #16]
 800149a:	f840 3c08 	str.w	r3, [r0, #-8]
 800149e:	6211      	str	r1, [r2, #32]
 80014a0:	61d3      	str	r3, [r2, #28]
 80014a2:	6043      	str	r3, [r0, #4]
 80014a4:	62d1      	str	r1, [r2, #44]	; 0x2c
 80014a6:	6293      	str	r3, [r2, #40]	; 0x28
 80014a8:	4a04      	ldr	r2, [pc, #16]	; (80014bc <_Z10setup_ledsv+0x88>)
 80014aa:	6013      	str	r3, [r2, #0]
 80014ac:	bd1f      	pop	{r0, r1, r2, r3, r4, pc}
 80014ae:	bf00      	nop
 80014b0:	40020c00 	.word	0x40020c00
 80014b4:	100009b0 	.word	0x100009b0
 80014b8:	424182b8 	.word	0x424182b8
 80014bc:	424182b4 	.word	0x424182b4

080014c0 <_Z14setup_switchesv>:
 80014c0:	4b08      	ldr	r3, [pc, #32]	; (80014e4 <_Z14setup_switchesv+0x24>)
 80014c2:	6b1a      	ldr	r2, [r3, #48]	; 0x30
 80014c4:	f5a3 5160 	sub.w	r1, r3, #14336	; 0x3800
 80014c8:	f042 0001 	orr.w	r0, r2, #1
 80014cc:	6318      	str	r0, [r3, #48]	; 0x30
 80014ce:	680b      	ldr	r3, [r1, #0]
 80014d0:	f023 0203 	bic.w	r2, r3, #3
 80014d4:	600a      	str	r2, [r1, #0]
 80014d6:	68c8      	ldr	r0, [r1, #12]
 80014d8:	f020 0303 	bic.w	r3, r0, #3
 80014dc:	f043 0202 	orr.w	r2, r3, #2
 80014e0:	60ca      	str	r2, [r1, #12]
 80014e2:	4770      	bx	lr
 80014e4:	40023800 	.word	0x40023800

080014e8 <_Z15switches_updatev>:
 80014e8:	b537      	push	{r0, r1, r2, r4, r5, lr}
 80014ea:	4b10      	ldr	r3, [pc, #64]	; (800152c <_Z15switches_updatev+0x44>)
 80014ec:	4c10      	ldr	r4, [pc, #64]	; (8001530 <_Z15switches_updatev+0x48>)
 80014ee:	9301      	str	r3, [sp, #4]
 80014f0:	a901      	add	r1, sp, #4
 80014f2:	4668      	mov	r0, sp
 80014f4:	f002 f844 	bl	8003580 <_ZNK4quan11impl_detail23arithmetic_convert_implIlfvEclERKf>
 80014f8:	4605      	mov	r5, r0
 80014fa:	6820      	ldr	r0, [r4, #0]
 80014fc:	6801      	ldr	r1, [r0, #0]
 80014fe:	4620      	mov	r0, r4
 8001500:	4788      	blx	r1
 8001502:	7922      	ldrb	r2, [r4, #4]
 8001504:	4282      	cmp	r2, r0
 8001506:	d102      	bne.n	800150e <_Z15switches_updatev+0x26>
 8001508:	2000      	movs	r0, #0
 800150a:	60a0      	str	r0, [r4, #8]
 800150c:	e00c      	b.n	8001528 <_Z15switches_updatev+0x40>
 800150e:	68a1      	ldr	r1, [r4, #8]
 8001510:	186a      	adds	r2, r5, r1
 8001512:	4908      	ldr	r1, [pc, #32]	; (8001534 <_Z15switches_updatev+0x4c>)
 8001514:	60a2      	str	r2, [r4, #8]
 8001516:	6809      	ldr	r1, [r1, #0]
 8001518:	428a      	cmp	r2, r1
 800151a:	db05      	blt.n	8001528 <_Z15switches_updatev+0x40>
 800151c:	68e2      	ldr	r2, [r4, #12]
 800151e:	7120      	strb	r0, [r4, #4]
 8001520:	2300      	movs	r3, #0
 8001522:	60a3      	str	r3, [r4, #8]
 8001524:	b102      	cbz	r2, 8001528 <_Z15switches_updatev+0x40>
 8001526:	4790      	blx	r2
 8001528:	bd3e      	pop	{r1, r2, r3, r4, r5, pc}
 800152a:	bf00      	nop
 800152c:	447a0000 	.word	0x447a0000
 8001530:	100009e0 	.word	0x100009e0
 8001534:	1000001c 	.word	0x1000001c

08001538 <USART3_IRQHandler>:
 8001538:	4668      	mov	r0, sp
 800153a:	f020 0107 	bic.w	r1, r0, #7
 800153e:	468d      	mov	sp, r1
 8001540:	b501      	push	{r0, lr}
 8001542:	f002 f8b5 	bl	80036b0 <_ZN4quan5stm325usart11irq_handlerINS0_11serial_portINS1_6moduleILm1073760256EEELj1000ELj1000ENS_3mcu3pinINS0_4gpio6moduleILm1073875968EEELm8EEENS7_ISA_Lm9EEEEEEEvv>
 8001546:	e8bd 4001 	ldmia.w	sp!, {r0, lr}
 800154a:	4685      	mov	sp, r0
 800154c:	4770      	bx	lr

0800154e <USART2_IRQHandler>:
 800154e:	4668      	mov	r0, sp
 8001550:	f020 0107 	bic.w	r1, r0, #7
 8001554:	468d      	mov	sp, r1
 8001556:	b501      	push	{r0, lr}
 8001558:	f002 f8e0 	bl	800371c <_ZN4quan5stm325usart11irq_handlerINS0_11serial_portINS1_6moduleILm1073759232EEELj25ELj1000ENS_3mcu3pinINS0_4gpio6moduleILm1073875968EEELm5EEENS7_ISA_Lm6EEEEEEEvv>
 800155c:	e8bd 4001 	ldmia.w	sp!, {r0, lr}
 8001560:	4685      	mov	sp, r0
 8001562:	4770      	bx	lr

08001564 <__cxa_pure_virtual>:
 8001564:	e7fe      	b.n	8001564 <__cxa_pure_virtual>

08001566 <_ZdlPv>:
 8001566:	4770      	bx	lr

08001568 <setup>:
 8001568:	b508      	push	{r3, lr}
 800156a:	f7ff ff63 	bl	8001434 <_Z10setup_ledsv>
 800156e:	f7ff ffa7 	bl	80014c0 <_Z14setup_switchesv>
 8001572:	f000 fc19 	bl	8001da8 <_Z13setup_systickv>
 8001576:	f7ff fa5b 	bl	8000a30 <_ZN9main_loop27elevation_servo_setup_portsEv>
 800157a:	f7fe ffb1 	bl	80004e0 <_ZN7azimuth5motor11setup_portsEv>
 800157e:	4b09      	ldr	r3, [pc, #36]	; (80015a4 <setup+0x3c>)
 8001580:	22d0      	movs	r2, #208	; 0xd0
 8001582:	20c0      	movs	r0, #192	; 0xc0
 8001584:	f883 2326 	strb.w	r2, [r3, #806]	; 0x326
 8001588:	f883 0327 	strb.w	r0, [r3, #807]	; 0x327
 800158c:	f002 f9e0 	bl	8003950 <_ZN4quan5stm3211serial_portINS0_5usart6moduleILm1073759232EEELj25ELj1000ENS_3mcu3pinINS0_4gpio6moduleILm1073875968EEELm5EEENS6_IS9_Lm6EEEE4initEv>
 8001590:	f002 fa42 	bl	8003a18 <_ZN4quan5stm3211serial_portINS0_5usart6moduleILm1073760256EEELj1000ELj1000ENS_3mcu3pinINS0_4gpio6moduleILm1073875968EEELm8EEENS6_IS9_Lm9EEEE4initEv>
 8001594:	f7fe fef4 	bl	8000380 <_ZN7azimuth7encoder5setupEv>
 8001598:	f000 faee 	bl	8001b78 <_Z13setup_compassv>
 800159c:	e8bd 4008 	ldmia.w	sp!, {r3, lr}
 80015a0:	f7ff b978 	b.w	8000894 <_ZN9main_loop5setupEv>
 80015a4:	e000e100 	.word	0xe000e100

080015a8 <_sbrk>:
 80015a8:	4a08      	ldr	r2, [pc, #32]	; (80015cc <_sbrk+0x24>)
 80015aa:	4909      	ldr	r1, [pc, #36]	; (80015d0 <_sbrk+0x28>)
 80015ac:	b508      	push	{r3, lr}
 80015ae:	6813      	ldr	r3, [r2, #0]
 80015b0:	1818      	adds	r0, r3, r0
 80015b2:	4288      	cmp	r0, r1
 80015b4:	d906      	bls.n	80015c4 <_sbrk+0x1c>
 80015b6:	f002 fed9 	bl	800436c <__errno>
 80015ba:	220c      	movs	r2, #12
 80015bc:	6002      	str	r2, [r0, #0]
 80015be:	f04f 33ff 	mov.w	r3, #4294967295
 80015c2:	e000      	b.n	80015c6 <_sbrk+0x1e>
 80015c4:	6010      	str	r0, [r2, #0]
 80015c6:	4618      	mov	r0, r3
 80015c8:	bd08      	pop	{r3, pc}
 80015ca:	bf00      	nop
 80015cc:	10000020 	.word	0x10000020
 80015d0:	10003784 	.word	0x10003784

080015d4 <SystemInit>:
 80015d4:	4b38      	ldr	r3, [pc, #224]	; (80016b8 <SystemInit+0xe4>)
 80015d6:	f8d3 2088 	ldr.w	r2, [r3, #136]	; 0x88
 80015da:	f442 0070 	orr.w	r0, r2, #15728640	; 0xf00000
 80015de:	f8c3 0088 	str.w	r0, [r3, #136]	; 0x88
 80015e2:	4b36      	ldr	r3, [pc, #216]	; (80016bc <SystemInit+0xe8>)
 80015e4:	6819      	ldr	r1, [r3, #0]
 80015e6:	2000      	movs	r0, #0
 80015e8:	f041 0201 	orr.w	r2, r1, #1
 80015ec:	601a      	str	r2, [r3, #0]
 80015ee:	6098      	str	r0, [r3, #8]
 80015f0:	6819      	ldr	r1, [r3, #0]
 80015f2:	f021 7284 	bic.w	r2, r1, #17301504	; 0x1080000
 80015f6:	f422 3180 	bic.w	r1, r2, #65536	; 0x10000
 80015fa:	4a31      	ldr	r2, [pc, #196]	; (80016c0 <SystemInit+0xec>)
 80015fc:	6019      	str	r1, [r3, #0]
 80015fe:	605a      	str	r2, [r3, #4]
 8001600:	6819      	ldr	r1, [r3, #0]
 8001602:	b082      	sub	sp, #8
 8001604:	f421 2280 	bic.w	r2, r1, #262144	; 0x40000
 8001608:	601a      	str	r2, [r3, #0]
 800160a:	60d8      	str	r0, [r3, #12]
 800160c:	9000      	str	r0, [sp, #0]
 800160e:	9001      	str	r0, [sp, #4]
 8001610:	6818      	ldr	r0, [r3, #0]
 8001612:	f440 3180 	orr.w	r1, r0, #65536	; 0x10000
 8001616:	6019      	str	r1, [r3, #0]
 8001618:	4b28      	ldr	r3, [pc, #160]	; (80016bc <SystemInit+0xe8>)
 800161a:	681a      	ldr	r2, [r3, #0]
 800161c:	f402 3000 	and.w	r0, r2, #131072	; 0x20000
 8001620:	9001      	str	r0, [sp, #4]
 8001622:	9900      	ldr	r1, [sp, #0]
 8001624:	1c4a      	adds	r2, r1, #1
 8001626:	9200      	str	r2, [sp, #0]
 8001628:	9801      	ldr	r0, [sp, #4]
 800162a:	b918      	cbnz	r0, 8001634 <SystemInit+0x60>
 800162c:	9900      	ldr	r1, [sp, #0]
 800162e:	f5b1 6fa0 	cmp.w	r1, #1280	; 0x500
 8001632:	d1f1      	bne.n	8001618 <SystemInit+0x44>
 8001634:	681b      	ldr	r3, [r3, #0]
 8001636:	f413 3200 	ands.w	r2, r3, #131072	; 0x20000
 800163a:	d000      	beq.n	800163e <SystemInit+0x6a>
 800163c:	2201      	movs	r2, #1
 800163e:	9201      	str	r2, [sp, #4]
 8001640:	9801      	ldr	r0, [sp, #4]
 8001642:	2801      	cmp	r0, #1
 8001644:	d130      	bne.n	80016a8 <SystemInit+0xd4>
 8001646:	4b1d      	ldr	r3, [pc, #116]	; (80016bc <SystemInit+0xe8>)
 8001648:	481e      	ldr	r0, [pc, #120]	; (80016c4 <SystemInit+0xf0>)
 800164a:	6c19      	ldr	r1, [r3, #64]	; 0x40
 800164c:	f041 5280 	orr.w	r2, r1, #268435456	; 0x10000000
 8001650:	641a      	str	r2, [r3, #64]	; 0x40
 8001652:	6801      	ldr	r1, [r0, #0]
 8001654:	f441 4280 	orr.w	r2, r1, #16384	; 0x4000
 8001658:	6002      	str	r2, [r0, #0]
 800165a:	6898      	ldr	r0, [r3, #8]
 800165c:	6098      	str	r0, [r3, #8]
 800165e:	6899      	ldr	r1, [r3, #8]
 8001660:	f441 4200 	orr.w	r2, r1, #32768	; 0x8000
 8001664:	609a      	str	r2, [r3, #8]
 8001666:	6898      	ldr	r0, [r3, #8]
 8001668:	4a17      	ldr	r2, [pc, #92]	; (80016c8 <SystemInit+0xf4>)
 800166a:	f440 51a0 	orr.w	r1, r0, #5120	; 0x1400
 800166e:	6099      	str	r1, [r3, #8]
 8001670:	605a      	str	r2, [r3, #4]
 8001672:	6818      	ldr	r0, [r3, #0]
 8001674:	f040 7180 	orr.w	r1, r0, #16777216	; 0x1000000
 8001678:	6019      	str	r1, [r3, #0]
 800167a:	6818      	ldr	r0, [r3, #0]
 800167c:	4a0f      	ldr	r2, [pc, #60]	; (80016bc <SystemInit+0xe8>)
 800167e:	0181      	lsls	r1, r0, #6
 8001680:	d5fb      	bpl.n	800167a <SystemInit+0xa6>
 8001682:	4b12      	ldr	r3, [pc, #72]	; (80016cc <SystemInit+0xf8>)
 8001684:	f240 6105 	movw	r1, #1541	; 0x605
 8001688:	6019      	str	r1, [r3, #0]
 800168a:	6890      	ldr	r0, [r2, #8]
 800168c:	f020 0103 	bic.w	r1, r0, #3
 8001690:	6091      	str	r1, [r2, #8]
 8001692:	6893      	ldr	r3, [r2, #8]
 8001694:	f043 0002 	orr.w	r0, r3, #2
 8001698:	6090      	str	r0, [r2, #8]
 800169a:	4a08      	ldr	r2, [pc, #32]	; (80016bc <SystemInit+0xe8>)
 800169c:	6891      	ldr	r1, [r2, #8]
 800169e:	f001 030c 	and.w	r3, r1, #12
 80016a2:	2b08      	cmp	r3, #8
 80016a4:	d1f9      	bne.n	800169a <SystemInit+0xc6>
 80016a6:	e000      	b.n	80016aa <SystemInit+0xd6>
 80016a8:	e7fe      	b.n	80016a8 <SystemInit+0xd4>
 80016aa:	4a03      	ldr	r2, [pc, #12]	; (80016b8 <SystemInit+0xe4>)
 80016ac:	f04f 6000 	mov.w	r0, #134217728	; 0x8000000
 80016b0:	6090      	str	r0, [r2, #8]
 80016b2:	b002      	add	sp, #8
 80016b4:	4770      	bx	lr
 80016b6:	bf00      	nop
 80016b8:	e000ed00 	.word	0xe000ed00
 80016bc:	40023800 	.word	0x40023800
 80016c0:	24003010 	.word	0x24003010
 80016c4:	40007000 	.word	0x40007000
 80016c8:	07402a04 	.word	0x07402a04
 80016cc:	40023c00 	.word	0x40023c00

080016d0 <_ZN12_GLOBAL__N_114parse_positionEPKcjRN4quan3uav8positionINS2_22fraction_of_revolutionINS2_4meta8rationalILx1ELx1EEENS7_ILx360ELx1EEEfEENS2_14fixed_quantityINS6_4unitINS6_17abstract_quantityINS6_9dimensionIS8_NS7_ILx0ELx1EEESF_SF_SF_SF_SF_EENS6_10components9of_lengthEEENS6_17conversion_factorINS7_ILxn3ELx1EEES8_NS6_5int32ILl0EEEEEEEfEEEE.part.11>:
 80016d0:	b570      	push	{r4, r5, r6, lr}
 80016d2:	4603      	mov	r3, r0
 80016d4:	b0a0      	sub	sp, #128	; 0x80
 80016d6:	460c      	mov	r4, r1
 80016d8:	4615      	mov	r5, r2
 80016da:	4619      	mov	r1, r3
 80016dc:	4622      	mov	r2, r4
 80016de:	a807      	add	r0, sp, #28
 80016e0:	f002 fe94 	bl	800440c <memcpy>
 80016e4:	aa20      	add	r2, sp, #128	; 0x80
 80016e6:	1910      	adds	r0, r2, r4
 80016e8:	4e1c      	ldr	r6, [pc, #112]	; (800175c <_ZN12_GLOBAL__N_114parse_positionEPKcjRN4quan3uav8positionINS2_22fraction_of_revolutionINS2_4meta8rationalILx1ELx1EEENS7_ILx360ELx1EEEfEENS2_14fixed_quantityINS6_4unitINS6_17abstract_quantityINS6_9dimensionIS8_NS7_ILx0ELx1EEESF_SF_SF_SF_SF_EENS6_10components9of_lengthEEENS6_17conversion_factorINS7_ILxn3ELx1EEES8_NS6_5int32ILl0EEEEEEEfEEEE.part.11+0x8c>)
 80016ea:	2100      	movs	r1, #0
 80016ec:	2400      	movs	r4, #0
 80016ee:	f800 4c64 	strb.w	r4, [r0, #-100]
 80016f2:	9101      	str	r1, [sp, #4]
 80016f4:	9102      	str	r1, [sp, #8]
 80016f6:	9103      	str	r1, [sp, #12]
 80016f8:	e896 0007 	ldmia.w	r6, {r0, r1, r2}
 80016fc:	ab04      	add	r3, sp, #16
 80016fe:	e883 0007 	stmia.w	r3, {r0, r1, r2}
 8001702:	466e      	mov	r6, sp
 8001704:	b90c      	cbnz	r4, 800170a <_ZN12_GLOBAL__N_114parse_positionEPKcjRN4quan3uav8positionINS2_22fraction_of_revolutionINS2_4meta8rationalILx1ELx1EEENS7_ILx360ELx1EEEfEENS2_14fixed_quantityINS6_4unitINS6_17abstract_quantityINS6_9dimensionIS8_NS7_ILx0ELx1EEESF_SF_SF_SF_SF_EENS6_10components9of_lengthEEENS6_17conversion_factorINS7_ILxn3ELx1EEES8_NS6_5int32ILl0EEEEEEEfEEEE.part.11+0x3a>
 8001706:	a807      	add	r0, sp, #28
 8001708:	e000      	b.n	800170c <_ZN12_GLOBAL__N_114parse_positionEPKcjRN4quan3uav8positionINS2_22fraction_of_revolutionINS2_4meta8rationalILx1ELx1EEENS7_ILx360ELx1EEEfEENS2_14fixed_quantityINS6_4unitINS6_17abstract_quantityINS6_9dimensionIS8_NS7_ILx0ELx1EEESF_SF_SF_SF_SF_EENS6_10components9of_lengthEEENS6_17conversion_factorINS7_ILxn3ELx1EEES8_NS6_5int32ILl0EEEEEEEfEEEE.part.11+0x3c>
 800170a:	2000      	movs	r0, #0
 800170c:	aa04      	add	r2, sp, #16
 800170e:	f852 1024 	ldr.w	r1, [r2, r4, lsl #2]
 8001712:	f003 f857 	bl	80047c4 <strtok>
 8001716:	4601      	mov	r1, r0
 8001718:	b1e8      	cbz	r0, 8001756 <_ZN12_GLOBAL__N_114parse_positionEPKcjRN4quan3uav8positionINS2_22fraction_of_revolutionINS2_4meta8rationalILx1ELx1EEENS7_ILx360ELx1EEEfEENS2_14fixed_quantityINS6_4unitINS6_17abstract_quantityINS6_9dimensionIS8_NS7_ILx0ELx1EEESF_SF_SF_SF_SF_EENS6_10components9of_lengthEEENS6_17conversion_factorINS7_ILxn3ELx1EEES8_NS6_5int32ILl0EEEEEEEfEEEE.part.11+0x86>
 800171a:	a820      	add	r0, sp, #128	; 0x80
 800171c:	2300      	movs	r3, #0
 800171e:	f840 3d80 	str.w	r3, [r0, #-128]!
 8001722:	4668      	mov	r0, sp
 8001724:	f002 fa2a 	bl	8003b7c <_ZN4quan6detail9converterIfPcEclEPKc>
 8001728:	9a00      	ldr	r2, [sp, #0]
 800172a:	ee10 1a10 	vmov	r1, s0
 800172e:	f846 1f04 	str.w	r1, [r6, #4]!
 8001732:	b982      	cbnz	r2, 8001756 <_ZN12_GLOBAL__N_114parse_positionEPKcjRN4quan3uav8positionINS2_22fraction_of_revolutionINS2_4meta8rationalILx1ELx1EEENS7_ILx360ELx1EEEfEENS2_14fixed_quantityINS6_4unitINS6_17abstract_quantityINS6_9dimensionIS8_NS7_ILx0ELx1EEESF_SF_SF_SF_SF_EENS6_10components9of_lengthEEENS6_17conversion_factorINS7_ILxn3ELx1EEES8_NS6_5int32ILl0EEEEEEEfEEEE.part.11+0x86>
 8001734:	3401      	adds	r4, #1
 8001736:	2c03      	cmp	r4, #3
 8001738:	d1e4      	bne.n	8001704 <_ZN12_GLOBAL__N_114parse_positionEPKcjRN4quan3uav8positionINS2_22fraction_of_revolutionINS2_4meta8rationalILx1ELx1EEENS7_ILx360ELx1EEEfEENS2_14fixed_quantityINS6_4unitINS6_17abstract_quantityINS6_9dimensionIS8_NS7_ILx0ELx1EEESF_SF_SF_SF_SF_EENS6_10components9of_lengthEEENS6_17conversion_factorINS7_ILxn3ELx1EEES8_NS6_5int32ILl0EEEEEEEfEEEE.part.11+0x34>
 800173a:	eddf 7a09 	vldr	s15, [pc, #36]	; 8001760 <_ZN12_GLOBAL__N_114parse_positionEPKcjRN4quan3uav8positionINS2_22fraction_of_revolutionINS2_4meta8rationalILx1ELx1EEENS7_ILx360ELx1EEEfEENS2_14fixed_quantityINS6_4unitINS6_17abstract_quantityINS6_9dimensionIS8_NS7_ILx0ELx1EEESF_SF_SF_SF_SF_EENS6_10components9of_lengthEEENS6_17conversion_factorINS7_ILxn3ELx1EEES8_NS6_5int32ILl0EEEEEEEfEEEE.part.11+0x90>
 800173e:	ed9d 7a03 	vldr	s14, [sp, #12]
 8001742:	9801      	ldr	r0, [sp, #4]
 8001744:	9b02      	ldr	r3, [sp, #8]
 8001746:	6028      	str	r0, [r5, #0]
 8001748:	ee27 0a27 	vmul.f32	s0, s14, s15
 800174c:	606b      	str	r3, [r5, #4]
 800174e:	ed85 0a02 	vstr	s0, [r5, #8]
 8001752:	2001      	movs	r0, #1
 8001754:	e000      	b.n	8001758 <_ZN12_GLOBAL__N_114parse_positionEPKcjRN4quan3uav8positionINS2_22fraction_of_revolutionINS2_4meta8rationalILx1ELx1EEENS7_ILx360ELx1EEEfEENS2_14fixed_quantityINS6_4unitINS6_17abstract_quantityINS6_9dimensionIS8_NS7_ILx0ELx1EEESF_SF_SF_SF_SF_EENS6_10components9of_lengthEEENS6_17conversion_factorINS7_ILxn3ELx1EEES8_NS6_5int32ILl0EEEEEEEfEEEE.part.11+0x88>
 8001756:	2000      	movs	r0, #0
 8001758:	b020      	add	sp, #128	; 0x80
 800175a:	bd70      	pop	{r4, r5, r6, pc}
 800175c:	0800dd14 	.word	0x0800dd14
 8001760:	447a0000 	.word	0x447a0000

08001764 <_ZN12_GLOBAL__N_118parse_text_commandEPKc.constprop.17>:
 8001764:	b570      	push	{r4, r5, r6, lr}
 8001766:	4c8d      	ldr	r4, [pc, #564]	; (800199c <_ZN12_GLOBAL__N_118parse_text_commandEPKc.constprop.17+0x238>)
 8001768:	b0c8      	sub	sp, #288	; 0x120
 800176a:	4620      	mov	r0, r4
 800176c:	f002 fffa 	bl	8004764 <strlen>
 8001770:	2800      	cmp	r0, #0
 8001772:	f000 8110 	beq.w	8001996 <_ZN12_GLOBAL__N_118parse_text_commandEPKc.constprop.17+0x232>
 8001776:	7823      	ldrb	r3, [r4, #0]
 8001778:	2b48      	cmp	r3, #72	; 0x48
 800177a:	f000 8082 	beq.w	8001882 <_ZN12_GLOBAL__N_118parse_text_commandEPKc.constprop.17+0x11e>
 800177e:	d80f      	bhi.n	80017a0 <_ZN12_GLOBAL__N_118parse_text_commandEPKc.constprop.17+0x3c>
 8001780:	2b45      	cmp	r3, #69	; 0x45
 8001782:	d06d      	beq.n	8001860 <_ZN12_GLOBAL__N_118parse_text_commandEPKc.constprop.17+0xfc>
 8001784:	d808      	bhi.n	8001798 <_ZN12_GLOBAL__N_118parse_text_commandEPKc.constprop.17+0x34>
 8001786:	2b24      	cmp	r3, #36	; 0x24
 8001788:	d017      	beq.n	80017ba <_ZN12_GLOBAL__N_118parse_text_commandEPKc.constprop.17+0x56>
 800178a:	2b44      	cmp	r3, #68	; 0x44
 800178c:	f040 8100 	bne.w	8001990 <_ZN12_GLOBAL__N_118parse_text_commandEPKc.constprop.17+0x22c>
 8001790:	f7fe ff52 	bl	8000638 <_ZN7azimuth5motor7disableEv>
 8001794:	4882      	ldr	r0, [pc, #520]	; (80019a0 <_ZN12_GLOBAL__N_118parse_text_commandEPKc.constprop.17+0x23c>)
 8001796:	e0fc      	b.n	8001992 <_ZN12_GLOBAL__N_118parse_text_commandEPKc.constprop.17+0x22e>
 8001798:	2b47      	cmp	r3, #71	; 0x47
 800179a:	f040 80f9 	bne.w	8001990 <_ZN12_GLOBAL__N_118parse_text_commandEPKc.constprop.17+0x22c>
 800179e:	e0bb      	b.n	8001918 <_ZN12_GLOBAL__N_118parse_text_commandEPKc.constprop.17+0x1b4>
 80017a0:	2b5a      	cmp	r3, #90	; 0x5a
 80017a2:	d059      	beq.n	8001858 <_ZN12_GLOBAL__N_118parse_text_commandEPKc.constprop.17+0xf4>
 80017a4:	d803      	bhi.n	80017ae <_ZN12_GLOBAL__N_118parse_text_commandEPKc.constprop.17+0x4a>
 80017a6:	2b50      	cmp	r3, #80	; 0x50
 80017a8:	f040 80f2 	bne.w	8001990 <_ZN12_GLOBAL__N_118parse_text_commandEPKc.constprop.17+0x22c>
 80017ac:	e05c      	b.n	8001868 <_ZN12_GLOBAL__N_118parse_text_commandEPKc.constprop.17+0x104>
 80017ae:	2b6b      	cmp	r3, #107	; 0x6b
 80017b0:	d07f      	beq.n	80018b2 <_ZN12_GLOBAL__N_118parse_text_commandEPKc.constprop.17+0x14e>
 80017b2:	2b7e      	cmp	r3, #126	; 0x7e
 80017b4:	f040 80ec 	bne.w	8001990 <_ZN12_GLOBAL__N_118parse_text_commandEPKc.constprop.17+0x22c>
 80017b8:	e021      	b.n	80017fe <_ZN12_GLOBAL__N_118parse_text_commandEPKc.constprop.17+0x9a>
 80017ba:	1e41      	subs	r1, r0, #1
 80017bc:	2963      	cmp	r1, #99	; 0x63
 80017be:	d901      	bls.n	80017c4 <_ZN12_GLOBAL__N_118parse_text_commandEPKc.constprop.17+0x60>
 80017c0:	4878      	ldr	r0, [pc, #480]	; (80019a4 <_ZN12_GLOBAL__N_118parse_text_commandEPKc.constprop.17+0x240>)
 80017c2:	e0e6      	b.n	8001992 <_ZN12_GLOBAL__N_118parse_text_commandEPKc.constprop.17+0x22e>
 80017c4:	4e78      	ldr	r6, [pc, #480]	; (80019a8 <_ZN12_GLOBAL__N_118parse_text_commandEPKc.constprop.17+0x244>)
 80017c6:	1c60      	adds	r0, r4, #1
 80017c8:	4632      	mov	r2, r6
 80017ca:	f7ff ff81 	bl	80016d0 <_ZN12_GLOBAL__N_114parse_positionEPKcjRN4quan3uav8positionINS2_22fraction_of_revolutionINS2_4meta8rationalILx1ELx1EEENS7_ILx360ELx1EEEfEENS2_14fixed_quantityINS6_4unitINS6_17abstract_quantityINS6_9dimensionIS8_NS7_ILx0ELx1EEESF_SF_SF_SF_SF_EENS6_10components9of_lengthEEENS6_17conversion_factorINS7_ILxn3ELx1EEES8_NS6_5int32ILl0EEEEEEEfEEEE.part.11>
 80017ce:	2800      	cmp	r0, #0
 80017d0:	d0f6      	beq.n	80017c0 <_ZN12_GLOBAL__N_118parse_text_commandEPKc.constprop.17+0x5c>
 80017d2:	6830      	ldr	r0, [r6, #0]
 80017d4:	f000 fc84 	bl	80020e0 <__aeabi_f2d>
 80017d8:	4604      	mov	r4, r0
 80017da:	6870      	ldr	r0, [r6, #4]
 80017dc:	460d      	mov	r5, r1
 80017de:	f000 fc7f 	bl	80020e0 <__aeabi_f2d>
 80017e2:	e9cd 0100 	strd	r0, r1, [sp]
 80017e6:	68b0      	ldr	r0, [r6, #8]
 80017e8:	f000 fc7a 	bl	80020e0 <__aeabi_f2d>
 80017ec:	4622      	mov	r2, r4
 80017ee:	e9cd 0102 	strd	r0, r1, [sp, #8]
 80017f2:	462b      	mov	r3, r5
 80017f4:	a809      	add	r0, sp, #36	; 0x24
 80017f6:	496d      	ldr	r1, [pc, #436]	; (80019ac <_ZN12_GLOBAL__N_118parse_text_commandEPKc.constprop.17+0x248>)
 80017f8:	f002 ff8c 	bl	8004714 <sprintf>
 80017fc:	e0b3      	b.n	8001966 <_ZN12_GLOBAL__N_118parse_text_commandEPKc.constprop.17+0x202>
 80017fe:	ae06      	add	r6, sp, #24
 8001800:	2100      	movs	r1, #0
 8001802:	6031      	str	r1, [r6, #0]
 8001804:	6071      	str	r1, [r6, #4]
 8001806:	60b1      	str	r1, [r6, #8]
 8001808:	1e41      	subs	r1, r0, #1
 800180a:	2963      	cmp	r1, #99	; 0x63
 800180c:	d901      	bls.n	8001812 <_ZN12_GLOBAL__N_118parse_text_commandEPKc.constprop.17+0xae>
 800180e:	4868      	ldr	r0, [pc, #416]	; (80019b0 <_ZN12_GLOBAL__N_118parse_text_commandEPKc.constprop.17+0x24c>)
 8001810:	e0bf      	b.n	8001992 <_ZN12_GLOBAL__N_118parse_text_commandEPKc.constprop.17+0x22e>
 8001812:	1c60      	adds	r0, r4, #1
 8001814:	4632      	mov	r2, r6
 8001816:	f7ff ff5b 	bl	80016d0 <_ZN12_GLOBAL__N_114parse_positionEPKcjRN4quan3uav8positionINS2_22fraction_of_revolutionINS2_4meta8rationalILx1ELx1EEENS7_ILx360ELx1EEEfEENS2_14fixed_quantityINS6_4unitINS6_17abstract_quantityINS6_9dimensionIS8_NS7_ILx0ELx1EEESF_SF_SF_SF_SF_EENS6_10components9of_lengthEEENS6_17conversion_factorINS7_ILxn3ELx1EEES8_NS6_5int32ILl0EEEEEEEfEEEE.part.11>
 800181a:	2800      	cmp	r0, #0
 800181c:	d0f7      	beq.n	800180e <_ZN12_GLOBAL__N_118parse_text_commandEPKc.constprop.17+0xaa>
 800181e:	6830      	ldr	r0, [r6, #0]
 8001820:	f000 fc5e 	bl	80020e0 <__aeabi_f2d>
 8001824:	4604      	mov	r4, r0
 8001826:	6870      	ldr	r0, [r6, #4]
 8001828:	460d      	mov	r5, r1
 800182a:	f000 fc59 	bl	80020e0 <__aeabi_f2d>
 800182e:	e9cd 0100 	strd	r0, r1, [sp]
 8001832:	68b0      	ldr	r0, [r6, #8]
 8001834:	f000 fc54 	bl	80020e0 <__aeabi_f2d>
 8001838:	4622      	mov	r2, r4
 800183a:	e9cd 0102 	strd	r0, r1, [sp, #8]
 800183e:	462b      	mov	r3, r5
 8001840:	a809      	add	r0, sp, #36	; 0x24
 8001842:	495c      	ldr	r1, [pc, #368]	; (80019b4 <_ZN12_GLOBAL__N_118parse_text_commandEPKc.constprop.17+0x250>)
 8001844:	f002 ff66 	bl	8004714 <sprintf>
 8001848:	e896 0007 	ldmia.w	r6, {r0, r1, r2}
 800184c:	4b5a      	ldr	r3, [pc, #360]	; (80019b8 <_ZN12_GLOBAL__N_118parse_text_commandEPKc.constprop.17+0x254>)
 800184e:	e883 0007 	stmia.w	r3, {r0, r1, r2}
 8001852:	f7ff faef 	bl	8000e34 <_ZN9telemetry6recalcEv>
 8001856:	e086      	b.n	8001966 <_ZN12_GLOBAL__N_118parse_text_commandEPKc.constprop.17+0x202>
 8001858:	f7fe fd8a 	bl	8000370 <_ZN7azimuth7encoder4zeroEv>
 800185c:	4857      	ldr	r0, [pc, #348]	; (80019bc <_ZN12_GLOBAL__N_118parse_text_commandEPKc.constprop.17+0x258>)
 800185e:	e098      	b.n	8001992 <_ZN12_GLOBAL__N_118parse_text_commandEPKc.constprop.17+0x22e>
 8001860:	f7fe fee4 	bl	800062c <_ZN7azimuth5motor6enableEv>
 8001864:	4856      	ldr	r0, [pc, #344]	; (80019c0 <_ZN12_GLOBAL__N_118parse_text_commandEPKc.constprop.17+0x25c>)
 8001866:	e094      	b.n	8001992 <_ZN12_GLOBAL__N_118parse_text_commandEPKc.constprop.17+0x22e>
 8001868:	2801      	cmp	r0, #1
 800186a:	d90c      	bls.n	8001886 <_ZN12_GLOBAL__N_118parse_text_commandEPKc.constprop.17+0x122>
 800186c:	1c60      	adds	r0, r4, #1
 800186e:	f002 fd6b 	bl	8004348 <atoi>
 8001872:	f7fe fef9 	bl	8000668 <_ZN7azimuth5motor19set_target_positionEm>
 8001876:	f7fe fef1 	bl	800065c <_ZN7azimuth5motor19get_target_positionEv>
 800187a:	4952      	ldr	r1, [pc, #328]	; (80019c4 <_ZN12_GLOBAL__N_118parse_text_commandEPKc.constprop.17+0x260>)
 800187c:	4602      	mov	r2, r0
 800187e:	a809      	add	r0, sp, #36	; 0x24
 8001880:	e06c      	b.n	800195c <_ZN12_GLOBAL__N_118parse_text_commandEPKc.constprop.17+0x1f8>
 8001882:	2801      	cmp	r0, #1
 8001884:	d801      	bhi.n	800188a <_ZN12_GLOBAL__N_118parse_text_commandEPKc.constprop.17+0x126>
 8001886:	4850      	ldr	r0, [pc, #320]	; (80019c8 <_ZN12_GLOBAL__N_118parse_text_commandEPKc.constprop.17+0x264>)
 8001888:	e083      	b.n	8001992 <_ZN12_GLOBAL__N_118parse_text_commandEPKc.constprop.17+0x22e>
 800188a:	1c60      	adds	r0, r4, #1
 800188c:	f002 fd5c 	bl	8004348 <atoi>
 8001890:	f5b0 7f7a 	cmp.w	r0, #1000	; 0x3e8
 8001894:	d306      	bcc.n	80018a4 <_ZN12_GLOBAL__N_118parse_text_commandEPKc.constprop.17+0x140>
 8001896:	f5b0 6ffa 	cmp.w	r0, #2000	; 0x7d0
 800189a:	bf34      	ite	cc
 800189c:	4602      	movcc	r2, r0
 800189e:	f44f 62fa 	movcs.w	r2, #2000	; 0x7d0
 80018a2:	e001      	b.n	80018a8 <_ZN12_GLOBAL__N_118parse_text_commandEPKc.constprop.17+0x144>
 80018a4:	f44f 727a 	mov.w	r2, #1000	; 0x3e8
 80018a8:	4b48      	ldr	r3, [pc, #288]	; (80019cc <_ZN12_GLOBAL__N_118parse_text_commandEPKc.constprop.17+0x268>)
 80018aa:	4949      	ldr	r1, [pc, #292]	; (80019d0 <_ZN12_GLOBAL__N_118parse_text_commandEPKc.constprop.17+0x26c>)
 80018ac:	601a      	str	r2, [r3, #0]
 80018ae:	a809      	add	r0, sp, #36	; 0x24
 80018b0:	e054      	b.n	800195c <_ZN12_GLOBAL__N_118parse_text_commandEPKc.constprop.17+0x1f8>
 80018b2:	2803      	cmp	r0, #3
 80018b4:	d92e      	bls.n	8001914 <_ZN12_GLOBAL__N_118parse_text_commandEPKc.constprop.17+0x1b0>
 80018b6:	7862      	ldrb	r2, [r4, #1]
 80018b8:	2a44      	cmp	r2, #68	; 0x44
 80018ba:	d001      	beq.n	80018c0 <_ZN12_GLOBAL__N_118parse_text_commandEPKc.constprop.17+0x15c>
 80018bc:	2a50      	cmp	r2, #80	; 0x50
 80018be:	d127      	bne.n	8001910 <_ZN12_GLOBAL__N_118parse_text_commandEPKc.constprop.17+0x1ac>
 80018c0:	4d36      	ldr	r5, [pc, #216]	; (800199c <_ZN12_GLOBAL__N_118parse_text_commandEPKc.constprop.17+0x238>)
 80018c2:	2400      	movs	r4, #0
 80018c4:	a805      	add	r0, sp, #20
 80018c6:	1ca9      	adds	r1, r5, #2
 80018c8:	9405      	str	r4, [sp, #20]
 80018ca:	f002 f957 	bl	8003b7c <_ZN4quan6detail9converterIfPcEclEPKc>
 80018ce:	9805      	ldr	r0, [sp, #20]
 80018d0:	ee10 4a10 	vmov	r4, s0
 80018d4:	b9d0      	cbnz	r0, 800190c <_ZN12_GLOBAL__N_118parse_text_commandEPKc.constprop.17+0x1a8>
 80018d6:	7869      	ldrb	r1, [r5, #1]
 80018d8:	2944      	cmp	r1, #68	; 0x44
 80018da:	d00b      	beq.n	80018f4 <_ZN12_GLOBAL__N_118parse_text_commandEPKc.constprop.17+0x190>
 80018dc:	2950      	cmp	r1, #80	; 0x50
 80018de:	d113      	bne.n	8001908 <_ZN12_GLOBAL__N_118parse_text_commandEPKc.constprop.17+0x1a4>
 80018e0:	f7fe fde5 	bl	80004ae <_ZN7azimuth5motor6set_kPEf>
 80018e4:	4620      	mov	r0, r4
 80018e6:	f000 fbfb 	bl	80020e0 <__aeabi_f2d>
 80018ea:	4602      	mov	r2, r0
 80018ec:	460b      	mov	r3, r1
 80018ee:	a809      	add	r0, sp, #36	; 0x24
 80018f0:	4938      	ldr	r1, [pc, #224]	; (80019d4 <_ZN12_GLOBAL__N_118parse_text_commandEPKc.constprop.17+0x270>)
 80018f2:	e036      	b.n	8001962 <_ZN12_GLOBAL__N_118parse_text_commandEPKc.constprop.17+0x1fe>
 80018f4:	f7fe fde2 	bl	80004bc <_ZN7azimuth5motor6set_kDEf>
 80018f8:	4620      	mov	r0, r4
 80018fa:	f000 fbf1 	bl	80020e0 <__aeabi_f2d>
 80018fe:	4602      	mov	r2, r0
 8001900:	460b      	mov	r3, r1
 8001902:	a809      	add	r0, sp, #36	; 0x24
 8001904:	4934      	ldr	r1, [pc, #208]	; (80019d8 <_ZN12_GLOBAL__N_118parse_text_commandEPKc.constprop.17+0x274>)
 8001906:	e02c      	b.n	8001962 <_ZN12_GLOBAL__N_118parse_text_commandEPKc.constprop.17+0x1fe>
 8001908:	4834      	ldr	r0, [pc, #208]	; (80019dc <_ZN12_GLOBAL__N_118parse_text_commandEPKc.constprop.17+0x278>)
 800190a:	e042      	b.n	8001992 <_ZN12_GLOBAL__N_118parse_text_commandEPKc.constprop.17+0x22e>
 800190c:	4834      	ldr	r0, [pc, #208]	; (80019e0 <_ZN12_GLOBAL__N_118parse_text_commandEPKc.constprop.17+0x27c>)
 800190e:	e040      	b.n	8001992 <_ZN12_GLOBAL__N_118parse_text_commandEPKc.constprop.17+0x22e>
 8001910:	4834      	ldr	r0, [pc, #208]	; (80019e4 <_ZN12_GLOBAL__N_118parse_text_commandEPKc.constprop.17+0x280>)
 8001912:	e03e      	b.n	8001992 <_ZN12_GLOBAL__N_118parse_text_commandEPKc.constprop.17+0x22e>
 8001914:	4834      	ldr	r0, [pc, #208]	; (80019e8 <_ZN12_GLOBAL__N_118parse_text_commandEPKc.constprop.17+0x284>)
 8001916:	e03c      	b.n	8001992 <_ZN12_GLOBAL__N_118parse_text_commandEPKc.constprop.17+0x22e>
 8001918:	2801      	cmp	r0, #1
 800191a:	d937      	bls.n	800198c <_ZN12_GLOBAL__N_118parse_text_commandEPKc.constprop.17+0x228>
 800191c:	7860      	ldrb	r0, [r4, #1]
 800191e:	2854      	cmp	r0, #84	; 0x54
 8001920:	d017      	beq.n	8001952 <_ZN12_GLOBAL__N_118parse_text_commandEPKc.constprop.17+0x1ee>
 8001922:	d807      	bhi.n	8001934 <_ZN12_GLOBAL__N_118parse_text_commandEPKc.constprop.17+0x1d0>
 8001924:	2841      	cmp	r0, #65	; 0x41
 8001926:	d12f      	bne.n	8001988 <_ZN12_GLOBAL__N_118parse_text_commandEPKc.constprop.17+0x224>
 8001928:	f7fe fe92 	bl	8000650 <_ZN7azimuth5motor19get_actual_positionEv>
 800192c:	492f      	ldr	r1, [pc, #188]	; (80019ec <_ZN12_GLOBAL__N_118parse_text_commandEPKc.constprop.17+0x288>)
 800192e:	4602      	mov	r2, r0
 8001930:	a809      	add	r0, sp, #36	; 0x24
 8001932:	e013      	b.n	800195c <_ZN12_GLOBAL__N_118parse_text_commandEPKc.constprop.17+0x1f8>
 8001934:	2864      	cmp	r0, #100	; 0x64
 8001936:	d018      	beq.n	800196a <_ZN12_GLOBAL__N_118parse_text_commandEPKc.constprop.17+0x206>
 8001938:	2870      	cmp	r0, #112	; 0x70
 800193a:	d125      	bne.n	8001988 <_ZN12_GLOBAL__N_118parse_text_commandEPKc.constprop.17+0x224>
 800193c:	f7fe fdc4 	bl	80004c8 <_ZN7azimuth5motor6get_kPEv>
 8001940:	ee10 0a10 	vmov	r0, s0
 8001944:	f000 fbcc 	bl	80020e0 <__aeabi_f2d>
 8001948:	4602      	mov	r2, r0
 800194a:	460b      	mov	r3, r1
 800194c:	a809      	add	r0, sp, #36	; 0x24
 800194e:	4928      	ldr	r1, [pc, #160]	; (80019f0 <_ZN12_GLOBAL__N_118parse_text_commandEPKc.constprop.17+0x28c>)
 8001950:	e007      	b.n	8001962 <_ZN12_GLOBAL__N_118parse_text_commandEPKc.constprop.17+0x1fe>
 8001952:	f7fe fe83 	bl	800065c <_ZN7azimuth5motor19get_target_positionEv>
 8001956:	4927      	ldr	r1, [pc, #156]	; (80019f4 <_ZN12_GLOBAL__N_118parse_text_commandEPKc.constprop.17+0x290>)
 8001958:	4602      	mov	r2, r0
 800195a:	a809      	add	r0, sp, #36	; 0x24
 800195c:	f002 feda 	bl	8004714 <sprintf>
 8001960:	e001      	b.n	8001966 <_ZN12_GLOBAL__N_118parse_text_commandEPKc.constprop.17+0x202>
 8001962:	f002 fed7 	bl	8004714 <sprintf>
 8001966:	a809      	add	r0, sp, #36	; 0x24
 8001968:	e013      	b.n	8001992 <_ZN12_GLOBAL__N_118parse_text_commandEPKc.constprop.17+0x22e>
 800196a:	f7fe fdb3 	bl	80004d4 <_ZN7azimuth5motor6get_kDEv>
 800196e:	ee10 0a10 	vmov	r0, s0
 8001972:	f000 fbb5 	bl	80020e0 <__aeabi_f2d>
 8001976:	4602      	mov	r2, r0
 8001978:	460b      	mov	r3, r1
 800197a:	a809      	add	r0, sp, #36	; 0x24
 800197c:	491e      	ldr	r1, [pc, #120]	; (80019f8 <_ZN12_GLOBAL__N_118parse_text_commandEPKc.constprop.17+0x294>)
 800197e:	f002 fec9 	bl	8004714 <sprintf>
 8001982:	a809      	add	r0, sp, #36	; 0x24
 8001984:	f001 fb48 	bl	8003018 <_ZN4quan5stm3211serial_portINS0_5usart6moduleILm1073760256EEELj1000ELj1000ENS_3mcu3pinINS0_4gpio6moduleILm1073875968EEELm8EEENS6_IS9_Lm9EEEE5writeEPKc>
 8001988:	481c      	ldr	r0, [pc, #112]	; (80019fc <_ZN12_GLOBAL__N_118parse_text_commandEPKc.constprop.17+0x298>)
 800198a:	e002      	b.n	8001992 <_ZN12_GLOBAL__N_118parse_text_commandEPKc.constprop.17+0x22e>
 800198c:	481c      	ldr	r0, [pc, #112]	; (8001a00 <_ZN12_GLOBAL__N_118parse_text_commandEPKc.constprop.17+0x29c>)
 800198e:	e000      	b.n	8001992 <_ZN12_GLOBAL__N_118parse_text_commandEPKc.constprop.17+0x22e>
 8001990:	481c      	ldr	r0, [pc, #112]	; (8001a04 <_ZN12_GLOBAL__N_118parse_text_commandEPKc.constprop.17+0x2a0>)
 8001992:	f001 fb41 	bl	8003018 <_ZN4quan5stm3211serial_portINS0_5usart6moduleILm1073760256EEELj1000ELj1000ENS_3mcu3pinINS0_4gpio6moduleILm1073875968EEELm8EEENS6_IS9_Lm9EEEE5writeEPKc>
 8001996:	b048      	add	sp, #288	; 0x120
 8001998:	bd70      	pop	{r4, r5, r6, pc}
 800199a:	bf00      	nop
 800199c:	100009f4 	.word	0x100009f4
 80019a0:	0800de7f 	.word	0x0800de7f
 80019a4:	0800ddc8 	.word	0x0800ddc8
 80019a8:	10000924 	.word	0x10000924
 80019ac:	0800dde2 	.word	0x0800dde2
 80019b0:	0800de0e 	.word	0x0800de0e
 80019b4:	0800de2c 	.word	0x0800de2c
 80019b8:	10000930 	.word	0x10000930
 80019bc:	0800de66 	.word	0x0800de66
 80019c0:	0800de6e 	.word	0x0800de6e
 80019c4:	0800de91 	.word	0x0800de91
 80019c8:	0800dea0 	.word	0x0800dea0
 80019cc:	10000018 	.word	0x10000018
 80019d0:	0800deae 	.word	0x0800deae
 80019d4:	0800debd 	.word	0x0800debd
 80019d8:	0800decd 	.word	0x0800decd
 80019dc:	0800dede 	.word	0x0800dede
 80019e0:	0800deee 	.word	0x0800deee
 80019e4:	0800df00 	.word	0x0800df00
 80019e8:	0800df11 	.word	0x0800df11
 80019ec:	0800df35 	.word	0x0800df35
 80019f0:	0800df3e 	.word	0x0800df3e
 80019f4:	0800df2c 	.word	0x0800df2c
 80019f8:	0800df47 	.word	0x0800df47
 80019fc:	0800df50 	.word	0x0800df50
 8001a00:	0800df63 	.word	0x0800df63
 8001a04:	0800df77 	.word	0x0800df77

08001a08 <_Z17parse_commandlinev>:
 8001a08:	e92d 41f3 	stmdb	sp!, {r0, r1, r4, r5, r6, r7, r8, lr}
 8001a0c:	4c23      	ldr	r4, [pc, #140]	; (8001a9c <_Z17parse_commandlinev+0x94>)
 8001a0e:	4824      	ldr	r0, [pc, #144]	; (8001aa0 <_Z17parse_commandlinev+0x98>)
 8001a10:	2500      	movs	r5, #0
 8001a12:	6025      	str	r5, [r4, #0]
 8001a14:	f002 f99c 	bl	8003d50 <_ZNK4quan4fifoIcLi1000ELb1EE13num_in_bufferEv>
 8001a18:	f04f 0801 	mov.w	r8, #1
 8001a1c:	f8c4 8000 	str.w	r8, [r4]
 8001a20:	2800      	cmp	r0, #0
 8001a22:	d039      	beq.n	8001a98 <_Z17parse_commandlinev+0x90>
 8001a24:	4c1f      	ldr	r4, [pc, #124]	; (8001aa4 <_Z17parse_commandlinev+0x9c>)
 8001a26:	f8d4 3100 	ldr.w	r3, [r4, #256]	; 0x100
 8001a2a:	2bff      	cmp	r3, #255	; 0xff
 8001a2c:	d114      	bne.n	8001a58 <_Z17parse_commandlinev+0x50>
 8001a2e:	4c1b      	ldr	r4, [pc, #108]	; (8001a9c <_Z17parse_commandlinev+0x94>)
 8001a30:	481b      	ldr	r0, [pc, #108]	; (8001aa0 <_Z17parse_commandlinev+0x98>)
 8001a32:	2300      	movs	r3, #0
 8001a34:	6023      	str	r3, [r4, #0]
 8001a36:	f002 f98b 	bl	8003d50 <_ZNK4quan4fifoIcLi1000ELb1EE13num_in_bufferEv>
 8001a3a:	2101      	movs	r1, #1
 8001a3c:	6021      	str	r1, [r4, #0]
 8001a3e:	b118      	cbz	r0, 8001a48 <_Z17parse_commandlinev+0x40>
 8001a40:	f001 fcc4 	bl	80033cc <_ZN4quan5stm3211serial_portINS0_5usart6moduleILm1073760256EEELj1000ELj1000ENS_3mcu3pinINS0_4gpio6moduleILm1073875968EEELm8EEENS6_IS9_Lm9EEEE3getEv>
 8001a44:	280a      	cmp	r0, #10
 8001a46:	d1f2      	bne.n	8001a2e <_Z17parse_commandlinev+0x26>
 8001a48:	4a16      	ldr	r2, [pc, #88]	; (8001aa4 <_Z17parse_commandlinev+0x9c>)
 8001a4a:	2000      	movs	r0, #0
 8001a4c:	f8c2 0100 	str.w	r0, [r2, #256]	; 0x100
 8001a50:	4815      	ldr	r0, [pc, #84]	; (8001aa8 <_Z17parse_commandlinev+0xa0>)
 8001a52:	f001 fae1 	bl	8003018 <_ZN4quan5stm3211serial_portINS0_5usart6moduleILm1073760256EEELj1000ELj1000ENS_3mcu3pinINS0_4gpio6moduleILm1073875968EEELm8EEENS6_IS9_Lm9EEEE5writeEPKc>
 8001a56:	e01f      	b.n	8001a98 <_Z17parse_commandlinev+0x90>
 8001a58:	f001 fcb8 	bl	80033cc <_ZN4quan5stm3211serial_portINS0_5usart6moduleILm1073760256EEELj1000ELj1000ENS_3mcu3pinINS0_4gpio6moduleILm1073875968EEELm8EEENS6_IS9_Lm9EEEE3getEv>
 8001a5c:	4f13      	ldr	r7, [pc, #76]	; (8001aac <_Z17parse_commandlinev+0xa4>)
 8001a5e:	a902      	add	r1, sp, #8
 8001a60:	4606      	mov	r6, r0
 8001a62:	f801 0d01 	strb.w	r0, [r1, #-1]!
 8001a66:	603d      	str	r5, [r7, #0]
 8001a68:	4811      	ldr	r0, [pc, #68]	; (8001ab0 <_Z17parse_commandlinev+0xa8>)
 8001a6a:	f001 fe02 	bl	8003672 <_ZN4quan4fifoIcLi1000ELb1EE3putERKc>
 8001a6e:	2e0d      	cmp	r6, #13
 8001a70:	f8c7 8000 	str.w	r8, [r7]
 8001a74:	d10a      	bne.n	8001a8c <_Z17parse_commandlinev+0x84>
 8001a76:	480f      	ldr	r0, [pc, #60]	; (8001ab4 <_Z17parse_commandlinev+0xac>)
 8001a78:	f001 face 	bl	8003018 <_ZN4quan5stm3211serial_portINS0_5usart6moduleILm1073760256EEELj1000ELj1000ENS_3mcu3pinINS0_4gpio6moduleILm1073875968EEELm8EEENS6_IS9_Lm9EEEE5writeEPKc>
 8001a7c:	f8d4 2100 	ldr.w	r2, [r4, #256]	; 0x100
 8001a80:	f8c4 5100 	str.w	r5, [r4, #256]	; 0x100
 8001a84:	54a5      	strb	r5, [r4, r2]
 8001a86:	f7ff fe6d 	bl	8001764 <_ZN12_GLOBAL__N_118parse_text_commandEPKc.constprop.17>
 8001a8a:	e005      	b.n	8001a98 <_Z17parse_commandlinev+0x90>
 8001a8c:	f8d4 0100 	ldr.w	r0, [r4, #256]	; 0x100
 8001a90:	1c41      	adds	r1, r0, #1
 8001a92:	5426      	strb	r6, [r4, r0]
 8001a94:	f8c4 1100 	str.w	r1, [r4, #256]	; 0x100
 8001a98:	e8bd 81fc 	ldmia.w	sp!, {r2, r3, r4, r5, r6, r7, r8, pc}
 8001a9c:	42090194 	.word	0x42090194
 8001aa0:	10000f0c 	.word	0x10000f0c
 8001aa4:	100009f4 	.word	0x100009f4
 8001aa8:	0800df86 	.word	0x0800df86
 8001aac:	4209019c 	.word	0x4209019c
 8001ab0:	10000b18 	.word	0x10000b18
 8001ab4:	0800df98 	.word	0x0800df98

08001ab8 <_ZN12_GLOBAL__N_112null_mag_funERKN4quan7three_d4vectIsEE>:
 8001ab8:	4770      	bx	lr

08001aba <_Z13set_mag_strapl>:
 8001aba:	4b01      	ldr	r3, [pc, #4]	; (8001ac0 <_Z13set_mag_strapl+0x6>)
 8001abc:	6018      	str	r0, [r3, #0]
 8001abe:	4770      	bx	lr
 8001ac0:	10000af8 	.word	0x10000af8

08001ac4 <_Z11set_mag_funPFvRKN4quan7three_d4vectIsEEE>:
 8001ac4:	4b01      	ldr	r3, [pc, #4]	; (8001acc <_Z11set_mag_funPFvRKN4quan7three_d4vectIsEEE+0x8>)
 8001ac6:	6018      	str	r0, [r3, #0]
 8001ac8:	4770      	bx	lr
 8001aca:	bf00      	nop
 8001acc:	10000028 	.word	0x10000028

08001ad0 <_Z13get_mag_strapv>:
 8001ad0:	4b01      	ldr	r3, [pc, #4]	; (8001ad8 <_Z13get_mag_strapv+0x8>)
 8001ad2:	6818      	ldr	r0, [r3, #0]
 8001ad4:	4770      	bx	lr
 8001ad6:	bf00      	nop
 8001ad8:	10000af8 	.word	0x10000af8

08001adc <_Z10on_new_magRKN4quan7three_d4vectIsEE>:
 8001adc:	b508      	push	{r3, lr}
 8001ade:	4b02      	ldr	r3, [pc, #8]	; (8001ae8 <_Z10on_new_magRKN4quan7three_d4vectIsEE+0xc>)
 8001ae0:	6819      	ldr	r1, [r3, #0]
 8001ae2:	4788      	blx	r1
 8001ae4:	bd08      	pop	{r3, pc}
 8001ae6:	bf00      	nop
 8001ae8:	10000028 	.word	0x10000028

08001aec <I2C1_EV_IRQHandler>:
 8001aec:	4668      	mov	r0, sp
 8001aee:	f020 0107 	bic.w	r1, r0, #7
 8001af2:	4b07      	ldr	r3, [pc, #28]	; (8001b10 <I2C1_EV_IRQHandler+0x24>)
 8001af4:	4a07      	ldr	r2, [pc, #28]	; (8001b14 <I2C1_EV_IRQHandler+0x28>)
 8001af6:	468d      	mov	sp, r1
 8001af8:	b501      	push	{r0, lr}
 8001afa:	6811      	ldr	r1, [r2, #0]
 8001afc:	6958      	ldr	r0, [r3, #20]
 8001afe:	4788      	blx	r1
 8001b00:	b910      	cbnz	r0, 8001b08 <I2C1_EV_IRQHandler+0x1c>
 8001b02:	4b05      	ldr	r3, [pc, #20]	; (8001b18 <I2C1_EV_IRQHandler+0x2c>)
 8001b04:	2008      	movs	r0, #8
 8001b06:	6018      	str	r0, [r3, #0]
 8001b08:	e8bd 4001 	ldmia.w	sp!, {r0, lr}
 8001b0c:	4685      	mov	sp, r0
 8001b0e:	4770      	bx	lr
 8001b10:	40005400 	.word	0x40005400
 8001b14:	10000040 	.word	0x10000040
 8001b18:	10001728 	.word	0x10001728

08001b1c <I2C1_ER_IRQHandler>:
 8001b1c:	4b07      	ldr	r3, [pc, #28]	; (8001b3c <I2C1_ER_IRQHandler+0x20>)
 8001b1e:	4668      	mov	r0, sp
 8001b20:	695a      	ldr	r2, [r3, #20]
 8001b22:	f020 0107 	bic.w	r1, r0, #7
 8001b26:	468d      	mov	sp, r1
 8001b28:	b501      	push	{r0, lr}
 8001b2a:	b2d0      	uxtb	r0, r2
 8001b2c:	6158      	str	r0, [r3, #20]
 8001b2e:	4b04      	ldr	r3, [pc, #16]	; (8001b40 <I2C1_ER_IRQHandler+0x24>)
 8001b30:	2109      	movs	r1, #9
 8001b32:	6019      	str	r1, [r3, #0]
 8001b34:	e8bd 4001 	ldmia.w	sp!, {r0, lr}
 8001b38:	4685      	mov	sp, r0
 8001b3a:	4770      	bx	lr
 8001b3c:	40005400 	.word	0x40005400
 8001b40:	10001728 	.word	0x10001728

08001b44 <EXTI1_IRQHandler>:
 8001b44:	4b09      	ldr	r3, [pc, #36]	; (8001b6c <EXTI1_IRQHandler+0x28>)
 8001b46:	4668      	mov	r0, sp
 8001b48:	f020 0107 	bic.w	r1, r0, #7
 8001b4c:	681a      	ldr	r2, [r3, #0]
 8001b4e:	468d      	mov	sp, r1
 8001b50:	b501      	push	{r0, lr}
 8001b52:	b11a      	cbz	r2, 8001b5c <EXTI1_IRQHandler+0x18>
 8001b54:	4906      	ldr	r1, [pc, #24]	; (8001b70 <EXTI1_IRQHandler+0x2c>)
 8001b56:	2001      	movs	r0, #1
 8001b58:	7008      	strb	r0, [r1, #0]
 8001b5a:	e001      	b.n	8001b60 <EXTI1_IRQHandler+0x1c>
 8001b5c:	4b05      	ldr	r3, [pc, #20]	; (8001b74 <EXTI1_IRQHandler+0x30>)
 8001b5e:	200a      	movs	r0, #10
 8001b60:	6018      	str	r0, [r3, #0]
 8001b62:	e8bd 4001 	ldmia.w	sp!, {r0, lr}
 8001b66:	4685      	mov	sp, r0
 8001b68:	4770      	bx	lr
 8001b6a:	bf00      	nop
 8001b6c:	42278284 	.word	0x42278284
 8001b70:	1000090b 	.word	0x1000090b
 8001b74:	10001728 	.word	0x10001728

08001b78 <_Z13setup_compassv>:
 8001b78:	b538      	push	{r3, r4, r5, lr}
 8001b7a:	4b15      	ldr	r3, [pc, #84]	; (8001bd0 <_Z13setup_compassv+0x58>)
 8001b7c:	6c5a      	ldr	r2, [r3, #68]	; 0x44
 8001b7e:	f5a3 3180 	sub.w	r1, r3, #65536	; 0x10000
 8001b82:	f442 4080 	orr.w	r0, r2, #16384	; 0x4000
 8001b86:	6458      	str	r0, [r3, #68]	; 0x44
 8001b88:	688c      	ldr	r4, [r1, #8]
 8001b8a:	4a12      	ldr	r2, [pc, #72]	; (8001bd4 <_Z13setup_compassv+0x5c>)
 8001b8c:	f024 05f0 	bic.w	r5, r4, #240	; 0xf0
 8001b90:	f045 0310 	orr.w	r3, r5, #16
 8001b94:	4d10      	ldr	r5, [pc, #64]	; (8001bd8 <_Z13setup_compassv+0x60>)
 8001b96:	608b      	str	r3, [r1, #8]
 8001b98:	2401      	movs	r4, #1
 8001b9a:	20e0      	movs	r0, #224	; 0xe0
 8001b9c:	2180      	movs	r1, #128	; 0x80
 8001b9e:	6014      	str	r4, [r2, #0]
 8001ba0:	f885 031f 	strb.w	r0, [r5, #799]	; 0x31f
 8001ba4:	6029      	str	r1, [r5, #0]
 8001ba6:	f002 fa45 	bl	8004034 <_ZN4quan5stm3213module_enableINS0_4gpio6moduleILm1073873920EEEEENS_6where_INS_11is_model_ofINS0_4GpioET_EEvE4typeEv>
 8001baa:	4b0c      	ldr	r3, [pc, #48]	; (8001bdc <_Z13setup_compassv+0x64>)
 8001bac:	681a      	ldr	r2, [r3, #0]
 8001bae:	f022 000c 	bic.w	r0, r2, #12
 8001bb2:	6018      	str	r0, [r3, #0]
 8001bb4:	68d9      	ldr	r1, [r3, #12]
 8001bb6:	f021 020c 	bic.w	r2, r1, #12
 8001bba:	60da      	str	r2, [r3, #12]
 8001bbc:	4b08      	ldr	r3, [pc, #32]	; (8001be0 <_Z13setup_compassv+0x68>)
 8001bbe:	20b0      	movs	r0, #176	; 0xb0
 8001bc0:	601c      	str	r4, [r3, #0]
 8001bc2:	2100      	movs	r1, #0
 8001bc4:	f885 031f 	strb.w	r0, [r5, #799]	; 0x31f
 8001bc8:	4620      	mov	r0, r4
 8001bca:	f002 fa83 	bl	80040d4 <_ZN4quan5stm328i2c_portINS0_3i2c6moduleILm1073763328EEENS_3mcu3pinINS0_4gpio6moduleILm1073873920EEELm6EEENS6_IS9_Lm9EEEE4initEbb>
 8001bce:	bd38      	pop	{r3, r4, r5, pc}
 8001bd0:	40023800 	.word	0x40023800
 8001bd4:	42278184 	.word	0x42278184
 8001bd8:	e000e100 	.word	0xe000e100
 8001bdc:	40020400 	.word	0x40020400
 8001be0:	42278004 	.word	0x42278004

08001be4 <_Z10update_magRN4quan7three_d4vectIsEEl>:
 8001be4:	4b5d      	ldr	r3, [pc, #372]	; (8001d5c <_Z10update_magRN4quan7three_d4vectIsEEl+0x178>)
 8001be6:	b5f7      	push	{r0, r1, r2, r4, r5, r6, r7, lr}
 8001be8:	4607      	mov	r7, r0
 8001bea:	7818      	ldrb	r0, [r3, #0]
 8001bec:	460e      	mov	r6, r1
 8001bee:	b1a8      	cbz	r0, 8001c1c <_Z10update_magRN4quan7three_d4vectIsEEl+0x38>
 8001bf0:	495b      	ldr	r1, [pc, #364]	; (8001d60 <_Z10update_magRN4quan7three_d4vectIsEEl+0x17c>)
 8001bf2:	4b5c      	ldr	r3, [pc, #368]	; (8001d64 <_Z10update_magRN4quan7three_d4vectIsEEl+0x180>)
 8001bf4:	680a      	ldr	r2, [r1, #0]
 8001bf6:	429a      	cmp	r2, r3
 8001bf8:	d110      	bne.n	8001c1c <_Z10update_magRN4quan7three_d4vectIsEEl+0x38>
 8001bfa:	4c5b      	ldr	r4, [pc, #364]	; (8001d68 <_Z10update_magRN4quan7three_d4vectIsEEl+0x184>)
 8001bfc:	4668      	mov	r0, sp
 8001bfe:	f002 fad3 	bl	80041a8 <_ZN4quan5stm326millisEv>
 8001c02:	e9dd 2300 	ldrd	r2, r3, [sp]
 8001c06:	e9d4 4500 	ldrd	r4, r5, [r4]
 8001c0a:	1b12      	subs	r2, r2, r4
 8001c0c:	eb63 0305 	sbc.w	r3, r3, r5
 8001c10:	2a0b      	cmp	r2, #11
 8001c12:	f173 0100 	sbcs.w	r1, r3, #0
 8001c16:	db01      	blt.n	8001c1c <_Z10update_magRN4quan7three_d4vectIsEEl+0x38>
 8001c18:	4854      	ldr	r0, [pc, #336]	; (8001d6c <_Z10update_magRN4quan7three_d4vectIsEEl+0x188>)
 8001c1a:	e099      	b.n	8001d50 <_Z10update_magRN4quan7three_d4vectIsEEl+0x16c>
 8001c1c:	f002 fad8 	bl	80041d0 <_ZN4quan5stm328i2c_portINS0_3i2c6moduleILm1073763328EEENS_3mcu3pinINS0_4gpio6moduleILm1073873920EEELm6EEENS6_IS9_Lm9EEEE4busyEv>
 8001c20:	2800      	cmp	r0, #0
 8001c22:	d158      	bne.n	8001cd6 <_Z10update_magRN4quan7three_d4vectIsEEl+0xf2>
 8001c24:	4b52      	ldr	r3, [pc, #328]	; (8001d70 <_Z10update_magRN4quan7three_d4vectIsEEl+0x18c>)
 8001c26:	6818      	ldr	r0, [r3, #0]
 8001c28:	2804      	cmp	r0, #4
 8001c2a:	f200 8090 	bhi.w	8001d4e <_Z10update_magRN4quan7three_d4vectIsEEl+0x16a>
 8001c2e:	e8df f000 	tbb	[pc, r0]
 8001c32:	6541      	.short	0x6541
 8001c34:	7043      	.short	0x7043
 8001c36:	03          	.byte	0x03
 8001c37:	00          	.byte	0x00
 8001c38:	685b      	ldr	r3, [r3, #4]
 8001c3a:	494d      	ldr	r1, [pc, #308]	; (8001d70 <_Z10update_magRN4quan7three_d4vectIsEEl+0x18c>)
 8001c3c:	429e      	cmp	r6, r3
 8001c3e:	d115      	bne.n	8001c6c <_Z10update_magRN4quan7three_d4vectIsEEl+0x88>
 8001c40:	484c      	ldr	r0, [pc, #304]	; (8001d74 <_Z10update_magRN4quan7three_d4vectIsEEl+0x190>)
 8001c42:	2200      	movs	r2, #0
 8001c44:	7002      	strb	r2, [r0, #0]
 8001c46:	3108      	adds	r1, #8
 8001c48:	203c      	movs	r0, #60	; 0x3c
 8001c4a:	2202      	movs	r2, #2
 8001c4c:	f002 fada 	bl	8004204 <_ZN4quan5stm328i2c_portINS0_3i2c6moduleILm1073763328EEENS_3mcu3pinINS0_4gpio6moduleILm1073873920EEELm6EEENS6_IS9_Lm9EEEE16transfer_requestEhPhl>
 8001c50:	b910      	cbnz	r0, 8001c58 <_Z10update_magRN4quan7three_d4vectIsEEl+0x74>
 8001c52:	4849      	ldr	r0, [pc, #292]	; (8001d78 <_Z10update_magRN4quan7three_d4vectIsEEl+0x194>)
 8001c54:	f001 f9e0 	bl	8003018 <_ZN4quan5stm3211serial_portINS0_5usart6moduleILm1073760256EEELj1000ELj1000ENS_3mcu3pinINS0_4gpio6moduleILm1073875968EEELm8EEENS6_IS9_Lm9EEEE5writeEPKc>
 8001c58:	4668      	mov	r0, sp
 8001c5a:	f002 faa5 	bl	80041a8 <_ZN4quan5stm326millisEv>
 8001c5e:	e9dd 2300 	ldrd	r2, r3, [sp]
 8001c62:	4946      	ldr	r1, [pc, #280]	; (8001d7c <_Z10update_magRN4quan7three_d4vectIsEEl+0x198>)
 8001c64:	e9c1 2300 	strd	r2, r3, [r1]
 8001c68:	2202      	movs	r2, #2
 8001c6a:	e032      	b.n	8001cd2 <_Z10update_magRN4quan7three_d4vectIsEEl+0xee>
 8001c6c:	604e      	str	r6, [r1, #4]
 8001c6e:	b126      	cbz	r6, 8001c7a <_Z10update_magRN4quan7three_d4vectIsEEl+0x96>
 8001c70:	2e01      	cmp	r6, #1
 8001c72:	d00a      	beq.n	8001c8a <_Z10update_magRN4quan7three_d4vectIsEEl+0xa6>
 8001c74:	1c72      	adds	r2, r6, #1
 8001c76:	d119      	bne.n	8001cac <_Z10update_magRN4quan7three_d4vectIsEEl+0xc8>
 8001c78:	e00f      	b.n	8001c9a <_Z10update_magRN4quan7three_d4vectIsEEl+0xb6>
 8001c7a:	203c      	movs	r0, #60	; 0x3c
 8001c7c:	4940      	ldr	r1, [pc, #256]	; (8001d80 <_Z10update_magRN4quan7three_d4vectIsEEl+0x19c>)
 8001c7e:	2202      	movs	r2, #2
 8001c80:	f002 fac0 	bl	8004204 <_ZN4quan5stm328i2c_portINS0_3i2c6moduleILm1073763328EEENS_3mcu3pinINS0_4gpio6moduleILm1073873920EEELm6EEENS6_IS9_Lm9EEEE16transfer_requestEhPhl>
 8001c84:	b990      	cbnz	r0, 8001cac <_Z10update_magRN4quan7three_d4vectIsEEl+0xc8>
 8001c86:	483f      	ldr	r0, [pc, #252]	; (8001d84 <_Z10update_magRN4quan7three_d4vectIsEEl+0x1a0>)
 8001c88:	e00e      	b.n	8001ca8 <_Z10update_magRN4quan7three_d4vectIsEEl+0xc4>
 8001c8a:	203c      	movs	r0, #60	; 0x3c
 8001c8c:	310a      	adds	r1, #10
 8001c8e:	2202      	movs	r2, #2
 8001c90:	f002 fab8 	bl	8004204 <_ZN4quan5stm328i2c_portINS0_3i2c6moduleILm1073763328EEENS_3mcu3pinINS0_4gpio6moduleILm1073873920EEELm6EEENS6_IS9_Lm9EEEE16transfer_requestEhPhl>
 8001c94:	b950      	cbnz	r0, 8001cac <_Z10update_magRN4quan7three_d4vectIsEEl+0xc8>
 8001c96:	483c      	ldr	r0, [pc, #240]	; (8001d88 <_Z10update_magRN4quan7three_d4vectIsEEl+0x1a4>)
 8001c98:	e006      	b.n	8001ca8 <_Z10update_magRN4quan7three_d4vectIsEEl+0xc4>
 8001c9a:	203c      	movs	r0, #60	; 0x3c
 8001c9c:	310c      	adds	r1, #12
 8001c9e:	2202      	movs	r2, #2
 8001ca0:	f002 fab0 	bl	8004204 <_ZN4quan5stm328i2c_portINS0_3i2c6moduleILm1073763328EEENS_3mcu3pinINS0_4gpio6moduleILm1073873920EEELm6EEENS6_IS9_Lm9EEEE16transfer_requestEhPhl>
 8001ca4:	b910      	cbnz	r0, 8001cac <_Z10update_magRN4quan7three_d4vectIsEEl+0xc8>
 8001ca6:	4839      	ldr	r0, [pc, #228]	; (8001d8c <_Z10update_magRN4quan7three_d4vectIsEEl+0x1a8>)
 8001ca8:	f001 f9b6 	bl	8003018 <_ZN4quan5stm3211serial_portINS0_5usart6moduleILm1073760256EEELj1000ELj1000ENS_3mcu3pinINS0_4gpio6moduleILm1073875968EEELm8EEENS6_IS9_Lm9EEEE5writeEPKc>
 8001cac:	4930      	ldr	r1, [pc, #192]	; (8001d70 <_Z10update_magRN4quan7three_d4vectIsEEl+0x18c>)
 8001cae:	2000      	movs	r0, #0
 8001cb0:	6008      	str	r0, [r1, #0]
 8001cb2:	e051      	b.n	8001d58 <_Z10update_magRN4quan7three_d4vectIsEEl+0x174>
 8001cb4:	2204      	movs	r2, #4
 8001cb6:	e00d      	b.n	8001cd4 <_Z10update_magRN4quan7three_d4vectIsEEl+0xf0>
 8001cb8:	4a2e      	ldr	r2, [pc, #184]	; (8001d74 <_Z10update_magRN4quan7three_d4vectIsEEl+0x190>)
 8001cba:	7813      	ldrb	r3, [r2, #0]
 8001cbc:	b16b      	cbz	r3, 8001cda <_Z10update_magRN4quan7three_d4vectIsEEl+0xf6>
 8001cbe:	203c      	movs	r0, #60	; 0x3c
 8001cc0:	4933      	ldr	r1, [pc, #204]	; (8001d90 <_Z10update_magRN4quan7three_d4vectIsEEl+0x1ac>)
 8001cc2:	2201      	movs	r2, #1
 8001cc4:	f002 fa9e 	bl	8004204 <_ZN4quan5stm328i2c_portINS0_3i2c6moduleILm1073763328EEENS_3mcu3pinINS0_4gpio6moduleILm1073873920EEELm6EEENS6_IS9_Lm9EEEE16transfer_requestEhPhl>
 8001cc8:	b910      	cbnz	r0, 8001cd0 <_Z10update_magRN4quan7three_d4vectIsEEl+0xec>
 8001cca:	4832      	ldr	r0, [pc, #200]	; (8001d94 <_Z10update_magRN4quan7three_d4vectIsEEl+0x1b0>)
 8001ccc:	f001 f9a4 	bl	8003018 <_ZN4quan5stm3211serial_portINS0_5usart6moduleILm1073760256EEELj1000ELj1000ENS_3mcu3pinINS0_4gpio6moduleILm1073875968EEELm8EEENS6_IS9_Lm9EEEE5writeEPKc>
 8001cd0:	2201      	movs	r2, #1
 8001cd2:	4b27      	ldr	r3, [pc, #156]	; (8001d70 <_Z10update_magRN4quan7three_d4vectIsEEl+0x18c>)
 8001cd4:	601a      	str	r2, [r3, #0]
 8001cd6:	2000      	movs	r0, #0
 8001cd8:	e03e      	b.n	8001d58 <_Z10update_magRN4quan7three_d4vectIsEEl+0x174>
 8001cda:	4668      	mov	r0, sp
 8001cdc:	f002 fa64 	bl	80041a8 <_ZN4quan5stm326millisEv>
 8001ce0:	4926      	ldr	r1, [pc, #152]	; (8001d7c <_Z10update_magRN4quan7three_d4vectIsEEl+0x198>)
 8001ce2:	e9dd 2300 	ldrd	r2, r3, [sp]
 8001ce6:	e9d1 0100 	ldrd	r0, r1, [r1]
 8001cea:	1a12      	subs	r2, r2, r0
 8001cec:	eb63 0301 	sbc.w	r3, r3, r1
 8001cf0:	2a65      	cmp	r2, #101	; 0x65
 8001cf2:	f173 0100 	sbcs.w	r1, r3, #0
 8001cf6:	dbee      	blt.n	8001cd6 <_Z10update_magRN4quan7three_d4vectIsEEl+0xf2>
 8001cf8:	4827      	ldr	r0, [pc, #156]	; (8001d98 <_Z10update_magRN4quan7three_d4vectIsEEl+0x1b4>)
 8001cfa:	e029      	b.n	8001d50 <_Z10update_magRN4quan7three_d4vectIsEEl+0x16c>
 8001cfc:	203d      	movs	r0, #61	; 0x3d
 8001cfe:	4927      	ldr	r1, [pc, #156]	; (8001d9c <_Z10update_magRN4quan7three_d4vectIsEEl+0x1b8>)
 8001d00:	2206      	movs	r2, #6
 8001d02:	f002 fa7f 	bl	8004204 <_ZN4quan5stm328i2c_portINS0_3i2c6moduleILm1073763328EEENS_3mcu3pinINS0_4gpio6moduleILm1073873920EEELm6EEENS6_IS9_Lm9EEEE16transfer_requestEhPhl>
 8001d06:	b910      	cbnz	r0, 8001d0e <_Z10update_magRN4quan7three_d4vectIsEEl+0x12a>
 8001d08:	4825      	ldr	r0, [pc, #148]	; (8001da0 <_Z10update_magRN4quan7three_d4vectIsEEl+0x1bc>)
 8001d0a:	f001 f985 	bl	8003018 <_ZN4quan5stm3211serial_portINS0_5usart6moduleILm1073760256EEELj1000ELj1000ENS_3mcu3pinINS0_4gpio6moduleILm1073875968EEELm8EEENS6_IS9_Lm9EEEE5writeEPKc>
 8001d0e:	2203      	movs	r2, #3
 8001d10:	e7df      	b.n	8001cd2 <_Z10update_magRN4quan7three_d4vectIsEEl+0xee>
 8001d12:	4b1a      	ldr	r3, [pc, #104]	; (8001d7c <_Z10update_magRN4quan7three_d4vectIsEEl+0x198>)
 8001d14:	7ad8      	ldrb	r0, [r3, #11]
 8001d16:	7a99      	ldrb	r1, [r3, #10]
 8001d18:	2200      	movs	r2, #0
 8001d1a:	f360 0207 	bfi	r2, r0, #0, #8
 8001d1e:	f361 220f 	bfi	r2, r1, #8, #8
 8001d22:	803a      	strh	r2, [r7, #0]
 8001d24:	7bd8      	ldrb	r0, [r3, #15]
 8001d26:	7b99      	ldrb	r1, [r3, #14]
 8001d28:	2200      	movs	r2, #0
 8001d2a:	f360 0207 	bfi	r2, r0, #0, #8
 8001d2e:	f361 220f 	bfi	r2, r1, #8, #8
 8001d32:	807a      	strh	r2, [r7, #2]
 8001d34:	7b58      	ldrb	r0, [r3, #13]
 8001d36:	7b1b      	ldrb	r3, [r3, #12]
 8001d38:	2200      	movs	r2, #0
 8001d3a:	f360 0207 	bfi	r2, r0, #0, #8
 8001d3e:	480c      	ldr	r0, [pc, #48]	; (8001d70 <_Z10update_magRN4quan7three_d4vectIsEEl+0x18c>)
 8001d40:	f363 220f 	bfi	r2, r3, #8, #8
 8001d44:	2104      	movs	r1, #4
 8001d46:	6001      	str	r1, [r0, #0]
 8001d48:	80ba      	strh	r2, [r7, #4]
 8001d4a:	2001      	movs	r0, #1
 8001d4c:	e004      	b.n	8001d58 <_Z10update_magRN4quan7three_d4vectIsEEl+0x174>
 8001d4e:	4815      	ldr	r0, [pc, #84]	; (8001da4 <_Z10update_magRN4quan7three_d4vectIsEEl+0x1c0>)
 8001d50:	f001 f962 	bl	8003018 <_ZN4quan5stm3211serial_portINS0_5usart6moduleILm1073760256EEELj1000ELj1000ENS_3mcu3pinINS0_4gpio6moduleILm1073875968EEELm8EEENS6_IS9_Lm9EEEE5writeEPKc>
 8001d54:	f04f 30ff 	mov.w	r0, #4294967295
 8001d58:	bdfe      	pop	{r1, r2, r3, r4, r5, r6, r7, pc}
 8001d5a:	bf00      	nop
 8001d5c:	10001724 	.word	0x10001724
 8001d60:	10000040 	.word	0x10000040
 8001d64:	08003f75 	.word	0x08003f75
 8001d68:	10001738 	.word	0x10001738
 8001d6c:	0800df9f 	.word	0x0800df9f
 8001d70:	1000002c 	.word	0x1000002c
 8001d74:	1000090b 	.word	0x1000090b
 8001d78:	0800dfb1 	.word	0x0800dfb1
 8001d7c:	10000b00 	.word	0x10000b00
 8001d80:	10000b08 	.word	0x10000b08
 8001d84:	0800dfda 	.word	0x0800dfda
 8001d88:	0800dfeb 	.word	0x0800dfeb
 8001d8c:	0800e002 	.word	0x0800e002
 8001d90:	1000003a 	.word	0x1000003a
 8001d94:	0800e019 	.word	0x0800e019
 8001d98:	0800e031 	.word	0x0800e031
 8001d9c:	10000b0a 	.word	0x10000b0a
 8001da0:	0800e03a 	.word	0x0800e03a
 8001da4:	0800e050 	.word	0x0800e050

08001da8 <_Z13setup_systickv>:
 8001da8:	4b09      	ldr	r3, [pc, #36]	; (8001dd0 <_Z13setup_systickv+0x28>)
 8001daa:	681a      	ldr	r2, [r3, #0]
 8001dac:	4b09      	ldr	r3, [pc, #36]	; (8001dd4 <_Z13setup_systickv+0x2c>)
 8001dae:	f44f 707a 	mov.w	r0, #1000	; 0x3e8
 8001db2:	fbb2 f1f0 	udiv	r1, r2, r0
 8001db6:	1e4a      	subs	r2, r1, #1
 8001db8:	605a      	str	r2, [r3, #4]
 8001dba:	4a07      	ldr	r2, [pc, #28]	; (8001dd8 <_Z13setup_systickv+0x30>)
 8001dbc:	21f0      	movs	r1, #240	; 0xf0
 8001dbe:	2000      	movs	r0, #0
 8001dc0:	f882 1023 	strb.w	r1, [r2, #35]	; 0x23
 8001dc4:	6098      	str	r0, [r3, #8]
 8001dc6:	2007      	movs	r0, #7
 8001dc8:	6018      	str	r0, [r3, #0]
 8001dca:	f882 1023 	strb.w	r1, [r2, #35]	; 0x23
 8001dce:	4770      	bx	lr
 8001dd0:	10000024 	.word	0x10000024
 8001dd4:	e000e010 	.word	0xe000e010
 8001dd8:	e000ed00 	.word	0xe000ed00

08001ddc <SysTick_Handler>:
 8001ddc:	b510      	push	{r4, lr}
 8001dde:	4c07      	ldr	r4, [pc, #28]	; (8001dfc <SysTick_Handler+0x20>)
 8001de0:	e9d4 2300 	ldrd	r2, r3, [r4]
 8001de4:	2001      	movs	r0, #1
 8001de6:	2100      	movs	r1, #0
 8001de8:	1812      	adds	r2, r2, r0
 8001dea:	eb43 0301 	adc.w	r3, r3, r1
 8001dee:	e9c4 2300 	strd	r2, r3, [r4]
 8001df2:	4b03      	ldr	r3, [pc, #12]	; (8001e00 <SysTick_Handler+0x24>)
 8001df4:	2201      	movs	r2, #1
 8001df6:	701a      	strb	r2, [r3, #0]
 8001df8:	bd10      	pop	{r4, pc}
 8001dfa:	bf00      	nop
 8001dfc:	10000b10 	.word	0x10000b10
 8001e00:	10000908 	.word	0x10000908
 8001e04:	0800e5d8 	.word	0x0800e5d8
 8001e08:	10000000 	.word	0x10000000
 8001e0c:	10000908 	.word	0x10000908
 8001e10:	10000908 	.word	0x10000908
 8001e14:	10001784 	.word	0x10001784

08001e18 <__aeabi_drsub>:
 8001e18:	f081 4100 	eor.w	r1, r1, #2147483648	; 0x80000000
 8001e1c:	e002      	b.n	8001e24 <__adddf3>
 8001e1e:	bf00      	nop

08001e20 <__aeabi_dsub>:
 8001e20:	f083 4300 	eor.w	r3, r3, #2147483648	; 0x80000000

08001e24 <__adddf3>:
 8001e24:	b530      	push	{r4, r5, lr}
 8001e26:	ea4f 0441 	mov.w	r4, r1, lsl #1
 8001e2a:	ea4f 0543 	mov.w	r5, r3, lsl #1
 8001e2e:	ea94 0f05 	teq	r4, r5
 8001e32:	bf08      	it	eq
 8001e34:	ea90 0f02 	teqeq	r0, r2
 8001e38:	bf1f      	itttt	ne
 8001e3a:	ea54 0c00 	orrsne.w	ip, r4, r0
 8001e3e:	ea55 0c02 	orrsne.w	ip, r5, r2
 8001e42:	ea7f 5c64 	mvnsne.w	ip, r4, asr #21
 8001e46:	ea7f 5c65 	mvnsne.w	ip, r5, asr #21
 8001e4a:	f000 80e2 	beq.w	8002012 <__adddf3+0x1ee>
 8001e4e:	ea4f 5454 	mov.w	r4, r4, lsr #21
 8001e52:	ebd4 5555 	rsbs	r5, r4, r5, lsr #21
 8001e56:	bfb8      	it	lt
 8001e58:	426d      	neglt	r5, r5
 8001e5a:	dd0c      	ble.n	8001e76 <__adddf3+0x52>
 8001e5c:	442c      	add	r4, r5
 8001e5e:	ea80 0202 	eor.w	r2, r0, r2
 8001e62:	ea81 0303 	eor.w	r3, r1, r3
 8001e66:	ea82 0000 	eor.w	r0, r2, r0
 8001e6a:	ea83 0101 	eor.w	r1, r3, r1
 8001e6e:	ea80 0202 	eor.w	r2, r0, r2
 8001e72:	ea81 0303 	eor.w	r3, r1, r3
 8001e76:	2d36      	cmp	r5, #54	; 0x36
 8001e78:	bf88      	it	hi
 8001e7a:	bd30      	pophi	{r4, r5, pc}
 8001e7c:	f011 4f00 	tst.w	r1, #2147483648	; 0x80000000
 8001e80:	ea4f 3101 	mov.w	r1, r1, lsl #12
 8001e84:	f44f 1c80 	mov.w	ip, #1048576	; 0x100000
 8001e88:	ea4c 3111 	orr.w	r1, ip, r1, lsr #12
 8001e8c:	d002      	beq.n	8001e94 <__adddf3+0x70>
 8001e8e:	4240      	negs	r0, r0
 8001e90:	eb61 0141 	sbc.w	r1, r1, r1, lsl #1
 8001e94:	f013 4f00 	tst.w	r3, #2147483648	; 0x80000000
 8001e98:	ea4f 3303 	mov.w	r3, r3, lsl #12
 8001e9c:	ea4c 3313 	orr.w	r3, ip, r3, lsr #12
 8001ea0:	d002      	beq.n	8001ea8 <__adddf3+0x84>
 8001ea2:	4252      	negs	r2, r2
 8001ea4:	eb63 0343 	sbc.w	r3, r3, r3, lsl #1
 8001ea8:	ea94 0f05 	teq	r4, r5
 8001eac:	f000 80a7 	beq.w	8001ffe <__adddf3+0x1da>
 8001eb0:	f1a4 0401 	sub.w	r4, r4, #1
 8001eb4:	f1d5 0e20 	rsbs	lr, r5, #32
 8001eb8:	db0d      	blt.n	8001ed6 <__adddf3+0xb2>
 8001eba:	fa02 fc0e 	lsl.w	ip, r2, lr
 8001ebe:	fa22 f205 	lsr.w	r2, r2, r5
 8001ec2:	1880      	adds	r0, r0, r2
 8001ec4:	f141 0100 	adc.w	r1, r1, #0
 8001ec8:	fa03 f20e 	lsl.w	r2, r3, lr
 8001ecc:	1880      	adds	r0, r0, r2
 8001ece:	fa43 f305 	asr.w	r3, r3, r5
 8001ed2:	4159      	adcs	r1, r3
 8001ed4:	e00e      	b.n	8001ef4 <__adddf3+0xd0>
 8001ed6:	f1a5 0520 	sub.w	r5, r5, #32
 8001eda:	f10e 0e20 	add.w	lr, lr, #32
 8001ede:	2a01      	cmp	r2, #1
 8001ee0:	fa03 fc0e 	lsl.w	ip, r3, lr
 8001ee4:	bf28      	it	cs
 8001ee6:	f04c 0c02 	orrcs.w	ip, ip, #2
 8001eea:	fa43 f305 	asr.w	r3, r3, r5
 8001eee:	18c0      	adds	r0, r0, r3
 8001ef0:	eb51 71e3 	adcs.w	r1, r1, r3, asr #31
 8001ef4:	f001 4500 	and.w	r5, r1, #2147483648	; 0x80000000
 8001ef8:	d507      	bpl.n	8001f0a <__adddf3+0xe6>
 8001efa:	f04f 0e00 	mov.w	lr, #0
 8001efe:	f1dc 0c00 	rsbs	ip, ip, #0
 8001f02:	eb7e 0000 	sbcs.w	r0, lr, r0
 8001f06:	eb6e 0101 	sbc.w	r1, lr, r1
 8001f0a:	f5b1 1f80 	cmp.w	r1, #1048576	; 0x100000
 8001f0e:	d31b      	bcc.n	8001f48 <__adddf3+0x124>
 8001f10:	f5b1 1f00 	cmp.w	r1, #2097152	; 0x200000
 8001f14:	d30c      	bcc.n	8001f30 <__adddf3+0x10c>
 8001f16:	0849      	lsrs	r1, r1, #1
 8001f18:	ea5f 0030 	movs.w	r0, r0, rrx
 8001f1c:	ea4f 0c3c 	mov.w	ip, ip, rrx
 8001f20:	f104 0401 	add.w	r4, r4, #1
 8001f24:	ea4f 5244 	mov.w	r2, r4, lsl #21
 8001f28:	f512 0f80 	cmn.w	r2, #4194304	; 0x400000
 8001f2c:	f080 809a 	bcs.w	8002064 <__adddf3+0x240>
 8001f30:	f1bc 4f00 	cmp.w	ip, #2147483648	; 0x80000000
 8001f34:	bf08      	it	eq
 8001f36:	ea5f 0c50 	movseq.w	ip, r0, lsr #1
 8001f3a:	f150 0000 	adcs.w	r0, r0, #0
 8001f3e:	eb41 5104 	adc.w	r1, r1, r4, lsl #20
 8001f42:	ea41 0105 	orr.w	r1, r1, r5
 8001f46:	bd30      	pop	{r4, r5, pc}
 8001f48:	ea5f 0c4c 	movs.w	ip, ip, lsl #1
 8001f4c:	4140      	adcs	r0, r0
 8001f4e:	eb41 0101 	adc.w	r1, r1, r1
 8001f52:	f411 1f80 	tst.w	r1, #1048576	; 0x100000
 8001f56:	f1a4 0401 	sub.w	r4, r4, #1
 8001f5a:	d1e9      	bne.n	8001f30 <__adddf3+0x10c>
 8001f5c:	f091 0f00 	teq	r1, #0
 8001f60:	bf04      	itt	eq
 8001f62:	4601      	moveq	r1, r0
 8001f64:	2000      	moveq	r0, #0
 8001f66:	fab1 f381 	clz	r3, r1
 8001f6a:	bf08      	it	eq
 8001f6c:	3320      	addeq	r3, #32
 8001f6e:	f1a3 030b 	sub.w	r3, r3, #11
 8001f72:	f1b3 0220 	subs.w	r2, r3, #32
 8001f76:	da0c      	bge.n	8001f92 <__adddf3+0x16e>
 8001f78:	320c      	adds	r2, #12
 8001f7a:	dd08      	ble.n	8001f8e <__adddf3+0x16a>
 8001f7c:	f102 0c14 	add.w	ip, r2, #20
 8001f80:	f1c2 020c 	rsb	r2, r2, #12
 8001f84:	fa01 f00c 	lsl.w	r0, r1, ip
 8001f88:	fa21 f102 	lsr.w	r1, r1, r2
 8001f8c:	e00c      	b.n	8001fa8 <__adddf3+0x184>
 8001f8e:	f102 0214 	add.w	r2, r2, #20
 8001f92:	bfd8      	it	le
 8001f94:	f1c2 0c20 	rsble	ip, r2, #32
 8001f98:	fa01 f102 	lsl.w	r1, r1, r2
 8001f9c:	fa20 fc0c 	lsr.w	ip, r0, ip
 8001fa0:	bfdc      	itt	le
 8001fa2:	ea41 010c 	orrle.w	r1, r1, ip
 8001fa6:	4090      	lslle	r0, r2
 8001fa8:	1ae4      	subs	r4, r4, r3
 8001faa:	bfa2      	ittt	ge
 8001fac:	eb01 5104 	addge.w	r1, r1, r4, lsl #20
 8001fb0:	4329      	orrge	r1, r5
 8001fb2:	bd30      	popge	{r4, r5, pc}
 8001fb4:	ea6f 0404 	mvn.w	r4, r4
 8001fb8:	3c1f      	subs	r4, #31
 8001fba:	da1c      	bge.n	8001ff6 <__adddf3+0x1d2>
 8001fbc:	340c      	adds	r4, #12
 8001fbe:	dc0e      	bgt.n	8001fde <__adddf3+0x1ba>
 8001fc0:	f104 0414 	add.w	r4, r4, #20
 8001fc4:	f1c4 0220 	rsb	r2, r4, #32
 8001fc8:	fa20 f004 	lsr.w	r0, r0, r4
 8001fcc:	fa01 f302 	lsl.w	r3, r1, r2
 8001fd0:	ea40 0003 	orr.w	r0, r0, r3
 8001fd4:	fa21 f304 	lsr.w	r3, r1, r4
 8001fd8:	ea45 0103 	orr.w	r1, r5, r3
 8001fdc:	bd30      	pop	{r4, r5, pc}
 8001fde:	f1c4 040c 	rsb	r4, r4, #12
 8001fe2:	f1c4 0220 	rsb	r2, r4, #32
 8001fe6:	fa20 f002 	lsr.w	r0, r0, r2
 8001fea:	fa01 f304 	lsl.w	r3, r1, r4
 8001fee:	ea40 0003 	orr.w	r0, r0, r3
 8001ff2:	4629      	mov	r1, r5
 8001ff4:	bd30      	pop	{r4, r5, pc}
 8001ff6:	fa21 f004 	lsr.w	r0, r1, r4
 8001ffa:	4629      	mov	r1, r5
 8001ffc:	bd30      	pop	{r4, r5, pc}
 8001ffe:	f094 0f00 	teq	r4, #0
 8002002:	f483 1380 	eor.w	r3, r3, #1048576	; 0x100000
 8002006:	bf06      	itte	eq
 8002008:	f481 1180 	eoreq.w	r1, r1, #1048576	; 0x100000
 800200c:	3401      	addeq	r4, #1
 800200e:	3d01      	subne	r5, #1
 8002010:	e74e      	b.n	8001eb0 <__adddf3+0x8c>
 8002012:	ea7f 5c64 	mvns.w	ip, r4, asr #21
 8002016:	bf18      	it	ne
 8002018:	ea7f 5c65 	mvnsne.w	ip, r5, asr #21
 800201c:	d029      	beq.n	8002072 <__adddf3+0x24e>
 800201e:	ea94 0f05 	teq	r4, r5
 8002022:	bf08      	it	eq
 8002024:	ea90 0f02 	teqeq	r0, r2
 8002028:	d005      	beq.n	8002036 <__adddf3+0x212>
 800202a:	ea54 0c00 	orrs.w	ip, r4, r0
 800202e:	bf04      	itt	eq
 8002030:	4619      	moveq	r1, r3
 8002032:	4610      	moveq	r0, r2
 8002034:	bd30      	pop	{r4, r5, pc}
 8002036:	ea91 0f03 	teq	r1, r3
 800203a:	bf1e      	ittt	ne
 800203c:	2100      	movne	r1, #0
 800203e:	2000      	movne	r0, #0
 8002040:	bd30      	popne	{r4, r5, pc}
 8002042:	ea5f 5c54 	movs.w	ip, r4, lsr #21
 8002046:	d105      	bne.n	8002054 <__adddf3+0x230>
 8002048:	0040      	lsls	r0, r0, #1
 800204a:	4149      	adcs	r1, r1
 800204c:	bf28      	it	cs
 800204e:	f041 4100 	orrcs.w	r1, r1, #2147483648	; 0x80000000
 8002052:	bd30      	pop	{r4, r5, pc}
 8002054:	f514 0480 	adds.w	r4, r4, #4194304	; 0x400000
 8002058:	bf3c      	itt	cc
 800205a:	f501 1180 	addcc.w	r1, r1, #1048576	; 0x100000
 800205e:	bd30      	popcc	{r4, r5, pc}
 8002060:	f001 4500 	and.w	r5, r1, #2147483648	; 0x80000000
 8002064:	f045 41fe 	orr.w	r1, r5, #2130706432	; 0x7f000000
 8002068:	f441 0170 	orr.w	r1, r1, #15728640	; 0xf00000
 800206c:	f04f 0000 	mov.w	r0, #0
 8002070:	bd30      	pop	{r4, r5, pc}
 8002072:	ea7f 5c64 	mvns.w	ip, r4, asr #21
 8002076:	bf1a      	itte	ne
 8002078:	4619      	movne	r1, r3
 800207a:	4610      	movne	r0, r2
 800207c:	ea7f 5c65 	mvnseq.w	ip, r5, asr #21
 8002080:	bf1c      	itt	ne
 8002082:	460b      	movne	r3, r1
 8002084:	4602      	movne	r2, r0
 8002086:	ea50 3401 	orrs.w	r4, r0, r1, lsl #12
 800208a:	bf06      	itte	eq
 800208c:	ea52 3503 	orrseq.w	r5, r2, r3, lsl #12
 8002090:	ea91 0f03 	teqeq	r1, r3
 8002094:	f441 2100 	orrne.w	r1, r1, #524288	; 0x80000
 8002098:	bd30      	pop	{r4, r5, pc}
 800209a:	bf00      	nop

0800209c <__aeabi_ui2d>:
 800209c:	f090 0f00 	teq	r0, #0
 80020a0:	bf04      	itt	eq
 80020a2:	2100      	moveq	r1, #0
 80020a4:	4770      	bxeq	lr
 80020a6:	b530      	push	{r4, r5, lr}
 80020a8:	f44f 6480 	mov.w	r4, #1024	; 0x400
 80020ac:	f104 0432 	add.w	r4, r4, #50	; 0x32
 80020b0:	f04f 0500 	mov.w	r5, #0
 80020b4:	f04f 0100 	mov.w	r1, #0
 80020b8:	e750      	b.n	8001f5c <__adddf3+0x138>
 80020ba:	bf00      	nop

080020bc <__aeabi_i2d>:
 80020bc:	f090 0f00 	teq	r0, #0
 80020c0:	bf04      	itt	eq
 80020c2:	2100      	moveq	r1, #0
 80020c4:	4770      	bxeq	lr
 80020c6:	b530      	push	{r4, r5, lr}
 80020c8:	f44f 6480 	mov.w	r4, #1024	; 0x400
 80020cc:	f104 0432 	add.w	r4, r4, #50	; 0x32
 80020d0:	f010 4500 	ands.w	r5, r0, #2147483648	; 0x80000000
 80020d4:	bf48      	it	mi
 80020d6:	4240      	negmi	r0, r0
 80020d8:	f04f 0100 	mov.w	r1, #0
 80020dc:	e73e      	b.n	8001f5c <__adddf3+0x138>
 80020de:	bf00      	nop

080020e0 <__aeabi_f2d>:
 80020e0:	0042      	lsls	r2, r0, #1
 80020e2:	ea4f 01e2 	mov.w	r1, r2, asr #3
 80020e6:	ea4f 0131 	mov.w	r1, r1, rrx
 80020ea:	ea4f 7002 	mov.w	r0, r2, lsl #28
 80020ee:	bf1f      	itttt	ne
 80020f0:	f012 437f 	andsne.w	r3, r2, #4278190080	; 0xff000000
 80020f4:	f093 4f7f 	teqne	r3, #4278190080	; 0xff000000
 80020f8:	f081 5160 	eorne.w	r1, r1, #939524096	; 0x38000000
 80020fc:	4770      	bxne	lr
 80020fe:	f092 0f00 	teq	r2, #0
 8002102:	bf14      	ite	ne
 8002104:	f093 4f7f 	teqne	r3, #4278190080	; 0xff000000
 8002108:	4770      	bxeq	lr
 800210a:	b530      	push	{r4, r5, lr}
 800210c:	f44f 7460 	mov.w	r4, #896	; 0x380
 8002110:	f001 4500 	and.w	r5, r1, #2147483648	; 0x80000000
 8002114:	f021 4100 	bic.w	r1, r1, #2147483648	; 0x80000000
 8002118:	e720      	b.n	8001f5c <__adddf3+0x138>
 800211a:	bf00      	nop

0800211c <__aeabi_ul2d>:
 800211c:	ea50 0201 	orrs.w	r2, r0, r1
 8002120:	bf08      	it	eq
 8002122:	4770      	bxeq	lr
 8002124:	b530      	push	{r4, r5, lr}
 8002126:	f04f 0500 	mov.w	r5, #0
 800212a:	e00a      	b.n	8002142 <__aeabi_l2d+0x16>

0800212c <__aeabi_l2d>:
 800212c:	ea50 0201 	orrs.w	r2, r0, r1
 8002130:	bf08      	it	eq
 8002132:	4770      	bxeq	lr
 8002134:	b530      	push	{r4, r5, lr}
 8002136:	f011 4500 	ands.w	r5, r1, #2147483648	; 0x80000000
 800213a:	d502      	bpl.n	8002142 <__aeabi_l2d+0x16>
 800213c:	4240      	negs	r0, r0
 800213e:	eb61 0141 	sbc.w	r1, r1, r1, lsl #1
 8002142:	f44f 6480 	mov.w	r4, #1024	; 0x400
 8002146:	f104 0432 	add.w	r4, r4, #50	; 0x32
 800214a:	ea5f 5c91 	movs.w	ip, r1, lsr #22
 800214e:	f43f aedc 	beq.w	8001f0a <__adddf3+0xe6>
 8002152:	f04f 0203 	mov.w	r2, #3
 8002156:	ea5f 0cdc 	movs.w	ip, ip, lsr #3
 800215a:	bf18      	it	ne
 800215c:	3203      	addne	r2, #3
 800215e:	ea5f 0cdc 	movs.w	ip, ip, lsr #3
 8002162:	bf18      	it	ne
 8002164:	3203      	addne	r2, #3
 8002166:	eb02 02dc 	add.w	r2, r2, ip, lsr #3
 800216a:	f1c2 0320 	rsb	r3, r2, #32
 800216e:	fa00 fc03 	lsl.w	ip, r0, r3
 8002172:	fa20 f002 	lsr.w	r0, r0, r2
 8002176:	fa01 fe03 	lsl.w	lr, r1, r3
 800217a:	ea40 000e 	orr.w	r0, r0, lr
 800217e:	fa21 f102 	lsr.w	r1, r1, r2
 8002182:	4414      	add	r4, r2
 8002184:	e6c1      	b.n	8001f0a <__adddf3+0xe6>
 8002186:	bf00      	nop

08002188 <__aeabi_dmul>:
 8002188:	b570      	push	{r4, r5, r6, lr}
 800218a:	f04f 0cff 	mov.w	ip, #255	; 0xff
 800218e:	f44c 6ce0 	orr.w	ip, ip, #1792	; 0x700
 8002192:	ea1c 5411 	ands.w	r4, ip, r1, lsr #20
 8002196:	bf1d      	ittte	ne
 8002198:	ea1c 5513 	andsne.w	r5, ip, r3, lsr #20
 800219c:	ea94 0f0c 	teqne	r4, ip
 80021a0:	ea95 0f0c 	teqne	r5, ip
 80021a4:	f000 f8de 	bleq	8002364 <__aeabi_dmul+0x1dc>
 80021a8:	442c      	add	r4, r5
 80021aa:	ea81 0603 	eor.w	r6, r1, r3
 80021ae:	ea21 514c 	bic.w	r1, r1, ip, lsl #21
 80021b2:	ea23 534c 	bic.w	r3, r3, ip, lsl #21
 80021b6:	ea50 3501 	orrs.w	r5, r0, r1, lsl #12
 80021ba:	bf18      	it	ne
 80021bc:	ea52 3503 	orrsne.w	r5, r2, r3, lsl #12
 80021c0:	f441 1180 	orr.w	r1, r1, #1048576	; 0x100000
 80021c4:	f443 1380 	orr.w	r3, r3, #1048576	; 0x100000
 80021c8:	d038      	beq.n	800223c <__aeabi_dmul+0xb4>
 80021ca:	fba0 ce02 	umull	ip, lr, r0, r2
 80021ce:	f04f 0500 	mov.w	r5, #0
 80021d2:	fbe1 e502 	umlal	lr, r5, r1, r2
 80021d6:	f006 4200 	and.w	r2, r6, #2147483648	; 0x80000000
 80021da:	fbe0 e503 	umlal	lr, r5, r0, r3
 80021de:	f04f 0600 	mov.w	r6, #0
 80021e2:	fbe1 5603 	umlal	r5, r6, r1, r3
 80021e6:	f09c 0f00 	teq	ip, #0
 80021ea:	bf18      	it	ne
 80021ec:	f04e 0e01 	orrne.w	lr, lr, #1
 80021f0:	f1a4 04ff 	sub.w	r4, r4, #255	; 0xff
 80021f4:	f5b6 7f00 	cmp.w	r6, #512	; 0x200
 80021f8:	f564 7440 	sbc.w	r4, r4, #768	; 0x300
 80021fc:	d204      	bcs.n	8002208 <__aeabi_dmul+0x80>
 80021fe:	ea5f 0e4e 	movs.w	lr, lr, lsl #1
 8002202:	416d      	adcs	r5, r5
 8002204:	eb46 0606 	adc.w	r6, r6, r6
 8002208:	ea42 21c6 	orr.w	r1, r2, r6, lsl #11
 800220c:	ea41 5155 	orr.w	r1, r1, r5, lsr #21
 8002210:	ea4f 20c5 	mov.w	r0, r5, lsl #11
 8002214:	ea40 505e 	orr.w	r0, r0, lr, lsr #21
 8002218:	ea4f 2ece 	mov.w	lr, lr, lsl #11
 800221c:	f1b4 0cfd 	subs.w	ip, r4, #253	; 0xfd
 8002220:	bf88      	it	hi
 8002222:	f5bc 6fe0 	cmphi.w	ip, #1792	; 0x700
 8002226:	d81e      	bhi.n	8002266 <__aeabi_dmul+0xde>
 8002228:	f1be 4f00 	cmp.w	lr, #2147483648	; 0x80000000
 800222c:	bf08      	it	eq
 800222e:	ea5f 0e50 	movseq.w	lr, r0, lsr #1
 8002232:	f150 0000 	adcs.w	r0, r0, #0
 8002236:	eb41 5104 	adc.w	r1, r1, r4, lsl #20
 800223a:	bd70      	pop	{r4, r5, r6, pc}
 800223c:	f006 4600 	and.w	r6, r6, #2147483648	; 0x80000000
 8002240:	ea46 0101 	orr.w	r1, r6, r1
 8002244:	ea40 0002 	orr.w	r0, r0, r2
 8002248:	ea81 0103 	eor.w	r1, r1, r3
 800224c:	ebb4 045c 	subs.w	r4, r4, ip, lsr #1
 8002250:	bfc2      	ittt	gt
 8002252:	ebd4 050c 	rsbsgt	r5, r4, ip
 8002256:	ea41 5104 	orrgt.w	r1, r1, r4, lsl #20
 800225a:	bd70      	popgt	{r4, r5, r6, pc}
 800225c:	f441 1180 	orr.w	r1, r1, #1048576	; 0x100000
 8002260:	f04f 0e00 	mov.w	lr, #0
 8002264:	3c01      	subs	r4, #1
 8002266:	f300 80ab 	bgt.w	80023c0 <__aeabi_dmul+0x238>
 800226a:	f114 0f36 	cmn.w	r4, #54	; 0x36
 800226e:	bfde      	ittt	le
 8002270:	2000      	movle	r0, #0
 8002272:	f001 4100 	andle.w	r1, r1, #2147483648	; 0x80000000
 8002276:	bd70      	pople	{r4, r5, r6, pc}
 8002278:	f1c4 0400 	rsb	r4, r4, #0
 800227c:	3c20      	subs	r4, #32
 800227e:	da35      	bge.n	80022ec <__aeabi_dmul+0x164>
 8002280:	340c      	adds	r4, #12
 8002282:	dc1b      	bgt.n	80022bc <__aeabi_dmul+0x134>
 8002284:	f104 0414 	add.w	r4, r4, #20
 8002288:	f1c4 0520 	rsb	r5, r4, #32
 800228c:	fa00 f305 	lsl.w	r3, r0, r5
 8002290:	fa20 f004 	lsr.w	r0, r0, r4
 8002294:	fa01 f205 	lsl.w	r2, r1, r5
 8002298:	ea40 0002 	orr.w	r0, r0, r2
 800229c:	f001 4200 	and.w	r2, r1, #2147483648	; 0x80000000
 80022a0:	f021 4100 	bic.w	r1, r1, #2147483648	; 0x80000000
 80022a4:	eb10 70d3 	adds.w	r0, r0, r3, lsr #31
 80022a8:	fa21 f604 	lsr.w	r6, r1, r4
 80022ac:	eb42 0106 	adc.w	r1, r2, r6
 80022b0:	ea5e 0e43 	orrs.w	lr, lr, r3, lsl #1
 80022b4:	bf08      	it	eq
 80022b6:	ea20 70d3 	biceq.w	r0, r0, r3, lsr #31
 80022ba:	bd70      	pop	{r4, r5, r6, pc}
 80022bc:	f1c4 040c 	rsb	r4, r4, #12
 80022c0:	f1c4 0520 	rsb	r5, r4, #32
 80022c4:	fa00 f304 	lsl.w	r3, r0, r4
 80022c8:	fa20 f005 	lsr.w	r0, r0, r5
 80022cc:	fa01 f204 	lsl.w	r2, r1, r4
 80022d0:	ea40 0002 	orr.w	r0, r0, r2
 80022d4:	f001 4100 	and.w	r1, r1, #2147483648	; 0x80000000
 80022d8:	eb10 70d3 	adds.w	r0, r0, r3, lsr #31
 80022dc:	f141 0100 	adc.w	r1, r1, #0
 80022e0:	ea5e 0e43 	orrs.w	lr, lr, r3, lsl #1
 80022e4:	bf08      	it	eq
 80022e6:	ea20 70d3 	biceq.w	r0, r0, r3, lsr #31
 80022ea:	bd70      	pop	{r4, r5, r6, pc}
 80022ec:	f1c4 0520 	rsb	r5, r4, #32
 80022f0:	fa00 f205 	lsl.w	r2, r0, r5
 80022f4:	ea4e 0e02 	orr.w	lr, lr, r2
 80022f8:	fa20 f304 	lsr.w	r3, r0, r4
 80022fc:	fa01 f205 	lsl.w	r2, r1, r5
 8002300:	ea43 0302 	orr.w	r3, r3, r2
 8002304:	fa21 f004 	lsr.w	r0, r1, r4
 8002308:	f001 4100 	and.w	r1, r1, #2147483648	; 0x80000000
 800230c:	fa21 f204 	lsr.w	r2, r1, r4
 8002310:	ea20 0002 	bic.w	r0, r0, r2
 8002314:	eb00 70d3 	add.w	r0, r0, r3, lsr #31
 8002318:	ea5e 0e43 	orrs.w	lr, lr, r3, lsl #1
 800231c:	bf08      	it	eq
 800231e:	ea20 70d3 	biceq.w	r0, r0, r3, lsr #31
 8002322:	bd70      	pop	{r4, r5, r6, pc}
 8002324:	f094 0f00 	teq	r4, #0
 8002328:	d10f      	bne.n	800234a <__aeabi_dmul+0x1c2>
 800232a:	f001 4600 	and.w	r6, r1, #2147483648	; 0x80000000
 800232e:	0040      	lsls	r0, r0, #1
 8002330:	eb41 0101 	adc.w	r1, r1, r1
 8002334:	f411 1f80 	tst.w	r1, #1048576	; 0x100000
 8002338:	bf08      	it	eq
 800233a:	3c01      	subeq	r4, #1
 800233c:	d0f7      	beq.n	800232e <__aeabi_dmul+0x1a6>
 800233e:	ea41 0106 	orr.w	r1, r1, r6
 8002342:	f095 0f00 	teq	r5, #0
 8002346:	bf18      	it	ne
 8002348:	4770      	bxne	lr
 800234a:	f003 4600 	and.w	r6, r3, #2147483648	; 0x80000000
 800234e:	0052      	lsls	r2, r2, #1
 8002350:	eb43 0303 	adc.w	r3, r3, r3
 8002354:	f413 1f80 	tst.w	r3, #1048576	; 0x100000
 8002358:	bf08      	it	eq
 800235a:	3d01      	subeq	r5, #1
 800235c:	d0f7      	beq.n	800234e <__aeabi_dmul+0x1c6>
 800235e:	ea43 0306 	orr.w	r3, r3, r6
 8002362:	4770      	bx	lr
 8002364:	ea94 0f0c 	teq	r4, ip
 8002368:	ea0c 5513 	and.w	r5, ip, r3, lsr #20
 800236c:	bf18      	it	ne
 800236e:	ea95 0f0c 	teqne	r5, ip
 8002372:	d00c      	beq.n	800238e <__aeabi_dmul+0x206>
 8002374:	ea50 0641 	orrs.w	r6, r0, r1, lsl #1
 8002378:	bf18      	it	ne
 800237a:	ea52 0643 	orrsne.w	r6, r2, r3, lsl #1
 800237e:	d1d1      	bne.n	8002324 <__aeabi_dmul+0x19c>
 8002380:	ea81 0103 	eor.w	r1, r1, r3
 8002384:	f001 4100 	and.w	r1, r1, #2147483648	; 0x80000000
 8002388:	f04f 0000 	mov.w	r0, #0
 800238c:	bd70      	pop	{r4, r5, r6, pc}
 800238e:	ea50 0641 	orrs.w	r6, r0, r1, lsl #1
 8002392:	bf06      	itte	eq
 8002394:	4610      	moveq	r0, r2
 8002396:	4619      	moveq	r1, r3
 8002398:	ea52 0643 	orrsne.w	r6, r2, r3, lsl #1
 800239c:	d019      	beq.n	80023d2 <__aeabi_dmul+0x24a>
 800239e:	ea94 0f0c 	teq	r4, ip
 80023a2:	d102      	bne.n	80023aa <__aeabi_dmul+0x222>
 80023a4:	ea50 3601 	orrs.w	r6, r0, r1, lsl #12
 80023a8:	d113      	bne.n	80023d2 <__aeabi_dmul+0x24a>
 80023aa:	ea95 0f0c 	teq	r5, ip
 80023ae:	d105      	bne.n	80023bc <__aeabi_dmul+0x234>
 80023b0:	ea52 3603 	orrs.w	r6, r2, r3, lsl #12
 80023b4:	bf1c      	itt	ne
 80023b6:	4610      	movne	r0, r2
 80023b8:	4619      	movne	r1, r3
 80023ba:	d10a      	bne.n	80023d2 <__aeabi_dmul+0x24a>
 80023bc:	ea81 0103 	eor.w	r1, r1, r3
 80023c0:	f001 4100 	and.w	r1, r1, #2147483648	; 0x80000000
 80023c4:	f041 41fe 	orr.w	r1, r1, #2130706432	; 0x7f000000
 80023c8:	f441 0170 	orr.w	r1, r1, #15728640	; 0xf00000
 80023cc:	f04f 0000 	mov.w	r0, #0
 80023d0:	bd70      	pop	{r4, r5, r6, pc}
 80023d2:	f041 41fe 	orr.w	r1, r1, #2130706432	; 0x7f000000
 80023d6:	f441 0178 	orr.w	r1, r1, #16252928	; 0xf80000
 80023da:	bd70      	pop	{r4, r5, r6, pc}

080023dc <__aeabi_ddiv>:
 80023dc:	b570      	push	{r4, r5, r6, lr}
 80023de:	f04f 0cff 	mov.w	ip, #255	; 0xff
 80023e2:	f44c 6ce0 	orr.w	ip, ip, #1792	; 0x700
 80023e6:	ea1c 5411 	ands.w	r4, ip, r1, lsr #20
 80023ea:	bf1d      	ittte	ne
 80023ec:	ea1c 5513 	andsne.w	r5, ip, r3, lsr #20
 80023f0:	ea94 0f0c 	teqne	r4, ip
 80023f4:	ea95 0f0c 	teqne	r5, ip
 80023f8:	f000 f8a7 	bleq	800254a <__aeabi_ddiv+0x16e>
 80023fc:	eba4 0405 	sub.w	r4, r4, r5
 8002400:	ea81 0e03 	eor.w	lr, r1, r3
 8002404:	ea52 3503 	orrs.w	r5, r2, r3, lsl #12
 8002408:	ea4f 3101 	mov.w	r1, r1, lsl #12
 800240c:	f000 8088 	beq.w	8002520 <__aeabi_ddiv+0x144>
 8002410:	ea4f 3303 	mov.w	r3, r3, lsl #12
 8002414:	f04f 5580 	mov.w	r5, #268435456	; 0x10000000
 8002418:	ea45 1313 	orr.w	r3, r5, r3, lsr #4
 800241c:	ea43 6312 	orr.w	r3, r3, r2, lsr #24
 8002420:	ea4f 2202 	mov.w	r2, r2, lsl #8
 8002424:	ea45 1511 	orr.w	r5, r5, r1, lsr #4
 8002428:	ea45 6510 	orr.w	r5, r5, r0, lsr #24
 800242c:	ea4f 2600 	mov.w	r6, r0, lsl #8
 8002430:	f00e 4100 	and.w	r1, lr, #2147483648	; 0x80000000
 8002434:	429d      	cmp	r5, r3
 8002436:	bf08      	it	eq
 8002438:	4296      	cmpeq	r6, r2
 800243a:	f144 04fd 	adc.w	r4, r4, #253	; 0xfd
 800243e:	f504 7440 	add.w	r4, r4, #768	; 0x300
 8002442:	d202      	bcs.n	800244a <__aeabi_ddiv+0x6e>
 8002444:	085b      	lsrs	r3, r3, #1
 8002446:	ea4f 0232 	mov.w	r2, r2, rrx
 800244a:	1ab6      	subs	r6, r6, r2
 800244c:	eb65 0503 	sbc.w	r5, r5, r3
 8002450:	085b      	lsrs	r3, r3, #1
 8002452:	ea4f 0232 	mov.w	r2, r2, rrx
 8002456:	f44f 1080 	mov.w	r0, #1048576	; 0x100000
 800245a:	f44f 2c00 	mov.w	ip, #524288	; 0x80000
 800245e:	ebb6 0e02 	subs.w	lr, r6, r2
 8002462:	eb75 0e03 	sbcs.w	lr, r5, r3
 8002466:	bf22      	ittt	cs
 8002468:	1ab6      	subcs	r6, r6, r2
 800246a:	4675      	movcs	r5, lr
 800246c:	ea40 000c 	orrcs.w	r0, r0, ip
 8002470:	085b      	lsrs	r3, r3, #1
 8002472:	ea4f 0232 	mov.w	r2, r2, rrx
 8002476:	ebb6 0e02 	subs.w	lr, r6, r2
 800247a:	eb75 0e03 	sbcs.w	lr, r5, r3
 800247e:	bf22      	ittt	cs
 8002480:	1ab6      	subcs	r6, r6, r2
 8002482:	4675      	movcs	r5, lr
 8002484:	ea40 005c 	orrcs.w	r0, r0, ip, lsr #1
 8002488:	085b      	lsrs	r3, r3, #1
 800248a:	ea4f 0232 	mov.w	r2, r2, rrx
 800248e:	ebb6 0e02 	subs.w	lr, r6, r2
 8002492:	eb75 0e03 	sbcs.w	lr, r5, r3
 8002496:	bf22      	ittt	cs
 8002498:	1ab6      	subcs	r6, r6, r2
 800249a:	4675      	movcs	r5, lr
 800249c:	ea40 009c 	orrcs.w	r0, r0, ip, lsr #2
 80024a0:	085b      	lsrs	r3, r3, #1
 80024a2:	ea4f 0232 	mov.w	r2, r2, rrx
 80024a6:	ebb6 0e02 	subs.w	lr, r6, r2
 80024aa:	eb75 0e03 	sbcs.w	lr, r5, r3
 80024ae:	bf22      	ittt	cs
 80024b0:	1ab6      	subcs	r6, r6, r2
 80024b2:	4675      	movcs	r5, lr
 80024b4:	ea40 00dc 	orrcs.w	r0, r0, ip, lsr #3
 80024b8:	ea55 0e06 	orrs.w	lr, r5, r6
 80024bc:	d018      	beq.n	80024f0 <__aeabi_ddiv+0x114>
 80024be:	ea4f 1505 	mov.w	r5, r5, lsl #4
 80024c2:	ea45 7516 	orr.w	r5, r5, r6, lsr #28
 80024c6:	ea4f 1606 	mov.w	r6, r6, lsl #4
 80024ca:	ea4f 03c3 	mov.w	r3, r3, lsl #3
 80024ce:	ea43 7352 	orr.w	r3, r3, r2, lsr #29
 80024d2:	ea4f 02c2 	mov.w	r2, r2, lsl #3
 80024d6:	ea5f 1c1c 	movs.w	ip, ip, lsr #4
 80024da:	d1c0      	bne.n	800245e <__aeabi_ddiv+0x82>
 80024dc:	f411 1f80 	tst.w	r1, #1048576	; 0x100000
 80024e0:	d10b      	bne.n	80024fa <__aeabi_ddiv+0x11e>
 80024e2:	ea41 0100 	orr.w	r1, r1, r0
 80024e6:	f04f 0000 	mov.w	r0, #0
 80024ea:	f04f 4c00 	mov.w	ip, #2147483648	; 0x80000000
 80024ee:	e7b6      	b.n	800245e <__aeabi_ddiv+0x82>
 80024f0:	f411 1f80 	tst.w	r1, #1048576	; 0x100000
 80024f4:	bf04      	itt	eq
 80024f6:	4301      	orreq	r1, r0
 80024f8:	2000      	moveq	r0, #0
 80024fa:	f1b4 0cfd 	subs.w	ip, r4, #253	; 0xfd
 80024fe:	bf88      	it	hi
 8002500:	f5bc 6fe0 	cmphi.w	ip, #1792	; 0x700
 8002504:	f63f aeaf 	bhi.w	8002266 <__aeabi_dmul+0xde>
 8002508:	ebb5 0c03 	subs.w	ip, r5, r3
 800250c:	bf04      	itt	eq
 800250e:	ebb6 0c02 	subseq.w	ip, r6, r2
 8002512:	ea5f 0c50 	movseq.w	ip, r0, lsr #1
 8002516:	f150 0000 	adcs.w	r0, r0, #0
 800251a:	eb41 5104 	adc.w	r1, r1, r4, lsl #20
 800251e:	bd70      	pop	{r4, r5, r6, pc}
 8002520:	f00e 4e00 	and.w	lr, lr, #2147483648	; 0x80000000
 8002524:	ea4e 3111 	orr.w	r1, lr, r1, lsr #12
 8002528:	eb14 045c 	adds.w	r4, r4, ip, lsr #1
 800252c:	bfc2      	ittt	gt
 800252e:	ebd4 050c 	rsbsgt	r5, r4, ip
 8002532:	ea41 5104 	orrgt.w	r1, r1, r4, lsl #20
 8002536:	bd70      	popgt	{r4, r5, r6, pc}
 8002538:	f441 1180 	orr.w	r1, r1, #1048576	; 0x100000
 800253c:	f04f 0e00 	mov.w	lr, #0
 8002540:	3c01      	subs	r4, #1
 8002542:	e690      	b.n	8002266 <__aeabi_dmul+0xde>
 8002544:	ea45 0e06 	orr.w	lr, r5, r6
 8002548:	e68d      	b.n	8002266 <__aeabi_dmul+0xde>
 800254a:	ea0c 5513 	and.w	r5, ip, r3, lsr #20
 800254e:	ea94 0f0c 	teq	r4, ip
 8002552:	bf08      	it	eq
 8002554:	ea95 0f0c 	teqeq	r5, ip
 8002558:	f43f af3b 	beq.w	80023d2 <__aeabi_dmul+0x24a>
 800255c:	ea94 0f0c 	teq	r4, ip
 8002560:	d10a      	bne.n	8002578 <__aeabi_ddiv+0x19c>
 8002562:	ea50 3401 	orrs.w	r4, r0, r1, lsl #12
 8002566:	f47f af34 	bne.w	80023d2 <__aeabi_dmul+0x24a>
 800256a:	ea95 0f0c 	teq	r5, ip
 800256e:	f47f af25 	bne.w	80023bc <__aeabi_dmul+0x234>
 8002572:	4610      	mov	r0, r2
 8002574:	4619      	mov	r1, r3
 8002576:	e72c      	b.n	80023d2 <__aeabi_dmul+0x24a>
 8002578:	ea95 0f0c 	teq	r5, ip
 800257c:	d106      	bne.n	800258c <__aeabi_ddiv+0x1b0>
 800257e:	ea52 3503 	orrs.w	r5, r2, r3, lsl #12
 8002582:	f43f aefd 	beq.w	8002380 <__aeabi_dmul+0x1f8>
 8002586:	4610      	mov	r0, r2
 8002588:	4619      	mov	r1, r3
 800258a:	e722      	b.n	80023d2 <__aeabi_dmul+0x24a>
 800258c:	ea50 0641 	orrs.w	r6, r0, r1, lsl #1
 8002590:	bf18      	it	ne
 8002592:	ea52 0643 	orrsne.w	r6, r2, r3, lsl #1
 8002596:	f47f aec5 	bne.w	8002324 <__aeabi_dmul+0x19c>
 800259a:	ea50 0441 	orrs.w	r4, r0, r1, lsl #1
 800259e:	f47f af0d 	bne.w	80023bc <__aeabi_dmul+0x234>
 80025a2:	ea52 0543 	orrs.w	r5, r2, r3, lsl #1
 80025a6:	f47f aeeb 	bne.w	8002380 <__aeabi_dmul+0x1f8>
 80025aa:	e712      	b.n	80023d2 <__aeabi_dmul+0x24a>

080025ac <__gedf2>:
 80025ac:	f04f 3cff 	mov.w	ip, #4294967295
 80025b0:	e006      	b.n	80025c0 <__cmpdf2+0x4>
 80025b2:	bf00      	nop

080025b4 <__ledf2>:
 80025b4:	f04f 0c01 	mov.w	ip, #1
 80025b8:	e002      	b.n	80025c0 <__cmpdf2+0x4>
 80025ba:	bf00      	nop

080025bc <__cmpdf2>:
 80025bc:	f04f 0c01 	mov.w	ip, #1
 80025c0:	f84d cd04 	str.w	ip, [sp, #-4]!
 80025c4:	ea4f 0c41 	mov.w	ip, r1, lsl #1
 80025c8:	ea7f 5c6c 	mvns.w	ip, ip, asr #21
 80025cc:	ea4f 0c43 	mov.w	ip, r3, lsl #1
 80025d0:	bf18      	it	ne
 80025d2:	ea7f 5c6c 	mvnsne.w	ip, ip, asr #21
 80025d6:	d01b      	beq.n	8002610 <__cmpdf2+0x54>
 80025d8:	b001      	add	sp, #4
 80025da:	ea50 0c41 	orrs.w	ip, r0, r1, lsl #1
 80025de:	bf0c      	ite	eq
 80025e0:	ea52 0c43 	orrseq.w	ip, r2, r3, lsl #1
 80025e4:	ea91 0f03 	teqne	r1, r3
 80025e8:	bf02      	ittt	eq
 80025ea:	ea90 0f02 	teqeq	r0, r2
 80025ee:	2000      	moveq	r0, #0
 80025f0:	4770      	bxeq	lr
 80025f2:	f110 0f00 	cmn.w	r0, #0
 80025f6:	ea91 0f03 	teq	r1, r3
 80025fa:	bf58      	it	pl
 80025fc:	4299      	cmppl	r1, r3
 80025fe:	bf08      	it	eq
 8002600:	4290      	cmpeq	r0, r2
 8002602:	bf2c      	ite	cs
 8002604:	17d8      	asrcs	r0, r3, #31
 8002606:	ea6f 70e3 	mvncc.w	r0, r3, asr #31
 800260a:	f040 0001 	orr.w	r0, r0, #1
 800260e:	4770      	bx	lr
 8002610:	ea4f 0c41 	mov.w	ip, r1, lsl #1
 8002614:	ea7f 5c6c 	mvns.w	ip, ip, asr #21
 8002618:	d102      	bne.n	8002620 <__cmpdf2+0x64>
 800261a:	ea50 3c01 	orrs.w	ip, r0, r1, lsl #12
 800261e:	d107      	bne.n	8002630 <__cmpdf2+0x74>
 8002620:	ea4f 0c43 	mov.w	ip, r3, lsl #1
 8002624:	ea7f 5c6c 	mvns.w	ip, ip, asr #21
 8002628:	d1d6      	bne.n	80025d8 <__cmpdf2+0x1c>
 800262a:	ea52 3c03 	orrs.w	ip, r2, r3, lsl #12
 800262e:	d0d3      	beq.n	80025d8 <__cmpdf2+0x1c>
 8002630:	f85d 0b04 	ldr.w	r0, [sp], #4
 8002634:	4770      	bx	lr
 8002636:	bf00      	nop

08002638 <__aeabi_cdrcmple>:
 8002638:	4684      	mov	ip, r0
 800263a:	4610      	mov	r0, r2
 800263c:	4662      	mov	r2, ip
 800263e:	468c      	mov	ip, r1
 8002640:	4619      	mov	r1, r3
 8002642:	4663      	mov	r3, ip
 8002644:	e000      	b.n	8002648 <__aeabi_cdcmpeq>
 8002646:	bf00      	nop

08002648 <__aeabi_cdcmpeq>:
 8002648:	b501      	push	{r0, lr}
 800264a:	f7ff ffb7 	bl	80025bc <__cmpdf2>
 800264e:	2800      	cmp	r0, #0
 8002650:	bf48      	it	mi
 8002652:	f110 0f00 	cmnmi.w	r0, #0
 8002656:	bd01      	pop	{r0, pc}

08002658 <__aeabi_dcmpeq>:
 8002658:	f84d ed08 	str.w	lr, [sp, #-8]!
 800265c:	f7ff fff4 	bl	8002648 <__aeabi_cdcmpeq>
 8002660:	bf0c      	ite	eq
 8002662:	2001      	moveq	r0, #1
 8002664:	2000      	movne	r0, #0
 8002666:	f85d fb08 	ldr.w	pc, [sp], #8
 800266a:	bf00      	nop

0800266c <__aeabi_dcmplt>:
 800266c:	f84d ed08 	str.w	lr, [sp, #-8]!
 8002670:	f7ff ffea 	bl	8002648 <__aeabi_cdcmpeq>
 8002674:	bf34      	ite	cc
 8002676:	2001      	movcc	r0, #1
 8002678:	2000      	movcs	r0, #0
 800267a:	f85d fb08 	ldr.w	pc, [sp], #8
 800267e:	bf00      	nop

08002680 <__aeabi_dcmple>:
 8002680:	f84d ed08 	str.w	lr, [sp, #-8]!
 8002684:	f7ff ffe0 	bl	8002648 <__aeabi_cdcmpeq>
 8002688:	bf94      	ite	ls
 800268a:	2001      	movls	r0, #1
 800268c:	2000      	movhi	r0, #0
 800268e:	f85d fb08 	ldr.w	pc, [sp], #8
 8002692:	bf00      	nop

08002694 <__aeabi_dcmpge>:
 8002694:	f84d ed08 	str.w	lr, [sp, #-8]!
 8002698:	f7ff ffce 	bl	8002638 <__aeabi_cdrcmple>
 800269c:	bf94      	ite	ls
 800269e:	2001      	movls	r0, #1
 80026a0:	2000      	movhi	r0, #0
 80026a2:	f85d fb08 	ldr.w	pc, [sp], #8
 80026a6:	bf00      	nop

080026a8 <__aeabi_dcmpgt>:
 80026a8:	f84d ed08 	str.w	lr, [sp, #-8]!
 80026ac:	f7ff ffc4 	bl	8002638 <__aeabi_cdrcmple>
 80026b0:	bf34      	ite	cc
 80026b2:	2001      	movcc	r0, #1
 80026b4:	2000      	movcs	r0, #0
 80026b6:	f85d fb08 	ldr.w	pc, [sp], #8
 80026ba:	bf00      	nop

080026bc <__aeabi_d2iz>:
 80026bc:	ea4f 0241 	mov.w	r2, r1, lsl #1
 80026c0:	f512 1200 	adds.w	r2, r2, #2097152	; 0x200000
 80026c4:	d215      	bcs.n	80026f2 <__aeabi_d2iz+0x36>
 80026c6:	d511      	bpl.n	80026ec <__aeabi_d2iz+0x30>
 80026c8:	f46f 7378 	mvn.w	r3, #992	; 0x3e0
 80026cc:	ebb3 5262 	subs.w	r2, r3, r2, asr #21
 80026d0:	d912      	bls.n	80026f8 <__aeabi_d2iz+0x3c>
 80026d2:	ea4f 23c1 	mov.w	r3, r1, lsl #11
 80026d6:	f043 4300 	orr.w	r3, r3, #2147483648	; 0x80000000
 80026da:	ea43 5350 	orr.w	r3, r3, r0, lsr #21
 80026de:	f011 4f00 	tst.w	r1, #2147483648	; 0x80000000
 80026e2:	fa23 f002 	lsr.w	r0, r3, r2
 80026e6:	bf18      	it	ne
 80026e8:	4240      	negne	r0, r0
 80026ea:	4770      	bx	lr
 80026ec:	f04f 0000 	mov.w	r0, #0
 80026f0:	4770      	bx	lr
 80026f2:	ea50 3001 	orrs.w	r0, r0, r1, lsl #12
 80026f6:	d105      	bne.n	8002704 <__aeabi_d2iz+0x48>
 80026f8:	f011 4000 	ands.w	r0, r1, #2147483648	; 0x80000000
 80026fc:	bf08      	it	eq
 80026fe:	f06f 4000 	mvneq.w	r0, #2147483648	; 0x80000000
 8002702:	4770      	bx	lr
 8002704:	f04f 0000 	mov.w	r0, #0
 8002708:	4770      	bx	lr
 800270a:	bf00      	nop

0800270c <__aeabi_d2f>:
 800270c:	ea4f 0241 	mov.w	r2, r1, lsl #1
 8002710:	f1b2 43e0 	subs.w	r3, r2, #1879048192	; 0x70000000
 8002714:	bf24      	itt	cs
 8002716:	f5b3 1c00 	subscs.w	ip, r3, #2097152	; 0x200000
 800271a:	f1dc 5cfe 	rsbscs	ip, ip, #532676608	; 0x1fc00000
 800271e:	d90d      	bls.n	800273c <__aeabi_d2f+0x30>
 8002720:	f001 4c00 	and.w	ip, r1, #2147483648	; 0x80000000
 8002724:	ea4f 02c0 	mov.w	r2, r0, lsl #3
 8002728:	ea4c 7050 	orr.w	r0, ip, r0, lsr #29
 800272c:	f1b2 4f00 	cmp.w	r2, #2147483648	; 0x80000000
 8002730:	eb40 0083 	adc.w	r0, r0, r3, lsl #2
 8002734:	bf08      	it	eq
 8002736:	f020 0001 	biceq.w	r0, r0, #1
 800273a:	4770      	bx	lr
 800273c:	f011 4f80 	tst.w	r1, #1073741824	; 0x40000000
 8002740:	d121      	bne.n	8002786 <__aeabi_d2f+0x7a>
 8002742:	f113 7238 	adds.w	r2, r3, #48234496	; 0x2e00000
 8002746:	bfbc      	itt	lt
 8002748:	f001 4000 	andlt.w	r0, r1, #2147483648	; 0x80000000
 800274c:	4770      	bxlt	lr
 800274e:	f441 1180 	orr.w	r1, r1, #1048576	; 0x100000
 8002752:	ea4f 5252 	mov.w	r2, r2, lsr #21
 8002756:	f1c2 0218 	rsb	r2, r2, #24
 800275a:	f1c2 0c20 	rsb	ip, r2, #32
 800275e:	fa10 f30c 	lsls.w	r3, r0, ip
 8002762:	fa20 f002 	lsr.w	r0, r0, r2
 8002766:	bf18      	it	ne
 8002768:	f040 0001 	orrne.w	r0, r0, #1
 800276c:	ea4f 23c1 	mov.w	r3, r1, lsl #11
 8002770:	ea4f 23d3 	mov.w	r3, r3, lsr #11
 8002774:	fa03 fc0c 	lsl.w	ip, r3, ip
 8002778:	ea40 000c 	orr.w	r0, r0, ip
 800277c:	fa23 f302 	lsr.w	r3, r3, r2
 8002780:	ea4f 0343 	mov.w	r3, r3, lsl #1
 8002784:	e7cc      	b.n	8002720 <__aeabi_d2f+0x14>
 8002786:	ea7f 5362 	mvns.w	r3, r2, asr #21
 800278a:	d107      	bne.n	800279c <__aeabi_d2f+0x90>
 800278c:	ea50 3301 	orrs.w	r3, r0, r1, lsl #12
 8002790:	bf1e      	ittt	ne
 8002792:	f04f 40fe 	movne.w	r0, #2130706432	; 0x7f000000
 8002796:	f440 0040 	orrne.w	r0, r0, #12582912	; 0xc00000
 800279a:	4770      	bxne	lr
 800279c:	f001 4000 	and.w	r0, r1, #2147483648	; 0x80000000
 80027a0:	f040 40fe 	orr.w	r0, r0, #2130706432	; 0x7f000000
 80027a4:	f440 0000 	orr.w	r0, r0, #8388608	; 0x800000
 80027a8:	4770      	bx	lr
 80027aa:	bf00      	nop

080027ac <__aeabi_frsub>:
 80027ac:	f080 4000 	eor.w	r0, r0, #2147483648	; 0x80000000
 80027b0:	e002      	b.n	80027b8 <__addsf3>
 80027b2:	bf00      	nop

080027b4 <__aeabi_fsub>:
 80027b4:	f081 4100 	eor.w	r1, r1, #2147483648	; 0x80000000

080027b8 <__addsf3>:
 80027b8:	0042      	lsls	r2, r0, #1
 80027ba:	bf1f      	itttt	ne
 80027bc:	ea5f 0341 	movsne.w	r3, r1, lsl #1
 80027c0:	ea92 0f03 	teqne	r2, r3
 80027c4:	ea7f 6c22 	mvnsne.w	ip, r2, asr #24
 80027c8:	ea7f 6c23 	mvnsne.w	ip, r3, asr #24
 80027cc:	d06a      	beq.n	80028a4 <__addsf3+0xec>
 80027ce:	ea4f 6212 	mov.w	r2, r2, lsr #24
 80027d2:	ebd2 6313 	rsbs	r3, r2, r3, lsr #24
 80027d6:	bfc1      	itttt	gt
 80027d8:	18d2      	addgt	r2, r2, r3
 80027da:	4041      	eorgt	r1, r0
 80027dc:	4048      	eorgt	r0, r1
 80027de:	4041      	eorgt	r1, r0
 80027e0:	bfb8      	it	lt
 80027e2:	425b      	neglt	r3, r3
 80027e4:	2b19      	cmp	r3, #25
 80027e6:	bf88      	it	hi
 80027e8:	4770      	bxhi	lr
 80027ea:	f010 4f00 	tst.w	r0, #2147483648	; 0x80000000
 80027ee:	f440 0000 	orr.w	r0, r0, #8388608	; 0x800000
 80027f2:	f020 407f 	bic.w	r0, r0, #4278190080	; 0xff000000
 80027f6:	bf18      	it	ne
 80027f8:	4240      	negne	r0, r0
 80027fa:	f011 4f00 	tst.w	r1, #2147483648	; 0x80000000
 80027fe:	f441 0100 	orr.w	r1, r1, #8388608	; 0x800000
 8002802:	f021 417f 	bic.w	r1, r1, #4278190080	; 0xff000000
 8002806:	bf18      	it	ne
 8002808:	4249      	negne	r1, r1
 800280a:	ea92 0f03 	teq	r2, r3
 800280e:	d03f      	beq.n	8002890 <__addsf3+0xd8>
 8002810:	f1a2 0201 	sub.w	r2, r2, #1
 8002814:	fa41 fc03 	asr.w	ip, r1, r3
 8002818:	eb10 000c 	adds.w	r0, r0, ip
 800281c:	f1c3 0320 	rsb	r3, r3, #32
 8002820:	fa01 f103 	lsl.w	r1, r1, r3
 8002824:	f000 4300 	and.w	r3, r0, #2147483648	; 0x80000000
 8002828:	d502      	bpl.n	8002830 <__addsf3+0x78>
 800282a:	4249      	negs	r1, r1
 800282c:	eb60 0040 	sbc.w	r0, r0, r0, lsl #1
 8002830:	f5b0 0f00 	cmp.w	r0, #8388608	; 0x800000
 8002834:	d313      	bcc.n	800285e <__addsf3+0xa6>
 8002836:	f1b0 7f80 	cmp.w	r0, #16777216	; 0x1000000
 800283a:	d306      	bcc.n	800284a <__addsf3+0x92>
 800283c:	0840      	lsrs	r0, r0, #1
 800283e:	ea4f 0131 	mov.w	r1, r1, rrx
 8002842:	f102 0201 	add.w	r2, r2, #1
 8002846:	2afe      	cmp	r2, #254	; 0xfe
 8002848:	d251      	bcs.n	80028ee <__addsf3+0x136>
 800284a:	f1b1 4f00 	cmp.w	r1, #2147483648	; 0x80000000
 800284e:	eb40 50c2 	adc.w	r0, r0, r2, lsl #23
 8002852:	bf08      	it	eq
 8002854:	f020 0001 	biceq.w	r0, r0, #1
 8002858:	ea40 0003 	orr.w	r0, r0, r3
 800285c:	4770      	bx	lr
 800285e:	0049      	lsls	r1, r1, #1
 8002860:	eb40 0000 	adc.w	r0, r0, r0
 8002864:	f410 0f00 	tst.w	r0, #8388608	; 0x800000
 8002868:	f1a2 0201 	sub.w	r2, r2, #1
 800286c:	d1ed      	bne.n	800284a <__addsf3+0x92>
 800286e:	fab0 fc80 	clz	ip, r0
 8002872:	f1ac 0c08 	sub.w	ip, ip, #8
 8002876:	ebb2 020c 	subs.w	r2, r2, ip
 800287a:	fa00 f00c 	lsl.w	r0, r0, ip
 800287e:	bfaa      	itet	ge
 8002880:	eb00 50c2 	addge.w	r0, r0, r2, lsl #23
 8002884:	4252      	neglt	r2, r2
 8002886:	4318      	orrge	r0, r3
 8002888:	bfbc      	itt	lt
 800288a:	40d0      	lsrlt	r0, r2
 800288c:	4318      	orrlt	r0, r3
 800288e:	4770      	bx	lr
 8002890:	f092 0f00 	teq	r2, #0
 8002894:	f481 0100 	eor.w	r1, r1, #8388608	; 0x800000
 8002898:	bf06      	itte	eq
 800289a:	f480 0000 	eoreq.w	r0, r0, #8388608	; 0x800000
 800289e:	3201      	addeq	r2, #1
 80028a0:	3b01      	subne	r3, #1
 80028a2:	e7b5      	b.n	8002810 <__addsf3+0x58>
 80028a4:	ea4f 0341 	mov.w	r3, r1, lsl #1
 80028a8:	ea7f 6c22 	mvns.w	ip, r2, asr #24
 80028ac:	bf18      	it	ne
 80028ae:	ea7f 6c23 	mvnsne.w	ip, r3, asr #24
 80028b2:	d021      	beq.n	80028f8 <__addsf3+0x140>
 80028b4:	ea92 0f03 	teq	r2, r3
 80028b8:	d004      	beq.n	80028c4 <__addsf3+0x10c>
 80028ba:	f092 0f00 	teq	r2, #0
 80028be:	bf08      	it	eq
 80028c0:	4608      	moveq	r0, r1
 80028c2:	4770      	bx	lr
 80028c4:	ea90 0f01 	teq	r0, r1
 80028c8:	bf1c      	itt	ne
 80028ca:	2000      	movne	r0, #0
 80028cc:	4770      	bxne	lr
 80028ce:	f012 4f7f 	tst.w	r2, #4278190080	; 0xff000000
 80028d2:	d104      	bne.n	80028de <__addsf3+0x126>
 80028d4:	0040      	lsls	r0, r0, #1
 80028d6:	bf28      	it	cs
 80028d8:	f040 4000 	orrcs.w	r0, r0, #2147483648	; 0x80000000
 80028dc:	4770      	bx	lr
 80028de:	f112 7200 	adds.w	r2, r2, #33554432	; 0x2000000
 80028e2:	bf3c      	itt	cc
 80028e4:	f500 0000 	addcc.w	r0, r0, #8388608	; 0x800000
 80028e8:	4770      	bxcc	lr
 80028ea:	f000 4300 	and.w	r3, r0, #2147483648	; 0x80000000
 80028ee:	f043 40fe 	orr.w	r0, r3, #2130706432	; 0x7f000000
 80028f2:	f440 0000 	orr.w	r0, r0, #8388608	; 0x800000
 80028f6:	4770      	bx	lr
 80028f8:	ea7f 6222 	mvns.w	r2, r2, asr #24
 80028fc:	bf16      	itet	ne
 80028fe:	4608      	movne	r0, r1
 8002900:	ea7f 6323 	mvnseq.w	r3, r3, asr #24
 8002904:	4601      	movne	r1, r0
 8002906:	0242      	lsls	r2, r0, #9
 8002908:	bf06      	itte	eq
 800290a:	ea5f 2341 	movseq.w	r3, r1, lsl #9
 800290e:	ea90 0f01 	teqeq	r0, r1
 8002912:	f440 0080 	orrne.w	r0, r0, #4194304	; 0x400000
 8002916:	4770      	bx	lr

08002918 <__aeabi_ui2f>:
 8002918:	f04f 0300 	mov.w	r3, #0
 800291c:	e004      	b.n	8002928 <__aeabi_i2f+0x8>
 800291e:	bf00      	nop

08002920 <__aeabi_i2f>:
 8002920:	f010 4300 	ands.w	r3, r0, #2147483648	; 0x80000000
 8002924:	bf48      	it	mi
 8002926:	4240      	negmi	r0, r0
 8002928:	ea5f 0c00 	movs.w	ip, r0
 800292c:	bf08      	it	eq
 800292e:	4770      	bxeq	lr
 8002930:	f043 4396 	orr.w	r3, r3, #1258291200	; 0x4b000000
 8002934:	4601      	mov	r1, r0
 8002936:	f04f 0000 	mov.w	r0, #0
 800293a:	e01c      	b.n	8002976 <__aeabi_l2f+0x2a>

0800293c <__aeabi_ul2f>:
 800293c:	ea50 0201 	orrs.w	r2, r0, r1
 8002940:	bf08      	it	eq
 8002942:	4770      	bxeq	lr
 8002944:	f04f 0300 	mov.w	r3, #0
 8002948:	e00a      	b.n	8002960 <__aeabi_l2f+0x14>
 800294a:	bf00      	nop

0800294c <__aeabi_l2f>:
 800294c:	ea50 0201 	orrs.w	r2, r0, r1
 8002950:	bf08      	it	eq
 8002952:	4770      	bxeq	lr
 8002954:	f011 4300 	ands.w	r3, r1, #2147483648	; 0x80000000
 8002958:	d502      	bpl.n	8002960 <__aeabi_l2f+0x14>
 800295a:	4240      	negs	r0, r0
 800295c:	eb61 0141 	sbc.w	r1, r1, r1, lsl #1
 8002960:	ea5f 0c01 	movs.w	ip, r1
 8002964:	bf02      	ittt	eq
 8002966:	4684      	moveq	ip, r0
 8002968:	4601      	moveq	r1, r0
 800296a:	2000      	moveq	r0, #0
 800296c:	f043 43b6 	orr.w	r3, r3, #1526726656	; 0x5b000000
 8002970:	bf08      	it	eq
 8002972:	f1a3 5380 	subeq.w	r3, r3, #268435456	; 0x10000000
 8002976:	f5a3 0300 	sub.w	r3, r3, #8388608	; 0x800000
 800297a:	fabc f28c 	clz	r2, ip
 800297e:	3a08      	subs	r2, #8
 8002980:	eba3 53c2 	sub.w	r3, r3, r2, lsl #23
 8002984:	db10      	blt.n	80029a8 <__aeabi_l2f+0x5c>
 8002986:	fa01 fc02 	lsl.w	ip, r1, r2
 800298a:	4463      	add	r3, ip
 800298c:	fa00 fc02 	lsl.w	ip, r0, r2
 8002990:	f1c2 0220 	rsb	r2, r2, #32
 8002994:	f1bc 4f00 	cmp.w	ip, #2147483648	; 0x80000000
 8002998:	fa20 f202 	lsr.w	r2, r0, r2
 800299c:	eb43 0002 	adc.w	r0, r3, r2
 80029a0:	bf08      	it	eq
 80029a2:	f020 0001 	biceq.w	r0, r0, #1
 80029a6:	4770      	bx	lr
 80029a8:	f102 0220 	add.w	r2, r2, #32
 80029ac:	fa01 fc02 	lsl.w	ip, r1, r2
 80029b0:	f1c2 0220 	rsb	r2, r2, #32
 80029b4:	ea50 004c 	orrs.w	r0, r0, ip, lsl #1
 80029b8:	fa21 f202 	lsr.w	r2, r1, r2
 80029bc:	eb43 0002 	adc.w	r0, r3, r2
 80029c0:	bf08      	it	eq
 80029c2:	ea20 70dc 	biceq.w	r0, r0, ip, lsr #31
 80029c6:	4770      	bx	lr

080029c8 <__aeabi_uldivmod>:
 80029c8:	b94b      	cbnz	r3, 80029de <__aeabi_uldivmod+0x16>
 80029ca:	b942      	cbnz	r2, 80029de <__aeabi_uldivmod+0x16>
 80029cc:	2900      	cmp	r1, #0
 80029ce:	bf08      	it	eq
 80029d0:	2800      	cmpeq	r0, #0
 80029d2:	d002      	beq.n	80029da <__aeabi_uldivmod+0x12>
 80029d4:	f04f 31ff 	mov.w	r1, #4294967295
 80029d8:	4608      	mov	r0, r1
 80029da:	f000 b837 	b.w	8002a4c <__aeabi_idiv0>
 80029de:	b082      	sub	sp, #8
 80029e0:	46ec      	mov	ip, sp
 80029e2:	e92d 5000 	stmdb	sp!, {ip, lr}
 80029e6:	f000 f81b 	bl	8002a20 <__gnu_uldivmod_helper>
 80029ea:	f8dd e004 	ldr.w	lr, [sp, #4]
 80029ee:	b002      	add	sp, #8
 80029f0:	bc0c      	pop	{r2, r3}
 80029f2:	4770      	bx	lr

080029f4 <__gnu_ldivmod_helper>:
 80029f4:	b5f8      	push	{r3, r4, r5, r6, r7, lr}
 80029f6:	4616      	mov	r6, r2
 80029f8:	4604      	mov	r4, r0
 80029fa:	460d      	mov	r5, r1
 80029fc:	461f      	mov	r7, r3
 80029fe:	f000 f827 	bl	8002a50 <__divdi3>
 8002a02:	fb06 f301 	mul.w	r3, r6, r1
 8002a06:	fb00 3707 	mla	r7, r0, r7, r3
 8002a0a:	fba6 2300 	umull	r2, r3, r6, r0
 8002a0e:	18fb      	adds	r3, r7, r3
 8002a10:	1aa2      	subs	r2, r4, r2
 8002a12:	eb65 0303 	sbc.w	r3, r5, r3
 8002a16:	9c06      	ldr	r4, [sp, #24]
 8002a18:	e9c4 2300 	strd	r2, r3, [r4]
 8002a1c:	bdf8      	pop	{r3, r4, r5, r6, r7, pc}
 8002a1e:	bf00      	nop

08002a20 <__gnu_uldivmod_helper>:
 8002a20:	b5f8      	push	{r3, r4, r5, r6, r7, lr}
 8002a22:	4616      	mov	r6, r2
 8002a24:	4604      	mov	r4, r0
 8002a26:	460d      	mov	r5, r1
 8002a28:	461f      	mov	r7, r3
 8002a2a:	f000 f96f 	bl	8002d0c <__udivdi3>
 8002a2e:	fb00 f707 	mul.w	r7, r0, r7
 8002a32:	fba0 2306 	umull	r2, r3, r0, r6
 8002a36:	fb06 7701 	mla	r7, r6, r1, r7
 8002a3a:	18fb      	adds	r3, r7, r3
 8002a3c:	1aa2      	subs	r2, r4, r2
 8002a3e:	eb65 0303 	sbc.w	r3, r5, r3
 8002a42:	9c06      	ldr	r4, [sp, #24]
 8002a44:	e9c4 2300 	strd	r2, r3, [r4]
 8002a48:	bdf8      	pop	{r3, r4, r5, r6, r7, pc}
 8002a4a:	bf00      	nop

08002a4c <__aeabi_idiv0>:
 8002a4c:	4770      	bx	lr
 8002a4e:	bf00      	nop

08002a50 <__divdi3>:
 8002a50:	2900      	cmp	r1, #0
 8002a52:	e92d 0ff0 	stmdb	sp!, {r4, r5, r6, r7, r8, r9, sl, fp}
 8002a56:	461d      	mov	r5, r3
 8002a58:	f2c0 809d 	blt.w	8002b96 <__divdi3+0x146>
 8002a5c:	2400      	movs	r4, #0
 8002a5e:	2d00      	cmp	r5, #0
 8002a60:	f2c0 8094 	blt.w	8002b8c <__divdi3+0x13c>
 8002a64:	4680      	mov	r8, r0
 8002a66:	460f      	mov	r7, r1
 8002a68:	4694      	mov	ip, r2
 8002a6a:	461e      	mov	r6, r3
 8002a6c:	bbe3      	cbnz	r3, 8002ae8 <__divdi3+0x98>
 8002a6e:	428a      	cmp	r2, r1
 8002a70:	d955      	bls.n	8002b1e <__divdi3+0xce>
 8002a72:	fab2 f782 	clz	r7, r2
 8002a76:	b147      	cbz	r7, 8002a8a <__divdi3+0x3a>
 8002a78:	f1c7 0520 	rsb	r5, r7, #32
 8002a7c:	fa20 f605 	lsr.w	r6, r0, r5
 8002a80:	fa01 f107 	lsl.w	r1, r1, r7
 8002a84:	40ba      	lsls	r2, r7
 8002a86:	4331      	orrs	r1, r6
 8002a88:	40b8      	lsls	r0, r7
 8002a8a:	0c17      	lsrs	r7, r2, #16
 8002a8c:	fbb1 f6f7 	udiv	r6, r1, r7
 8002a90:	0c03      	lsrs	r3, r0, #16
 8002a92:	fa1f fc82 	uxth.w	ip, r2
 8002a96:	fb07 1116 	mls	r1, r7, r6, r1
 8002a9a:	fb0c f506 	mul.w	r5, ip, r6
 8002a9e:	ea43 4301 	orr.w	r3, r3, r1, lsl #16
 8002aa2:	429d      	cmp	r5, r3
 8002aa4:	d908      	bls.n	8002ab8 <__divdi3+0x68>
 8002aa6:	1e71      	subs	r1, r6, #1
 8002aa8:	189b      	adds	r3, r3, r2
 8002aaa:	f080 8113 	bcs.w	8002cd4 <__divdi3+0x284>
 8002aae:	429d      	cmp	r5, r3
 8002ab0:	f240 8110 	bls.w	8002cd4 <__divdi3+0x284>
 8002ab4:	3e02      	subs	r6, #2
 8002ab6:	189b      	adds	r3, r3, r2
 8002ab8:	1b59      	subs	r1, r3, r5
 8002aba:	fbb1 f5f7 	udiv	r5, r1, r7
 8002abe:	fb07 1315 	mls	r3, r7, r5, r1
 8002ac2:	b280      	uxth	r0, r0
 8002ac4:	fb0c fc05 	mul.w	ip, ip, r5
 8002ac8:	ea40 4103 	orr.w	r1, r0, r3, lsl #16
 8002acc:	458c      	cmp	ip, r1
 8002ace:	d907      	bls.n	8002ae0 <__divdi3+0x90>
 8002ad0:	1e6b      	subs	r3, r5, #1
 8002ad2:	188a      	adds	r2, r1, r2
 8002ad4:	f080 8100 	bcs.w	8002cd8 <__divdi3+0x288>
 8002ad8:	4594      	cmp	ip, r2
 8002ada:	f240 80fd 	bls.w	8002cd8 <__divdi3+0x288>
 8002ade:	3d02      	subs	r5, #2
 8002ae0:	ea45 4106 	orr.w	r1, r5, r6, lsl #16
 8002ae4:	2500      	movs	r5, #0
 8002ae6:	e003      	b.n	8002af0 <__divdi3+0xa0>
 8002ae8:	428b      	cmp	r3, r1
 8002aea:	d90c      	bls.n	8002b06 <__divdi3+0xb6>
 8002aec:	2500      	movs	r5, #0
 8002aee:	4629      	mov	r1, r5
 8002af0:	460a      	mov	r2, r1
 8002af2:	462b      	mov	r3, r5
 8002af4:	b114      	cbz	r4, 8002afc <__divdi3+0xac>
 8002af6:	4252      	negs	r2, r2
 8002af8:	eb63 0343 	sbc.w	r3, r3, r3, lsl #1
 8002afc:	4610      	mov	r0, r2
 8002afe:	4619      	mov	r1, r3
 8002b00:	e8bd 0ff0 	ldmia.w	sp!, {r4, r5, r6, r7, r8, r9, sl, fp}
 8002b04:	4770      	bx	lr
 8002b06:	fab3 f583 	clz	r5, r3
 8002b0a:	2d00      	cmp	r5, #0
 8002b0c:	f040 8087 	bne.w	8002c1e <__divdi3+0x1ce>
 8002b10:	428b      	cmp	r3, r1
 8002b12:	d301      	bcc.n	8002b18 <__divdi3+0xc8>
 8002b14:	4282      	cmp	r2, r0
 8002b16:	d8ea      	bhi.n	8002aee <__divdi3+0x9e>
 8002b18:	2500      	movs	r5, #0
 8002b1a:	2101      	movs	r1, #1
 8002b1c:	e7e8      	b.n	8002af0 <__divdi3+0xa0>
 8002b1e:	b912      	cbnz	r2, 8002b26 <__divdi3+0xd6>
 8002b20:	2601      	movs	r6, #1
 8002b22:	fbb6 f2f2 	udiv	r2, r6, r2
 8002b26:	fab2 f682 	clz	r6, r2
 8002b2a:	2e00      	cmp	r6, #0
 8002b2c:	d139      	bne.n	8002ba2 <__divdi3+0x152>
 8002b2e:	1a8e      	subs	r6, r1, r2
 8002b30:	0c13      	lsrs	r3, r2, #16
 8002b32:	fa1f fc82 	uxth.w	ip, r2
 8002b36:	2501      	movs	r5, #1
 8002b38:	fbb6 f7f3 	udiv	r7, r6, r3
 8002b3c:	fb03 6117 	mls	r1, r3, r7, r6
 8002b40:	ea4f 4910 	mov.w	r9, r0, lsr #16
 8002b44:	fb0c f807 	mul.w	r8, ip, r7
 8002b48:	ea49 4601 	orr.w	r6, r9, r1, lsl #16
 8002b4c:	45b0      	cmp	r8, r6
 8002b4e:	d906      	bls.n	8002b5e <__divdi3+0x10e>
 8002b50:	1e79      	subs	r1, r7, #1
 8002b52:	18b6      	adds	r6, r6, r2
 8002b54:	d202      	bcs.n	8002b5c <__divdi3+0x10c>
 8002b56:	45b0      	cmp	r8, r6
 8002b58:	f200 80d3 	bhi.w	8002d02 <__divdi3+0x2b2>
 8002b5c:	460f      	mov	r7, r1
 8002b5e:	ebc8 0606 	rsb	r6, r8, r6
 8002b62:	fbb6 f1f3 	udiv	r1, r6, r3
 8002b66:	fb03 6311 	mls	r3, r3, r1, r6
 8002b6a:	b280      	uxth	r0, r0
 8002b6c:	fb0c fc01 	mul.w	ip, ip, r1
 8002b70:	ea40 4303 	orr.w	r3, r0, r3, lsl #16
 8002b74:	459c      	cmp	ip, r3
 8002b76:	d906      	bls.n	8002b86 <__divdi3+0x136>
 8002b78:	1e4e      	subs	r6, r1, #1
 8002b7a:	189a      	adds	r2, r3, r2
 8002b7c:	d202      	bcs.n	8002b84 <__divdi3+0x134>
 8002b7e:	4594      	cmp	ip, r2
 8002b80:	f200 80c2 	bhi.w	8002d08 <__divdi3+0x2b8>
 8002b84:	4631      	mov	r1, r6
 8002b86:	ea41 4107 	orr.w	r1, r1, r7, lsl #16
 8002b8a:	e7b1      	b.n	8002af0 <__divdi3+0xa0>
 8002b8c:	43e4      	mvns	r4, r4
 8002b8e:	4252      	negs	r2, r2
 8002b90:	eb63 0343 	sbc.w	r3, r3, r3, lsl #1
 8002b94:	e766      	b.n	8002a64 <__divdi3+0x14>
 8002b96:	4240      	negs	r0, r0
 8002b98:	eb61 0141 	sbc.w	r1, r1, r1, lsl #1
 8002b9c:	f04f 34ff 	mov.w	r4, #4294967295
 8002ba0:	e75d      	b.n	8002a5e <__divdi3+0xe>
 8002ba2:	40b2      	lsls	r2, r6
 8002ba4:	f1c6 0920 	rsb	r9, r6, #32
 8002ba8:	fa21 f709 	lsr.w	r7, r1, r9
 8002bac:	fa20 f509 	lsr.w	r5, r0, r9
 8002bb0:	0c13      	lsrs	r3, r2, #16
 8002bb2:	fa01 f106 	lsl.w	r1, r1, r6
 8002bb6:	fbb7 f8f3 	udiv	r8, r7, r3
 8002bba:	ea45 0901 	orr.w	r9, r5, r1
 8002bbe:	fa1f fc82 	uxth.w	ip, r2
 8002bc2:	fb03 7718 	mls	r7, r3, r8, r7
 8002bc6:	ea4f 4119 	mov.w	r1, r9, lsr #16
 8002bca:	fb0c f508 	mul.w	r5, ip, r8
 8002bce:	ea41 4707 	orr.w	r7, r1, r7, lsl #16
 8002bd2:	40b0      	lsls	r0, r6
 8002bd4:	42bd      	cmp	r5, r7
 8002bd6:	d90a      	bls.n	8002bee <__divdi3+0x19e>
 8002bd8:	18bf      	adds	r7, r7, r2
 8002bda:	f108 36ff 	add.w	r6, r8, #4294967295
 8002bde:	f080 808e 	bcs.w	8002cfe <__divdi3+0x2ae>
 8002be2:	42bd      	cmp	r5, r7
 8002be4:	f240 808b 	bls.w	8002cfe <__divdi3+0x2ae>
 8002be8:	f1a8 0802 	sub.w	r8, r8, #2
 8002bec:	18bf      	adds	r7, r7, r2
 8002bee:	1b79      	subs	r1, r7, r5
 8002bf0:	fbb1 f5f3 	udiv	r5, r1, r3
 8002bf4:	fb03 1715 	mls	r7, r3, r5, r1
 8002bf8:	fa1f f989 	uxth.w	r9, r9
 8002bfc:	fb0c f605 	mul.w	r6, ip, r5
 8002c00:	ea49 4107 	orr.w	r1, r9, r7, lsl #16
 8002c04:	428e      	cmp	r6, r1
 8002c06:	d906      	bls.n	8002c16 <__divdi3+0x1c6>
 8002c08:	1e6f      	subs	r7, r5, #1
 8002c0a:	1889      	adds	r1, r1, r2
 8002c0c:	d271      	bcs.n	8002cf2 <__divdi3+0x2a2>
 8002c0e:	428e      	cmp	r6, r1
 8002c10:	d96f      	bls.n	8002cf2 <__divdi3+0x2a2>
 8002c12:	3d02      	subs	r5, #2
 8002c14:	1889      	adds	r1, r1, r2
 8002c16:	1b8e      	subs	r6, r1, r6
 8002c18:	ea45 4508 	orr.w	r5, r5, r8, lsl #16
 8002c1c:	e78c      	b.n	8002b38 <__divdi3+0xe8>
 8002c1e:	f1c5 0120 	rsb	r1, r5, #32
 8002c22:	fa22 f301 	lsr.w	r3, r2, r1
 8002c26:	fa06 f605 	lsl.w	r6, r6, r5
 8002c2a:	431e      	orrs	r6, r3
 8002c2c:	fa27 f201 	lsr.w	r2, r7, r1
 8002c30:	ea4f 4916 	mov.w	r9, r6, lsr #16
 8002c34:	fa07 f705 	lsl.w	r7, r7, r5
 8002c38:	fa20 f101 	lsr.w	r1, r0, r1
 8002c3c:	fbb2 f8f9 	udiv	r8, r2, r9
 8002c40:	430f      	orrs	r7, r1
 8002c42:	0c3b      	lsrs	r3, r7, #16
 8002c44:	fa1f fa86 	uxth.w	sl, r6
 8002c48:	fb09 2218 	mls	r2, r9, r8, r2
 8002c4c:	fb0a fb08 	mul.w	fp, sl, r8
 8002c50:	ea43 4202 	orr.w	r2, r3, r2, lsl #16
 8002c54:	4593      	cmp	fp, r2
 8002c56:	fa0c fc05 	lsl.w	ip, ip, r5
 8002c5a:	d908      	bls.n	8002c6e <__divdi3+0x21e>
 8002c5c:	1992      	adds	r2, r2, r6
 8002c5e:	f108 31ff 	add.w	r1, r8, #4294967295
 8002c62:	d24a      	bcs.n	8002cfa <__divdi3+0x2aa>
 8002c64:	4593      	cmp	fp, r2
 8002c66:	d948      	bls.n	8002cfa <__divdi3+0x2aa>
 8002c68:	f1a8 0802 	sub.w	r8, r8, #2
 8002c6c:	1992      	adds	r2, r2, r6
 8002c6e:	ebcb 0302 	rsb	r3, fp, r2
 8002c72:	fbb3 f1f9 	udiv	r1, r3, r9
 8002c76:	fb09 3211 	mls	r2, r9, r1, r3
 8002c7a:	b2bf      	uxth	r7, r7
 8002c7c:	fb0a fa01 	mul.w	sl, sl, r1
 8002c80:	ea47 4302 	orr.w	r3, r7, r2, lsl #16
 8002c84:	459a      	cmp	sl, r3
 8002c86:	d906      	bls.n	8002c96 <__divdi3+0x246>
 8002c88:	1e4a      	subs	r2, r1, #1
 8002c8a:	199b      	adds	r3, r3, r6
 8002c8c:	d233      	bcs.n	8002cf6 <__divdi3+0x2a6>
 8002c8e:	459a      	cmp	sl, r3
 8002c90:	d931      	bls.n	8002cf6 <__divdi3+0x2a6>
 8002c92:	3902      	subs	r1, #2
 8002c94:	199b      	adds	r3, r3, r6
 8002c96:	ea41 4108 	orr.w	r1, r1, r8, lsl #16
 8002c9a:	0c0f      	lsrs	r7, r1, #16
 8002c9c:	fa1f f88c 	uxth.w	r8, ip
 8002ca0:	fb08 f607 	mul.w	r6, r8, r7
 8002ca4:	b28a      	uxth	r2, r1
 8002ca6:	ea4f 4c1c 	mov.w	ip, ip, lsr #16
 8002caa:	fb08 f802 	mul.w	r8, r8, r2
 8002cae:	fb0c 6202 	mla	r2, ip, r2, r6
 8002cb2:	eb02 4218 	add.w	r2, r2, r8, lsr #16
 8002cb6:	fb0c fc07 	mul.w	ip, ip, r7
 8002cba:	4296      	cmp	r6, r2
 8002cbc:	bf88      	it	hi
 8002cbe:	f50c 3c80 	addhi.w	ip, ip, #65536	; 0x10000
 8002cc2:	ebca 0303 	rsb	r3, sl, r3
 8002cc6:	eb0c 4c12 	add.w	ip, ip, r2, lsr #16
 8002cca:	4563      	cmp	r3, ip
 8002ccc:	d30e      	bcc.n	8002cec <__divdi3+0x29c>
 8002cce:	d005      	beq.n	8002cdc <__divdi3+0x28c>
 8002cd0:	2500      	movs	r5, #0
 8002cd2:	e70d      	b.n	8002af0 <__divdi3+0xa0>
 8002cd4:	460e      	mov	r6, r1
 8002cd6:	e6ef      	b.n	8002ab8 <__divdi3+0x68>
 8002cd8:	461d      	mov	r5, r3
 8002cda:	e701      	b.n	8002ae0 <__divdi3+0x90>
 8002cdc:	fa1f f888 	uxth.w	r8, r8
 8002ce0:	fa00 f005 	lsl.w	r0, r0, r5
 8002ce4:	eb08 4502 	add.w	r5, r8, r2, lsl #16
 8002ce8:	42a8      	cmp	r0, r5
 8002cea:	d2f1      	bcs.n	8002cd0 <__divdi3+0x280>
 8002cec:	3901      	subs	r1, #1
 8002cee:	2500      	movs	r5, #0
 8002cf0:	e6fe      	b.n	8002af0 <__divdi3+0xa0>
 8002cf2:	463d      	mov	r5, r7
 8002cf4:	e78f      	b.n	8002c16 <__divdi3+0x1c6>
 8002cf6:	4611      	mov	r1, r2
 8002cf8:	e7cd      	b.n	8002c96 <__divdi3+0x246>
 8002cfa:	4688      	mov	r8, r1
 8002cfc:	e7b7      	b.n	8002c6e <__divdi3+0x21e>
 8002cfe:	46b0      	mov	r8, r6
 8002d00:	e775      	b.n	8002bee <__divdi3+0x19e>
 8002d02:	3f02      	subs	r7, #2
 8002d04:	18b6      	adds	r6, r6, r2
 8002d06:	e72a      	b.n	8002b5e <__divdi3+0x10e>
 8002d08:	3902      	subs	r1, #2
 8002d0a:	e73c      	b.n	8002b86 <__divdi3+0x136>

08002d0c <__udivdi3>:
 8002d0c:	e92d 07f0 	stmdb	sp!, {r4, r5, r6, r7, r8, r9, sl}
 8002d10:	4614      	mov	r4, r2
 8002d12:	4605      	mov	r5, r0
 8002d14:	460e      	mov	r6, r1
 8002d16:	2b00      	cmp	r3, #0
 8002d18:	d13d      	bne.n	8002d96 <__udivdi3+0x8a>
 8002d1a:	428a      	cmp	r2, r1
 8002d1c:	d949      	bls.n	8002db2 <__udivdi3+0xa6>
 8002d1e:	fab2 f782 	clz	r7, r2
 8002d22:	b147      	cbz	r7, 8002d36 <__udivdi3+0x2a>
 8002d24:	f1c7 0120 	rsb	r1, r7, #32
 8002d28:	fa20 f201 	lsr.w	r2, r0, r1
 8002d2c:	fa06 f607 	lsl.w	r6, r6, r7
 8002d30:	40bc      	lsls	r4, r7
 8002d32:	4316      	orrs	r6, r2
 8002d34:	40bd      	lsls	r5, r7
 8002d36:	0c22      	lsrs	r2, r4, #16
 8002d38:	fbb6 f0f2 	udiv	r0, r6, r2
 8002d3c:	0c2f      	lsrs	r7, r5, #16
 8002d3e:	b2a1      	uxth	r1, r4
 8002d40:	fb02 6610 	mls	r6, r2, r0, r6
 8002d44:	fb01 f300 	mul.w	r3, r1, r0
 8002d48:	ea47 4606 	orr.w	r6, r7, r6, lsl #16
 8002d4c:	42b3      	cmp	r3, r6
 8002d4e:	d908      	bls.n	8002d62 <__udivdi3+0x56>
 8002d50:	1e47      	subs	r7, r0, #1
 8002d52:	1936      	adds	r6, r6, r4
 8002d54:	f080 80f8 	bcs.w	8002f48 <__udivdi3+0x23c>
 8002d58:	42b3      	cmp	r3, r6
 8002d5a:	f240 80f5 	bls.w	8002f48 <__udivdi3+0x23c>
 8002d5e:	3802      	subs	r0, #2
 8002d60:	1936      	adds	r6, r6, r4
 8002d62:	1af6      	subs	r6, r6, r3
 8002d64:	fbb6 f3f2 	udiv	r3, r6, r2
 8002d68:	fb02 6213 	mls	r2, r2, r3, r6
 8002d6c:	b2ad      	uxth	r5, r5
 8002d6e:	fb01 f103 	mul.w	r1, r1, r3
 8002d72:	ea45 4202 	orr.w	r2, r5, r2, lsl #16
 8002d76:	4291      	cmp	r1, r2
 8002d78:	d907      	bls.n	8002d8a <__udivdi3+0x7e>
 8002d7a:	1e5e      	subs	r6, r3, #1
 8002d7c:	1912      	adds	r2, r2, r4
 8002d7e:	f080 80e5 	bcs.w	8002f4c <__udivdi3+0x240>
 8002d82:	4291      	cmp	r1, r2
 8002d84:	f240 80e2 	bls.w	8002f4c <__udivdi3+0x240>
 8002d88:	3b02      	subs	r3, #2
 8002d8a:	ea43 4000 	orr.w	r0, r3, r0, lsl #16
 8002d8e:	2100      	movs	r1, #0
 8002d90:	e8bd 07f0 	ldmia.w	sp!, {r4, r5, r6, r7, r8, r9, sl}
 8002d94:	4770      	bx	lr
 8002d96:	428b      	cmp	r3, r1
 8002d98:	d843      	bhi.n	8002e22 <__udivdi3+0x116>
 8002d9a:	fab3 f483 	clz	r4, r3
 8002d9e:	2c00      	cmp	r4, #0
 8002da0:	d142      	bne.n	8002e28 <__udivdi3+0x11c>
 8002da2:	428b      	cmp	r3, r1
 8002da4:	d302      	bcc.n	8002dac <__udivdi3+0xa0>
 8002da6:	4282      	cmp	r2, r0
 8002da8:	f200 80df 	bhi.w	8002f6a <__udivdi3+0x25e>
 8002dac:	2100      	movs	r1, #0
 8002dae:	2001      	movs	r0, #1
 8002db0:	e7ee      	b.n	8002d90 <__udivdi3+0x84>
 8002db2:	b912      	cbnz	r2, 8002dba <__udivdi3+0xae>
 8002db4:	2701      	movs	r7, #1
 8002db6:	fbb7 f4f2 	udiv	r4, r7, r2
 8002dba:	fab4 f284 	clz	r2, r4
 8002dbe:	2a00      	cmp	r2, #0
 8002dc0:	f040 8088 	bne.w	8002ed4 <__udivdi3+0x1c8>
 8002dc4:	1b0a      	subs	r2, r1, r4
 8002dc6:	0c23      	lsrs	r3, r4, #16
 8002dc8:	b2a7      	uxth	r7, r4
 8002dca:	2101      	movs	r1, #1
 8002dcc:	fbb2 f6f3 	udiv	r6, r2, r3
 8002dd0:	fb03 2216 	mls	r2, r3, r6, r2
 8002dd4:	ea4f 4c15 	mov.w	ip, r5, lsr #16
 8002dd8:	fb07 f006 	mul.w	r0, r7, r6
 8002ddc:	ea4c 4202 	orr.w	r2, ip, r2, lsl #16
 8002de0:	4290      	cmp	r0, r2
 8002de2:	d907      	bls.n	8002df4 <__udivdi3+0xe8>
 8002de4:	1912      	adds	r2, r2, r4
 8002de6:	f106 3cff 	add.w	ip, r6, #4294967295
 8002dea:	d202      	bcs.n	8002df2 <__udivdi3+0xe6>
 8002dec:	4290      	cmp	r0, r2
 8002dee:	f200 80ce 	bhi.w	8002f8e <__udivdi3+0x282>
 8002df2:	4666      	mov	r6, ip
 8002df4:	1a12      	subs	r2, r2, r0
 8002df6:	fbb2 f0f3 	udiv	r0, r2, r3
 8002dfa:	fb03 2310 	mls	r3, r3, r0, r2
 8002dfe:	b2ad      	uxth	r5, r5
 8002e00:	fb07 f700 	mul.w	r7, r7, r0
 8002e04:	ea45 4303 	orr.w	r3, r5, r3, lsl #16
 8002e08:	429f      	cmp	r7, r3
 8002e0a:	d907      	bls.n	8002e1c <__udivdi3+0x110>
 8002e0c:	1e42      	subs	r2, r0, #1
 8002e0e:	191b      	adds	r3, r3, r4
 8002e10:	f080 809e 	bcs.w	8002f50 <__udivdi3+0x244>
 8002e14:	429f      	cmp	r7, r3
 8002e16:	f240 809b 	bls.w	8002f50 <__udivdi3+0x244>
 8002e1a:	3802      	subs	r0, #2
 8002e1c:	ea40 4006 	orr.w	r0, r0, r6, lsl #16
 8002e20:	e7b6      	b.n	8002d90 <__udivdi3+0x84>
 8002e22:	2100      	movs	r1, #0
 8002e24:	4608      	mov	r0, r1
 8002e26:	e7b3      	b.n	8002d90 <__udivdi3+0x84>
 8002e28:	f1c4 0620 	rsb	r6, r4, #32
 8002e2c:	fa22 f506 	lsr.w	r5, r2, r6
 8002e30:	fa03 f304 	lsl.w	r3, r3, r4
 8002e34:	432b      	orrs	r3, r5
 8002e36:	ea4f 4c13 	mov.w	ip, r3, lsr #16
 8002e3a:	fa21 f506 	lsr.w	r5, r1, r6
 8002e3e:	fa01 f104 	lsl.w	r1, r1, r4
 8002e42:	fa20 f606 	lsr.w	r6, r0, r6
 8002e46:	fbb5 f7fc 	udiv	r7, r5, ip
 8002e4a:	ea46 0a01 	orr.w	sl, r6, r1
 8002e4e:	fa1f f883 	uxth.w	r8, r3
 8002e52:	fb0c 5517 	mls	r5, ip, r7, r5
 8002e56:	ea4f 411a 	mov.w	r1, sl, lsr #16
 8002e5a:	fb08 f907 	mul.w	r9, r8, r7
 8002e5e:	ea41 4505 	orr.w	r5, r1, r5, lsl #16
 8002e62:	45a9      	cmp	r9, r5
 8002e64:	fa02 f204 	lsl.w	r2, r2, r4
 8002e68:	d903      	bls.n	8002e72 <__udivdi3+0x166>
 8002e6a:	1e7e      	subs	r6, r7, #1
 8002e6c:	18ed      	adds	r5, r5, r3
 8002e6e:	d37f      	bcc.n	8002f70 <__udivdi3+0x264>
 8002e70:	4637      	mov	r7, r6
 8002e72:	ebc9 0105 	rsb	r1, r9, r5
 8002e76:	fbb1 f6fc 	udiv	r6, r1, ip
 8002e7a:	fb0c 1516 	mls	r5, ip, r6, r1
 8002e7e:	fa1f fa8a 	uxth.w	sl, sl
 8002e82:	fb08 f806 	mul.w	r8, r8, r6
 8002e86:	ea4a 4105 	orr.w	r1, sl, r5, lsl #16
 8002e8a:	4588      	cmp	r8, r1
 8002e8c:	d903      	bls.n	8002e96 <__udivdi3+0x18a>
 8002e8e:	1e75      	subs	r5, r6, #1
 8002e90:	18c9      	adds	r1, r1, r3
 8002e92:	d373      	bcc.n	8002f7c <__udivdi3+0x270>
 8002e94:	462e      	mov	r6, r5
 8002e96:	ea46 4607 	orr.w	r6, r6, r7, lsl #16
 8002e9a:	0c37      	lsrs	r7, r6, #16
 8002e9c:	fa1f fc82 	uxth.w	ip, r2
 8002ea0:	fb0c f507 	mul.w	r5, ip, r7
 8002ea4:	0c12      	lsrs	r2, r2, #16
 8002ea6:	b2b3      	uxth	r3, r6
 8002ea8:	fb0c fc03 	mul.w	ip, ip, r3
 8002eac:	fb02 5303 	mla	r3, r2, r3, r5
 8002eb0:	eb03 431c 	add.w	r3, r3, ip, lsr #16
 8002eb4:	fb02 f207 	mul.w	r2, r2, r7
 8002eb8:	429d      	cmp	r5, r3
 8002eba:	bf88      	it	hi
 8002ebc:	f502 3280 	addhi.w	r2, r2, #65536	; 0x10000
 8002ec0:	ebc8 0101 	rsb	r1, r8, r1
 8002ec4:	eb02 4213 	add.w	r2, r2, r3, lsr #16
 8002ec8:	4291      	cmp	r1, r2
 8002eca:	d34b      	bcc.n	8002f64 <__udivdi3+0x258>
 8002ecc:	d042      	beq.n	8002f54 <__udivdi3+0x248>
 8002ece:	4630      	mov	r0, r6
 8002ed0:	2100      	movs	r1, #0
 8002ed2:	e75d      	b.n	8002d90 <__udivdi3+0x84>
 8002ed4:	4094      	lsls	r4, r2
 8002ed6:	f1c2 0520 	rsb	r5, r2, #32
 8002eda:	fa21 f605 	lsr.w	r6, r1, r5
 8002ede:	0c23      	lsrs	r3, r4, #16
 8002ee0:	fa20 f705 	lsr.w	r7, r0, r5
 8002ee4:	fa01 f102 	lsl.w	r1, r1, r2
 8002ee8:	fbb6 fcf3 	udiv	ip, r6, r3
 8002eec:	4339      	orrs	r1, r7
 8002eee:	0c0d      	lsrs	r5, r1, #16
 8002ef0:	b2a7      	uxth	r7, r4
 8002ef2:	fb03 661c 	mls	r6, r3, ip, r6
 8002ef6:	ea45 4606 	orr.w	r6, r5, r6, lsl #16
 8002efa:	fb07 f80c 	mul.w	r8, r7, ip
 8002efe:	45b0      	cmp	r8, r6
 8002f00:	fa00 f502 	lsl.w	r5, r0, r2
 8002f04:	d908      	bls.n	8002f18 <__udivdi3+0x20c>
 8002f06:	1936      	adds	r6, r6, r4
 8002f08:	f10c 30ff 	add.w	r0, ip, #4294967295
 8002f0c:	d23d      	bcs.n	8002f8a <__udivdi3+0x27e>
 8002f0e:	45b0      	cmp	r8, r6
 8002f10:	d93b      	bls.n	8002f8a <__udivdi3+0x27e>
 8002f12:	f1ac 0c02 	sub.w	ip, ip, #2
 8002f16:	1936      	adds	r6, r6, r4
 8002f18:	ebc8 0206 	rsb	r2, r8, r6
 8002f1c:	fbb2 f0f3 	udiv	r0, r2, r3
 8002f20:	fb03 2610 	mls	r6, r3, r0, r2
 8002f24:	b28a      	uxth	r2, r1
 8002f26:	ea42 4206 	orr.w	r2, r2, r6, lsl #16
 8002f2a:	fb07 f100 	mul.w	r1, r7, r0
 8002f2e:	4291      	cmp	r1, r2
 8002f30:	d906      	bls.n	8002f40 <__udivdi3+0x234>
 8002f32:	1e46      	subs	r6, r0, #1
 8002f34:	1912      	adds	r2, r2, r4
 8002f36:	d226      	bcs.n	8002f86 <__udivdi3+0x27a>
 8002f38:	4291      	cmp	r1, r2
 8002f3a:	d924      	bls.n	8002f86 <__udivdi3+0x27a>
 8002f3c:	3802      	subs	r0, #2
 8002f3e:	1912      	adds	r2, r2, r4
 8002f40:	1a52      	subs	r2, r2, r1
 8002f42:	ea40 410c 	orr.w	r1, r0, ip, lsl #16
 8002f46:	e741      	b.n	8002dcc <__udivdi3+0xc0>
 8002f48:	4638      	mov	r0, r7
 8002f4a:	e70a      	b.n	8002d62 <__udivdi3+0x56>
 8002f4c:	4633      	mov	r3, r6
 8002f4e:	e71c      	b.n	8002d8a <__udivdi3+0x7e>
 8002f50:	4610      	mov	r0, r2
 8002f52:	e763      	b.n	8002e1c <__udivdi3+0x110>
 8002f54:	fa1f fc8c 	uxth.w	ip, ip
 8002f58:	fa00 f004 	lsl.w	r0, r0, r4
 8002f5c:	eb0c 4303 	add.w	r3, ip, r3, lsl #16
 8002f60:	4298      	cmp	r0, r3
 8002f62:	d2b4      	bcs.n	8002ece <__udivdi3+0x1c2>
 8002f64:	1e70      	subs	r0, r6, #1
 8002f66:	2100      	movs	r1, #0
 8002f68:	e712      	b.n	8002d90 <__udivdi3+0x84>
 8002f6a:	4621      	mov	r1, r4
 8002f6c:	4620      	mov	r0, r4
 8002f6e:	e70f      	b.n	8002d90 <__udivdi3+0x84>
 8002f70:	45a9      	cmp	r9, r5
 8002f72:	f67f af7d 	bls.w	8002e70 <__udivdi3+0x164>
 8002f76:	3f02      	subs	r7, #2
 8002f78:	18ed      	adds	r5, r5, r3
 8002f7a:	e77a      	b.n	8002e72 <__udivdi3+0x166>
 8002f7c:	4588      	cmp	r8, r1
 8002f7e:	d989      	bls.n	8002e94 <__udivdi3+0x188>
 8002f80:	3e02      	subs	r6, #2
 8002f82:	18c9      	adds	r1, r1, r3
 8002f84:	e787      	b.n	8002e96 <__udivdi3+0x18a>
 8002f86:	4630      	mov	r0, r6
 8002f88:	e7da      	b.n	8002f40 <__udivdi3+0x234>
 8002f8a:	4684      	mov	ip, r0
 8002f8c:	e7c4      	b.n	8002f18 <__udivdi3+0x20c>
 8002f8e:	3e02      	subs	r6, #2
 8002f90:	1912      	adds	r2, r2, r4
 8002f92:	e72f      	b.n	8002df4 <__udivdi3+0xe8>

08002f94 <main>:
 8002f94:	b513      	push	{r0, r1, r4, lr}
 8002f96:	4c17      	ldr	r4, [pc, #92]	; (8002ff4 <main+0x60>)
 8002f98:	7823      	ldrb	r3, [r4, #0]
 8002f9a:	b11b      	cbz	r3, 8002fa4 <main+0x10>
 8002f9c:	f7fd fbd8 	bl	8000750 <_ZN7azimuth5motor7do_calcEv>
 8002fa0:	2000      	movs	r0, #0
 8002fa2:	7020      	strb	r0, [r4, #0]
 8002fa4:	4c14      	ldr	r4, [pc, #80]	; (8002ff8 <main+0x64>)
 8002fa6:	7821      	ldrb	r1, [r4, #0]
 8002fa8:	b119      	cbz	r1, 8002fb2 <main+0x1e>
 8002faa:	f7fe fa9d 	bl	80014e8 <_Z15switches_updatev>
 8002fae:	2200      	movs	r2, #0
 8002fb0:	7022      	strb	r2, [r4, #0]
 8002fb2:	4c12      	ldr	r4, [pc, #72]	; (8002ffc <main+0x68>)
 8002fb4:	7823      	ldrb	r3, [r4, #0]
 8002fb6:	b11b      	cbz	r3, 8002fc0 <main+0x2c>
 8002fb8:	f7fd f956 	bl	8000268 <_Z13on_20ms_eventv>
 8002fbc:	2000      	movs	r0, #0
 8002fbe:	7020      	strb	r0, [r4, #0]
 8002fc0:	480f      	ldr	r0, [pc, #60]	; (8003000 <main+0x6c>)
 8002fc2:	f000 f9c9 	bl	8003358 <_ZNK9FrSky2WSP8protocolIN4quan5stm3211serial_portINS2_5usart6moduleILm1073760256EEELj1000ELj1000ENS1_3mcu3pinINS2_4gpio6moduleILm1073875968EEELm8EEENS8_ISB_Lm9EEEEEvE8in_availEv>
 8002fc6:	b108      	cbz	r0, 8002fcc <main+0x38>
 8002fc8:	f7fe f93c 	bl	8001244 <_ZN9telemetry11parse_inputEv>
 8002fcc:	2100      	movs	r1, #0
 8002fce:	f8ad 1000 	strh.w	r1, [sp]
 8002fd2:	f8ad 1002 	strh.w	r1, [sp, #2]
 8002fd6:	f8ad 1004 	strh.w	r1, [sp, #4]
 8002fda:	f7fe fd79 	bl	8001ad0 <_Z13get_mag_strapv>
 8002fde:	4601      	mov	r1, r0
 8002fe0:	4668      	mov	r0, sp
 8002fe2:	f7fe fdff 	bl	8001be4 <_Z10update_magRN4quan7three_d4vectIsEEl>
 8002fe6:	2801      	cmp	r0, #1
 8002fe8:	d1d5      	bne.n	8002f96 <main+0x2>
 8002fea:	4668      	mov	r0, sp
 8002fec:	f7fe fd76 	bl	8001adc <_Z10on_new_magRKN4quan7three_d4vectIsEE>
 8002ff0:	e7d1      	b.n	8002f96 <main+0x2>
 8002ff2:	bf00      	nop
 8002ff4:	1000090a 	.word	0x1000090a
 8002ff8:	10000908 	.word	0x10000908
 8002ffc:	10000909 	.word	0x10000909
 8003000:	10000974 	.word	0x10000974

08003004 <_GLOBAL__sub_I_ms1_event>:
 8003004:	4b03      	ldr	r3, [pc, #12]	; (8003014 <_GLOBAL__sub_I_ms1_event+0x10>)
 8003006:	2200      	movs	r2, #0
 8003008:	701a      	strb	r2, [r3, #0]
 800300a:	705a      	strb	r2, [r3, #1]
 800300c:	709a      	strb	r2, [r3, #2]
 800300e:	70da      	strb	r2, [r3, #3]
 8003010:	4770      	bx	lr
 8003012:	bf00      	nop
 8003014:	10000908 	.word	0x10000908

08003018 <_ZN4quan5stm3211serial_portINS0_5usart6moduleILm1073760256EEELj1000ELj1000ENS_3mcu3pinINS0_4gpio6moduleILm1073875968EEELm8EEENS6_IS9_Lm9EEEE5writeEPKc>:
 8003018:	b538      	push	{r3, r4, r5, lr}
 800301a:	4604      	mov	r4, r0
 800301c:	f001 fba2 	bl	8004764 <strlen>
 8003020:	2200      	movs	r2, #0
 8003022:	4282      	cmp	r2, r0
 8003024:	d024      	beq.n	8003070 <_ZN4quan5stm3211serial_portINS0_5usart6moduleILm1073760256EEELj1000ELj1000ENS_3mcu3pinINS0_4gpio6moduleILm1073875968EEELm8EEENS6_IS9_Lm9EEEE5writeEPKc+0x58>
 8003026:	4b13      	ldr	r3, [pc, #76]	; (8003074 <_ZN4quan5stm3211serial_portINS0_5usart6moduleILm1073760256EEELj1000ELj1000ENS_3mcu3pinINS0_4gpio6moduleILm1073875968EEELm8EEENS6_IS9_Lm9EEEE5writeEPKc+0x5c>)
 8003028:	5ca5      	ldrb	r5, [r4, r2]
 800302a:	2100      	movs	r1, #0
 800302c:	6019      	str	r1, [r3, #0]
 800302e:	4b12      	ldr	r3, [pc, #72]	; (8003078 <_ZN4quan5stm3211serial_portINS0_5usart6moduleILm1073760256EEELj1000ELj1000ENS_3mcu3pinINS0_4gpio6moduleILm1073875968EEELm8EEENS6_IS9_Lm9EEEE5writeEPKc+0x60>)
 8003030:	6819      	ldr	r1, [r3, #0]
 8003032:	b1c1      	cbz	r1, 8003066 <_ZN4quan5stm3211serial_portINS0_5usart6moduleILm1073760256EEELj1000ELj1000ENS_3mcu3pinINS0_4gpio6moduleILm1073875968EEELm8EEENS6_IS9_Lm9EEEE5writeEPKc+0x4e>
 8003034:	6819      	ldr	r1, [r3, #0]
 8003036:	700d      	strb	r5, [r1, #0]
 8003038:	685d      	ldr	r5, [r3, #4]
 800303a:	b90d      	cbnz	r5, 8003040 <_ZN4quan5stm3211serial_portINS0_5usart6moduleILm1073760256EEELj1000ELj1000ENS_3mcu3pinINS0_4gpio6moduleILm1073875968EEELm8EEENS6_IS9_Lm9EEEE5writeEPKc+0x28>
 800303c:	6819      	ldr	r1, [r3, #0]
 800303e:	6059      	str	r1, [r3, #4]
 8003040:	681d      	ldr	r5, [r3, #0]
 8003042:	490d      	ldr	r1, [pc, #52]	; (8003078 <_ZN4quan5stm3211serial_portINS0_5usart6moduleILm1073760256EEELj1000ELj1000ENS_3mcu3pinINS0_4gpio6moduleILm1073875968EEELm8EEENS6_IS9_Lm9EEEE5writeEPKc+0x60>)
 8003044:	3501      	adds	r5, #1
 8003046:	601d      	str	r5, [r3, #0]
 8003048:	681d      	ldr	r5, [r3, #0]
 800304a:	f501 737c 	add.w	r3, r1, #1008	; 0x3f0
 800304e:	429d      	cmp	r5, r3
 8003050:	bf04      	itt	eq
 8003052:	f101 0308 	addeq.w	r3, r1, #8
 8003056:	600b      	streq	r3, [r1, #0]
 8003058:	4b07      	ldr	r3, [pc, #28]	; (8003078 <_ZN4quan5stm3211serial_portINS0_5usart6moduleILm1073760256EEELj1000ELj1000ENS_3mcu3pinINS0_4gpio6moduleILm1073875968EEELm8EEENS6_IS9_Lm9EEEE5writeEPKc+0x60>)
 800305a:	681d      	ldr	r5, [r3, #0]
 800305c:	6859      	ldr	r1, [r3, #4]
 800305e:	428d      	cmp	r5, r1
 8003060:	d101      	bne.n	8003066 <_ZN4quan5stm3211serial_portINS0_5usart6moduleILm1073760256EEELj1000ELj1000ENS_3mcu3pinINS0_4gpio6moduleILm1073875968EEELm8EEENS6_IS9_Lm9EEEE5writeEPKc+0x4e>
 8003062:	2100      	movs	r1, #0
 8003064:	6019      	str	r1, [r3, #0]
 8003066:	4b03      	ldr	r3, [pc, #12]	; (8003074 <_ZN4quan5stm3211serial_portINS0_5usart6moduleILm1073760256EEELj1000ELj1000ENS_3mcu3pinINS0_4gpio6moduleILm1073875968EEELm8EEENS6_IS9_Lm9EEEE5writeEPKc+0x5c>)
 8003068:	2101      	movs	r1, #1
 800306a:	6019      	str	r1, [r3, #0]
 800306c:	1852      	adds	r2, r2, r1
 800306e:	e7d8      	b.n	8003022 <_ZN4quan5stm3211serial_portINS0_5usart6moduleILm1073760256EEELj1000ELj1000ENS_3mcu3pinINS0_4gpio6moduleILm1073875968EEELm8EEENS6_IS9_Lm9EEEE5writeEPKc+0xa>
 8003070:	bd38      	pop	{r3, r4, r5, pc}
 8003072:	bf00      	nop
 8003074:	4209019c 	.word	0x4209019c
 8003078:	10000b18 	.word	0x10000b18

0800307c <_GLOBAL__sub_I__Z13on_20ms_eventv>:
 800307c:	4a06      	ldr	r2, [pc, #24]	; (8003098 <_GLOBAL__sub_I__Z13on_20ms_eventv+0x1c>)
 800307e:	6813      	ldr	r3, [r2, #0]
 8003080:	f013 0101 	ands.w	r1, r3, #1
 8003084:	d106      	bne.n	8003094 <_GLOBAL__sub_I__Z13on_20ms_eventv+0x18>
 8003086:	4b05      	ldr	r3, [pc, #20]	; (800309c <_GLOBAL__sub_I__Z13on_20ms_eventv+0x20>)
 8003088:	2001      	movs	r0, #1
 800308a:	6010      	str	r0, [r2, #0]
 800308c:	f103 0208 	add.w	r2, r3, #8
 8003090:	601a      	str	r2, [r3, #0]
 8003092:	6059      	str	r1, [r3, #4]
 8003094:	4770      	bx	lr
 8003096:	bf00      	nop
 8003098:	10000f08 	.word	0x10000f08
 800309c:	10000b18 	.word	0x10000b18

080030a0 <_ZNK4quan4meta4impl27for_each_type_sequence_implINS0_13type_sequenceIINS_5stm3210periph_regINS4_4gpio6moduleILm1073873920EEELm4EmEENS5_IS8_Lm8EmEENS5_IS8_Lm12EmEENS5_IS8_Lm16EmEENS5_IS8_Lm20EmEENS5_IS8_Lm24EmEENS5_IS8_Lm28EmEENS5_IS8_Lm32EmEENS5_IS8_Lm36EmEEEEENS4_6detail24apply_periph_reg_actionsIS8_NS3_IINSJ_17periph_reg_actionINS5_IS8_Lm0EmEENS0_6bit_orELm1EEENSL_ISM_NS0_7bit_andELm4294967293EEENSL_IS9_SN_Lm0EEENSL_IS9_SP_Lm4294967294EEENSL_ISA_SN_Lm0EEENSL_ISA_SP_Lm4294967292EEENSL_ISD_SP_Lm4294967294EEEEEEEELb1EvEclEv>:
 80030a0:	4b06      	ldr	r3, [pc, #24]	; (80030bc <_ZNK4quan4meta4impl27for_each_type_sequence_implINS0_13type_sequenceIINS_5stm3210periph_regINS4_4gpio6moduleILm1073873920EEELm4EmEENS5_IS8_Lm8EmEENS5_IS8_Lm12EmEENS5_IS8_Lm16EmEENS5_IS8_Lm20EmEENS5_IS8_Lm24EmEENS5_IS8_Lm28EmEENS5_IS8_Lm32EmEENS5_IS8_Lm36EmEEEEENS4_6detail24apply_periph_reg_actionsIS8_NS3_IINSJ_17periph_reg_actionINS5_IS8_Lm0EmEENS0_6bit_orELm1EEENSL_ISM_NS0_7bit_andELm4294967293EEENSL_IS9_SN_Lm0EEENSL_IS9_SP_Lm4294967294EEENSL_ISA_SN_Lm0EEENSL_ISA_SP_Lm4294967292EEENSL_ISD_SP_Lm4294967294EEEEEEEELb1EvEclEv+0x1c>)
 80030a2:	685a      	ldr	r2, [r3, #4]
 80030a4:	f022 0001 	bic.w	r0, r2, #1
 80030a8:	6058      	str	r0, [r3, #4]
 80030aa:	6899      	ldr	r1, [r3, #8]
 80030ac:	f021 0203 	bic.w	r2, r1, #3
 80030b0:	609a      	str	r2, [r3, #8]
 80030b2:	6958      	ldr	r0, [r3, #20]
 80030b4:	f020 0101 	bic.w	r1, r0, #1
 80030b8:	6159      	str	r1, [r3, #20]
 80030ba:	4770      	bx	lr
 80030bc:	40020400 	.word	0x40020400

080030c0 <_ZNK4quan4meta4impl27for_each_type_sequence_implINS0_13type_sequenceIINS_5stm3210periph_regINS4_4gpio6moduleILm1073872896EEELm4EmEENS5_IS8_Lm8EmEENS5_IS8_Lm12EmEENS5_IS8_Lm16EmEENS5_IS8_Lm20EmEENS5_IS8_Lm24EmEENS5_IS8_Lm28EmEENS5_IS8_Lm32EmEENS5_IS8_Lm36EmEEEEENS4_6detail24apply_periph_reg_actionsIS8_NS3_IINSJ_17periph_reg_actionINS5_IS8_Lm0EmEENS0_6bit_orELm65536EEENSL_ISM_NS0_7bit_andELm4294836223EEENSL_IS9_SN_Lm0EEENSL_IS9_SP_Lm4294967039EEENSL_ISA_SN_Lm0EEENSL_ISA_SP_Lm4294770687EEENSL_ISD_SP_Lm4294967039EEEEEEEELb1EvEclEv>:
 80030c0:	4b06      	ldr	r3, [pc, #24]	; (80030dc <_ZNK4quan4meta4impl27for_each_type_sequence_implINS0_13type_sequenceIINS_5stm3210periph_regINS4_4gpio6moduleILm1073872896EEELm4EmEENS5_IS8_Lm8EmEENS5_IS8_Lm12EmEENS5_IS8_Lm16EmEENS5_IS8_Lm20EmEENS5_IS8_Lm24EmEENS5_IS8_Lm28EmEENS5_IS8_Lm32EmEENS5_IS8_Lm36EmEEEEENS4_6detail24apply_periph_reg_actionsIS8_NS3_IINSJ_17periph_reg_actionINS5_IS8_Lm0EmEENS0_6bit_orELm65536EEENSL_ISM_NS0_7bit_andELm4294836223EEENSL_IS9_SN_Lm0EEENSL_IS9_SP_Lm4294967039EEENSL_ISA_SN_Lm0EEENSL_ISA_SP_Lm4294770687EEENSL_ISD_SP_Lm4294967039EEEEEEEELb1EvEclEv+0x1c>)
 80030c2:	685a      	ldr	r2, [r3, #4]
 80030c4:	f422 7080 	bic.w	r0, r2, #256	; 0x100
 80030c8:	6058      	str	r0, [r3, #4]
 80030ca:	6899      	ldr	r1, [r3, #8]
 80030cc:	f421 3240 	bic.w	r2, r1, #196608	; 0x30000
 80030d0:	609a      	str	r2, [r3, #8]
 80030d2:	6958      	ldr	r0, [r3, #20]
 80030d4:	f420 7180 	bic.w	r1, r0, #256	; 0x100
 80030d8:	6159      	str	r1, [r3, #20]
 80030da:	4770      	bx	lr
 80030dc:	40020000 	.word	0x40020000

080030e0 <_ZNK4quan4meta4impl27for_each_type_sequence_implINS0_13type_sequenceIINS_5stm3210periph_regINS4_4gpio6moduleILm1073872896EEELm8EmEENS5_IS8_Lm12EmEENS5_IS8_Lm16EmEENS5_IS8_Lm20EmEENS5_IS8_Lm24EmEENS5_IS8_Lm28EmEENS5_IS8_Lm32EmEENS5_IS8_Lm36EmEEEEENS4_6detail24apply_periph_reg_actionsIS8_NS3_IINSI_17periph_reg_actionINS5_IS8_Lm0EmEENS0_6bit_orELm2147483648EEENSK_ISL_NS0_7bit_andELm3221225471EEENSK_ISG_SM_Lm268435456EEENSK_ISG_SO_Lm536870911EEENSK_INS5_IS8_Lm4EmEESM_Lm0EEENSK_ISS_SO_Lm4294934527EEENSK_IS9_SM_Lm0EEENSK_IS9_SO_Lm1073741823EEENSK_ISC_SO_Lm4294934527EEEEEEEELb1EvEclEv>:
 80030e0:	4b07      	ldr	r3, [pc, #28]	; (8003100 <_ZNK4quan4meta4impl27for_each_type_sequence_implINS0_13type_sequenceIINS_5stm3210periph_regINS4_4gpio6moduleILm1073872896EEELm8EmEENS5_IS8_Lm12EmEENS5_IS8_Lm16EmEENS5_IS8_Lm20EmEENS5_IS8_Lm24EmEENS5_IS8_Lm28EmEENS5_IS8_Lm32EmEENS5_IS8_Lm36EmEEEEENS4_6detail24apply_periph_reg_actionsIS8_NS3_IINSI_17periph_reg_actionINS5_IS8_Lm0EmEENS0_6bit_orELm2147483648EEENSK_ISL_NS0_7bit_andELm3221225471EEENSK_ISG_SM_Lm268435456EEENSK_ISG_SO_Lm536870911EEENSK_INS5_IS8_Lm4EmEESM_Lm0EEENSK_ISS_SO_Lm4294934527EEENSK_IS9_SM_Lm0EEENSK_IS9_SO_Lm1073741823EEENSK_ISC_SO_Lm4294934527EEEEEEEELb1EvEclEv+0x20>)
 80030e2:	689a      	ldr	r2, [r3, #8]
 80030e4:	f022 4040 	bic.w	r0, r2, #3221225472	; 0xc0000000
 80030e8:	6098      	str	r0, [r3, #8]
 80030ea:	6959      	ldr	r1, [r3, #20]
 80030ec:	f421 4200 	bic.w	r2, r1, #32768	; 0x8000
 80030f0:	615a      	str	r2, [r3, #20]
 80030f2:	6a58      	ldr	r0, [r3, #36]	; 0x24
 80030f4:	f020 4170 	bic.w	r1, r0, #4026531840	; 0xf0000000
 80030f8:	f041 5280 	orr.w	r2, r1, #268435456	; 0x10000000
 80030fc:	625a      	str	r2, [r3, #36]	; 0x24
 80030fe:	4770      	bx	lr
 8003100:	40020000 	.word	0x40020000

08003104 <_ZN4quan5stm326detail26periph_reg_combined_actionINS0_10periph_regINS0_4gpio6moduleILm1073873920EEELm0EmEELm1ELm4294967293EE11with_or_fun5applyEv>:
 8003104:	4b03      	ldr	r3, [pc, #12]	; (8003114 <_ZN4quan5stm326detail26periph_reg_combined_actionINS0_10periph_regINS0_4gpio6moduleILm1073873920EEELm0EmEELm1ELm4294967293EE11with_or_fun5applyEv+0x10>)
 8003106:	681a      	ldr	r2, [r3, #0]
 8003108:	f022 0003 	bic.w	r0, r2, #3
 800310c:	f040 0101 	orr.w	r1, r0, #1
 8003110:	6019      	str	r1, [r3, #0]
 8003112:	4770      	bx	lr
 8003114:	40020400 	.word	0x40020400

08003118 <_ZN4quan5stm326detail26periph_reg_combined_actionINS0_10periph_regINS0_4gpio6moduleILm1073872896EEELm0EmEELm65536ELm4294836223EE11with_or_fun5applyEv>:
 8003118:	4b03      	ldr	r3, [pc, #12]	; (8003128 <_ZN4quan5stm326detail26periph_reg_combined_actionINS0_10periph_regINS0_4gpio6moduleILm1073872896EEELm0EmEELm65536ELm4294836223EE11with_or_fun5applyEv+0x10>)
 800311a:	681a      	ldr	r2, [r3, #0]
 800311c:	f422 3040 	bic.w	r0, r2, #196608	; 0x30000
 8003120:	f440 3180 	orr.w	r1, r0, #65536	; 0x10000
 8003124:	6019      	str	r1, [r3, #0]
 8003126:	4770      	bx	lr
 8003128:	40020000 	.word	0x40020000

0800312c <_ZN4quan7compareINS_4meta8rationalILx1ELx1EEENS2_ILx360ELx1EEEfS4_fEEiRKNS_22fraction_of_revolutionIT_T0_T1_EERKNS5_IS6_T2_T3_EERKNS1_9binary_opIS9_NS1_5minusESE_vE4typeE>:
 800312c:	ed90 7a00 	vldr	s14, [r0]
 8003130:	edd1 7a00 	vldr	s15, [r1]
 8003134:	ee37 0a67 	vsub.f32	s0, s14, s15
 8003138:	edd2 0a00 	vldr	s1, [r2]
 800313c:	eeb5 0ac0 	vcmpe.f32	s0, #0.0
 8003140:	eef1 fa10 	vmrs	APSR_nzcv, fpscr
 8003144:	eef5 0ac0 	vcmpe.f32	s1, #0.0
 8003148:	bf4c      	ite	mi
 800314a:	eef1 6a40 	vnegmi.f32	s13, s0
 800314e:	eef0 6a40 	vmovpl.f32	s13, s0
 8003152:	eef1 fa10 	vmrs	APSR_nzcv, fpscr
 8003156:	bf48      	it	mi
 8003158:	eef1 0a60 	vnegmi.f32	s1, s1
 800315c:	eef4 6ae0 	vcmpe.f32	s13, s1
 8003160:	eef1 fa10 	vmrs	APSR_nzcv, fpscr
 8003164:	d908      	bls.n	8003178 <_ZN4quan7compareINS_4meta8rationalILx1ELx1EEENS2_ILx360ELx1EEEfS4_fEEiRKNS_22fraction_of_revolutionIT_T0_T1_EERKNS5_IS6_T2_T3_EERKNS1_9binary_opIS9_NS1_5minusESE_vE4typeE+0x4c>
 8003166:	eeb5 0ac0 	vcmpe.f32	s0, #0.0
 800316a:	eef1 fa10 	vmrs	APSR_nzcv, fpscr
 800316e:	bf4c      	ite	mi
 8003170:	f04f 30ff 	movmi.w	r0, #4294967295
 8003174:	2001      	movpl	r0, #1
 8003176:	4770      	bx	lr
 8003178:	2000      	movs	r0, #0
 800317a:	4770      	bx	lr

0800317c <_ZNK4quan11impl_detail23arithmetic_convert_implImfvEclERKf>:
 800317c:	b500      	push	{lr}
 800317e:	ed2d 8b02 	vpush	{d8}
 8003182:	ed91 8a00 	vldr	s16, [r1]
 8003186:	eeb5 8ac0 	vcmpe.f32	s16, #0.0
 800318a:	eef1 fa10 	vmrs	APSR_nzcv, fpscr
 800318e:	b083      	sub	sp, #12
 8003190:	db06      	blt.n	80031a0 <_ZNK4quan11impl_detail23arithmetic_convert_implImfvEclERKf+0x24>
 8003192:	eddf 7a18 	vldr	s15, [pc, #96]	; 80031f4 <_ZNK4quan11impl_detail23arithmetic_convert_implImfvEclERKf+0x78>
 8003196:	eeb4 8ae7 	vcmpe.f32	s16, s15
 800319a:	eef1 fa10 	vmrs	APSR_nzcv, fpscr
 800319e:	d908      	bls.n	80031b2 <_ZNK4quan11impl_detail23arithmetic_convert_implImfvEclERKf+0x36>
 80031a0:	eeb5 8ac0 	vcmpe.f32	s16, #0.0
 80031a4:	eef1 fa10 	vmrs	APSR_nzcv, fpscr
 80031a8:	bfcc      	ite	gt
 80031aa:	f04f 30ff 	movgt.w	r0, #4294967295
 80031ae:	2000      	movle	r0, #0
 80031b0:	e01c      	b.n	80031ec <_ZNK4quan11impl_detail23arithmetic_convert_implImfvEclERKf+0x70>
 80031b2:	a802      	add	r0, sp, #8
 80031b4:	2300      	movs	r3, #0
 80031b6:	f840 3d04 	str.w	r3, [r0, #-4]!
 80031ba:	eeb0 0a48 	vmov.f32	s0, s16
 80031be:	f001 fa5d 	bl	800467c <modff>
 80031c2:	eef6 0a00 	vmov.f32	s1, #96	; 0x60
 80031c6:	eeb4 0ae0 	vcmpe.f32	s0, s1
 80031ca:	eebc 8ac8 	vcvt.u32.f32	s16, s16
 80031ce:	eef1 fa10 	vmrs	APSR_nzcv, fpscr
 80031d2:	ee18 0a10 	vmov	r0, s16
 80031d6:	d409      	bmi.n	80031ec <_ZNK4quan11impl_detail23arithmetic_convert_implImfvEclERKf+0x70>
 80031d8:	dc07      	bgt.n	80031ea <_ZNK4quan11impl_detail23arithmetic_convert_implImfvEclERKf+0x6e>
 80031da:	ed9d 0a01 	vldr	s0, [sp, #4]
 80031de:	eebc 1ac0 	vcvt.u32.f32	s2, s0
 80031e2:	ee11 1a10 	vmov	r1, s2
 80031e6:	07cb      	lsls	r3, r1, #31
 80031e8:	d500      	bpl.n	80031ec <_ZNK4quan11impl_detail23arithmetic_convert_implImfvEclERKf+0x70>
 80031ea:	3001      	adds	r0, #1
 80031ec:	b003      	add	sp, #12
 80031ee:	ecbd 8b02 	vpop	{d8}
 80031f2:	bd00      	pop	{pc}
 80031f4:	4f800000 	.word	0x4f800000

080031f8 <_ZNK4quan4meta4impl27for_each_type_sequence_implINS0_13type_sequenceIINS_5stm3210periph_regINS4_4gpio6moduleILm1073872896EEELm12EmEENS5_IS8_Lm16EmEENS5_IS8_Lm20EmEENS5_IS8_Lm24EmEENS5_IS8_Lm28EmEENS5_IS8_Lm32EmEENS5_IS8_Lm36EmEEEEENS4_6detail24apply_periph_reg_actionsIS8_NS3_IINSH_17periph_reg_actionINS5_IS8_Lm0EmEENS0_6bit_orELm8EEENSJ_ISK_NS0_7bit_andELm4294967291EEENSJ_ISE_SL_Lm16EEENSJ_ISE_SN_Lm4294967071EEENSJ_INS5_IS8_Lm4EmEESL_Lm0EEENSJ_ISR_SN_Lm4294967293EEENSJ_IS9_SL_Lm0EEENSJ_IS9_SN_Lm4294967283EEENSJ_INS5_IS8_Lm8EmEESL_Lm0EEENSJ_ISW_SN_Lm4294967283EEENSJ_ISB_SN_Lm4294967293EEEEEEEELb1EvEclEv>:
 80031f8:	4b07      	ldr	r3, [pc, #28]	; (8003218 <_ZNK4quan4meta4impl27for_each_type_sequence_implINS0_13type_sequenceIINS_5stm3210periph_regINS4_4gpio6moduleILm1073872896EEELm12EmEENS5_IS8_Lm16EmEENS5_IS8_Lm20EmEENS5_IS8_Lm24EmEENS5_IS8_Lm28EmEENS5_IS8_Lm32EmEENS5_IS8_Lm36EmEEEEENS4_6detail24apply_periph_reg_actionsIS8_NS3_IINSH_17periph_reg_actionINS5_IS8_Lm0EmEENS0_6bit_orELm8EEENSJ_ISK_NS0_7bit_andELm4294967291EEENSJ_ISE_SL_Lm16EEENSJ_ISE_SN_Lm4294967071EEENSJ_INS5_IS8_Lm4EmEESL_Lm0EEENSJ_ISR_SN_Lm4294967293EEENSJ_IS9_SL_Lm0EEENSJ_IS9_SN_Lm4294967283EEENSJ_INS5_IS8_Lm8EmEESL_Lm0EEENSJ_ISW_SN_Lm4294967283EEENSJ_ISB_SN_Lm4294967293EEEEEEEELb1EvEclEv+0x20>)
 80031fa:	68da      	ldr	r2, [r3, #12]
 80031fc:	f022 000c 	bic.w	r0, r2, #12
 8003200:	60d8      	str	r0, [r3, #12]
 8003202:	6959      	ldr	r1, [r3, #20]
 8003204:	f021 0202 	bic.w	r2, r1, #2
 8003208:	615a      	str	r2, [r3, #20]
 800320a:	6a18      	ldr	r0, [r3, #32]
 800320c:	f020 01f0 	bic.w	r1, r0, #240	; 0xf0
 8003210:	f041 0210 	orr.w	r2, r1, #16
 8003214:	621a      	str	r2, [r3, #32]
 8003216:	4770      	bx	lr
 8003218:	40020000 	.word	0x40020000
 800321c:	00000000 	.word	0x00000000

08003220 <_ZN4quandvINS_4meta4unitINS1_17abstract_quantityINS1_9dimensionINS1_8rationalILx1ELx1EEENS5_ILx0ELx1EEES7_S7_S7_S7_S7_EENS1_10components9of_lengthEEENS1_17conversion_factorIS7_S6_NS1_5int32ILl0EEEEEEENS_22fraction_of_revolutionIS6_NS5_ILx360ELx1EEEdEENS_16mathematic_angleIS6_dEEEENS1_12binary_op_ifINS1_10is_numericIT1_EENS_14fixed_quantityIT_T0_EENS1_7dividesESO_E4typeERKST_RKSO_>:
 8003220:	b510      	push	{r4, lr}
 8003222:	460c      	mov	r4, r1
 8003224:	e9d0 0100 	ldrd	r0, r1, [r0]
 8003228:	4602      	mov	r2, r0
 800322a:	460b      	mov	r3, r1
 800322c:	f7fe fdfa 	bl	8001e24 <__adddf3>
 8003230:	a308      	add	r3, pc, #32	; (adr r3, 8003254 <_ZN4quandvINS_4meta4unitINS1_17abstract_quantityINS1_9dimensionINS1_8rationalILx1ELx1EEENS5_ILx0ELx1EEES7_S7_S7_S7_S7_EENS1_10components9of_lengthEEENS1_17conversion_factorIS7_S6_NS1_5int32ILl0EEEEEEENS_22fraction_of_revolutionIS6_NS5_ILx360ELx1EEEdEENS_16mathematic_angleIS6_dEEEENS1_12binary_op_ifINS1_10is_numericIT1_EENS_14fixed_quantityIT_T0_EENS1_7dividesESO_E4typeERKST_RKSO_+0x34>)
 8003232:	e9d3 2300 	ldrd	r2, r3, [r3]
 8003236:	f7fe ffa7 	bl	8002188 <__aeabi_dmul>
 800323a:	2200      	movs	r2, #0
 800323c:	4b04      	ldr	r3, [pc, #16]	; (8003250 <_ZN4quandvINS_4meta4unitINS1_17abstract_quantityINS1_9dimensionINS1_8rationalILx1ELx1EEENS5_ILx0ELx1EEES7_S7_S7_S7_S7_EENS1_10components9of_lengthEEENS1_17conversion_factorIS7_S6_NS1_5int32ILl0EEEEEEENS_22fraction_of_revolutionIS6_NS5_ILx360ELx1EEEdEENS_16mathematic_angleIS6_dEEEENS1_12binary_op_ifINS1_10is_numericIT1_EENS_14fixed_quantityIT_T0_EENS1_7dividesESO_E4typeERKST_RKSO_+0x30>)
 800323e:	f7ff f8cd 	bl	80023dc <__aeabi_ddiv>
 8003242:	e9d4 2300 	ldrd	r2, r3, [r4]
 8003246:	f7ff f8c9 	bl	80023dc <__aeabi_ddiv>
 800324a:	ec41 0b10 	vmov	d0, r0, r1
 800324e:	bd10      	pop	{r4, pc}
 8003250:	40768000 	.word	0x40768000
 8003254:	54442d18 	.word	0x54442d18
 8003258:	400921fb 	.word	0x400921fb
 800325c:	f3af 8000 	nop.w

08003260 <_ZN4quan22fraction_of_revolutionINS_4meta8rationalILx1ELx1EEENS2_ILx360ELx1EEEfEC1IS4_dEERKNS0_IS3_T_T0_EE>:
 8003260:	b510      	push	{r4, lr}
 8003262:	4604      	mov	r4, r0
 8003264:	e9d1 0100 	ldrd	r0, r1, [r1]
 8003268:	f7fd fbfe 	bl	8000a68 <_ZNK4quan11impl_detail23arithmetic_convert_implIfdvEclERKd.isra.37>
 800326c:	4620      	mov	r0, r4
 800326e:	ed84 0a00 	vstr	s0, [r4]
 8003272:	bd10      	pop	{r4, pc}
 8003274:	0000      	movs	r0, r0
	...

08003278 <_ZN4quan22fraction_of_revolutionINS_4meta8rationalILx1ELx1EEENS2_ILx360ELx1EEEfEC1INS2_ILx3600000000ELx1EEEfEERKNS0_IS3_T_T0_EE>:
 8003278:	b510      	push	{r4, lr}
 800327a:	4604      	mov	r4, r0
 800327c:	6808      	ldr	r0, [r1, #0]
 800327e:	f7fe ff2f 	bl	80020e0 <__aeabi_f2d>
 8003282:	a305      	add	r3, pc, #20	; (adr r3, 8003298 <_ZN4quan22fraction_of_revolutionINS_4meta8rationalILx1ELx1EEENS2_ILx360ELx1EEEfEC1INS2_ILx3600000000ELx1EEEfEERKNS0_IS3_T_T0_EE+0x20>)
 8003284:	e9d3 2300 	ldrd	r2, r3, [r3]
 8003288:	f7fe ff7e 	bl	8002188 <__aeabi_dmul>
 800328c:	f7fd fbec 	bl	8000a68 <_ZNK4quan11impl_detail23arithmetic_convert_implIfdvEclERKd.isra.37>
 8003290:	4620      	mov	r0, r4
 8003292:	ed84 0a00 	vstr	s0, [r4]
 8003296:	bd10      	pop	{r4, pc}
 8003298:	9abcaf48 	.word	0x9abcaf48
 800329c:	3e7ad7f2 	.word	0x3e7ad7f2

080032a0 <_ZN4quan4fifoIhLi3ELb0EE3getERh>:
 80032a0:	6843      	ldr	r3, [r0, #4]
 80032a2:	b1ab      	cbz	r3, 80032d0 <_ZN4quan4fifoIhLi3ELb0EE3getERh+0x30>
 80032a4:	781a      	ldrb	r2, [r3, #0]
 80032a6:	700a      	strb	r2, [r1, #0]
 80032a8:	e890 000c 	ldmia.w	r0, {r2, r3}
 80032ac:	b902      	cbnz	r2, 80032b0 <_ZN4quan4fifoIhLi3ELb0EE3getERh+0x10>
 80032ae:	6003      	str	r3, [r0, #0]
 80032b0:	1c59      	adds	r1, r3, #1
 80032b2:	f100 030b 	add.w	r3, r0, #11
 80032b6:	4299      	cmp	r1, r3
 80032b8:	6041      	str	r1, [r0, #4]
 80032ba:	bf04      	itt	eq
 80032bc:	f100 0108 	addeq.w	r1, r0, #8
 80032c0:	6041      	streq	r1, [r0, #4]
 80032c2:	6842      	ldr	r2, [r0, #4]
 80032c4:	6801      	ldr	r1, [r0, #0]
 80032c6:	428a      	cmp	r2, r1
 80032c8:	d104      	bne.n	80032d4 <_ZN4quan4fifoIhLi3ELb0EE3getERh+0x34>
 80032ca:	2300      	movs	r3, #0
 80032cc:	6043      	str	r3, [r0, #4]
 80032ce:	e001      	b.n	80032d4 <_ZN4quan4fifoIhLi3ELb0EE3getERh+0x34>
 80032d0:	4618      	mov	r0, r3
 80032d2:	4770      	bx	lr
 80032d4:	2001      	movs	r0, #1
 80032d6:	4770      	bx	lr

080032d8 <_GLOBAL__sub_I__ZN4quan3uav10fletcher16EPKhm>:
 80032d8:	b538      	push	{r3, r4, r5, lr}
 80032da:	4c13      	ldr	r4, [pc, #76]	; (8003328 <_GLOBAL__sub_I__ZN4quan3uav10fletcher16EPKhm+0x50>)
 80032dc:	2500      	movs	r5, #0
 80032de:	f104 0050 	add.w	r0, r4, #80	; 0x50
 80032e2:	6025      	str	r5, [r4, #0]
 80032e4:	6065      	str	r5, [r4, #4]
 80032e6:	60a5      	str	r5, [r4, #8]
 80032e8:	60e5      	str	r5, [r4, #12]
 80032ea:	6125      	str	r5, [r4, #16]
 80032ec:	6165      	str	r5, [r4, #20]
 80032ee:	f000 f863 	bl	80033b8 <_ZN9FrSky2WSP8protocolIN4quan5stm3211serial_portINS2_5usart6moduleILm1073760256EEELj1000ELj1000ENS1_3mcu3pinINS2_4gpio6moduleILm1073875968EEELm8EEENS8_ISB_Lm9EEEEEvEC1Ev>
 80032f2:	490e      	ldr	r1, [pc, #56]	; (800332c <_GLOBAL__sub_I__ZN4quan3uav10fletcher16EPKhm+0x54>)
 80032f4:	4a0e      	ldr	r2, [pc, #56]	; (8003330 <_GLOBAL__sub_I__ZN4quan3uav10fletcher16EPKhm+0x58>)
 80032f6:	f104 0050 	add.w	r0, r4, #80	; 0x50
 80032fa:	f001 f81f 	bl	800433c <__aeabi_atexit>
 80032fe:	4a0d      	ldr	r2, [pc, #52]	; (8003334 <_GLOBAL__sub_I__ZN4quan3uav10fletcher16EPKhm+0x5c>)
 8003300:	61a5      	str	r5, [r4, #24]
 8003302:	6811      	ldr	r1, [r2, #0]
 8003304:	61e5      	str	r5, [r4, #28]
 8003306:	2000      	movs	r0, #0
 8003308:	f104 037c 	add.w	r3, r4, #124	; 0x7c
 800330c:	67a0      	str	r0, [r4, #120]	; 0x78
 800330e:	f011 0001 	ands.w	r0, r1, #1
 8003312:	6225      	str	r5, [r4, #32]
 8003314:	6763      	str	r3, [r4, #116]	; 0x74
 8003316:	d106      	bne.n	8003326 <_GLOBAL__sub_I__ZN4quan3uav10fletcher16EPKhm+0x4e>
 8003318:	4907      	ldr	r1, [pc, #28]	; (8003338 <_GLOBAL__sub_I__ZN4quan3uav10fletcher16EPKhm+0x60>)
 800331a:	2301      	movs	r3, #1
 800331c:	6013      	str	r3, [r2, #0]
 800331e:	f101 0208 	add.w	r2, r1, #8
 8003322:	600a      	str	r2, [r1, #0]
 8003324:	6048      	str	r0, [r1, #4]
 8003326:	bd38      	pop	{r3, r4, r5, pc}
 8003328:	10000924 	.word	0x10000924
 800332c:	08003349 	.word	0x08003349
 8003330:	100009f0 	.word	0x100009f0
 8003334:	10000f08 	.word	0x10000f08
 8003338:	10000b18 	.word	0x10000b18

0800333c <_ZN9FrSky2WSP14basic_protocolD1Ev>:
 800333c:	4b01      	ldr	r3, [pc, #4]	; (8003344 <_ZN9FrSky2WSP14basic_protocolD1Ev+0x8>)
 800333e:	6003      	str	r3, [r0, #0]
 8003340:	4770      	bx	lr
 8003342:	bf00      	nop
 8003344:	0800dda0 	.word	0x0800dda0

08003348 <_ZN9FrSky2WSP8protocolIN4quan5stm3211serial_portINS2_5usart6moduleILm1073760256EEELj1000ELj1000ENS1_3mcu3pinINS2_4gpio6moduleILm1073875968EEELm8EEENS8_ISB_Lm9EEEEEvED1Ev>:
 8003348:	4b01      	ldr	r3, [pc, #4]	; (8003350 <_ZN9FrSky2WSP8protocolIN4quan5stm3211serial_portINS2_5usart6moduleILm1073760256EEELj1000ELj1000ENS1_3mcu3pinINS2_4gpio6moduleILm1073875968EEELm8EEENS8_ISB_Lm9EEEEEvED1Ev+0x8>)
 800334a:	6003      	str	r3, [r0, #0]
 800334c:	4770      	bx	lr
 800334e:	bf00      	nop
 8003350:	0800dda0 	.word	0x0800dda0

08003354 <_ZNK9FrSky2WSP8protocolIN4quan5stm3211serial_portINS2_5usart6moduleILm1073760256EEELj1000ELj1000ENS1_3mcu3pinINS2_4gpio6moduleILm1073875968EEELm8EEENS8_ISB_Lm9EEEEEvE4goodEv>:
 8003354:	2001      	movs	r0, #1
 8003356:	4770      	bx	lr

08003358 <_ZNK9FrSky2WSP8protocolIN4quan5stm3211serial_portINS2_5usart6moduleILm1073760256EEELj1000ELj1000ENS1_3mcu3pinINS2_4gpio6moduleILm1073875968EEELm8EEENS8_ISB_Lm9EEEEEvE8in_availEv>:
 8003358:	4b0b      	ldr	r3, [pc, #44]	; (8003388 <_ZNK9FrSky2WSP8protocolIN4quan5stm3211serial_portINS2_5usart6moduleILm1073760256EEELj1000ELj1000ENS1_3mcu3pinINS2_4gpio6moduleILm1073875968EEELm8EEENS8_ISB_Lm9EEEEEvE8in_availEv+0x30>)
 800335a:	2200      	movs	r2, #0
 800335c:	601a      	str	r2, [r3, #0]
 800335e:	4b0b      	ldr	r3, [pc, #44]	; (800338c <_ZNK9FrSky2WSP8protocolIN4quan5stm3211serial_portINS2_5usart6moduleILm1073760256EEELj1000ELj1000ENS1_3mcu3pinINS2_4gpio6moduleILm1073875968EEELm8EEENS8_ISB_Lm9EEEEEvE8in_availEv+0x34>)
 8003360:	6858      	ldr	r0, [r3, #4]
 8003362:	b168      	cbz	r0, 8003380 <_ZNK9FrSky2WSP8protocolIN4quan5stm3211serial_portINS2_5usart6moduleILm1073760256EEELj1000ELj1000ENS1_3mcu3pinINS2_4gpio6moduleILm1073875968EEELm8EEENS8_ISB_Lm9EEEEEvE8in_availEv+0x28>
 8003364:	6818      	ldr	r0, [r3, #0]
 8003366:	b148      	cbz	r0, 800337c <_ZNK9FrSky2WSP8protocolIN4quan5stm3211serial_portINS2_5usart6moduleILm1073760256EEELj1000ELj1000ENS1_3mcu3pinINS2_4gpio6moduleILm1073875968EEELm8EEENS8_ISB_Lm9EEEEEvE8in_availEv+0x24>
 8003368:	6819      	ldr	r1, [r3, #0]
 800336a:	685a      	ldr	r2, [r3, #4]
 800336c:	6818      	ldr	r0, [r3, #0]
 800336e:	685b      	ldr	r3, [r3, #4]
 8003370:	4291      	cmp	r1, r2
 8003372:	bf98      	it	ls
 8003374:	f500 707a 	addls.w	r0, r0, #1000	; 0x3e8
 8003378:	1ac0      	subs	r0, r0, r3
 800337a:	e001      	b.n	8003380 <_ZNK9FrSky2WSP8protocolIN4quan5stm3211serial_portINS2_5usart6moduleILm1073760256EEELj1000ELj1000ENS1_3mcu3pinINS2_4gpio6moduleILm1073875968EEELm8EEENS8_ISB_Lm9EEEEEvE8in_availEv+0x28>
 800337c:	f44f 707a 	mov.w	r0, #1000	; 0x3e8
 8003380:	4a01      	ldr	r2, [pc, #4]	; (8003388 <_ZNK9FrSky2WSP8protocolIN4quan5stm3211serial_portINS2_5usart6moduleILm1073760256EEELj1000ELj1000ENS1_3mcu3pinINS2_4gpio6moduleILm1073875968EEELm8EEENS8_ISB_Lm9EEEEEvE8in_availEv+0x30>)
 8003382:	2101      	movs	r1, #1
 8003384:	6011      	str	r1, [r2, #0]
 8003386:	4770      	bx	lr
 8003388:	42090194 	.word	0x42090194
 800338c:	10000f0c 	.word	0x10000f0c

08003390 <_ZN9FrSky2WSP8protocolIN4quan5stm3211serial_portINS2_5usart6moduleILm1073760256EEELj1000ELj1000ENS1_3mcu3pinINS2_4gpio6moduleILm1073875968EEELm8EEENS8_ISB_Lm9EEEEEvED0Ev>:
 8003390:	b510      	push	{r4, lr}
 8003392:	4604      	mov	r4, r0
 8003394:	f7ff ffd8 	bl	8003348 <_ZN9FrSky2WSP8protocolIN4quan5stm3211serial_portINS2_5usart6moduleILm1073760256EEELj1000ELj1000ENS1_3mcu3pinINS2_4gpio6moduleILm1073875968EEELm8EEENS8_ISB_Lm9EEEEEvED1Ev>
 8003398:	4620      	mov	r0, r4
 800339a:	f7fe f8e4 	bl	8001566 <_ZdlPv>
 800339e:	4620      	mov	r0, r4
 80033a0:	bd10      	pop	{r4, pc}
	...

080033a4 <_ZN9FrSky2WSP14basic_protocolD0Ev>:
 80033a4:	4b03      	ldr	r3, [pc, #12]	; (80033b4 <_ZN9FrSky2WSP14basic_protocolD0Ev+0x10>)
 80033a6:	b510      	push	{r4, lr}
 80033a8:	4604      	mov	r4, r0
 80033aa:	6003      	str	r3, [r0, #0]
 80033ac:	f7fe f8db 	bl	8001566 <_ZdlPv>
 80033b0:	4620      	mov	r0, r4
 80033b2:	bd10      	pop	{r4, pc}
 80033b4:	0800dda0 	.word	0x0800dda0

080033b8 <_ZN9FrSky2WSP8protocolIN4quan5stm3211serial_portINS2_5usart6moduleILm1073760256EEELj1000ELj1000ENS1_3mcu3pinINS2_4gpio6moduleILm1073875968EEELm8EEENS8_ISB_Lm9EEEEEvEC1Ev>:
 80033b8:	b510      	push	{r4, lr}
 80033ba:	4604      	mov	r4, r0
 80033bc:	f7fd ff54 	bl	8001268 <_ZN9FrSky2WSP14basic_protocolC1Ev>
 80033c0:	4b01      	ldr	r3, [pc, #4]	; (80033c8 <_ZN9FrSky2WSP8protocolIN4quan5stm3211serial_portINS2_5usart6moduleILm1073760256EEELj1000ELj1000ENS1_3mcu3pinINS2_4gpio6moduleILm1073875968EEELm8EEENS8_ISB_Lm9EEEEEvEC1Ev+0x10>)
 80033c2:	4620      	mov	r0, r4
 80033c4:	6023      	str	r3, [r4, #0]
 80033c6:	bd10      	pop	{r4, pc}
 80033c8:	0800dd80 	.word	0x0800dd80

080033cc <_ZN4quan5stm3211serial_portINS0_5usart6moduleILm1073760256EEELj1000ELj1000ENS_3mcu3pinINS0_4gpio6moduleILm1073875968EEELm8EEENS6_IS9_Lm9EEEE3getEv>:
 80033cc:	4b11      	ldr	r3, [pc, #68]	; (8003414 <_ZN4quan5stm3211serial_portINS0_5usart6moduleILm1073760256EEELj1000ELj1000ENS_3mcu3pinINS0_4gpio6moduleILm1073875968EEELm8EEENS6_IS9_Lm9EEEE3getEv+0x48>)
 80033ce:	2200      	movs	r2, #0
 80033d0:	601a      	str	r2, [r3, #0]
 80033d2:	4b11      	ldr	r3, [pc, #68]	; (8003418 <_ZN4quan5stm3211serial_portINS0_5usart6moduleILm1073760256EEELj1000ELj1000ENS_3mcu3pinINS0_4gpio6moduleILm1073875968EEELm8EEENS6_IS9_Lm9EEEE3getEv+0x4c>)
 80033d4:	6858      	ldr	r0, [r3, #4]
 80033d6:	b1c0      	cbz	r0, 800340a <_ZN4quan5stm3211serial_portINS0_5usart6moduleILm1073760256EEELj1000ELj1000ENS_3mcu3pinINS0_4gpio6moduleILm1073875968EEELm8EEENS6_IS9_Lm9EEEE3getEv+0x3e>
 80033d8:	6858      	ldr	r0, [r3, #4]
 80033da:	6819      	ldr	r1, [r3, #0]
 80033dc:	7800      	ldrb	r0, [r0, #0]
 80033de:	b909      	cbnz	r1, 80033e4 <_ZN4quan5stm3211serial_portINS0_5usart6moduleILm1073760256EEELj1000ELj1000ENS_3mcu3pinINS0_4gpio6moduleILm1073875968EEELm8EEENS6_IS9_Lm9EEEE3getEv+0x18>
 80033e0:	685a      	ldr	r2, [r3, #4]
 80033e2:	601a      	str	r2, [r3, #0]
 80033e4:	6859      	ldr	r1, [r3, #4]
 80033e6:	4a0c      	ldr	r2, [pc, #48]	; (8003418 <_ZN4quan5stm3211serial_portINS0_5usart6moduleILm1073760256EEELj1000ELj1000ENS_3mcu3pinINS0_4gpio6moduleILm1073875968EEELm8EEENS6_IS9_Lm9EEEE3getEv+0x4c>)
 80033e8:	3101      	adds	r1, #1
 80033ea:	6059      	str	r1, [r3, #4]
 80033ec:	6859      	ldr	r1, [r3, #4]
 80033ee:	f502 737c 	add.w	r3, r2, #1008	; 0x3f0
 80033f2:	4299      	cmp	r1, r3
 80033f4:	bf04      	itt	eq
 80033f6:	f102 0308 	addeq.w	r3, r2, #8
 80033fa:	6053      	streq	r3, [r2, #4]
 80033fc:	4b06      	ldr	r3, [pc, #24]	; (8003418 <_ZN4quan5stm3211serial_portINS0_5usart6moduleILm1073760256EEELj1000ELj1000ENS_3mcu3pinINS0_4gpio6moduleILm1073875968EEELm8EEENS6_IS9_Lm9EEEE3getEv+0x4c>)
 80033fe:	6859      	ldr	r1, [r3, #4]
 8003400:	681a      	ldr	r2, [r3, #0]
 8003402:	4291      	cmp	r1, r2
 8003404:	d101      	bne.n	800340a <_ZN4quan5stm3211serial_portINS0_5usart6moduleILm1073760256EEELj1000ELj1000ENS_3mcu3pinINS0_4gpio6moduleILm1073875968EEELm8EEENS6_IS9_Lm9EEEE3getEv+0x3e>
 8003406:	2100      	movs	r1, #0
 8003408:	6059      	str	r1, [r3, #4]
 800340a:	4b02      	ldr	r3, [pc, #8]	; (8003414 <_ZN4quan5stm3211serial_portINS0_5usart6moduleILm1073760256EEELj1000ELj1000ENS_3mcu3pinINS0_4gpio6moduleILm1073875968EEELm8EEENS6_IS9_Lm9EEEE3getEv+0x48>)
 800340c:	2201      	movs	r2, #1
 800340e:	601a      	str	r2, [r3, #0]
 8003410:	4770      	bx	lr
 8003412:	bf00      	nop
 8003414:	42090194 	.word	0x42090194
 8003418:	10000f0c 	.word	0x10000f0c

0800341c <_ZN9FrSky2WSP8protocolIN4quan5stm3211serial_portINS2_5usart6moduleILm1073760256EEELj1000ELj1000ENS1_3mcu3pinINS2_4gpio6moduleILm1073875968EEELm8EEENS8_ISB_Lm9EEEEEvE7raw_getEv>:
 800341c:	b538      	push	{r3, r4, r5, lr}
 800341e:	6905      	ldr	r5, [r0, #16]
 8003420:	4604      	mov	r4, r0
 8003422:	f7ff ffd3 	bl	80033cc <_ZN4quan5stm3211serial_portINS0_5usart6moduleILm1073760256EEELj1000ELj1000ENS_3mcu3pinINS0_4gpio6moduleILm1073875968EEELm8EEENS6_IS9_Lm9EEEE3getEv>
 8003426:	1964      	adds	r4, r4, r5
 8003428:	7160      	strb	r0, [r4, #5]
 800342a:	bd38      	pop	{r3, r4, r5, pc}

0800342c <_ZN9FrSky2WSP8protocolIN4quan5stm3211serial_portINS2_5usart6moduleILm1073760256EEELj1000ELj1000ENS1_3mcu3pinINS2_4gpio6moduleILm1073875968EEELm8EEENS8_ISB_Lm9EEEEEvE3getEv>:
 800342c:	b538      	push	{r3, r4, r5, lr}
 800342e:	4604      	mov	r4, r0
 8003430:	6905      	ldr	r5, [r0, #16]
 8003432:	f7ff ffcb 	bl	80033cc <_ZN4quan5stm3211serial_portINS0_5usart6moduleILm1073760256EEELj1000ELj1000ENS_3mcu3pinINS0_4gpio6moduleILm1073875968EEELm8EEENS6_IS9_Lm9EEEE3getEv>
 8003436:	6923      	ldr	r3, [r4, #16]
 8003438:	1965      	adds	r5, r4, r5
 800343a:	18e4      	adds	r4, r4, r3
 800343c:	7168      	strb	r0, [r5, #5]
 800343e:	7960      	ldrb	r0, [r4, #5]
 8003440:	287d      	cmp	r0, #125	; 0x7d
 8003442:	d104      	bne.n	800344e <_ZN9FrSky2WSP8protocolIN4quan5stm3211serial_portINS2_5usart6moduleILm1073760256EEELj1000ELj1000ENS1_3mcu3pinINS2_4gpio6moduleILm1073875968EEELm8EEENS8_ISB_Lm9EEEEEvE3getEv+0x22>
 8003444:	f7ff ffc2 	bl	80033cc <_ZN4quan5stm3211serial_portINS0_5usart6moduleILm1073760256EEELj1000ELj1000ENS_3mcu3pinINS0_4gpio6moduleILm1073875968EEELm8EEENS6_IS9_Lm9EEEE3getEv>
 8003448:	f080 0120 	eor.w	r1, r0, #32
 800344c:	7161      	strb	r1, [r4, #5]
 800344e:	bd38      	pop	{r3, r4, r5, pc}

08003450 <_GLOBAL__sub_I__ZN9FrSky2WSP14basic_protocolC2Ev>:
 8003450:	4a06      	ldr	r2, [pc, #24]	; (800346c <_GLOBAL__sub_I__ZN9FrSky2WSP14basic_protocolC2Ev+0x1c>)
 8003452:	6813      	ldr	r3, [r2, #0]
 8003454:	f013 0101 	ands.w	r1, r3, #1
 8003458:	d106      	bne.n	8003468 <_GLOBAL__sub_I__ZN9FrSky2WSP14basic_protocolC2Ev+0x18>
 800345a:	4b05      	ldr	r3, [pc, #20]	; (8003470 <_GLOBAL__sub_I__ZN9FrSky2WSP14basic_protocolC2Ev+0x20>)
 800345c:	2001      	movs	r0, #1
 800345e:	6010      	str	r0, [r2, #0]
 8003460:	f103 0208 	add.w	r2, r3, #8
 8003464:	601a      	str	r2, [r3, #0]
 8003466:	6059      	str	r1, [r3, #4]
 8003468:	4770      	bx	lr
 800346a:	bf00      	nop
 800346c:	100012fc 	.word	0x100012fc
 8003470:	10000f0c 	.word	0x10000f0c

08003474 <_ZN4quan5stm3213module_enableINS0_4gpio6moduleILm1073875968EEEEENS_6where_INS_11is_model_ofINS0_4GpioET_EEvE4typeEv>:
 8003474:	4b02      	ldr	r3, [pc, #8]	; (8003480 <_ZN4quan5stm3213module_enableINS0_4gpio6moduleILm1073875968EEEEENS_6where_INS_11is_model_ofINS0_4GpioET_EEvE4typeEv+0xc>)
 8003476:	6b1a      	ldr	r2, [r3, #48]	; 0x30
 8003478:	f042 0008 	orr.w	r0, r2, #8
 800347c:	6318      	str	r0, [r3, #48]	; 0x30
 800347e:	4770      	bx	lr
 8003480:	40023800 	.word	0x40023800

08003484 <_ZNK4quan4meta4impl27for_each_type_sequence_implINS0_13type_sequenceIINS_5stm3210periph_regINS4_4gpio6moduleILm1073875968EEELm8EmEENS5_IS8_Lm12EmEENS5_IS8_Lm16EmEENS5_IS8_Lm20EmEENS5_IS8_Lm24EmEENS5_IS8_Lm28EmEENS5_IS8_Lm32EmEENS5_IS8_Lm36EmEEEEENS4_6detail24apply_periph_reg_actionsIS8_NS3_IINSI_17periph_reg_actionINS5_IS8_Lm0EmEENS0_6bit_orELm268435456EEENSK_ISL_NS0_7bit_andELm3758096383EEENSK_INS5_IS8_Lm4EmEESM_Lm0EEENSK_ISQ_SO_Lm4294950911EEENSK_ISA_SM_Lm0EEENSK_ISA_SO_Lm3489660927EEENSK_IS9_SM_Lm0EEENSK_IS9_SO_Lm3489660927EEENSK_ISC_SO_Lm4294950911EEEEEEEELb1EvEclEv>:
 8003484:	4b06      	ldr	r3, [pc, #24]	; (80034a0 <_ZNK4quan4meta4impl27for_each_type_sequence_implINS0_13type_sequenceIINS_5stm3210periph_regINS4_4gpio6moduleILm1073875968EEELm8EmEENS5_IS8_Lm12EmEENS5_IS8_Lm16EmEENS5_IS8_Lm20EmEENS5_IS8_Lm24EmEENS5_IS8_Lm28EmEENS5_IS8_Lm32EmEENS5_IS8_Lm36EmEEEEENS4_6detail24apply_periph_reg_actionsIS8_NS3_IINSI_17periph_reg_actionINS5_IS8_Lm0EmEENS0_6bit_orELm268435456EEENSK_ISL_NS0_7bit_andELm3758096383EEENSK_INS5_IS8_Lm4EmEESM_Lm0EEENSK_ISQ_SO_Lm4294950911EEENSK_ISA_SM_Lm0EEENSK_ISA_SO_Lm3489660927EEENSK_IS9_SM_Lm0EEENSK_IS9_SO_Lm3489660927EEENSK_ISC_SO_Lm4294950911EEEEEEEELb1EvEclEv+0x1c>)
 8003486:	689a      	ldr	r2, [r3, #8]
 8003488:	f022 5040 	bic.w	r0, r2, #805306368	; 0x30000000
 800348c:	6098      	str	r0, [r3, #8]
 800348e:	68d9      	ldr	r1, [r3, #12]
 8003490:	f021 5240 	bic.w	r2, r1, #805306368	; 0x30000000
 8003494:	60da      	str	r2, [r3, #12]
 8003496:	6958      	ldr	r0, [r3, #20]
 8003498:	f420 4180 	bic.w	r1, r0, #16384	; 0x4000
 800349c:	6159      	str	r1, [r3, #20]
 800349e:	4770      	bx	lr
 80034a0:	40020c00 	.word	0x40020c00

080034a4 <_ZNK4quan4meta4impl27for_each_type_sequence_implINS0_13type_sequenceIINS_5stm3210periph_regINS4_4gpio6moduleILm1073875968EEELm8EmEENS5_IS8_Lm12EmEENS5_IS8_Lm16EmEENS5_IS8_Lm20EmEENS5_IS8_Lm24EmEENS5_IS8_Lm28EmEENS5_IS8_Lm32EmEENS5_IS8_Lm36EmEEEEENS4_6detail24apply_periph_reg_actionsIS8_NS3_IINSI_17periph_reg_actionINS5_IS8_Lm0EmEENS0_6bit_orELm1073741824EEENSK_ISL_NS0_7bit_andELm2147483647EEENSK_INS5_IS8_Lm4EmEESM_Lm0EEENSK_ISQ_SO_Lm4294934527EEENSK_ISA_SM_Lm0EEENSK_ISA_SO_Lm1073741823EEENSK_IS9_SM_Lm0EEENSK_IS9_SO_Lm1073741823EEENSK_ISC_SO_Lm4294934527EEEEEEEELb1EvEclEv>:
 80034a4:	4b06      	ldr	r3, [pc, #24]	; (80034c0 <_ZNK4quan4meta4impl27for_each_type_sequence_implINS0_13type_sequenceIINS_5stm3210periph_regINS4_4gpio6moduleILm1073875968EEELm8EmEENS5_IS8_Lm12EmEENS5_IS8_Lm16EmEENS5_IS8_Lm20EmEENS5_IS8_Lm24EmEENS5_IS8_Lm28EmEENS5_IS8_Lm32EmEENS5_IS8_Lm36EmEEEEENS4_6detail24apply_periph_reg_actionsIS8_NS3_IINSI_17periph_reg_actionINS5_IS8_Lm0EmEENS0_6bit_orELm1073741824EEENSK_ISL_NS0_7bit_andELm2147483647EEENSK_INS5_IS8_Lm4EmEESM_Lm0EEENSK_ISQ_SO_Lm4294934527EEENSK_ISA_SM_Lm0EEENSK_ISA_SO_Lm1073741823EEENSK_IS9_SM_Lm0EEENSK_IS9_SO_Lm1073741823EEENSK_ISC_SO_Lm4294934527EEEEEEEELb1EvEclEv+0x1c>)
 80034a6:	689a      	ldr	r2, [r3, #8]
 80034a8:	f022 4040 	bic.w	r0, r2, #3221225472	; 0xc0000000
 80034ac:	6098      	str	r0, [r3, #8]
 80034ae:	68d9      	ldr	r1, [r3, #12]
 80034b0:	f021 4240 	bic.w	r2, r1, #3221225472	; 0xc0000000
 80034b4:	60da      	str	r2, [r3, #12]
 80034b6:	6958      	ldr	r0, [r3, #20]
 80034b8:	f420 4100 	bic.w	r1, r0, #32768	; 0x8000
 80034bc:	6159      	str	r1, [r3, #20]
 80034be:	4770      	bx	lr
 80034c0:	40020c00 	.word	0x40020c00

080034c4 <_ZNK4quan4meta4impl27for_each_type_sequence_implINS0_13type_sequenceIINS_5stm3210periph_regINS4_4gpio6moduleILm1073875968EEELm0EmEENS5_IS8_Lm4EmEENS5_IS8_Lm8EmEENS5_IS8_Lm12EmEENS5_IS8_Lm16EmEENS5_IS8_Lm20EmEENS5_IS8_Lm24EmEENS5_IS8_Lm28EmEENS5_IS8_Lm32EmEENS5_IS8_Lm36EmEEEEENS4_6detail24apply_periph_reg_actionsIS8_NS3_IINSK_17periph_reg_actionIS9_NS0_6bit_orELm1073741824EEENSM_IS9_NS0_7bit_andELm2147483647EEENSM_ISA_SN_Lm0EEENSM_ISA_SP_Lm4294934527EEENSM_ISC_SN_Lm0EEENSM_ISC_SP_Lm1073741823EEENSM_ISB_SN_Lm0EEENSM_ISB_SP_Lm1073741823EEENSM_ISE_SP_Lm4294934527EEEEEEEELb1EvEclEv>:
 80034c4:	4b07      	ldr	r3, [pc, #28]	; (80034e4 <_ZNK4quan4meta4impl27for_each_type_sequence_implINS0_13type_sequenceIINS_5stm3210periph_regINS4_4gpio6moduleILm1073875968EEELm0EmEENS5_IS8_Lm4EmEENS5_IS8_Lm8EmEENS5_IS8_Lm12EmEENS5_IS8_Lm16EmEENS5_IS8_Lm20EmEENS5_IS8_Lm24EmEENS5_IS8_Lm28EmEENS5_IS8_Lm32EmEENS5_IS8_Lm36EmEEEEENS4_6detail24apply_periph_reg_actionsIS8_NS3_IINSK_17periph_reg_actionIS9_NS0_6bit_orELm1073741824EEENSM_IS9_NS0_7bit_andELm2147483647EEENSM_ISA_SN_Lm0EEENSM_ISA_SP_Lm4294934527EEENSM_ISC_SN_Lm0EEENSM_ISC_SP_Lm1073741823EEENSM_ISB_SN_Lm0EEENSM_ISB_SP_Lm1073741823EEENSM_ISE_SP_Lm4294934527EEEEEEEELb1EvEclEv+0x20>)
 80034c6:	b507      	push	{r0, r1, r2, lr}
 80034c8:	681a      	ldr	r2, [r3, #0]
 80034ca:	f022 4040 	bic.w	r0, r2, #3221225472	; 0xc0000000
 80034ce:	f040 4180 	orr.w	r1, r0, #1073741824	; 0x40000000
 80034d2:	6019      	str	r1, [r3, #0]
 80034d4:	685a      	ldr	r2, [r3, #4]
 80034d6:	f422 4000 	bic.w	r0, r2, #32768	; 0x8000
 80034da:	6058      	str	r0, [r3, #4]
 80034dc:	a801      	add	r0, sp, #4
 80034de:	f7ff ffe1 	bl	80034a4 <_ZNK4quan4meta4impl27for_each_type_sequence_implINS0_13type_sequenceIINS_5stm3210periph_regINS4_4gpio6moduleILm1073875968EEELm8EmEENS5_IS8_Lm12EmEENS5_IS8_Lm16EmEENS5_IS8_Lm20EmEENS5_IS8_Lm24EmEENS5_IS8_Lm28EmEENS5_IS8_Lm32EmEENS5_IS8_Lm36EmEEEEENS4_6detail24apply_periph_reg_actionsIS8_NS3_IINSI_17periph_reg_actionINS5_IS8_Lm0EmEENS0_6bit_orELm1073741824EEENSK_ISL_NS0_7bit_andELm2147483647EEENSK_INS5_IS8_Lm4EmEESM_Lm0EEENSK_ISQ_SO_Lm4294934527EEENSK_ISA_SM_Lm0EEENSK_ISA_SO_Lm1073741823EEENSK_IS9_SM_Lm0EEENSK_IS9_SO_Lm1073741823EEENSK_ISC_SO_Lm4294934527EEEEEEEELb1EvEclEv>
 80034e2:	bd0e      	pop	{r1, r2, r3, pc}
 80034e4:	40020c00 	.word	0x40020c00

080034e8 <_ZNK4quan4meta4impl27for_each_type_sequence_implINS0_13type_sequenceIINS_5stm3210periph_regINS4_4gpio6moduleILm1073875968EEELm8EmEENS5_IS8_Lm12EmEENS5_IS8_Lm16EmEENS5_IS8_Lm20EmEENS5_IS8_Lm24EmEENS5_IS8_Lm28EmEENS5_IS8_Lm32EmEENS5_IS8_Lm36EmEEEEENS4_6detail24apply_periph_reg_actionsIS8_NS3_IINSI_17periph_reg_actionINS5_IS8_Lm0EmEENS0_6bit_orELm16777216EEENSK_ISL_NS0_7bit_andELm4261412863EEENSK_INS5_IS8_Lm4EmEESM_Lm0EEENSK_ISQ_SO_Lm4294963199EEENSK_ISA_SM_Lm0EEENSK_ISA_SO_Lm4244635647EEENSK_IS9_SM_Lm0EEENSK_IS9_SO_Lm4244635647EEENSK_ISC_SO_Lm4294963199EEEEEEEELb1EvEclEv>:
 80034e8:	4b06      	ldr	r3, [pc, #24]	; (8003504 <_ZNK4quan4meta4impl27for_each_type_sequence_implINS0_13type_sequenceIINS_5stm3210periph_regINS4_4gpio6moduleILm1073875968EEELm8EmEENS5_IS8_Lm12EmEENS5_IS8_Lm16EmEENS5_IS8_Lm20EmEENS5_IS8_Lm24EmEENS5_IS8_Lm28EmEENS5_IS8_Lm32EmEENS5_IS8_Lm36EmEEEEENS4_6detail24apply_periph_reg_actionsIS8_NS3_IINSI_17periph_reg_actionINS5_IS8_Lm0EmEENS0_6bit_orELm16777216EEENSK_ISL_NS0_7bit_andELm4261412863EEENSK_INS5_IS8_Lm4EmEESM_Lm0EEENSK_ISQ_SO_Lm4294963199EEENSK_ISA_SM_Lm0EEENSK_ISA_SO_Lm4244635647EEENSK_IS9_SM_Lm0EEENSK_IS9_SO_Lm4244635647EEENSK_ISC_SO_Lm4294963199EEEEEEEELb1EvEclEv+0x1c>)
 80034ea:	689a      	ldr	r2, [r3, #8]
 80034ec:	f022 7040 	bic.w	r0, r2, #50331648	; 0x3000000
 80034f0:	6098      	str	r0, [r3, #8]
 80034f2:	68d9      	ldr	r1, [r3, #12]
 80034f4:	f021 7240 	bic.w	r2, r1, #50331648	; 0x3000000
 80034f8:	60da      	str	r2, [r3, #12]
 80034fa:	6958      	ldr	r0, [r3, #20]
 80034fc:	f420 5180 	bic.w	r1, r0, #4096	; 0x1000
 8003500:	6159      	str	r1, [r3, #20]
 8003502:	4770      	bx	lr
 8003504:	40020c00 	.word	0x40020c00

08003508 <_ZNK4quan4meta4impl27for_each_type_sequence_implINS0_13type_sequenceIINS_5stm3210periph_regINS4_4gpio6moduleILm1073875968EEELm0EmEENS5_IS8_Lm4EmEENS5_IS8_Lm8EmEENS5_IS8_Lm12EmEENS5_IS8_Lm16EmEENS5_IS8_Lm20EmEENS5_IS8_Lm24EmEENS5_IS8_Lm28EmEENS5_IS8_Lm32EmEENS5_IS8_Lm36EmEEEEENS4_6detail24apply_periph_reg_actionsIS8_NS3_IINSK_17periph_reg_actionIS9_NS0_6bit_orELm16777216EEENSM_IS9_NS0_7bit_andELm4261412863EEENSM_ISA_SN_Lm0EEENSM_ISA_SP_Lm4294963199EEENSM_ISC_SN_Lm0EEENSM_ISC_SP_Lm4244635647EEENSM_ISB_SN_Lm0EEENSM_ISB_SP_Lm4244635647EEENSM_ISE_SP_Lm4294963199EEEEEEEELb1EvEclEv>:
 8003508:	4b07      	ldr	r3, [pc, #28]	; (8003528 <_ZNK4quan4meta4impl27for_each_type_sequence_implINS0_13type_sequenceIINS_5stm3210periph_regINS4_4gpio6moduleILm1073875968EEELm0EmEENS5_IS8_Lm4EmEENS5_IS8_Lm8EmEENS5_IS8_Lm12EmEENS5_IS8_Lm16EmEENS5_IS8_Lm20EmEENS5_IS8_Lm24EmEENS5_IS8_Lm28EmEENS5_IS8_Lm32EmEENS5_IS8_Lm36EmEEEEENS4_6detail24apply_periph_reg_actionsIS8_NS3_IINSK_17periph_reg_actionIS9_NS0_6bit_orELm16777216EEENSM_IS9_NS0_7bit_andELm4261412863EEENSM_ISA_SN_Lm0EEENSM_ISA_SP_Lm4294963199EEENSM_ISC_SN_Lm0EEENSM_ISC_SP_Lm4244635647EEENSM_ISB_SN_Lm0EEENSM_ISB_SP_Lm4244635647EEENSM_ISE_SP_Lm4294963199EEEEEEEELb1EvEclEv+0x20>)
 800350a:	b507      	push	{r0, r1, r2, lr}
 800350c:	681a      	ldr	r2, [r3, #0]
 800350e:	f022 7040 	bic.w	r0, r2, #50331648	; 0x3000000
 8003512:	f040 7180 	orr.w	r1, r0, #16777216	; 0x1000000
 8003516:	6019      	str	r1, [r3, #0]
 8003518:	685a      	ldr	r2, [r3, #4]
 800351a:	f422 5080 	bic.w	r0, r2, #4096	; 0x1000
 800351e:	6058      	str	r0, [r3, #4]
 8003520:	a801      	add	r0, sp, #4
 8003522:	f7ff ffe1 	bl	80034e8 <_ZNK4quan4meta4impl27for_each_type_sequence_implINS0_13type_sequenceIINS_5stm3210periph_regINS4_4gpio6moduleILm1073875968EEELm8EmEENS5_IS8_Lm12EmEENS5_IS8_Lm16EmEENS5_IS8_Lm20EmEENS5_IS8_Lm24EmEENS5_IS8_Lm28EmEENS5_IS8_Lm32EmEENS5_IS8_Lm36EmEEEEENS4_6detail24apply_periph_reg_actionsIS8_NS3_IINSI_17periph_reg_actionINS5_IS8_Lm0EmEENS0_6bit_orELm16777216EEENSK_ISL_NS0_7bit_andELm4261412863EEENSK_INS5_IS8_Lm4EmEESM_Lm0EEENSK_ISQ_SO_Lm4294963199EEENSK_ISA_SM_Lm0EEENSK_ISA_SO_Lm4244635647EEENSK_IS9_SM_Lm0EEENSK_IS9_SO_Lm4244635647EEENSK_ISC_SO_Lm4294963199EEEEEEEELb1EvEclEv>
 8003526:	bd0e      	pop	{r1, r2, r3, pc}
 8003528:	40020c00 	.word	0x40020c00

0800352c <_ZNK4quan4meta4impl27for_each_type_sequence_implINS0_13type_sequenceIINS_5stm3210periph_regINS4_4gpio6moduleILm1073875968EEELm8EmEENS5_IS8_Lm12EmEENS5_IS8_Lm16EmEENS5_IS8_Lm20EmEENS5_IS8_Lm24EmEENS5_IS8_Lm28EmEENS5_IS8_Lm32EmEENS5_IS8_Lm36EmEEEEENS4_6detail24apply_periph_reg_actionsIS8_NS3_IINSI_17periph_reg_actionINS5_IS8_Lm0EmEENS0_6bit_orELm67108864EEENSK_ISL_NS0_7bit_andELm4160749567EEENSK_INS5_IS8_Lm4EmEESM_Lm0EEENSK_ISQ_SO_Lm4294959103EEENSK_ISA_SM_Lm0EEENSK_ISA_SO_Lm4093640703EEENSK_IS9_SM_Lm0EEENSK_IS9_SO_Lm4093640703EEENSK_ISC_SO_Lm4294959103EEEEEEEELb1EvEclEv>:
 800352c:	4b06      	ldr	r3, [pc, #24]	; (8003548 <_ZNK4quan4meta4impl27for_each_type_sequence_implINS0_13type_sequenceIINS_5stm3210periph_regINS4_4gpio6moduleILm1073875968EEELm8EmEENS5_IS8_Lm12EmEENS5_IS8_Lm16EmEENS5_IS8_Lm20EmEENS5_IS8_Lm24EmEENS5_IS8_Lm28EmEENS5_IS8_Lm32EmEENS5_IS8_Lm36EmEEEEENS4_6detail24apply_periph_reg_actionsIS8_NS3_IINSI_17periph_reg_actionINS5_IS8_Lm0EmEENS0_6bit_orELm67108864EEENSK_ISL_NS0_7bit_andELm4160749567EEENSK_INS5_IS8_Lm4EmEESM_Lm0EEENSK_ISQ_SO_Lm4294959103EEENSK_ISA_SM_Lm0EEENSK_ISA_SO_Lm4093640703EEENSK_IS9_SM_Lm0EEENSK_IS9_SO_Lm4093640703EEENSK_ISC_SO_Lm4294959103EEEEEEEELb1EvEclEv+0x1c>)
 800352e:	689a      	ldr	r2, [r3, #8]
 8003530:	f022 6040 	bic.w	r0, r2, #201326592	; 0xc000000
 8003534:	6098      	str	r0, [r3, #8]
 8003536:	68d9      	ldr	r1, [r3, #12]
 8003538:	f021 6240 	bic.w	r2, r1, #201326592	; 0xc000000
 800353c:	60da      	str	r2, [r3, #12]
 800353e:	6958      	ldr	r0, [r3, #20]
 8003540:	f420 5100 	bic.w	r1, r0, #8192	; 0x2000
 8003544:	6159      	str	r1, [r3, #20]
 8003546:	4770      	bx	lr
 8003548:	40020c00 	.word	0x40020c00

0800354c <_GLOBAL__sub_I_tracking_led>:
 800354c:	4b07      	ldr	r3, [pc, #28]	; (800356c <_GLOBAL__sub_I_tracking_led+0x20>)
 800354e:	2200      	movs	r2, #0
 8003550:	60da      	str	r2, [r3, #12]
 8003552:	611a      	str	r2, [r3, #16]
 8003554:	615a      	str	r2, [r3, #20]
 8003556:	625a      	str	r2, [r3, #36]	; 0x24
 8003558:	629a      	str	r2, [r3, #40]	; 0x28
 800355a:	62da      	str	r2, [r3, #44]	; 0x2c
 800355c:	619a      	str	r2, [r3, #24]
 800355e:	61da      	str	r2, [r3, #28]
 8003560:	621a      	str	r2, [r3, #32]
 8003562:	601a      	str	r2, [r3, #0]
 8003564:	605a      	str	r2, [r3, #4]
 8003566:	609a      	str	r2, [r3, #8]
 8003568:	4770      	bx	lr
 800356a:	bf00      	nop
 800356c:	100009b0 	.word	0x100009b0

08003570 <_ZNK12input_buttonIN4quan3mcu3pinINS0_5stm324gpio6moduleILm1073872896EEELm0EEEE17get_instant_stateEv>:
 8003570:	4b02      	ldr	r3, [pc, #8]	; (800357c <_ZNK12input_buttonIN4quan3mcu3pinINS0_5stm324gpio6moduleILm1073872896EEELm0EEEE17get_instant_stateEv+0xc>)
 8003572:	6818      	ldr	r0, [r3, #0]
 8003574:	3000      	adds	r0, #0
 8003576:	bf18      	it	ne
 8003578:	2001      	movne	r0, #1
 800357a:	4770      	bx	lr
 800357c:	42400200 	.word	0x42400200

08003580 <_ZNK4quan11impl_detail23arithmetic_convert_implIlfvEclERKf>:
 8003580:	b510      	push	{r4, lr}
 8003582:	eddf 7a25 	vldr	s15, [pc, #148]	; 8003618 <_ZNK4quan11impl_detail23arithmetic_convert_implIlfvEclERKf+0x98>
 8003586:	ed2d 8b02 	vpush	{d8}
 800358a:	ed91 8a00 	vldr	s16, [r1]
 800358e:	eeb4 8ae7 	vcmpe.f32	s16, s15
 8003592:	eef1 fa10 	vmrs	APSR_nzcv, fpscr
 8003596:	b082      	sub	sp, #8
 8003598:	db06      	blt.n	80035a8 <_ZNK4quan11impl_detail23arithmetic_convert_implIlfvEclERKf+0x28>
 800359a:	ed9f 0a20 	vldr	s0, [pc, #128]	; 800361c <_ZNK4quan11impl_detail23arithmetic_convert_implIlfvEclERKf+0x9c>
 800359e:	eeb4 8ac0 	vcmpe.f32	s16, s0
 80035a2:	eef1 fa10 	vmrs	APSR_nzcv, fpscr
 80035a6:	d909      	bls.n	80035bc <_ZNK4quan11impl_detail23arithmetic_convert_implIlfvEclERKf+0x3c>
 80035a8:	eeb5 8ac0 	vcmpe.f32	s16, #0.0
 80035ac:	eef1 fa10 	vmrs	APSR_nzcv, fpscr
 80035b0:	bfcc      	ite	gt
 80035b2:	f06f 4000 	mvngt.w	r0, #2147483648	; 0x80000000
 80035b6:	f04f 4000 	movle.w	r0, #2147483648	; 0x80000000
 80035ba:	e028      	b.n	800360e <_ZNK4quan11impl_detail23arithmetic_convert_implIlfvEclERKf+0x8e>
 80035bc:	eeb5 8ac0 	vcmpe.f32	s16, #0.0
 80035c0:	eef1 fa10 	vmrs	APSR_nzcv, fpscr
 80035c4:	db1e      	blt.n	8003604 <_ZNK4quan11impl_detail23arithmetic_convert_implIlfvEclERKf+0x84>
 80035c6:	eeb0 0a48 	vmov.f32	s0, s16
 80035ca:	2401      	movs	r4, #1
 80035cc:	a802      	add	r0, sp, #8
 80035ce:	2300      	movs	r3, #0
 80035d0:	f840 3d04 	str.w	r3, [r0, #-4]!
 80035d4:	f001 f852 	bl	800467c <modff>
 80035d8:	eef6 0a00 	vmov.f32	s1, #96	; 0x60
 80035dc:	eeb4 0ae0 	vcmpe.f32	s0, s1
 80035e0:	eebd 8ac8 	vcvt.s32.f32	s16, s16
 80035e4:	eef1 fa10 	vmrs	APSR_nzcv, fpscr
 80035e8:	ee18 0a10 	vmov	r0, s16
 80035ec:	d40f      	bmi.n	800360e <_ZNK4quan11impl_detail23arithmetic_convert_implIlfvEclERKf+0x8e>
 80035ee:	dc07      	bgt.n	8003600 <_ZNK4quan11impl_detail23arithmetic_convert_implIlfvEclERKf+0x80>
 80035f0:	ed9d 1a01 	vldr	s2, [sp, #4]
 80035f4:	eefd 1ac1 	vcvt.s32.f32	s3, s2
 80035f8:	ee11 1a90 	vmov	r1, s3
 80035fc:	07cb      	lsls	r3, r1, #31
 80035fe:	d506      	bpl.n	800360e <_ZNK4quan11impl_detail23arithmetic_convert_implIlfvEclERKf+0x8e>
 8003600:	1900      	adds	r0, r0, r4
 8003602:	e004      	b.n	800360e <_ZNK4quan11impl_detail23arithmetic_convert_implIlfvEclERKf+0x8e>
 8003604:	eeb1 0a48 	vneg.f32	s0, s16
 8003608:	f04f 34ff 	mov.w	r4, #4294967295
 800360c:	e7de      	b.n	80035cc <_ZNK4quan11impl_detail23arithmetic_convert_implIlfvEclERKf+0x4c>
 800360e:	b002      	add	sp, #8
 8003610:	ecbd 8b02 	vpop	{d8}
 8003614:	bd10      	pop	{r4, pc}
 8003616:	bf00      	nop
 8003618:	cf000000 	.word	0xcf000000
 800361c:	4f000000 	.word	0x4f000000

08003620 <_GLOBAL__sub_I__ZN18basic_switch_input19m_max_debounce_timeE>:
 8003620:	4b04      	ldr	r3, [pc, #16]	; (8003634 <_GLOBAL__sub_I__ZN18basic_switch_input19m_max_debounce_timeE+0x14>)
 8003622:	4805      	ldr	r0, [pc, #20]	; (8003638 <_GLOBAL__sub_I__ZN18basic_switch_input19m_max_debounce_timeE+0x18>)
 8003624:	4905      	ldr	r1, [pc, #20]	; (800363c <_GLOBAL__sub_I__ZN18basic_switch_input19m_max_debounce_timeE+0x1c>)
 8003626:	60d8      	str	r0, [r3, #12]
 8003628:	2200      	movs	r2, #0
 800362a:	711a      	strb	r2, [r3, #4]
 800362c:	609a      	str	r2, [r3, #8]
 800362e:	6019      	str	r1, [r3, #0]
 8003630:	4770      	bx	lr
 8003632:	bf00      	nop
 8003634:	100009e0 	.word	0x100009e0
 8003638:	08000281 	.word	0x08000281
 800363c:	0800ddc0 	.word	0x0800ddc0

08003640 <_ZN4quan4fifoIcLi1000ELb1EE3getEv>:
 8003640:	4603      	mov	r3, r0
 8003642:	6842      	ldr	r2, [r0, #4]
 8003644:	6819      	ldr	r1, [r3, #0]
 8003646:	7810      	ldrb	r0, [r2, #0]
 8003648:	b909      	cbnz	r1, 800364e <_ZN4quan4fifoIcLi1000ELb1EE3getEv+0xe>
 800364a:	685a      	ldr	r2, [r3, #4]
 800364c:	601a      	str	r2, [r3, #0]
 800364e:	6859      	ldr	r1, [r3, #4]
 8003650:	1c4a      	adds	r2, r1, #1
 8003652:	605a      	str	r2, [r3, #4]
 8003654:	6859      	ldr	r1, [r3, #4]
 8003656:	f503 727c 	add.w	r2, r3, #1008	; 0x3f0
 800365a:	4291      	cmp	r1, r2
 800365c:	bf04      	itt	eq
 800365e:	f103 0208 	addeq.w	r2, r3, #8
 8003662:	605a      	streq	r2, [r3, #4]
 8003664:	6859      	ldr	r1, [r3, #4]
 8003666:	681a      	ldr	r2, [r3, #0]
 8003668:	4291      	cmp	r1, r2
 800366a:	d101      	bne.n	8003670 <_ZN4quan4fifoIcLi1000ELb1EE3getEv+0x30>
 800366c:	2100      	movs	r1, #0
 800366e:	6059      	str	r1, [r3, #4]
 8003670:	4770      	bx	lr

08003672 <_ZN4quan4fifoIcLi1000ELb1EE3putERKc>:
 8003672:	6803      	ldr	r3, [r0, #0]
 8003674:	b1c3      	cbz	r3, 80036a8 <_ZN4quan4fifoIcLi1000ELb1EE3putERKc+0x36>
 8003676:	6803      	ldr	r3, [r0, #0]
 8003678:	780a      	ldrb	r2, [r1, #0]
 800367a:	701a      	strb	r2, [r3, #0]
 800367c:	6841      	ldr	r1, [r0, #4]
 800367e:	b909      	cbnz	r1, 8003684 <_ZN4quan4fifoIcLi1000ELb1EE3putERKc+0x12>
 8003680:	6803      	ldr	r3, [r0, #0]
 8003682:	6043      	str	r3, [r0, #4]
 8003684:	6802      	ldr	r2, [r0, #0]
 8003686:	1c51      	adds	r1, r2, #1
 8003688:	6001      	str	r1, [r0, #0]
 800368a:	6802      	ldr	r2, [r0, #0]
 800368c:	f500 737c 	add.w	r3, r0, #1008	; 0x3f0
 8003690:	429a      	cmp	r2, r3
 8003692:	bf04      	itt	eq
 8003694:	f100 0308 	addeq.w	r3, r0, #8
 8003698:	6003      	streq	r3, [r0, #0]
 800369a:	6801      	ldr	r1, [r0, #0]
 800369c:	6842      	ldr	r2, [r0, #4]
 800369e:	4291      	cmp	r1, r2
 80036a0:	d104      	bne.n	80036ac <_ZN4quan4fifoIcLi1000ELb1EE3putERKc+0x3a>
 80036a2:	2300      	movs	r3, #0
 80036a4:	6003      	str	r3, [r0, #0]
 80036a6:	e001      	b.n	80036ac <_ZN4quan4fifoIcLi1000ELb1EE3putERKc+0x3a>
 80036a8:	4618      	mov	r0, r3
 80036aa:	4770      	bx	lr
 80036ac:	2001      	movs	r0, #1
 80036ae:	4770      	bx	lr

080036b0 <_ZN4quan5stm325usart11irq_handlerINS0_11serial_portINS1_6moduleILm1073760256EEELj1000ELj1000ENS_3mcu3pinINS0_4gpio6moduleILm1073875968EEELm8EEENS7_ISA_Lm9EEEEEEEvv>:
 80036b0:	4b13      	ldr	r3, [pc, #76]	; (8003700 <_ZN4quan5stm325usart11irq_handlerINS0_11serial_portINS1_6moduleILm1073760256EEELj1000ELj1000ENS_3mcu3pinINS0_4gpio6moduleILm1073875968EEELm8EEENS7_ISA_Lm9EEEEEEEvv+0x50>)
 80036b2:	b513      	push	{r0, r1, r4, lr}
 80036b4:	6818      	ldr	r0, [r3, #0]
 80036b6:	b178      	cbz	r0, 80036d8 <_ZN4quan5stm325usart11irq_handlerINS0_11serial_portINS1_6moduleILm1073760256EEELj1000ELj1000ENS_3mcu3pinINS0_4gpio6moduleILm1073875968EEELm8EEENS7_ISA_Lm9EEEEEEEvv+0x28>
 80036b8:	4912      	ldr	r1, [pc, #72]	; (8003704 <_ZN4quan5stm325usart11irq_handlerINS0_11serial_portINS1_6moduleILm1073760256EEELj1000ELj1000ENS_3mcu3pinINS0_4gpio6moduleILm1073875968EEELm8EEENS7_ISA_Lm9EEEEEEEvv+0x54>)
 80036ba:	680a      	ldr	r2, [r1, #0]
 80036bc:	b162      	cbz	r2, 80036d8 <_ZN4quan5stm325usart11irq_handlerINS0_11serial_portINS1_6moduleILm1073760256EEELj1000ELj1000ENS_3mcu3pinINS0_4gpio6moduleILm1073875968EEELm8EEENS7_ISA_Lm9EEEEEEEvv+0x28>
 80036be:	4812      	ldr	r0, [pc, #72]	; (8003708 <_ZN4quan5stm325usart11irq_handlerINS0_11serial_portINS1_6moduleILm1073760256EEELj1000ELj1000ENS_3mcu3pinINS0_4gpio6moduleILm1073875968EEELm8EEENS7_ISA_Lm9EEEEEEEvv+0x58>)
 80036c0:	6803      	ldr	r3, [r0, #0]
 80036c2:	b90b      	cbnz	r3, 80036c8 <_ZN4quan5stm325usart11irq_handlerINS0_11serial_portINS1_6moduleILm1073760256EEELj1000ELj1000ENS_3mcu3pinINS0_4gpio6moduleILm1073875968EEELm8EEENS7_ISA_Lm9EEEEEEEvv+0x18>
 80036c4:	f7ff ffbc 	bl	8003640 <_ZN4quan4fifoIcLi1000ELb1EE3getEv>
 80036c8:	4810      	ldr	r0, [pc, #64]	; (800370c <_ZN4quan5stm325usart11irq_handlerINS0_11serial_portINS1_6moduleILm1073760256EEELj1000ELj1000ENS_3mcu3pinINS0_4gpio6moduleILm1073875968EEELm8EEENS7_ISA_Lm9EEEEEEEvv+0x5c>)
 80036ca:	a902      	add	r1, sp, #8
 80036cc:	8882      	ldrh	r2, [r0, #4]
 80036ce:	480e      	ldr	r0, [pc, #56]	; (8003708 <_ZN4quan5stm325usart11irq_handlerINS0_11serial_portINS1_6moduleILm1073760256EEELj1000ELj1000ENS_3mcu3pinINS0_4gpio6moduleILm1073875968EEELm8EEENS7_ISA_Lm9EEEEEEEvv+0x58>)
 80036d0:	f801 2d01 	strb.w	r2, [r1, #-1]!
 80036d4:	f7ff ffcd 	bl	8003672 <_ZN4quan4fifoIcLi1000ELb1EE3putERKc>
 80036d8:	490d      	ldr	r1, [pc, #52]	; (8003710 <_ZN4quan5stm325usart11irq_handlerINS0_11serial_portINS1_6moduleILm1073760256EEELj1000ELj1000ENS_3mcu3pinINS0_4gpio6moduleILm1073875968EEELm8EEENS7_ISA_Lm9EEEEEEEvv+0x60>)
 80036da:	680b      	ldr	r3, [r1, #0]
 80036dc:	b173      	cbz	r3, 80036fc <_ZN4quan5stm325usart11irq_handlerINS0_11serial_portINS1_6moduleILm1073760256EEELj1000ELj1000ENS_3mcu3pinINS0_4gpio6moduleILm1073875968EEELm8EEENS7_ISA_Lm9EEEEEEEvv+0x4c>
 80036de:	4c0d      	ldr	r4, [pc, #52]	; (8003714 <_ZN4quan5stm325usart11irq_handlerINS0_11serial_portINS1_6moduleILm1073760256EEELj1000ELj1000ENS_3mcu3pinINS0_4gpio6moduleILm1073875968EEELm8EEENS7_ISA_Lm9EEEEEEEvv+0x64>)
 80036e0:	6860      	ldr	r0, [r4, #4]
 80036e2:	b138      	cbz	r0, 80036f4 <_ZN4quan5stm325usart11irq_handlerINS0_11serial_portINS1_6moduleILm1073760256EEELj1000ELj1000ENS_3mcu3pinINS0_4gpio6moduleILm1073875968EEELm8EEENS7_ISA_Lm9EEEEEEEvv+0x44>
 80036e4:	4a0c      	ldr	r2, [pc, #48]	; (8003718 <_ZN4quan5stm325usart11irq_handlerINS0_11serial_portINS1_6moduleILm1073760256EEELj1000ELj1000ENS_3mcu3pinINS0_4gpio6moduleILm1073875968EEELm8EEENS7_ISA_Lm9EEEEEEEvv+0x68>)
 80036e6:	6811      	ldr	r1, [r2, #0]
 80036e8:	b121      	cbz	r1, 80036f4 <_ZN4quan5stm325usart11irq_handlerINS0_11serial_portINS1_6moduleILm1073760256EEELj1000ELj1000ENS_3mcu3pinINS0_4gpio6moduleILm1073875968EEELm8EEENS7_ISA_Lm9EEEEEEEvv+0x44>
 80036ea:	4620      	mov	r0, r4
 80036ec:	f7ff ffa8 	bl	8003640 <_ZN4quan4fifoIcLi1000ELb1EE3getEv>
 80036f0:	4b06      	ldr	r3, [pc, #24]	; (800370c <_ZN4quan5stm325usart11irq_handlerINS0_11serial_portINS1_6moduleILm1073760256EEELj1000ELj1000ENS_3mcu3pinINS0_4gpio6moduleILm1073875968EEELm8EEENS7_ISA_Lm9EEEEEEEvv+0x5c>)
 80036f2:	8098      	strh	r0, [r3, #4]
 80036f4:	6860      	ldr	r0, [r4, #4]
 80036f6:	b908      	cbnz	r0, 80036fc <_ZN4quan5stm325usart11irq_handlerINS0_11serial_portINS1_6moduleILm1073760256EEELj1000ELj1000ENS_3mcu3pinINS0_4gpio6moduleILm1073875968EEELm8EEENS7_ISA_Lm9EEEEEEEvv+0x4c>
 80036f8:	4a05      	ldr	r2, [pc, #20]	; (8003710 <_ZN4quan5stm325usart11irq_handlerINS0_11serial_portINS1_6moduleILm1073760256EEELj1000ELj1000ENS_3mcu3pinINS0_4gpio6moduleILm1073875968EEELm8EEENS7_ISA_Lm9EEEEEEEvv+0x60>)
 80036fa:	6010      	str	r0, [r2, #0]
 80036fc:	bd1c      	pop	{r2, r3, r4, pc}
 80036fe:	bf00      	nop
 8003700:	42090194 	.word	0x42090194
 8003704:	42090014 	.word	0x42090014
 8003708:	10000f0c 	.word	0x10000f0c
 800370c:	40004800 	.word	0x40004800
 8003710:	4209019c 	.word	0x4209019c
 8003714:	10000b18 	.word	0x10000b18
 8003718:	4209001c 	.word	0x4209001c

0800371c <_ZN4quan5stm325usart11irq_handlerINS0_11serial_portINS1_6moduleILm1073759232EEELj25ELj1000ENS_3mcu3pinINS0_4gpio6moduleILm1073875968EEELm5EEENS7_ISA_Lm6EEEEEEEvv>:
 800371c:	4b1e      	ldr	r3, [pc, #120]	; (8003798 <_ZN4quan5stm325usart11irq_handlerINS0_11serial_portINS1_6moduleILm1073759232EEELj25ELj1000ENS_3mcu3pinINS0_4gpio6moduleILm1073875968EEELm5EEENS7_ISA_Lm6EEEEEEEvv+0x7c>)
 800371e:	b507      	push	{r0, r1, r2, lr}
 8003720:	6818      	ldr	r0, [r3, #0]
 8003722:	b178      	cbz	r0, 8003744 <_ZN4quan5stm325usart11irq_handlerINS0_11serial_portINS1_6moduleILm1073759232EEELj25ELj1000ENS_3mcu3pinINS0_4gpio6moduleILm1073875968EEELm5EEENS7_ISA_Lm6EEEEEEEvv+0x28>
 8003724:	491d      	ldr	r1, [pc, #116]	; (800379c <_ZN4quan5stm325usart11irq_handlerINS0_11serial_portINS1_6moduleILm1073759232EEELj25ELj1000ENS_3mcu3pinINS0_4gpio6moduleILm1073875968EEELm5EEENS7_ISA_Lm6EEEEEEEvv+0x80>)
 8003726:	680a      	ldr	r2, [r1, #0]
 8003728:	b162      	cbz	r2, 8003744 <_ZN4quan5stm325usart11irq_handlerINS0_11serial_portINS1_6moduleILm1073759232EEELj25ELj1000ENS_3mcu3pinINS0_4gpio6moduleILm1073875968EEELm5EEENS7_ISA_Lm6EEEEEEEvv+0x28>
 800372a:	481d      	ldr	r0, [pc, #116]	; (80037a0 <_ZN4quan5stm325usart11irq_handlerINS0_11serial_portINS1_6moduleILm1073759232EEELj25ELj1000ENS_3mcu3pinINS0_4gpio6moduleILm1073875968EEELm5EEENS7_ISA_Lm6EEEEEEEvv+0x84>)
 800372c:	6803      	ldr	r3, [r0, #0]
 800372e:	b90b      	cbnz	r3, 8003734 <_ZN4quan5stm325usart11irq_handlerINS0_11serial_portINS1_6moduleILm1073759232EEELj25ELj1000ENS_3mcu3pinINS0_4gpio6moduleILm1073875968EEELm5EEENS7_ISA_Lm6EEEEEEEvv+0x18>
 8003730:	f7ff ff86 	bl	8003640 <_ZN4quan4fifoIcLi1000ELb1EE3getEv>
 8003734:	481b      	ldr	r0, [pc, #108]	; (80037a4 <_ZN4quan5stm325usart11irq_handlerINS0_11serial_portINS1_6moduleILm1073759232EEELj25ELj1000ENS_3mcu3pinINS0_4gpio6moduleILm1073875968EEELm5EEENS7_ISA_Lm6EEEEEEEvv+0x88>)
 8003736:	a902      	add	r1, sp, #8
 8003738:	8882      	ldrh	r2, [r0, #4]
 800373a:	4819      	ldr	r0, [pc, #100]	; (80037a0 <_ZN4quan5stm325usart11irq_handlerINS0_11serial_portINS1_6moduleILm1073759232EEELj25ELj1000ENS_3mcu3pinINS0_4gpio6moduleILm1073875968EEELm5EEENS7_ISA_Lm6EEEEEEEvv+0x84>)
 800373c:	f801 2d01 	strb.w	r2, [r1, #-1]!
 8003740:	f7ff ff97 	bl	8003672 <_ZN4quan4fifoIcLi1000ELb1EE3putERKc>
 8003744:	4918      	ldr	r1, [pc, #96]	; (80037a8 <_ZN4quan5stm325usart11irq_handlerINS0_11serial_portINS1_6moduleILm1073759232EEELj25ELj1000ENS_3mcu3pinINS0_4gpio6moduleILm1073875968EEELm5EEENS7_ISA_Lm6EEEEEEEvv+0x8c>)
 8003746:	680b      	ldr	r3, [r1, #0]
 8003748:	b32b      	cbz	r3, 8003796 <_ZN4quan5stm325usart11irq_handlerINS0_11serial_portINS1_6moduleILm1073759232EEELj25ELj1000ENS_3mcu3pinINS0_4gpio6moduleILm1073875968EEELm5EEENS7_ISA_Lm6EEEEEEEvv+0x7a>
 800374a:	4818      	ldr	r0, [pc, #96]	; (80037ac <_ZN4quan5stm325usart11irq_handlerINS0_11serial_portINS1_6moduleILm1073759232EEELj25ELj1000ENS_3mcu3pinINS0_4gpio6moduleILm1073875968EEELm5EEENS7_ISA_Lm6EEEEEEEvv+0x90>)
 800374c:	6842      	ldr	r2, [r0, #4]
 800374e:	b1ea      	cbz	r2, 800378c <_ZN4quan5stm325usart11irq_handlerINS0_11serial_portINS1_6moduleILm1073759232EEELj25ELj1000ENS_3mcu3pinINS0_4gpio6moduleILm1073875968EEELm5EEENS7_ISA_Lm6EEEEEEEvv+0x70>
 8003750:	4917      	ldr	r1, [pc, #92]	; (80037b0 <_ZN4quan5stm325usart11irq_handlerINS0_11serial_portINS1_6moduleILm1073759232EEELj25ELj1000ENS_3mcu3pinINS0_4gpio6moduleILm1073875968EEELm5EEENS7_ISA_Lm6EEEEEEEvv+0x94>)
 8003752:	680b      	ldr	r3, [r1, #0]
 8003754:	b1d3      	cbz	r3, 800378c <_ZN4quan5stm325usart11irq_handlerINS0_11serial_portINS1_6moduleILm1073759232EEELj25ELj1000ENS_3mcu3pinINS0_4gpio6moduleILm1073875968EEELm5EEENS7_ISA_Lm6EEEEEEEvv+0x70>
 8003756:	6842      	ldr	r2, [r0, #4]
 8003758:	6801      	ldr	r1, [r0, #0]
 800375a:	7812      	ldrb	r2, [r2, #0]
 800375c:	b909      	cbnz	r1, 8003762 <_ZN4quan5stm325usart11irq_handlerINS0_11serial_portINS1_6moduleILm1073759232EEELj25ELj1000ENS_3mcu3pinINS0_4gpio6moduleILm1073875968EEELm5EEENS7_ISA_Lm6EEEEEEEvv+0x46>
 800375e:	6843      	ldr	r3, [r0, #4]
 8003760:	6003      	str	r3, [r0, #0]
 8003762:	4b12      	ldr	r3, [pc, #72]	; (80037ac <_ZN4quan5stm325usart11irq_handlerINS0_11serial_portINS1_6moduleILm1073759232EEELj25ELj1000ENS_3mcu3pinINS0_4gpio6moduleILm1073875968EEELm5EEENS7_ISA_Lm6EEEEEEEvv+0x90>)
 8003764:	6858      	ldr	r0, [r3, #4]
 8003766:	1c41      	adds	r1, r0, #1
 8003768:	6059      	str	r1, [r3, #4]
 800376a:	6858      	ldr	r0, [r3, #4]
 800376c:	f103 0121 	add.w	r1, r3, #33	; 0x21
 8003770:	4288      	cmp	r0, r1
 8003772:	bf04      	itt	eq
 8003774:	f103 0108 	addeq.w	r1, r3, #8
 8003778:	6059      	streq	r1, [r3, #4]
 800377a:	6858      	ldr	r0, [r3, #4]
 800377c:	681b      	ldr	r3, [r3, #0]
 800377e:	4298      	cmp	r0, r3
 8003780:	d102      	bne.n	8003788 <_ZN4quan5stm325usart11irq_handlerINS0_11serial_portINS1_6moduleILm1073759232EEELj25ELj1000ENS_3mcu3pinINS0_4gpio6moduleILm1073875968EEELm5EEENS7_ISA_Lm6EEEEEEEvv+0x6c>
 8003782:	480a      	ldr	r0, [pc, #40]	; (80037ac <_ZN4quan5stm325usart11irq_handlerINS0_11serial_portINS1_6moduleILm1073759232EEELj25ELj1000ENS_3mcu3pinINS0_4gpio6moduleILm1073875968EEELm5EEENS7_ISA_Lm6EEEEEEEvv+0x90>)
 8003784:	2100      	movs	r1, #0
 8003786:	6041      	str	r1, [r0, #4]
 8003788:	4b06      	ldr	r3, [pc, #24]	; (80037a4 <_ZN4quan5stm325usart11irq_handlerINS0_11serial_portINS1_6moduleILm1073759232EEELj25ELj1000ENS_3mcu3pinINS0_4gpio6moduleILm1073875968EEELm5EEENS7_ISA_Lm6EEEEEEEvv+0x88>)
 800378a:	809a      	strh	r2, [r3, #4]
 800378c:	4a07      	ldr	r2, [pc, #28]	; (80037ac <_ZN4quan5stm325usart11irq_handlerINS0_11serial_portINS1_6moduleILm1073759232EEELj25ELj1000ENS_3mcu3pinINS0_4gpio6moduleILm1073875968EEELm5EEENS7_ISA_Lm6EEEEEEEvv+0x90>)
 800378e:	6851      	ldr	r1, [r2, #4]
 8003790:	b909      	cbnz	r1, 8003796 <_ZN4quan5stm325usart11irq_handlerINS0_11serial_portINS1_6moduleILm1073759232EEELj25ELj1000ENS_3mcu3pinINS0_4gpio6moduleILm1073875968EEELm5EEENS7_ISA_Lm6EEEEEEEvv+0x7a>
 8003792:	4805      	ldr	r0, [pc, #20]	; (80037a8 <_ZN4quan5stm325usart11irq_handlerINS0_11serial_portINS1_6moduleILm1073759232EEELj25ELj1000ENS_3mcu3pinINS0_4gpio6moduleILm1073875968EEELm5EEENS7_ISA_Lm6EEEEEEEvv+0x8c>)
 8003794:	6001      	str	r1, [r0, #0]
 8003796:	bd0e      	pop	{r1, r2, r3, pc}
 8003798:	42088194 	.word	0x42088194
 800379c:	42088014 	.word	0x42088014
 80037a0:	10001300 	.word	0x10001300
 80037a4:	40004400 	.word	0x40004400
 80037a8:	4208819c 	.word	0x4208819c
 80037ac:	100016f0 	.word	0x100016f0
 80037b0:	4208801c 	.word	0x4208801c

080037b4 <_GLOBAL__sub_I_USART3_IRQHandler>:
 80037b4:	4a18      	ldr	r2, [pc, #96]	; (8003818 <_GLOBAL__sub_I_USART3_IRQHandler+0x64>)
 80037b6:	6813      	ldr	r3, [r2, #0]
 80037b8:	f013 0101 	ands.w	r1, r3, #1
 80037bc:	d106      	bne.n	80037cc <_GLOBAL__sub_I_USART3_IRQHandler+0x18>
 80037be:	4b17      	ldr	r3, [pc, #92]	; (800381c <_GLOBAL__sub_I_USART3_IRQHandler+0x68>)
 80037c0:	2001      	movs	r0, #1
 80037c2:	6010      	str	r0, [r2, #0]
 80037c4:	f103 0208 	add.w	r2, r3, #8
 80037c8:	601a      	str	r2, [r3, #0]
 80037ca:	6059      	str	r1, [r3, #4]
 80037cc:	4814      	ldr	r0, [pc, #80]	; (8003820 <_GLOBAL__sub_I_USART3_IRQHandler+0x6c>)
 80037ce:	6801      	ldr	r1, [r0, #0]
 80037d0:	f011 0101 	ands.w	r1, r1, #1
 80037d4:	d106      	bne.n	80037e4 <_GLOBAL__sub_I_USART3_IRQHandler+0x30>
 80037d6:	2301      	movs	r3, #1
 80037d8:	6003      	str	r3, [r0, #0]
 80037da:	4812      	ldr	r0, [pc, #72]	; (8003824 <_GLOBAL__sub_I_USART3_IRQHandler+0x70>)
 80037dc:	f100 0208 	add.w	r2, r0, #8
 80037e0:	6002      	str	r2, [r0, #0]
 80037e2:	6041      	str	r1, [r0, #4]
 80037e4:	4810      	ldr	r0, [pc, #64]	; (8003828 <_GLOBAL__sub_I_USART3_IRQHandler+0x74>)
 80037e6:	6801      	ldr	r1, [r0, #0]
 80037e8:	f011 0101 	ands.w	r1, r1, #1
 80037ec:	d106      	bne.n	80037fc <_GLOBAL__sub_I_USART3_IRQHandler+0x48>
 80037ee:	2301      	movs	r3, #1
 80037f0:	6003      	str	r3, [r0, #0]
 80037f2:	480e      	ldr	r0, [pc, #56]	; (800382c <_GLOBAL__sub_I_USART3_IRQHandler+0x78>)
 80037f4:	f100 0208 	add.w	r2, r0, #8
 80037f8:	6002      	str	r2, [r0, #0]
 80037fa:	6041      	str	r1, [r0, #4]
 80037fc:	480c      	ldr	r0, [pc, #48]	; (8003830 <_GLOBAL__sub_I_USART3_IRQHandler+0x7c>)
 80037fe:	6801      	ldr	r1, [r0, #0]
 8003800:	f011 0101 	ands.w	r1, r1, #1
 8003804:	d106      	bne.n	8003814 <_GLOBAL__sub_I_USART3_IRQHandler+0x60>
 8003806:	2301      	movs	r3, #1
 8003808:	6003      	str	r3, [r0, #0]
 800380a:	480a      	ldr	r0, [pc, #40]	; (8003834 <_GLOBAL__sub_I_USART3_IRQHandler+0x80>)
 800380c:	f100 0208 	add.w	r2, r0, #8
 8003810:	6002      	str	r2, [r0, #0]
 8003812:	6041      	str	r1, [r0, #4]
 8003814:	4770      	bx	lr
 8003816:	bf00      	nop
 8003818:	100012fc 	.word	0x100012fc
 800381c:	10000f0c 	.word	0x10000f0c
 8003820:	10000f08 	.word	0x10000f08
 8003824:	10000b18 	.word	0x10000b18
 8003828:	10001714 	.word	0x10001714
 800382c:	10001300 	.word	0x10001300
 8003830:	10001718 	.word	0x10001718
 8003834:	100016f0 	.word	0x100016f0

08003838 <_ZNK4quan4meta4impl27for_each_type_sequence_implINS0_13type_sequenceIINS_5stm3210periph_regINS4_5usart6moduleILm1073759232EEELm12EmEENS5_IS8_Lm16EmEENS5_IS8_Lm20EmEENS5_IS8_Lm24EmEEEEENS4_6detail24apply_periph_reg_actionsIS8_NS3_IINSE_17periph_reg_actionISA_NS0_7bit_andELm4294965247EEENSG_IS9_NS0_6bit_orELm8EEENSG_IS9_SJ_Lm4EEENSG_IS9_SH_Lm4294934527EEENSG_INS5_IS8_Lm8EmEENS0_6equalsELm4375EEENSG_IS9_SH_Lm4294966271EEENSG_IS9_SH_Lm4294963199EEENSG_ISA_SH_Lm4294955007EEENSG_ISB_SH_Lm4294967039EEENSG_ISB_SH_Lm4294966783EEENSG_ISB_SH_Lm4294966271EEENSG_ISA_SH_Lm4294967231EEENSG_IS9_SH_Lm4294967167EEENSG_IS9_SH_Lm4294967231EEENSG_IS9_SH_Lm4294967263EEENSG_IS9_SH_Lm4294967279EEENSG_IS9_SH_Lm4294967039EEENSG_ISB_SH_Lm4294967294EEEEEEEELb1EvEclEv>:
 8003838:	4b09      	ldr	r3, [pc, #36]	; (8003860 <_ZNK4quan4meta4impl27for_each_type_sequence_implINS0_13type_sequenceIINS_5stm3210periph_regINS4_5usart6moduleILm1073759232EEELm12EmEENS5_IS8_Lm16EmEENS5_IS8_Lm20EmEENS5_IS8_Lm24EmEEEEENS4_6detail24apply_periph_reg_actionsIS8_NS3_IINSE_17periph_reg_actionISA_NS0_7bit_andELm4294965247EEENSG_IS9_NS0_6bit_orELm8EEENSG_IS9_SJ_Lm4EEENSG_IS9_SH_Lm4294934527EEENSG_INS5_IS8_Lm8EmEENS0_6equalsELm4375EEENSG_IS9_SH_Lm4294966271EEENSG_IS9_SH_Lm4294963199EEENSG_ISA_SH_Lm4294955007EEENSG_ISB_SH_Lm4294967039EEENSG_ISB_SH_Lm4294966783EEENSG_ISB_SH_Lm4294966271EEENSG_ISA_SH_Lm4294967231EEENSG_IS9_SH_Lm4294967167EEENSG_IS9_SH_Lm4294967231EEENSG_IS9_SH_Lm4294967263EEENSG_IS9_SH_Lm4294967279EEENSG_IS9_SH_Lm4294967039EEENSG_ISB_SH_Lm4294967294EEEEEEEELb1EvEclEv+0x28>)
 800383a:	68da      	ldr	r2, [r3, #12]
 800383c:	f422 4015 	bic.w	r0, r2, #38144	; 0x9500
 8003840:	f020 01fc 	bic.w	r1, r0, #252	; 0xfc
 8003844:	f041 020c 	orr.w	r2, r1, #12
 8003848:	60da      	str	r2, [r3, #12]
 800384a:	6918      	ldr	r0, [r3, #16]
 800384c:	f420 5161 	bic.w	r1, r0, #14400	; 0x3840
 8003850:	6119      	str	r1, [r3, #16]
 8003852:	695a      	ldr	r2, [r3, #20]
 8003854:	f422 60e0 	bic.w	r0, r2, #1792	; 0x700
 8003858:	f020 0101 	bic.w	r1, r0, #1
 800385c:	6159      	str	r1, [r3, #20]
 800385e:	4770      	bx	lr
 8003860:	40004400 	.word	0x40004400

08003864 <_ZNK4quan4meta4impl27for_each_type_sequence_implINS0_13type_sequenceIINS_5stm3210periph_regINS4_5usart6moduleILm1073760256EEELm12EmEENS5_IS8_Lm16EmEENS5_IS8_Lm20EmEENS5_IS8_Lm24EmEEEEENS4_6detail24apply_periph_reg_actionsIS8_NS3_IINSE_17periph_reg_actionISA_NS0_7bit_andELm4294965247EEENSG_IS9_NS0_6bit_orELm8EEENSG_IS9_SJ_Lm4EEENSG_IS9_SH_Lm4294934527EEENSG_INS5_IS8_Lm8EmEENS0_6equalsELm4375EEENSG_IS9_SH_Lm4294966271EEENSG_IS9_SH_Lm4294963199EEENSG_ISA_SH_Lm4294955007EEENSG_ISB_SH_Lm4294967039EEENSG_ISB_SH_Lm4294966783EEENSG_ISB_SH_Lm4294966271EEENSG_ISA_SH_Lm4294967231EEENSG_IS9_SH_Lm4294967167EEENSG_IS9_SH_Lm4294967231EEENSG_IS9_SH_Lm4294967263EEENSG_IS9_SH_Lm4294967279EEENSG_IS9_SH_Lm4294967039EEENSG_ISB_SH_Lm4294967294EEEEEEEELb1EvEclEv>:
 8003864:	4b09      	ldr	r3, [pc, #36]	; (800388c <_ZNK4quan4meta4impl27for_each_type_sequence_implINS0_13type_sequenceIINS_5stm3210periph_regINS4_5usart6moduleILm1073760256EEELm12EmEENS5_IS8_Lm16EmEENS5_IS8_Lm20EmEENS5_IS8_Lm24EmEEEEENS4_6detail24apply_periph_reg_actionsIS8_NS3_IINSE_17periph_reg_actionISA_NS0_7bit_andELm4294965247EEENSG_IS9_NS0_6bit_orELm8EEENSG_IS9_SJ_Lm4EEENSG_IS9_SH_Lm4294934527EEENSG_INS5_IS8_Lm8EmEENS0_6equalsELm4375EEENSG_IS9_SH_Lm4294966271EEENSG_IS9_SH_Lm4294963199EEENSG_ISA_SH_Lm4294955007EEENSG_ISB_SH_Lm4294967039EEENSG_ISB_SH_Lm4294966783EEENSG_ISB_SH_Lm4294966271EEENSG_ISA_SH_Lm4294967231EEENSG_IS9_SH_Lm4294967167EEENSG_IS9_SH_Lm4294967231EEENSG_IS9_SH_Lm4294967263EEENSG_IS9_SH_Lm4294967279EEENSG_IS9_SH_Lm4294967039EEENSG_ISB_SH_Lm4294967294EEEEEEEELb1EvEclEv+0x28>)
 8003866:	68da      	ldr	r2, [r3, #12]
 8003868:	f422 4015 	bic.w	r0, r2, #38144	; 0x9500
 800386c:	f020 01fc 	bic.w	r1, r0, #252	; 0xfc
 8003870:	f041 020c 	orr.w	r2, r1, #12
 8003874:	60da      	str	r2, [r3, #12]
 8003876:	6918      	ldr	r0, [r3, #16]
 8003878:	f420 5161 	bic.w	r1, r0, #14400	; 0x3840
 800387c:	6119      	str	r1, [r3, #16]
 800387e:	695a      	ldr	r2, [r3, #20]
 8003880:	f422 60e0 	bic.w	r0, r2, #1792	; 0x700
 8003884:	f020 0101 	bic.w	r1, r0, #1
 8003888:	6159      	str	r1, [r3, #20]
 800388a:	4770      	bx	lr
 800388c:	40004800 	.word	0x40004800

08003890 <_ZNK4quan4meta4impl27for_each_type_sequence_implINS0_13type_sequenceIINS_5stm3210periph_regINS4_4gpio6moduleILm1073875968EEELm8EmEENS5_IS8_Lm12EmEENS5_IS8_Lm16EmEENS5_IS8_Lm20EmEENS5_IS8_Lm24EmEENS5_IS8_Lm28EmEENS5_IS8_Lm32EmEENS5_IS8_Lm36EmEEEEENS4_6detail24apply_periph_reg_actionsIS8_NS3_IINSI_17periph_reg_actionINS5_IS8_Lm0EmEENS0_6bit_orELm2048EEENSK_ISL_NS0_7bit_andELm4294966271EEENSK_ISF_SM_Lm7340032EEENSK_ISF_SO_Lm4286578687EEENSK_INS5_IS8_Lm4EmEESM_Lm0EEENSK_ISS_SO_Lm4294967263EEENSK_ISA_SM_Lm0EEENSK_ISA_SO_Lm4294964223EEENSK_IS9_SM_Lm0EEENSK_IS9_SO_Lm4294964223EEEEEEEELb1EvEclEv>:
 8003890:	4b07      	ldr	r3, [pc, #28]	; (80038b0 <_ZNK4quan4meta4impl27for_each_type_sequence_implINS0_13type_sequenceIINS_5stm3210periph_regINS4_4gpio6moduleILm1073875968EEELm8EmEENS5_IS8_Lm12EmEENS5_IS8_Lm16EmEENS5_IS8_Lm20EmEENS5_IS8_Lm24EmEENS5_IS8_Lm28EmEENS5_IS8_Lm32EmEENS5_IS8_Lm36EmEEEEENS4_6detail24apply_periph_reg_actionsIS8_NS3_IINSI_17periph_reg_actionINS5_IS8_Lm0EmEENS0_6bit_orELm2048EEENSK_ISL_NS0_7bit_andELm4294966271EEENSK_ISF_SM_Lm7340032EEENSK_ISF_SO_Lm4286578687EEENSK_INS5_IS8_Lm4EmEESM_Lm0EEENSK_ISS_SO_Lm4294967263EEENSK_ISA_SM_Lm0EEENSK_ISA_SO_Lm4294964223EEENSK_IS9_SM_Lm0EEENSK_IS9_SO_Lm4294964223EEEEEEEELb1EvEclEv+0x20>)
 8003892:	689a      	ldr	r2, [r3, #8]
 8003894:	f422 6040 	bic.w	r0, r2, #3072	; 0xc00
 8003898:	6098      	str	r0, [r3, #8]
 800389a:	68d9      	ldr	r1, [r3, #12]
 800389c:	f421 6240 	bic.w	r2, r1, #3072	; 0xc00
 80038a0:	60da      	str	r2, [r3, #12]
 80038a2:	6a18      	ldr	r0, [r3, #32]
 80038a4:	f420 0170 	bic.w	r1, r0, #15728640	; 0xf00000
 80038a8:	f441 02e0 	orr.w	r2, r1, #7340032	; 0x700000
 80038ac:	621a      	str	r2, [r3, #32]
 80038ae:	4770      	bx	lr
 80038b0:	40020c00 	.word	0x40020c00

080038b4 <_ZNK4quan4meta4impl27for_each_type_sequence_implINS0_13type_sequenceIINS_5stm3210periph_regINS4_4gpio6moduleILm1073875968EEELm8EmEENS5_IS8_Lm12EmEENS5_IS8_Lm16EmEENS5_IS8_Lm20EmEENS5_IS8_Lm24EmEENS5_IS8_Lm28EmEENS5_IS8_Lm32EmEENS5_IS8_Lm36EmEEEEENS4_6detail24apply_periph_reg_actionsIS8_NS3_IINSI_17periph_reg_actionINS5_IS8_Lm0EmEENS0_6bit_orELm8192EEENSK_ISL_NS0_7bit_andELm4294963199EEENSK_ISF_SM_Lm117440512EEENSK_ISF_SO_Lm4160749567EEENSK_ISA_SM_Lm4096EEENSK_ISA_SO_Lm4294959103EEENSK_IS9_SM_Lm0EEENSK_IS9_SO_Lm4294955007EEEEEEEELb1EvEclEv>:
 80038b4:	4b08      	ldr	r3, [pc, #32]	; (80038d8 <_ZNK4quan4meta4impl27for_each_type_sequence_implINS0_13type_sequenceIINS_5stm3210periph_regINS4_4gpio6moduleILm1073875968EEELm8EmEENS5_IS8_Lm12EmEENS5_IS8_Lm16EmEENS5_IS8_Lm20EmEENS5_IS8_Lm24EmEENS5_IS8_Lm28EmEENS5_IS8_Lm32EmEENS5_IS8_Lm36EmEEEEENS4_6detail24apply_periph_reg_actionsIS8_NS3_IINSI_17periph_reg_actionINS5_IS8_Lm0EmEENS0_6bit_orELm8192EEENSK_ISL_NS0_7bit_andELm4294963199EEENSK_ISF_SM_Lm117440512EEENSK_ISF_SO_Lm4160749567EEENSK_ISA_SM_Lm4096EEENSK_ISA_SO_Lm4294959103EEENSK_IS9_SM_Lm0EEENSK_IS9_SO_Lm4294955007EEEEEEEELb1EvEclEv+0x24>)
 80038b6:	689a      	ldr	r2, [r3, #8]
 80038b8:	f422 5040 	bic.w	r0, r2, #12288	; 0x3000
 80038bc:	6098      	str	r0, [r3, #8]
 80038be:	68d9      	ldr	r1, [r3, #12]
 80038c0:	f421 5240 	bic.w	r2, r1, #12288	; 0x3000
 80038c4:	f442 5080 	orr.w	r0, r2, #4096	; 0x1000
 80038c8:	60d8      	str	r0, [r3, #12]
 80038ca:	6a19      	ldr	r1, [r3, #32]
 80038cc:	f021 6270 	bic.w	r2, r1, #251658240	; 0xf000000
 80038d0:	f042 60e0 	orr.w	r0, r2, #117440512	; 0x7000000
 80038d4:	6218      	str	r0, [r3, #32]
 80038d6:	4770      	bx	lr
 80038d8:	40020c00 	.word	0x40020c00

080038dc <_ZNK4quan4meta4impl27for_each_type_sequence_implINS0_13type_sequenceIINS_5stm3210periph_regINS4_4gpio6moduleILm1073875968EEELm8EmEENS5_IS8_Lm12EmEENS5_IS8_Lm16EmEENS5_IS8_Lm20EmEENS5_IS8_Lm24EmEENS5_IS8_Lm28EmEENS5_IS8_Lm32EmEENS5_IS8_Lm36EmEEEEENS4_6detail24apply_periph_reg_actionsIS8_NS3_IINSI_17periph_reg_actionINS5_IS8_Lm0EmEENS0_6bit_orELm131072EEENSK_ISL_NS0_7bit_andELm4294901759EEENSK_ISG_SM_Lm7EEENSK_ISG_SO_Lm4294967287EEENSK_INS5_IS8_Lm4EmEESM_Lm0EEENSK_ISS_SO_Lm4294967039EEENSK_ISA_SM_Lm0EEENSK_ISA_SO_Lm4294770687EEENSK_IS9_SM_Lm0EEENSK_IS9_SO_Lm4294770687EEEEEEEELb1EvEclEv>:
 80038dc:	4b07      	ldr	r3, [pc, #28]	; (80038fc <_ZNK4quan4meta4impl27for_each_type_sequence_implINS0_13type_sequenceIINS_5stm3210periph_regINS4_4gpio6moduleILm1073875968EEELm8EmEENS5_IS8_Lm12EmEENS5_IS8_Lm16EmEENS5_IS8_Lm20EmEENS5_IS8_Lm24EmEENS5_IS8_Lm28EmEENS5_IS8_Lm32EmEENS5_IS8_Lm36EmEEEEENS4_6detail24apply_periph_reg_actionsIS8_NS3_IINSI_17periph_reg_actionINS5_IS8_Lm0EmEENS0_6bit_orELm131072EEENSK_ISL_NS0_7bit_andELm4294901759EEENSK_ISG_SM_Lm7EEENSK_ISG_SO_Lm4294967287EEENSK_INS5_IS8_Lm4EmEESM_Lm0EEENSK_ISS_SO_Lm4294967039EEENSK_ISA_SM_Lm0EEENSK_ISA_SO_Lm4294770687EEENSK_IS9_SM_Lm0EEENSK_IS9_SO_Lm4294770687EEEEEEEELb1EvEclEv+0x20>)
 80038de:	689a      	ldr	r2, [r3, #8]
 80038e0:	f422 3040 	bic.w	r0, r2, #196608	; 0x30000
 80038e4:	6098      	str	r0, [r3, #8]
 80038e6:	68d9      	ldr	r1, [r3, #12]
 80038e8:	f421 3240 	bic.w	r2, r1, #196608	; 0x30000
 80038ec:	60da      	str	r2, [r3, #12]
 80038ee:	6a58      	ldr	r0, [r3, #36]	; 0x24
 80038f0:	f020 010f 	bic.w	r1, r0, #15
 80038f4:	f041 0207 	orr.w	r2, r1, #7
 80038f8:	625a      	str	r2, [r3, #36]	; 0x24
 80038fa:	4770      	bx	lr
 80038fc:	40020c00 	.word	0x40020c00

08003900 <_ZNK4quan4meta4impl27for_each_type_sequence_implINS0_13type_sequenceIINS_5stm3210periph_regINS4_4gpio6moduleILm1073875968EEELm8EmEENS5_IS8_Lm12EmEENS5_IS8_Lm16EmEENS5_IS8_Lm20EmEENS5_IS8_Lm24EmEENS5_IS8_Lm28EmEENS5_IS8_Lm32EmEENS5_IS8_Lm36EmEEEEENS4_6detail24apply_periph_reg_actionsIS8_NS3_IINSI_17periph_reg_actionINS5_IS8_Lm0EmEENS0_6bit_orELm524288EEENSK_ISL_NS0_7bit_andELm4294705151EEENSK_ISG_SM_Lm112EEENSK_ISG_SO_Lm4294967167EEENSK_ISA_SM_Lm262144EEENSK_ISA_SO_Lm4294443007EEENSK_IS9_SM_Lm0EEENSK_IS9_SO_Lm4294180863EEEEEEEELb1EvEclEv>:
 8003900:	4b08      	ldr	r3, [pc, #32]	; (8003924 <_ZNK4quan4meta4impl27for_each_type_sequence_implINS0_13type_sequenceIINS_5stm3210periph_regINS4_4gpio6moduleILm1073875968EEELm8EmEENS5_IS8_Lm12EmEENS5_IS8_Lm16EmEENS5_IS8_Lm20EmEENS5_IS8_Lm24EmEENS5_IS8_Lm28EmEENS5_IS8_Lm32EmEENS5_IS8_Lm36EmEEEEENS4_6detail24apply_periph_reg_actionsIS8_NS3_IINSI_17periph_reg_actionINS5_IS8_Lm0EmEENS0_6bit_orELm524288EEENSK_ISL_NS0_7bit_andELm4294705151EEENSK_ISG_SM_Lm112EEENSK_ISG_SO_Lm4294967167EEENSK_ISA_SM_Lm262144EEENSK_ISA_SO_Lm4294443007EEENSK_IS9_SM_Lm0EEENSK_IS9_SO_Lm4294180863EEEEEEEELb1EvEclEv+0x24>)
 8003902:	689a      	ldr	r2, [r3, #8]
 8003904:	f422 2040 	bic.w	r0, r2, #786432	; 0xc0000
 8003908:	6098      	str	r0, [r3, #8]
 800390a:	68d9      	ldr	r1, [r3, #12]
 800390c:	f421 2240 	bic.w	r2, r1, #786432	; 0xc0000
 8003910:	f442 2080 	orr.w	r0, r2, #262144	; 0x40000
 8003914:	60d8      	str	r0, [r3, #12]
 8003916:	6a59      	ldr	r1, [r3, #36]	; 0x24
 8003918:	f021 02f0 	bic.w	r2, r1, #240	; 0xf0
 800391c:	f042 0070 	orr.w	r0, r2, #112	; 0x70
 8003920:	6258      	str	r0, [r3, #36]	; 0x24
 8003922:	4770      	bx	lr
 8003924:	40020c00 	.word	0x40020c00

08003928 <_ZN4quan5stm326detail26periph_reg_combined_actionINS0_10periph_regINS0_4gpio6moduleILm1073875968EEELm0EmEELm2048ELm4294966271EE11with_or_fun5applyEv>:
 8003928:	4b03      	ldr	r3, [pc, #12]	; (8003938 <_ZN4quan5stm326detail26periph_reg_combined_actionINS0_10periph_regINS0_4gpio6moduleILm1073875968EEELm0EmEELm2048ELm4294966271EE11with_or_fun5applyEv+0x10>)
 800392a:	681a      	ldr	r2, [r3, #0]
 800392c:	f422 6040 	bic.w	r0, r2, #3072	; 0xc00
 8003930:	f440 6100 	orr.w	r1, r0, #2048	; 0x800
 8003934:	6019      	str	r1, [r3, #0]
 8003936:	4770      	bx	lr
 8003938:	40020c00 	.word	0x40020c00

0800393c <_ZN4quan5stm326detail26periph_reg_combined_actionINS0_10periph_regINS0_4gpio6moduleILm1073875968EEELm0EmEELm8192ELm4294963199EE11with_or_fun5applyEv>:
 800393c:	4b03      	ldr	r3, [pc, #12]	; (800394c <_ZN4quan5stm326detail26periph_reg_combined_actionINS0_10periph_regINS0_4gpio6moduleILm1073875968EEELm0EmEELm8192ELm4294963199EE11with_or_fun5applyEv+0x10>)
 800393e:	681a      	ldr	r2, [r3, #0]
 8003940:	f422 5040 	bic.w	r0, r2, #12288	; 0x3000
 8003944:	f440 5100 	orr.w	r1, r0, #8192	; 0x2000
 8003948:	6019      	str	r1, [r3, #0]
 800394a:	4770      	bx	lr
 800394c:	40020c00 	.word	0x40020c00

08003950 <_ZN4quan5stm3211serial_portINS0_5usart6moduleILm1073759232EEELj25ELj1000ENS_3mcu3pinINS0_4gpio6moduleILm1073875968EEELm5EEENS6_IS9_Lm6EEEE4initEv>:
 8003950:	4b20      	ldr	r3, [pc, #128]	; (80039d4 <_ZN4quan5stm3211serial_portINS0_5usart6moduleILm1073759232EEELj25ELj1000ENS_3mcu3pinINS0_4gpio6moduleILm1073875968EEELm5EEENS6_IS9_Lm6EEEE4initEv+0x84>)
 8003952:	4821      	ldr	r0, [pc, #132]	; (80039d8 <_ZN4quan5stm3211serial_portINS0_5usart6moduleILm1073759232EEELj25ELj1000ENS_3mcu3pinINS0_4gpio6moduleILm1073875968EEELm5EEENS6_IS9_Lm6EEEE4initEv+0x88>)
 8003954:	b530      	push	{r4, r5, lr}
 8003956:	f103 0208 	add.w	r2, r3, #8
 800395a:	4c20      	ldr	r4, [pc, #128]	; (80039dc <_ZN4quan5stm3211serial_portINS0_5usart6moduleILm1073759232EEELj25ELj1000ENS_3mcu3pinINS0_4gpio6moduleILm1073875968EEELm5EEENS6_IS9_Lm6EEEE4initEv+0x8c>)
 800395c:	601a      	str	r2, [r3, #0]
 800395e:	2500      	movs	r5, #0
 8003960:	f100 0108 	add.w	r1, r0, #8
 8003964:	605d      	str	r5, [r3, #4]
 8003966:	6001      	str	r1, [r0, #0]
 8003968:	6045      	str	r5, [r0, #4]
 800396a:	6a23      	ldr	r3, [r4, #32]
 800396c:	f443 3200 	orr.w	r2, r3, #131072	; 0x20000
 8003970:	6222      	str	r2, [r4, #32]
 8003972:	6a20      	ldr	r0, [r4, #32]
 8003974:	f420 3100 	bic.w	r1, r0, #131072	; 0x20000
 8003978:	6221      	str	r1, [r4, #32]
 800397a:	6c23      	ldr	r3, [r4, #64]	; 0x40
 800397c:	f443 3200 	orr.w	r2, r3, #131072	; 0x20000
 8003980:	6422      	str	r2, [r4, #64]	; 0x40
 8003982:	4c17      	ldr	r4, [pc, #92]	; (80039e0 <_ZN4quan5stm3211serial_portINS0_5usart6moduleILm1073759232EEELj25ELj1000ENS_3mcu3pinINS0_4gpio6moduleILm1073875968EEELm5EEENS6_IS9_Lm6EEEE4initEv+0x90>)
 8003984:	b085      	sub	sp, #20
 8003986:	f7ff fd75 	bl	8003474 <_ZN4quan5stm3213module_enableINS0_4gpio6moduleILm1073875968EEEEENS_6where_INS_11is_model_ofINS0_4GpioET_EEvE4typeEv>
 800398a:	f7ff ffcd 	bl	8003928 <_ZN4quan5stm326detail26periph_reg_combined_actionINS0_10periph_regINS0_4gpio6moduleILm1073875968EEELm0EmEELm2048ELm4294966271EE11with_or_fun5applyEv>
 800398e:	6860      	ldr	r0, [r4, #4]
 8003990:	f020 0120 	bic.w	r1, r0, #32
 8003994:	6061      	str	r1, [r4, #4]
 8003996:	a801      	add	r0, sp, #4
 8003998:	f7ff ff7a 	bl	8003890 <_ZNK4quan4meta4impl27for_each_type_sequence_implINS0_13type_sequenceIINS_5stm3210periph_regINS4_4gpio6moduleILm1073875968EEELm8EmEENS5_IS8_Lm12EmEENS5_IS8_Lm16EmEENS5_IS8_Lm20EmEENS5_IS8_Lm24EmEENS5_IS8_Lm28EmEENS5_IS8_Lm32EmEENS5_IS8_Lm36EmEEEEENS4_6detail24apply_periph_reg_actionsIS8_NS3_IINSI_17periph_reg_actionINS5_IS8_Lm0EmEENS0_6bit_orELm2048EEENSK_ISL_NS0_7bit_andELm4294966271EEENSK_ISF_SM_Lm7340032EEENSK_ISF_SO_Lm4286578687EEENSK_INS5_IS8_Lm4EmEESM_Lm0EEENSK_ISS_SO_Lm4294967263EEENSK_ISA_SM_Lm0EEENSK_ISA_SO_Lm4294964223EEENSK_IS9_SM_Lm0EEENSK_IS9_SO_Lm4294964223EEEEEEEELb1EvEclEv>
 800399c:	4c11      	ldr	r4, [pc, #68]	; (80039e4 <_ZN4quan5stm3211serial_portINS0_5usart6moduleILm1073759232EEELj25ELj1000ENS_3mcu3pinINS0_4gpio6moduleILm1073875968EEELm5EEENS6_IS9_Lm6EEEE4initEv+0x94>)
 800399e:	f7ff fd69 	bl	8003474 <_ZN4quan5stm3213module_enableINS0_4gpio6moduleILm1073875968EEEEENS_6where_INS_11is_model_ofINS0_4GpioET_EEvE4typeEv>
 80039a2:	f7ff ffcb 	bl	800393c <_ZN4quan5stm326detail26periph_reg_combined_actionINS0_10periph_regINS0_4gpio6moduleILm1073875968EEELm0EmEELm8192ELm4294963199EE11with_or_fun5applyEv>
 80039a6:	a802      	add	r0, sp, #8
 80039a8:	f7ff ff84 	bl	80038b4 <_ZNK4quan4meta4impl27for_each_type_sequence_implINS0_13type_sequenceIINS_5stm3210periph_regINS4_4gpio6moduleILm1073875968EEELm8EmEENS5_IS8_Lm12EmEENS5_IS8_Lm16EmEENS5_IS8_Lm20EmEENS5_IS8_Lm24EmEENS5_IS8_Lm28EmEENS5_IS8_Lm32EmEENS5_IS8_Lm36EmEEEEENS4_6detail24apply_periph_reg_actionsIS8_NS3_IINSI_17periph_reg_actionINS5_IS8_Lm0EmEENS0_6bit_orELm8192EEENSK_ISL_NS0_7bit_andELm4294963199EEENSK_ISF_SM_Lm117440512EEENSK_ISF_SO_Lm4160749567EEENSK_ISA_SM_Lm4096EEENSK_ISA_SO_Lm4294959103EEENSK_IS9_SM_Lm0EEENSK_IS9_SO_Lm4294955007EEEEEEEELb1EvEclEv>
 80039ac:	f241 1317 	movw	r3, #4375	; 0x1117
 80039b0:	60a3      	str	r3, [r4, #8]
 80039b2:	a803      	add	r0, sp, #12
 80039b4:	f7ff ff40 	bl	8003838 <_ZNK4quan4meta4impl27for_each_type_sequence_implINS0_13type_sequenceIINS_5stm3210periph_regINS4_5usart6moduleILm1073759232EEELm12EmEENS5_IS8_Lm16EmEENS5_IS8_Lm20EmEENS5_IS8_Lm24EmEEEEENS4_6detail24apply_periph_reg_actionsIS8_NS3_IINSE_17periph_reg_actionISA_NS0_7bit_andELm4294965247EEENSG_IS9_NS0_6bit_orELm8EEENSG_IS9_SJ_Lm4EEENSG_IS9_SH_Lm4294934527EEENSG_INS5_IS8_Lm8EmEENS0_6equalsELm4375EEENSG_IS9_SH_Lm4294966271EEENSG_IS9_SH_Lm4294963199EEENSG_ISA_SH_Lm4294955007EEENSG_ISB_SH_Lm4294967039EEENSG_ISB_SH_Lm4294966783EEENSG_ISB_SH_Lm4294966271EEENSG_ISA_SH_Lm4294967231EEENSG_IS9_SH_Lm4294967167EEENSG_IS9_SH_Lm4294967231EEENSG_IS9_SH_Lm4294967263EEENSG_IS9_SH_Lm4294967279EEENSG_IS9_SH_Lm4294967039EEENSG_ISB_SH_Lm4294967294EEEEEEEELb1EvEclEv>
 80039b8:	480b      	ldr	r0, [pc, #44]	; (80039e8 <_ZN4quan5stm3211serial_portINS0_5usart6moduleILm1073759232EEELj25ELj1000ENS_3mcu3pinINS0_4gpio6moduleILm1073875968EEELm5EEENS6_IS9_Lm6EEEE4initEv+0x98>)
 80039ba:	4b0c      	ldr	r3, [pc, #48]	; (80039ec <_ZN4quan5stm3211serial_portINS0_5usart6moduleILm1073759232EEELj25ELj1000ENS_3mcu3pinINS0_4gpio6moduleILm1073875968EEELm5EEENS6_IS9_Lm6EEEE4initEv+0x9c>)
 80039bc:	2240      	movs	r2, #64	; 0x40
 80039be:	2101      	movs	r1, #1
 80039c0:	6042      	str	r2, [r0, #4]
 80039c2:	6025      	str	r5, [r4, #0]
 80039c4:	6019      	str	r1, [r3, #0]
 80039c6:	68e2      	ldr	r2, [r4, #12]
 80039c8:	f442 5000 	orr.w	r0, r2, #8192	; 0x2000
 80039cc:	60e0      	str	r0, [r4, #12]
 80039ce:	b005      	add	sp, #20
 80039d0:	bd30      	pop	{r4, r5, pc}
 80039d2:	bf00      	nop
 80039d4:	100016f0 	.word	0x100016f0
 80039d8:	10001300 	.word	0x10001300
 80039dc:	40023800 	.word	0x40023800
 80039e0:	40020c00 	.word	0x40020c00
 80039e4:	40004400 	.word	0x40004400
 80039e8:	e000e100 	.word	0xe000e100
 80039ec:	42088194 	.word	0x42088194

080039f0 <_ZN4quan5stm326detail26periph_reg_combined_actionINS0_10periph_regINS0_4gpio6moduleILm1073875968EEELm0EmEELm131072ELm4294901759EE11with_or_fun5applyEv>:
 80039f0:	4b03      	ldr	r3, [pc, #12]	; (8003a00 <_ZN4quan5stm326detail26periph_reg_combined_actionINS0_10periph_regINS0_4gpio6moduleILm1073875968EEELm0EmEELm131072ELm4294901759EE11with_or_fun5applyEv+0x10>)
 80039f2:	681a      	ldr	r2, [r3, #0]
 80039f4:	f422 3040 	bic.w	r0, r2, #196608	; 0x30000
 80039f8:	f440 3100 	orr.w	r1, r0, #131072	; 0x20000
 80039fc:	6019      	str	r1, [r3, #0]
 80039fe:	4770      	bx	lr
 8003a00:	40020c00 	.word	0x40020c00

08003a04 <_ZN4quan5stm326detail26periph_reg_combined_actionINS0_10periph_regINS0_4gpio6moduleILm1073875968EEELm0EmEELm524288ELm4294705151EE11with_or_fun5applyEv>:
 8003a04:	4b03      	ldr	r3, [pc, #12]	; (8003a14 <_ZN4quan5stm326detail26periph_reg_combined_actionINS0_10periph_regINS0_4gpio6moduleILm1073875968EEELm0EmEELm524288ELm4294705151EE11with_or_fun5applyEv+0x10>)
 8003a06:	681a      	ldr	r2, [r3, #0]
 8003a08:	f422 2040 	bic.w	r0, r2, #786432	; 0xc0000
 8003a0c:	f440 2100 	orr.w	r1, r0, #524288	; 0x80000
 8003a10:	6019      	str	r1, [r3, #0]
 8003a12:	4770      	bx	lr
 8003a14:	40020c00 	.word	0x40020c00

08003a18 <_ZN4quan5stm3211serial_portINS0_5usart6moduleILm1073760256EEELj1000ELj1000ENS_3mcu3pinINS0_4gpio6moduleILm1073875968EEELm8EEENS6_IS9_Lm9EEEE4initEv>:
 8003a18:	4b20      	ldr	r3, [pc, #128]	; (8003a9c <_ZN4quan5stm3211serial_portINS0_5usart6moduleILm1073760256EEELj1000ELj1000ENS_3mcu3pinINS0_4gpio6moduleILm1073875968EEELm8EEENS6_IS9_Lm9EEEE4initEv+0x84>)
 8003a1a:	4821      	ldr	r0, [pc, #132]	; (8003aa0 <_ZN4quan5stm3211serial_portINS0_5usart6moduleILm1073760256EEELj1000ELj1000ENS_3mcu3pinINS0_4gpio6moduleILm1073875968EEELm8EEENS6_IS9_Lm9EEEE4initEv+0x88>)
 8003a1c:	b530      	push	{r4, r5, lr}
 8003a1e:	f103 0208 	add.w	r2, r3, #8
 8003a22:	4c20      	ldr	r4, [pc, #128]	; (8003aa4 <_ZN4quan5stm3211serial_portINS0_5usart6moduleILm1073760256EEELj1000ELj1000ENS_3mcu3pinINS0_4gpio6moduleILm1073875968EEELm8EEENS6_IS9_Lm9EEEE4initEv+0x8c>)
 8003a24:	601a      	str	r2, [r3, #0]
 8003a26:	2500      	movs	r5, #0
 8003a28:	f100 0108 	add.w	r1, r0, #8
 8003a2c:	605d      	str	r5, [r3, #4]
 8003a2e:	6001      	str	r1, [r0, #0]
 8003a30:	6045      	str	r5, [r0, #4]
 8003a32:	6a23      	ldr	r3, [r4, #32]
 8003a34:	f443 2280 	orr.w	r2, r3, #262144	; 0x40000
 8003a38:	6222      	str	r2, [r4, #32]
 8003a3a:	6a20      	ldr	r0, [r4, #32]
 8003a3c:	f420 2180 	bic.w	r1, r0, #262144	; 0x40000
 8003a40:	6221      	str	r1, [r4, #32]
 8003a42:	6c23      	ldr	r3, [r4, #64]	; 0x40
 8003a44:	f443 2280 	orr.w	r2, r3, #262144	; 0x40000
 8003a48:	6422      	str	r2, [r4, #64]	; 0x40
 8003a4a:	4c17      	ldr	r4, [pc, #92]	; (8003aa8 <_ZN4quan5stm3211serial_portINS0_5usart6moduleILm1073760256EEELj1000ELj1000ENS_3mcu3pinINS0_4gpio6moduleILm1073875968EEELm8EEENS6_IS9_Lm9EEEE4initEv+0x90>)
 8003a4c:	b085      	sub	sp, #20
 8003a4e:	f7ff fd11 	bl	8003474 <_ZN4quan5stm3213module_enableINS0_4gpio6moduleILm1073875968EEEEENS_6where_INS_11is_model_ofINS0_4GpioET_EEvE4typeEv>
 8003a52:	f7ff ffcd 	bl	80039f0 <_ZN4quan5stm326detail26periph_reg_combined_actionINS0_10periph_regINS0_4gpio6moduleILm1073875968EEELm0EmEELm131072ELm4294901759EE11with_or_fun5applyEv>
 8003a56:	6860      	ldr	r0, [r4, #4]
 8003a58:	f420 7180 	bic.w	r1, r0, #256	; 0x100
 8003a5c:	6061      	str	r1, [r4, #4]
 8003a5e:	a801      	add	r0, sp, #4
 8003a60:	f7ff ff3c 	bl	80038dc <_ZNK4quan4meta4impl27for_each_type_sequence_implINS0_13type_sequenceIINS_5stm3210periph_regINS4_4gpio6moduleILm1073875968EEELm8EmEENS5_IS8_Lm12EmEENS5_IS8_Lm16EmEENS5_IS8_Lm20EmEENS5_IS8_Lm24EmEENS5_IS8_Lm28EmEENS5_IS8_Lm32EmEENS5_IS8_Lm36EmEEEEENS4_6detail24apply_periph_reg_actionsIS8_NS3_IINSI_17periph_reg_actionINS5_IS8_Lm0EmEENS0_6bit_orELm131072EEENSK_ISL_NS0_7bit_andELm4294901759EEENSK_ISG_SM_Lm7EEENSK_ISG_SO_Lm4294967287EEENSK_INS5_IS8_Lm4EmEESM_Lm0EEENSK_ISS_SO_Lm4294967039EEENSK_ISA_SM_Lm0EEENSK_ISA_SO_Lm4294770687EEENSK_IS9_SM_Lm0EEENSK_IS9_SO_Lm4294770687EEEEEEEELb1EvEclEv>
 8003a64:	4c11      	ldr	r4, [pc, #68]	; (8003aac <_ZN4quan5stm3211serial_portINS0_5usart6moduleILm1073760256EEELj1000ELj1000ENS_3mcu3pinINS0_4gpio6moduleILm1073875968EEELm8EEENS6_IS9_Lm9EEEE4initEv+0x94>)
 8003a66:	f7ff fd05 	bl	8003474 <_ZN4quan5stm3213module_enableINS0_4gpio6moduleILm1073875968EEEEENS_6where_INS_11is_model_ofINS0_4GpioET_EEvE4typeEv>
 8003a6a:	f7ff ffcb 	bl	8003a04 <_ZN4quan5stm326detail26periph_reg_combined_actionINS0_10periph_regINS0_4gpio6moduleILm1073875968EEELm0EmEELm524288ELm4294705151EE11with_or_fun5applyEv>
 8003a6e:	a802      	add	r0, sp, #8
 8003a70:	f7ff ff46 	bl	8003900 <_ZNK4quan4meta4impl27for_each_type_sequence_implINS0_13type_sequenceIINS_5stm3210periph_regINS4_4gpio6moduleILm1073875968EEELm8EmEENS5_IS8_Lm12EmEENS5_IS8_Lm16EmEENS5_IS8_Lm20EmEENS5_IS8_Lm24EmEENS5_IS8_Lm28EmEENS5_IS8_Lm32EmEENS5_IS8_Lm36EmEEEEENS4_6detail24apply_periph_reg_actionsIS8_NS3_IINSI_17periph_reg_actionINS5_IS8_Lm0EmEENS0_6bit_orELm524288EEENSK_ISL_NS0_7bit_andELm4294705151EEENSK_ISG_SM_Lm112EEENSK_ISG_SO_Lm4294967167EEENSK_ISA_SM_Lm262144EEENSK_ISA_SO_Lm4294443007EEENSK_IS9_SM_Lm0EEENSK_IS9_SO_Lm4294180863EEEEEEEELb1EvEclEv>
 8003a74:	f241 1317 	movw	r3, #4375	; 0x1117
 8003a78:	60a3      	str	r3, [r4, #8]
 8003a7a:	a803      	add	r0, sp, #12
 8003a7c:	f7ff fef2 	bl	8003864 <_ZNK4quan4meta4impl27for_each_type_sequence_implINS0_13type_sequenceIINS_5stm3210periph_regINS4_5usart6moduleILm1073760256EEELm12EmEENS5_IS8_Lm16EmEENS5_IS8_Lm20EmEENS5_IS8_Lm24EmEEEEENS4_6detail24apply_periph_reg_actionsIS8_NS3_IINSE_17periph_reg_actionISA_NS0_7bit_andELm4294965247EEENSG_IS9_NS0_6bit_orELm8EEENSG_IS9_SJ_Lm4EEENSG_IS9_SH_Lm4294934527EEENSG_INS5_IS8_Lm8EmEENS0_6equalsELm4375EEENSG_IS9_SH_Lm4294966271EEENSG_IS9_SH_Lm4294963199EEENSG_ISA_SH_Lm4294955007EEENSG_ISB_SH_Lm4294967039EEENSG_ISB_SH_Lm4294966783EEENSG_ISB_SH_Lm4294966271EEENSG_ISA_SH_Lm4294967231EEENSG_IS9_SH_Lm4294967167EEENSG_IS9_SH_Lm4294967231EEENSG_IS9_SH_Lm4294967263EEENSG_IS9_SH_Lm4294967279EEENSG_IS9_SH_Lm4294967039EEENSG_ISB_SH_Lm4294967294EEEEEEEELb1EvEclEv>
 8003a80:	480b      	ldr	r0, [pc, #44]	; (8003ab0 <_ZN4quan5stm3211serial_portINS0_5usart6moduleILm1073760256EEELj1000ELj1000ENS_3mcu3pinINS0_4gpio6moduleILm1073875968EEELm8EEENS6_IS9_Lm9EEEE4initEv+0x98>)
 8003a82:	4b0c      	ldr	r3, [pc, #48]	; (8003ab4 <_ZN4quan5stm3211serial_portINS0_5usart6moduleILm1073760256EEELj1000ELj1000ENS_3mcu3pinINS0_4gpio6moduleILm1073875968EEELm8EEENS6_IS9_Lm9EEEE4initEv+0x9c>)
 8003a84:	2280      	movs	r2, #128	; 0x80
 8003a86:	2101      	movs	r1, #1
 8003a88:	6042      	str	r2, [r0, #4]
 8003a8a:	6025      	str	r5, [r4, #0]
 8003a8c:	6019      	str	r1, [r3, #0]
 8003a8e:	68e2      	ldr	r2, [r4, #12]
 8003a90:	f442 5000 	orr.w	r0, r2, #8192	; 0x2000
 8003a94:	60e0      	str	r0, [r4, #12]
 8003a96:	b005      	add	sp, #20
 8003a98:	bd30      	pop	{r4, r5, pc}
 8003a9a:	bf00      	nop
 8003a9c:	10000b18 	.word	0x10000b18
 8003aa0:	10000f0c 	.word	0x10000f0c
 8003aa4:	40023800 	.word	0x40023800
 8003aa8:	40020c00 	.word	0x40020c00
 8003aac:	40004800 	.word	0x40004800
 8003ab0:	e000e100 	.word	0xe000e100
 8003ab4:	42090194 	.word	0x42090194

08003ab8 <_GLOBAL__sub_I___cxa_pure_virtual>:
 8003ab8:	4a18      	ldr	r2, [pc, #96]	; (8003b1c <_GLOBAL__sub_I___cxa_pure_virtual+0x64>)
 8003aba:	6813      	ldr	r3, [r2, #0]
 8003abc:	f013 0101 	ands.w	r1, r3, #1
 8003ac0:	d106      	bne.n	8003ad0 <_GLOBAL__sub_I___cxa_pure_virtual+0x18>
 8003ac2:	4b17      	ldr	r3, [pc, #92]	; (8003b20 <_GLOBAL__sub_I___cxa_pure_virtual+0x68>)
 8003ac4:	2001      	movs	r0, #1
 8003ac6:	6010      	str	r0, [r2, #0]
 8003ac8:	f103 0208 	add.w	r2, r3, #8
 8003acc:	601a      	str	r2, [r3, #0]
 8003ace:	6059      	str	r1, [r3, #4]
 8003ad0:	4814      	ldr	r0, [pc, #80]	; (8003b24 <_GLOBAL__sub_I___cxa_pure_virtual+0x6c>)
 8003ad2:	6801      	ldr	r1, [r0, #0]
 8003ad4:	f011 0101 	ands.w	r1, r1, #1
 8003ad8:	d106      	bne.n	8003ae8 <_GLOBAL__sub_I___cxa_pure_virtual+0x30>
 8003ada:	2301      	movs	r3, #1
 8003adc:	6003      	str	r3, [r0, #0]
 8003ade:	4812      	ldr	r0, [pc, #72]	; (8003b28 <_GLOBAL__sub_I___cxa_pure_virtual+0x70>)
 8003ae0:	f100 0208 	add.w	r2, r0, #8
 8003ae4:	6002      	str	r2, [r0, #0]
 8003ae6:	6041      	str	r1, [r0, #4]
 8003ae8:	4810      	ldr	r0, [pc, #64]	; (8003b2c <_GLOBAL__sub_I___cxa_pure_virtual+0x74>)
 8003aea:	6801      	ldr	r1, [r0, #0]
 8003aec:	f011 0101 	ands.w	r1, r1, #1
 8003af0:	d106      	bne.n	8003b00 <_GLOBAL__sub_I___cxa_pure_virtual+0x48>
 8003af2:	2301      	movs	r3, #1
 8003af4:	6003      	str	r3, [r0, #0]
 8003af6:	480e      	ldr	r0, [pc, #56]	; (8003b30 <_GLOBAL__sub_I___cxa_pure_virtual+0x78>)
 8003af8:	f100 0208 	add.w	r2, r0, #8
 8003afc:	6002      	str	r2, [r0, #0]
 8003afe:	6041      	str	r1, [r0, #4]
 8003b00:	480c      	ldr	r0, [pc, #48]	; (8003b34 <_GLOBAL__sub_I___cxa_pure_virtual+0x7c>)
 8003b02:	6801      	ldr	r1, [r0, #0]
 8003b04:	f011 0101 	ands.w	r1, r1, #1
 8003b08:	d106      	bne.n	8003b18 <_GLOBAL__sub_I___cxa_pure_virtual+0x60>
 8003b0a:	2301      	movs	r3, #1
 8003b0c:	6003      	str	r3, [r0, #0]
 8003b0e:	480a      	ldr	r0, [pc, #40]	; (8003b38 <_GLOBAL__sub_I___cxa_pure_virtual+0x80>)
 8003b10:	f100 0208 	add.w	r2, r0, #8
 8003b14:	6002      	str	r2, [r0, #0]
 8003b16:	6041      	str	r1, [r0, #4]
 8003b18:	4770      	bx	lr
 8003b1a:	bf00      	nop
 8003b1c:	10001718 	.word	0x10001718
 8003b20:	100016f0 	.word	0x100016f0
 8003b24:	10001714 	.word	0x10001714
 8003b28:	10001300 	.word	0x10001300
 8003b2c:	10000f08 	.word	0x10000f08
 8003b30:	10000b18 	.word	0x10000b18
 8003b34:	100012fc 	.word	0x100012fc
 8003b38:	10000f0c 	.word	0x10000f0c

08003b3c <_ZN4quan6detail9converterIfPcE7get_tokEc>:
 8003b3c:	f1a0 0330 	sub.w	r3, r0, #48	; 0x30
 8003b40:	2b09      	cmp	r3, #9
 8003b42:	d918      	bls.n	8003b76 <_ZN4quan6detail9converterIfPcE7get_tokEc+0x3a>
 8003b44:	2845      	cmp	r0, #69	; 0x45
 8003b46:	d014      	beq.n	8003b72 <_ZN4quan6detail9converterIfPcE7get_tokEc+0x36>
 8003b48:	d80a      	bhi.n	8003b60 <_ZN4quan6detail9converterIfPcE7get_tokEc+0x24>
 8003b4a:	282d      	cmp	r0, #45	; 0x2d
 8003b4c:	d00b      	beq.n	8003b66 <_ZN4quan6detail9converterIfPcE7get_tokEc+0x2a>
 8003b4e:	d803      	bhi.n	8003b58 <_ZN4quan6detail9converterIfPcE7get_tokEc+0x1c>
 8003b50:	b158      	cbz	r0, 8003b6a <_ZN4quan6detail9converterIfPcE7get_tokEc+0x2e>
 8003b52:	282b      	cmp	r0, #43	; 0x2b
 8003b54:	d10b      	bne.n	8003b6e <_ZN4quan6detail9converterIfPcE7get_tokEc+0x32>
 8003b56:	e006      	b.n	8003b66 <_ZN4quan6detail9converterIfPcE7get_tokEc+0x2a>
 8003b58:	282e      	cmp	r0, #46	; 0x2e
 8003b5a:	d108      	bne.n	8003b6e <_ZN4quan6detail9converterIfPcE7get_tokEc+0x32>
 8003b5c:	2003      	movs	r0, #3
 8003b5e:	4770      	bx	lr
 8003b60:	2865      	cmp	r0, #101	; 0x65
 8003b62:	d104      	bne.n	8003b6e <_ZN4quan6detail9converterIfPcE7get_tokEc+0x32>
 8003b64:	e005      	b.n	8003b72 <_ZN4quan6detail9converterIfPcE7get_tokEc+0x36>
 8003b66:	2002      	movs	r0, #2
 8003b68:	4770      	bx	lr
 8003b6a:	2004      	movs	r0, #4
 8003b6c:	4770      	bx	lr
 8003b6e:	2005      	movs	r0, #5
 8003b70:	4770      	bx	lr
 8003b72:	2001      	movs	r0, #1
 8003b74:	4770      	bx	lr
 8003b76:	2000      	movs	r0, #0
 8003b78:	4770      	bx	lr
	...

08003b7c <_ZN4quan6detail9converterIfPcEclEPKc>:
 8003b7c:	e92d 4ff0 	stmdb	sp!, {r4, r5, r6, r7, r8, r9, sl, fp, lr}
 8003b80:	ed2d 8b02 	vpush	{d8}
 8003b84:	2300      	movs	r3, #0
 8003b86:	b083      	sub	sp, #12
 8003b88:	4605      	mov	r5, r0
 8003b8a:	4689      	mov	r9, r1
 8003b8c:	6003      	str	r3, [r0, #0]
 8003b8e:	f819 2003 	ldrb.w	r2, [r9, r3]
 8003b92:	b12a      	cbz	r2, 8003ba0 <_ZN4quan6detail9converterIfPcEclEPKc+0x24>
 8003b94:	3301      	adds	r3, #1
 8003b96:	f06f 4000 	mvn.w	r0, #2147483648	; 0x80000000
 8003b9a:	4283      	cmp	r3, r0
 8003b9c:	d1f7      	bne.n	8003b8e <_ZN4quan6detail9converterIfPcEclEPKc+0x12>
 8003b9e:	e002      	b.n	8003ba6 <_ZN4quan6detail9converterIfPcEclEPKc+0x2a>
 8003ba0:	2b00      	cmp	r3, #0
 8003ba2:	f000 80ca 	beq.w	8003d3a <_ZN4quan6detail9converterIfPcEclEPKc+0x1be>
 8003ba6:	f899 8000 	ldrb.w	r8, [r9]
 8003baa:	4640      	mov	r0, r8
 8003bac:	f7ff ffc6 	bl	8003b3c <_ZN4quan6detail9converterIfPcE7get_tokEc>
 8003bb0:	2802      	cmp	r0, #2
 8003bb2:	4683      	mov	fp, r0
 8003bb4:	d10d      	bne.n	8003bd2 <_ZN4quan6detail9converterIfPcEclEPKc+0x56>
 8003bb6:	f899 0001 	ldrb.w	r0, [r9, #1]
 8003bba:	f7ff ffbf 	bl	8003b3c <_ZN4quan6detail9converterIfPcE7get_tokEc>
 8003bbe:	f1b8 0f2d 	cmp.w	r8, #45	; 0x2d
 8003bc2:	bf0c      	ite	eq
 8003bc4:	f04f 38ff 	moveq.w	r8, #4294967295
 8003bc8:	f04f 0801 	movne.w	r8, #1
 8003bcc:	4683      	mov	fp, r0
 8003bce:	2401      	movs	r4, #1
 8003bd0:	e002      	b.n	8003bd8 <_ZN4quan6detail9converterIfPcEclEPKc+0x5c>
 8003bd2:	2400      	movs	r4, #0
 8003bd4:	f04f 0801 	mov.w	r8, #1
 8003bd8:	ed9f 8a5c 	vldr	s16, [pc, #368]	; 8003d4c <_ZN4quan6detail9converterIfPcEclEPKc+0x1d0>
 8003bdc:	444c      	add	r4, r9
 8003bde:	ebc9 0a04 	rsb	sl, r9, r4
 8003be2:	f1bb 0f00 	cmp.w	fp, #0
 8003be6:	d112      	bne.n	8003c0e <_ZN4quan6detail9converterIfPcEclEPKc+0x92>
 8003be8:	4621      	mov	r1, r4
 8003bea:	f814 2b01 	ldrb.w	r2, [r4], #1
 8003bee:	7848      	ldrb	r0, [r1, #1]
 8003bf0:	3a30      	subs	r2, #48	; 0x30
 8003bf2:	ee00 2a90 	vmov	s1, r2
 8003bf6:	eef2 1a04 	vmov.f32	s3, #36	; 0x24
 8003bfa:	eeb8 1ae0 	vcvt.f32.s32	s2, s1
 8003bfe:	ee08 1a21 	vmla.f32	s2, s16, s3
 8003c02:	eeb0 8a41 	vmov.f32	s16, s2
 8003c06:	f7ff ff99 	bl	8003b3c <_ZN4quan6detail9converterIfPcE7get_tokEc>
 8003c0a:	4683      	mov	fp, r0
 8003c0c:	e7e7      	b.n	8003bde <_ZN4quan6detail9converterIfPcEclEPKc+0x62>
 8003c0e:	f1bb 0f03 	cmp.w	fp, #3
 8003c12:	4654      	mov	r4, sl
 8003c14:	d145      	bne.n	8003ca2 <_ZN4quan6detail9converterIfPcEclEPKc+0x126>
 8003c16:	f10a 0a01 	add.w	sl, sl, #1
 8003c1a:	f819 000a 	ldrb.w	r0, [r9, sl]
 8003c1e:	f7ff ff8d 	bl	8003b3c <_ZN4quan6detail9converterIfPcE7get_tokEc>
 8003c22:	4683      	mov	fp, r0
 8003c24:	b940      	cbnz	r0, 8003c38 <_ZN4quan6detail9converterIfPcEclEPKc+0xbc>
 8003c26:	f104 0c14 	add.w	ip, r4, #20
 8003c2a:	2500      	movs	r5, #0
 8003c2c:	2401      	movs	r4, #1
 8003c2e:	2600      	movs	r6, #0
 8003c30:	2700      	movs	r7, #0
 8003c32:	45e2      	cmp	sl, ip
 8003c34:	d107      	bne.n	8003c46 <_ZN4quan6detail9converterIfPcEclEPKc+0xca>
 8003c36:	e024      	b.n	8003c82 <_ZN4quan6detail9converterIfPcEclEPKc+0x106>
 8003c38:	f1ba 0f01 	cmp.w	sl, #1
 8003c3c:	d131      	bne.n	8003ca2 <_ZN4quan6detail9converterIfPcEclEPKc+0x126>
 8003c3e:	f04f 31ff 	mov.w	r1, #4294967295
 8003c42:	6029      	str	r1, [r5, #0]
 8003c44:	e07b      	b.n	8003d3e <_ZN4quan6detail9converterIfPcEclEPKc+0x1c2>
 8003c46:	210a      	movs	r1, #10
 8003c48:	fba6 2301 	umull	r2, r3, r6, r1
 8003c4c:	fb01 3707 	mla	r7, r1, r7, r3
 8003c50:	f819 300a 	ldrb.w	r3, [r9, sl]
 8003c54:	f10a 0a01 	add.w	sl, sl, #1
 8003c58:	3b30      	subs	r3, #48	; 0x30
 8003c5a:	18d6      	adds	r6, r2, r3
 8003c5c:	f819 000a 	ldrb.w	r0, [r9, sl]
 8003c60:	e88d 1002 	stmia.w	sp, {r1, ip}
 8003c64:	eb47 77e3 	adc.w	r7, r7, r3, asr #31
 8003c68:	f7ff ff68 	bl	8003b3c <_ZN4quan6detail9converterIfPcE7get_tokEc>
 8003c6c:	9a00      	ldr	r2, [sp, #0]
 8003c6e:	f8dd c004 	ldr.w	ip, [sp, #4]
 8003c72:	fb02 f105 	mul.w	r1, r2, r5
 8003c76:	fba4 4502 	umull	r4, r5, r4, r2
 8003c7a:	194d      	adds	r5, r1, r5
 8003c7c:	2800      	cmp	r0, #0
 8003c7e:	d0d8      	beq.n	8003c32 <_ZN4quan6detail9converterIfPcEclEPKc+0xb6>
 8003c80:	4683      	mov	fp, r0
 8003c82:	4639      	mov	r1, r7
 8003c84:	4630      	mov	r0, r6
 8003c86:	f7fe fe59 	bl	800293c <__aeabi_ul2f>
 8003c8a:	4629      	mov	r1, r5
 8003c8c:	ee08 0a90 	vmov	s17, r0
 8003c90:	4620      	mov	r0, r4
 8003c92:	f7fe fe53 	bl	800293c <__aeabi_ul2f>
 8003c96:	ee07 0a10 	vmov	s14, r0
 8003c9a:	eec8 8a87 	vdiv.f32	s17, s17, s14
 8003c9e:	ee38 8a28 	vadd.f32	s16, s16, s17
 8003ca2:	f1bb 0f01 	cmp.w	fp, #1
 8003ca6:	d142      	bne.n	8003d2e <_ZN4quan6detail9converterIfPcEclEPKc+0x1b2>
 8003ca8:	f10a 0501 	add.w	r5, sl, #1
 8003cac:	f819 6005 	ldrb.w	r6, [r9, r5]
 8003cb0:	4630      	mov	r0, r6
 8003cb2:	f7ff ff43 	bl	8003b3c <_ZN4quan6detail9converterIfPcE7get_tokEc>
 8003cb6:	2802      	cmp	r0, #2
 8003cb8:	d10b      	bne.n	8003cd2 <_ZN4quan6detail9converterIfPcEclEPKc+0x156>
 8003cba:	f10a 0502 	add.w	r5, sl, #2
 8003cbe:	2e2d      	cmp	r6, #45	; 0x2d
 8003cc0:	bf0c      	ite	eq
 8003cc2:	f04f 36ff 	moveq.w	r6, #4294967295
 8003cc6:	2601      	movne	r6, #1
 8003cc8:	f819 0005 	ldrb.w	r0, [r9, r5]
 8003ccc:	f7ff ff36 	bl	8003b3c <_ZN4quan6detail9converterIfPcE7get_tokEc>
 8003cd0:	e000      	b.n	8003cd4 <_ZN4quan6detail9converterIfPcEclEPKc+0x158>
 8003cd2:	465e      	mov	r6, fp
 8003cd4:	eb09 0705 	add.w	r7, r9, r5
 8003cd8:	2400      	movs	r4, #0
 8003cda:	2500      	movs	r5, #0
 8003cdc:	b978      	cbnz	r0, 8003cfe <_ZN4quan6detail9converterIfPcEclEPKc+0x182>
 8003cde:	210a      	movs	r1, #10
 8003ce0:	fba4 2301 	umull	r2, r3, r4, r1
 8003ce4:	fb01 3505 	mla	r5, r1, r5, r3
 8003ce8:	463b      	mov	r3, r7
 8003cea:	f817 0b01 	ldrb.w	r0, [r7], #1
 8003cee:	3830      	subs	r0, #48	; 0x30
 8003cf0:	1814      	adds	r4, r2, r0
 8003cf2:	eb45 75e0 	adc.w	r5, r5, r0, asr #31
 8003cf6:	7858      	ldrb	r0, [r3, #1]
 8003cf8:	f7ff ff20 	bl	8003b3c <_ZN4quan6detail9converterIfPcE7get_tokEc>
 8003cfc:	e7ee      	b.n	8003cdc <_ZN4quan6detail9converterIfPcEclEPKc+0x160>
 8003cfe:	eef7 7a00 	vmov.f32	s15, #112	; 0x70
 8003d02:	2c01      	cmp	r4, #1
 8003d04:	f175 0300 	sbcs.w	r3, r5, #0
 8003d08:	db0b      	blt.n	8003d22 <_ZN4quan6detail9converterIfPcEclEPKc+0x1a6>
 8003d0a:	f04f 30ff 	mov.w	r0, #4294967295
 8003d0e:	eeb2 0a04 	vmov.f32	s0, #36	; 0x24
 8003d12:	f04f 33ff 	mov.w	r3, #4294967295
 8003d16:	1824      	adds	r4, r4, r0
 8003d18:	ee67 7a80 	vmul.f32	s15, s15, s0
 8003d1c:	eb45 0503 	adc.w	r5, r5, r3
 8003d20:	e7ef      	b.n	8003d02 <_ZN4quan6detail9converterIfPcEclEPKc+0x186>
 8003d22:	2e01      	cmp	r6, #1
 8003d24:	bf14      	ite	ne
 8003d26:	ee88 8a27 	vdivne.f32	s16, s16, s15
 8003d2a:	ee28 8a27 	vmuleq.f32	s16, s16, s15
 8003d2e:	f1b8 0f01 	cmp.w	r8, #1
 8003d32:	d004      	beq.n	8003d3e <_ZN4quan6detail9converterIfPcEclEPKc+0x1c2>
 8003d34:	eeb1 8a48 	vneg.f32	s16, s16
 8003d38:	e001      	b.n	8003d3e <_ZN4quan6detail9converterIfPcEclEPKc+0x1c2>
 8003d3a:	ed9f 8a04 	vldr	s16, [pc, #16]	; 8003d4c <_ZN4quan6detail9converterIfPcEclEPKc+0x1d0>
 8003d3e:	eeb0 0a48 	vmov.f32	s0, s16
 8003d42:	b003      	add	sp, #12
 8003d44:	ecbd 8b02 	vpop	{d8}
 8003d48:	e8bd 8ff0 	ldmia.w	sp!, {r4, r5, r6, r7, r8, r9, sl, fp, pc}
 8003d4c:	00000000 	.word	0x00000000

08003d50 <_ZNK4quan4fifoIcLi1000ELb1EE13num_in_bufferEv>:
 8003d50:	6843      	ldr	r3, [r0, #4]
 8003d52:	b16b      	cbz	r3, 8003d70 <_ZNK4quan4fifoIcLi1000ELb1EE13num_in_bufferEv+0x20>
 8003d54:	6801      	ldr	r1, [r0, #0]
 8003d56:	b169      	cbz	r1, 8003d74 <_ZNK4quan4fifoIcLi1000ELb1EE13num_in_bufferEv+0x24>
 8003d58:	6802      	ldr	r2, [r0, #0]
 8003d5a:	6843      	ldr	r3, [r0, #4]
 8003d5c:	6801      	ldr	r1, [r0, #0]
 8003d5e:	429a      	cmp	r2, r3
 8003d60:	6842      	ldr	r2, [r0, #4]
 8003d62:	d901      	bls.n	8003d68 <_ZNK4quan4fifoIcLi1000ELb1EE13num_in_bufferEv+0x18>
 8003d64:	1a88      	subs	r0, r1, r2
 8003d66:	4770      	bx	lr
 8003d68:	f501 707a 	add.w	r0, r1, #1000	; 0x3e8
 8003d6c:	1a80      	subs	r0, r0, r2
 8003d6e:	4770      	bx	lr
 8003d70:	4618      	mov	r0, r3
 8003d72:	4770      	bx	lr
 8003d74:	f44f 707a 	mov.w	r0, #1000	; 0x3e8
 8003d78:	4770      	bx	lr
	...

08003d7c <_GLOBAL__sub_I__Z17parse_commandlinev>:
 8003d7c:	4a0c      	ldr	r2, [pc, #48]	; (8003db0 <_GLOBAL__sub_I__Z17parse_commandlinev+0x34>)
 8003d7e:	6813      	ldr	r3, [r2, #0]
 8003d80:	f013 0101 	ands.w	r1, r3, #1
 8003d84:	d106      	bne.n	8003d94 <_GLOBAL__sub_I__Z17parse_commandlinev+0x18>
 8003d86:	4b0b      	ldr	r3, [pc, #44]	; (8003db4 <_GLOBAL__sub_I__Z17parse_commandlinev+0x38>)
 8003d88:	2001      	movs	r0, #1
 8003d8a:	6010      	str	r0, [r2, #0]
 8003d8c:	f103 0208 	add.w	r2, r3, #8
 8003d90:	601a      	str	r2, [r3, #0]
 8003d92:	6059      	str	r1, [r3, #4]
 8003d94:	4808      	ldr	r0, [pc, #32]	; (8003db8 <_GLOBAL__sub_I__Z17parse_commandlinev+0x3c>)
 8003d96:	6801      	ldr	r1, [r0, #0]
 8003d98:	f011 0101 	ands.w	r1, r1, #1
 8003d9c:	d106      	bne.n	8003dac <_GLOBAL__sub_I__Z17parse_commandlinev+0x30>
 8003d9e:	2301      	movs	r3, #1
 8003da0:	6003      	str	r3, [r0, #0]
 8003da2:	4806      	ldr	r0, [pc, #24]	; (8003dbc <_GLOBAL__sub_I__Z17parse_commandlinev+0x40>)
 8003da4:	f100 0208 	add.w	r2, r0, #8
 8003da8:	6002      	str	r2, [r0, #0]
 8003daa:	6041      	str	r1, [r0, #4]
 8003dac:	4770      	bx	lr
 8003dae:	bf00      	nop
 8003db0:	100012fc 	.word	0x100012fc
 8003db4:	10000f0c 	.word	0x10000f0c
 8003db8:	10000f08 	.word	0x10000f08
 8003dbc:	10000b18 	.word	0x10000b18

08003dc0 <_ZN4quan5stm328i2c_portINS0_3i2c6moduleILm1073763328EEENS_3mcu3pinINS0_4gpio6moduleILm1073873920EEELm6EEENS6_IS9_Lm9EEEE5on_sbEm>:
 8003dc0:	f010 0001 	ands.w	r0, r0, #1
 8003dc4:	d007      	beq.n	8003dd6 <_ZN4quan5stm328i2c_portINS0_3i2c6moduleILm1073763328EEENS_3mcu3pinINS0_4gpio6moduleILm1073873920EEELm6EEENS6_IS9_Lm9EEEE5on_sbEm+0x16>
 8003dc6:	4b04      	ldr	r3, [pc, #16]	; (8003dd8 <_ZN4quan5stm328i2c_portINS0_3i2c6moduleILm1073763328EEENS_3mcu3pinINS0_4gpio6moduleILm1073873920EEELm6EEENS6_IS9_Lm9EEEE5on_sbEm+0x18>)
 8003dc8:	4804      	ldr	r0, [pc, #16]	; (8003ddc <_ZN4quan5stm328i2c_portINS0_3i2c6moduleILm1073763328EEENS_3mcu3pinINS0_4gpio6moduleILm1073873920EEELm6EEENS6_IS9_Lm9EEEE5on_sbEm+0x1c>)
 8003dca:	781a      	ldrb	r2, [r3, #0]
 8003dcc:	4904      	ldr	r1, [pc, #16]	; (8003de0 <_ZN4quan5stm328i2c_portINS0_3i2c6moduleILm1073763328EEENS_3mcu3pinINS0_4gpio6moduleILm1073873920EEELm6EEENS6_IS9_Lm9EEEE5on_sbEm+0x20>)
 8003dce:	4b05      	ldr	r3, [pc, #20]	; (8003de4 <_ZN4quan5stm328i2c_portINS0_3i2c6moduleILm1073763328EEENS_3mcu3pinINS0_4gpio6moduleILm1073873920EEELm6EEENS6_IS9_Lm9EEEE5on_sbEm+0x24>)
 8003dd0:	7402      	strb	r2, [r0, #16]
 8003dd2:	6019      	str	r1, [r3, #0]
 8003dd4:	2001      	movs	r0, #1
 8003dd6:	4770      	bx	lr
 8003dd8:	1000172d 	.word	0x1000172d
 8003ddc:	40005400 	.word	0x40005400
 8003de0:	08003f75 	.word	0x08003f75
 8003de4:	10000040 	.word	0x10000040

08003de8 <_ZN4quan5stm328i2c_portINS0_3i2c6moduleILm1073763328EEENS_3mcu3pinINS0_4gpio6moduleILm1073873920EEELm6EEENS6_IS9_Lm9EEEE7on_rxneEm>:
 8003de8:	f010 0040 	ands.w	r0, r0, #64	; 0x40
 8003dec:	d016      	beq.n	8003e1c <_ZN4quan5stm328i2c_portINS0_3i2c6moduleILm1073763328EEENS_3mcu3pinINS0_4gpio6moduleILm1073873920EEELm6EEENS6_IS9_Lm9EEEE7on_rxneEm+0x34>
 8003dee:	4b0c      	ldr	r3, [pc, #48]	; (8003e20 <_ZN4quan5stm328i2c_portINS0_3i2c6moduleILm1073763328EEENS_3mcu3pinINS0_4gpio6moduleILm1073873920EEELm6EEENS6_IS9_Lm9EEEE7on_rxneEm+0x38>)
 8003df0:	4a0c      	ldr	r2, [pc, #48]	; (8003e24 <_ZN4quan5stm328i2c_portINS0_3i2c6moduleILm1073763328EEENS_3mcu3pinINS0_4gpio6moduleILm1073873920EEELm6EEENS6_IS9_Lm9EEEE7on_rxneEm+0x3c>)
 8003df2:	6818      	ldr	r0, [r3, #0]
 8003df4:	7c11      	ldrb	r1, [r2, #16]
 8003df6:	7001      	strb	r1, [r0, #0]
 8003df8:	480b      	ldr	r0, [pc, #44]	; (8003e28 <_ZN4quan5stm328i2c_portINS0_3i2c6moduleILm1073763328EEENS_3mcu3pinINS0_4gpio6moduleILm1073873920EEELm6EEENS6_IS9_Lm9EEEE7on_rxneEm+0x40>)
 8003dfa:	6803      	ldr	r3, [r0, #0]
 8003dfc:	1e5a      	subs	r2, r3, #1
 8003dfe:	6002      	str	r2, [r0, #0]
 8003e00:	b112      	cbz	r2, 8003e08 <_ZN4quan5stm328i2c_portINS0_3i2c6moduleILm1073763328EEENS_3mcu3pinINS0_4gpio6moduleILm1073873920EEELm6EEENS6_IS9_Lm9EEEE7on_rxneEm+0x20>
 8003e02:	480a      	ldr	r0, [pc, #40]	; (8003e2c <_ZN4quan5stm328i2c_portINS0_3i2c6moduleILm1073763328EEENS_3mcu3pinINS0_4gpio6moduleILm1073873920EEELm6EEENS6_IS9_Lm9EEEE7on_rxneEm+0x44>)
 8003e04:	2107      	movs	r1, #7
 8003e06:	6001      	str	r1, [r0, #0]
 8003e08:	4a09      	ldr	r2, [pc, #36]	; (8003e30 <_ZN4quan5stm328i2c_portINS0_3i2c6moduleILm1073763328EEENS_3mcu3pinINS0_4gpio6moduleILm1073873920EEELm6EEENS6_IS9_Lm9EEEE7on_rxneEm+0x48>)
 8003e0a:	4b0a      	ldr	r3, [pc, #40]	; (8003e34 <_ZN4quan5stm328i2c_portINS0_3i2c6moduleILm1073763328EEENS_3mcu3pinINS0_4gpio6moduleILm1073873920EEELm6EEENS6_IS9_Lm9EEEE7on_rxneEm+0x4c>)
 8003e0c:	480a      	ldr	r0, [pc, #40]	; (8003e38 <_ZN4quan5stm328i2c_portINS0_3i2c6moduleILm1073763328EEENS_3mcu3pinINS0_4gpio6moduleILm1073873920EEELm6EEENS6_IS9_Lm9EEEE7on_rxneEm+0x50>)
 8003e0e:	601a      	str	r2, [r3, #0]
 8003e10:	4a0a      	ldr	r2, [pc, #40]	; (8003e3c <_ZN4quan5stm328i2c_portINS0_3i2c6moduleILm1073763328EEENS_3mcu3pinINS0_4gpio6moduleILm1073873920EEELm6EEENS6_IS9_Lm9EEEE7on_rxneEm+0x54>)
 8003e12:	2100      	movs	r1, #0
 8003e14:	6001      	str	r1, [r0, #0]
 8003e16:	6041      	str	r1, [r0, #4]
 8003e18:	7011      	strb	r1, [r2, #0]
 8003e1a:	2001      	movs	r0, #1
 8003e1c:	4770      	bx	lr
 8003e1e:	bf00      	nop
 8003e20:	10001734 	.word	0x10001734
 8003e24:	40005400 	.word	0x40005400
 8003e28:	10001720 	.word	0x10001720
 8003e2c:	10001728 	.word	0x10001728
 8003e30:	08003dc1 	.word	0x08003dc1
 8003e34:	10000040 	.word	0x10000040
 8003e38:	420a80a4 	.word	0x420a80a4
 8003e3c:	10001724 	.word	0x10001724

08003e40 <_ZN4quan5stm328i2c_portINS0_3i2c6moduleILm1073763328EEENS_3mcu3pinINS0_4gpio6moduleILm1073873920EEELm6EEENS6_IS9_Lm9EEEE6on_btfEm>:
 8003e40:	f010 0004 	ands.w	r0, r0, #4
 8003e44:	b570      	push	{r4, r5, r6, lr}
 8003e46:	d078      	beq.n	8003f3a <_ZN4quan5stm328i2c_portINS0_3i2c6moduleILm1073763328EEENS_3mcu3pinINS0_4gpio6moduleILm1073873920EEELm6EEENS6_IS9_Lm9EEEE6on_btfEm+0xfa>
 8003e48:	4b3c      	ldr	r3, [pc, #240]	; (8003f3c <_ZN4quan5stm328i2c_portINS0_3i2c6moduleILm1073763328EEENS_3mcu3pinINS0_4gpio6moduleILm1073873920EEELm6EEENS6_IS9_Lm9EEEE6on_btfEm+0xfc>)
 8003e4a:	7818      	ldrb	r0, [r3, #0]
 8003e4c:	07c3      	lsls	r3, r0, #31
 8003e4e:	d415      	bmi.n	8003e7c <_ZN4quan5stm328i2c_portINS0_3i2c6moduleILm1073763328EEENS_3mcu3pinINS0_4gpio6moduleILm1073873920EEELm6EEENS6_IS9_Lm9EEEE6on_btfEm+0x3c>
 8003e50:	4a3b      	ldr	r2, [pc, #236]	; (8003f40 <_ZN4quan5stm328i2c_portINS0_3i2c6moduleILm1073763328EEENS_3mcu3pinINS0_4gpio6moduleILm1073873920EEELm6EEENS6_IS9_Lm9EEEE6on_btfEm+0x100>)
 8003e52:	6813      	ldr	r3, [r2, #0]
 8003e54:	b153      	cbz	r3, 8003e6c <_ZN4quan5stm328i2c_portINS0_3i2c6moduleILm1073763328EEENS_3mcu3pinINS0_4gpio6moduleILm1073873920EEELm6EEENS6_IS9_Lm9EEEE6on_btfEm+0x2c>
 8003e56:	493b      	ldr	r1, [pc, #236]	; (8003f44 <_ZN4quan5stm328i2c_portINS0_3i2c6moduleILm1073763328EEENS_3mcu3pinINS0_4gpio6moduleILm1073873920EEELm6EEENS6_IS9_Lm9EEEE6on_btfEm+0x104>)
 8003e58:	483b      	ldr	r0, [pc, #236]	; (8003f48 <_ZN4quan5stm328i2c_portINS0_3i2c6moduleILm1073763328EEENS_3mcu3pinINS0_4gpio6moduleILm1073873920EEELm6EEENS6_IS9_Lm9EEEE6on_btfEm+0x108>)
 8003e5a:	680b      	ldr	r3, [r1, #0]
 8003e5c:	f813 4b01 	ldrb.w	r4, [r3], #1
 8003e60:	7404      	strb	r4, [r0, #16]
 8003e62:	600b      	str	r3, [r1, #0]
 8003e64:	6811      	ldr	r1, [r2, #0]
 8003e66:	1e4b      	subs	r3, r1, #1
 8003e68:	6013      	str	r3, [r2, #0]
 8003e6a:	e065      	b.n	8003f38 <_ZN4quan5stm328i2c_portINS0_3i2c6moduleILm1073763328EEENS_3mcu3pinINS0_4gpio6moduleILm1073873920EEELm6EEENS6_IS9_Lm9EEEE6on_btfEm+0xf8>
 8003e6c:	4937      	ldr	r1, [pc, #220]	; (8003f4c <_ZN4quan5stm328i2c_portINS0_3i2c6moduleILm1073763328EEENS_3mcu3pinINS0_4gpio6moduleILm1073873920EEELm6EEENS6_IS9_Lm9EEEE6on_btfEm+0x10c>)
 8003e6e:	4a38      	ldr	r2, [pc, #224]	; (8003f50 <_ZN4quan5stm328i2c_portINS0_3i2c6moduleILm1073763328EEENS_3mcu3pinINS0_4gpio6moduleILm1073873920EEELm6EEENS6_IS9_Lm9EEEE6on_btfEm+0x110>)
 8003e70:	2001      	movs	r0, #1
 8003e72:	6008      	str	r0, [r1, #0]
 8003e74:	4937      	ldr	r1, [pc, #220]	; (8003f54 <_ZN4quan5stm328i2c_portINS0_3i2c6moduleILm1073763328EEENS_3mcu3pinINS0_4gpio6moduleILm1073873920EEELm6EEENS6_IS9_Lm9EEEE6on_btfEm+0x114>)
 8003e76:	6011      	str	r1, [r2, #0]
 8003e78:	4937      	ldr	r1, [pc, #220]	; (8003f58 <_ZN4quan5stm328i2c_portINS0_3i2c6moduleILm1073763328EEENS_3mcu3pinINS0_4gpio6moduleILm1073873920EEELm6EEENS6_IS9_Lm9EEEE6on_btfEm+0x118>)
 8003e7a:	e01f      	b.n	8003ebc <_ZN4quan5stm328i2c_portINS0_3i2c6moduleILm1073763328EEENS_3mcu3pinINS0_4gpio6moduleILm1073873920EEELm6EEENS6_IS9_Lm9EEEE6on_btfEm+0x7c>
 8003e7c:	4937      	ldr	r1, [pc, #220]	; (8003f5c <_ZN4quan5stm328i2c_portINS0_3i2c6moduleILm1073763328EEENS_3mcu3pinINS0_4gpio6moduleILm1073873920EEELm6EEENS6_IS9_Lm9EEEE6on_btfEm+0x11c>)
 8003e7e:	6808      	ldr	r0, [r1, #0]
 8003e80:	2801      	cmp	r0, #1
 8003e82:	d015      	beq.n	8003eb0 <_ZN4quan5stm328i2c_portINS0_3i2c6moduleILm1073763328EEENS_3mcu3pinINS0_4gpio6moduleILm1073873920EEELm6EEENS6_IS9_Lm9EEEE6on_btfEm+0x70>
 8003e84:	2802      	cmp	r0, #2
 8003e86:	d11d      	bne.n	8003ec4 <_ZN4quan5stm328i2c_portINS0_3i2c6moduleILm1073763328EEENS_3mcu3pinINS0_4gpio6moduleILm1073873920EEELm6EEENS6_IS9_Lm9EEEE6on_btfEm+0x84>
 8003e88:	4e32      	ldr	r6, [pc, #200]	; (8003f54 <_ZN4quan5stm328i2c_portINS0_3i2c6moduleILm1073763328EEENS_3mcu3pinINS0_4gpio6moduleILm1073873920EEELm6EEENS6_IS9_Lm9EEEE6on_btfEm+0x114>)
 8003e8a:	4d31      	ldr	r5, [pc, #196]	; (8003f50 <_ZN4quan5stm328i2c_portINS0_3i2c6moduleILm1073763328EEENS_3mcu3pinINS0_4gpio6moduleILm1073873920EEELm6EEENS6_IS9_Lm9EEEE6on_btfEm+0x110>)
 8003e8c:	4c32      	ldr	r4, [pc, #200]	; (8003f58 <_ZN4quan5stm328i2c_portINS0_3i2c6moduleILm1073763328EEENS_3mcu3pinINS0_4gpio6moduleILm1073873920EEELm6EEENS6_IS9_Lm9EEEE6on_btfEm+0x118>)
 8003e8e:	492f      	ldr	r1, [pc, #188]	; (8003f4c <_ZN4quan5stm328i2c_portINS0_3i2c6moduleILm1073763328EEENS_3mcu3pinINS0_4gpio6moduleILm1073873920EEELm6EEENS6_IS9_Lm9EEEE6on_btfEm+0x10c>)
 8003e90:	602e      	str	r6, [r5, #0]
 8003e92:	2001      	movs	r0, #1
 8003e94:	2300      	movs	r3, #0
 8003e96:	6023      	str	r3, [r4, #0]
 8003e98:	4a2b      	ldr	r2, [pc, #172]	; (8003f48 <_ZN4quan5stm328i2c_portINS0_3i2c6moduleILm1073763328EEENS_3mcu3pinINS0_4gpio6moduleILm1073873920EEELm6EEENS6_IS9_Lm9EEEE6on_btfEm+0x108>)
 8003e9a:	6008      	str	r0, [r1, #0]
 8003e9c:	4929      	ldr	r1, [pc, #164]	; (8003f44 <_ZN4quan5stm328i2c_portINS0_3i2c6moduleILm1073763328EEENS_3mcu3pinINS0_4gpio6moduleILm1073873920EEELm6EEENS6_IS9_Lm9EEEE6on_btfEm+0x104>)
 8003e9e:	7c16      	ldrb	r6, [r2, #16]
 8003ea0:	680d      	ldr	r5, [r1, #0]
 8003ea2:	702e      	strb	r6, [r5, #0]
 8003ea4:	6020      	str	r0, [r4, #0]
 8003ea6:	6809      	ldr	r1, [r1, #0]
 8003ea8:	7c12      	ldrb	r2, [r2, #16]
 8003eaa:	704a      	strb	r2, [r1, #1]
 8003eac:	4924      	ldr	r1, [pc, #144]	; (8003f40 <_ZN4quan5stm328i2c_portINS0_3i2c6moduleILm1073763328EEENS_3mcu3pinINS0_4gpio6moduleILm1073873920EEELm6EEENS6_IS9_Lm9EEEE6on_btfEm+0x100>)
 8003eae:	e005      	b.n	8003ebc <_ZN4quan5stm328i2c_portINS0_3i2c6moduleILm1073763328EEENS_3mcu3pinINS0_4gpio6moduleILm1073873920EEELm6EEENS6_IS9_Lm9EEEE6on_btfEm+0x7c>
 8003eb0:	4b2b      	ldr	r3, [pc, #172]	; (8003f60 <_ZN4quan5stm328i2c_portINS0_3i2c6moduleILm1073763328EEENS_3mcu3pinINS0_4gpio6moduleILm1073873920EEELm6EEENS6_IS9_Lm9EEEE6on_btfEm+0x120>)
 8003eb2:	2206      	movs	r2, #6
 8003eb4:	601a      	str	r2, [r3, #0]
 8003eb6:	2100      	movs	r1, #0
 8003eb8:	4a27      	ldr	r2, [pc, #156]	; (8003f58 <_ZN4quan5stm328i2c_portINS0_3i2c6moduleILm1073763328EEENS_3mcu3pinINS0_4gpio6moduleILm1073873920EEELm6EEENS6_IS9_Lm9EEEE6on_btfEm+0x118>)
 8003eba:	e035      	b.n	8003f28 <_ZN4quan5stm328i2c_portINS0_3i2c6moduleILm1073763328EEENS_3mcu3pinINS0_4gpio6moduleILm1073873920EEELm6EEENS6_IS9_Lm9EEEE6on_btfEm+0xe8>
 8003ebc:	600b      	str	r3, [r1, #0]
 8003ebe:	4929      	ldr	r1, [pc, #164]	; (8003f64 <_ZN4quan5stm328i2c_portINS0_3i2c6moduleILm1073763328EEENS_3mcu3pinINS0_4gpio6moduleILm1073873920EEELm6EEENS6_IS9_Lm9EEEE6on_btfEm+0x124>)
 8003ec0:	700b      	strb	r3, [r1, #0]
 8003ec2:	bd70      	pop	{r4, r5, r6, pc}
 8003ec4:	4b1e      	ldr	r3, [pc, #120]	; (8003f40 <_ZN4quan5stm328i2c_portINS0_3i2c6moduleILm1073763328EEENS_3mcu3pinINS0_4gpio6moduleILm1073873920EEELm6EEENS6_IS9_Lm9EEEE6on_btfEm+0x100>)
 8003ec6:	681a      	ldr	r2, [r3, #0]
 8003ec8:	2a03      	cmp	r2, #3
 8003eca:	dd0a      	ble.n	8003ee2 <_ZN4quan5stm328i2c_portINS0_3i2c6moduleILm1073763328EEENS_3mcu3pinINS0_4gpio6moduleILm1073873920EEELm6EEENS6_IS9_Lm9EEEE6on_btfEm+0xa2>
 8003ecc:	4a1d      	ldr	r2, [pc, #116]	; (8003f44 <_ZN4quan5stm328i2c_portINS0_3i2c6moduleILm1073763328EEENS_3mcu3pinINS0_4gpio6moduleILm1073873920EEELm6EEENS6_IS9_Lm9EEEE6on_btfEm+0x104>)
 8003ece:	481e      	ldr	r0, [pc, #120]	; (8003f48 <_ZN4quan5stm328i2c_portINS0_3i2c6moduleILm1073763328EEENS_3mcu3pinINS0_4gpio6moduleILm1073873920EEELm6EEENS6_IS9_Lm9EEEE6on_btfEm+0x108>)
 8003ed0:	6811      	ldr	r1, [r2, #0]
 8003ed2:	7c00      	ldrb	r0, [r0, #16]
 8003ed4:	7008      	strb	r0, [r1, #0]
 8003ed6:	6811      	ldr	r1, [r2, #0]
 8003ed8:	1c48      	adds	r0, r1, #1
 8003eda:	6010      	str	r0, [r2, #0]
 8003edc:	681a      	ldr	r2, [r3, #0]
 8003ede:	3a01      	subs	r2, #1
 8003ee0:	e029      	b.n	8003f36 <_ZN4quan5stm328i2c_portINS0_3i2c6moduleILm1073763328EEENS_3mcu3pinINS0_4gpio6moduleILm1073873920EEELm6EEENS6_IS9_Lm9EEEE6on_btfEm+0xf6>
 8003ee2:	6818      	ldr	r0, [r3, #0]
 8003ee4:	2803      	cmp	r0, #3
 8003ee6:	d121      	bne.n	8003f2c <_ZN4quan5stm328i2c_portINS0_3i2c6moduleILm1073763328EEENS_3mcu3pinINS0_4gpio6moduleILm1073873920EEELm6EEENS6_IS9_Lm9EEEE6on_btfEm+0xec>
 8003ee8:	4c1f      	ldr	r4, [pc, #124]	; (8003f68 <_ZN4quan5stm328i2c_portINS0_3i2c6moduleILm1073763328EEENS_3mcu3pinINS0_4gpio6moduleILm1073873920EEELm6EEENS6_IS9_Lm9EEEE6on_btfEm+0x128>)
 8003eea:	4a16      	ldr	r2, [pc, #88]	; (8003f44 <_ZN4quan5stm328i2c_portINS0_3i2c6moduleILm1073763328EEENS_3mcu3pinINS0_4gpio6moduleILm1073873920EEELm6EEENS6_IS9_Lm9EEEE6on_btfEm+0x104>)
 8003eec:	4d16      	ldr	r5, [pc, #88]	; (8003f48 <_ZN4quan5stm328i2c_portINS0_3i2c6moduleILm1073763328EEENS_3mcu3pinINS0_4gpio6moduleILm1073873920EEELm6EEENS6_IS9_Lm9EEEE6on_btfEm+0x108>)
 8003eee:	6810      	ldr	r0, [r2, #0]
 8003ef0:	2600      	movs	r6, #0
 8003ef2:	6026      	str	r6, [r4, #0]
 8003ef4:	7c29      	ldrb	r1, [r5, #16]
 8003ef6:	7001      	strb	r1, [r0, #0]
 8003ef8:	6814      	ldr	r4, [r2, #0]
 8003efa:	6819      	ldr	r1, [r3, #0]
 8003efc:	1c60      	adds	r0, r4, #1
 8003efe:	6010      	str	r0, [r2, #0]
 8003f00:	1e48      	subs	r0, r1, #1
 8003f02:	4915      	ldr	r1, [pc, #84]	; (8003f58 <_ZN4quan5stm328i2c_portINS0_3i2c6moduleILm1073763328EEENS_3mcu3pinINS0_4gpio6moduleILm1073873920EEELm6EEENS6_IS9_Lm9EEEE6on_btfEm+0x118>)
 8003f04:	6018      	str	r0, [r3, #0]
 8003f06:	600e      	str	r6, [r1, #0]
 8003f08:	4e10      	ldr	r6, [pc, #64]	; (8003f4c <_ZN4quan5stm328i2c_portINS0_3i2c6moduleILm1073763328EEENS_3mcu3pinINS0_4gpio6moduleILm1073873920EEELm6EEENS6_IS9_Lm9EEEE6on_btfEm+0x10c>)
 8003f0a:	2001      	movs	r0, #1
 8003f0c:	6030      	str	r0, [r6, #0]
 8003f0e:	7c2d      	ldrb	r5, [r5, #16]
 8003f10:	7065      	strb	r5, [r4, #1]
 8003f12:	6814      	ldr	r4, [r2, #0]
 8003f14:	1824      	adds	r4, r4, r0
 8003f16:	6014      	str	r4, [r2, #0]
 8003f18:	681a      	ldr	r2, [r3, #0]
 8003f1a:	3a01      	subs	r2, #1
 8003f1c:	601a      	str	r2, [r3, #0]
 8003f1e:	4b13      	ldr	r3, [pc, #76]	; (8003f6c <_ZN4quan5stm328i2c_portINS0_3i2c6moduleILm1073763328EEENS_3mcu3pinINS0_4gpio6moduleILm1073873920EEELm6EEENS6_IS9_Lm9EEEE6on_btfEm+0x12c>)
 8003f20:	6008      	str	r0, [r1, #0]
 8003f22:	4a0b      	ldr	r2, [pc, #44]	; (8003f50 <_ZN4quan5stm328i2c_portINS0_3i2c6moduleILm1073763328EEENS_3mcu3pinINS0_4gpio6moduleILm1073873920EEELm6EEENS6_IS9_Lm9EEEE6on_btfEm+0x110>)
 8003f24:	4912      	ldr	r1, [pc, #72]	; (8003f70 <_ZN4quan5stm328i2c_portINS0_3i2c6moduleILm1073763328EEENS_3mcu3pinINS0_4gpio6moduleILm1073873920EEELm6EEENS6_IS9_Lm9EEEE6on_btfEm+0x130>)
 8003f26:	6018      	str	r0, [r3, #0]
 8003f28:	6011      	str	r1, [r2, #0]
 8003f2a:	bd70      	pop	{r4, r5, r6, pc}
 8003f2c:	4b0c      	ldr	r3, [pc, #48]	; (8003f60 <_ZN4quan5stm328i2c_portINS0_3i2c6moduleILm1073763328EEENS_3mcu3pinINS0_4gpio6moduleILm1073873920EEELm6EEENS6_IS9_Lm9EEEE6on_btfEm+0x120>)
 8003f2e:	2105      	movs	r1, #5
 8003f30:	6019      	str	r1, [r3, #0]
 8003f32:	4b09      	ldr	r3, [pc, #36]	; (8003f58 <_ZN4quan5stm328i2c_portINS0_3i2c6moduleILm1073763328EEENS_3mcu3pinINS0_4gpio6moduleILm1073873920EEELm6EEENS6_IS9_Lm9EEEE6on_btfEm+0x118>)
 8003f34:	2200      	movs	r2, #0
 8003f36:	601a      	str	r2, [r3, #0]
 8003f38:	2001      	movs	r0, #1
 8003f3a:	bd70      	pop	{r4, r5, r6, pc}
 8003f3c:	1000172d 	.word	0x1000172d
 8003f40:	10001720 	.word	0x10001720
 8003f44:	10001734 	.word	0x10001734
 8003f48:	40005400 	.word	0x40005400
 8003f4c:	420a8024 	.word	0x420a8024
 8003f50:	10000040 	.word	0x10000040
 8003f54:	08003dc1 	.word	0x08003dc1
 8003f58:	420a80a4 	.word	0x420a80a4
 8003f5c:	10001730 	.word	0x10001730
 8003f60:	10001728 	.word	0x10001728
 8003f64:	10001724 	.word	0x10001724
 8003f68:	420a8028 	.word	0x420a8028
 8003f6c:	420a80a8 	.word	0x420a80a8
 8003f70:	08003de9 	.word	0x08003de9

08003f74 <_ZN4quan5stm328i2c_portINS0_3i2c6moduleILm1073763328EEENS_3mcu3pinINS0_4gpio6moduleILm1073873920EEELm6EEENS6_IS9_Lm9EEEE7on_addrEm>:
 8003f74:	f010 0002 	ands.w	r0, r0, #2
 8003f78:	b510      	push	{r4, lr}
 8003f7a:	d040      	beq.n	8003ffe <_ZN4quan5stm328i2c_portINS0_3i2c6moduleILm1073763328EEENS_3mcu3pinINS0_4gpio6moduleILm1073873920EEELm6EEENS6_IS9_Lm9EEEE7on_addrEm+0x8a>
 8003f7c:	4b20      	ldr	r3, [pc, #128]	; (8004000 <_ZN4quan5stm328i2c_portINS0_3i2c6moduleILm1073763328EEENS_3mcu3pinINS0_4gpio6moduleILm1073873920EEELm6EEENS6_IS9_Lm9EEEE7on_addrEm+0x8c>)
 8003f7e:	7818      	ldrb	r0, [r3, #0]
 8003f80:	4b20      	ldr	r3, [pc, #128]	; (8004004 <_ZN4quan5stm328i2c_portINS0_3i2c6moduleILm1073763328EEENS_3mcu3pinINS0_4gpio6moduleILm1073873920EEELm6EEENS6_IS9_Lm9EEEE7on_addrEm+0x90>)
 8003f82:	f010 0101 	ands.w	r1, r0, #1
 8003f86:	d10d      	bne.n	8003fa4 <_ZN4quan5stm328i2c_portINS0_3i2c6moduleILm1073763328EEENS_3mcu3pinINS0_4gpio6moduleILm1073873920EEELm6EEENS6_IS9_Lm9EEEE7on_addrEm+0x30>
 8003f88:	481f      	ldr	r0, [pc, #124]	; (8004008 <_ZN4quan5stm328i2c_portINS0_3i2c6moduleILm1073763328EEENS_3mcu3pinINS0_4gpio6moduleILm1073873920EEELm6EEENS6_IS9_Lm9EEEE7on_addrEm+0x94>)
 8003f8a:	699a      	ldr	r2, [r3, #24]
 8003f8c:	7001      	strb	r1, [r0, #0]
 8003f8e:	491f      	ldr	r1, [pc, #124]	; (800400c <_ZN4quan5stm328i2c_portINS0_3i2c6moduleILm1073763328EEENS_3mcu3pinINS0_4gpio6moduleILm1073873920EEELm6EEENS6_IS9_Lm9EEEE7on_addrEm+0x98>)
 8003f90:	680a      	ldr	r2, [r1, #0]
 8003f92:	f812 0b01 	ldrb.w	r0, [r2], #1
 8003f96:	7418      	strb	r0, [r3, #16]
 8003f98:	4b1d      	ldr	r3, [pc, #116]	; (8004010 <_ZN4quan5stm328i2c_portINS0_3i2c6moduleILm1073763328EEENS_3mcu3pinINS0_4gpio6moduleILm1073873920EEELm6EEENS6_IS9_Lm9EEEE7on_addrEm+0x9c>)
 8003f9a:	600a      	str	r2, [r1, #0]
 8003f9c:	6819      	ldr	r1, [r3, #0]
 8003f9e:	1e4a      	subs	r2, r1, #1
 8003fa0:	601a      	str	r2, [r3, #0]
 8003fa2:	e028      	b.n	8003ff6 <_ZN4quan5stm328i2c_portINS0_3i2c6moduleILm1073763328EEENS_3mcu3pinINS0_4gpio6moduleILm1073873920EEELm6EEENS6_IS9_Lm9EEEE7on_addrEm+0x82>
 8003fa4:	4a1b      	ldr	r2, [pc, #108]	; (8004014 <_ZN4quan5stm328i2c_portINS0_3i2c6moduleILm1073763328EEENS_3mcu3pinINS0_4gpio6moduleILm1073873920EEELm6EEENS6_IS9_Lm9EEEE7on_addrEm+0xa0>)
 8003fa6:	6810      	ldr	r0, [r2, #0]
 8003fa8:	4a17      	ldr	r2, [pc, #92]	; (8004008 <_ZN4quan5stm328i2c_portINS0_3i2c6moduleILm1073763328EEENS_3mcu3pinINS0_4gpio6moduleILm1073873920EEELm6EEENS6_IS9_Lm9EEEE7on_addrEm+0x94>)
 8003faa:	2801      	cmp	r0, #1
 8003fac:	d010      	beq.n	8003fd0 <_ZN4quan5stm328i2c_portINS0_3i2c6moduleILm1073763328EEENS_3mcu3pinINS0_4gpio6moduleILm1073873920EEELm6EEENS6_IS9_Lm9EEEE7on_addrEm+0x5c>
 8003fae:	2802      	cmp	r0, #2
 8003fb0:	d11e      	bne.n	8003ff0 <_ZN4quan5stm328i2c_portINS0_3i2c6moduleILm1073763328EEENS_3mcu3pinINS0_4gpio6moduleILm1073873920EEELm6EEENS6_IS9_Lm9EEEE7on_addrEm+0x7c>
 8003fb2:	4c19      	ldr	r4, [pc, #100]	; (8004018 <_ZN4quan5stm328i2c_portINS0_3i2c6moduleILm1073763328EEENS_3mcu3pinINS0_4gpio6moduleILm1073873920EEELm6EEENS6_IS9_Lm9EEEE7on_addrEm+0xa4>)
 8003fb4:	2001      	movs	r0, #1
 8003fb6:	6020      	str	r0, [r4, #0]
 8003fb8:	4c18      	ldr	r4, [pc, #96]	; (800401c <_ZN4quan5stm328i2c_portINS0_3i2c6moduleILm1073763328EEENS_3mcu3pinINS0_4gpio6moduleILm1073873920EEELm6EEENS6_IS9_Lm9EEEE7on_addrEm+0xa8>)
 8003fba:	2100      	movs	r1, #0
 8003fbc:	6021      	str	r1, [r4, #0]
 8003fbe:	699b      	ldr	r3, [r3, #24]
 8003fc0:	4b17      	ldr	r3, [pc, #92]	; (8004020 <_ZN4quan5stm328i2c_portINS0_3i2c6moduleILm1073763328EEENS_3mcu3pinINS0_4gpio6moduleILm1073873920EEELm6EEENS6_IS9_Lm9EEEE7on_addrEm+0xac>)
 8003fc2:	7011      	strb	r1, [r2, #0]
 8003fc4:	6019      	str	r1, [r3, #0]
 8003fc6:	4a17      	ldr	r2, [pc, #92]	; (8004024 <_ZN4quan5stm328i2c_portINS0_3i2c6moduleILm1073763328EEENS_3mcu3pinINS0_4gpio6moduleILm1073873920EEELm6EEENS6_IS9_Lm9EEEE7on_addrEm+0xb0>)
 8003fc8:	4917      	ldr	r1, [pc, #92]	; (8004028 <_ZN4quan5stm328i2c_portINS0_3i2c6moduleILm1073763328EEENS_3mcu3pinINS0_4gpio6moduleILm1073873920EEELm6EEENS6_IS9_Lm9EEEE7on_addrEm+0xb4>)
 8003fca:	600a      	str	r2, [r1, #0]
 8003fcc:	6020      	str	r0, [r4, #0]
 8003fce:	bd10      	pop	{r4, pc}
 8003fd0:	4c13      	ldr	r4, [pc, #76]	; (8004020 <_ZN4quan5stm328i2c_portINS0_3i2c6moduleILm1073763328EEENS_3mcu3pinINS0_4gpio6moduleILm1073873920EEELm6EEENS6_IS9_Lm9EEEE7on_addrEm+0xac>)
 8003fd2:	2100      	movs	r1, #0
 8003fd4:	6021      	str	r1, [r4, #0]
 8003fd6:	67e1      	str	r1, [r4, #124]	; 0x7c
 8003fd8:	699b      	ldr	r3, [r3, #24]
 8003fda:	7011      	strb	r1, [r2, #0]
 8003fdc:	4b13      	ldr	r3, [pc, #76]	; (800402c <_ZN4quan5stm328i2c_portINS0_3i2c6moduleILm1073763328EEENS_3mcu3pinINS0_4gpio6moduleILm1073873920EEELm6EEENS6_IS9_Lm9EEEE7on_addrEm+0xb8>)
 8003fde:	4a14      	ldr	r2, [pc, #80]	; (8004030 <_ZN4quan5stm328i2c_portINS0_3i2c6moduleILm1073763328EEENS_3mcu3pinINS0_4gpio6moduleILm1073873920EEELm6EEENS6_IS9_Lm9EEEE7on_addrEm+0xbc>)
 8003fe0:	4911      	ldr	r1, [pc, #68]	; (8004028 <_ZN4quan5stm328i2c_portINS0_3i2c6moduleILm1073763328EEENS_3mcu3pinINS0_4gpio6moduleILm1073873920EEELm6EEENS6_IS9_Lm9EEEE7on_addrEm+0xb4>)
 8003fe2:	6018      	str	r0, [r3, #0]
 8003fe4:	67e0      	str	r0, [r4, #124]	; 0x7c
 8003fe6:	f8c3 0084 	str.w	r0, [r3, #132]	; 0x84
 8003fea:	347c      	adds	r4, #124	; 0x7c
 8003fec:	600a      	str	r2, [r1, #0]
 8003fee:	bd10      	pop	{r4, pc}
 8003ff0:	2000      	movs	r0, #0
 8003ff2:	699b      	ldr	r3, [r3, #24]
 8003ff4:	7010      	strb	r0, [r2, #0]
 8003ff6:	480b      	ldr	r0, [pc, #44]	; (8004024 <_ZN4quan5stm328i2c_portINS0_3i2c6moduleILm1073763328EEENS_3mcu3pinINS0_4gpio6moduleILm1073873920EEELm6EEENS6_IS9_Lm9EEEE7on_addrEm+0xb0>)
 8003ff8:	4b0b      	ldr	r3, [pc, #44]	; (8004028 <_ZN4quan5stm328i2c_portINS0_3i2c6moduleILm1073763328EEENS_3mcu3pinINS0_4gpio6moduleILm1073873920EEELm6EEENS6_IS9_Lm9EEEE7on_addrEm+0xb4>)
 8003ffa:	6018      	str	r0, [r3, #0]
 8003ffc:	2001      	movs	r0, #1
 8003ffe:	bd10      	pop	{r4, pc}
 8004000:	1000172d 	.word	0x1000172d
 8004004:	40005400 	.word	0x40005400
 8004008:	1000171c 	.word	0x1000171c
 800400c:	10001734 	.word	0x10001734
 8004010:	10001720 	.word	0x10001720
 8004014:	10001730 	.word	0x10001730
 8004018:	420a802c 	.word	0x420a802c
 800401c:	420a80a4 	.word	0x420a80a4
 8004020:	420a8028 	.word	0x420a8028
 8004024:	08003e41 	.word	0x08003e41
 8004028:	10000040 	.word	0x10000040
 800402c:	420a8024 	.word	0x420a8024
 8004030:	08003de9 	.word	0x08003de9

08004034 <_ZN4quan5stm3213module_enableINS0_4gpio6moduleILm1073873920EEEEENS_6where_INS_11is_model_ofINS0_4GpioET_EEvE4typeEv>:
 8004034:	4b02      	ldr	r3, [pc, #8]	; (8004040 <_ZN4quan5stm3213module_enableINS0_4gpio6moduleILm1073873920EEEEENS_6where_INS_11is_model_ofINS0_4GpioET_EEvE4typeEv+0xc>)
 8004036:	6b1a      	ldr	r2, [r3, #48]	; 0x30
 8004038:	f042 0002 	orr.w	r0, r2, #2
 800403c:	6318      	str	r0, [r3, #48]	; 0x30
 800403e:	4770      	bx	lr
 8004040:	40023800 	.word	0x40023800

08004044 <_ZNK4quan4meta4impl27for_each_type_sequence_implINS0_13type_sequenceIINS_5stm3210periph_regINS4_4gpio6moduleILm1073873920EEELm8EmEENS5_IS8_Lm12EmEENS5_IS8_Lm16EmEENS5_IS8_Lm20EmEENS5_IS8_Lm24EmEENS5_IS8_Lm28EmEENS5_IS8_Lm32EmEENS5_IS8_Lm36EmEEEEENS4_6detail24apply_periph_reg_actionsIS8_NS3_IINSI_17periph_reg_actionINS5_IS8_Lm0EmEENS0_6bit_orELm8192EEENSK_ISL_NS0_7bit_andELm4294963199EEENSK_ISF_SM_Lm67108864EEENSK_ISF_SO_Lm4110417919EEENSK_INS5_IS8_Lm4EmEESM_Lm64EEENSK_ISS_SO_Lm4294967295EEENSK_ISA_SM_Lm0EEENSK_ISA_SO_Lm4294955007EEENSK_IS9_SM_Lm0EEENSK_IS9_SO_Lm4294955007EEEEEEEELb1EvEclEv>:
 8004044:	4b07      	ldr	r3, [pc, #28]	; (8004064 <_ZNK4quan4meta4impl27for_each_type_sequence_implINS0_13type_sequenceIINS_5stm3210periph_regINS4_4gpio6moduleILm1073873920EEELm8EmEENS5_IS8_Lm12EmEENS5_IS8_Lm16EmEENS5_IS8_Lm20EmEENS5_IS8_Lm24EmEENS5_IS8_Lm28EmEENS5_IS8_Lm32EmEENS5_IS8_Lm36EmEEEEENS4_6detail24apply_periph_reg_actionsIS8_NS3_IINSI_17periph_reg_actionINS5_IS8_Lm0EmEENS0_6bit_orELm8192EEENSK_ISL_NS0_7bit_andELm4294963199EEENSK_ISF_SM_Lm67108864EEENSK_ISF_SO_Lm4110417919EEENSK_INS5_IS8_Lm4EmEESM_Lm64EEENSK_ISS_SO_Lm4294967295EEENSK_ISA_SM_Lm0EEENSK_ISA_SO_Lm4294955007EEENSK_IS9_SM_Lm0EEENSK_IS9_SO_Lm4294955007EEEEEEEELb1EvEclEv+0x20>)
 8004046:	689a      	ldr	r2, [r3, #8]
 8004048:	f422 5040 	bic.w	r0, r2, #12288	; 0x3000
 800404c:	6098      	str	r0, [r3, #8]
 800404e:	68d9      	ldr	r1, [r3, #12]
 8004050:	f421 5240 	bic.w	r2, r1, #12288	; 0x3000
 8004054:	60da      	str	r2, [r3, #12]
 8004056:	6a18      	ldr	r0, [r3, #32]
 8004058:	f020 6170 	bic.w	r1, r0, #251658240	; 0xf000000
 800405c:	f041 6280 	orr.w	r2, r1, #67108864	; 0x4000000
 8004060:	621a      	str	r2, [r3, #32]
 8004062:	4770      	bx	lr
 8004064:	40020400 	.word	0x40020400

08004068 <_ZNK4quan4meta4impl27for_each_type_sequence_implINS0_13type_sequenceIINS_5stm3210periph_regINS4_4gpio6moduleILm1073873920EEELm0EmEENS5_IS8_Lm4EmEENS5_IS8_Lm8EmEENS5_IS8_Lm12EmEENS5_IS8_Lm16EmEENS5_IS8_Lm20EmEENS5_IS8_Lm24EmEENS5_IS8_Lm28EmEENS5_IS8_Lm32EmEENS5_IS8_Lm36EmEEEEENS4_6detail24apply_periph_reg_actionsIS8_NS3_IINSK_17periph_reg_actionIS9_NS0_6bit_orELm8192EEENSM_IS9_NS0_7bit_andELm4294963199EEENSM_ISH_SN_Lm67108864EEENSM_ISH_SP_Lm4110417919EEENSM_ISA_SN_Lm64EEENSM_ISA_SP_Lm4294967295EEENSM_ISC_SN_Lm0EEENSM_ISC_SP_Lm4294955007EEENSM_ISB_SN_Lm0EEENSM_ISB_SP_Lm4294955007EEEEEEEELb1EvEclEv>:
 8004068:	4b07      	ldr	r3, [pc, #28]	; (8004088 <_ZNK4quan4meta4impl27for_each_type_sequence_implINS0_13type_sequenceIINS_5stm3210periph_regINS4_4gpio6moduleILm1073873920EEELm0EmEENS5_IS8_Lm4EmEENS5_IS8_Lm8EmEENS5_IS8_Lm12EmEENS5_IS8_Lm16EmEENS5_IS8_Lm20EmEENS5_IS8_Lm24EmEENS5_IS8_Lm28EmEENS5_IS8_Lm32EmEENS5_IS8_Lm36EmEEEEENS4_6detail24apply_periph_reg_actionsIS8_NS3_IINSK_17periph_reg_actionIS9_NS0_6bit_orELm8192EEENSM_IS9_NS0_7bit_andELm4294963199EEENSM_ISH_SN_Lm67108864EEENSM_ISH_SP_Lm4110417919EEENSM_ISA_SN_Lm64EEENSM_ISA_SP_Lm4294967295EEENSM_ISC_SN_Lm0EEENSM_ISC_SP_Lm4294955007EEENSM_ISB_SN_Lm0EEENSM_ISB_SP_Lm4294955007EEEEEEEELb1EvEclEv+0x20>)
 800406a:	b507      	push	{r0, r1, r2, lr}
 800406c:	681a      	ldr	r2, [r3, #0]
 800406e:	f422 5040 	bic.w	r0, r2, #12288	; 0x3000
 8004072:	f440 5100 	orr.w	r1, r0, #8192	; 0x2000
 8004076:	6019      	str	r1, [r3, #0]
 8004078:	685a      	ldr	r2, [r3, #4]
 800407a:	f042 0040 	orr.w	r0, r2, #64	; 0x40
 800407e:	6058      	str	r0, [r3, #4]
 8004080:	a801      	add	r0, sp, #4
 8004082:	f7ff ffdf 	bl	8004044 <_ZNK4quan4meta4impl27for_each_type_sequence_implINS0_13type_sequenceIINS_5stm3210periph_regINS4_4gpio6moduleILm1073873920EEELm8EmEENS5_IS8_Lm12EmEENS5_IS8_Lm16EmEENS5_IS8_Lm20EmEENS5_IS8_Lm24EmEENS5_IS8_Lm28EmEENS5_IS8_Lm32EmEENS5_IS8_Lm36EmEEEEENS4_6detail24apply_periph_reg_actionsIS8_NS3_IINSI_17periph_reg_actionINS5_IS8_Lm0EmEENS0_6bit_orELm8192EEENSK_ISL_NS0_7bit_andELm4294963199EEENSK_ISF_SM_Lm67108864EEENSK_ISF_SO_Lm4110417919EEENSK_INS5_IS8_Lm4EmEESM_Lm64EEENSK_ISS_SO_Lm4294967295EEENSK_ISA_SM_Lm0EEENSK_ISA_SO_Lm4294955007EEENSK_IS9_SM_Lm0EEENSK_IS9_SO_Lm4294955007EEEEEEEELb1EvEclEv>
 8004086:	bd0e      	pop	{r1, r2, r3, pc}
 8004088:	40020400 	.word	0x40020400

0800408c <_ZNK4quan4meta4impl27for_each_type_sequence_implINS0_13type_sequenceIINS_5stm3210periph_regINS4_4gpio6moduleILm1073873920EEELm8EmEENS5_IS8_Lm12EmEENS5_IS8_Lm16EmEENS5_IS8_Lm20EmEENS5_IS8_Lm24EmEENS5_IS8_Lm28EmEENS5_IS8_Lm32EmEENS5_IS8_Lm36EmEEEEENS4_6detail24apply_periph_reg_actionsIS8_NS3_IINSI_17periph_reg_actionINS5_IS8_Lm0EmEENS0_6bit_orELm524288EEENSK_ISL_NS0_7bit_andELm4294705151EEENSK_ISG_SM_Lm64EEENSK_ISG_SO_Lm4294967119EEENSK_INS5_IS8_Lm4EmEESM_Lm512EEENSK_ISS_SO_Lm4294967295EEENSK_ISA_SM_Lm0EEENSK_ISA_SO_Lm4294180863EEENSK_IS9_SM_Lm0EEENSK_IS9_SO_Lm4294180863EEEEEEEELb1EvEclEv>:
 800408c:	4b07      	ldr	r3, [pc, #28]	; (80040ac <_ZNK4quan4meta4impl27for_each_type_sequence_implINS0_13type_sequenceIINS_5stm3210periph_regINS4_4gpio6moduleILm1073873920EEELm8EmEENS5_IS8_Lm12EmEENS5_IS8_Lm16EmEENS5_IS8_Lm20EmEENS5_IS8_Lm24EmEENS5_IS8_Lm28EmEENS5_IS8_Lm32EmEENS5_IS8_Lm36EmEEEEENS4_6detail24apply_periph_reg_actionsIS8_NS3_IINSI_17periph_reg_actionINS5_IS8_Lm0EmEENS0_6bit_orELm524288EEENSK_ISL_NS0_7bit_andELm4294705151EEENSK_ISG_SM_Lm64EEENSK_ISG_SO_Lm4294967119EEENSK_INS5_IS8_Lm4EmEESM_Lm512EEENSK_ISS_SO_Lm4294967295EEENSK_ISA_SM_Lm0EEENSK_ISA_SO_Lm4294180863EEENSK_IS9_SM_Lm0EEENSK_IS9_SO_Lm4294180863EEEEEEEELb1EvEclEv+0x20>)
 800408e:	689a      	ldr	r2, [r3, #8]
 8004090:	f422 2040 	bic.w	r0, r2, #786432	; 0xc0000
 8004094:	6098      	str	r0, [r3, #8]
 8004096:	68d9      	ldr	r1, [r3, #12]
 8004098:	f421 2240 	bic.w	r2, r1, #786432	; 0xc0000
 800409c:	60da      	str	r2, [r3, #12]
 800409e:	6a58      	ldr	r0, [r3, #36]	; 0x24
 80040a0:	f020 01f0 	bic.w	r1, r0, #240	; 0xf0
 80040a4:	f041 0240 	orr.w	r2, r1, #64	; 0x40
 80040a8:	625a      	str	r2, [r3, #36]	; 0x24
 80040aa:	4770      	bx	lr
 80040ac:	40020400 	.word	0x40020400

080040b0 <_ZNK4quan4meta4impl27for_each_type_sequence_implINS0_13type_sequenceIINS_5stm3210periph_regINS4_4gpio6moduleILm1073873920EEELm0EmEENS5_IS8_Lm4EmEENS5_IS8_Lm8EmEENS5_IS8_Lm12EmEENS5_IS8_Lm16EmEENS5_IS8_Lm20EmEENS5_IS8_Lm24EmEENS5_IS8_Lm28EmEENS5_IS8_Lm32EmEENS5_IS8_Lm36EmEEEEENS4_6detail24apply_periph_reg_actionsIS8_NS3_IINSK_17periph_reg_actionIS9_NS0_6bit_orELm524288EEENSM_IS9_NS0_7bit_andELm4294705151EEENSM_ISI_SN_Lm64EEENSM_ISI_SP_Lm4294967119EEENSM_ISA_SN_Lm512EEENSM_ISA_SP_Lm4294967295EEENSM_ISC_SN_Lm0EEENSM_ISC_SP_Lm4294180863EEENSM_ISB_SN_Lm0EEENSM_ISB_SP_Lm4294180863EEEEEEEELb1EvEclEv>:
 80040b0:	4b07      	ldr	r3, [pc, #28]	; (80040d0 <_ZNK4quan4meta4impl27for_each_type_sequence_implINS0_13type_sequenceIINS_5stm3210periph_regINS4_4gpio6moduleILm1073873920EEELm0EmEENS5_IS8_Lm4EmEENS5_IS8_Lm8EmEENS5_IS8_Lm12EmEENS5_IS8_Lm16EmEENS5_IS8_Lm20EmEENS5_IS8_Lm24EmEENS5_IS8_Lm28EmEENS5_IS8_Lm32EmEENS5_IS8_Lm36EmEEEEENS4_6detail24apply_periph_reg_actionsIS8_NS3_IINSK_17periph_reg_actionIS9_NS0_6bit_orELm524288EEENSM_IS9_NS0_7bit_andELm4294705151EEENSM_ISI_SN_Lm64EEENSM_ISI_SP_Lm4294967119EEENSM_ISA_SN_Lm512EEENSM_ISA_SP_Lm4294967295EEENSM_ISC_SN_Lm0EEENSM_ISC_SP_Lm4294180863EEENSM_ISB_SN_Lm0EEENSM_ISB_SP_Lm4294180863EEEEEEEELb1EvEclEv+0x20>)
 80040b2:	b507      	push	{r0, r1, r2, lr}
 80040b4:	681a      	ldr	r2, [r3, #0]
 80040b6:	f422 2040 	bic.w	r0, r2, #786432	; 0xc0000
 80040ba:	f440 2100 	orr.w	r1, r0, #524288	; 0x80000
 80040be:	6019      	str	r1, [r3, #0]
 80040c0:	685a      	ldr	r2, [r3, #4]
 80040c2:	f442 7000 	orr.w	r0, r2, #512	; 0x200
 80040c6:	6058      	str	r0, [r3, #4]
 80040c8:	a801      	add	r0, sp, #4
 80040ca:	f7ff ffdf 	bl	800408c <_ZNK4quan4meta4impl27for_each_type_sequence_implINS0_13type_sequenceIINS_5stm3210periph_regINS4_4gpio6moduleILm1073873920EEELm8EmEENS5_IS8_Lm12EmEENS5_IS8_Lm16EmEENS5_IS8_Lm20EmEENS5_IS8_Lm24EmEENS5_IS8_Lm28EmEENS5_IS8_Lm32EmEENS5_IS8_Lm36EmEEEEENS4_6detail24apply_periph_reg_actionsIS8_NS3_IINSI_17periph_reg_actionINS5_IS8_Lm0EmEENS0_6bit_orELm524288EEENSK_ISL_NS0_7bit_andELm4294705151EEENSK_ISG_SM_Lm64EEENSK_ISG_SO_Lm4294967119EEENSK_INS5_IS8_Lm4EmEESM_Lm512EEENSK_ISS_SO_Lm4294967295EEENSK_ISA_SM_Lm0EEENSK_ISA_SO_Lm4294180863EEENSK_IS9_SM_Lm0EEENSK_IS9_SO_Lm4294180863EEEEEEEELb1EvEclEv>
 80040ce:	bd0e      	pop	{r1, r2, r3, pc}
 80040d0:	40020400 	.word	0x40020400

080040d4 <_ZN4quan5stm328i2c_portINS0_3i2c6moduleILm1073763328EEENS_3mcu3pinINS0_4gpio6moduleILm1073873920EEELm6EEENS6_IS9_Lm9EEEE4initEbb>:
 80040d4:	4b2a      	ldr	r3, [pc, #168]	; (8004180 <_ZN4quan5stm328i2c_portINS0_3i2c6moduleILm1073763328EEENS_3mcu3pinINS0_4gpio6moduleILm1073873920EEELm6EEENS6_IS9_Lm9EEEE4initEbb+0xac>)
 80040d6:	b537      	push	{r0, r1, r2, r4, r5, lr}
 80040d8:	6c1a      	ldr	r2, [r3, #64]	; 0x40
 80040da:	4d2a      	ldr	r5, [pc, #168]	; (8004184 <_ZN4quan5stm328i2c_portINS0_3i2c6moduleILm1073763328EEENS_3mcu3pinINS0_4gpio6moduleILm1073873920EEELm6EEENS6_IS9_Lm9EEEE4initEbb+0xb0>)
 80040dc:	4c2a      	ldr	r4, [pc, #168]	; (8004188 <_ZN4quan5stm328i2c_portINS0_3i2c6moduleILm1073763328EEENS_3mcu3pinINS0_4gpio6moduleILm1073873920EEELm6EEENS6_IS9_Lm9EEEE4initEbb+0xb4>)
 80040de:	7028      	strb	r0, [r5, #0]
 80040e0:	f442 1000 	orr.w	r0, r2, #2097152	; 0x200000
 80040e4:	7021      	strb	r1, [r4, #0]
 80040e6:	6418      	str	r0, [r3, #64]	; 0x40
 80040e8:	f7ff ffa4 	bl	8004034 <_ZN4quan5stm3213module_enableINS0_4gpio6moduleILm1073873920EEEEENS_6where_INS_11is_model_ofINS0_4GpioET_EEvE4typeEv>
 80040ec:	f7ff ffa2 	bl	8004034 <_ZN4quan5stm3213module_enableINS0_4gpio6moduleILm1073873920EEEEENS_6where_INS_11is_model_ofINS0_4GpioET_EEvE4typeEv>
 80040f0:	4668      	mov	r0, sp
 80040f2:	f7ff ffb9 	bl	8004068 <_ZNK4quan4meta4impl27for_each_type_sequence_implINS0_13type_sequenceIINS_5stm3210periph_regINS4_4gpio6moduleILm1073873920EEELm0EmEENS5_IS8_Lm4EmEENS5_IS8_Lm8EmEENS5_IS8_Lm12EmEENS5_IS8_Lm16EmEENS5_IS8_Lm20EmEENS5_IS8_Lm24EmEENS5_IS8_Lm28EmEENS5_IS8_Lm32EmEENS5_IS8_Lm36EmEEEEENS4_6detail24apply_periph_reg_actionsIS8_NS3_IINSK_17periph_reg_actionIS9_NS0_6bit_orELm8192EEENSM_IS9_NS0_7bit_andELm4294963199EEENSM_ISH_SN_Lm67108864EEENSM_ISH_SP_Lm4110417919EEENSM_ISA_SN_Lm64EEENSM_ISA_SP_Lm4294967295EEENSM_ISC_SN_Lm0EEENSM_ISC_SP_Lm4294955007EEENSM_ISB_SN_Lm0EEENSM_ISB_SP_Lm4294955007EEEEEEEELb1EvEclEv>
 80040f6:	a801      	add	r0, sp, #4
 80040f8:	f7ff ffda 	bl	80040b0 <_ZNK4quan4meta4impl27for_each_type_sequence_implINS0_13type_sequenceIINS_5stm3210periph_regINS4_4gpio6moduleILm1073873920EEELm0EmEENS5_IS8_Lm4EmEENS5_IS8_Lm8EmEENS5_IS8_Lm12EmEENS5_IS8_Lm16EmEENS5_IS8_Lm20EmEENS5_IS8_Lm24EmEENS5_IS8_Lm28EmEENS5_IS8_Lm32EmEENS5_IS8_Lm36EmEEEEENS4_6detail24apply_periph_reg_actionsIS8_NS3_IINSK_17periph_reg_actionIS9_NS0_6bit_orELm524288EEENSM_IS9_NS0_7bit_andELm4294705151EEENSM_ISI_SN_Lm64EEENSM_ISI_SP_Lm4294967119EEENSM_ISA_SN_Lm512EEENSM_ISA_SP_Lm4294967295EEENSM_ISC_SN_Lm0EEENSM_ISC_SP_Lm4294180863EEENSM_ISB_SN_Lm0EEENSM_ISB_SP_Lm4294180863EEEEEEEELb1EvEclEv>
 80040fc:	4923      	ldr	r1, [pc, #140]	; (800418c <_ZN4quan5stm328i2c_portINS0_3i2c6moduleILm1073763328EEENS_3mcu3pinINS0_4gpio6moduleILm1073873920EEELm6EEENS6_IS9_Lm9EEEE4initEbb+0xb8>)
 80040fe:	684b      	ldr	r3, [r1, #4]
 8004100:	f023 023f 	bic.w	r2, r3, #63	; 0x3f
 8004104:	f042 002a 	orr.w	r0, r2, #42	; 0x2a
 8004108:	782a      	ldrb	r2, [r5, #0]
 800410a:	6048      	str	r0, [r1, #4]
 800410c:	b14a      	cbz	r2, 8004122 <_ZN4quan5stm328i2c_portINS0_3i2c6moduleILm1073763328EEENS_3mcu3pinINS0_4gpio6moduleILm1073873920EEELm6EEENS6_IS9_Lm9EEEE4initEbb+0x4e>
 800410e:	7820      	ldrb	r0, [r4, #0]
 8004110:	f248 0323 	movw	r3, #32803	; 0x8023
 8004114:	f24c 0404 	movw	r4, #49156	; 0xc004
 8004118:	2800      	cmp	r0, #0
 800411a:	bf0c      	ite	eq
 800411c:	4618      	moveq	r0, r3
 800411e:	4620      	movne	r0, r4
 8004120:	e000      	b.n	8004124 <_ZN4quan5stm328i2c_portINS0_3i2c6moduleILm1073763328EEENS_3mcu3pinINS0_4gpio6moduleILm1073873920EEELm6EEENS6_IS9_Lm9EEEE4initEbb+0x50>
 8004122:	20d2      	movs	r0, #210	; 0xd2
 8004124:	eddf 7a1a 	vldr	s15, [pc, #104]	; 8004190 <_ZN4quan5stm328i2c_portINS0_3i2c6moduleILm1073763328EEENS_3mcu3pinINS0_4gpio6moduleILm1073873920EEELm6EEENS6_IS9_Lm9EEEE4initEbb+0xbc>
 8004128:	ed9f 7a1a 	vldr	s14, [pc, #104]	; 8004194 <_ZN4quan5stm328i2c_portINS0_3i2c6moduleILm1073763328EEENS_3mcu3pinINS0_4gpio6moduleILm1073873920EEELm6EEENS6_IS9_Lm9EEEE4initEbb+0xc0>
 800412c:	2a00      	cmp	r2, #0
 800412e:	ed9f 0a1a 	vldr	s0, [pc, #104]	; 8004198 <_ZN4quan5stm328i2c_portINS0_3i2c6moduleILm1073763328EEENS_3mcu3pinINS0_4gpio6moduleILm1073873920EEELm6EEENS6_IS9_Lm9EEEE4initEbb+0xc4>
 8004132:	bf08      	it	eq
 8004134:	eef0 7a47 	vmoveq.f32	s15, s14
 8004138:	ee67 0a80 	vmul.f32	s1, s15, s0
 800413c:	ed9f 1a17 	vldr	s2, [pc, #92]	; 800419c <_ZN4quan5stm328i2c_portINS0_3i2c6moduleILm1073763328EEENS_3mcu3pinINS0_4gpio6moduleILm1073873920EEELm6EEENS6_IS9_Lm9EEEE4initEbb+0xc8>
 8004140:	eec0 1a81 	vdiv.f32	s3, s1, s2
 8004144:	69cb      	ldr	r3, [r1, #28]
 8004146:	f423 637f 	bic.w	r3, r3, #4080	; 0xff0
 800414a:	f023 030f 	bic.w	r3, r3, #15
 800414e:	4318      	orrs	r0, r3
 8004150:	4b0e      	ldr	r3, [pc, #56]	; (800418c <_ZN4quan5stm328i2c_portINS0_3i2c6moduleILm1073763328EEENS_3mcu3pinINS0_4gpio6moduleILm1073873920EEELm6EEENS6_IS9_Lm9EEEE4initEbb+0xb8>)
 8004152:	61c8      	str	r0, [r1, #28]
 8004154:	6a19      	ldr	r1, [r3, #32]
 8004156:	f021 003f 	bic.w	r0, r1, #63	; 0x3f
 800415a:	4911      	ldr	r1, [pc, #68]	; (80041a0 <_ZN4quan5stm328i2c_portINS0_3i2c6moduleILm1073763328EEENS_3mcu3pinINS0_4gpio6moduleILm1073873920EEELm6EEENS6_IS9_Lm9EEEE4initEbb+0xcc>)
 800415c:	eeb7 2a00 	vmov.f32	s4, #112	; 0x70
 8004160:	ee71 2a82 	vadd.f32	s5, s3, s4
 8004164:	eebc 3ae2 	vcvt.u32.f32	s6, s5
 8004168:	ee13 2a10 	vmov	r2, s6
 800416c:	4302      	orrs	r2, r0
 800416e:	621a      	str	r2, [r3, #32]
 8004170:	4a0c      	ldr	r2, [pc, #48]	; (80041a4 <_ZN4quan5stm328i2c_portINS0_3i2c6moduleILm1073763328EEENS_3mcu3pinINS0_4gpio6moduleILm1073873920EEELm6EEENS6_IS9_Lm9EEEE4initEbb+0xd0>)
 8004172:	2001      	movs	r0, #1
 8004174:	f04f 4300 	mov.w	r3, #2147483648	; 0x80000000
 8004178:	600b      	str	r3, [r1, #0]
 800417a:	6048      	str	r0, [r1, #4]
 800417c:	6010      	str	r0, [r2, #0]
 800417e:	bd3e      	pop	{r1, r2, r3, r4, r5, pc}
 8004180:	40023800 	.word	0x40023800
 8004184:	1000003c 	.word	0x1000003c
 8004188:	1000172c 	.word	0x1000172c
 800418c:	40005400 	.word	0x40005400
 8004190:	43960000 	.word	0x43960000
 8004194:	447a0000 	.word	0x447a0000
 8004198:	4c2037a0 	.word	0x4c2037a0
 800419c:	4e6e6b28 	.word	0x4e6e6b28
 80041a0:	e000e100 	.word	0xe000e100
 80041a4:	420a8000 	.word	0x420a8000

080041a8 <_ZN4quan5stm326millisEv>:
 80041a8:	4907      	ldr	r1, [pc, #28]	; (80041c8 <_ZN4quan5stm326millisEv+0x20>)
 80041aa:	680b      	ldr	r3, [r1, #0]
 80041ac:	b510      	push	{r4, lr}
 80041ae:	f023 0202 	bic.w	r2, r3, #2
 80041b2:	4c06      	ldr	r4, [pc, #24]	; (80041cc <_ZN4quan5stm326millisEv+0x24>)
 80041b4:	600a      	str	r2, [r1, #0]
 80041b6:	e9d4 2300 	ldrd	r2, r3, [r4]
 80041ba:	680c      	ldr	r4, [r1, #0]
 80041bc:	f044 0402 	orr.w	r4, r4, #2
 80041c0:	600c      	str	r4, [r1, #0]
 80041c2:	e9c0 2300 	strd	r2, r3, [r0]
 80041c6:	bd10      	pop	{r4, pc}
 80041c8:	e000e010 	.word	0xe000e010
 80041cc:	10000b10 	.word	0x10000b10

080041d0 <_ZN4quan5stm328i2c_portINS0_3i2c6moduleILm1073763328EEENS_3mcu3pinINS0_4gpio6moduleILm1073873920EEELm6EEENS6_IS9_Lm9EEEE4busyEv>:
 80041d0:	4b08      	ldr	r3, [pc, #32]	; (80041f4 <_ZN4quan5stm328i2c_portINS0_3i2c6moduleILm1073763328EEENS_3mcu3pinINS0_4gpio6moduleILm1073873920EEELm6EEENS6_IS9_Lm9EEEE4busyEv+0x24>)
 80041d2:	7818      	ldrb	r0, [r3, #0]
 80041d4:	b910      	cbnz	r0, 80041dc <_ZN4quan5stm328i2c_portINS0_3i2c6moduleILm1073763328EEENS_3mcu3pinINS0_4gpio6moduleILm1073873920EEELm6EEENS6_IS9_Lm9EEEE4busyEv+0xc>
 80041d6:	4908      	ldr	r1, [pc, #32]	; (80041f8 <_ZN4quan5stm328i2c_portINS0_3i2c6moduleILm1073763328EEENS_3mcu3pinINS0_4gpio6moduleILm1073873920EEELm6EEENS6_IS9_Lm9EEEE4busyEv+0x28>)
 80041d8:	780a      	ldrb	r2, [r1, #0]
 80041da:	b10a      	cbz	r2, 80041e0 <_ZN4quan5stm328i2c_portINS0_3i2c6moduleILm1073763328EEENS_3mcu3pinINS0_4gpio6moduleILm1073873920EEELm6EEENS6_IS9_Lm9EEEE4busyEv+0x10>
 80041dc:	2001      	movs	r0, #1
 80041de:	4770      	bx	lr
 80041e0:	4b06      	ldr	r3, [pc, #24]	; (80041fc <_ZN4quan5stm328i2c_portINS0_3i2c6moduleILm1073763328EEENS_3mcu3pinINS0_4gpio6moduleILm1073873920EEELm6EEENS6_IS9_Lm9EEEE4busyEv+0x2c>)
 80041e2:	6818      	ldr	r0, [r3, #0]
 80041e4:	2800      	cmp	r0, #0
 80041e6:	d1f9      	bne.n	80041dc <_ZN4quan5stm328i2c_portINS0_3i2c6moduleILm1073763328EEENS_3mcu3pinINS0_4gpio6moduleILm1073873920EEELm6EEENS6_IS9_Lm9EEEE4busyEv+0xc>
 80041e8:	4905      	ldr	r1, [pc, #20]	; (8004200 <_ZN4quan5stm328i2c_portINS0_3i2c6moduleILm1073763328EEENS_3mcu3pinINS0_4gpio6moduleILm1073873920EEELm6EEENS6_IS9_Lm9EEEE4busyEv+0x30>)
 80041ea:	680a      	ldr	r2, [r1, #0]
 80041ec:	1c10      	adds	r0, r2, #0
 80041ee:	bf18      	it	ne
 80041f0:	2001      	movne	r0, #1
 80041f2:	4770      	bx	lr
 80041f4:	1000171c 	.word	0x1000171c
 80041f8:	10001724 	.word	0x10001724
 80041fc:	420a8024 	.word	0x420a8024
 8004200:	420a8304 	.word	0x420a8304

08004204 <_ZN4quan5stm328i2c_portINS0_3i2c6moduleILm1073763328EEENS_3mcu3pinINS0_4gpio6moduleILm1073873920EEELm6EEENS6_IS9_Lm9EEEE16transfer_requestEhPhl>:
 8004204:	e92d 43f7 	stmdb	sp!, {r0, r1, r2, r4, r5, r6, r7, r8, r9, lr}
 8004208:	4607      	mov	r7, r0
 800420a:	460d      	mov	r5, r1
 800420c:	4614      	mov	r4, r2
 800420e:	f7ff ffdf 	bl	80041d0 <_ZN4quan5stm328i2c_portINS0_3i2c6moduleILm1073763328EEENS_3mcu3pinINS0_4gpio6moduleILm1073873920EEELm6EEENS6_IS9_Lm9EEEE4busyEv>
 8004212:	4606      	mov	r6, r0
 8004214:	b120      	cbz	r0, 8004220 <_ZN4quan5stm328i2c_portINS0_3i2c6moduleILm1073763328EEENS_3mcu3pinINS0_4gpio6moduleILm1073873920EEELm6EEENS6_IS9_Lm9EEEE16transfer_requestEhPhl+0x1c>
 8004216:	2002      	movs	r0, #2
 8004218:	4a1c      	ldr	r2, [pc, #112]	; (800428c <_ZN4quan5stm328i2c_portINS0_3i2c6moduleILm1073763328EEENS_3mcu3pinINS0_4gpio6moduleILm1073873920EEELm6EEENS6_IS9_Lm9EEEE16transfer_requestEhPhl+0x88>)
 800421a:	6010      	str	r0, [r2, #0]
 800421c:	2000      	movs	r0, #0
 800421e:	e033      	b.n	8004288 <_ZN4quan5stm328i2c_portINS0_3i2c6moduleILm1073763328EEENS_3mcu3pinINS0_4gpio6moduleILm1073873920EEELm6EEENS6_IS9_Lm9EEEE16transfer_requestEhPhl+0x84>
 8004220:	2f03      	cmp	r7, #3
 8004222:	d801      	bhi.n	8004228 <_ZN4quan5stm328i2c_portINS0_3i2c6moduleILm1073763328EEENS_3mcu3pinINS0_4gpio6moduleILm1073873920EEELm6EEENS6_IS9_Lm9EEEE16transfer_requestEhPhl+0x24>
 8004224:	2001      	movs	r0, #1
 8004226:	e7f7      	b.n	8004218 <_ZN4quan5stm328i2c_portINS0_3i2c6moduleILm1073763328EEENS_3mcu3pinINS0_4gpio6moduleILm1073873920EEELm6EEENS6_IS9_Lm9EEEE16transfer_requestEhPhl+0x14>
 8004228:	b90c      	cbnz	r4, 800422e <_ZN4quan5stm328i2c_portINS0_3i2c6moduleILm1073763328EEENS_3mcu3pinINS0_4gpio6moduleILm1073873920EEELm6EEENS6_IS9_Lm9EEEE16transfer_requestEhPhl+0x2a>
 800422a:	2003      	movs	r0, #3
 800422c:	e7f4      	b.n	8004218 <_ZN4quan5stm328i2c_portINS0_3i2c6moduleILm1073763328EEENS_3mcu3pinINS0_4gpio6moduleILm1073873920EEELm6EEENS6_IS9_Lm9EEEE16transfer_requestEhPhl+0x14>
 800422e:	b90d      	cbnz	r5, 8004234 <_ZN4quan5stm328i2c_portINS0_3i2c6moduleILm1073763328EEENS_3mcu3pinINS0_4gpio6moduleILm1073873920EEELm6EEENS6_IS9_Lm9EEEE16transfer_requestEhPhl+0x30>
 8004230:	2004      	movs	r0, #4
 8004232:	e7f1      	b.n	8004218 <_ZN4quan5stm328i2c_portINS0_3i2c6moduleILm1073763328EEENS_3mcu3pinINS0_4gpio6moduleILm1073873920EEELm6EEENS6_IS9_Lm9EEEE16transfer_requestEhPhl+0x14>
 8004234:	f8df 9080 	ldr.w	r9, [pc, #128]	; 80042b8 <_ZN4quan5stm328i2c_portINS0_3i2c6moduleILm1073763328EEENS_3mcu3pinINS0_4gpio6moduleILm1073873920EEELm6EEENS6_IS9_Lm9EEEE16transfer_requestEhPhl+0xb4>
 8004238:	f8df 8080 	ldr.w	r8, [pc, #128]	; 80042bc <_ZN4quan5stm328i2c_portINS0_3i2c6moduleILm1073763328EEENS_3mcu3pinINS0_4gpio6moduleILm1073873920EEELm6EEENS6_IS9_Lm9EEEE16transfer_requestEhPhl+0xb8>
 800423c:	4814      	ldr	r0, [pc, #80]	; (8004290 <_ZN4quan5stm328i2c_portINS0_3i2c6moduleILm1073763328EEENS_3mcu3pinINS0_4gpio6moduleILm1073873920EEELm6EEENS6_IS9_Lm9EEEE16transfer_requestEhPhl+0x8c>)
 800423e:	4b15      	ldr	r3, [pc, #84]	; (8004294 <_ZN4quan5stm328i2c_portINS0_3i2c6moduleILm1073763328EEENS_3mcu3pinINS0_4gpio6moduleILm1073873920EEELm6EEENS6_IS9_Lm9EEEE16transfer_requestEhPhl+0x90>)
 8004240:	4915      	ldr	r1, [pc, #84]	; (8004298 <_ZN4quan5stm328i2c_portINS0_3i2c6moduleILm1073763328EEENS_3mcu3pinINS0_4gpio6moduleILm1073873920EEELm6EEENS6_IS9_Lm9EEEE16transfer_requestEhPhl+0x94>)
 8004242:	4a16      	ldr	r2, [pc, #88]	; (800429c <_ZN4quan5stm328i2c_portINS0_3i2c6moduleILm1073763328EEENS_3mcu3pinINS0_4gpio6moduleILm1073873920EEELm6EEENS6_IS9_Lm9EEEE16transfer_requestEhPhl+0x98>)
 8004244:	f8c9 6000 	str.w	r6, [r9]
 8004248:	f8c8 6000 	str.w	r6, [r8]
 800424c:	6005      	str	r5, [r0, #0]
 800424e:	4668      	mov	r0, sp
 8004250:	600c      	str	r4, [r1, #0]
 8004252:	6014      	str	r4, [r2, #0]
 8004254:	701f      	strb	r7, [r3, #0]
 8004256:	f7ff ffa7 	bl	80041a8 <_ZN4quan5stm326millisEv>
 800425a:	e9dd 4500 	ldrd	r4, r5, [sp]
 800425e:	4b10      	ldr	r3, [pc, #64]	; (80042a0 <_ZN4quan5stm328i2c_portINS0_3i2c6moduleILm1073763328EEENS_3mcu3pinINS0_4gpio6moduleILm1073873920EEELm6EEENS6_IS9_Lm9EEEE16transfer_requestEhPhl+0x9c>)
 8004260:	4910      	ldr	r1, [pc, #64]	; (80042a4 <_ZN4quan5stm328i2c_portINS0_3i2c6moduleILm1073763328EEENS_3mcu3pinINS0_4gpio6moduleILm1073873920EEELm6EEENS6_IS9_Lm9EEEE16transfer_requestEhPhl+0xa0>)
 8004262:	4a11      	ldr	r2, [pc, #68]	; (80042a8 <_ZN4quan5stm328i2c_portINS0_3i2c6moduleILm1073763328EEENS_3mcu3pinINS0_4gpio6moduleILm1073873920EEELm6EEENS6_IS9_Lm9EEEE16transfer_requestEhPhl+0xa4>)
 8004264:	e9c3 4500 	strd	r4, r5, [r3]
 8004268:	4b10      	ldr	r3, [pc, #64]	; (80042ac <_ZN4quan5stm328i2c_portINS0_3i2c6moduleILm1073763328EEENS_3mcu3pinINS0_4gpio6moduleILm1073873920EEELm6EEENS6_IS9_Lm9EEEE16transfer_requestEhPhl+0xa8>)
 800426a:	2001      	movs	r0, #1
 800426c:	7008      	strb	r0, [r1, #0]
 800426e:	6013      	str	r3, [r2, #0]
 8004270:	490f      	ldr	r1, [pc, #60]	; (80042b0 <_ZN4quan5stm328i2c_portINS0_3i2c6moduleILm1073763328EEENS_3mcu3pinINS0_4gpio6moduleILm1073873920EEELm6EEENS6_IS9_Lm9EEEE16transfer_requestEhPhl+0xac>)
 8004272:	4b10      	ldr	r3, [pc, #64]	; (80042b4 <_ZN4quan5stm328i2c_portINS0_3i2c6moduleILm1073763328EEENS_3mcu3pinINS0_4gpio6moduleILm1073873920EEELm6EEENS6_IS9_Lm9EEEE16transfer_requestEhPhl+0xb0>)
 8004274:	7008      	strb	r0, [r1, #0]
 8004276:	601e      	str	r6, [r3, #0]
 8004278:	f843 0c04 	str.w	r0, [r3, #-4]
 800427c:	f843 0c0c 	str.w	r0, [r3, #-12]
 8004280:	f8c9 0000 	str.w	r0, [r9]
 8004284:	f8c8 0000 	str.w	r0, [r8]
 8004288:	e8bd 83fe 	ldmia.w	sp!, {r1, r2, r3, r4, r5, r6, r7, r8, r9, pc}
 800428c:	10001728 	.word	0x10001728
 8004290:	10001734 	.word	0x10001734
 8004294:	1000172d 	.word	0x1000172d
 8004298:	10001720 	.word	0x10001720
 800429c:	10001730 	.word	0x10001730
 80042a0:	10001738 	.word	0x10001738
 80042a4:	10001724 	.word	0x10001724
 80042a8:	10000040 	.word	0x10000040
 80042ac:	08003dc1 	.word	0x08003dc1
 80042b0:	1000171c 	.word	0x1000171c
 80042b4:	420a802c 	.word	0x420a802c
 80042b8:	420a80a0 	.word	0x420a80a0
 80042bc:	420a80a4 	.word	0x420a80a4

080042c0 <_GLOBAL__sub_I__Z10update_magRN4quan7three_d4vectIsEEl>:
 80042c0:	4a06      	ldr	r2, [pc, #24]	; (80042dc <_GLOBAL__sub_I__Z10update_magRN4quan7three_d4vectIsEEl+0x1c>)
 80042c2:	6813      	ldr	r3, [r2, #0]
 80042c4:	f013 0101 	ands.w	r1, r3, #1
 80042c8:	d106      	bne.n	80042d8 <_GLOBAL__sub_I__Z10update_magRN4quan7three_d4vectIsEEl+0x18>
 80042ca:	4b05      	ldr	r3, [pc, #20]	; (80042e0 <_GLOBAL__sub_I__Z10update_magRN4quan7three_d4vectIsEEl+0x20>)
 80042cc:	2001      	movs	r0, #1
 80042ce:	6010      	str	r0, [r2, #0]
 80042d0:	f103 0208 	add.w	r2, r3, #8
 80042d4:	601a      	str	r2, [r3, #0]
 80042d6:	6059      	str	r1, [r3, #4]
 80042d8:	4770      	bx	lr
 80042da:	bf00      	nop
 80042dc:	10000f08 	.word	0x10000f08
 80042e0:	10000b18 	.word	0x10000b18

080042e4 <Reset_Handler>:
 80042e4:	2100      	movs	r1, #0
 80042e6:	f000 b804 	b.w	80042f2 <LoopCopyDataInit>

080042ea <CopyDataInit>:
 80042ea:	4b0e      	ldr	r3, [pc, #56]	; (8004324 <LoopFillZerobss+0x1a>)
 80042ec:	585b      	ldr	r3, [r3, r1]
 80042ee:	5043      	str	r3, [r0, r1]
 80042f0:	3104      	adds	r1, #4

080042f2 <LoopCopyDataInit>:
 80042f2:	480d      	ldr	r0, [pc, #52]	; (8004328 <LoopFillZerobss+0x1e>)
 80042f4:	4b0d      	ldr	r3, [pc, #52]	; (800432c <LoopFillZerobss+0x22>)
 80042f6:	1842      	adds	r2, r0, r1
 80042f8:	429a      	cmp	r2, r3
 80042fa:	f4ff aff6 	bcc.w	80042ea <CopyDataInit>
 80042fe:	4a0c      	ldr	r2, [pc, #48]	; (8004330 <LoopFillZerobss+0x26>)
 8004300:	f000 b803 	b.w	800430a <LoopFillZerobss>

08004304 <FillZerobss>:
 8004304:	2300      	movs	r3, #0
 8004306:	f842 3b04 	str.w	r3, [r2], #4

0800430a <LoopFillZerobss>:
 800430a:	4b0a      	ldr	r3, [pc, #40]	; (8004334 <LoopFillZerobss+0x2a>)
 800430c:	429a      	cmp	r2, r3
 800430e:	f4ff aff9 	bcc.w	8004304 <FillZerobss>
 8004312:	f7fd f95f 	bl	80015d4 <SystemInit>
 8004316:	f000 f82f 	bl	8004378 <__libc_init_array>
 800431a:	f7fd f925 	bl	8001568 <setup>
 800431e:	f7fe fe39 	bl	8002f94 <main>
 8004322:	4770      	bx	lr
 8004324:	0800e5d8 	.word	0x0800e5d8
 8004328:	10000000 	.word	0x10000000
 800432c:	10000908 	.word	0x10000908
 8004330:	10000908 	.word	0x10000908
 8004334:	10001784 	.word	0x10001784

08004338 <ADC_IRQHandler>:
 8004338:	f7ff bffe 	b.w	8004338 <ADC_IRQHandler>

0800433c <__aeabi_atexit>:
 800433c:	4603      	mov	r3, r0
 800433e:	4608      	mov	r0, r1
 8004340:	4619      	mov	r1, r3
 8004342:	f000 b809 	b.w	8004358 <__cxa_atexit>
 8004346:	bf00      	nop

08004348 <atoi>:
 8004348:	2100      	movs	r1, #0
 800434a:	220a      	movs	r2, #10
 800434c:	f000 bb12 	b.w	8004974 <strtol>

08004350 <_atoi_r>:
 8004350:	2200      	movs	r2, #0
 8004352:	230a      	movs	r3, #10
 8004354:	f000 ba74 	b.w	8004840 <_strtol_r>

08004358 <__cxa_atexit>:
 8004358:	b430      	push	{r4, r5}
 800435a:	4605      	mov	r5, r0
 800435c:	460c      	mov	r4, r1
 800435e:	4613      	mov	r3, r2
 8004360:	2002      	movs	r0, #2
 8004362:	4629      	mov	r1, r5
 8004364:	4622      	mov	r2, r4
 8004366:	bc30      	pop	{r4, r5}
 8004368:	f002 b8c4 	b.w	80064f4 <__register_exitproc>

0800436c <__errno>:
 800436c:	f240 4370 	movw	r3, #1136	; 0x470
 8004370:	f2c1 0300 	movt	r3, #4096	; 0x1000
 8004374:	6818      	ldr	r0, [r3, #0]
 8004376:	4770      	bx	lr

08004378 <__libc_init_array>:
 8004378:	b5f8      	push	{r3, r4, r5, r6, r7, lr}
 800437a:	4f20      	ldr	r7, [pc, #128]	; (80043fc <__libc_init_array+0x84>)
 800437c:	4c20      	ldr	r4, [pc, #128]	; (8004400 <__libc_init_array+0x88>)
 800437e:	1b38      	subs	r0, r7, r4
 8004380:	1087      	asrs	r7, r0, #2
 8004382:	d017      	beq.n	80043b4 <__libc_init_array+0x3c>
 8004384:	1e7a      	subs	r2, r7, #1
 8004386:	6823      	ldr	r3, [r4, #0]
 8004388:	2501      	movs	r5, #1
 800438a:	f002 0601 	and.w	r6, r2, #1
 800438e:	4798      	blx	r3
 8004390:	42af      	cmp	r7, r5
 8004392:	d00f      	beq.n	80043b4 <__libc_init_array+0x3c>
 8004394:	b12e      	cbz	r6, 80043a2 <__libc_init_array+0x2a>
 8004396:	f854 1f04 	ldr.w	r1, [r4, #4]!
 800439a:	2502      	movs	r5, #2
 800439c:	4788      	blx	r1
 800439e:	42af      	cmp	r7, r5
 80043a0:	d008      	beq.n	80043b4 <__libc_init_array+0x3c>
 80043a2:	6860      	ldr	r0, [r4, #4]
 80043a4:	4780      	blx	r0
 80043a6:	3502      	adds	r5, #2
 80043a8:	68a2      	ldr	r2, [r4, #8]
 80043aa:	1d26      	adds	r6, r4, #4
 80043ac:	4790      	blx	r2
 80043ae:	3408      	adds	r4, #8
 80043b0:	42af      	cmp	r7, r5
 80043b2:	d1f6      	bne.n	80043a2 <__libc_init_array+0x2a>
 80043b4:	4f13      	ldr	r7, [pc, #76]	; (8004404 <__libc_init_array+0x8c>)
 80043b6:	4c14      	ldr	r4, [pc, #80]	; (8004408 <__libc_init_array+0x90>)
 80043b8:	f00a f8ee 	bl	800e598 <_init>
 80043bc:	1b3b      	subs	r3, r7, r4
 80043be:	109f      	asrs	r7, r3, #2
 80043c0:	d018      	beq.n	80043f4 <__libc_init_array+0x7c>
 80043c2:	1e7d      	subs	r5, r7, #1
 80043c4:	6821      	ldr	r1, [r4, #0]
 80043c6:	f005 0601 	and.w	r6, r5, #1
 80043ca:	2501      	movs	r5, #1
 80043cc:	4788      	blx	r1
 80043ce:	42af      	cmp	r7, r5
 80043d0:	d011      	beq.n	80043f6 <__libc_init_array+0x7e>
 80043d2:	b12e      	cbz	r6, 80043e0 <__libc_init_array+0x68>
 80043d4:	f854 0f04 	ldr.w	r0, [r4, #4]!
 80043d8:	2502      	movs	r5, #2
 80043da:	4780      	blx	r0
 80043dc:	42af      	cmp	r7, r5
 80043de:	d00b      	beq.n	80043f8 <__libc_init_array+0x80>
 80043e0:	6862      	ldr	r2, [r4, #4]
 80043e2:	4790      	blx	r2
 80043e4:	3502      	adds	r5, #2
 80043e6:	68a3      	ldr	r3, [r4, #8]
 80043e8:	1d26      	adds	r6, r4, #4
 80043ea:	4798      	blx	r3
 80043ec:	3408      	adds	r4, #8
 80043ee:	42af      	cmp	r7, r5
 80043f0:	d1f6      	bne.n	80043e0 <__libc_init_array+0x68>
 80043f2:	bdf8      	pop	{r3, r4, r5, r6, r7, pc}
 80043f4:	bdf8      	pop	{r3, r4, r5, r6, r7, pc}
 80043f6:	bdf8      	pop	{r3, r4, r5, r6, r7, pc}
 80043f8:	bdf8      	pop	{r3, r4, r5, r6, r7, pc}
 80043fa:	bf00      	nop
 80043fc:	0800e5b0 	.word	0x0800e5b0
 8004400:	0800e5b0 	.word	0x0800e5b0
 8004404:	0800e5d8 	.word	0x0800e5d8
 8004408:	0800e5b0 	.word	0x0800e5b0

0800440c <memcpy>:
 800440c:	2a0f      	cmp	r2, #15
 800440e:	e92d 03f0 	stmdb	sp!, {r4, r5, r6, r7, r8, r9}
 8004412:	f240 8095 	bls.w	8004540 <memcpy+0x134>
 8004416:	ea41 0300 	orr.w	r3, r1, r0
 800441a:	079b      	lsls	r3, r3, #30
 800441c:	f040 8092 	bne.w	8004544 <memcpy+0x138>
 8004420:	680c      	ldr	r4, [r1, #0]
 8004422:	6004      	str	r4, [r0, #0]
 8004424:	684d      	ldr	r5, [r1, #4]
 8004426:	6045      	str	r5, [r0, #4]
 8004428:	688e      	ldr	r6, [r1, #8]
 800442a:	f1a2 0310 	sub.w	r3, r2, #16
 800442e:	6086      	str	r6, [r0, #8]
 8004430:	68cc      	ldr	r4, [r1, #12]
 8004432:	461d      	mov	r5, r3
 8004434:	2d0f      	cmp	r5, #15
 8004436:	60c4      	str	r4, [r0, #12]
 8004438:	f3c3 1600 	ubfx	r6, r3, #4, #1
 800443c:	f101 0410 	add.w	r4, r1, #16
 8004440:	f100 0310 	add.w	r3, r0, #16
 8004444:	d922      	bls.n	800448c <memcpy+0x80>
 8004446:	b166      	cbz	r6, 8004462 <memcpy+0x56>
 8004448:	6826      	ldr	r6, [r4, #0]
 800444a:	601e      	str	r6, [r3, #0]
 800444c:	6866      	ldr	r6, [r4, #4]
 800444e:	605e      	str	r6, [r3, #4]
 8004450:	68a6      	ldr	r6, [r4, #8]
 8004452:	609e      	str	r6, [r3, #8]
 8004454:	68e6      	ldr	r6, [r4, #12]
 8004456:	3d10      	subs	r5, #16
 8004458:	60de      	str	r6, [r3, #12]
 800445a:	3410      	adds	r4, #16
 800445c:	3310      	adds	r3, #16
 800445e:	2d0f      	cmp	r5, #15
 8004460:	d914      	bls.n	800448c <memcpy+0x80>
 8004462:	6826      	ldr	r6, [r4, #0]
 8004464:	601e      	str	r6, [r3, #0]
 8004466:	6866      	ldr	r6, [r4, #4]
 8004468:	605e      	str	r6, [r3, #4]
 800446a:	68a6      	ldr	r6, [r4, #8]
 800446c:	609e      	str	r6, [r3, #8]
 800446e:	68e6      	ldr	r6, [r4, #12]
 8004470:	60de      	str	r6, [r3, #12]
 8004472:	6926      	ldr	r6, [r4, #16]
 8004474:	611e      	str	r6, [r3, #16]
 8004476:	6966      	ldr	r6, [r4, #20]
 8004478:	615e      	str	r6, [r3, #20]
 800447a:	69a6      	ldr	r6, [r4, #24]
 800447c:	619e      	str	r6, [r3, #24]
 800447e:	69e6      	ldr	r6, [r4, #28]
 8004480:	3d20      	subs	r5, #32
 8004482:	61de      	str	r6, [r3, #28]
 8004484:	3420      	adds	r4, #32
 8004486:	3320      	adds	r3, #32
 8004488:	2d0f      	cmp	r5, #15
 800448a:	d8ea      	bhi.n	8004462 <memcpy+0x56>
 800448c:	f1a2 0310 	sub.w	r3, r2, #16
 8004490:	f023 040f 	bic.w	r4, r3, #15
 8004494:	f002 030f 	and.w	r3, r2, #15
 8004498:	3410      	adds	r4, #16
 800449a:	2b03      	cmp	r3, #3
 800449c:	eb00 0804 	add.w	r8, r0, r4
 80044a0:	4421      	add	r1, r4
 80044a2:	d951      	bls.n	8004548 <memcpy+0x13c>
 80044a4:	f1a3 0904 	sub.w	r9, r3, #4
 80044a8:	460b      	mov	r3, r1
 80044aa:	ea4f 0999 	mov.w	r9, r9, lsr #2
 80044ae:	eb01 0c89 	add.w	ip, r1, r9, lsl #2
 80044b2:	f853 6b04 	ldr.w	r6, [r3], #4
 80044b6:	ebc1 050c 	rsb	r5, r1, ip
 80044ba:	4644      	mov	r4, r8
 80044bc:	f10c 0c04 	add.w	ip, ip, #4
 80044c0:	4563      	cmp	r3, ip
 80044c2:	f844 6b04 	str.w	r6, [r4], #4
 80044c6:	f3c5 0580 	ubfx	r5, r5, #2, #1
 80044ca:	d012      	beq.n	80044f2 <memcpy+0xe6>
 80044cc:	b12d      	cbz	r5, 80044da <memcpy+0xce>
 80044ce:	f853 5b04 	ldr.w	r5, [r3], #4
 80044d2:	4563      	cmp	r3, ip
 80044d4:	f844 5b04 	str.w	r5, [r4], #4
 80044d8:	d00b      	beq.n	80044f2 <memcpy+0xe6>
 80044da:	461e      	mov	r6, r3
 80044dc:	4625      	mov	r5, r4
 80044de:	f856 7b04 	ldr.w	r7, [r6], #4
 80044e2:	f845 7b04 	str.w	r7, [r5], #4
 80044e6:	685f      	ldr	r7, [r3, #4]
 80044e8:	1d33      	adds	r3, r6, #4
 80044ea:	6067      	str	r7, [r4, #4]
 80044ec:	1d2c      	adds	r4, r5, #4
 80044ee:	4563      	cmp	r3, ip
 80044f0:	d1f3      	bne.n	80044da <memcpy+0xce>
 80044f2:	f109 0301 	add.w	r3, r9, #1
 80044f6:	009c      	lsls	r4, r3, #2
 80044f8:	1909      	adds	r1, r1, r4
 80044fa:	f002 0203 	and.w	r2, r2, #3
 80044fe:	4444      	add	r4, r8
 8004500:	b1da      	cbz	r2, 800453a <memcpy+0x12e>
 8004502:	4623      	mov	r3, r4
 8004504:	780d      	ldrb	r5, [r1, #0]
 8004506:	f803 5b01 	strb.w	r5, [r3], #1
 800450a:	18a2      	adds	r2, r4, r2
 800450c:	43e4      	mvns	r4, r4
 800450e:	1914      	adds	r4, r2, r4
 8004510:	4293      	cmp	r3, r2
 8004512:	f004 0401 	and.w	r4, r4, #1
 8004516:	d010      	beq.n	800453a <memcpy+0x12e>
 8004518:	b12c      	cbz	r4, 8004526 <memcpy+0x11a>
 800451a:	f811 4f01 	ldrb.w	r4, [r1, #1]!
 800451e:	f803 4b01 	strb.w	r4, [r3], #1
 8004522:	4293      	cmp	r3, r2
 8004524:	d009      	beq.n	800453a <memcpy+0x12e>
 8004526:	784d      	ldrb	r5, [r1, #1]
 8004528:	461c      	mov	r4, r3
 800452a:	f804 5b01 	strb.w	r5, [r4], #1
 800452e:	788d      	ldrb	r5, [r1, #2]
 8004530:	705d      	strb	r5, [r3, #1]
 8004532:	1c63      	adds	r3, r4, #1
 8004534:	3102      	adds	r1, #2
 8004536:	4293      	cmp	r3, r2
 8004538:	d1f5      	bne.n	8004526 <memcpy+0x11a>
 800453a:	e8bd 03f0 	ldmia.w	sp!, {r4, r5, r6, r7, r8, r9}
 800453e:	4770      	bx	lr
 8004540:	4604      	mov	r4, r0
 8004542:	e7dd      	b.n	8004500 <memcpy+0xf4>
 8004544:	4604      	mov	r4, r0
 8004546:	e7dc      	b.n	8004502 <memcpy+0xf6>
 8004548:	4644      	mov	r4, r8
 800454a:	461a      	mov	r2, r3
 800454c:	e7d8      	b.n	8004500 <memcpy+0xf4>
 800454e:	bf00      	nop

08004550 <memset>:
 8004550:	b4f0      	push	{r4, r5, r6, r7}
 8004552:	0784      	lsls	r4, r0, #30
 8004554:	4603      	mov	r3, r0
 8004556:	f000 808e 	beq.w	8004676 <memset+0x126>
 800455a:	1e54      	subs	r4, r2, #1
 800455c:	2a00      	cmp	r2, #0
 800455e:	f000 8088 	beq.w	8004672 <memset+0x122>
 8004562:	07e5      	lsls	r5, r4, #31
 8004564:	b2ce      	uxtb	r6, r1
 8004566:	d411      	bmi.n	800458c <memset+0x3c>
 8004568:	461a      	mov	r2, r3
 800456a:	1e67      	subs	r7, r4, #1
 800456c:	f802 6b01 	strb.w	r6, [r2], #1
 8004570:	4613      	mov	r3, r2
 8004572:	4615      	mov	r5, r2
 8004574:	0792      	lsls	r2, r2, #30
 8004576:	d00f      	beq.n	8004598 <memset+0x48>
 8004578:	2c00      	cmp	r4, #0
 800457a:	d07a      	beq.n	8004672 <memset+0x122>
 800457c:	f803 6b01 	strb.w	r6, [r3], #1
 8004580:	079a      	lsls	r2, r3, #30
 8004582:	463c      	mov	r4, r7
 8004584:	461d      	mov	r5, r3
 8004586:	d007      	beq.n	8004598 <memset+0x48>
 8004588:	3c01      	subs	r4, #1
 800458a:	e7ed      	b.n	8004568 <memset+0x18>
 800458c:	4603      	mov	r3, r0
 800458e:	f803 6b01 	strb.w	r6, [r3], #1
 8004592:	079a      	lsls	r2, r3, #30
 8004594:	461d      	mov	r5, r3
 8004596:	d1f7      	bne.n	8004588 <memset+0x38>
 8004598:	2c03      	cmp	r4, #3
 800459a:	d952      	bls.n	8004642 <memset+0xf2>
 800459c:	b2ce      	uxtb	r6, r1
 800459e:	ea46 2706 	orr.w	r7, r6, r6, lsl #8
 80045a2:	2c0f      	cmp	r4, #15
 80045a4:	ea47 4307 	orr.w	r3, r7, r7, lsl #16
 80045a8:	d92d      	bls.n	8004606 <memset+0xb6>
 80045aa:	f1a4 0210 	sub.w	r2, r4, #16
 80045ae:	4617      	mov	r7, r2
 80045b0:	2f0f      	cmp	r7, #15
 80045b2:	f3c2 1600 	ubfx	r6, r2, #4, #1
 80045b6:	602b      	str	r3, [r5, #0]
 80045b8:	606b      	str	r3, [r5, #4]
 80045ba:	60ab      	str	r3, [r5, #8]
 80045bc:	60eb      	str	r3, [r5, #12]
 80045be:	f105 0210 	add.w	r2, r5, #16
 80045c2:	d916      	bls.n	80045f2 <memset+0xa2>
 80045c4:	b13e      	cbz	r6, 80045d6 <memset+0x86>
 80045c6:	3f10      	subs	r7, #16
 80045c8:	6013      	str	r3, [r2, #0]
 80045ca:	6053      	str	r3, [r2, #4]
 80045cc:	6093      	str	r3, [r2, #8]
 80045ce:	60d3      	str	r3, [r2, #12]
 80045d0:	3210      	adds	r2, #16
 80045d2:	2f0f      	cmp	r7, #15
 80045d4:	d90d      	bls.n	80045f2 <memset+0xa2>
 80045d6:	3f20      	subs	r7, #32
 80045d8:	f102 0610 	add.w	r6, r2, #16
 80045dc:	6013      	str	r3, [r2, #0]
 80045de:	6053      	str	r3, [r2, #4]
 80045e0:	6093      	str	r3, [r2, #8]
 80045e2:	60d3      	str	r3, [r2, #12]
 80045e4:	6113      	str	r3, [r2, #16]
 80045e6:	6153      	str	r3, [r2, #20]
 80045e8:	6193      	str	r3, [r2, #24]
 80045ea:	61d3      	str	r3, [r2, #28]
 80045ec:	3220      	adds	r2, #32
 80045ee:	2f0f      	cmp	r7, #15
 80045f0:	d8f1      	bhi.n	80045d6 <memset+0x86>
 80045f2:	f1a4 0210 	sub.w	r2, r4, #16
 80045f6:	f022 020f 	bic.w	r2, r2, #15
 80045fa:	f004 040f 	and.w	r4, r4, #15
 80045fe:	3210      	adds	r2, #16
 8004600:	2c03      	cmp	r4, #3
 8004602:	4415      	add	r5, r2
 8004604:	d91d      	bls.n	8004642 <memset+0xf2>
 8004606:	1f27      	subs	r7, r4, #4
 8004608:	463e      	mov	r6, r7
 800460a:	462a      	mov	r2, r5
 800460c:	2e03      	cmp	r6, #3
 800460e:	f842 3b04 	str.w	r3, [r2], #4
 8004612:	f3c7 0780 	ubfx	r7, r7, #2, #1
 8004616:	d90d      	bls.n	8004634 <memset+0xe4>
 8004618:	b127      	cbz	r7, 8004624 <memset+0xd4>
 800461a:	3e04      	subs	r6, #4
 800461c:	2e03      	cmp	r6, #3
 800461e:	f842 3b04 	str.w	r3, [r2], #4
 8004622:	d907      	bls.n	8004634 <memset+0xe4>
 8004624:	4617      	mov	r7, r2
 8004626:	3e08      	subs	r6, #8
 8004628:	f847 3b04 	str.w	r3, [r7], #4
 800462c:	6053      	str	r3, [r2, #4]
 800462e:	1d3a      	adds	r2, r7, #4
 8004630:	2e03      	cmp	r6, #3
 8004632:	d8f7      	bhi.n	8004624 <memset+0xd4>
 8004634:	1f23      	subs	r3, r4, #4
 8004636:	f023 0203 	bic.w	r2, r3, #3
 800463a:	1d13      	adds	r3, r2, #4
 800463c:	f004 0403 	and.w	r4, r4, #3
 8004640:	18ed      	adds	r5, r5, r3
 8004642:	b1b4      	cbz	r4, 8004672 <memset+0x122>
 8004644:	462b      	mov	r3, r5
 8004646:	b2c9      	uxtb	r1, r1
 8004648:	f803 1b01 	strb.w	r1, [r3], #1
 800464c:	192c      	adds	r4, r5, r4
 800464e:	43ed      	mvns	r5, r5
 8004650:	1962      	adds	r2, r4, r5
 8004652:	42a3      	cmp	r3, r4
 8004654:	f002 0501 	and.w	r5, r2, #1
 8004658:	d00b      	beq.n	8004672 <memset+0x122>
 800465a:	b11d      	cbz	r5, 8004664 <memset+0x114>
 800465c:	f803 1b01 	strb.w	r1, [r3], #1
 8004660:	42a3      	cmp	r3, r4
 8004662:	d006      	beq.n	8004672 <memset+0x122>
 8004664:	461a      	mov	r2, r3
 8004666:	f802 1b01 	strb.w	r1, [r2], #1
 800466a:	7059      	strb	r1, [r3, #1]
 800466c:	1c53      	adds	r3, r2, #1
 800466e:	42a3      	cmp	r3, r4
 8004670:	d1f8      	bne.n	8004664 <memset+0x114>
 8004672:	bcf0      	pop	{r4, r5, r6, r7}
 8004674:	4770      	bx	lr
 8004676:	4605      	mov	r5, r0
 8004678:	4614      	mov	r4, r2
 800467a:	e78d      	b.n	8004598 <memset+0x48>

0800467c <modff>:
 800467c:	ee10 3a10 	vmov	r3, s0
 8004680:	f3c3 51c7 	ubfx	r1, r3, #23, #8
 8004684:	397f      	subs	r1, #127	; 0x7f
 8004686:	2916      	cmp	r1, #22
 8004688:	b410      	push	{r4}
 800468a:	ee10 2a10 	vmov	r2, s0
 800468e:	dc13      	bgt.n	80046b8 <modff+0x3c>
 8004690:	2900      	cmp	r1, #0
 8004692:	db18      	blt.n	80046c6 <modff+0x4a>
 8004694:	f64f 74ff 	movw	r4, #65535	; 0xffff
 8004698:	f2c0 047f 	movt	r4, #127	; 0x7f
 800469c:	fa44 f101 	asr.w	r1, r4, r1
 80046a0:	4219      	tst	r1, r3
 80046a2:	d009      	beq.n	80046b8 <modff+0x3c>
 80046a4:	ea22 0201 	bic.w	r2, r2, r1
 80046a8:	ee07 2a90 	vmov	s15, r2
 80046ac:	ee30 0a67 	vsub.f32	s0, s0, s15
 80046b0:	6002      	str	r2, [r0, #0]
 80046b2:	ee10 3a10 	vmov	r3, s0
 80046b6:	e002      	b.n	80046be <modff+0x42>
 80046b8:	6003      	str	r3, [r0, #0]
 80046ba:	f002 4300 	and.w	r3, r2, #2147483648	; 0x80000000
 80046be:	ee00 3a10 	vmov	s0, r3
 80046c2:	bc10      	pop	{r4}
 80046c4:	4770      	bx	lr
 80046c6:	f003 4100 	and.w	r1, r3, #2147483648	; 0x80000000
 80046ca:	6001      	str	r1, [r0, #0]
 80046cc:	e7f7      	b.n	80046be <modff+0x42>
 80046ce:	bf00      	nop

080046d0 <_sprintf_r>:
 80046d0:	b40c      	push	{r2, r3}
 80046d2:	b5f0      	push	{r4, r5, r6, r7, lr}
 80046d4:	b09d      	sub	sp, #116	; 0x74
 80046d6:	ac22      	add	r4, sp, #136	; 0x88
 80046d8:	f06f 4500 	mvn.w	r5, #2147483648	; 0x80000000
 80046dc:	f854 2b04 	ldr.w	r2, [r4], #4
 80046e0:	9102      	str	r1, [sp, #8]
 80046e2:	460e      	mov	r6, r1
 80046e4:	4623      	mov	r3, r4
 80046e6:	9504      	str	r5, [sp, #16]
 80046e8:	9507      	str	r5, [sp, #28]
 80046ea:	a902      	add	r1, sp, #8
 80046ec:	f44f 7702 	mov.w	r7, #520	; 0x208
 80046f0:	f64f 75ff 	movw	r5, #65535	; 0xffff
 80046f4:	f8ad 7014 	strh.w	r7, [sp, #20]
 80046f8:	9606      	str	r6, [sp, #24]
 80046fa:	f8ad 5016 	strh.w	r5, [sp, #22]
 80046fe:	9401      	str	r4, [sp, #4]
 8004700:	f000 f946 	bl	8004990 <_svfprintf_r>
 8004704:	9b02      	ldr	r3, [sp, #8]
 8004706:	2200      	movs	r2, #0
 8004708:	701a      	strb	r2, [r3, #0]
 800470a:	b01d      	add	sp, #116	; 0x74
 800470c:	e8bd 40f0 	ldmia.w	sp!, {r4, r5, r6, r7, lr}
 8004710:	b002      	add	sp, #8
 8004712:	4770      	bx	lr

08004714 <sprintf>:
 8004714:	b40e      	push	{r1, r2, r3}
 8004716:	b570      	push	{r4, r5, r6, lr}
 8004718:	b09d      	sub	sp, #116	; 0x74
 800471a:	ac21      	add	r4, sp, #132	; 0x84
 800471c:	f240 4370 	movw	r3, #1136	; 0x470
 8004720:	f854 2b04 	ldr.w	r2, [r4], #4
 8004724:	f2c1 0300 	movt	r3, #4096	; 0x1000
 8004728:	f06f 4500 	mvn.w	r5, #2147483648	; 0x80000000
 800472c:	f44f 7102 	mov.w	r1, #520	; 0x208
 8004730:	4606      	mov	r6, r0
 8004732:	f8ad 1014 	strh.w	r1, [sp, #20]
 8004736:	9504      	str	r5, [sp, #16]
 8004738:	9507      	str	r5, [sp, #28]
 800473a:	6818      	ldr	r0, [r3, #0]
 800473c:	9602      	str	r6, [sp, #8]
 800473e:	4623      	mov	r3, r4
 8004740:	a902      	add	r1, sp, #8
 8004742:	f64f 75ff 	movw	r5, #65535	; 0xffff
 8004746:	9606      	str	r6, [sp, #24]
 8004748:	f8ad 5016 	strh.w	r5, [sp, #22]
 800474c:	9401      	str	r4, [sp, #4]
 800474e:	f000 f91f 	bl	8004990 <_svfprintf_r>
 8004752:	9b02      	ldr	r3, [sp, #8]
 8004754:	2200      	movs	r2, #0
 8004756:	701a      	strb	r2, [r3, #0]
 8004758:	b01d      	add	sp, #116	; 0x74
 800475a:	e8bd 4070 	ldmia.w	sp!, {r4, r5, r6, lr}
 800475e:	b003      	add	sp, #12
 8004760:	4770      	bx	lr
 8004762:	bf00      	nop

08004764 <strlen>:
 8004764:	f020 0103 	bic.w	r1, r0, #3
 8004768:	f010 0003 	ands.w	r0, r0, #3
 800476c:	f1c0 0000 	rsb	r0, r0, #0
 8004770:	f851 3b04 	ldr.w	r3, [r1], #4
 8004774:	f100 0c04 	add.w	ip, r0, #4
 8004778:	ea4f 0ccc 	mov.w	ip, ip, lsl #3
 800477c:	f06f 0200 	mvn.w	r2, #0
 8004780:	bf1c      	itt	ne
 8004782:	fa22 f20c 	lsrne.w	r2, r2, ip
 8004786:	4313      	orrne	r3, r2
 8004788:	f04f 0c01 	mov.w	ip, #1
 800478c:	ea4c 2c0c 	orr.w	ip, ip, ip, lsl #8
 8004790:	ea4c 4c0c 	orr.w	ip, ip, ip, lsl #16
 8004794:	eba3 020c 	sub.w	r2, r3, ip
 8004798:	ea22 0203 	bic.w	r2, r2, r3
 800479c:	ea12 12cc 	ands.w	r2, r2, ip, lsl #7
 80047a0:	bf04      	itt	eq
 80047a2:	f851 3b04 	ldreq.w	r3, [r1], #4
 80047a6:	3004      	addeq	r0, #4
 80047a8:	d0f4      	beq.n	8004794 <strlen+0x30>
 80047aa:	f013 0fff 	tst.w	r3, #255	; 0xff
 80047ae:	bf1f      	itttt	ne
 80047b0:	3001      	addne	r0, #1
 80047b2:	f413 4f7f 	tstne.w	r3, #65280	; 0xff00
 80047b6:	3001      	addne	r0, #1
 80047b8:	f413 0f7f 	tstne.w	r3, #16711680	; 0xff0000
 80047bc:	bf18      	it	ne
 80047be:	3001      	addne	r0, #1
 80047c0:	4770      	bx	lr
 80047c2:	bf00      	nop

080047c4 <strtok>:
 80047c4:	f240 4270 	movw	r2, #1136	; 0x470
 80047c8:	f2c1 0200 	movt	r2, #4096	; 0x1000
 80047cc:	2301      	movs	r3, #1
 80047ce:	6812      	ldr	r2, [r2, #0]
 80047d0:	325c      	adds	r2, #92	; 0x5c
 80047d2:	f000 b801 	b.w	80047d8 <__strtok_r>
 80047d6:	bf00      	nop

080047d8 <__strtok_r>:
 80047d8:	b4f0      	push	{r4, r5, r6, r7}
 80047da:	2800      	cmp	r0, #0
 80047dc:	d025      	beq.n	800482a <__strtok_r+0x52>
 80047de:	4607      	mov	r7, r0
 80047e0:	4638      	mov	r0, r7
 80047e2:	460d      	mov	r5, r1
 80047e4:	7806      	ldrb	r6, [r0, #0]
 80047e6:	3701      	adds	r7, #1
 80047e8:	f815 4b01 	ldrb.w	r4, [r5], #1
 80047ec:	b13c      	cbz	r4, 80047fe <__strtok_r+0x26>
 80047ee:	42a6      	cmp	r6, r4
 80047f0:	d1fa      	bne.n	80047e8 <__strtok_r+0x10>
 80047f2:	2b00      	cmp	r3, #0
 80047f4:	d1f4      	bne.n	80047e0 <__strtok_r+0x8>
 80047f6:	6017      	str	r7, [r2, #0]
 80047f8:	f807 3c01 	strb.w	r3, [r7, #-1]
 80047fc:	e011      	b.n	8004822 <__strtok_r+0x4a>
 80047fe:	b1c6      	cbz	r6, 8004832 <__strtok_r+0x5a>
 8004800:	463d      	mov	r5, r7
 8004802:	e000      	b.n	8004806 <__strtok_r+0x2e>
 8004804:	b91b      	cbnz	r3, 800480e <__strtok_r+0x36>
 8004806:	f815 6b01 	ldrb.w	r6, [r5], #1
 800480a:	460c      	mov	r4, r1
 800480c:	4628      	mov	r0, r5
 800480e:	f814 3b01 	ldrb.w	r3, [r4], #1
 8004812:	429e      	cmp	r6, r3
 8004814:	d1f6      	bne.n	8004804 <__strtok_r+0x2c>
 8004816:	b136      	cbz	r6, 8004826 <__strtok_r+0x4e>
 8004818:	2100      	movs	r1, #0
 800481a:	f805 1c01 	strb.w	r1, [r5, #-1]
 800481e:	6010      	str	r0, [r2, #0]
 8004820:	1e78      	subs	r0, r7, #1
 8004822:	bcf0      	pop	{r4, r5, r6, r7}
 8004824:	4770      	bx	lr
 8004826:	4630      	mov	r0, r6
 8004828:	e7f9      	b.n	800481e <__strtok_r+0x46>
 800482a:	6810      	ldr	r0, [r2, #0]
 800482c:	2800      	cmp	r0, #0
 800482e:	d1d6      	bne.n	80047de <__strtok_r+0x6>
 8004830:	e7f7      	b.n	8004822 <__strtok_r+0x4a>
 8004832:	6016      	str	r6, [r2, #0]
 8004834:	4630      	mov	r0, r6
 8004836:	e7f4      	b.n	8004822 <__strtok_r+0x4a>

08004838 <strtok_r>:
 8004838:	2301      	movs	r3, #1
 800483a:	f7ff bfcd 	b.w	80047d8 <__strtok_r>
 800483e:	bf00      	nop

08004840 <_strtol_r>:
 8004840:	e92d 0ff0 	stmdb	sp!, {r4, r5, r6, r7, r8, r9, sl, fp}
 8004844:	4c4a      	ldr	r4, [pc, #296]	; (8004970 <_strtol_r+0x130>)
 8004846:	b082      	sub	sp, #8
 8004848:	f8d4 c000 	ldr.w	ip, [r4]
 800484c:	9001      	str	r0, [sp, #4]
 800484e:	4608      	mov	r0, r1
 8004850:	4604      	mov	r4, r0
 8004852:	f814 5b01 	ldrb.w	r5, [r4], #1
 8004856:	eb0c 0605 	add.w	r6, ip, r5
 800485a:	4620      	mov	r0, r4
 800485c:	7877      	ldrb	r7, [r6, #1]
 800485e:	f007 0608 	and.w	r6, r7, #8
 8004862:	b2f7      	uxtb	r7, r6
 8004864:	2f00      	cmp	r7, #0
 8004866:	d1f3      	bne.n	8004850 <_strtol_r+0x10>
 8004868:	2d2d      	cmp	r5, #45	; 0x2d
 800486a:	d062      	beq.n	8004932 <_strtol_r+0xf2>
 800486c:	2d2b      	cmp	r5, #43	; 0x2b
 800486e:	bf03      	ittte	eq
 8004870:	4624      	moveq	r4, r4
 8004872:	46bb      	moveq	fp, r7
 8004874:	f814 5b01 	ldrbeq.w	r5, [r4], #1
 8004878:	46bb      	movne	fp, r7
 800487a:	2b00      	cmp	r3, #0
 800487c:	d141      	bne.n	8004902 <_strtol_r+0xc2>
 800487e:	2d30      	cmp	r5, #48	; 0x30
 8004880:	d043      	beq.n	800490a <_strtol_r+0xca>
 8004882:	230a      	movs	r3, #10
 8004884:	469a      	mov	sl, r3
 8004886:	f1bb 0f00 	cmp.w	fp, #0
 800488a:	bf0c      	ite	eq
 800488c:	f06f 4600 	mvneq.w	r6, #2147483648	; 0x80000000
 8004890:	f04f 4600 	movne.w	r6, #2147483648	; 0x80000000
 8004894:	fbb6 f9fa 	udiv	r9, r6, sl
 8004898:	2000      	movs	r0, #0
 800489a:	fb0a 6719 	mls	r7, sl, r9, r6
 800489e:	9700      	str	r7, [sp, #0]
 80048a0:	4680      	mov	r8, r0
 80048a2:	e00c      	b.n	80048be <_strtol_r+0x7e>
 80048a4:	3d30      	subs	r5, #48	; 0x30
 80048a6:	42ab      	cmp	r3, r5
 80048a8:	dd1b      	ble.n	80048e2 <_strtol_r+0xa2>
 80048aa:	1c46      	adds	r6, r0, #1
 80048ac:	d005      	beq.n	80048ba <_strtol_r+0x7a>
 80048ae:	45c8      	cmp	r8, r9
 80048b0:	d839      	bhi.n	8004926 <_strtol_r+0xe6>
 80048b2:	d035      	beq.n	8004920 <_strtol_r+0xe0>
 80048b4:	fb0a 5808 	mla	r8, sl, r8, r5
 80048b8:	2001      	movs	r0, #1
 80048ba:	f814 5b01 	ldrb.w	r5, [r4], #1
 80048be:	eb0c 0605 	add.w	r6, ip, r5
 80048c2:	7876      	ldrb	r6, [r6, #1]
 80048c4:	f006 0704 	and.w	r7, r6, #4
 80048c8:	b2ff      	uxtb	r7, r7
 80048ca:	2f00      	cmp	r7, #0
 80048cc:	d1ea      	bne.n	80048a4 <_strtol_r+0x64>
 80048ce:	f016 0603 	ands.w	r6, r6, #3
 80048d2:	d006      	beq.n	80048e2 <_strtol_r+0xa2>
 80048d4:	2e01      	cmp	r6, #1
 80048d6:	bf14      	ite	ne
 80048d8:	2657      	movne	r6, #87	; 0x57
 80048da:	2637      	moveq	r6, #55	; 0x37
 80048dc:	1bad      	subs	r5, r5, r6
 80048de:	42ab      	cmp	r3, r5
 80048e0:	dce3      	bgt.n	80048aa <_strtol_r+0x6a>
 80048e2:	1c43      	adds	r3, r0, #1
 80048e4:	d02a      	beq.n	800493c <_strtol_r+0xfc>
 80048e6:	f1bb 0f00 	cmp.w	fp, #0
 80048ea:	d001      	beq.n	80048f0 <_strtol_r+0xb0>
 80048ec:	f1c8 0800 	rsb	r8, r8, #0
 80048f0:	2a00      	cmp	r2, #0
 80048f2:	d031      	beq.n	8004958 <_strtol_r+0x118>
 80048f4:	b9d0      	cbnz	r0, 800492c <_strtol_r+0xec>
 80048f6:	4640      	mov	r0, r8
 80048f8:	6011      	str	r1, [r2, #0]
 80048fa:	b002      	add	sp, #8
 80048fc:	e8bd 0ff0 	ldmia.w	sp!, {r4, r5, r6, r7, r8, r9, sl, fp}
 8004900:	4770      	bx	lr
 8004902:	2b10      	cmp	r3, #16
 8004904:	d1be      	bne.n	8004884 <_strtol_r+0x44>
 8004906:	2d30      	cmp	r5, #48	; 0x30
 8004908:	d1bc      	bne.n	8004884 <_strtol_r+0x44>
 800490a:	7825      	ldrb	r5, [r4, #0]
 800490c:	2d78      	cmp	r5, #120	; 0x78
 800490e:	d025      	beq.n	800495c <_strtol_r+0x11c>
 8004910:	2d58      	cmp	r5, #88	; 0x58
 8004912:	d023      	beq.n	800495c <_strtol_r+0x11c>
 8004914:	bb43      	cbnz	r3, 8004968 <_strtol_r+0x128>
 8004916:	f04f 0a08 	mov.w	sl, #8
 800491a:	2530      	movs	r5, #48	; 0x30
 800491c:	4653      	mov	r3, sl
 800491e:	e7b2      	b.n	8004886 <_strtol_r+0x46>
 8004920:	9800      	ldr	r0, [sp, #0]
 8004922:	4285      	cmp	r5, r0
 8004924:	ddc6      	ble.n	80048b4 <_strtol_r+0x74>
 8004926:	f04f 30ff 	mov.w	r0, #4294967295
 800492a:	e7c6      	b.n	80048ba <_strtol_r+0x7a>
 800492c:	4640      	mov	r0, r8
 800492e:	1e61      	subs	r1, r4, #1
 8004930:	e7e2      	b.n	80048f8 <_strtol_r+0xb8>
 8004932:	f814 5b01 	ldrb.w	r5, [r4], #1
 8004936:	f04f 0b01 	mov.w	fp, #1
 800493a:	e79e      	b.n	800487a <_strtol_r+0x3a>
 800493c:	f1bb 0f00 	cmp.w	fp, #0
 8004940:	9901      	ldr	r1, [sp, #4]
 8004942:	bf0c      	ite	eq
 8004944:	f06f 4000 	mvneq.w	r0, #2147483648	; 0x80000000
 8004948:	f04f 4000 	movne.w	r0, #2147483648	; 0x80000000
 800494c:	2322      	movs	r3, #34	; 0x22
 800494e:	600b      	str	r3, [r1, #0]
 8004950:	2a00      	cmp	r2, #0
 8004952:	d0d2      	beq.n	80048fa <_strtol_r+0xba>
 8004954:	1e61      	subs	r1, r4, #1
 8004956:	e7cf      	b.n	80048f8 <_strtol_r+0xb8>
 8004958:	4640      	mov	r0, r8
 800495a:	e7ce      	b.n	80048fa <_strtol_r+0xba>
 800495c:	f04f 0a10 	mov.w	sl, #16
 8004960:	7865      	ldrb	r5, [r4, #1]
 8004962:	4653      	mov	r3, sl
 8004964:	3402      	adds	r4, #2
 8004966:	e78e      	b.n	8004886 <_strtol_r+0x46>
 8004968:	469a      	mov	sl, r3
 800496a:	2530      	movs	r5, #48	; 0x30
 800496c:	e78b      	b.n	8004886 <_strtol_r+0x46>
 800496e:	bf00      	nop
 8004970:	10000474 	.word	0x10000474

08004974 <strtol>:
 8004974:	b470      	push	{r4, r5, r6}
 8004976:	f240 4470 	movw	r4, #1136	; 0x470
 800497a:	f2c1 0400 	movt	r4, #4096	; 0x1000
 800497e:	4606      	mov	r6, r0
 8004980:	460d      	mov	r5, r1
 8004982:	6820      	ldr	r0, [r4, #0]
 8004984:	4613      	mov	r3, r2
 8004986:	4631      	mov	r1, r6
 8004988:	462a      	mov	r2, r5
 800498a:	bc70      	pop	{r4, r5, r6}
 800498c:	f7ff bf58 	b.w	8004840 <_strtol_r>

08004990 <_svfprintf_r>:
 8004990:	e92d 4ff0 	stmdb	sp!, {r4, r5, r6, r7, r8, r9, sl, fp, lr}
 8004994:	b0bf      	sub	sp, #252	; 0xfc
 8004996:	4614      	mov	r4, r2
 8004998:	9106      	str	r1, [sp, #24]
 800499a:	930c      	str	r3, [sp, #48]	; 0x30
 800499c:	9008      	str	r0, [sp, #32]
 800499e:	f003 f8db 	bl	8007b58 <_localeconv_r>
 80049a2:	6800      	ldr	r0, [r0, #0]
 80049a4:	900f      	str	r0, [sp, #60]	; 0x3c
 80049a6:	f7ff fedd 	bl	8004764 <strlen>
 80049aa:	9011      	str	r0, [sp, #68]	; 0x44
 80049ac:	9806      	ldr	r0, [sp, #24]
 80049ae:	8983      	ldrh	r3, [r0, #12]
 80049b0:	f003 0180 	and.w	r1, r3, #128	; 0x80
 80049b4:	b20a      	sxth	r2, r1
 80049b6:	2000      	movs	r0, #0
 80049b8:	2100      	movs	r1, #0
 80049ba:	e9cd 0112 	strd	r0, r1, [sp, #72]	; 0x48
 80049be:	b122      	cbz	r2, 80049ca <_svfprintf_r+0x3a>
 80049c0:	9806      	ldr	r0, [sp, #24]
 80049c2:	6903      	ldr	r3, [r0, #16]
 80049c4:	2b00      	cmp	r3, #0
 80049c6:	f001 82cc 	beq.w	8005f62 <_svfprintf_r+0x15d2>
 80049ca:	2000      	movs	r0, #0
 80049cc:	ab2e      	add	r3, sp, #184	; 0xb8
 80049ce:	f8df 9500 	ldr.w	r9, [pc, #1280]	; 8004ed0 <_svfprintf_r+0x540>
 80049d2:	900d      	str	r0, [sp, #52]	; 0x34
 80049d4:	9303      	str	r3, [sp, #12]
 80049d6:	9321      	str	r3, [sp, #132]	; 0x84
 80049d8:	9023      	str	r0, [sp, #140]	; 0x8c
 80049da:	9022      	str	r0, [sp, #136]	; 0x88
 80049dc:	46a2      	mov	sl, r4
 80049de:	9014      	str	r0, [sp, #80]	; 0x50
 80049e0:	9015      	str	r0, [sp, #84]	; 0x54
 80049e2:	900b      	str	r0, [sp, #44]	; 0x2c
 80049e4:	461e      	mov	r6, r3
 80049e6:	f89a 4000 	ldrb.w	r4, [sl]
 80049ea:	2c00      	cmp	r4, #0
 80049ec:	f000 819c 	beq.w	8004d28 <_svfprintf_r+0x398>
 80049f0:	2c25      	cmp	r4, #37	; 0x25
 80049f2:	f000 8199 	beq.w	8004d28 <_svfprintf_r+0x398>
 80049f6:	f10a 0501 	add.w	r5, sl, #1
 80049fa:	e001      	b.n	8004a00 <_svfprintf_r+0x70>
 80049fc:	2925      	cmp	r1, #37	; 0x25
 80049fe:	d004      	beq.n	8004a0a <_svfprintf_r+0x7a>
 8004a00:	462c      	mov	r4, r5
 8004a02:	3501      	adds	r5, #1
 8004a04:	7821      	ldrb	r1, [r4, #0]
 8004a06:	2900      	cmp	r1, #0
 8004a08:	d1f8      	bne.n	80049fc <_svfprintf_r+0x6c>
 8004a0a:	ebca 0504 	rsb	r5, sl, r4
 8004a0e:	b17d      	cbz	r5, 8004a30 <_svfprintf_r+0xa0>
 8004a10:	9b22      	ldr	r3, [sp, #136]	; 0x88
 8004a12:	9a23      	ldr	r2, [sp, #140]	; 0x8c
 8004a14:	f8c6 a000 	str.w	sl, [r6]
 8004a18:	1c59      	adds	r1, r3, #1
 8004a1a:	1950      	adds	r0, r2, r5
 8004a1c:	2907      	cmp	r1, #7
 8004a1e:	6075      	str	r5, [r6, #4]
 8004a20:	9023      	str	r0, [sp, #140]	; 0x8c
 8004a22:	9122      	str	r1, [sp, #136]	; 0x88
 8004a24:	f300 8164 	bgt.w	8004cf0 <_svfprintf_r+0x360>
 8004a28:	3608      	adds	r6, #8
 8004a2a:	9a0b      	ldr	r2, [sp, #44]	; 0x2c
 8004a2c:	1950      	adds	r0, r2, r5
 8004a2e:	900b      	str	r0, [sp, #44]	; 0x2c
 8004a30:	7823      	ldrb	r3, [r4, #0]
 8004a32:	2b00      	cmp	r3, #0
 8004a34:	f000 8164 	beq.w	8004d00 <_svfprintf_r+0x370>
 8004a38:	2200      	movs	r2, #0
 8004a3a:	f04f 31ff 	mov.w	r1, #4294967295
 8004a3e:	f894 8001 	ldrb.w	r8, [r4, #1]
 8004a42:	9105      	str	r1, [sp, #20]
 8004a44:	9209      	str	r2, [sp, #36]	; 0x24
 8004a46:	f104 0a01 	add.w	sl, r4, #1
 8004a4a:	f88d 2063 	strb.w	r2, [sp, #99]	; 0x63
 8004a4e:	9204      	str	r2, [sp, #16]
 8004a50:	2020      	movs	r0, #32
 8004a52:	212b      	movs	r1, #43	; 0x2b
 8004a54:	f10a 0a01 	add.w	sl, sl, #1
 8004a58:	f1a8 0320 	sub.w	r3, r8, #32
 8004a5c:	2b58      	cmp	r3, #88	; 0x58
 8004a5e:	f200 82bb 	bhi.w	8004fd8 <_svfprintf_r+0x648>
 8004a62:	e8df f013 	tbh	[pc, r3, lsl #1]
 8004a66:	01fd      	.short	0x01fd
 8004a68:	02b902b9 	.word	0x02b902b9
 8004a6c:	02b90207 	.word	0x02b90207
 8004a70:	02b902b9 	.word	0x02b902b9
 8004a74:	02b902b9 	.word	0x02b902b9
 8004a78:	01b302b9 	.word	0x01b302b9
 8004a7c:	02b90250 	.word	0x02b90250
 8004a80:	020e013e 	.word	0x020e013e
 8004a84:	02c702b9 	.word	0x02c702b9
 8004a88:	02ce02ce 	.word	0x02ce02ce
 8004a8c:	02ce02ce 	.word	0x02ce02ce
 8004a90:	02ce02ce 	.word	0x02ce02ce
 8004a94:	02ce02ce 	.word	0x02ce02ce
 8004a98:	02b902ce 	.word	0x02b902ce
 8004a9c:	02b902b9 	.word	0x02b902b9
 8004aa0:	02b902b9 	.word	0x02b902b9
 8004aa4:	02b902b9 	.word	0x02b902b9
 8004aa8:	02b902b9 	.word	0x02b902b9
 8004aac:	008402b9 	.word	0x008402b9
 8004ab0:	02b90180 	.word	0x02b90180
 8004ab4:	02b90180 	.word	0x02b90180
 8004ab8:	02b902b9 	.word	0x02b902b9
 8004abc:	024902b9 	.word	0x024902b9
 8004ac0:	02b902b9 	.word	0x02b902b9
 8004ac4:	02b9006d 	.word	0x02b9006d
 8004ac8:	02b902b9 	.word	0x02b902b9
 8004acc:	02b902b9 	.word	0x02b902b9
 8004ad0:	02b90059 	.word	0x02b90059
 8004ad4:	01df02b9 	.word	0x01df02b9
 8004ad8:	02b902b9 	.word	0x02b902b9
 8004adc:	02b902b9 	.word	0x02b902b9
 8004ae0:	02b902b9 	.word	0x02b902b9
 8004ae4:	02b902b9 	.word	0x02b902b9
 8004ae8:	02b902b9 	.word	0x02b902b9
 8004aec:	00880237 	.word	0x00880237
 8004af0:	01800180 	.word	0x01800180
 8004af4:	02890180 	.word	0x02890180
 8004af8:	02b90088 	.word	0x02b90088
 8004afc:	02ad02b9 	.word	0x02ad02b9
 8004b00:	025502b9 	.word	0x025502b9
 8004b04:	02900071 	.word	0x02900071
 8004b08:	02b902a6 	.word	0x02b902a6
 8004b0c:	02b90263 	.word	0x02b90263
 8004b10:	02b9005d 	.word	0x02b9005d
 8004b14:	01bf02b9 	.word	0x01bf02b9
 8004b18:	9d04      	ldr	r5, [sp, #16]
 8004b1a:	f045 0410 	orr.w	r4, r5, #16
 8004b1e:	9404      	str	r4, [sp, #16]
 8004b20:	9b04      	ldr	r3, [sp, #16]
 8004b22:	069d      	lsls	r5, r3, #26
 8004b24:	f100 8191 	bmi.w	8004e4a <_svfprintf_r+0x4ba>
 8004b28:	9904      	ldr	r1, [sp, #16]
 8004b2a:	06cc      	lsls	r4, r1, #27
 8004b2c:	f141 8098 	bpl.w	8005c60 <_svfprintf_r+0x12d0>
 8004b30:	9a0c      	ldr	r2, [sp, #48]	; 0x30
 8004b32:	6815      	ldr	r5, [r2, #0]
 8004b34:	1d17      	adds	r7, r2, #4
 8004b36:	462c      	mov	r4, r5
 8004b38:	970c      	str	r7, [sp, #48]	; 0x30
 8004b3a:	2500      	movs	r5, #0
 8004b3c:	2301      	movs	r3, #1
 8004b3e:	e012      	b.n	8004b66 <_svfprintf_r+0x1d6>
 8004b40:	9a04      	ldr	r2, [sp, #16]
 8004b42:	f042 0510 	orr.w	r5, r2, #16
 8004b46:	9504      	str	r5, [sp, #16]
 8004b48:	9f04      	ldr	r7, [sp, #16]
 8004b4a:	f017 0320 	ands.w	r3, r7, #32
 8004b4e:	f040 80ff 	bne.w	8004d50 <_svfprintf_r+0x3c0>
 8004b52:	9c04      	ldr	r4, [sp, #16]
 8004b54:	f014 0010 	ands.w	r0, r4, #16
 8004b58:	f001 8074 	beq.w	8005c44 <_svfprintf_r+0x12b4>
 8004b5c:	9f0c      	ldr	r7, [sp, #48]	; 0x30
 8004b5e:	1d3a      	adds	r2, r7, #4
 8004b60:	683c      	ldr	r4, [r7, #0]
 8004b62:	920c      	str	r2, [sp, #48]	; 0x30
 8004b64:	2500      	movs	r5, #0
 8004b66:	2700      	movs	r7, #0
 8004b68:	f88d 7063 	strb.w	r7, [sp, #99]	; 0x63
 8004b6c:	e017      	b.n	8004b9e <_svfprintf_r+0x20e>
 8004b6e:	9d04      	ldr	r5, [sp, #16]
 8004b70:	f045 0310 	orr.w	r3, r5, #16
 8004b74:	9304      	str	r3, [sp, #16]
 8004b76:	9f04      	ldr	r7, [sp, #16]
 8004b78:	06bf      	lsls	r7, r7, #26
 8004b7a:	f140 80d7 	bpl.w	8004d2c <_svfprintf_r+0x39c>
 8004b7e:	9d0c      	ldr	r5, [sp, #48]	; 0x30
 8004b80:	1deb      	adds	r3, r5, #7
 8004b82:	f023 0007 	bic.w	r0, r3, #7
 8004b86:	e9d0 2300 	ldrd	r2, r3, [r0]
 8004b8a:	3008      	adds	r0, #8
 8004b8c:	900c      	str	r0, [sp, #48]	; 0x30
 8004b8e:	4614      	mov	r4, r2
 8004b90:	461d      	mov	r5, r3
 8004b92:	2a00      	cmp	r2, #0
 8004b94:	f173 0000 	sbcs.w	r0, r3, #0
 8004b98:	f2c0 8735 	blt.w	8005a06 <_svfprintf_r+0x1076>
 8004b9c:	2301      	movs	r3, #1
 8004b9e:	9905      	ldr	r1, [sp, #20]
 8004ba0:	2900      	cmp	r1, #0
 8004ba2:	db03      	blt.n	8004bac <_svfprintf_r+0x21c>
 8004ba4:	9f04      	ldr	r7, [sp, #16]
 8004ba6:	f027 0080 	bic.w	r0, r7, #128	; 0x80
 8004baa:	9004      	str	r0, [sp, #16]
 8004bac:	ea54 0205 	orrs.w	r2, r4, r5
 8004bb0:	f040 83f3 	bne.w	800539a <_svfprintf_r+0xa0a>
 8004bb4:	9a05      	ldr	r2, [sp, #20]
 8004bb6:	2a00      	cmp	r2, #0
 8004bb8:	f040 83ef 	bne.w	800539a <_svfprintf_r+0xa0a>
 8004bbc:	2b00      	cmp	r3, #0
 8004bbe:	f040 8659 	bne.w	8005874 <_svfprintf_r+0xee4>
 8004bc2:	9b04      	ldr	r3, [sp, #16]
 8004bc4:	07d9      	lsls	r1, r3, #31
 8004bc6:	f141 800e 	bpl.w	8005be6 <_svfprintf_r+0x1256>
 8004bca:	af3e      	add	r7, sp, #248	; 0xf8
 8004bcc:	2030      	movs	r0, #48	; 0x30
 8004bce:	f807 0d41 	strb.w	r0, [r7, #-65]!
 8004bd2:	9a03      	ldr	r2, [sp, #12]
 8004bd4:	1bd4      	subs	r4, r2, r7
 8004bd6:	940a      	str	r4, [sp, #40]	; 0x28
 8004bd8:	9c05      	ldr	r4, [sp, #20]
 8004bda:	980a      	ldr	r0, [sp, #40]	; 0x28
 8004bdc:	f89d 3063 	ldrb.w	r3, [sp, #99]	; 0x63
 8004be0:	940e      	str	r4, [sp, #56]	; 0x38
 8004be2:	42a0      	cmp	r0, r4
 8004be4:	bfb8      	it	lt
 8004be6:	4620      	movlt	r0, r4
 8004be8:	2200      	movs	r2, #0
 8004bea:	9007      	str	r0, [sp, #28]
 8004bec:	9210      	str	r2, [sp, #64]	; 0x40
 8004bee:	b113      	cbz	r3, 8004bf6 <_svfprintf_r+0x266>
 8004bf0:	9b07      	ldr	r3, [sp, #28]
 8004bf2:	1c59      	adds	r1, r3, #1
 8004bf4:	9107      	str	r1, [sp, #28]
 8004bf6:	9b04      	ldr	r3, [sp, #16]
 8004bf8:	f013 0002 	ands.w	r0, r3, #2
 8004bfc:	9005      	str	r0, [sp, #20]
 8004bfe:	d002      	beq.n	8004c06 <_svfprintf_r+0x276>
 8004c00:	9907      	ldr	r1, [sp, #28]
 8004c02:	1c8c      	adds	r4, r1, #2
 8004c04:	9407      	str	r4, [sp, #28]
 8004c06:	9a04      	ldr	r2, [sp, #16]
 8004c08:	f012 0b84 	ands.w	fp, r2, #132	; 0x84
 8004c0c:	f040 822a 	bne.w	8005064 <_svfprintf_r+0x6d4>
 8004c10:	9d09      	ldr	r5, [sp, #36]	; 0x24
 8004c12:	9b07      	ldr	r3, [sp, #28]
 8004c14:	1aed      	subs	r5, r5, r3
 8004c16:	2d00      	cmp	r5, #0
 8004c18:	f340 8224 	ble.w	8005064 <_svfprintf_r+0x6d4>
 8004c1c:	2d10      	cmp	r5, #16
 8004c1e:	f341 820e 	ble.w	800603e <_svfprintf_r+0x16ae>
 8004c22:	9a23      	ldr	r2, [sp, #140]	; 0x8c
 8004c24:	9b22      	ldr	r3, [sp, #136]	; 0x88
 8004c26:	49a5      	ldr	r1, [pc, #660]	; (8004ebc <_svfprintf_r+0x52c>)
 8004c28:	2410      	movs	r4, #16
 8004c2a:	6031      	str	r1, [r6, #0]
 8004c2c:	9116      	str	r1, [sp, #88]	; 0x58
 8004c2e:	1911      	adds	r1, r2, r4
 8004c30:	1c5a      	adds	r2, r3, #1
 8004c32:	f1a5 0e11 	sub.w	lr, r5, #17
 8004c36:	2a07      	cmp	r2, #7
 8004c38:	6074      	str	r4, [r6, #4]
 8004c3a:	f3ce 1300 	ubfx	r3, lr, #4, #1
 8004c3e:	9123      	str	r1, [sp, #140]	; 0x8c
 8004c40:	9222      	str	r2, [sp, #136]	; 0x88
 8004c42:	f300 8572 	bgt.w	800572a <_svfprintf_r+0xd9a>
 8004c46:	3608      	adds	r6, #8
 8004c48:	3d10      	subs	r5, #16
 8004c4a:	2d10      	cmp	r5, #16
 8004c4c:	f340 81fe 	ble.w	800504c <_svfprintf_r+0x6bc>
 8004c50:	b18b      	cbz	r3, 8004c76 <_svfprintf_r+0x2e6>
 8004c52:	3201      	adds	r2, #1
 8004c54:	f24e 03c0 	movw	r3, #57536	; 0xe0c0
 8004c58:	3110      	adds	r1, #16
 8004c5a:	f6c0 0300 	movt	r3, #2048	; 0x800
 8004c5e:	2a07      	cmp	r2, #7
 8004c60:	e886 0018 	stmia.w	r6, {r3, r4}
 8004c64:	9123      	str	r1, [sp, #140]	; 0x8c
 8004c66:	9222      	str	r2, [sp, #136]	; 0x88
 8004c68:	f300 856e 	bgt.w	8005748 <_svfprintf_r+0xdb8>
 8004c6c:	3608      	adds	r6, #8
 8004c6e:	3d10      	subs	r5, #16
 8004c70:	2d10      	cmp	r5, #16
 8004c72:	f340 81eb 	ble.w	800504c <_svfprintf_r+0x6bc>
 8004c76:	4633      	mov	r3, r6
 8004c78:	f8cd b05c 	str.w	fp, [sp, #92]	; 0x5c
 8004c7c:	462e      	mov	r6, r5
 8004c7e:	46bb      	mov	fp, r7
 8004c80:	9d06      	ldr	r5, [sp, #24]
 8004c82:	9f08      	ldr	r7, [sp, #32]
 8004c84:	e013      	b.n	8004cae <_svfprintf_r+0x31e>
 8004c86:	3308      	adds	r3, #8
 8004c88:	3201      	adds	r2, #1
 8004c8a:	f24e 00c0 	movw	r0, #57536	; 0xe0c0
 8004c8e:	3110      	adds	r1, #16
 8004c90:	f6c0 0000 	movt	r0, #2048	; 0x800
 8004c94:	3e10      	subs	r6, #16
 8004c96:	2a07      	cmp	r2, #7
 8004c98:	e883 0011 	stmia.w	r3, {r0, r4}
 8004c9c:	9123      	str	r1, [sp, #140]	; 0x8c
 8004c9e:	9222      	str	r2, [sp, #136]	; 0x88
 8004ca0:	f300 81c0 	bgt.w	8005024 <_svfprintf_r+0x694>
 8004ca4:	3e10      	subs	r6, #16
 8004ca6:	3308      	adds	r3, #8
 8004ca8:	2e10      	cmp	r6, #16
 8004caa:	f340 81ca 	ble.w	8005042 <_svfprintf_r+0x6b2>
 8004cae:	3201      	adds	r2, #1
 8004cb0:	f24e 00c0 	movw	r0, #57536	; 0xe0c0
 8004cb4:	3110      	adds	r1, #16
 8004cb6:	f6c0 0000 	movt	r0, #2048	; 0x800
 8004cba:	2a07      	cmp	r2, #7
 8004cbc:	e883 0011 	stmia.w	r3, {r0, r4}
 8004cc0:	9123      	str	r1, [sp, #140]	; 0x8c
 8004cc2:	9222      	str	r2, [sp, #136]	; 0x88
 8004cc4:	dddf      	ble.n	8004c86 <_svfprintf_r+0x2f6>
 8004cc6:	4638      	mov	r0, r7
 8004cc8:	4629      	mov	r1, r5
 8004cca:	aa21      	add	r2, sp, #132	; 0x84
 8004ccc:	f004 fb08 	bl	80092e0 <__ssprint_r>
 8004cd0:	b9e8      	cbnz	r0, 8004d0e <_svfprintf_r+0x37e>
 8004cd2:	9923      	ldr	r1, [sp, #140]	; 0x8c
 8004cd4:	9a22      	ldr	r2, [sp, #136]	; 0x88
 8004cd6:	ab2e      	add	r3, sp, #184	; 0xb8
 8004cd8:	e7d6      	b.n	8004c88 <_svfprintf_r+0x2f8>
 8004cda:	9a09      	ldr	r2, [sp, #36]	; 0x24
 8004cdc:	930c      	str	r3, [sp, #48]	; 0x30
 8004cde:	4252      	negs	r2, r2
 8004ce0:	9209      	str	r2, [sp, #36]	; 0x24
 8004ce2:	9b04      	ldr	r3, [sp, #16]
 8004ce4:	f043 0204 	orr.w	r2, r3, #4
 8004ce8:	9204      	str	r2, [sp, #16]
 8004cea:	f89a 8000 	ldrb.w	r8, [sl]
 8004cee:	e6b1      	b.n	8004a54 <_svfprintf_r+0xc4>
 8004cf0:	9808      	ldr	r0, [sp, #32]
 8004cf2:	9906      	ldr	r1, [sp, #24]
 8004cf4:	aa21      	add	r2, sp, #132	; 0x84
 8004cf6:	f004 faf3 	bl	80092e0 <__ssprint_r>
 8004cfa:	b940      	cbnz	r0, 8004d0e <_svfprintf_r+0x37e>
 8004cfc:	ae2e      	add	r6, sp, #184	; 0xb8
 8004cfe:	e694      	b.n	8004a2a <_svfprintf_r+0x9a>
 8004d00:	9b23      	ldr	r3, [sp, #140]	; 0x8c
 8004d02:	b123      	cbz	r3, 8004d0e <_svfprintf_r+0x37e>
 8004d04:	9808      	ldr	r0, [sp, #32]
 8004d06:	9906      	ldr	r1, [sp, #24]
 8004d08:	aa21      	add	r2, sp, #132	; 0x84
 8004d0a:	f004 fae9 	bl	80092e0 <__ssprint_r>
 8004d0e:	9806      	ldr	r0, [sp, #24]
 8004d10:	8981      	ldrh	r1, [r0, #12]
 8004d12:	980b      	ldr	r0, [sp, #44]	; 0x2c
 8004d14:	f001 0240 	and.w	r2, r1, #64	; 0x40
 8004d18:	b213      	sxth	r3, r2
 8004d1a:	2b00      	cmp	r3, #0
 8004d1c:	bf18      	it	ne
 8004d1e:	f04f 30ff 	movne.w	r0, #4294967295
 8004d22:	b03f      	add	sp, #252	; 0xfc
 8004d24:	e8bd 8ff0 	ldmia.w	sp!, {r4, r5, r6, r7, r8, r9, sl, fp, pc}
 8004d28:	4654      	mov	r4, sl
 8004d2a:	e681      	b.n	8004a30 <_svfprintf_r+0xa0>
 8004d2c:	9804      	ldr	r0, [sp, #16]
 8004d2e:	06c5      	lsls	r5, r0, #27
 8004d30:	f100 865d 	bmi.w	80059ee <_svfprintf_r+0x105e>
 8004d34:	9904      	ldr	r1, [sp, #16]
 8004d36:	064c      	lsls	r4, r1, #25
 8004d38:	f140 8659 	bpl.w	80059ee <_svfprintf_r+0x105e>
 8004d3c:	9a0c      	ldr	r2, [sp, #48]	; 0x30
 8004d3e:	9f0c      	ldr	r7, [sp, #48]	; 0x30
 8004d40:	f9b2 4000 	ldrsh.w	r4, [r2]
 8004d44:	1d38      	adds	r0, r7, #4
 8004d46:	17e5      	asrs	r5, r4, #31
 8004d48:	4622      	mov	r2, r4
 8004d4a:	462b      	mov	r3, r5
 8004d4c:	900c      	str	r0, [sp, #48]	; 0x30
 8004d4e:	e720      	b.n	8004b92 <_svfprintf_r+0x202>
 8004d50:	9b0c      	ldr	r3, [sp, #48]	; 0x30
 8004d52:	1ddd      	adds	r5, r3, #7
 8004d54:	f025 0107 	bic.w	r1, r5, #7
 8004d58:	f101 0008 	add.w	r0, r1, #8
 8004d5c:	900c      	str	r0, [sp, #48]	; 0x30
 8004d5e:	e9d1 4500 	ldrd	r4, r5, [r1]
 8004d62:	2300      	movs	r3, #0
 8004d64:	e6ff      	b.n	8004b66 <_svfprintf_r+0x1d6>
 8004d66:	9c0c      	ldr	r4, [sp, #48]	; 0x30
 8004d68:	1de5      	adds	r5, r4, #7
 8004d6a:	f025 0107 	bic.w	r1, r5, #7
 8004d6e:	f101 0008 	add.w	r0, r1, #8
 8004d72:	900c      	str	r0, [sp, #48]	; 0x30
 8004d74:	680d      	ldr	r5, [r1, #0]
 8004d76:	684c      	ldr	r4, [r1, #4]
 8004d78:	462a      	mov	r2, r5
 8004d7a:	4623      	mov	r3, r4
 8004d7c:	4628      	mov	r0, r5
 8004d7e:	4621      	mov	r1, r4
 8004d80:	ec43 2b10 	vmov	d0, r2, r3
 8004d84:	e9cd 0112 	strd	r0, r1, [sp, #72]	; 0x48
 8004d88:	f004 f972 	bl	8009070 <__fpclassifyd>
 8004d8c:	2801      	cmp	r0, #1
 8004d8e:	f040 873b 	bne.w	8005c08 <_svfprintf_r+0x1278>
 8004d92:	4628      	mov	r0, r5
 8004d94:	4621      	mov	r1, r4
 8004d96:	2200      	movs	r2, #0
 8004d98:	2300      	movs	r3, #0
 8004d9a:	f7fd fc67 	bl	800266c <__aeabi_dcmplt>
 8004d9e:	2800      	cmp	r0, #0
 8004da0:	f041 824a 	bne.w	8006238 <_svfprintf_r+0x18a8>
 8004da4:	f89d 3063 	ldrb.w	r3, [sp, #99]	; 0x63
 8004da8:	2700      	movs	r7, #0
 8004daa:	9904      	ldr	r1, [sp, #16]
 8004dac:	970e      	str	r7, [sp, #56]	; 0x38
 8004dae:	2403      	movs	r4, #3
 8004db0:	4843      	ldr	r0, [pc, #268]	; (8004ec0 <_svfprintf_r+0x530>)
 8004db2:	4f44      	ldr	r7, [pc, #272]	; (8004ec4 <_svfprintf_r+0x534>)
 8004db4:	9407      	str	r4, [sp, #28]
 8004db6:	f021 0280 	bic.w	r2, r1, #128	; 0x80
 8004dba:	940a      	str	r4, [sp, #40]	; 0x28
 8004dbc:	2400      	movs	r4, #0
 8004dbe:	f1b8 0f47 	cmp.w	r8, #71	; 0x47
 8004dc2:	bfd8      	it	le
 8004dc4:	4607      	movle	r7, r0
 8004dc6:	9204      	str	r2, [sp, #16]
 8004dc8:	9410      	str	r4, [sp, #64]	; 0x40
 8004dca:	e710      	b.n	8004bee <_svfprintf_r+0x25e>
 8004dcc:	9a0c      	ldr	r2, [sp, #48]	; 0x30
 8004dce:	9b0c      	ldr	r3, [sp, #48]	; 0x30
 8004dd0:	6812      	ldr	r2, [r2, #0]
 8004dd2:	3304      	adds	r3, #4
 8004dd4:	2a00      	cmp	r2, #0
 8004dd6:	9209      	str	r2, [sp, #36]	; 0x24
 8004dd8:	f6ff af7f 	blt.w	8004cda <_svfprintf_r+0x34a>
 8004ddc:	f89a 8000 	ldrb.w	r8, [sl]
 8004de0:	930c      	str	r3, [sp, #48]	; 0x30
 8004de2:	e637      	b.n	8004a54 <_svfprintf_r+0xc4>
 8004de4:	4f38      	ldr	r7, [pc, #224]	; (8004ec8 <_svfprintf_r+0x538>)
 8004de6:	9714      	str	r7, [sp, #80]	; 0x50
 8004de8:	9f04      	ldr	r7, [sp, #16]
 8004dea:	06b9      	lsls	r1, r7, #26
 8004dec:	d51f      	bpl.n	8004e2e <_svfprintf_r+0x49e>
 8004dee:	9c0c      	ldr	r4, [sp, #48]	; 0x30
 8004df0:	1de0      	adds	r0, r4, #7
 8004df2:	f020 0307 	bic.w	r3, r0, #7
 8004df6:	e9d3 4500 	ldrd	r4, r5, [r3]
 8004dfa:	f103 0108 	add.w	r1, r3, #8
 8004dfe:	910c      	str	r1, [sp, #48]	; 0x30
 8004e00:	9804      	ldr	r0, [sp, #16]
 8004e02:	07c7      	lsls	r7, r0, #31
 8004e04:	f140 8482 	bpl.w	800570c <_svfprintf_r+0xd7c>
 8004e08:	ea54 0205 	orrs.w	r2, r4, r5
 8004e0c:	f000 847e 	beq.w	800570c <_svfprintf_r+0xd7c>
 8004e10:	2230      	movs	r2, #48	; 0x30
 8004e12:	f040 0702 	orr.w	r7, r0, #2
 8004e16:	f88d 2064 	strb.w	r2, [sp, #100]	; 0x64
 8004e1a:	f88d 8065 	strb.w	r8, [sp, #101]	; 0x65
 8004e1e:	9704      	str	r7, [sp, #16]
 8004e20:	2302      	movs	r3, #2
 8004e22:	e6a0      	b.n	8004b66 <_svfprintf_r+0x1d6>
 8004e24:	9f04      	ldr	r7, [sp, #16]
 8004e26:	4d29      	ldr	r5, [pc, #164]	; (8004ecc <_svfprintf_r+0x53c>)
 8004e28:	06b9      	lsls	r1, r7, #26
 8004e2a:	9514      	str	r5, [sp, #80]	; 0x50
 8004e2c:	d4df      	bmi.n	8004dee <_svfprintf_r+0x45e>
 8004e2e:	9c04      	ldr	r4, [sp, #16]
 8004e30:	06e2      	lsls	r2, r4, #27
 8004e32:	f100 85f1 	bmi.w	8005a18 <_svfprintf_r+0x1088>
 8004e36:	9804      	ldr	r0, [sp, #16]
 8004e38:	0643      	lsls	r3, r0, #25
 8004e3a:	f140 85ed 	bpl.w	8005a18 <_svfprintf_r+0x1088>
 8004e3e:	9b0c      	ldr	r3, [sp, #48]	; 0x30
 8004e40:	1d19      	adds	r1, r3, #4
 8004e42:	881c      	ldrh	r4, [r3, #0]
 8004e44:	910c      	str	r1, [sp, #48]	; 0x30
 8004e46:	2500      	movs	r5, #0
 8004e48:	e7da      	b.n	8004e00 <_svfprintf_r+0x470>
 8004e4a:	9c0c      	ldr	r4, [sp, #48]	; 0x30
 8004e4c:	1de3      	adds	r3, r4, #7
 8004e4e:	f023 0107 	bic.w	r1, r3, #7
 8004e52:	f101 0008 	add.w	r0, r1, #8
 8004e56:	900c      	str	r0, [sp, #48]	; 0x30
 8004e58:	e9d1 4500 	ldrd	r4, r5, [r1]
 8004e5c:	2301      	movs	r3, #1
 8004e5e:	e682      	b.n	8004b66 <_svfprintf_r+0x1d6>
 8004e60:	f89d 3063 	ldrb.w	r3, [sp, #99]	; 0x63
 8004e64:	2b00      	cmp	r3, #0
 8004e66:	f040 8707 	bne.w	8005c78 <_svfprintf_r+0x12e8>
 8004e6a:	f88d 0063 	strb.w	r0, [sp, #99]	; 0x63
 8004e6e:	f89a 8000 	ldrb.w	r8, [sl]
 8004e72:	e5ef      	b.n	8004a54 <_svfprintf_r+0xc4>
 8004e74:	9b04      	ldr	r3, [sp, #16]
 8004e76:	f043 0201 	orr.w	r2, r3, #1
 8004e7a:	9204      	str	r2, [sp, #16]
 8004e7c:	f89a 8000 	ldrb.w	r8, [sl]
 8004e80:	e5e8      	b.n	8004a54 <_svfprintf_r+0xc4>
 8004e82:	4654      	mov	r4, sl
 8004e84:	f814 8b01 	ldrb.w	r8, [r4], #1
 8004e88:	f1b8 0f2a 	cmp.w	r8, #42	; 0x2a
 8004e8c:	f001 82d2 	beq.w	8006434 <_svfprintf_r+0x1aa4>
 8004e90:	f1a8 0330 	sub.w	r3, r8, #48	; 0x30
 8004e94:	2200      	movs	r2, #0
 8004e96:	2b09      	cmp	r3, #9
 8004e98:	f201 81ff 	bhi.w	800629a <_svfprintf_r+0x190a>
 8004e9c:	f814 8b01 	ldrb.w	r8, [r4], #1
 8004ea0:	eb02 0282 	add.w	r2, r2, r2, lsl #2
 8004ea4:	eb03 0242 	add.w	r2, r3, r2, lsl #1
 8004ea8:	f1a8 0330 	sub.w	r3, r8, #48	; 0x30
 8004eac:	2b09      	cmp	r3, #9
 8004eae:	46a2      	mov	sl, r4
 8004eb0:	d9f4      	bls.n	8004e9c <_svfprintf_r+0x50c>
 8004eb2:	ea42 72e2 	orr.w	r2, r2, r2, asr #31
 8004eb6:	9205      	str	r2, [sp, #20]
 8004eb8:	e5ce      	b.n	8004a58 <_svfprintf_r+0xc8>
 8004eba:	bf00      	nop
 8004ebc:	0800e0c0 	.word	0x0800e0c0
 8004ec0:	0800e06c 	.word	0x0800e06c
 8004ec4:	0800e070 	.word	0x0800e070
 8004ec8:	0800e090 	.word	0x0800e090
 8004ecc:	0800e07c 	.word	0x0800e07c
 8004ed0:	0800e0b0 	.word	0x0800e0b0
 8004ed4:	9f0c      	ldr	r7, [sp, #48]	; 0x30
 8004ed6:	990c      	ldr	r1, [sp, #48]	; 0x30
 8004ed8:	683c      	ldr	r4, [r7, #0]
 8004eda:	2301      	movs	r3, #1
 8004edc:	2000      	movs	r0, #0
 8004ede:	1d0a      	adds	r2, r1, #4
 8004ee0:	f88d 0063 	strb.w	r0, [sp, #99]	; 0x63
 8004ee4:	9307      	str	r3, [sp, #28]
 8004ee6:	920c      	str	r2, [sp, #48]	; 0x30
 8004ee8:	f88d 4090 	strb.w	r4, [sp, #144]	; 0x90
 8004eec:	930a      	str	r3, [sp, #40]	; 0x28
 8004eee:	af24      	add	r7, sp, #144	; 0x90
 8004ef0:	2200      	movs	r2, #0
 8004ef2:	920e      	str	r2, [sp, #56]	; 0x38
 8004ef4:	9210      	str	r2, [sp, #64]	; 0x40
 8004ef6:	e67e      	b.n	8004bf6 <_svfprintf_r+0x266>
 8004ef8:	9a04      	ldr	r2, [sp, #16]
 8004efa:	f042 0308 	orr.w	r3, r2, #8
 8004efe:	9304      	str	r3, [sp, #16]
 8004f00:	f89a 8000 	ldrb.w	r8, [sl]
 8004f04:	e5a6      	b.n	8004a54 <_svfprintf_r+0xc4>
 8004f06:	f88d 1063 	strb.w	r1, [sp, #99]	; 0x63
 8004f0a:	f89a 8000 	ldrb.w	r8, [sl]
 8004f0e:	e5a1      	b.n	8004a54 <_svfprintf_r+0xc4>
 8004f10:	9c04      	ldr	r4, [sp, #16]
 8004f12:	06a1      	lsls	r1, r4, #26
 8004f14:	f140 86b4 	bpl.w	8005c80 <_svfprintf_r+0x12f0>
 8004f18:	990c      	ldr	r1, [sp, #48]	; 0x30
 8004f1a:	9a0b      	ldr	r2, [sp, #44]	; 0x2c
 8004f1c:	980c      	ldr	r0, [sp, #48]	; 0x30
 8004f1e:	680b      	ldr	r3, [r1, #0]
 8004f20:	17d4      	asrs	r4, r2, #31
 8004f22:	1d01      	adds	r1, r0, #4
 8004f24:	601a      	str	r2, [r3, #0]
 8004f26:	605c      	str	r4, [r3, #4]
 8004f28:	910c      	str	r1, [sp, #48]	; 0x30
 8004f2a:	e55c      	b.n	80049e6 <_svfprintf_r+0x56>
 8004f2c:	9d0c      	ldr	r5, [sp, #48]	; 0x30
 8004f2e:	2400      	movs	r4, #0
 8004f30:	f88d 4063 	strb.w	r4, [sp, #99]	; 0x63
 8004f34:	682f      	ldr	r7, [r5, #0]
 8004f36:	3504      	adds	r5, #4
 8004f38:	2f00      	cmp	r7, #0
 8004f3a:	f001 8114 	beq.w	8006166 <_svfprintf_r+0x17d6>
 8004f3e:	9a05      	ldr	r2, [sp, #20]
 8004f40:	2a00      	cmp	r2, #0
 8004f42:	4638      	mov	r0, r7
 8004f44:	f2c1 8057 	blt.w	8005ff6 <_svfprintf_r+0x1666>
 8004f48:	4621      	mov	r1, r4
 8004f4a:	9a05      	ldr	r2, [sp, #20]
 8004f4c:	f003 f8ca 	bl	80080e4 <memchr>
 8004f50:	2800      	cmp	r0, #0
 8004f52:	f001 817b 	beq.w	800624c <_svfprintf_r+0x18bc>
 8004f56:	9905      	ldr	r1, [sp, #20]
 8004f58:	940e      	str	r4, [sp, #56]	; 0x38
 8004f5a:	1bc0      	subs	r0, r0, r7
 8004f5c:	4288      	cmp	r0, r1
 8004f5e:	900a      	str	r0, [sp, #40]	; 0x28
 8004f60:	f340 87e9 	ble.w	8005f36 <_svfprintf_r+0x15a6>
 8004f64:	ea21 70e1 	bic.w	r0, r1, r1, asr #31
 8004f68:	9905      	ldr	r1, [sp, #20]
 8004f6a:	9007      	str	r0, [sp, #28]
 8004f6c:	f89d 3063 	ldrb.w	r3, [sp, #99]	; 0x63
 8004f70:	950c      	str	r5, [sp, #48]	; 0x30
 8004f72:	910a      	str	r1, [sp, #40]	; 0x28
 8004f74:	9410      	str	r4, [sp, #64]	; 0x40
 8004f76:	e63a      	b.n	8004bee <_svfprintf_r+0x25e>
 8004f78:	9b04      	ldr	r3, [sp, #16]
 8004f7a:	f043 0240 	orr.w	r2, r3, #64	; 0x40
 8004f7e:	9204      	str	r2, [sp, #16]
 8004f80:	f89a 8000 	ldrb.w	r8, [sl]
 8004f84:	e566      	b.n	8004a54 <_svfprintf_r+0xc4>
 8004f86:	9d0c      	ldr	r5, [sp, #48]	; 0x30
 8004f88:	990c      	ldr	r1, [sp, #48]	; 0x30
 8004f8a:	6828      	ldr	r0, [r5, #0]
 8004f8c:	9b04      	ldr	r3, [sp, #16]
 8004f8e:	1d0f      	adds	r7, r1, #4
 8004f90:	49aa      	ldr	r1, [pc, #680]	; (800523c <_svfprintf_r+0x8ac>)
 8004f92:	970c      	str	r7, [sp, #48]	; 0x30
 8004f94:	f043 0202 	orr.w	r2, r3, #2
 8004f98:	f04f 0878 	mov.w	r8, #120	; 0x78
 8004f9c:	4604      	mov	r4, r0
 8004f9e:	2030      	movs	r0, #48	; 0x30
 8004fa0:	f88d 8065 	strb.w	r8, [sp, #101]	; 0x65
 8004fa4:	2500      	movs	r5, #0
 8004fa6:	9204      	str	r2, [sp, #16]
 8004fa8:	f88d 0064 	strb.w	r0, [sp, #100]	; 0x64
 8004fac:	9114      	str	r1, [sp, #80]	; 0x50
 8004fae:	2302      	movs	r3, #2
 8004fb0:	e5d9      	b.n	8004b66 <_svfprintf_r+0x1d6>
 8004fb2:	9b04      	ldr	r3, [sp, #16]
 8004fb4:	f043 0220 	orr.w	r2, r3, #32
 8004fb8:	9204      	str	r2, [sp, #16]
 8004fba:	f89a 8000 	ldrb.w	r8, [sl]
 8004fbe:	e549      	b.n	8004a54 <_svfprintf_r+0xc4>
 8004fc0:	f89a 8000 	ldrb.w	r8, [sl]
 8004fc4:	f1b8 0f6c 	cmp.w	r8, #108	; 0x6c
 8004fc8:	4653      	mov	r3, sl
 8004fca:	f000 8704 	beq.w	8005dd6 <_svfprintf_r+0x1446>
 8004fce:	9a04      	ldr	r2, [sp, #16]
 8004fd0:	f042 0310 	orr.w	r3, r2, #16
 8004fd4:	9304      	str	r3, [sp, #16]
 8004fd6:	e53d      	b.n	8004a54 <_svfprintf_r+0xc4>
 8004fd8:	f1b8 0f00 	cmp.w	r8, #0
 8004fdc:	f43f ae90 	beq.w	8004d00 <_svfprintf_r+0x370>
 8004fe0:	2701      	movs	r7, #1
 8004fe2:	2400      	movs	r4, #0
 8004fe4:	9707      	str	r7, [sp, #28]
 8004fe6:	970a      	str	r7, [sp, #40]	; 0x28
 8004fe8:	f88d 8090 	strb.w	r8, [sp, #144]	; 0x90
 8004fec:	f88d 4063 	strb.w	r4, [sp, #99]	; 0x63
 8004ff0:	af24      	add	r7, sp, #144	; 0x90
 8004ff2:	e77d      	b.n	8004ef0 <_svfprintf_r+0x560>
 8004ff4:	9a04      	ldr	r2, [sp, #16]
 8004ff6:	f042 0380 	orr.w	r3, r2, #128	; 0x80
 8004ffa:	9304      	str	r3, [sp, #16]
 8004ffc:	f89a 8000 	ldrb.w	r8, [sl]
 8005000:	e528      	b.n	8004a54 <_svfprintf_r+0xc4>
 8005002:	4652      	mov	r2, sl
 8005004:	2300      	movs	r3, #0
 8005006:	f1a8 0530 	sub.w	r5, r8, #48	; 0x30
 800500a:	f812 8b01 	ldrb.w	r8, [r2], #1
 800500e:	f1a8 0430 	sub.w	r4, r8, #48	; 0x30
 8005012:	eb03 0383 	add.w	r3, r3, r3, lsl #2
 8005016:	2c09      	cmp	r4, #9
 8005018:	eb05 0343 	add.w	r3, r5, r3, lsl #1
 800501c:	4692      	mov	sl, r2
 800501e:	d9f2      	bls.n	8005006 <_svfprintf_r+0x676>
 8005020:	9309      	str	r3, [sp, #36]	; 0x24
 8005022:	e519      	b.n	8004a58 <_svfprintf_r+0xc8>
 8005024:	4638      	mov	r0, r7
 8005026:	4629      	mov	r1, r5
 8005028:	aa21      	add	r2, sp, #132	; 0x84
 800502a:	f004 f959 	bl	80092e0 <__ssprint_r>
 800502e:	2800      	cmp	r0, #0
 8005030:	f47f ae6d 	bne.w	8004d0e <_svfprintf_r+0x37e>
 8005034:	3e10      	subs	r6, #16
 8005036:	2e10      	cmp	r6, #16
 8005038:	ab2e      	add	r3, sp, #184	; 0xb8
 800503a:	9923      	ldr	r1, [sp, #140]	; 0x8c
 800503c:	9a22      	ldr	r2, [sp, #136]	; 0x88
 800503e:	f73f ae36 	bgt.w	8004cae <_svfprintf_r+0x31e>
 8005042:	465f      	mov	r7, fp
 8005044:	f8dd b05c 	ldr.w	fp, [sp, #92]	; 0x5c
 8005048:	4635      	mov	r5, r6
 800504a:	461e      	mov	r6, r3
 800504c:	1c50      	adds	r0, r2, #1
 800504e:	9b16      	ldr	r3, [sp, #88]	; 0x58
 8005050:	194c      	adds	r4, r1, r5
 8005052:	2807      	cmp	r0, #7
 8005054:	e886 0028 	stmia.w	r6, {r3, r5}
 8005058:	9423      	str	r4, [sp, #140]	; 0x8c
 800505a:	9022      	str	r0, [sp, #136]	; 0x88
 800505c:	f300 840f 	bgt.w	800587e <_svfprintf_r+0xeee>
 8005060:	3608      	adds	r6, #8
 8005062:	e000      	b.n	8005066 <_svfprintf_r+0x6d6>
 8005064:	9c23      	ldr	r4, [sp, #140]	; 0x8c
 8005066:	f89d 1063 	ldrb.w	r1, [sp, #99]	; 0x63
 800506a:	b169      	cbz	r1, 8005088 <_svfprintf_r+0x6f8>
 800506c:	9b22      	ldr	r3, [sp, #136]	; 0x88
 800506e:	1c58      	adds	r0, r3, #1
 8005070:	3401      	adds	r4, #1
 8005072:	2101      	movs	r1, #1
 8005074:	f10d 0263 	add.w	r2, sp, #99	; 0x63
 8005078:	2807      	cmp	r0, #7
 800507a:	6032      	str	r2, [r6, #0]
 800507c:	6071      	str	r1, [r6, #4]
 800507e:	9423      	str	r4, [sp, #140]	; 0x8c
 8005080:	9022      	str	r0, [sp, #136]	; 0x88
 8005082:	f300 82fe 	bgt.w	8005682 <_svfprintf_r+0xcf2>
 8005086:	3608      	adds	r6, #8
 8005088:	9b05      	ldr	r3, [sp, #20]
 800508a:	b163      	cbz	r3, 80050a6 <_svfprintf_r+0x716>
 800508c:	9822      	ldr	r0, [sp, #136]	; 0x88
 800508e:	1c41      	adds	r1, r0, #1
 8005090:	3402      	adds	r4, #2
 8005092:	2302      	movs	r3, #2
 8005094:	aa19      	add	r2, sp, #100	; 0x64
 8005096:	2907      	cmp	r1, #7
 8005098:	6032      	str	r2, [r6, #0]
 800509a:	6073      	str	r3, [r6, #4]
 800509c:	9423      	str	r4, [sp, #140]	; 0x8c
 800509e:	9122      	str	r1, [sp, #136]	; 0x88
 80050a0:	f300 82fa 	bgt.w	8005698 <_svfprintf_r+0xd08>
 80050a4:	3608      	adds	r6, #8
 80050a6:	f1bb 0f80 	cmp.w	fp, #128	; 0x80
 80050aa:	f000 822d 	beq.w	8005508 <_svfprintf_r+0xb78>
 80050ae:	9d0e      	ldr	r5, [sp, #56]	; 0x38
 80050b0:	9a0a      	ldr	r2, [sp, #40]	; 0x28
 80050b2:	1aad      	subs	r5, r5, r2
 80050b4:	2d00      	cmp	r5, #0
 80050b6:	dd6f      	ble.n	8005198 <_svfprintf_r+0x808>
 80050b8:	2d10      	cmp	r5, #16
 80050ba:	f340 85fe 	ble.w	8005cba <_svfprintf_r+0x132a>
 80050be:	9922      	ldr	r1, [sp, #136]	; 0x88
 80050c0:	485f      	ldr	r0, [pc, #380]	; (8005240 <_svfprintf_r+0x8b0>)
 80050c2:	f8c6 9000 	str.w	r9, [r6]
 80050c6:	f04f 0b10 	mov.w	fp, #16
 80050ca:	1c4a      	adds	r2, r1, #1
 80050cc:	f1a5 0c11 	sub.w	ip, r5, #17
 80050d0:	445c      	add	r4, fp
 80050d2:	2a07      	cmp	r2, #7
 80050d4:	f8c6 b004 	str.w	fp, [r6, #4]
 80050d8:	9005      	str	r0, [sp, #20]
 80050da:	9423      	str	r4, [sp, #140]	; 0x8c
 80050dc:	9222      	str	r2, [sp, #136]	; 0x88
 80050de:	f3cc 1300 	ubfx	r3, ip, #4, #1
 80050e2:	f300 82a9 	bgt.w	8005638 <_svfprintf_r+0xca8>
 80050e6:	3608      	adds	r6, #8
 80050e8:	3d10      	subs	r5, #16
 80050ea:	2d10      	cmp	r5, #16
 80050ec:	dd49      	ble.n	8005182 <_svfprintf_r+0x7f2>
 80050ee:	b163      	cbz	r3, 800510a <_svfprintf_r+0x77a>
 80050f0:	3201      	adds	r2, #1
 80050f2:	3410      	adds	r4, #16
 80050f4:	2a07      	cmp	r2, #7
 80050f6:	e886 0a00 	stmia.w	r6, {r9, fp}
 80050fa:	9423      	str	r4, [sp, #140]	; 0x8c
 80050fc:	9222      	str	r2, [sp, #136]	; 0x88
 80050fe:	f300 82a9 	bgt.w	8005654 <_svfprintf_r+0xcc4>
 8005102:	3608      	adds	r6, #8
 8005104:	3d10      	subs	r5, #16
 8005106:	2d10      	cmp	r5, #16
 8005108:	dd3b      	ble.n	8005182 <_svfprintf_r+0x7f2>
 800510a:	4631      	mov	r1, r6
 800510c:	4620      	mov	r0, r4
 800510e:	4646      	mov	r6, r8
 8005110:	463c      	mov	r4, r7
 8005112:	f8dd 8018 	ldr.w	r8, [sp, #24]
 8005116:	9f08      	ldr	r7, [sp, #32]
 8005118:	e00d      	b.n	8005136 <_svfprintf_r+0x7a6>
 800511a:	3108      	adds	r1, #8
 800511c:	3201      	adds	r2, #1
 800511e:	3010      	adds	r0, #16
 8005120:	3d10      	subs	r5, #16
 8005122:	2a07      	cmp	r2, #7
 8005124:	e881 0a00 	stmia.w	r1, {r9, fp}
 8005128:	9222      	str	r2, [sp, #136]	; 0x88
 800512a:	9023      	str	r0, [sp, #140]	; 0x8c
 800512c:	dc17      	bgt.n	800515e <_svfprintf_r+0x7ce>
 800512e:	3d10      	subs	r5, #16
 8005130:	3108      	adds	r1, #8
 8005132:	2d10      	cmp	r5, #16
 8005134:	dd21      	ble.n	800517a <_svfprintf_r+0x7ea>
 8005136:	3201      	adds	r2, #1
 8005138:	3010      	adds	r0, #16
 800513a:	2a07      	cmp	r2, #7
 800513c:	e881 0a00 	stmia.w	r1, {r9, fp}
 8005140:	9023      	str	r0, [sp, #140]	; 0x8c
 8005142:	9222      	str	r2, [sp, #136]	; 0x88
 8005144:	dde9      	ble.n	800511a <_svfprintf_r+0x78a>
 8005146:	4638      	mov	r0, r7
 8005148:	4641      	mov	r1, r8
 800514a:	aa21      	add	r2, sp, #132	; 0x84
 800514c:	f004 f8c8 	bl	80092e0 <__ssprint_r>
 8005150:	2800      	cmp	r0, #0
 8005152:	f47f addc 	bne.w	8004d0e <_svfprintf_r+0x37e>
 8005156:	9823      	ldr	r0, [sp, #140]	; 0x8c
 8005158:	9a22      	ldr	r2, [sp, #136]	; 0x88
 800515a:	a92e      	add	r1, sp, #184	; 0xb8
 800515c:	e7de      	b.n	800511c <_svfprintf_r+0x78c>
 800515e:	4638      	mov	r0, r7
 8005160:	4641      	mov	r1, r8
 8005162:	aa21      	add	r2, sp, #132	; 0x84
 8005164:	f004 f8bc 	bl	80092e0 <__ssprint_r>
 8005168:	2800      	cmp	r0, #0
 800516a:	f47f add0 	bne.w	8004d0e <_svfprintf_r+0x37e>
 800516e:	3d10      	subs	r5, #16
 8005170:	2d10      	cmp	r5, #16
 8005172:	a92e      	add	r1, sp, #184	; 0xb8
 8005174:	9823      	ldr	r0, [sp, #140]	; 0x8c
 8005176:	9a22      	ldr	r2, [sp, #136]	; 0x88
 8005178:	dcdd      	bgt.n	8005136 <_svfprintf_r+0x7a6>
 800517a:	46b0      	mov	r8, r6
 800517c:	4627      	mov	r7, r4
 800517e:	460e      	mov	r6, r1
 8005180:	4604      	mov	r4, r0
 8005182:	1c50      	adds	r0, r2, #1
 8005184:	9b05      	ldr	r3, [sp, #20]
 8005186:	1964      	adds	r4, r4, r5
 8005188:	2807      	cmp	r0, #7
 800518a:	e886 0028 	stmia.w	r6, {r3, r5}
 800518e:	9423      	str	r4, [sp, #140]	; 0x8c
 8005190:	9022      	str	r0, [sp, #136]	; 0x88
 8005192:	f300 826b 	bgt.w	800566c <_svfprintf_r+0xcdc>
 8005196:	3608      	adds	r6, #8
 8005198:	9b04      	ldr	r3, [sp, #16]
 800519a:	05da      	lsls	r2, r3, #23
 800519c:	f100 8128 	bmi.w	80053f0 <_svfprintf_r+0xa60>
 80051a0:	9822      	ldr	r0, [sp, #136]	; 0x88
 80051a2:	9a0a      	ldr	r2, [sp, #40]	; 0x28
 80051a4:	990a      	ldr	r1, [sp, #40]	; 0x28
 80051a6:	6037      	str	r7, [r6, #0]
 80051a8:	1c43      	adds	r3, r0, #1
 80051aa:	18a4      	adds	r4, r4, r2
 80051ac:	2b07      	cmp	r3, #7
 80051ae:	6071      	str	r1, [r6, #4]
 80051b0:	9423      	str	r4, [sp, #140]	; 0x8c
 80051b2:	9322      	str	r3, [sp, #136]	; 0x88
 80051b4:	f300 80b0 	bgt.w	8005318 <_svfprintf_r+0x988>
 80051b8:	3608      	adds	r6, #8
 80051ba:	9a04      	ldr	r2, [sp, #16]
 80051bc:	0753      	lsls	r3, r2, #29
 80051be:	f140 80b9 	bpl.w	8005334 <_svfprintf_r+0x9a4>
 80051c2:	9d09      	ldr	r5, [sp, #36]	; 0x24
 80051c4:	9807      	ldr	r0, [sp, #28]
 80051c6:	1a2d      	subs	r5, r5, r0
 80051c8:	2d00      	cmp	r5, #0
 80051ca:	f340 80b3 	ble.w	8005334 <_svfprintf_r+0x9a4>
 80051ce:	2d10      	cmp	r5, #16
 80051d0:	f340 87d5 	ble.w	800617e <_svfprintf_r+0x17ee>
 80051d4:	9b22      	ldr	r3, [sp, #136]	; 0x88
 80051d6:	f8df 806c 	ldr.w	r8, [pc, #108]	; 8005244 <_svfprintf_r+0x8b4>
 80051da:	f24e 07c0 	movw	r7, #57536	; 0xe0c0
 80051de:	f6c0 0700 	movt	r7, #2048	; 0x800
 80051e2:	6037      	str	r7, [r6, #0]
 80051e4:	1c59      	adds	r1, r3, #1
 80051e6:	2710      	movs	r7, #16
 80051e8:	f1a5 0b11 	sub.w	fp, r5, #17
 80051ec:	19e4      	adds	r4, r4, r7
 80051ee:	2907      	cmp	r1, #7
 80051f0:	6077      	str	r7, [r6, #4]
 80051f2:	f3cb 1b00 	ubfx	fp, fp, #4, #1
 80051f6:	9423      	str	r4, [sp, #140]	; 0x8c
 80051f8:	9122      	str	r1, [sp, #136]	; 0x88
 80051fa:	f300 83c6 	bgt.w	800598a <_svfprintf_r+0xffa>
 80051fe:	3608      	adds	r6, #8
 8005200:	3d10      	subs	r5, #16
 8005202:	2d10      	cmp	r5, #16
 8005204:	f340 80b6 	ble.w	8005374 <_svfprintf_r+0x9e4>
 8005208:	f1bb 0f00 	cmp.w	fp, #0
 800520c:	d011      	beq.n	8005232 <_svfprintf_r+0x8a2>
 800520e:	3101      	adds	r1, #1
 8005210:	f24e 00c0 	movw	r0, #57536	; 0xe0c0
 8005214:	3410      	adds	r4, #16
 8005216:	f6c0 0000 	movt	r0, #2048	; 0x800
 800521a:	2907      	cmp	r1, #7
 800521c:	e886 0081 	stmia.w	r6, {r0, r7}
 8005220:	9423      	str	r4, [sp, #140]	; 0x8c
 8005222:	9122      	str	r1, [sp, #136]	; 0x88
 8005224:	f300 83d7 	bgt.w	80059d6 <_svfprintf_r+0x1046>
 8005228:	3608      	adds	r6, #8
 800522a:	3d10      	subs	r5, #16
 800522c:	2d10      	cmp	r5, #16
 800522e:	f340 80a1 	ble.w	8005374 <_svfprintf_r+0x9e4>
 8005232:	4632      	mov	r2, r6
 8005234:	f8dd b020 	ldr.w	fp, [sp, #32]
 8005238:	9e06      	ldr	r6, [sp, #24]
 800523a:	e018      	b.n	800526e <_svfprintf_r+0x8de>
 800523c:	0800e090 	.word	0x0800e090
 8005240:	0800e0b0 	.word	0x0800e0b0
 8005244:	0800e0c0 	.word	0x0800e0c0
 8005248:	3208      	adds	r2, #8
 800524a:	1c41      	adds	r1, r0, #1
 800524c:	f24e 00c0 	movw	r0, #57536	; 0xe0c0
 8005250:	3410      	adds	r4, #16
 8005252:	f6c0 0000 	movt	r0, #2048	; 0x800
 8005256:	3d10      	subs	r5, #16
 8005258:	2907      	cmp	r1, #7
 800525a:	e882 0081 	stmia.w	r2, {r0, r7}
 800525e:	9122      	str	r1, [sp, #136]	; 0x88
 8005260:	9423      	str	r4, [sp, #140]	; 0x8c
 8005262:	dc77      	bgt.n	8005354 <_svfprintf_r+0x9c4>
 8005264:	3d10      	subs	r5, #16
 8005266:	3208      	adds	r2, #8
 8005268:	2d10      	cmp	r5, #16
 800526a:	f340 8082 	ble.w	8005372 <_svfprintf_r+0x9e2>
 800526e:	1c48      	adds	r0, r1, #1
 8005270:	f24e 01c0 	movw	r1, #57536	; 0xe0c0
 8005274:	3410      	adds	r4, #16
 8005276:	f6c0 0100 	movt	r1, #2048	; 0x800
 800527a:	2807      	cmp	r0, #7
 800527c:	e882 0082 	stmia.w	r2, {r1, r7}
 8005280:	9423      	str	r4, [sp, #140]	; 0x8c
 8005282:	9022      	str	r0, [sp, #136]	; 0x88
 8005284:	dde0      	ble.n	8005248 <_svfprintf_r+0x8b8>
 8005286:	4658      	mov	r0, fp
 8005288:	4631      	mov	r1, r6
 800528a:	aa21      	add	r2, sp, #132	; 0x84
 800528c:	f004 f828 	bl	80092e0 <__ssprint_r>
 8005290:	2800      	cmp	r0, #0
 8005292:	f47f ad3c 	bne.w	8004d0e <_svfprintf_r+0x37e>
 8005296:	9c23      	ldr	r4, [sp, #140]	; 0x8c
 8005298:	9822      	ldr	r0, [sp, #136]	; 0x88
 800529a:	aa2e      	add	r2, sp, #184	; 0xb8
 800529c:	e7d5      	b.n	800524a <_svfprintf_r+0x8ba>
 800529e:	9d0d      	ldr	r5, [sp, #52]	; 0x34
 80052a0:	2d01      	cmp	r5, #1
 80052a2:	f340 847b 	ble.w	8005b9c <_svfprintf_r+0x120c>
 80052a6:	9b22      	ldr	r3, [sp, #136]	; 0x88
 80052a8:	6037      	str	r7, [r6, #0]
 80052aa:	1c5d      	adds	r5, r3, #1
 80052ac:	3401      	adds	r4, #1
 80052ae:	2101      	movs	r1, #1
 80052b0:	2d07      	cmp	r5, #7
 80052b2:	6071      	str	r1, [r6, #4]
 80052b4:	9423      	str	r4, [sp, #140]	; 0x8c
 80052b6:	9522      	str	r5, [sp, #136]	; 0x88
 80052b8:	f300 847b 	bgt.w	8005bb2 <_svfprintf_r+0x1222>
 80052bc:	3608      	adds	r6, #8
 80052be:	9b11      	ldr	r3, [sp, #68]	; 0x44
 80052c0:	980f      	ldr	r0, [sp, #60]	; 0x3c
 80052c2:	3501      	adds	r5, #1
 80052c4:	18e4      	adds	r4, r4, r3
 80052c6:	2d07      	cmp	r5, #7
 80052c8:	e886 0009 	stmia.w	r6, {r0, r3}
 80052cc:	9423      	str	r4, [sp, #140]	; 0x8c
 80052ce:	9522      	str	r5, [sp, #136]	; 0x88
 80052d0:	f300 847c 	bgt.w	8005bcc <_svfprintf_r+0x123c>
 80052d4:	3608      	adds	r6, #8
 80052d6:	e9dd 0112 	ldrd	r0, r1, [sp, #72]	; 0x48
 80052da:	2200      	movs	r2, #0
 80052dc:	2300      	movs	r3, #0
 80052de:	f7fd f9bb 	bl	8002658 <__aeabi_dcmpeq>
 80052e2:	2800      	cmp	r0, #0
 80052e4:	f040 82d7 	bne.w	8005896 <_svfprintf_r+0xf06>
 80052e8:	9a0d      	ldr	r2, [sp, #52]	; 0x34
 80052ea:	3701      	adds	r7, #1
 80052ec:	1e50      	subs	r0, r2, #1
 80052ee:	1824      	adds	r4, r4, r0
 80052f0:	3501      	adds	r5, #1
 80052f2:	6037      	str	r7, [r6, #0]
 80052f4:	2d07      	cmp	r5, #7
 80052f6:	6070      	str	r0, [r6, #4]
 80052f8:	9423      	str	r4, [sp, #140]	; 0x8c
 80052fa:	9522      	str	r5, [sp, #136]	; 0x88
 80052fc:	f300 8186 	bgt.w	800560c <_svfprintf_r+0xc7c>
 8005300:	3608      	adds	r6, #8
 8005302:	9815      	ldr	r0, [sp, #84]	; 0x54
 8005304:	3501      	adds	r5, #1
 8005306:	1824      	adds	r4, r4, r0
 8005308:	ab1d      	add	r3, sp, #116	; 0x74
 800530a:	2d07      	cmp	r5, #7
 800530c:	6033      	str	r3, [r6, #0]
 800530e:	6070      	str	r0, [r6, #4]
 8005310:	9423      	str	r4, [sp, #140]	; 0x8c
 8005312:	9522      	str	r5, [sp, #136]	; 0x88
 8005314:	f77f af50 	ble.w	80051b8 <_svfprintf_r+0x828>
 8005318:	9808      	ldr	r0, [sp, #32]
 800531a:	9906      	ldr	r1, [sp, #24]
 800531c:	aa21      	add	r2, sp, #132	; 0x84
 800531e:	f003 ffdf 	bl	80092e0 <__ssprint_r>
 8005322:	2800      	cmp	r0, #0
 8005324:	f47f acf3 	bne.w	8004d0e <_svfprintf_r+0x37e>
 8005328:	9a04      	ldr	r2, [sp, #16]
 800532a:	9c23      	ldr	r4, [sp, #140]	; 0x8c
 800532c:	0753      	lsls	r3, r2, #29
 800532e:	ae2e      	add	r6, sp, #184	; 0xb8
 8005330:	f53f af47 	bmi.w	80051c2 <_svfprintf_r+0x832>
 8005334:	980b      	ldr	r0, [sp, #44]	; 0x2c
 8005336:	9907      	ldr	r1, [sp, #28]
 8005338:	9a09      	ldr	r2, [sp, #36]	; 0x24
 800533a:	4291      	cmp	r1, r2
 800533c:	bfac      	ite	ge
 800533e:	1840      	addge	r0, r0, r1
 8005340:	1880      	addlt	r0, r0, r2
 8005342:	900b      	str	r0, [sp, #44]	; 0x2c
 8005344:	2c00      	cmp	r4, #0
 8005346:	f040 816d 	bne.w	8005624 <_svfprintf_r+0xc94>
 800534a:	2400      	movs	r4, #0
 800534c:	9422      	str	r4, [sp, #136]	; 0x88
 800534e:	ae2e      	add	r6, sp, #184	; 0xb8
 8005350:	f7ff bb49 	b.w	80049e6 <_svfprintf_r+0x56>
 8005354:	4658      	mov	r0, fp
 8005356:	4631      	mov	r1, r6
 8005358:	aa21      	add	r2, sp, #132	; 0x84
 800535a:	f003 ffc1 	bl	80092e0 <__ssprint_r>
 800535e:	2800      	cmp	r0, #0
 8005360:	f47f acd5 	bne.w	8004d0e <_svfprintf_r+0x37e>
 8005364:	3d10      	subs	r5, #16
 8005366:	2d10      	cmp	r5, #16
 8005368:	aa2e      	add	r2, sp, #184	; 0xb8
 800536a:	9c23      	ldr	r4, [sp, #140]	; 0x8c
 800536c:	9922      	ldr	r1, [sp, #136]	; 0x88
 800536e:	f73f af7e 	bgt.w	800526e <_svfprintf_r+0x8de>
 8005372:	4616      	mov	r6, r2
 8005374:	1c4b      	adds	r3, r1, #1
 8005376:	192c      	adds	r4, r5, r4
 8005378:	2b07      	cmp	r3, #7
 800537a:	f8c6 8000 	str.w	r8, [r6]
 800537e:	6075      	str	r5, [r6, #4]
 8005380:	9423      	str	r4, [sp, #140]	; 0x8c
 8005382:	9322      	str	r3, [sp, #136]	; 0x88
 8005384:	ddd6      	ble.n	8005334 <_svfprintf_r+0x9a4>
 8005386:	9808      	ldr	r0, [sp, #32]
 8005388:	9906      	ldr	r1, [sp, #24]
 800538a:	aa21      	add	r2, sp, #132	; 0x84
 800538c:	f003 ffa8 	bl	80092e0 <__ssprint_r>
 8005390:	2800      	cmp	r0, #0
 8005392:	f47f acbc 	bne.w	8004d0e <_svfprintf_r+0x37e>
 8005396:	9c23      	ldr	r4, [sp, #140]	; 0x8c
 8005398:	e7cc      	b.n	8005334 <_svfprintf_r+0x9a4>
 800539a:	2b01      	cmp	r3, #1
 800539c:	f000 81a8 	beq.w	80056f0 <_svfprintf_r+0xd60>
 80053a0:	2b02      	cmp	r3, #2
 80053a2:	f10d 0cb7 	add.w	ip, sp, #183	; 0xb7
 80053a6:	f000 8187 	beq.w	80056b8 <_svfprintf_r+0xd28>
 80053aa:	2307      	movs	r3, #7
 80053ac:	ea4f 0ed4 	mov.w	lr, r4, lsr #3
 80053b0:	ea04 0003 	and.w	r0, r4, r3
 80053b4:	ea4e 7b45 	orr.w	fp, lr, r5, lsl #29
 80053b8:	08e9      	lsrs	r1, r5, #3
 80053ba:	3030      	adds	r0, #48	; 0x30
 80053bc:	465c      	mov	r4, fp
 80053be:	460d      	mov	r5, r1
 80053c0:	b2c0      	uxtb	r0, r0
 80053c2:	ea54 0105 	orrs.w	r1, r4, r5
 80053c6:	4667      	mov	r7, ip
 80053c8:	f88c 0000 	strb.w	r0, [ip]
 80053cc:	f10c 3cff 	add.w	ip, ip, #4294967295
 80053d0:	d1ec      	bne.n	80053ac <_svfprintf_r+0xa1c>
 80053d2:	9a04      	ldr	r2, [sp, #16]
 80053d4:	07d4      	lsls	r4, r2, #31
 80053d6:	463b      	mov	r3, r7
 80053d8:	d505      	bpl.n	80053e6 <_svfprintf_r+0xa56>
 80053da:	2830      	cmp	r0, #48	; 0x30
 80053dc:	d003      	beq.n	80053e6 <_svfprintf_r+0xa56>
 80053de:	2430      	movs	r4, #48	; 0x30
 80053e0:	4667      	mov	r7, ip
 80053e2:	f803 4c01 	strb.w	r4, [r3, #-1]
 80053e6:	9c03      	ldr	r4, [sp, #12]
 80053e8:	1be2      	subs	r2, r4, r7
 80053ea:	920a      	str	r2, [sp, #40]	; 0x28
 80053ec:	f7ff bbf4 	b.w	8004bd8 <_svfprintf_r+0x248>
 80053f0:	f1b8 0f65 	cmp.w	r8, #101	; 0x65
 80053f4:	f77f af53 	ble.w	800529e <_svfprintf_r+0x90e>
 80053f8:	e9dd 0112 	ldrd	r0, r1, [sp, #72]	; 0x48
 80053fc:	2200      	movs	r2, #0
 80053fe:	2300      	movs	r3, #0
 8005400:	f7fd f92a 	bl	8002658 <__aeabi_dcmpeq>
 8005404:	2800      	cmp	r0, #0
 8005406:	f000 81ac 	beq.w	8005762 <_svfprintf_r+0xdd2>
 800540a:	9822      	ldr	r0, [sp, #136]	; 0x88
 800540c:	49a8      	ldr	r1, [pc, #672]	; (80056b0 <_svfprintf_r+0xd20>)
 800540e:	1c43      	adds	r3, r0, #1
 8005410:	3401      	adds	r4, #1
 8005412:	2201      	movs	r2, #1
 8005414:	2b07      	cmp	r3, #7
 8005416:	6031      	str	r1, [r6, #0]
 8005418:	6072      	str	r2, [r6, #4]
 800541a:	9423      	str	r4, [sp, #140]	; 0x8c
 800541c:	9322      	str	r3, [sp, #136]	; 0x88
 800541e:	f300 8451 	bgt.w	8005cc4 <_svfprintf_r+0x1334>
 8005422:	3608      	adds	r6, #8
 8005424:	981a      	ldr	r0, [sp, #104]	; 0x68
 8005426:	9b0d      	ldr	r3, [sp, #52]	; 0x34
 8005428:	4298      	cmp	r0, r3
 800542a:	db03      	blt.n	8005434 <_svfprintf_r+0xaa4>
 800542c:	9904      	ldr	r1, [sp, #16]
 800542e:	07cb      	lsls	r3, r1, #31
 8005430:	f57f aec3 	bpl.w	80051ba <_svfprintf_r+0x82a>
 8005434:	9b22      	ldr	r3, [sp, #136]	; 0x88
 8005436:	9811      	ldr	r0, [sp, #68]	; 0x44
 8005438:	9a0f      	ldr	r2, [sp, #60]	; 0x3c
 800543a:	6070      	str	r0, [r6, #4]
 800543c:	1c59      	adds	r1, r3, #1
 800543e:	1824      	adds	r4, r4, r0
 8005440:	2907      	cmp	r1, #7
 8005442:	6032      	str	r2, [r6, #0]
 8005444:	9423      	str	r4, [sp, #140]	; 0x8c
 8005446:	9122      	str	r1, [sp, #136]	; 0x88
 8005448:	f300 857f 	bgt.w	8005f4a <_svfprintf_r+0x15ba>
 800544c:	3608      	adds	r6, #8
 800544e:	9d0d      	ldr	r5, [sp, #52]	; 0x34
 8005450:	3d01      	subs	r5, #1
 8005452:	2d00      	cmp	r5, #0
 8005454:	f77f aeb1 	ble.w	80051ba <_svfprintf_r+0x82a>
 8005458:	2d10      	cmp	r5, #16
 800545a:	f340 8288 	ble.w	800596e <_svfprintf_r+0xfde>
 800545e:	9822      	ldr	r0, [sp, #136]	; 0x88
 8005460:	9a0d      	ldr	r2, [sp, #52]	; 0x34
 8005462:	f8c6 9000 	str.w	r9, [r6]
 8005466:	2710      	movs	r7, #16
 8005468:	1c41      	adds	r1, r0, #1
 800546a:	f1a2 0e12 	sub.w	lr, r2, #18
 800546e:	19e4      	adds	r4, r4, r7
 8005470:	2907      	cmp	r1, #7
 8005472:	6077      	str	r7, [r6, #4]
 8005474:	f8df b23c 	ldr.w	fp, [pc, #572]	; 80056b4 <_svfprintf_r+0xd24>
 8005478:	9423      	str	r4, [sp, #140]	; 0x8c
 800547a:	9122      	str	r1, [sp, #136]	; 0x88
 800547c:	f3ce 1800 	ubfx	r8, lr, #4, #1
 8005480:	f300 8616 	bgt.w	80060b0 <_svfprintf_r+0x1720>
 8005484:	3608      	adds	r6, #8
 8005486:	3d10      	subs	r5, #16
 8005488:	2d10      	cmp	r5, #16
 800548a:	f340 8273 	ble.w	8005974 <_svfprintf_r+0xfe4>
 800548e:	f1b8 0f00 	cmp.w	r8, #0
 8005492:	d00e      	beq.n	80054b2 <_svfprintf_r+0xb22>
 8005494:	3101      	adds	r1, #1
 8005496:	3410      	adds	r4, #16
 8005498:	2907      	cmp	r1, #7
 800549a:	f8c6 9000 	str.w	r9, [r6]
 800549e:	6077      	str	r7, [r6, #4]
 80054a0:	9423      	str	r4, [sp, #140]	; 0x8c
 80054a2:	9122      	str	r1, [sp, #136]	; 0x88
 80054a4:	f300 8611 	bgt.w	80060ca <_svfprintf_r+0x173a>
 80054a8:	3608      	adds	r6, #8
 80054aa:	3d10      	subs	r5, #16
 80054ac:	2d10      	cmp	r5, #16
 80054ae:	f340 8261 	ble.w	8005974 <_svfprintf_r+0xfe4>
 80054b2:	4620      	mov	r0, r4
 80054b4:	f8dd 8020 	ldr.w	r8, [sp, #32]
 80054b8:	9c06      	ldr	r4, [sp, #24]
 80054ba:	e010      	b.n	80054de <_svfprintf_r+0xb4e>
 80054bc:	3608      	adds	r6, #8
 80054be:	1c59      	adds	r1, r3, #1
 80054c0:	3010      	adds	r0, #16
 80054c2:	3d10      	subs	r5, #16
 80054c4:	2907      	cmp	r1, #7
 80054c6:	f8c6 9000 	str.w	r9, [r6]
 80054ca:	6077      	str	r7, [r6, #4]
 80054cc:	9122      	str	r1, [sp, #136]	; 0x88
 80054ce:	9023      	str	r0, [sp, #140]	; 0x8c
 80054d0:	f300 811f 	bgt.w	8005712 <_svfprintf_r+0xd82>
 80054d4:	3608      	adds	r6, #8
 80054d6:	3d10      	subs	r5, #16
 80054d8:	2d10      	cmp	r5, #16
 80054da:	f340 83ec 	ble.w	8005cb6 <_svfprintf_r+0x1326>
 80054de:	1c4b      	adds	r3, r1, #1
 80054e0:	3010      	adds	r0, #16
 80054e2:	2b07      	cmp	r3, #7
 80054e4:	f8c6 9000 	str.w	r9, [r6]
 80054e8:	6077      	str	r7, [r6, #4]
 80054ea:	9023      	str	r0, [sp, #140]	; 0x8c
 80054ec:	9322      	str	r3, [sp, #136]	; 0x88
 80054ee:	dde5      	ble.n	80054bc <_svfprintf_r+0xb2c>
 80054f0:	4640      	mov	r0, r8
 80054f2:	4621      	mov	r1, r4
 80054f4:	aa21      	add	r2, sp, #132	; 0x84
 80054f6:	f003 fef3 	bl	80092e0 <__ssprint_r>
 80054fa:	2800      	cmp	r0, #0
 80054fc:	f47f ac07 	bne.w	8004d0e <_svfprintf_r+0x37e>
 8005500:	9823      	ldr	r0, [sp, #140]	; 0x8c
 8005502:	9b22      	ldr	r3, [sp, #136]	; 0x88
 8005504:	ae2e      	add	r6, sp, #184	; 0xb8
 8005506:	e7da      	b.n	80054be <_svfprintf_r+0xb2e>
 8005508:	9d09      	ldr	r5, [sp, #36]	; 0x24
 800550a:	9807      	ldr	r0, [sp, #28]
 800550c:	1a2d      	subs	r5, r5, r0
 800550e:	2d00      	cmp	r5, #0
 8005510:	f77f adcd 	ble.w	80050ae <_svfprintf_r+0x71e>
 8005514:	2d10      	cmp	r5, #16
 8005516:	f340 8694 	ble.w	8006242 <_svfprintf_r+0x18b2>
 800551a:	9822      	ldr	r0, [sp, #136]	; 0x88
 800551c:	4a65      	ldr	r2, [pc, #404]	; (80056b4 <_svfprintf_r+0xd24>)
 800551e:	f8c6 9000 	str.w	r9, [r6]
 8005522:	f04f 0b10 	mov.w	fp, #16
 8005526:	3001      	adds	r0, #1
 8005528:	f1a5 0311 	sub.w	r3, r5, #17
 800552c:	445c      	add	r4, fp
 800552e:	2807      	cmp	r0, #7
 8005530:	f8c6 b004 	str.w	fp, [r6, #4]
 8005534:	9205      	str	r2, [sp, #20]
 8005536:	9423      	str	r4, [sp, #140]	; 0x8c
 8005538:	9022      	str	r0, [sp, #136]	; 0x88
 800553a:	f3c3 1300 	ubfx	r3, r3, #4, #1
 800553e:	f300 8313 	bgt.w	8005b68 <_svfprintf_r+0x11d8>
 8005542:	3608      	adds	r6, #8
 8005544:	3d10      	subs	r5, #16
 8005546:	2d10      	cmp	r5, #16
 8005548:	dd48      	ble.n	80055dc <_svfprintf_r+0xc4c>
 800554a:	b163      	cbz	r3, 8005566 <_svfprintf_r+0xbd6>
 800554c:	3001      	adds	r0, #1
 800554e:	3410      	adds	r4, #16
 8005550:	2807      	cmp	r0, #7
 8005552:	e886 0a00 	stmia.w	r6, {r9, fp}
 8005556:	9423      	str	r4, [sp, #140]	; 0x8c
 8005558:	9022      	str	r0, [sp, #136]	; 0x88
 800555a:	f300 8313 	bgt.w	8005b84 <_svfprintf_r+0x11f4>
 800555e:	3608      	adds	r6, #8
 8005560:	3d10      	subs	r5, #16
 8005562:	2d10      	cmp	r5, #16
 8005564:	dd3a      	ble.n	80055dc <_svfprintf_r+0xc4c>
 8005566:	4621      	mov	r1, r4
 8005568:	4632      	mov	r2, r6
 800556a:	9c08      	ldr	r4, [sp, #32]
 800556c:	462e      	mov	r6, r5
 800556e:	4603      	mov	r3, r0
 8005570:	9d06      	ldr	r5, [sp, #24]
 8005572:	e00d      	b.n	8005590 <_svfprintf_r+0xc00>
 8005574:	3208      	adds	r2, #8
 8005576:	1c43      	adds	r3, r0, #1
 8005578:	3110      	adds	r1, #16
 800557a:	3e10      	subs	r6, #16
 800557c:	2b07      	cmp	r3, #7
 800557e:	e882 0a00 	stmia.w	r2, {r9, fp}
 8005582:	9322      	str	r3, [sp, #136]	; 0x88
 8005584:	9123      	str	r1, [sp, #140]	; 0x8c
 8005586:	dc17      	bgt.n	80055b8 <_svfprintf_r+0xc28>
 8005588:	3e10      	subs	r6, #16
 800558a:	3208      	adds	r2, #8
 800558c:	2e10      	cmp	r6, #16
 800558e:	dd21      	ble.n	80055d4 <_svfprintf_r+0xc44>
 8005590:	1c58      	adds	r0, r3, #1
 8005592:	3110      	adds	r1, #16
 8005594:	2807      	cmp	r0, #7
 8005596:	e882 0a00 	stmia.w	r2, {r9, fp}
 800559a:	9123      	str	r1, [sp, #140]	; 0x8c
 800559c:	9022      	str	r0, [sp, #136]	; 0x88
 800559e:	dde9      	ble.n	8005574 <_svfprintf_r+0xbe4>
 80055a0:	4620      	mov	r0, r4
 80055a2:	4629      	mov	r1, r5
 80055a4:	aa21      	add	r2, sp, #132	; 0x84
 80055a6:	f003 fe9b 	bl	80092e0 <__ssprint_r>
 80055aa:	2800      	cmp	r0, #0
 80055ac:	f47f abaf 	bne.w	8004d0e <_svfprintf_r+0x37e>
 80055b0:	9923      	ldr	r1, [sp, #140]	; 0x8c
 80055b2:	9822      	ldr	r0, [sp, #136]	; 0x88
 80055b4:	aa2e      	add	r2, sp, #184	; 0xb8
 80055b6:	e7de      	b.n	8005576 <_svfprintf_r+0xbe6>
 80055b8:	4620      	mov	r0, r4
 80055ba:	4629      	mov	r1, r5
 80055bc:	aa21      	add	r2, sp, #132	; 0x84
 80055be:	f003 fe8f 	bl	80092e0 <__ssprint_r>
 80055c2:	2800      	cmp	r0, #0
 80055c4:	f47f aba3 	bne.w	8004d0e <_svfprintf_r+0x37e>
 80055c8:	3e10      	subs	r6, #16
 80055ca:	2e10      	cmp	r6, #16
 80055cc:	aa2e      	add	r2, sp, #184	; 0xb8
 80055ce:	9923      	ldr	r1, [sp, #140]	; 0x8c
 80055d0:	9b22      	ldr	r3, [sp, #136]	; 0x88
 80055d2:	dcdd      	bgt.n	8005590 <_svfprintf_r+0xc00>
 80055d4:	4635      	mov	r5, r6
 80055d6:	460c      	mov	r4, r1
 80055d8:	4616      	mov	r6, r2
 80055da:	4618      	mov	r0, r3
 80055dc:	1c41      	adds	r1, r0, #1
 80055de:	9b05      	ldr	r3, [sp, #20]
 80055e0:	1964      	adds	r4, r4, r5
 80055e2:	2907      	cmp	r1, #7
 80055e4:	e886 0028 	stmia.w	r6, {r3, r5}
 80055e8:	9423      	str	r4, [sp, #140]	; 0x8c
 80055ea:	9122      	str	r1, [sp, #136]	; 0x88
 80055ec:	f300 8300 	bgt.w	8005bf0 <_svfprintf_r+0x1260>
 80055f0:	3608      	adds	r6, #8
 80055f2:	e55c      	b.n	80050ae <_svfprintf_r+0x71e>
 80055f4:	4a2f      	ldr	r2, [pc, #188]	; (80056b4 <_svfprintf_r+0xd24>)
 80055f6:	9205      	str	r2, [sp, #20]
 80055f8:	3501      	adds	r5, #1
 80055fa:	9b05      	ldr	r3, [sp, #20]
 80055fc:	19e4      	adds	r4, r4, r7
 80055fe:	2d07      	cmp	r5, #7
 8005600:	e886 0088 	stmia.w	r6, {r3, r7}
 8005604:	9423      	str	r4, [sp, #140]	; 0x8c
 8005606:	9522      	str	r5, [sp, #136]	; 0x88
 8005608:	f77f ae7a 	ble.w	8005300 <_svfprintf_r+0x970>
 800560c:	9808      	ldr	r0, [sp, #32]
 800560e:	9906      	ldr	r1, [sp, #24]
 8005610:	aa21      	add	r2, sp, #132	; 0x84
 8005612:	f003 fe65 	bl	80092e0 <__ssprint_r>
 8005616:	2800      	cmp	r0, #0
 8005618:	f47f ab79 	bne.w	8004d0e <_svfprintf_r+0x37e>
 800561c:	ae2e      	add	r6, sp, #184	; 0xb8
 800561e:	9c23      	ldr	r4, [sp, #140]	; 0x8c
 8005620:	9d22      	ldr	r5, [sp, #136]	; 0x88
 8005622:	e66e      	b.n	8005302 <_svfprintf_r+0x972>
 8005624:	9808      	ldr	r0, [sp, #32]
 8005626:	9906      	ldr	r1, [sp, #24]
 8005628:	aa21      	add	r2, sp, #132	; 0x84
 800562a:	f003 fe59 	bl	80092e0 <__ssprint_r>
 800562e:	2800      	cmp	r0, #0
 8005630:	f43f ae8b 	beq.w	800534a <_svfprintf_r+0x9ba>
 8005634:	f7ff bb6b 	b.w	8004d0e <_svfprintf_r+0x37e>
 8005638:	9808      	ldr	r0, [sp, #32]
 800563a:	9906      	ldr	r1, [sp, #24]
 800563c:	9302      	str	r3, [sp, #8]
 800563e:	aa21      	add	r2, sp, #132	; 0x84
 8005640:	f003 fe4e 	bl	80092e0 <__ssprint_r>
 8005644:	9b02      	ldr	r3, [sp, #8]
 8005646:	2800      	cmp	r0, #0
 8005648:	f47f ab61 	bne.w	8004d0e <_svfprintf_r+0x37e>
 800564c:	ae2e      	add	r6, sp, #184	; 0xb8
 800564e:	9c23      	ldr	r4, [sp, #140]	; 0x8c
 8005650:	9a22      	ldr	r2, [sp, #136]	; 0x88
 8005652:	e549      	b.n	80050e8 <_svfprintf_r+0x758>
 8005654:	9808      	ldr	r0, [sp, #32]
 8005656:	9906      	ldr	r1, [sp, #24]
 8005658:	aa21      	add	r2, sp, #132	; 0x84
 800565a:	f003 fe41 	bl	80092e0 <__ssprint_r>
 800565e:	2800      	cmp	r0, #0
 8005660:	f47f ab55 	bne.w	8004d0e <_svfprintf_r+0x37e>
 8005664:	ae2e      	add	r6, sp, #184	; 0xb8
 8005666:	9c23      	ldr	r4, [sp, #140]	; 0x8c
 8005668:	9a22      	ldr	r2, [sp, #136]	; 0x88
 800566a:	e54b      	b.n	8005104 <_svfprintf_r+0x774>
 800566c:	9808      	ldr	r0, [sp, #32]
 800566e:	9906      	ldr	r1, [sp, #24]
 8005670:	aa21      	add	r2, sp, #132	; 0x84
 8005672:	f003 fe35 	bl	80092e0 <__ssprint_r>
 8005676:	2800      	cmp	r0, #0
 8005678:	f47f ab49 	bne.w	8004d0e <_svfprintf_r+0x37e>
 800567c:	9c23      	ldr	r4, [sp, #140]	; 0x8c
 800567e:	ae2e      	add	r6, sp, #184	; 0xb8
 8005680:	e58a      	b.n	8005198 <_svfprintf_r+0x808>
 8005682:	9808      	ldr	r0, [sp, #32]
 8005684:	9906      	ldr	r1, [sp, #24]
 8005686:	aa21      	add	r2, sp, #132	; 0x84
 8005688:	f003 fe2a 	bl	80092e0 <__ssprint_r>
 800568c:	2800      	cmp	r0, #0
 800568e:	f47f ab3e 	bne.w	8004d0e <_svfprintf_r+0x37e>
 8005692:	9c23      	ldr	r4, [sp, #140]	; 0x8c
 8005694:	ae2e      	add	r6, sp, #184	; 0xb8
 8005696:	e4f7      	b.n	8005088 <_svfprintf_r+0x6f8>
 8005698:	9808      	ldr	r0, [sp, #32]
 800569a:	9906      	ldr	r1, [sp, #24]
 800569c:	aa21      	add	r2, sp, #132	; 0x84
 800569e:	f003 fe1f 	bl	80092e0 <__ssprint_r>
 80056a2:	2800      	cmp	r0, #0
 80056a4:	f47f ab33 	bne.w	8004d0e <_svfprintf_r+0x37e>
 80056a8:	9c23      	ldr	r4, [sp, #140]	; 0x8c
 80056aa:	ae2e      	add	r6, sp, #184	; 0xb8
 80056ac:	e4fb      	b.n	80050a6 <_svfprintf_r+0x716>
 80056ae:	bf00      	nop
 80056b0:	0800e0ac 	.word	0x0800e0ac
 80056b4:	0800e0b0 	.word	0x0800e0b0
 80056b8:	f8dd e050 	ldr.w	lr, [sp, #80]	; 0x50
 80056bc:	9607      	str	r6, [sp, #28]
 80056be:	210f      	movs	r1, #15
 80056c0:	ea04 0601 	and.w	r6, r4, r1
 80056c4:	eb0e 0006 	add.w	r0, lr, r6
 80056c8:	0927      	lsrs	r7, r4, #4
 80056ca:	092a      	lsrs	r2, r5, #4
 80056cc:	ea47 7405 	orr.w	r4, r7, r5, lsl #28
 80056d0:	7803      	ldrb	r3, [r0, #0]
 80056d2:	4615      	mov	r5, r2
 80056d4:	ea54 0205 	orrs.w	r2, r4, r5
 80056d8:	4667      	mov	r7, ip
 80056da:	f88c 3000 	strb.w	r3, [ip]
 80056de:	f10c 3cff 	add.w	ip, ip, #4294967295
 80056e2:	d1ed      	bne.n	80056c0 <_svfprintf_r+0xd30>
 80056e4:	9903      	ldr	r1, [sp, #12]
 80056e6:	9e07      	ldr	r6, [sp, #28]
 80056e8:	1bc8      	subs	r0, r1, r7
 80056ea:	900a      	str	r0, [sp, #40]	; 0x28
 80056ec:	f7ff ba74 	b.w	8004bd8 <_svfprintf_r+0x248>
 80056f0:	2d00      	cmp	r5, #0
 80056f2:	bf08      	it	eq
 80056f4:	2c0a      	cmpeq	r4, #10
 80056f6:	f080 8154 	bcs.w	80059a2 <_svfprintf_r+0x1012>
 80056fa:	af3e      	add	r7, sp, #248	; 0xf8
 80056fc:	3430      	adds	r4, #48	; 0x30
 80056fe:	f807 4d41 	strb.w	r4, [r7, #-65]!
 8005702:	9b03      	ldr	r3, [sp, #12]
 8005704:	1bd9      	subs	r1, r3, r7
 8005706:	910a      	str	r1, [sp, #40]	; 0x28
 8005708:	f7ff ba66 	b.w	8004bd8 <_svfprintf_r+0x248>
 800570c:	2302      	movs	r3, #2
 800570e:	f7ff ba2a 	b.w	8004b66 <_svfprintf_r+0x1d6>
 8005712:	4640      	mov	r0, r8
 8005714:	4621      	mov	r1, r4
 8005716:	aa21      	add	r2, sp, #132	; 0x84
 8005718:	f003 fde2 	bl	80092e0 <__ssprint_r>
 800571c:	2800      	cmp	r0, #0
 800571e:	f47f aaf6 	bne.w	8004d0e <_svfprintf_r+0x37e>
 8005722:	ae2e      	add	r6, sp, #184	; 0xb8
 8005724:	9823      	ldr	r0, [sp, #140]	; 0x8c
 8005726:	9922      	ldr	r1, [sp, #136]	; 0x88
 8005728:	e6d5      	b.n	80054d6 <_svfprintf_r+0xb46>
 800572a:	9808      	ldr	r0, [sp, #32]
 800572c:	9906      	ldr	r1, [sp, #24]
 800572e:	9302      	str	r3, [sp, #8]
 8005730:	aa21      	add	r2, sp, #132	; 0x84
 8005732:	f003 fdd5 	bl	80092e0 <__ssprint_r>
 8005736:	9b02      	ldr	r3, [sp, #8]
 8005738:	2800      	cmp	r0, #0
 800573a:	f47f aae8 	bne.w	8004d0e <_svfprintf_r+0x37e>
 800573e:	ae2e      	add	r6, sp, #184	; 0xb8
 8005740:	9923      	ldr	r1, [sp, #140]	; 0x8c
 8005742:	9a22      	ldr	r2, [sp, #136]	; 0x88
 8005744:	f7ff ba80 	b.w	8004c48 <_svfprintf_r+0x2b8>
 8005748:	9808      	ldr	r0, [sp, #32]
 800574a:	9906      	ldr	r1, [sp, #24]
 800574c:	aa21      	add	r2, sp, #132	; 0x84
 800574e:	f003 fdc7 	bl	80092e0 <__ssprint_r>
 8005752:	2800      	cmp	r0, #0
 8005754:	f47f aadb 	bne.w	8004d0e <_svfprintf_r+0x37e>
 8005758:	ae2e      	add	r6, sp, #184	; 0xb8
 800575a:	9923      	ldr	r1, [sp, #140]	; 0x8c
 800575c:	9a22      	ldr	r2, [sp, #136]	; 0x88
 800575e:	f7ff ba86 	b.w	8004c6e <_svfprintf_r+0x2de>
 8005762:	9d1a      	ldr	r5, [sp, #104]	; 0x68
 8005764:	2d00      	cmp	r5, #0
 8005766:	f340 82b9 	ble.w	8005cdc <_svfprintf_r+0x134c>
 800576a:	9d0d      	ldr	r5, [sp, #52]	; 0x34
 800576c:	9910      	ldr	r1, [sp, #64]	; 0x40
 800576e:	9a0d      	ldr	r2, [sp, #52]	; 0x34
 8005770:	428d      	cmp	r5, r1
 8005772:	bfa8      	it	ge
 8005774:	460d      	movge	r5, r1
 8005776:	18b8      	adds	r0, r7, r2
 8005778:	2d00      	cmp	r5, #0
 800577a:	9005      	str	r0, [sp, #20]
 800577c:	dd0a      	ble.n	8005794 <_svfprintf_r+0xe04>
 800577e:	9b22      	ldr	r3, [sp, #136]	; 0x88
 8005780:	6037      	str	r7, [r6, #0]
 8005782:	1c59      	adds	r1, r3, #1
 8005784:	1964      	adds	r4, r4, r5
 8005786:	2907      	cmp	r1, #7
 8005788:	6075      	str	r5, [r6, #4]
 800578a:	9423      	str	r4, [sp, #140]	; 0x8c
 800578c:	9122      	str	r1, [sp, #136]	; 0x88
 800578e:	f300 8483 	bgt.w	8006098 <_svfprintf_r+0x1708>
 8005792:	3608      	adds	r6, #8
 8005794:	9a10      	ldr	r2, [sp, #64]	; 0x40
 8005796:	ea25 75e5 	bic.w	r5, r5, r5, asr #31
 800579a:	1b55      	subs	r5, r2, r5
 800579c:	2d00      	cmp	r5, #0
 800579e:	f340 814f 	ble.w	8005a40 <_svfprintf_r+0x10b0>
 80057a2:	2d10      	cmp	r5, #16
 80057a4:	f340 8278 	ble.w	8005c98 <_svfprintf_r+0x1308>
 80057a8:	9922      	ldr	r1, [sp, #136]	; 0x88
 80057aa:	4b9f      	ldr	r3, [pc, #636]	; (8005a28 <_svfprintf_r+0x1098>)
 80057ac:	f8c6 9000 	str.w	r9, [r6]
 80057b0:	f04f 0810 	mov.w	r8, #16
 80057b4:	3101      	adds	r1, #1
 80057b6:	f1a5 0e11 	sub.w	lr, r5, #17
 80057ba:	4444      	add	r4, r8
 80057bc:	2907      	cmp	r1, #7
 80057be:	f8c6 8004 	str.w	r8, [r6, #4]
 80057c2:	930a      	str	r3, [sp, #40]	; 0x28
 80057c4:	9423      	str	r4, [sp, #140]	; 0x8c
 80057c6:	9122      	str	r1, [sp, #136]	; 0x88
 80057c8:	f3ce 1b00 	ubfx	fp, lr, #4, #1
 80057cc:	f300 8457 	bgt.w	800607e <_svfprintf_r+0x16ee>
 80057d0:	3608      	adds	r6, #8
 80057d2:	3d10      	subs	r5, #16
 80057d4:	2d10      	cmp	r5, #16
 80057d6:	f340 8262 	ble.w	8005c9e <_svfprintf_r+0x130e>
 80057da:	f1bb 0f00 	cmp.w	fp, #0
 80057de:	d00f      	beq.n	8005800 <_svfprintf_r+0xe70>
 80057e0:	3101      	adds	r1, #1
 80057e2:	3410      	adds	r4, #16
 80057e4:	2907      	cmp	r1, #7
 80057e6:	f8c6 9000 	str.w	r9, [r6]
 80057ea:	f8c6 8004 	str.w	r8, [r6, #4]
 80057ee:	9423      	str	r4, [sp, #140]	; 0x8c
 80057f0:	9122      	str	r1, [sp, #136]	; 0x88
 80057f2:	f300 8477 	bgt.w	80060e4 <_svfprintf_r+0x1754>
 80057f6:	3608      	adds	r6, #8
 80057f8:	3d10      	subs	r5, #16
 80057fa:	2d10      	cmp	r5, #16
 80057fc:	f340 824f 	ble.w	8005c9e <_svfprintf_r+0x130e>
 8005800:	4620      	mov	r0, r4
 8005802:	f8dd b020 	ldr.w	fp, [sp, #32]
 8005806:	9c06      	ldr	r4, [sp, #24]
 8005808:	e012      	b.n	8005830 <_svfprintf_r+0xea0>
 800580a:	f106 0208 	add.w	r2, r6, #8
 800580e:	1c59      	adds	r1, r3, #1
 8005810:	3010      	adds	r0, #16
 8005812:	3d10      	subs	r5, #16
 8005814:	2907      	cmp	r1, #7
 8005816:	f8c2 9000 	str.w	r9, [r2]
 800581a:	f8c2 8004 	str.w	r8, [r2, #4]
 800581e:	9122      	str	r1, [sp, #136]	; 0x88
 8005820:	9023      	str	r0, [sp, #140]	; 0x8c
 8005822:	dc1b      	bgt.n	800585c <_svfprintf_r+0xecc>
 8005824:	f102 0608 	add.w	r6, r2, #8
 8005828:	3d10      	subs	r5, #16
 800582a:	2d10      	cmp	r5, #16
 800582c:	f340 840d 	ble.w	800604a <_svfprintf_r+0x16ba>
 8005830:	1c4b      	adds	r3, r1, #1
 8005832:	3010      	adds	r0, #16
 8005834:	2b07      	cmp	r3, #7
 8005836:	f8c6 9000 	str.w	r9, [r6]
 800583a:	f8c6 8004 	str.w	r8, [r6, #4]
 800583e:	9023      	str	r0, [sp, #140]	; 0x8c
 8005840:	9322      	str	r3, [sp, #136]	; 0x88
 8005842:	dde2      	ble.n	800580a <_svfprintf_r+0xe7a>
 8005844:	4658      	mov	r0, fp
 8005846:	4621      	mov	r1, r4
 8005848:	aa21      	add	r2, sp, #132	; 0x84
 800584a:	f003 fd49 	bl	80092e0 <__ssprint_r>
 800584e:	2800      	cmp	r0, #0
 8005850:	f47f aa5d 	bne.w	8004d0e <_svfprintf_r+0x37e>
 8005854:	9823      	ldr	r0, [sp, #140]	; 0x8c
 8005856:	9b22      	ldr	r3, [sp, #136]	; 0x88
 8005858:	aa2e      	add	r2, sp, #184	; 0xb8
 800585a:	e7d8      	b.n	800580e <_svfprintf_r+0xe7e>
 800585c:	4658      	mov	r0, fp
 800585e:	4621      	mov	r1, r4
 8005860:	aa21      	add	r2, sp, #132	; 0x84
 8005862:	f003 fd3d 	bl	80092e0 <__ssprint_r>
 8005866:	2800      	cmp	r0, #0
 8005868:	f47f aa51 	bne.w	8004d0e <_svfprintf_r+0x37e>
 800586c:	ae2e      	add	r6, sp, #184	; 0xb8
 800586e:	9823      	ldr	r0, [sp, #140]	; 0x8c
 8005870:	9922      	ldr	r1, [sp, #136]	; 0x88
 8005872:	e7d9      	b.n	8005828 <_svfprintf_r+0xe98>
 8005874:	9c05      	ldr	r4, [sp, #20]
 8005876:	af2e      	add	r7, sp, #184	; 0xb8
 8005878:	940a      	str	r4, [sp, #40]	; 0x28
 800587a:	f7ff b9ad 	b.w	8004bd8 <_svfprintf_r+0x248>
 800587e:	9808      	ldr	r0, [sp, #32]
 8005880:	9906      	ldr	r1, [sp, #24]
 8005882:	aa21      	add	r2, sp, #132	; 0x84
 8005884:	f003 fd2c 	bl	80092e0 <__ssprint_r>
 8005888:	2800      	cmp	r0, #0
 800588a:	f47f aa40 	bne.w	8004d0e <_svfprintf_r+0x37e>
 800588e:	9c23      	ldr	r4, [sp, #140]	; 0x8c
 8005890:	ae2e      	add	r6, sp, #184	; 0xb8
 8005892:	f7ff bbe8 	b.w	8005066 <_svfprintf_r+0x6d6>
 8005896:	9f0d      	ldr	r7, [sp, #52]	; 0x34
 8005898:	3f01      	subs	r7, #1
 800589a:	2f00      	cmp	r7, #0
 800589c:	f77f ad31 	ble.w	8005302 <_svfprintf_r+0x972>
 80058a0:	2f10      	cmp	r7, #16
 80058a2:	f77f aea7 	ble.w	80055f4 <_svfprintf_r+0xc64>
 80058a6:	980d      	ldr	r0, [sp, #52]	; 0x34
 80058a8:	4b5f      	ldr	r3, [pc, #380]	; (8005a28 <_svfprintf_r+0x1098>)
 80058aa:	f8c6 9000 	str.w	r9, [r6]
 80058ae:	f04f 0810 	mov.w	r8, #16
 80058b2:	3501      	adds	r5, #1
 80058b4:	f1a0 0b12 	sub.w	fp, r0, #18
 80058b8:	4444      	add	r4, r8
 80058ba:	2d07      	cmp	r5, #7
 80058bc:	f8c6 8004 	str.w	r8, [r6, #4]
 80058c0:	9305      	str	r3, [sp, #20]
 80058c2:	9423      	str	r4, [sp, #140]	; 0x8c
 80058c4:	9522      	str	r5, [sp, #136]	; 0x88
 80058c6:	f3cb 1b00 	ubfx	fp, fp, #4, #1
 80058ca:	f300 83c0 	bgt.w	800604e <_svfprintf_r+0x16be>
 80058ce:	3608      	adds	r6, #8
 80058d0:	3f10      	subs	r7, #16
 80058d2:	2f10      	cmp	r7, #16
 80058d4:	f77f ae90 	ble.w	80055f8 <_svfprintf_r+0xc68>
 80058d8:	f1bb 0f00 	cmp.w	fp, #0
 80058dc:	d00f      	beq.n	80058fe <_svfprintf_r+0xf6e>
 80058de:	3501      	adds	r5, #1
 80058e0:	3410      	adds	r4, #16
 80058e2:	2d07      	cmp	r5, #7
 80058e4:	f8c6 9000 	str.w	r9, [r6]
 80058e8:	f8c6 8004 	str.w	r8, [r6, #4]
 80058ec:	9423      	str	r4, [sp, #140]	; 0x8c
 80058ee:	9522      	str	r5, [sp, #136]	; 0x88
 80058f0:	f300 83b9 	bgt.w	8006066 <_svfprintf_r+0x16d6>
 80058f4:	3608      	adds	r6, #8
 80058f6:	3f10      	subs	r7, #16
 80058f8:	2f10      	cmp	r7, #16
 80058fa:	f77f ae7d 	ble.w	80055f8 <_svfprintf_r+0xc68>
 80058fe:	4621      	mov	r1, r4
 8005900:	f8dd b020 	ldr.w	fp, [sp, #32]
 8005904:	9c06      	ldr	r4, [sp, #24]
 8005906:	e010      	b.n	800592a <_svfprintf_r+0xf9a>
 8005908:	3608      	adds	r6, #8
 800590a:	3501      	adds	r5, #1
 800590c:	3110      	adds	r1, #16
 800590e:	3f10      	subs	r7, #16
 8005910:	2d07      	cmp	r5, #7
 8005912:	f8c6 9000 	str.w	r9, [r6]
 8005916:	f8c6 8004 	str.w	r8, [r6, #4]
 800591a:	9123      	str	r1, [sp, #140]	; 0x8c
 800591c:	9522      	str	r5, [sp, #136]	; 0x88
 800591e:	dc1a      	bgt.n	8005956 <_svfprintf_r+0xfc6>
 8005920:	3608      	adds	r6, #8
 8005922:	3f10      	subs	r7, #16
 8005924:	2f10      	cmp	r7, #16
 8005926:	f340 8363 	ble.w	8005ff0 <_svfprintf_r+0x1660>
 800592a:	3501      	adds	r5, #1
 800592c:	3110      	adds	r1, #16
 800592e:	2d07      	cmp	r5, #7
 8005930:	f8c6 9000 	str.w	r9, [r6]
 8005934:	f8c6 8004 	str.w	r8, [r6, #4]
 8005938:	9123      	str	r1, [sp, #140]	; 0x8c
 800593a:	9522      	str	r5, [sp, #136]	; 0x88
 800593c:	dde4      	ble.n	8005908 <_svfprintf_r+0xf78>
 800593e:	4658      	mov	r0, fp
 8005940:	4621      	mov	r1, r4
 8005942:	aa21      	add	r2, sp, #132	; 0x84
 8005944:	f003 fccc 	bl	80092e0 <__ssprint_r>
 8005948:	2800      	cmp	r0, #0
 800594a:	f47f a9e0 	bne.w	8004d0e <_svfprintf_r+0x37e>
 800594e:	9923      	ldr	r1, [sp, #140]	; 0x8c
 8005950:	9d22      	ldr	r5, [sp, #136]	; 0x88
 8005952:	ae2e      	add	r6, sp, #184	; 0xb8
 8005954:	e7d9      	b.n	800590a <_svfprintf_r+0xf7a>
 8005956:	4658      	mov	r0, fp
 8005958:	4621      	mov	r1, r4
 800595a:	aa21      	add	r2, sp, #132	; 0x84
 800595c:	f003 fcc0 	bl	80092e0 <__ssprint_r>
 8005960:	2800      	cmp	r0, #0
 8005962:	f47f a9d4 	bne.w	8004d0e <_svfprintf_r+0x37e>
 8005966:	ae2e      	add	r6, sp, #184	; 0xb8
 8005968:	9923      	ldr	r1, [sp, #140]	; 0x8c
 800596a:	9d22      	ldr	r5, [sp, #136]	; 0x88
 800596c:	e7d9      	b.n	8005922 <_svfprintf_r+0xf92>
 800596e:	9922      	ldr	r1, [sp, #136]	; 0x88
 8005970:	f8df b0b4 	ldr.w	fp, [pc, #180]	; 8005a28 <_svfprintf_r+0x1098>
 8005974:	3101      	adds	r1, #1
 8005976:	1964      	adds	r4, r4, r5
 8005978:	2907      	cmp	r1, #7
 800597a:	f8c6 b000 	str.w	fp, [r6]
 800597e:	6075      	str	r5, [r6, #4]
 8005980:	9423      	str	r4, [sp, #140]	; 0x8c
 8005982:	9122      	str	r1, [sp, #136]	; 0x88
 8005984:	f77f ac18 	ble.w	80051b8 <_svfprintf_r+0x828>
 8005988:	e4c6      	b.n	8005318 <_svfprintf_r+0x988>
 800598a:	9808      	ldr	r0, [sp, #32]
 800598c:	9906      	ldr	r1, [sp, #24]
 800598e:	aa21      	add	r2, sp, #132	; 0x84
 8005990:	f003 fca6 	bl	80092e0 <__ssprint_r>
 8005994:	2800      	cmp	r0, #0
 8005996:	f47f a9ba 	bne.w	8004d0e <_svfprintf_r+0x37e>
 800599a:	ae2e      	add	r6, sp, #184	; 0xb8
 800599c:	9c23      	ldr	r4, [sp, #140]	; 0x8c
 800599e:	9922      	ldr	r1, [sp, #136]	; 0x88
 80059a0:	e42e      	b.n	8005200 <_svfprintf_r+0x870>
 80059a2:	f10d 0bb7 	add.w	fp, sp, #183	; 0xb7
 80059a6:	4620      	mov	r0, r4
 80059a8:	4629      	mov	r1, r5
 80059aa:	220a      	movs	r2, #10
 80059ac:	2300      	movs	r3, #0
 80059ae:	f7fd f80b 	bl	80029c8 <__aeabi_uldivmod>
 80059b2:	3230      	adds	r2, #48	; 0x30
 80059b4:	f88b 2000 	strb.w	r2, [fp]
 80059b8:	4620      	mov	r0, r4
 80059ba:	4629      	mov	r1, r5
 80059bc:	220a      	movs	r2, #10
 80059be:	2300      	movs	r3, #0
 80059c0:	f7fd f802 	bl	80029c8 <__aeabi_uldivmod>
 80059c4:	4604      	mov	r4, r0
 80059c6:	460d      	mov	r5, r1
 80059c8:	ea54 0005 	orrs.w	r0, r4, r5
 80059cc:	465f      	mov	r7, fp
 80059ce:	f10b 3bff 	add.w	fp, fp, #4294967295
 80059d2:	d1e8      	bne.n	80059a6 <_svfprintf_r+0x1016>
 80059d4:	e507      	b.n	80053e6 <_svfprintf_r+0xa56>
 80059d6:	9808      	ldr	r0, [sp, #32]
 80059d8:	9906      	ldr	r1, [sp, #24]
 80059da:	aa21      	add	r2, sp, #132	; 0x84
 80059dc:	f003 fc80 	bl	80092e0 <__ssprint_r>
 80059e0:	2800      	cmp	r0, #0
 80059e2:	f47f a994 	bne.w	8004d0e <_svfprintf_r+0x37e>
 80059e6:	ae2e      	add	r6, sp, #184	; 0xb8
 80059e8:	9c23      	ldr	r4, [sp, #140]	; 0x8c
 80059ea:	9922      	ldr	r1, [sp, #136]	; 0x88
 80059ec:	e41d      	b.n	800522a <_svfprintf_r+0x89a>
 80059ee:	990c      	ldr	r1, [sp, #48]	; 0x30
 80059f0:	680c      	ldr	r4, [r1, #0]
 80059f2:	17e5      	asrs	r5, r4, #31
 80059f4:	4622      	mov	r2, r4
 80059f6:	462b      	mov	r3, r5
 80059f8:	1d0f      	adds	r7, r1, #4
 80059fa:	2a00      	cmp	r2, #0
 80059fc:	f173 0000 	sbcs.w	r0, r3, #0
 8005a00:	970c      	str	r7, [sp, #48]	; 0x30
 8005a02:	f6bf a8cb 	bge.w	8004b9c <_svfprintf_r+0x20c>
 8005a06:	222d      	movs	r2, #45	; 0x2d
 8005a08:	4264      	negs	r4, r4
 8005a0a:	eb65 0545 	sbc.w	r5, r5, r5, lsl #1
 8005a0e:	f88d 2063 	strb.w	r2, [sp, #99]	; 0x63
 8005a12:	2301      	movs	r3, #1
 8005a14:	f7ff b8c3 	b.w	8004b9e <_svfprintf_r+0x20e>
 8005a18:	9a0c      	ldr	r2, [sp, #48]	; 0x30
 8005a1a:	6815      	ldr	r5, [r2, #0]
 8005a1c:	1d17      	adds	r7, r2, #4
 8005a1e:	462c      	mov	r4, r5
 8005a20:	970c      	str	r7, [sp, #48]	; 0x30
 8005a22:	2500      	movs	r5, #0
 8005a24:	f7ff b9ec 	b.w	8004e00 <_svfprintf_r+0x470>
 8005a28:	0800e0b0 	.word	0x0800e0b0
 8005a2c:	9808      	ldr	r0, [sp, #32]
 8005a2e:	9906      	ldr	r1, [sp, #24]
 8005a30:	aa21      	add	r2, sp, #132	; 0x84
 8005a32:	f003 fc55 	bl	80092e0 <__ssprint_r>
 8005a36:	2800      	cmp	r0, #0
 8005a38:	f47f a969 	bne.w	8004d0e <_svfprintf_r+0x37e>
 8005a3c:	9c23      	ldr	r4, [sp, #140]	; 0x8c
 8005a3e:	ae2e      	add	r6, sp, #184	; 0xb8
 8005a40:	9b1a      	ldr	r3, [sp, #104]	; 0x68
 8005a42:	9a0d      	ldr	r2, [sp, #52]	; 0x34
 8005a44:	9810      	ldr	r0, [sp, #64]	; 0x40
 8005a46:	4293      	cmp	r3, r2
 8005a48:	4407      	add	r7, r0
 8005a4a:	db72      	blt.n	8005b32 <_svfprintf_r+0x11a2>
 8005a4c:	9904      	ldr	r1, [sp, #16]
 8005a4e:	07c9      	lsls	r1, r1, #31
 8005a50:	d46f      	bmi.n	8005b32 <_svfprintf_r+0x11a2>
 8005a52:	9d05      	ldr	r5, [sp, #20]
 8005a54:	990d      	ldr	r1, [sp, #52]	; 0x34
 8005a56:	1bed      	subs	r5, r5, r7
 8005a58:	1ac9      	subs	r1, r1, r3
 8005a5a:	42a9      	cmp	r1, r5
 8005a5c:	bfb8      	it	lt
 8005a5e:	460d      	movlt	r5, r1
 8005a60:	2d00      	cmp	r5, #0
 8005a62:	dd0a      	ble.n	8005a7a <_svfprintf_r+0x10ea>
 8005a64:	9a22      	ldr	r2, [sp, #136]	; 0x88
 8005a66:	6037      	str	r7, [r6, #0]
 8005a68:	1c50      	adds	r0, r2, #1
 8005a6a:	1964      	adds	r4, r4, r5
 8005a6c:	2807      	cmp	r0, #7
 8005a6e:	6075      	str	r5, [r6, #4]
 8005a70:	9423      	str	r4, [sp, #140]	; 0x8c
 8005a72:	9022      	str	r0, [sp, #136]	; 0x88
 8005a74:	f300 8369 	bgt.w	800614a <_svfprintf_r+0x17ba>
 8005a78:	3608      	adds	r6, #8
 8005a7a:	ea25 75e5 	bic.w	r5, r5, r5, asr #31
 8005a7e:	1b4d      	subs	r5, r1, r5
 8005a80:	2d00      	cmp	r5, #0
 8005a82:	f77f ab9a 	ble.w	80051ba <_svfprintf_r+0x82a>
 8005a86:	2d10      	cmp	r5, #16
 8005a88:	f77f af71 	ble.w	800596e <_svfprintf_r+0xfde>
 8005a8c:	9a22      	ldr	r2, [sp, #136]	; 0x88
 8005a8e:	f8c6 9000 	str.w	r9, [r6]
 8005a92:	2710      	movs	r7, #16
 8005a94:	1c51      	adds	r1, r2, #1
 8005a96:	f1a5 0811 	sub.w	r8, r5, #17
 8005a9a:	19e4      	adds	r4, r4, r7
 8005a9c:	2907      	cmp	r1, #7
 8005a9e:	6077      	str	r7, [r6, #4]
 8005aa0:	f8df b350 	ldr.w	fp, [pc, #848]	; 8005df4 <_svfprintf_r+0x1464>
 8005aa4:	9423      	str	r4, [sp, #140]	; 0x8c
 8005aa6:	9122      	str	r1, [sp, #136]	; 0x88
 8005aa8:	f3c8 1800 	ubfx	r8, r8, #4, #1
 8005aac:	f300 8341 	bgt.w	8006132 <_svfprintf_r+0x17a2>
 8005ab0:	3608      	adds	r6, #8
 8005ab2:	3d10      	subs	r5, #16
 8005ab4:	2d10      	cmp	r5, #16
 8005ab6:	f77f af5d 	ble.w	8005974 <_svfprintf_r+0xfe4>
 8005aba:	f1b8 0f00 	cmp.w	r8, #0
 8005abe:	d00e      	beq.n	8005ade <_svfprintf_r+0x114e>
 8005ac0:	3101      	adds	r1, #1
 8005ac2:	3410      	adds	r4, #16
 8005ac4:	2907      	cmp	r1, #7
 8005ac6:	f8c6 9000 	str.w	r9, [r6]
 8005aca:	6077      	str	r7, [r6, #4]
 8005acc:	9423      	str	r4, [sp, #140]	; 0x8c
 8005ace:	9122      	str	r1, [sp, #136]	; 0x88
 8005ad0:	f300 83a6 	bgt.w	8006220 <_svfprintf_r+0x1890>
 8005ad4:	3608      	adds	r6, #8
 8005ad6:	3d10      	subs	r5, #16
 8005ad8:	2d10      	cmp	r5, #16
 8005ada:	f77f af4b 	ble.w	8005974 <_svfprintf_r+0xfe4>
 8005ade:	4620      	mov	r0, r4
 8005ae0:	f8dd 8020 	ldr.w	r8, [sp, #32]
 8005ae4:	9c06      	ldr	r4, [sp, #24]
 8005ae6:	e00f      	b.n	8005b08 <_svfprintf_r+0x1178>
 8005ae8:	3608      	adds	r6, #8
 8005aea:	1c59      	adds	r1, r3, #1
 8005aec:	3010      	adds	r0, #16
 8005aee:	3d10      	subs	r5, #16
 8005af0:	2907      	cmp	r1, #7
 8005af2:	f8c6 9000 	str.w	r9, [r6]
 8005af6:	6077      	str	r7, [r6, #4]
 8005af8:	9122      	str	r1, [sp, #136]	; 0x88
 8005afa:	9023      	str	r0, [sp, #140]	; 0x8c
 8005afc:	dc28      	bgt.n	8005b50 <_svfprintf_r+0x11c0>
 8005afe:	3608      	adds	r6, #8
 8005b00:	3d10      	subs	r5, #16
 8005b02:	2d10      	cmp	r5, #16
 8005b04:	f340 80d7 	ble.w	8005cb6 <_svfprintf_r+0x1326>
 8005b08:	1c4b      	adds	r3, r1, #1
 8005b0a:	3010      	adds	r0, #16
 8005b0c:	2b07      	cmp	r3, #7
 8005b0e:	f8c6 9000 	str.w	r9, [r6]
 8005b12:	6077      	str	r7, [r6, #4]
 8005b14:	9023      	str	r0, [sp, #140]	; 0x8c
 8005b16:	9322      	str	r3, [sp, #136]	; 0x88
 8005b18:	dde6      	ble.n	8005ae8 <_svfprintf_r+0x1158>
 8005b1a:	4640      	mov	r0, r8
 8005b1c:	4621      	mov	r1, r4
 8005b1e:	aa21      	add	r2, sp, #132	; 0x84
 8005b20:	f003 fbde 	bl	80092e0 <__ssprint_r>
 8005b24:	2800      	cmp	r0, #0
 8005b26:	f47f a8f2 	bne.w	8004d0e <_svfprintf_r+0x37e>
 8005b2a:	9823      	ldr	r0, [sp, #140]	; 0x8c
 8005b2c:	9b22      	ldr	r3, [sp, #136]	; 0x88
 8005b2e:	ae2e      	add	r6, sp, #184	; 0xb8
 8005b30:	e7db      	b.n	8005aea <_svfprintf_r+0x115a>
 8005b32:	9922      	ldr	r1, [sp, #136]	; 0x88
 8005b34:	980f      	ldr	r0, [sp, #60]	; 0x3c
 8005b36:	9a11      	ldr	r2, [sp, #68]	; 0x44
 8005b38:	6030      	str	r0, [r6, #0]
 8005b3a:	18a4      	adds	r4, r4, r2
 8005b3c:	9811      	ldr	r0, [sp, #68]	; 0x44
 8005b3e:	1c4a      	adds	r2, r1, #1
 8005b40:	2a07      	cmp	r2, #7
 8005b42:	6070      	str	r0, [r6, #4]
 8005b44:	9423      	str	r4, [sp, #140]	; 0x8c
 8005b46:	9222      	str	r2, [sp, #136]	; 0x88
 8005b48:	f300 82d9 	bgt.w	80060fe <_svfprintf_r+0x176e>
 8005b4c:	3608      	adds	r6, #8
 8005b4e:	e780      	b.n	8005a52 <_svfprintf_r+0x10c2>
 8005b50:	4640      	mov	r0, r8
 8005b52:	4621      	mov	r1, r4
 8005b54:	aa21      	add	r2, sp, #132	; 0x84
 8005b56:	f003 fbc3 	bl	80092e0 <__ssprint_r>
 8005b5a:	2800      	cmp	r0, #0
 8005b5c:	f47f a8d7 	bne.w	8004d0e <_svfprintf_r+0x37e>
 8005b60:	ae2e      	add	r6, sp, #184	; 0xb8
 8005b62:	9823      	ldr	r0, [sp, #140]	; 0x8c
 8005b64:	9922      	ldr	r1, [sp, #136]	; 0x88
 8005b66:	e7cb      	b.n	8005b00 <_svfprintf_r+0x1170>
 8005b68:	9808      	ldr	r0, [sp, #32]
 8005b6a:	9906      	ldr	r1, [sp, #24]
 8005b6c:	9302      	str	r3, [sp, #8]
 8005b6e:	aa21      	add	r2, sp, #132	; 0x84
 8005b70:	f003 fbb6 	bl	80092e0 <__ssprint_r>
 8005b74:	9b02      	ldr	r3, [sp, #8]
 8005b76:	2800      	cmp	r0, #0
 8005b78:	f47f a8c9 	bne.w	8004d0e <_svfprintf_r+0x37e>
 8005b7c:	ae2e      	add	r6, sp, #184	; 0xb8
 8005b7e:	9c23      	ldr	r4, [sp, #140]	; 0x8c
 8005b80:	9822      	ldr	r0, [sp, #136]	; 0x88
 8005b82:	e4df      	b.n	8005544 <_svfprintf_r+0xbb4>
 8005b84:	9808      	ldr	r0, [sp, #32]
 8005b86:	9906      	ldr	r1, [sp, #24]
 8005b88:	aa21      	add	r2, sp, #132	; 0x84
 8005b8a:	f003 fba9 	bl	80092e0 <__ssprint_r>
 8005b8e:	2800      	cmp	r0, #0
 8005b90:	f47f a8bd 	bne.w	8004d0e <_svfprintf_r+0x37e>
 8005b94:	ae2e      	add	r6, sp, #184	; 0xb8
 8005b96:	9c23      	ldr	r4, [sp, #140]	; 0x8c
 8005b98:	9822      	ldr	r0, [sp, #136]	; 0x88
 8005b9a:	e4e1      	b.n	8005560 <_svfprintf_r+0xbd0>
 8005b9c:	9904      	ldr	r1, [sp, #16]
 8005b9e:	07ca      	lsls	r2, r1, #31
 8005ba0:	f53f ab81 	bmi.w	80052a6 <_svfprintf_r+0x916>
 8005ba4:	9a22      	ldr	r2, [sp, #136]	; 0x88
 8005ba6:	6037      	str	r7, [r6, #0]
 8005ba8:	3401      	adds	r4, #1
 8005baa:	1c55      	adds	r5, r2, #1
 8005bac:	2001      	movs	r0, #1
 8005bae:	f7ff bba1 	b.w	80052f4 <_svfprintf_r+0x964>
 8005bb2:	9808      	ldr	r0, [sp, #32]
 8005bb4:	9906      	ldr	r1, [sp, #24]
 8005bb6:	aa21      	add	r2, sp, #132	; 0x84
 8005bb8:	f003 fb92 	bl	80092e0 <__ssprint_r>
 8005bbc:	2800      	cmp	r0, #0
 8005bbe:	f47f a8a6 	bne.w	8004d0e <_svfprintf_r+0x37e>
 8005bc2:	9c23      	ldr	r4, [sp, #140]	; 0x8c
 8005bc4:	9d22      	ldr	r5, [sp, #136]	; 0x88
 8005bc6:	ae2e      	add	r6, sp, #184	; 0xb8
 8005bc8:	f7ff bb79 	b.w	80052be <_svfprintf_r+0x92e>
 8005bcc:	9808      	ldr	r0, [sp, #32]
 8005bce:	9906      	ldr	r1, [sp, #24]
 8005bd0:	aa21      	add	r2, sp, #132	; 0x84
 8005bd2:	f003 fb85 	bl	80092e0 <__ssprint_r>
 8005bd6:	2800      	cmp	r0, #0
 8005bd8:	f47f a899 	bne.w	8004d0e <_svfprintf_r+0x37e>
 8005bdc:	9c23      	ldr	r4, [sp, #140]	; 0x8c
 8005bde:	9d22      	ldr	r5, [sp, #136]	; 0x88
 8005be0:	ae2e      	add	r6, sp, #184	; 0xb8
 8005be2:	f7ff bb78 	b.w	80052d6 <_svfprintf_r+0x946>
 8005be6:	9905      	ldr	r1, [sp, #20]
 8005be8:	af2e      	add	r7, sp, #184	; 0xb8
 8005bea:	910a      	str	r1, [sp, #40]	; 0x28
 8005bec:	f7fe bff4 	b.w	8004bd8 <_svfprintf_r+0x248>
 8005bf0:	9808      	ldr	r0, [sp, #32]
 8005bf2:	9906      	ldr	r1, [sp, #24]
 8005bf4:	aa21      	add	r2, sp, #132	; 0x84
 8005bf6:	f003 fb73 	bl	80092e0 <__ssprint_r>
 8005bfa:	2800      	cmp	r0, #0
 8005bfc:	f47f a887 	bne.w	8004d0e <_svfprintf_r+0x37e>
 8005c00:	9c23      	ldr	r4, [sp, #140]	; 0x8c
 8005c02:	ae2e      	add	r6, sp, #184	; 0xb8
 8005c04:	f7ff ba53 	b.w	80050ae <_svfprintf_r+0x71e>
 8005c08:	462a      	mov	r2, r5
 8005c0a:	4623      	mov	r3, r4
 8005c0c:	ec43 2b10 	vmov	d0, r2, r3
 8005c10:	f003 fa2e 	bl	8009070 <__fpclassifyd>
 8005c14:	2800      	cmp	r0, #0
 8005c16:	f040 80f1 	bne.w	8005dfc <_svfprintf_r+0x146c>
 8005c1a:	2703      	movs	r7, #3
 8005c1c:	4a73      	ldr	r2, [pc, #460]	; (8005dec <_svfprintf_r+0x145c>)
 8005c1e:	9707      	str	r7, [sp, #28]
 8005c20:	4f73      	ldr	r7, [pc, #460]	; (8005df0 <_svfprintf_r+0x1460>)
 8005c22:	900e      	str	r0, [sp, #56]	; 0x38
 8005c24:	9804      	ldr	r0, [sp, #16]
 8005c26:	f89d 3063 	ldrb.w	r3, [sp, #99]	; 0x63
 8005c2a:	f1b8 0f47 	cmp.w	r8, #71	; 0x47
 8005c2e:	bfd8      	it	le
 8005c30:	4617      	movle	r7, r2
 8005c32:	9a0e      	ldr	r2, [sp, #56]	; 0x38
 8005c34:	f020 0480 	bic.w	r4, r0, #128	; 0x80
 8005c38:	2103      	movs	r1, #3
 8005c3a:	9404      	str	r4, [sp, #16]
 8005c3c:	910a      	str	r1, [sp, #40]	; 0x28
 8005c3e:	9210      	str	r2, [sp, #64]	; 0x40
 8005c40:	f7fe bfd5 	b.w	8004bee <_svfprintf_r+0x25e>
 8005c44:	9b04      	ldr	r3, [sp, #16]
 8005c46:	f013 0340 	ands.w	r3, r3, #64	; 0x40
 8005c4a:	f000 81bd 	beq.w	8005fc8 <_svfprintf_r+0x1638>
 8005c4e:	4603      	mov	r3, r0
 8005c50:	980c      	ldr	r0, [sp, #48]	; 0x30
 8005c52:	9d0c      	ldr	r5, [sp, #48]	; 0x30
 8005c54:	1d01      	adds	r1, r0, #4
 8005c56:	882c      	ldrh	r4, [r5, #0]
 8005c58:	910c      	str	r1, [sp, #48]	; 0x30
 8005c5a:	2500      	movs	r5, #0
 8005c5c:	f7fe bf83 	b.w	8004b66 <_svfprintf_r+0x1d6>
 8005c60:	9804      	ldr	r0, [sp, #16]
 8005c62:	0640      	lsls	r0, r0, #25
 8005c64:	f140 81a7 	bpl.w	8005fb6 <_svfprintf_r+0x1626>
 8005c68:	990c      	ldr	r1, [sp, #48]	; 0x30
 8005c6a:	1d08      	adds	r0, r1, #4
 8005c6c:	880c      	ldrh	r4, [r1, #0]
 8005c6e:	900c      	str	r0, [sp, #48]	; 0x30
 8005c70:	2301      	movs	r3, #1
 8005c72:	2500      	movs	r5, #0
 8005c74:	f7fe bf77 	b.w	8004b66 <_svfprintf_r+0x1d6>
 8005c78:	f89a 8000 	ldrb.w	r8, [sl]
 8005c7c:	f7fe beea 	b.w	8004a54 <_svfprintf_r+0xc4>
 8005c80:	9b04      	ldr	r3, [sp, #16]
 8005c82:	06da      	lsls	r2, r3, #27
 8005c84:	f140 81a8 	bpl.w	8005fd8 <_svfprintf_r+0x1648>
 8005c88:	9a0c      	ldr	r2, [sp, #48]	; 0x30
 8005c8a:	980b      	ldr	r0, [sp, #44]	; 0x2c
 8005c8c:	6813      	ldr	r3, [r2, #0]
 8005c8e:	1d14      	adds	r4, r2, #4
 8005c90:	940c      	str	r4, [sp, #48]	; 0x30
 8005c92:	6018      	str	r0, [r3, #0]
 8005c94:	f7fe bea7 	b.w	80049e6 <_svfprintf_r+0x56>
 8005c98:	4856      	ldr	r0, [pc, #344]	; (8005df4 <_svfprintf_r+0x1464>)
 8005c9a:	9922      	ldr	r1, [sp, #136]	; 0x88
 8005c9c:	900a      	str	r0, [sp, #40]	; 0x28
 8005c9e:	1c4b      	adds	r3, r1, #1
 8005ca0:	980a      	ldr	r0, [sp, #40]	; 0x28
 8005ca2:	1964      	adds	r4, r4, r5
 8005ca4:	2b07      	cmp	r3, #7
 8005ca6:	e886 0021 	stmia.w	r6, {r0, r5}
 8005caa:	9423      	str	r4, [sp, #140]	; 0x8c
 8005cac:	9322      	str	r3, [sp, #136]	; 0x88
 8005cae:	f73f aebd 	bgt.w	8005a2c <_svfprintf_r+0x109c>
 8005cb2:	3608      	adds	r6, #8
 8005cb4:	e6c4      	b.n	8005a40 <_svfprintf_r+0x10b0>
 8005cb6:	4604      	mov	r4, r0
 8005cb8:	e65c      	b.n	8005974 <_svfprintf_r+0xfe4>
 8005cba:	4b4e      	ldr	r3, [pc, #312]	; (8005df4 <_svfprintf_r+0x1464>)
 8005cbc:	9a22      	ldr	r2, [sp, #136]	; 0x88
 8005cbe:	9305      	str	r3, [sp, #20]
 8005cc0:	f7ff ba5f 	b.w	8005182 <_svfprintf_r+0x7f2>
 8005cc4:	9808      	ldr	r0, [sp, #32]
 8005cc6:	9906      	ldr	r1, [sp, #24]
 8005cc8:	aa21      	add	r2, sp, #132	; 0x84
 8005cca:	f003 fb09 	bl	80092e0 <__ssprint_r>
 8005cce:	2800      	cmp	r0, #0
 8005cd0:	f47f a81d 	bne.w	8004d0e <_svfprintf_r+0x37e>
 8005cd4:	9c23      	ldr	r4, [sp, #140]	; 0x8c
 8005cd6:	ae2e      	add	r6, sp, #184	; 0xb8
 8005cd8:	f7ff bba4 	b.w	8005424 <_svfprintf_r+0xa94>
 8005cdc:	9a22      	ldr	r2, [sp, #136]	; 0x88
 8005cde:	4b46      	ldr	r3, [pc, #280]	; (8005df8 <_svfprintf_r+0x1468>)
 8005ce0:	1c50      	adds	r0, r2, #1
 8005ce2:	3401      	adds	r4, #1
 8005ce4:	2101      	movs	r1, #1
 8005ce6:	2807      	cmp	r0, #7
 8005ce8:	6033      	str	r3, [r6, #0]
 8005cea:	6071      	str	r1, [r6, #4]
 8005cec:	9423      	str	r4, [sp, #140]	; 0x8c
 8005cee:	9022      	str	r0, [sp, #136]	; 0x88
 8005cf0:	f300 8146 	bgt.w	8005f80 <_svfprintf_r+0x15f0>
 8005cf4:	3608      	adds	r6, #8
 8005cf6:	b92d      	cbnz	r5, 8005d04 <_svfprintf_r+0x1374>
 8005cf8:	9a0d      	ldr	r2, [sp, #52]	; 0x34
 8005cfa:	b91a      	cbnz	r2, 8005d04 <_svfprintf_r+0x1374>
 8005cfc:	9804      	ldr	r0, [sp, #16]
 8005cfe:	07c0      	lsls	r0, r0, #31
 8005d00:	f57f aa5b 	bpl.w	80051ba <_svfprintf_r+0x82a>
 8005d04:	9822      	ldr	r0, [sp, #136]	; 0x88
 8005d06:	9b0f      	ldr	r3, [sp, #60]	; 0x3c
 8005d08:	9911      	ldr	r1, [sp, #68]	; 0x44
 8005d0a:	6033      	str	r3, [r6, #0]
 8005d0c:	1862      	adds	r2, r4, r1
 8005d0e:	1c43      	adds	r3, r0, #1
 8005d10:	9911      	ldr	r1, [sp, #68]	; 0x44
 8005d12:	2b07      	cmp	r3, #7
 8005d14:	6071      	str	r1, [r6, #4]
 8005d16:	9223      	str	r2, [sp, #140]	; 0x8c
 8005d18:	9322      	str	r3, [sp, #136]	; 0x88
 8005d1a:	f300 82c9 	bgt.w	80062b0 <_svfprintf_r+0x1920>
 8005d1e:	3608      	adds	r6, #8
 8005d20:	426d      	negs	r5, r5
 8005d22:	2d00      	cmp	r5, #0
 8005d24:	f340 817f 	ble.w	8006026 <_svfprintf_r+0x1696>
 8005d28:	2d10      	cmp	r5, #16
 8005d2a:	f340 81f4 	ble.w	8006116 <_svfprintf_r+0x1786>
 8005d2e:	2410      	movs	r4, #16
 8005d30:	3301      	adds	r3, #1
 8005d32:	f1a5 0c11 	sub.w	ip, r5, #17
 8005d36:	1912      	adds	r2, r2, r4
 8005d38:	2b07      	cmp	r3, #7
 8005d3a:	f8c6 9000 	str.w	r9, [r6]
 8005d3e:	6074      	str	r4, [r6, #4]
 8005d40:	f8df b0b0 	ldr.w	fp, [pc, #176]	; 8005df4 <_svfprintf_r+0x1464>
 8005d44:	9223      	str	r2, [sp, #140]	; 0x8c
 8005d46:	9322      	str	r3, [sp, #136]	; 0x88
 8005d48:	f3cc 1800 	ubfx	r8, ip, #4, #1
 8005d4c:	f300 82e0 	bgt.w	8006310 <_svfprintf_r+0x1980>
 8005d50:	3608      	adds	r6, #8
 8005d52:	3d10      	subs	r5, #16
 8005d54:	2d10      	cmp	r5, #16
 8005d56:	f340 81e0 	ble.w	800611a <_svfprintf_r+0x178a>
 8005d5a:	f1b8 0f00 	cmp.w	r8, #0
 8005d5e:	d00e      	beq.n	8005d7e <_svfprintf_r+0x13ee>
 8005d60:	3301      	adds	r3, #1
 8005d62:	3210      	adds	r2, #16
 8005d64:	2b07      	cmp	r3, #7
 8005d66:	f8c6 9000 	str.w	r9, [r6]
 8005d6a:	6074      	str	r4, [r6, #4]
 8005d6c:	9223      	str	r2, [sp, #140]	; 0x8c
 8005d6e:	9322      	str	r3, [sp, #136]	; 0x88
 8005d70:	f300 832a 	bgt.w	80063c8 <_svfprintf_r+0x1a38>
 8005d74:	3608      	adds	r6, #8
 8005d76:	3d10      	subs	r5, #16
 8005d78:	2d10      	cmp	r5, #16
 8005d7a:	f340 81ce 	ble.w	800611a <_svfprintf_r+0x178a>
 8005d7e:	4630      	mov	r0, r6
 8005d80:	f8dd 8020 	ldr.w	r8, [sp, #32]
 8005d84:	462e      	mov	r6, r5
 8005d86:	9d06      	ldr	r5, [sp, #24]
 8005d88:	e010      	b.n	8005dac <_svfprintf_r+0x141c>
 8005d8a:	3008      	adds	r0, #8
 8005d8c:	3301      	adds	r3, #1
 8005d8e:	3210      	adds	r2, #16
 8005d90:	3e10      	subs	r6, #16
 8005d92:	2b07      	cmp	r3, #7
 8005d94:	f8c0 9000 	str.w	r9, [r0]
 8005d98:	6044      	str	r4, [r0, #4]
 8005d9a:	9223      	str	r2, [sp, #140]	; 0x8c
 8005d9c:	9322      	str	r3, [sp, #136]	; 0x88
 8005d9e:	f300 80fe 	bgt.w	8005f9e <_svfprintf_r+0x160e>
 8005da2:	3008      	adds	r0, #8
 8005da4:	3e10      	subs	r6, #16
 8005da6:	2e10      	cmp	r6, #16
 8005da8:	f340 828f 	ble.w	80062ca <_svfprintf_r+0x193a>
 8005dac:	3301      	adds	r3, #1
 8005dae:	3210      	adds	r2, #16
 8005db0:	2b07      	cmp	r3, #7
 8005db2:	f8c0 9000 	str.w	r9, [r0]
 8005db6:	6044      	str	r4, [r0, #4]
 8005db8:	9223      	str	r2, [sp, #140]	; 0x8c
 8005dba:	9322      	str	r3, [sp, #136]	; 0x88
 8005dbc:	dde5      	ble.n	8005d8a <_svfprintf_r+0x13fa>
 8005dbe:	4640      	mov	r0, r8
 8005dc0:	4629      	mov	r1, r5
 8005dc2:	aa21      	add	r2, sp, #132	; 0x84
 8005dc4:	f003 fa8c 	bl	80092e0 <__ssprint_r>
 8005dc8:	2800      	cmp	r0, #0
 8005dca:	f47e afa0 	bne.w	8004d0e <_svfprintf_r+0x37e>
 8005dce:	9a23      	ldr	r2, [sp, #140]	; 0x8c
 8005dd0:	9b22      	ldr	r3, [sp, #136]	; 0x88
 8005dd2:	a82e      	add	r0, sp, #184	; 0xb8
 8005dd4:	e7da      	b.n	8005d8c <_svfprintf_r+0x13fc>
 8005dd6:	9a04      	ldr	r2, [sp, #16]
 8005dd8:	f893 8001 	ldrb.w	r8, [r3, #1]
 8005ddc:	f042 0220 	orr.w	r2, r2, #32
 8005de0:	f10a 0a01 	add.w	sl, sl, #1
 8005de4:	9204      	str	r2, [sp, #16]
 8005de6:	f7fe be35 	b.w	8004a54 <_svfprintf_r+0xc4>
 8005dea:	bf00      	nop
 8005dec:	0800e074 	.word	0x0800e074
 8005df0:	0800e078 	.word	0x0800e078
 8005df4:	0800e0b0 	.word	0x0800e0b0
 8005df8:	0800e0ac 	.word	0x0800e0ac
 8005dfc:	9b05      	ldr	r3, [sp, #20]
 8005dfe:	3301      	adds	r3, #1
 8005e00:	f000 80ca 	beq.w	8005f98 <_svfprintf_r+0x1608>
 8005e04:	f1b8 0f67 	cmp.w	r8, #103	; 0x67
 8005e08:	f000 824c 	beq.w	80062a4 <_svfprintf_r+0x1914>
 8005e0c:	f1b8 0f47 	cmp.w	r8, #71	; 0x47
 8005e10:	f000 8248 	beq.w	80062a4 <_svfprintf_r+0x1914>
 8005e14:	9b04      	ldr	r3, [sp, #16]
 8005e16:	2c00      	cmp	r4, #0
 8005e18:	f443 7080 	orr.w	r0, r3, #256	; 0x100
 8005e1c:	9016      	str	r0, [sp, #88]	; 0x58
 8005e1e:	f2c0 826f 	blt.w	8006300 <_svfprintf_r+0x1970>
 8005e22:	2100      	movs	r1, #0
 8005e24:	910e      	str	r1, [sp, #56]	; 0x38
 8005e26:	f1b8 0f66 	cmp.w	r8, #102	; 0x66
 8005e2a:	f000 821c 	beq.w	8006266 <_svfprintf_r+0x18d6>
 8005e2e:	f1b8 0f46 	cmp.w	r8, #70	; 0x46
 8005e32:	f000 8279 	beq.w	8006328 <_svfprintf_r+0x1998>
 8005e36:	f1b8 0f65 	cmp.w	r8, #101	; 0x65
 8005e3a:	f000 824f 	beq.w	80062dc <_svfprintf_r+0x194c>
 8005e3e:	f1b8 0f45 	cmp.w	r8, #69	; 0x45
 8005e42:	f000 824b 	beq.w	80062dc <_svfprintf_r+0x194c>
 8005e46:	f8dd c014 	ldr.w	ip, [sp, #20]
 8005e4a:	462a      	mov	r2, r5
 8005e4c:	4623      	mov	r3, r4
 8005e4e:	a81b      	add	r0, sp, #108	; 0x6c
 8005e50:	a91c      	add	r1, sp, #112	; 0x70
 8005e52:	ec43 2b10 	vmov	d0, r2, r3
 8005e56:	9000      	str	r0, [sp, #0]
 8005e58:	9101      	str	r1, [sp, #4]
 8005e5a:	4662      	mov	r2, ip
 8005e5c:	2102      	movs	r1, #2
 8005e5e:	9808      	ldr	r0, [sp, #32]
 8005e60:	f8cd c008 	str.w	ip, [sp, #8]
 8005e64:	ab1a      	add	r3, sp, #104	; 0x68
 8005e66:	f000 fd13 	bl	8006890 <_dtoa_r>
 8005e6a:	f1b8 0f67 	cmp.w	r8, #103	; 0x67
 8005e6e:	4607      	mov	r7, r0
 8005e70:	f8dd c008 	ldr.w	ip, [sp, #8]
 8005e74:	d002      	beq.n	8005e7c <_svfprintf_r+0x14ec>
 8005e76:	f1b8 0f47 	cmp.w	r8, #71	; 0x47
 8005e7a:	d103      	bne.n	8005e84 <_svfprintf_r+0x14f4>
 8005e7c:	9b04      	ldr	r3, [sp, #16]
 8005e7e:	07d8      	lsls	r0, r3, #31
 8005e80:	f140 8243 	bpl.w	800630a <_svfprintf_r+0x197a>
 8005e84:	f1b8 0f46 	cmp.w	r8, #70	; 0x46
 8005e88:	eb07 0b0c 	add.w	fp, r7, ip
 8005e8c:	f000 81fe 	beq.w	800628c <_svfprintf_r+0x18fc>
 8005e90:	4628      	mov	r0, r5
 8005e92:	4621      	mov	r1, r4
 8005e94:	2200      	movs	r2, #0
 8005e96:	2300      	movs	r3, #0
 8005e98:	f7fc fbde 	bl	8002658 <__aeabi_dcmpeq>
 8005e9c:	b9f0      	cbnz	r0, 8005edc <_svfprintf_r+0x154c>
 8005e9e:	9c1c      	ldr	r4, [sp, #112]	; 0x70
 8005ea0:	45a3      	cmp	fp, r4
 8005ea2:	f240 82f5 	bls.w	8006490 <_svfprintf_r+0x1b00>
 8005ea6:	4623      	mov	r3, r4
 8005ea8:	2130      	movs	r1, #48	; 0x30
 8005eaa:	f803 1b01 	strb.w	r1, [r3], #1
 8005eae:	43e0      	mvns	r0, r4
 8005eb0:	eb0b 0200 	add.w	r2, fp, r0
 8005eb4:	455b      	cmp	r3, fp
 8005eb6:	931c      	str	r3, [sp, #112]	; 0x70
 8005eb8:	f002 0001 	and.w	r0, r2, #1
 8005ebc:	d00d      	beq.n	8005eda <_svfprintf_r+0x154a>
 8005ebe:	b120      	cbz	r0, 8005eca <_svfprintf_r+0x153a>
 8005ec0:	3301      	adds	r3, #1
 8005ec2:	455b      	cmp	r3, fp
 8005ec4:	7061      	strb	r1, [r4, #1]
 8005ec6:	931c      	str	r3, [sp, #112]	; 0x70
 8005ec8:	d007      	beq.n	8005eda <_svfprintf_r+0x154a>
 8005eca:	461c      	mov	r4, r3
 8005ecc:	f804 1b01 	strb.w	r1, [r4], #1
 8005ed0:	7059      	strb	r1, [r3, #1]
 8005ed2:	1c63      	adds	r3, r4, #1
 8005ed4:	455b      	cmp	r3, fp
 8005ed6:	931c      	str	r3, [sp, #112]	; 0x70
 8005ed8:	d1f7      	bne.n	8005eca <_svfprintf_r+0x153a>
 8005eda:	469b      	mov	fp, r3
 8005edc:	ebc7 010b 	rsb	r1, r7, fp
 8005ee0:	f1b8 0f67 	cmp.w	r8, #103	; 0x67
 8005ee4:	910d      	str	r1, [sp, #52]	; 0x34
 8005ee6:	f000 815d 	beq.w	80061a4 <_svfprintf_r+0x1814>
 8005eea:	f1b8 0f47 	cmp.w	r8, #71	; 0x47
 8005eee:	f000 8159 	beq.w	80061a4 <_svfprintf_r+0x1814>
 8005ef2:	f1b8 0f66 	cmp.w	r8, #102	; 0x66
 8005ef6:	f040 82c9 	bne.w	800648c <_svfprintf_r+0x1afc>
 8005efa:	9a1a      	ldr	r2, [sp, #104]	; 0x68
 8005efc:	2a00      	cmp	r2, #0
 8005efe:	f340 8290 	ble.w	8006422 <_svfprintf_r+0x1a92>
 8005f02:	9c05      	ldr	r4, [sp, #20]
 8005f04:	2c00      	cmp	r4, #0
 8005f06:	f040 826b 	bne.w	80063e0 <_svfprintf_r+0x1a50>
 8005f0a:	9904      	ldr	r1, [sp, #16]
 8005f0c:	07cb      	lsls	r3, r1, #31
 8005f0e:	f100 8267 	bmi.w	80063e0 <_svfprintf_r+0x1a50>
 8005f12:	ea22 70e2 	bic.w	r0, r2, r2, asr #31
 8005f16:	9007      	str	r0, [sp, #28]
 8005f18:	920a      	str	r2, [sp, #40]	; 0x28
 8005f1a:	9210      	str	r2, [sp, #64]	; 0x40
 8005f1c:	9c0e      	ldr	r4, [sp, #56]	; 0x38
 8005f1e:	2c00      	cmp	r4, #0
 8005f20:	f000 813a 	beq.w	8006198 <_svfprintf_r+0x1808>
 8005f24:	9816      	ldr	r0, [sp, #88]	; 0x58
 8005f26:	212d      	movs	r1, #45	; 0x2d
 8005f28:	2400      	movs	r4, #0
 8005f2a:	f88d 1063 	strb.w	r1, [sp, #99]	; 0x63
 8005f2e:	9004      	str	r0, [sp, #16]
 8005f30:	940e      	str	r4, [sp, #56]	; 0x38
 8005f32:	f7fe be5d 	b.w	8004bf0 <_svfprintf_r+0x260>
 8005f36:	9b0a      	ldr	r3, [sp, #40]	; 0x28
 8005f38:	950c      	str	r5, [sp, #48]	; 0x30
 8005f3a:	ea23 72e3 	bic.w	r2, r3, r3, asr #31
 8005f3e:	9207      	str	r2, [sp, #28]
 8005f40:	f89d 3063 	ldrb.w	r3, [sp, #99]	; 0x63
 8005f44:	9410      	str	r4, [sp, #64]	; 0x40
 8005f46:	f7fe be52 	b.w	8004bee <_svfprintf_r+0x25e>
 8005f4a:	9808      	ldr	r0, [sp, #32]
 8005f4c:	9906      	ldr	r1, [sp, #24]
 8005f4e:	aa21      	add	r2, sp, #132	; 0x84
 8005f50:	f003 f9c6 	bl	80092e0 <__ssprint_r>
 8005f54:	2800      	cmp	r0, #0
 8005f56:	f47e aeda 	bne.w	8004d0e <_svfprintf_r+0x37e>
 8005f5a:	9c23      	ldr	r4, [sp, #140]	; 0x8c
 8005f5c:	ae2e      	add	r6, sp, #184	; 0xb8
 8005f5e:	f7ff ba76 	b.w	800544e <_svfprintf_r+0xabe>
 8005f62:	2140      	movs	r1, #64	; 0x40
 8005f64:	9808      	ldr	r0, [sp, #32]
 8005f66:	f001 fe0f 	bl	8007b88 <_malloc_r>
 8005f6a:	9906      	ldr	r1, [sp, #24]
 8005f6c:	6008      	str	r0, [r1, #0]
 8005f6e:	6108      	str	r0, [r1, #16]
 8005f70:	2800      	cmp	r0, #0
 8005f72:	f000 828f 	beq.w	8006494 <_svfprintf_r+0x1b04>
 8005f76:	9a06      	ldr	r2, [sp, #24]
 8005f78:	2640      	movs	r6, #64	; 0x40
 8005f7a:	6156      	str	r6, [r2, #20]
 8005f7c:	f7fe bd25 	b.w	80049ca <_svfprintf_r+0x3a>
 8005f80:	9808      	ldr	r0, [sp, #32]
 8005f82:	9906      	ldr	r1, [sp, #24]
 8005f84:	aa21      	add	r2, sp, #132	; 0x84
 8005f86:	f003 f9ab 	bl	80092e0 <__ssprint_r>
 8005f8a:	2800      	cmp	r0, #0
 8005f8c:	f47e aebf 	bne.w	8004d0e <_svfprintf_r+0x37e>
 8005f90:	9d1a      	ldr	r5, [sp, #104]	; 0x68
 8005f92:	9c23      	ldr	r4, [sp, #140]	; 0x8c
 8005f94:	ae2e      	add	r6, sp, #184	; 0xb8
 8005f96:	e6ae      	b.n	8005cf6 <_svfprintf_r+0x1366>
 8005f98:	2706      	movs	r7, #6
 8005f9a:	9705      	str	r7, [sp, #20]
 8005f9c:	e73a      	b.n	8005e14 <_svfprintf_r+0x1484>
 8005f9e:	4640      	mov	r0, r8
 8005fa0:	4629      	mov	r1, r5
 8005fa2:	aa21      	add	r2, sp, #132	; 0x84
 8005fa4:	f003 f99c 	bl	80092e0 <__ssprint_r>
 8005fa8:	2800      	cmp	r0, #0
 8005faa:	f47e aeb0 	bne.w	8004d0e <_svfprintf_r+0x37e>
 8005fae:	a82e      	add	r0, sp, #184	; 0xb8
 8005fb0:	9a23      	ldr	r2, [sp, #140]	; 0x8c
 8005fb2:	9b22      	ldr	r3, [sp, #136]	; 0x88
 8005fb4:	e6f6      	b.n	8005da4 <_svfprintf_r+0x1414>
 8005fb6:	9a0c      	ldr	r2, [sp, #48]	; 0x30
 8005fb8:	6817      	ldr	r7, [r2, #0]
 8005fba:	1d13      	adds	r3, r2, #4
 8005fbc:	930c      	str	r3, [sp, #48]	; 0x30
 8005fbe:	463c      	mov	r4, r7
 8005fc0:	2500      	movs	r5, #0
 8005fc2:	2301      	movs	r3, #1
 8005fc4:	f7fe bdcf 	b.w	8004b66 <_svfprintf_r+0x1d6>
 8005fc8:	990c      	ldr	r1, [sp, #48]	; 0x30
 8005fca:	680a      	ldr	r2, [r1, #0]
 8005fcc:	1d0f      	adds	r7, r1, #4
 8005fce:	4614      	mov	r4, r2
 8005fd0:	2500      	movs	r5, #0
 8005fd2:	970c      	str	r7, [sp, #48]	; 0x30
 8005fd4:	f7fe bdc7 	b.w	8004b66 <_svfprintf_r+0x1d6>
 8005fd8:	9a04      	ldr	r2, [sp, #16]
 8005fda:	0653      	lsls	r3, r2, #25
 8005fdc:	f140 80d4 	bpl.w	8006188 <_svfprintf_r+0x17f8>
 8005fe0:	9a0c      	ldr	r2, [sp, #48]	; 0x30
 8005fe2:	990b      	ldr	r1, [sp, #44]	; 0x2c
 8005fe4:	6814      	ldr	r4, [r2, #0]
 8005fe6:	1d10      	adds	r0, r2, #4
 8005fe8:	900c      	str	r0, [sp, #48]	; 0x30
 8005fea:	8021      	strh	r1, [r4, #0]
 8005fec:	f7fe bcfb 	b.w	80049e6 <_svfprintf_r+0x56>
 8005ff0:	460c      	mov	r4, r1
 8005ff2:	f7ff bb01 	b.w	80055f8 <_svfprintf_r+0xc68>
 8005ff6:	f7fe fbb5 	bl	8004764 <strlen>
 8005ffa:	ea20 71e0 	bic.w	r1, r0, r0, asr #31
 8005ffe:	900a      	str	r0, [sp, #40]	; 0x28
 8006000:	940e      	str	r4, [sp, #56]	; 0x38
 8006002:	9107      	str	r1, [sp, #28]
 8006004:	f89d 3063 	ldrb.w	r3, [sp, #99]	; 0x63
 8006008:	950c      	str	r5, [sp, #48]	; 0x30
 800600a:	9410      	str	r4, [sp, #64]	; 0x40
 800600c:	f7fe bdef 	b.w	8004bee <_svfprintf_r+0x25e>
 8006010:	9808      	ldr	r0, [sp, #32]
 8006012:	9906      	ldr	r1, [sp, #24]
 8006014:	aa21      	add	r2, sp, #132	; 0x84
 8006016:	f003 f963 	bl	80092e0 <__ssprint_r>
 800601a:	2800      	cmp	r0, #0
 800601c:	f47e ae77 	bne.w	8004d0e <_svfprintf_r+0x37e>
 8006020:	9a23      	ldr	r2, [sp, #140]	; 0x8c
 8006022:	9b22      	ldr	r3, [sp, #136]	; 0x88
 8006024:	ae2e      	add	r6, sp, #184	; 0xb8
 8006026:	990d      	ldr	r1, [sp, #52]	; 0x34
 8006028:	6037      	str	r7, [r6, #0]
 800602a:	1854      	adds	r4, r2, r1
 800602c:	1c5a      	adds	r2, r3, #1
 800602e:	2a07      	cmp	r2, #7
 8006030:	6071      	str	r1, [r6, #4]
 8006032:	9423      	str	r4, [sp, #140]	; 0x8c
 8006034:	9222      	str	r2, [sp, #136]	; 0x88
 8006036:	f77f a8bf 	ble.w	80051b8 <_svfprintf_r+0x828>
 800603a:	f7ff b96d 	b.w	8005318 <_svfprintf_r+0x988>
 800603e:	48a4      	ldr	r0, [pc, #656]	; (80062d0 <_svfprintf_r+0x1940>)
 8006040:	9923      	ldr	r1, [sp, #140]	; 0x8c
 8006042:	9a22      	ldr	r2, [sp, #136]	; 0x88
 8006044:	9016      	str	r0, [sp, #88]	; 0x58
 8006046:	f7ff b801 	b.w	800504c <_svfprintf_r+0x6bc>
 800604a:	4604      	mov	r4, r0
 800604c:	e627      	b.n	8005c9e <_svfprintf_r+0x130e>
 800604e:	9808      	ldr	r0, [sp, #32]
 8006050:	9906      	ldr	r1, [sp, #24]
 8006052:	aa21      	add	r2, sp, #132	; 0x84
 8006054:	f003 f944 	bl	80092e0 <__ssprint_r>
 8006058:	2800      	cmp	r0, #0
 800605a:	f47e ae58 	bne.w	8004d0e <_svfprintf_r+0x37e>
 800605e:	ae2e      	add	r6, sp, #184	; 0xb8
 8006060:	9c23      	ldr	r4, [sp, #140]	; 0x8c
 8006062:	9d22      	ldr	r5, [sp, #136]	; 0x88
 8006064:	e434      	b.n	80058d0 <_svfprintf_r+0xf40>
 8006066:	9808      	ldr	r0, [sp, #32]
 8006068:	9906      	ldr	r1, [sp, #24]
 800606a:	aa21      	add	r2, sp, #132	; 0x84
 800606c:	f003 f938 	bl	80092e0 <__ssprint_r>
 8006070:	2800      	cmp	r0, #0
 8006072:	f47e ae4c 	bne.w	8004d0e <_svfprintf_r+0x37e>
 8006076:	ae2e      	add	r6, sp, #184	; 0xb8
 8006078:	9c23      	ldr	r4, [sp, #140]	; 0x8c
 800607a:	9d22      	ldr	r5, [sp, #136]	; 0x88
 800607c:	e43b      	b.n	80058f6 <_svfprintf_r+0xf66>
 800607e:	9808      	ldr	r0, [sp, #32]
 8006080:	9906      	ldr	r1, [sp, #24]
 8006082:	aa21      	add	r2, sp, #132	; 0x84
 8006084:	f003 f92c 	bl	80092e0 <__ssprint_r>
 8006088:	2800      	cmp	r0, #0
 800608a:	f47e ae40 	bne.w	8004d0e <_svfprintf_r+0x37e>
 800608e:	ae2e      	add	r6, sp, #184	; 0xb8
 8006090:	9c23      	ldr	r4, [sp, #140]	; 0x8c
 8006092:	9922      	ldr	r1, [sp, #136]	; 0x88
 8006094:	f7ff bb9d 	b.w	80057d2 <_svfprintf_r+0xe42>
 8006098:	9808      	ldr	r0, [sp, #32]
 800609a:	9906      	ldr	r1, [sp, #24]
 800609c:	aa21      	add	r2, sp, #132	; 0x84
 800609e:	f003 f91f 	bl	80092e0 <__ssprint_r>
 80060a2:	2800      	cmp	r0, #0
 80060a4:	f47e ae33 	bne.w	8004d0e <_svfprintf_r+0x37e>
 80060a8:	9c23      	ldr	r4, [sp, #140]	; 0x8c
 80060aa:	ae2e      	add	r6, sp, #184	; 0xb8
 80060ac:	f7ff bb72 	b.w	8005794 <_svfprintf_r+0xe04>
 80060b0:	9808      	ldr	r0, [sp, #32]
 80060b2:	9906      	ldr	r1, [sp, #24]
 80060b4:	aa21      	add	r2, sp, #132	; 0x84
 80060b6:	f003 f913 	bl	80092e0 <__ssprint_r>
 80060ba:	2800      	cmp	r0, #0
 80060bc:	f47e ae27 	bne.w	8004d0e <_svfprintf_r+0x37e>
 80060c0:	ae2e      	add	r6, sp, #184	; 0xb8
 80060c2:	9c23      	ldr	r4, [sp, #140]	; 0x8c
 80060c4:	9922      	ldr	r1, [sp, #136]	; 0x88
 80060c6:	f7ff b9de 	b.w	8005486 <_svfprintf_r+0xaf6>
 80060ca:	9808      	ldr	r0, [sp, #32]
 80060cc:	9906      	ldr	r1, [sp, #24]
 80060ce:	aa21      	add	r2, sp, #132	; 0x84
 80060d0:	f003 f906 	bl	80092e0 <__ssprint_r>
 80060d4:	2800      	cmp	r0, #0
 80060d6:	f47e ae1a 	bne.w	8004d0e <_svfprintf_r+0x37e>
 80060da:	ae2e      	add	r6, sp, #184	; 0xb8
 80060dc:	9c23      	ldr	r4, [sp, #140]	; 0x8c
 80060de:	9922      	ldr	r1, [sp, #136]	; 0x88
 80060e0:	f7ff b9e3 	b.w	80054aa <_svfprintf_r+0xb1a>
 80060e4:	9808      	ldr	r0, [sp, #32]
 80060e6:	9906      	ldr	r1, [sp, #24]
 80060e8:	aa21      	add	r2, sp, #132	; 0x84
 80060ea:	f003 f8f9 	bl	80092e0 <__ssprint_r>
 80060ee:	2800      	cmp	r0, #0
 80060f0:	f47e ae0d 	bne.w	8004d0e <_svfprintf_r+0x37e>
 80060f4:	ae2e      	add	r6, sp, #184	; 0xb8
 80060f6:	9c23      	ldr	r4, [sp, #140]	; 0x8c
 80060f8:	9922      	ldr	r1, [sp, #136]	; 0x88
 80060fa:	f7ff bb7d 	b.w	80057f8 <_svfprintf_r+0xe68>
 80060fe:	9808      	ldr	r0, [sp, #32]
 8006100:	9906      	ldr	r1, [sp, #24]
 8006102:	aa21      	add	r2, sp, #132	; 0x84
 8006104:	f003 f8ec 	bl	80092e0 <__ssprint_r>
 8006108:	2800      	cmp	r0, #0
 800610a:	f47e ae00 	bne.w	8004d0e <_svfprintf_r+0x37e>
 800610e:	9b1a      	ldr	r3, [sp, #104]	; 0x68
 8006110:	9c23      	ldr	r4, [sp, #140]	; 0x8c
 8006112:	ae2e      	add	r6, sp, #184	; 0xb8
 8006114:	e49d      	b.n	8005a52 <_svfprintf_r+0x10c2>
 8006116:	f8df b1c0 	ldr.w	fp, [pc, #448]	; 80062d8 <_svfprintf_r+0x1948>
 800611a:	3301      	adds	r3, #1
 800611c:	1952      	adds	r2, r2, r5
 800611e:	2b07      	cmp	r3, #7
 8006120:	f8c6 b000 	str.w	fp, [r6]
 8006124:	6075      	str	r5, [r6, #4]
 8006126:	9223      	str	r2, [sp, #140]	; 0x8c
 8006128:	9322      	str	r3, [sp, #136]	; 0x88
 800612a:	f73f af71 	bgt.w	8006010 <_svfprintf_r+0x1680>
 800612e:	3608      	adds	r6, #8
 8006130:	e779      	b.n	8006026 <_svfprintf_r+0x1696>
 8006132:	9808      	ldr	r0, [sp, #32]
 8006134:	9906      	ldr	r1, [sp, #24]
 8006136:	aa21      	add	r2, sp, #132	; 0x84
 8006138:	f003 f8d2 	bl	80092e0 <__ssprint_r>
 800613c:	2800      	cmp	r0, #0
 800613e:	f47e ade6 	bne.w	8004d0e <_svfprintf_r+0x37e>
 8006142:	ae2e      	add	r6, sp, #184	; 0xb8
 8006144:	9c23      	ldr	r4, [sp, #140]	; 0x8c
 8006146:	9922      	ldr	r1, [sp, #136]	; 0x88
 8006148:	e4b3      	b.n	8005ab2 <_svfprintf_r+0x1122>
 800614a:	9808      	ldr	r0, [sp, #32]
 800614c:	9906      	ldr	r1, [sp, #24]
 800614e:	aa21      	add	r2, sp, #132	; 0x84
 8006150:	f003 f8c6 	bl	80092e0 <__ssprint_r>
 8006154:	2800      	cmp	r0, #0
 8006156:	f47e adda 	bne.w	8004d0e <_svfprintf_r+0x37e>
 800615a:	9e1a      	ldr	r6, [sp, #104]	; 0x68
 800615c:	9b0d      	ldr	r3, [sp, #52]	; 0x34
 800615e:	9c23      	ldr	r4, [sp, #140]	; 0x8c
 8006160:	1b99      	subs	r1, r3, r6
 8006162:	ae2e      	add	r6, sp, #184	; 0xb8
 8006164:	e489      	b.n	8005a7a <_svfprintf_r+0x10ea>
 8006166:	9f05      	ldr	r7, [sp, #20]
 8006168:	950c      	str	r5, [sp, #48]	; 0x30
 800616a:	2f06      	cmp	r7, #6
 800616c:	bf28      	it	cs
 800616e:	2706      	movcs	r7, #6
 8006170:	ea27 74e7 	bic.w	r4, r7, r7, asr #31
 8006174:	970a      	str	r7, [sp, #40]	; 0x28
 8006176:	9407      	str	r4, [sp, #28]
 8006178:	4f56      	ldr	r7, [pc, #344]	; (80062d4 <_svfprintf_r+0x1944>)
 800617a:	f7fe beb9 	b.w	8004ef0 <_svfprintf_r+0x560>
 800617e:	9922      	ldr	r1, [sp, #136]	; 0x88
 8006180:	f8df 814c 	ldr.w	r8, [pc, #332]	; 80062d0 <_svfprintf_r+0x1940>
 8006184:	f7ff b8f6 	b.w	8005374 <_svfprintf_r+0x9e4>
 8006188:	980c      	ldr	r0, [sp, #48]	; 0x30
 800618a:	9b0b      	ldr	r3, [sp, #44]	; 0x2c
 800618c:	6801      	ldr	r1, [r0, #0]
 800618e:	1d04      	adds	r4, r0, #4
 8006190:	940c      	str	r4, [sp, #48]	; 0x30
 8006192:	600b      	str	r3, [r1, #0]
 8006194:	f7fe bc27 	b.w	80049e6 <_svfprintf_r+0x56>
 8006198:	9a16      	ldr	r2, [sp, #88]	; 0x58
 800619a:	f89d 3063 	ldrb.w	r3, [sp, #99]	; 0x63
 800619e:	9204      	str	r2, [sp, #16]
 80061a0:	f7fe bd25 	b.w	8004bee <_svfprintf_r+0x25e>
 80061a4:	9a1a      	ldr	r2, [sp, #104]	; 0x68
 80061a6:	1cd1      	adds	r1, r2, #3
 80061a8:	4613      	mov	r3, r2
 80061aa:	db02      	blt.n	80061b2 <_svfprintf_r+0x1822>
 80061ac:	9c05      	ldr	r4, [sp, #20]
 80061ae:	4294      	cmp	r4, r2
 80061b0:	da28      	bge.n	8006204 <_svfprintf_r+0x1874>
 80061b2:	f1a8 0802 	sub.w	r8, r8, #2
 80061b6:	3b01      	subs	r3, #1
 80061b8:	2b00      	cmp	r3, #0
 80061ba:	931a      	str	r3, [sp, #104]	; 0x68
 80061bc:	f88d 8074 	strb.w	r8, [sp, #116]	; 0x74
 80061c0:	f2c0 8151 	blt.w	8006466 <_svfprintf_r+0x1ad6>
 80061c4:	222b      	movs	r2, #43	; 0x2b
 80061c6:	f88d 2075 	strb.w	r2, [sp, #117]	; 0x75
 80061ca:	2b09      	cmp	r3, #9
 80061cc:	f300 80c0 	bgt.w	8006350 <_svfprintf_r+0x19c0>
 80061d0:	3330      	adds	r3, #48	; 0x30
 80061d2:	2030      	movs	r0, #48	; 0x30
 80061d4:	f88d 0076 	strb.w	r0, [sp, #118]	; 0x76
 80061d8:	f88d 3077 	strb.w	r3, [sp, #119]	; 0x77
 80061dc:	ac1e      	add	r4, sp, #120	; 0x78
 80061de:	aa1d      	add	r2, sp, #116	; 0x74
 80061e0:	980d      	ldr	r0, [sp, #52]	; 0x34
 80061e2:	9b0d      	ldr	r3, [sp, #52]	; 0x34
 80061e4:	1aa1      	subs	r1, r4, r2
 80061e6:	1844      	adds	r4, r0, r1
 80061e8:	2b01      	cmp	r3, #1
 80061ea:	9115      	str	r1, [sp, #84]	; 0x54
 80061ec:	940a      	str	r4, [sp, #40]	; 0x28
 80061ee:	f340 813f 	ble.w	8006470 <_svfprintf_r+0x1ae0>
 80061f2:	9b0a      	ldr	r3, [sp, #40]	; 0x28
 80061f4:	1c5a      	adds	r2, r3, #1
 80061f6:	ea22 71e2 	bic.w	r1, r2, r2, asr #31
 80061fa:	2000      	movs	r0, #0
 80061fc:	920a      	str	r2, [sp, #40]	; 0x28
 80061fe:	9107      	str	r1, [sp, #28]
 8006200:	9010      	str	r0, [sp, #64]	; 0x40
 8006202:	e68b      	b.n	8005f1c <_svfprintf_r+0x158c>
 8006204:	990d      	ldr	r1, [sp, #52]	; 0x34
 8006206:	428a      	cmp	r2, r1
 8006208:	db6c      	blt.n	80062e4 <_svfprintf_r+0x1954>
 800620a:	9904      	ldr	r1, [sp, #16]
 800620c:	07c8      	lsls	r0, r1, #31
 800620e:	f100 8100 	bmi.w	8006412 <_svfprintf_r+0x1a82>
 8006212:	ea22 70e2 	bic.w	r0, r2, r2, asr #31
 8006216:	9007      	str	r0, [sp, #28]
 8006218:	920a      	str	r2, [sp, #40]	; 0x28
 800621a:	f04f 0867 	mov.w	r8, #103	; 0x67
 800621e:	e67c      	b.n	8005f1a <_svfprintf_r+0x158a>
 8006220:	9808      	ldr	r0, [sp, #32]
 8006222:	9906      	ldr	r1, [sp, #24]
 8006224:	aa21      	add	r2, sp, #132	; 0x84
 8006226:	f003 f85b 	bl	80092e0 <__ssprint_r>
 800622a:	2800      	cmp	r0, #0
 800622c:	f47e ad6f 	bne.w	8004d0e <_svfprintf_r+0x37e>
 8006230:	ae2e      	add	r6, sp, #184	; 0xb8
 8006232:	9c23      	ldr	r4, [sp, #140]	; 0x8c
 8006234:	9922      	ldr	r1, [sp, #136]	; 0x88
 8006236:	e44e      	b.n	8005ad6 <_svfprintf_r+0x1146>
 8006238:	232d      	movs	r3, #45	; 0x2d
 800623a:	f88d 3063 	strb.w	r3, [sp, #99]	; 0x63
 800623e:	f7fe bdb3 	b.w	8004da8 <_svfprintf_r+0x418>
 8006242:	4925      	ldr	r1, [pc, #148]	; (80062d8 <_svfprintf_r+0x1948>)
 8006244:	9822      	ldr	r0, [sp, #136]	; 0x88
 8006246:	9105      	str	r1, [sp, #20]
 8006248:	f7ff b9c8 	b.w	80055dc <_svfprintf_r+0xc4c>
 800624c:	9b05      	ldr	r3, [sp, #20]
 800624e:	9a05      	ldr	r2, [sp, #20]
 8006250:	900e      	str	r0, [sp, #56]	; 0x38
 8006252:	ea23 74e3 	bic.w	r4, r3, r3, asr #31
 8006256:	9407      	str	r4, [sp, #28]
 8006258:	f89d 3063 	ldrb.w	r3, [sp, #99]	; 0x63
 800625c:	950c      	str	r5, [sp, #48]	; 0x30
 800625e:	920a      	str	r2, [sp, #40]	; 0x28
 8006260:	9010      	str	r0, [sp, #64]	; 0x40
 8006262:	f7fe bcc4 	b.w	8004bee <_svfprintf_r+0x25e>
 8006266:	462a      	mov	r2, r5
 8006268:	4623      	mov	r3, r4
 800626a:	a91b      	add	r1, sp, #108	; 0x6c
 800626c:	af1c      	add	r7, sp, #112	; 0x70
 800626e:	ec43 2b10 	vmov	d0, r2, r3
 8006272:	9100      	str	r1, [sp, #0]
 8006274:	9701      	str	r7, [sp, #4]
 8006276:	ab1a      	add	r3, sp, #104	; 0x68
 8006278:	9808      	ldr	r0, [sp, #32]
 800627a:	9a05      	ldr	r2, [sp, #20]
 800627c:	2103      	movs	r1, #3
 800627e:	f000 fb07 	bl	8006890 <_dtoa_r>
 8006282:	9b05      	ldr	r3, [sp, #20]
 8006284:	4607      	mov	r7, r0
 8006286:	eb00 0b03 	add.w	fp, r0, r3
 800628a:	469c      	mov	ip, r3
 800628c:	7838      	ldrb	r0, [r7, #0]
 800628e:	2830      	cmp	r0, #48	; 0x30
 8006290:	f000 80ae 	beq.w	80063f0 <_svfprintf_r+0x1a60>
 8006294:	9a1a      	ldr	r2, [sp, #104]	; 0x68
 8006296:	4493      	add	fp, r2
 8006298:	e5fa      	b.n	8005e90 <_svfprintf_r+0x1500>
 800629a:	2200      	movs	r2, #0
 800629c:	46a2      	mov	sl, r4
 800629e:	9205      	str	r2, [sp, #20]
 80062a0:	f7fe bbda 	b.w	8004a58 <_svfprintf_r+0xc8>
 80062a4:	9805      	ldr	r0, [sp, #20]
 80062a6:	2800      	cmp	r0, #0
 80062a8:	bf08      	it	eq
 80062aa:	2001      	moveq	r0, #1
 80062ac:	9005      	str	r0, [sp, #20]
 80062ae:	e5b1      	b.n	8005e14 <_svfprintf_r+0x1484>
 80062b0:	9808      	ldr	r0, [sp, #32]
 80062b2:	9906      	ldr	r1, [sp, #24]
 80062b4:	aa21      	add	r2, sp, #132	; 0x84
 80062b6:	f003 f813 	bl	80092e0 <__ssprint_r>
 80062ba:	2800      	cmp	r0, #0
 80062bc:	f47e ad27 	bne.w	8004d0e <_svfprintf_r+0x37e>
 80062c0:	9d1a      	ldr	r5, [sp, #104]	; 0x68
 80062c2:	9a23      	ldr	r2, [sp, #140]	; 0x8c
 80062c4:	9b22      	ldr	r3, [sp, #136]	; 0x88
 80062c6:	ae2e      	add	r6, sp, #184	; 0xb8
 80062c8:	e52a      	b.n	8005d20 <_svfprintf_r+0x1390>
 80062ca:	4635      	mov	r5, r6
 80062cc:	4606      	mov	r6, r0
 80062ce:	e724      	b.n	800611a <_svfprintf_r+0x178a>
 80062d0:	0800e0c0 	.word	0x0800e0c0
 80062d4:	0800e0a4 	.word	0x0800e0a4
 80062d8:	0800e0b0 	.word	0x0800e0b0
 80062dc:	9a05      	ldr	r2, [sp, #20]
 80062de:	f102 0c01 	add.w	ip, r2, #1
 80062e2:	e5b2      	b.n	8005e4a <_svfprintf_r+0x14ba>
 80062e4:	2a00      	cmp	r2, #0
 80062e6:	980d      	ldr	r0, [sp, #52]	; 0x34
 80062e8:	bfd4      	ite	le
 80062ea:	f1c2 0302 	rsble	r3, r2, #2
 80062ee:	2301      	movgt	r3, #1
 80062f0:	181b      	adds	r3, r3, r0
 80062f2:	ea23 74e3 	bic.w	r4, r3, r3, asr #31
 80062f6:	930a      	str	r3, [sp, #40]	; 0x28
 80062f8:	9407      	str	r4, [sp, #28]
 80062fa:	f04f 0867 	mov.w	r8, #103	; 0x67
 80062fe:	e60c      	b.n	8005f1a <_svfprintf_r+0x158a>
 8006300:	272d      	movs	r7, #45	; 0x2d
 8006302:	f104 4400 	add.w	r4, r4, #2147483648	; 0x80000000
 8006306:	970e      	str	r7, [sp, #56]	; 0x38
 8006308:	e58d      	b.n	8005e26 <_svfprintf_r+0x1496>
 800630a:	f8dd b070 	ldr.w	fp, [sp, #112]	; 0x70
 800630e:	e5e5      	b.n	8005edc <_svfprintf_r+0x154c>
 8006310:	9808      	ldr	r0, [sp, #32]
 8006312:	9906      	ldr	r1, [sp, #24]
 8006314:	aa21      	add	r2, sp, #132	; 0x84
 8006316:	f002 ffe3 	bl	80092e0 <__ssprint_r>
 800631a:	2800      	cmp	r0, #0
 800631c:	f47e acf7 	bne.w	8004d0e <_svfprintf_r+0x37e>
 8006320:	ae2e      	add	r6, sp, #184	; 0xb8
 8006322:	9a23      	ldr	r2, [sp, #140]	; 0x8c
 8006324:	9b22      	ldr	r3, [sp, #136]	; 0x88
 8006326:	e514      	b.n	8005d52 <_svfprintf_r+0x13c2>
 8006328:	462a      	mov	r2, r5
 800632a:	4623      	mov	r3, r4
 800632c:	af1b      	add	r7, sp, #108	; 0x6c
 800632e:	a81c      	add	r0, sp, #112	; 0x70
 8006330:	ec43 2b10 	vmov	d0, r2, r3
 8006334:	9700      	str	r7, [sp, #0]
 8006336:	9001      	str	r0, [sp, #4]
 8006338:	9a05      	ldr	r2, [sp, #20]
 800633a:	9808      	ldr	r0, [sp, #32]
 800633c:	2103      	movs	r1, #3
 800633e:	ab1a      	add	r3, sp, #104	; 0x68
 8006340:	f000 faa6 	bl	8006890 <_dtoa_r>
 8006344:	9a05      	ldr	r2, [sp, #20]
 8006346:	4607      	mov	r7, r0
 8006348:	eb00 0b02 	add.w	fp, r0, r2
 800634c:	4694      	mov	ip, r2
 800634e:	e79d      	b.n	800628c <_svfprintf_r+0x18fc>
 8006350:	f246 6467 	movw	r4, #26215	; 0x6667
 8006354:	f10d 0182 	add.w	r1, sp, #130	; 0x82
 8006358:	f2c6 6466 	movt	r4, #26214	; 0x6666
 800635c:	fb84 2503 	smull	r2, r5, r4, r3
 8006360:	17da      	asrs	r2, r3, #31
 8006362:	ebc2 00a5 	rsb	r0, r2, r5, asr #2
 8006366:	eb00 0580 	add.w	r5, r0, r0, lsl #2
 800636a:	460a      	mov	r2, r1
 800636c:	eba3 0345 	sub.w	r3, r3, r5, lsl #1
 8006370:	f103 0130 	add.w	r1, r3, #48	; 0x30
 8006374:	7011      	strb	r1, [r2, #0]
 8006376:	1e51      	subs	r1, r2, #1
 8006378:	2809      	cmp	r0, #9
 800637a:	4603      	mov	r3, r0
 800637c:	dcee      	bgt.n	800635c <_svfprintf_r+0x19cc>
 800637e:	3330      	adds	r3, #48	; 0x30
 8006380:	f10d 0583 	add.w	r5, sp, #131	; 0x83
 8006384:	b2d8      	uxtb	r0, r3
 8006386:	428d      	cmp	r5, r1
 8006388:	f802 0c01 	strb.w	r0, [r2, #-1]
 800638c:	d97b      	bls.n	8006486 <_svfprintf_r+0x1af6>
 800638e:	1aac      	subs	r4, r5, r2
 8006390:	07e4      	lsls	r4, r4, #31
 8006392:	f10d 0175 	add.w	r1, sp, #117	; 0x75
 8006396:	4613      	mov	r3, r2
 8006398:	d50d      	bpl.n	80063b6 <_svfprintf_r+0x1a26>
 800639a:	4613      	mov	r3, r2
 800639c:	f88d 0076 	strb.w	r0, [sp, #118]	; 0x76
 80063a0:	f10d 0176 	add.w	r1, sp, #118	; 0x76
 80063a4:	f813 0b01 	ldrb.w	r0, [r3], #1
 80063a8:	e005      	b.n	80063b6 <_svfprintf_r+0x1a26>
 80063aa:	f813 1b01 	ldrb.w	r1, [r3], #1
 80063ae:	7061      	strb	r1, [r4, #1]
 80063b0:	f813 0b01 	ldrb.w	r0, [r3], #1
 80063b4:	1c61      	adds	r1, r4, #1
 80063b6:	1c4c      	adds	r4, r1, #1
 80063b8:	42ab      	cmp	r3, r5
 80063ba:	7048      	strb	r0, [r1, #1]
 80063bc:	d1f5      	bne.n	80063aa <_svfprintf_r+0x1a1a>
 80063be:	ab3e      	add	r3, sp, #248	; 0xf8
 80063c0:	ebc2 0443 	rsb	r4, r2, r3, lsl #1
 80063c4:	3cf6      	subs	r4, #246	; 0xf6
 80063c6:	e70a      	b.n	80061de <_svfprintf_r+0x184e>
 80063c8:	9808      	ldr	r0, [sp, #32]
 80063ca:	9906      	ldr	r1, [sp, #24]
 80063cc:	aa21      	add	r2, sp, #132	; 0x84
 80063ce:	f002 ff87 	bl	80092e0 <__ssprint_r>
 80063d2:	2800      	cmp	r0, #0
 80063d4:	f47e ac9b 	bne.w	8004d0e <_svfprintf_r+0x37e>
 80063d8:	ae2e      	add	r6, sp, #184	; 0xb8
 80063da:	9a23      	ldr	r2, [sp, #140]	; 0x8c
 80063dc:	9b22      	ldr	r3, [sp, #136]	; 0x88
 80063de:	e4ca      	b.n	8005d76 <_svfprintf_r+0x13e6>
 80063e0:	9b05      	ldr	r3, [sp, #20]
 80063e2:	1c5c      	adds	r4, r3, #1
 80063e4:	1911      	adds	r1, r2, r4
 80063e6:	ea21 70e1 	bic.w	r0, r1, r1, asr #31
 80063ea:	910a      	str	r1, [sp, #40]	; 0x28
 80063ec:	9007      	str	r0, [sp, #28]
 80063ee:	e594      	b.n	8005f1a <_svfprintf_r+0x158a>
 80063f0:	4628      	mov	r0, r5
 80063f2:	4621      	mov	r1, r4
 80063f4:	2200      	movs	r2, #0
 80063f6:	2300      	movs	r3, #0
 80063f8:	f8cd c008 	str.w	ip, [sp, #8]
 80063fc:	f7fc f92c 	bl	8002658 <__aeabi_dcmpeq>
 8006400:	f8dd c008 	ldr.w	ip, [sp, #8]
 8006404:	2800      	cmp	r0, #0
 8006406:	f47f af45 	bne.w	8006294 <_svfprintf_r+0x1904>
 800640a:	f1cc 0201 	rsb	r2, ip, #1
 800640e:	921a      	str	r2, [sp, #104]	; 0x68
 8006410:	e741      	b.n	8006296 <_svfprintf_r+0x1906>
 8006412:	1c53      	adds	r3, r2, #1
 8006414:	ea23 74e3 	bic.w	r4, r3, r3, asr #31
 8006418:	930a      	str	r3, [sp, #40]	; 0x28
 800641a:	9407      	str	r4, [sp, #28]
 800641c:	f04f 0867 	mov.w	r8, #103	; 0x67
 8006420:	e57b      	b.n	8005f1a <_svfprintf_r+0x158a>
 8006422:	9805      	ldr	r0, [sp, #20]
 8006424:	b9c0      	cbnz	r0, 8006458 <_svfprintf_r+0x1ac8>
 8006426:	9b04      	ldr	r3, [sp, #16]
 8006428:	07dc      	lsls	r4, r3, #31
 800642a:	d415      	bmi.n	8006458 <_svfprintf_r+0x1ac8>
 800642c:	2401      	movs	r4, #1
 800642e:	9407      	str	r4, [sp, #28]
 8006430:	940a      	str	r4, [sp, #40]	; 0x28
 8006432:	e572      	b.n	8005f1a <_svfprintf_r+0x158a>
 8006434:	9b0c      	ldr	r3, [sp, #48]	; 0x30
 8006436:	f89a 8001 	ldrb.w	r8, [sl, #1]
 800643a:	681a      	ldr	r2, [r3, #0]
 800643c:	9b0c      	ldr	r3, [sp, #48]	; 0x30
 800643e:	9205      	str	r2, [sp, #20]
 8006440:	9a05      	ldr	r2, [sp, #20]
 8006442:	3304      	adds	r3, #4
 8006444:	2a00      	cmp	r2, #0
 8006446:	930c      	str	r3, [sp, #48]	; 0x30
 8006448:	46a2      	mov	sl, r4
 800644a:	f6be ab03 	bge.w	8004a54 <_svfprintf_r+0xc4>
 800644e:	f04f 33ff 	mov.w	r3, #4294967295
 8006452:	9305      	str	r3, [sp, #20]
 8006454:	f7fe bafe 	b.w	8004a54 <_svfprintf_r+0xc4>
 8006458:	9905      	ldr	r1, [sp, #20]
 800645a:	1c88      	adds	r0, r1, #2
 800645c:	ea20 73e0 	bic.w	r3, r0, r0, asr #31
 8006460:	900a      	str	r0, [sp, #40]	; 0x28
 8006462:	9307      	str	r3, [sp, #28]
 8006464:	e559      	b.n	8005f1a <_svfprintf_r+0x158a>
 8006466:	212d      	movs	r1, #45	; 0x2d
 8006468:	425b      	negs	r3, r3
 800646a:	f88d 1075 	strb.w	r1, [sp, #117]	; 0x75
 800646e:	e6ac      	b.n	80061ca <_svfprintf_r+0x183a>
 8006470:	9a04      	ldr	r2, [sp, #16]
 8006472:	f012 0101 	ands.w	r1, r2, #1
 8006476:	f47f aebc 	bne.w	80061f2 <_svfprintf_r+0x1862>
 800647a:	980a      	ldr	r0, [sp, #40]	; 0x28
 800647c:	9110      	str	r1, [sp, #64]	; 0x40
 800647e:	ea20 74e0 	bic.w	r4, r0, r0, asr #31
 8006482:	9407      	str	r4, [sp, #28]
 8006484:	e54a      	b.n	8005f1c <_svfprintf_r+0x158c>
 8006486:	f10d 0476 	add.w	r4, sp, #118	; 0x76
 800648a:	e6a8      	b.n	80061de <_svfprintf_r+0x184e>
 800648c:	9b1a      	ldr	r3, [sp, #104]	; 0x68
 800648e:	e692      	b.n	80061b6 <_svfprintf_r+0x1826>
 8006490:	46a3      	mov	fp, r4
 8006492:	e523      	b.n	8005edc <_svfprintf_r+0x154c>
 8006494:	9a08      	ldr	r2, [sp, #32]
 8006496:	210c      	movs	r1, #12
 8006498:	6011      	str	r1, [r2, #0]
 800649a:	f04f 30ff 	mov.w	r0, #4294967295
 800649e:	f7fe bc40 	b.w	8004d22 <_svfprintf_r+0x392>
 80064a2:	bf00      	nop

080064a4 <_vsprintf_r>:
 80064a4:	b570      	push	{r4, r5, r6, lr}
 80064a6:	b09a      	sub	sp, #104	; 0x68
 80064a8:	f06f 4400 	mvn.w	r4, #2147483648	; 0x80000000
 80064ac:	460d      	mov	r5, r1
 80064ae:	9402      	str	r4, [sp, #8]
 80064b0:	9405      	str	r4, [sp, #20]
 80064b2:	4669      	mov	r1, sp
 80064b4:	f44f 7602 	mov.w	r6, #520	; 0x208
 80064b8:	f64f 74ff 	movw	r4, #65535	; 0xffff
 80064bc:	f8ad 600c 	strh.w	r6, [sp, #12]
 80064c0:	9500      	str	r5, [sp, #0]
 80064c2:	9504      	str	r5, [sp, #16]
 80064c4:	f8ad 400e 	strh.w	r4, [sp, #14]
 80064c8:	f7fe fa62 	bl	8004990 <_svfprintf_r>
 80064cc:	9b00      	ldr	r3, [sp, #0]
 80064ce:	2200      	movs	r2, #0
 80064d0:	701a      	strb	r2, [r3, #0]
 80064d2:	b01a      	add	sp, #104	; 0x68
 80064d4:	bd70      	pop	{r4, r5, r6, pc}
 80064d6:	bf00      	nop

080064d8 <vsprintf>:
 80064d8:	b470      	push	{r4, r5, r6}
 80064da:	f240 4470 	movw	r4, #1136	; 0x470
 80064de:	f2c1 0400 	movt	r4, #4096	; 0x1000
 80064e2:	4606      	mov	r6, r0
 80064e4:	460d      	mov	r5, r1
 80064e6:	6820      	ldr	r0, [r4, #0]
 80064e8:	4613      	mov	r3, r2
 80064ea:	4631      	mov	r1, r6
 80064ec:	462a      	mov	r2, r5
 80064ee:	bc70      	pop	{r4, r5, r6}
 80064f0:	f7ff bfd8 	b.w	80064a4 <_vsprintf_r>

080064f4 <__register_exitproc>:
 80064f4:	e92d 41f0 	stmdb	sp!, {r4, r5, r6, r7, r8, lr}
 80064f8:	4c27      	ldr	r4, [pc, #156]	; (8006598 <__register_exitproc+0xa4>)
 80064fa:	6825      	ldr	r5, [r4, #0]
 80064fc:	f8d5 4148 	ldr.w	r4, [r5, #328]	; 0x148
 8006500:	b084      	sub	sp, #16
 8006502:	4607      	mov	r7, r0
 8006504:	2c00      	cmp	r4, #0
 8006506:	d041      	beq.n	800658c <__register_exitproc+0x98>
 8006508:	6866      	ldr	r6, [r4, #4]
 800650a:	2e1f      	cmp	r6, #31
 800650c:	dd1c      	ble.n	8006548 <__register_exitproc+0x54>
 800650e:	4823      	ldr	r0, [pc, #140]	; (800659c <__register_exitproc+0xa8>)
 8006510:	b910      	cbnz	r0, 8006518 <__register_exitproc+0x24>
 8006512:	f04f 30ff 	mov.w	r0, #4294967295
 8006516:	e01f      	b.n	8006558 <__register_exitproc+0x64>
 8006518:	f44f 70c8 	mov.w	r0, #400	; 0x190
 800651c:	9103      	str	r1, [sp, #12]
 800651e:	9202      	str	r2, [sp, #8]
 8006520:	9301      	str	r3, [sp, #4]
 8006522:	f3af 8000 	nop.w
 8006526:	9903      	ldr	r1, [sp, #12]
 8006528:	9a02      	ldr	r2, [sp, #8]
 800652a:	9b01      	ldr	r3, [sp, #4]
 800652c:	4604      	mov	r4, r0
 800652e:	2800      	cmp	r0, #0
 8006530:	d0ef      	beq.n	8006512 <__register_exitproc+0x1e>
 8006532:	f8d5 6148 	ldr.w	r6, [r5, #328]	; 0x148
 8006536:	2000      	movs	r0, #0
 8006538:	6060      	str	r0, [r4, #4]
 800653a:	6026      	str	r6, [r4, #0]
 800653c:	f8c5 4148 	str.w	r4, [r5, #328]	; 0x148
 8006540:	f8c4 0188 	str.w	r0, [r4, #392]	; 0x188
 8006544:	f8c4 018c 	str.w	r0, [r4, #396]	; 0x18c
 8006548:	6865      	ldr	r5, [r4, #4]
 800654a:	b947      	cbnz	r7, 800655e <__register_exitproc+0x6a>
 800654c:	1ca8      	adds	r0, r5, #2
 800654e:	3501      	adds	r5, #1
 8006550:	f844 1020 	str.w	r1, [r4, r0, lsl #2]
 8006554:	6065      	str	r5, [r4, #4]
 8006556:	2000      	movs	r0, #0
 8006558:	b004      	add	sp, #16
 800655a:	e8bd 81f0 	ldmia.w	sp!, {r4, r5, r6, r7, r8, pc}
 800655e:	f8d4 6188 	ldr.w	r6, [r4, #392]	; 0x188
 8006562:	2001      	movs	r0, #1
 8006564:	eb04 0885 	add.w	r8, r4, r5, lsl #2
 8006568:	fa00 f005 	lsl.w	r0, r0, r5
 800656c:	4306      	orrs	r6, r0
 800656e:	2f02      	cmp	r7, #2
 8006570:	f8c8 2088 	str.w	r2, [r8, #136]	; 0x88
 8006574:	f8c4 6188 	str.w	r6, [r4, #392]	; 0x188
 8006578:	f8c8 3108 	str.w	r3, [r8, #264]	; 0x108
 800657c:	d1e6      	bne.n	800654c <__register_exitproc+0x58>
 800657e:	f8d4 318c 	ldr.w	r3, [r4, #396]	; 0x18c
 8006582:	ea43 0200 	orr.w	r2, r3, r0
 8006586:	f8c4 218c 	str.w	r2, [r4, #396]	; 0x18c
 800658a:	e7df      	b.n	800654c <__register_exitproc+0x58>
 800658c:	f505 74a6 	add.w	r4, r5, #332	; 0x14c
 8006590:	f8c5 4148 	str.w	r4, [r5, #328]	; 0x148
 8006594:	e7b8      	b.n	8006508 <__register_exitproc+0x14>
 8006596:	bf00      	nop
 8006598:	0800e068 	.word	0x0800e068
 800659c:	00000000 	.word	0x00000000

080065a0 <quorem>:
 80065a0:	e92d 4ff0 	stmdb	sp!, {r4, r5, r6, r7, r8, r9, sl, fp, lr}
 80065a4:	6903      	ldr	r3, [r0, #16]
 80065a6:	690c      	ldr	r4, [r1, #16]
 80065a8:	429c      	cmp	r4, r3
 80065aa:	b083      	sub	sp, #12
 80065ac:	4606      	mov	r6, r0
 80065ae:	f300 816b 	bgt.w	8006888 <quorem+0x2e8>
 80065b2:	1ce0      	adds	r0, r4, #3
 80065b4:	0082      	lsls	r2, r0, #2
 80065b6:	188f      	adds	r7, r1, r2
 80065b8:	18b5      	adds	r5, r6, r2
 80065ba:	687b      	ldr	r3, [r7, #4]
 80065bc:	6868      	ldr	r0, [r5, #4]
 80065be:	1c5a      	adds	r2, r3, #1
 80065c0:	fbb0 f5f2 	udiv	r5, r0, r2
 80065c4:	f101 0314 	add.w	r3, r1, #20
 80065c8:	9301      	str	r3, [sp, #4]
 80065ca:	3c01      	subs	r4, #1
 80065cc:	3704      	adds	r7, #4
 80065ce:	f106 0814 	add.w	r8, r6, #20
 80065d2:	2d00      	cmp	r5, #0
 80065d4:	f000 80be 	beq.w	8006754 <quorem+0x1b4>
 80065d8:	694a      	ldr	r2, [r1, #20]
 80065da:	f8d8 3000 	ldr.w	r3, [r8]
 80065de:	f8dd 9004 	ldr.w	r9, [sp, #4]
 80065e2:	b290      	uxth	r0, r2
 80065e4:	ea4f 4c12 	mov.w	ip, r2, lsr #16
 80065e8:	fb05 f000 	mul.w	r0, r5, r0
 80065ec:	fb05 f20c 	mul.w	r2, r5, ip
 80065f0:	eb02 4c10 	add.w	ip, r2, r0, lsr #16
 80065f4:	fa1f fe8c 	uxth.w	lr, ip
 80065f8:	b29a      	uxth	r2, r3
 80065fa:	b280      	uxth	r0, r0
 80065fc:	1a12      	subs	r2, r2, r0
 80065fe:	ebce 4313 	rsb	r3, lr, r3, lsr #16
 8006602:	eb03 4e22 	add.w	lr, r3, r2, asr #16
 8006606:	b292      	uxth	r2, r2
 8006608:	ebc9 0007 	rsb	r0, r9, r7
 800660c:	f106 0318 	add.w	r3, r6, #24
 8006610:	ea42 490e 	orr.w	r9, r2, lr, lsl #16
 8006614:	f101 0218 	add.w	r2, r1, #24
 8006618:	4297      	cmp	r7, r2
 800661a:	f843 9c04 	str.w	r9, [r3, #-4]
 800661e:	f3c0 0080 	ubfx	r0, r0, #2, #1
 8006622:	ea4f 4c1c 	mov.w	ip, ip, lsr #16
 8006626:	ea4f 4e2e 	mov.w	lr, lr, asr #16
 800662a:	d370      	bcc.n	800670e <quorem+0x16e>
 800662c:	b328      	cbz	r0, 800667a <quorem+0xda>
 800662e:	6810      	ldr	r0, [r2, #0]
 8006630:	681b      	ldr	r3, [r3, #0]
 8006632:	b282      	uxth	r2, r0
 8006634:	0c00      	lsrs	r0, r0, #16
 8006636:	fb05 cc02 	mla	ip, r5, r2, ip
 800663a:	fb05 f000 	mul.w	r0, r5, r0
 800663e:	eb00 401c 	add.w	r0, r0, ip, lsr #16
 8006642:	fa1e f283 	uxtah	r2, lr, r3
 8006646:	fa1f fc8c 	uxth.w	ip, ip
 800664a:	fa1f fe80 	uxth.w	lr, r0
 800664e:	ebcc 0202 	rsb	r2, ip, r2
 8006652:	ebce 4313 	rsb	r3, lr, r3, lsr #16
 8006656:	eb03 4e22 	add.w	lr, r3, r2, asr #16
 800665a:	fa1f fc82 	uxth.w	ip, r2
 800665e:	f106 031c 	add.w	r3, r6, #28
 8006662:	f101 021c 	add.w	r2, r1, #28
 8006666:	ea4c 4c0e 	orr.w	ip, ip, lr, lsl #16
 800666a:	4297      	cmp	r7, r2
 800666c:	f843 cc04 	str.w	ip, [r3, #-4]
 8006670:	ea4f 4e2e 	mov.w	lr, lr, asr #16
 8006674:	ea4f 4c10 	mov.w	ip, r0, lsr #16
 8006678:	d349      	bcc.n	800670e <quorem+0x16e>
 800667a:	4610      	mov	r0, r2
 800667c:	f8d3 9000 	ldr.w	r9, [r3]
 8006680:	f850 bb04 	ldr.w	fp, [r0], #4
 8006684:	fa1f fa8b 	uxth.w	sl, fp
 8006688:	ea4f 4b1b 	mov.w	fp, fp, lsr #16
 800668c:	fb05 cc0a 	mla	ip, r5, sl, ip
 8006690:	fb05 fa0b 	mul.w	sl, r5, fp
 8006694:	eb0a 4b1c 	add.w	fp, sl, ip, lsr #16
 8006698:	fa1f fa8b 	uxth.w	sl, fp
 800669c:	fa1e fe89 	uxtah	lr, lr, r9
 80066a0:	fa1f fc8c 	uxth.w	ip, ip
 80066a4:	ebcc 0e0e 	rsb	lr, ip, lr
 80066a8:	ebca 4c19 	rsb	ip, sl, r9, lsr #16
 80066ac:	eb0c 4a2e 	add.w	sl, ip, lr, asr #16
 80066b0:	4699      	mov	r9, r3
 80066b2:	fa1f fe8e 	uxth.w	lr, lr
 80066b6:	ea4e 4c0a 	orr.w	ip, lr, sl, lsl #16
 80066ba:	f849 cb04 	str.w	ip, [r9], #4
 80066be:	6852      	ldr	r2, [r2, #4]
 80066c0:	685b      	ldr	r3, [r3, #4]
 80066c2:	fa1f fe82 	uxth.w	lr, r2
 80066c6:	fb05 fe0e 	mul.w	lr, r5, lr
 80066ca:	ea4f 4c12 	mov.w	ip, r2, lsr #16
 80066ce:	eb0e 4b1b 	add.w	fp, lr, fp, lsr #16
 80066d2:	fb05 f20c 	mul.w	r2, r5, ip
 80066d6:	eb02 4c1b 	add.w	ip, r2, fp, lsr #16
 80066da:	b29a      	uxth	r2, r3
 80066dc:	fa1f fe8c 	uxth.w	lr, ip
 80066e0:	eb02 422a 	add.w	r2, r2, sl, asr #16
 80066e4:	fa1f fb8b 	uxth.w	fp, fp
 80066e8:	ebcb 0202 	rsb	r2, fp, r2
 80066ec:	ebce 4313 	rsb	r3, lr, r3, lsr #16
 80066f0:	eb03 4e22 	add.w	lr, r3, r2, asr #16
 80066f4:	b292      	uxth	r2, r2
 80066f6:	464b      	mov	r3, r9
 80066f8:	ea42 490e 	orr.w	r9, r2, lr, lsl #16
 80066fc:	1d02      	adds	r2, r0, #4
 80066fe:	4297      	cmp	r7, r2
 8006700:	f843 9b04 	str.w	r9, [r3], #4
 8006704:	ea4f 4c1c 	mov.w	ip, ip, lsr #16
 8006708:	ea4f 4e2e 	mov.w	lr, lr, asr #16
 800670c:	d2b5      	bcs.n	800667a <quorem+0xda>
 800670e:	1d20      	adds	r0, r4, #4
 8006710:	eb06 0380 	add.w	r3, r6, r0, lsl #2
 8006714:	685a      	ldr	r2, [r3, #4]
 8006716:	b9ea      	cbnz	r2, 8006754 <quorem+0x1b4>
 8006718:	1d18      	adds	r0, r3, #4
 800671a:	4598      	cmp	r8, r3
 800671c:	d219      	bcs.n	8006752 <quorem+0x1b2>
 800671e:	f850 2c04 	ldr.w	r2, [r0, #-4]
 8006722:	b9b2      	cbnz	r2, 8006752 <quorem+0x1b2>
 8006724:	3b04      	subs	r3, #4
 8006726:	ebc8 0003 	rsb	r0, r8, r3
 800672a:	1cc2      	adds	r2, r0, #3
 800672c:	0750      	lsls	r0, r2, #29
 800672e:	d50d      	bpl.n	800674c <quorem+0x1ac>
 8006730:	3c01      	subs	r4, #1
 8006732:	4598      	cmp	r8, r3
 8006734:	d20d      	bcs.n	8006752 <quorem+0x1b2>
 8006736:	681a      	ldr	r2, [r3, #0]
 8006738:	3b04      	subs	r3, #4
 800673a:	b13a      	cbz	r2, 800674c <quorem+0x1ac>
 800673c:	e009      	b.n	8006752 <quorem+0x1b2>
 800673e:	6818      	ldr	r0, [r3, #0]
 8006740:	3b04      	subs	r3, #4
 8006742:	b930      	cbnz	r0, 8006752 <quorem+0x1b2>
 8006744:	681a      	ldr	r2, [r3, #0]
 8006746:	3c01      	subs	r4, #1
 8006748:	3b04      	subs	r3, #4
 800674a:	b912      	cbnz	r2, 8006752 <quorem+0x1b2>
 800674c:	3c01      	subs	r4, #1
 800674e:	4598      	cmp	r8, r3
 8006750:	d3f5      	bcc.n	800673e <quorem+0x19e>
 8006752:	6134      	str	r4, [r6, #16]
 8006754:	4630      	mov	r0, r6
 8006756:	f002 f981 	bl	8008a5c <__mcmp>
 800675a:	2800      	cmp	r0, #0
 800675c:	f2c0 8083 	blt.w	8006866 <quorem+0x2c6>
 8006760:	9a01      	ldr	r2, [sp, #4]
 8006762:	f8d8 3000 	ldr.w	r3, [r8]
 8006766:	f852 0b04 	ldr.w	r0, [r2], #4
 800676a:	fa1f f983 	uxth.w	r9, r3
 800676e:	b281      	uxth	r1, r0
 8006770:	0c00      	lsrs	r0, r0, #16
 8006772:	ebc1 0109 	rsb	r1, r1, r9
 8006776:	ebc0 4313 	rsb	r3, r0, r3, lsr #16
 800677a:	f8dd 9004 	ldr.w	r9, [sp, #4]
 800677e:	eb03 4021 	add.w	r0, r3, r1, asr #16
 8006782:	4643      	mov	r3, r8
 8006784:	b289      	uxth	r1, r1
 8006786:	ea41 4100 	orr.w	r1, r1, r0, lsl #16
 800678a:	ebc9 0c07 	rsb	ip, r9, r7
 800678e:	3501      	adds	r5, #1
 8006790:	1400      	asrs	r0, r0, #16
 8006792:	4297      	cmp	r7, r2
 8006794:	f843 1b04 	str.w	r1, [r3], #4
 8006798:	f3cc 0180 	ubfx	r1, ip, #2, #1
 800679c:	d34b      	bcc.n	8006836 <quorem+0x296>
 800679e:	b1b9      	cbz	r1, 80067d0 <quorem+0x230>
 80067a0:	f852 eb04 	ldr.w	lr, [r2], #4
 80067a4:	6819      	ldr	r1, [r3, #0]
 80067a6:	fa1f f98e 	uxth.w	r9, lr
 80067aa:	fa1f fa81 	uxth.w	sl, r1
 80067ae:	ebc9 090a 	rsb	r9, r9, sl
 80067b2:	ea4f 4c1e 	mov.w	ip, lr, lsr #16
 80067b6:	4448      	add	r0, r9
 80067b8:	ebcc 4111 	rsb	r1, ip, r1, lsr #16
 80067bc:	eb01 4120 	add.w	r1, r1, r0, asr #16
 80067c0:	b280      	uxth	r0, r0
 80067c2:	ea40 4001 	orr.w	r0, r0, r1, lsl #16
 80067c6:	f843 0b04 	str.w	r0, [r3], #4
 80067ca:	1408      	asrs	r0, r1, #16
 80067cc:	4297      	cmp	r7, r2
 80067ce:	d332      	bcc.n	8006836 <quorem+0x296>
 80067d0:	4682      	mov	sl, r0
 80067d2:	4611      	mov	r1, r2
 80067d4:	f8d3 e000 	ldr.w	lr, [r3]
 80067d8:	f851 0b04 	ldr.w	r0, [r1], #4
 80067dc:	fa1f fb8e 	uxth.w	fp, lr
 80067e0:	fa1f f980 	uxth.w	r9, r0
 80067e4:	ea4f 4c10 	mov.w	ip, r0, lsr #16
 80067e8:	ebc9 0b0b 	rsb	fp, r9, fp
 80067ec:	eb0b 000a 	add.w	r0, fp, sl
 80067f0:	ebcc 4a1e 	rsb	sl, ip, lr, lsr #16
 80067f4:	eb0a 4920 	add.w	r9, sl, r0, asr #16
 80067f8:	469e      	mov	lr, r3
 80067fa:	b280      	uxth	r0, r0
 80067fc:	ea40 4009 	orr.w	r0, r0, r9, lsl #16
 8006800:	f84e 0b04 	str.w	r0, [lr], #4
 8006804:	6850      	ldr	r0, [r2, #4]
 8006806:	685b      	ldr	r3, [r3, #4]
 8006808:	b282      	uxth	r2, r0
 800680a:	fa1f fc83 	uxth.w	ip, r3
 800680e:	0c00      	lsrs	r0, r0, #16
 8006810:	ebc2 020c 	rsb	r2, r2, ip
 8006814:	eb02 4229 	add.w	r2, r2, r9, asr #16
 8006818:	ebc0 4313 	rsb	r3, r0, r3, lsr #16
 800681c:	eb03 4022 	add.w	r0, r3, r2, asr #16
 8006820:	b292      	uxth	r2, r2
 8006822:	ea42 4a00 	orr.w	sl, r2, r0, lsl #16
 8006826:	4673      	mov	r3, lr
 8006828:	1d0a      	adds	r2, r1, #4
 800682a:	4297      	cmp	r7, r2
 800682c:	f843 ab04 	str.w	sl, [r3], #4
 8006830:	ea4f 4a20 	mov.w	sl, r0, asr #16
 8006834:	d2cd      	bcs.n	80067d2 <quorem+0x232>
 8006836:	1d21      	adds	r1, r4, #4
 8006838:	eb06 0381 	add.w	r3, r6, r1, lsl #2
 800683c:	6858      	ldr	r0, [r3, #4]
 800683e:	b990      	cbnz	r0, 8006866 <quorem+0x2c6>
 8006840:	1d1a      	adds	r2, r3, #4
 8006842:	4598      	cmp	r8, r3
 8006844:	d20e      	bcs.n	8006864 <quorem+0x2c4>
 8006846:	f852 1c04 	ldr.w	r1, [r2, #-4]
 800684a:	b959      	cbnz	r1, 8006864 <quorem+0x2c4>
 800684c:	3b04      	subs	r3, #4
 800684e:	ebc8 0003 	rsb	r0, r8, r3
 8006852:	1cc2      	adds	r2, r0, #3
 8006854:	0752      	lsls	r2, r2, #29
 8006856:	d513      	bpl.n	8006880 <quorem+0x2e0>
 8006858:	3c01      	subs	r4, #1
 800685a:	4598      	cmp	r8, r3
 800685c:	d202      	bcs.n	8006864 <quorem+0x2c4>
 800685e:	6818      	ldr	r0, [r3, #0]
 8006860:	3b04      	subs	r3, #4
 8006862:	b168      	cbz	r0, 8006880 <quorem+0x2e0>
 8006864:	6134      	str	r4, [r6, #16]
 8006866:	4628      	mov	r0, r5
 8006868:	b003      	add	sp, #12
 800686a:	e8bd 8ff0 	ldmia.w	sp!, {r4, r5, r6, r7, r8, r9, sl, fp, pc}
 800686e:	681a      	ldr	r2, [r3, #0]
 8006870:	3b04      	subs	r3, #4
 8006872:	2a00      	cmp	r2, #0
 8006874:	d1f6      	bne.n	8006864 <quorem+0x2c4>
 8006876:	6819      	ldr	r1, [r3, #0]
 8006878:	3c01      	subs	r4, #1
 800687a:	3b04      	subs	r3, #4
 800687c:	2900      	cmp	r1, #0
 800687e:	d1f1      	bne.n	8006864 <quorem+0x2c4>
 8006880:	3c01      	subs	r4, #1
 8006882:	4598      	cmp	r8, r3
 8006884:	d3f3      	bcc.n	800686e <quorem+0x2ce>
 8006886:	e7ed      	b.n	8006864 <quorem+0x2c4>
 8006888:	2000      	movs	r0, #0
 800688a:	e7ed      	b.n	8006868 <quorem+0x2c8>
 800688c:	0000      	movs	r0, r0
	...

08006890 <_dtoa_r>:
 8006890:	e92d 4ff0 	stmdb	sp!, {r4, r5, r6, r7, r8, r9, sl, fp, lr}
 8006894:	b09d      	sub	sp, #116	; 0x74
 8006896:	4681      	mov	r9, r0
 8006898:	9102      	str	r1, [sp, #8]
 800689a:	6c01      	ldr	r1, [r0, #64]	; 0x40
 800689c:	9c26      	ldr	r4, [sp, #152]	; 0x98
 800689e:	9205      	str	r2, [sp, #20]
 80068a0:	9308      	str	r3, [sp, #32]
 80068a2:	ec5b ab10 	vmov	sl, fp, d0
 80068a6:	b151      	cbz	r1, 80068be <_dtoa_r+0x2e>
 80068a8:	6c43      	ldr	r3, [r0, #68]	; 0x44
 80068aa:	2201      	movs	r2, #1
 80068ac:	fa02 f203 	lsl.w	r2, r2, r3
 80068b0:	604b      	str	r3, [r1, #4]
 80068b2:	608a      	str	r2, [r1, #8]
 80068b4:	f001 fce0 	bl	8008278 <_Bfree>
 80068b8:	2000      	movs	r0, #0
 80068ba:	f8c9 0040 	str.w	r0, [r9, #64]	; 0x40
 80068be:	f1bb 0800 	subs.w	r8, fp, #0
 80068c2:	db3b      	blt.n	800693c <_dtoa_r+0xac>
 80068c4:	2100      	movs	r1, #0
 80068c6:	6021      	str	r1, [r4, #0]
 80068c8:	2300      	movs	r3, #0
 80068ca:	461a      	mov	r2, r3
 80068cc:	f6c7 73f0 	movt	r3, #32752	; 0x7ff0
 80068d0:	f6c7 72f0 	movt	r2, #32752	; 0x7ff0
 80068d4:	ea08 0003 	and.w	r0, r8, r3
 80068d8:	4290      	cmp	r0, r2
 80068da:	d018      	beq.n	800690e <_dtoa_r+0x7e>
 80068dc:	2200      	movs	r2, #0
 80068de:	2300      	movs	r3, #0
 80068e0:	4650      	mov	r0, sl
 80068e2:	4659      	mov	r1, fp
 80068e4:	4654      	mov	r4, sl
 80068e6:	465d      	mov	r5, fp
 80068e8:	f7fb feb6 	bl	8002658 <__aeabi_dcmpeq>
 80068ec:	2800      	cmp	r0, #0
 80068ee:	d02b      	beq.n	8006948 <_dtoa_r+0xb8>
 80068f0:	9808      	ldr	r0, [sp, #32]
 80068f2:	9d27      	ldr	r5, [sp, #156]	; 0x9c
 80068f4:	2301      	movs	r3, #1
 80068f6:	6003      	str	r3, [r0, #0]
 80068f8:	2d00      	cmp	r5, #0
 80068fa:	f000 80d1 	beq.w	8006aa0 <_dtoa_r+0x210>
 80068fe:	49a4      	ldr	r1, [pc, #656]	; (8006b90 <_dtoa_r+0x300>)
 8006900:	1e4a      	subs	r2, r1, #1
 8006902:	6029      	str	r1, [r5, #0]
 8006904:	9204      	str	r2, [sp, #16]
 8006906:	9804      	ldr	r0, [sp, #16]
 8006908:	b01d      	add	sp, #116	; 0x74
 800690a:	e8bd 8ff0 	ldmia.w	sp!, {r4, r5, r6, r7, r8, r9, sl, fp, pc}
 800690e:	9d08      	ldr	r5, [sp, #32]
 8006910:	f242 730f 	movw	r3, #9999	; 0x270f
 8006914:	602b      	str	r3, [r5, #0]
 8006916:	f1ba 0f00 	cmp.w	sl, #0
 800691a:	f000 80a8 	beq.w	8006a6e <_dtoa_r+0x1de>
 800691e:	489d      	ldr	r0, [pc, #628]	; (8006b94 <_dtoa_r+0x304>)
 8006920:	9004      	str	r0, [sp, #16]
 8006922:	9d27      	ldr	r5, [sp, #156]	; 0x9c
 8006924:	2d00      	cmp	r5, #0
 8006926:	d0ee      	beq.n	8006906 <_dtoa_r+0x76>
 8006928:	9d04      	ldr	r5, [sp, #16]
 800692a:	78eb      	ldrb	r3, [r5, #3]
 800692c:	2b00      	cmp	r3, #0
 800692e:	f000 820e 	beq.w	8006d4e <_dtoa_r+0x4be>
 8006932:	4629      	mov	r1, r5
 8006934:	3108      	adds	r1, #8
 8006936:	9d27      	ldr	r5, [sp, #156]	; 0x9c
 8006938:	6029      	str	r1, [r5, #0]
 800693a:	e7e4      	b.n	8006906 <_dtoa_r+0x76>
 800693c:	f028 4800 	bic.w	r8, r8, #2147483648	; 0x80000000
 8006940:	2501      	movs	r5, #1
 8006942:	6025      	str	r5, [r4, #0]
 8006944:	46c3      	mov	fp, r8
 8006946:	e7bf      	b.n	80068c8 <_dtoa_r+0x38>
 8006948:	4648      	mov	r0, r9
 800694a:	ec45 4b10 	vmov	d0, r4, r5
 800694e:	a91b      	add	r1, sp, #108	; 0x6c
 8006950:	aa1a      	add	r2, sp, #104	; 0x68
 8006952:	f002 fa43 	bl	8008ddc <__d2b>
 8006956:	f3c8 560a 	ubfx	r6, r8, #20, #11
 800695a:	900a      	str	r0, [sp, #40]	; 0x28
 800695c:	2e00      	cmp	r6, #0
 800695e:	f040 8090 	bne.w	8006a82 <_dtoa_r+0x1f2>
 8006962:	9f1a      	ldr	r7, [sp, #104]	; 0x68
 8006964:	9c1b      	ldr	r4, [sp, #108]	; 0x6c
 8006966:	f46f 6182 	mvn.w	r1, #1040	; 0x410
 800696a:	193e      	adds	r6, r7, r4
 800696c:	428e      	cmp	r6, r1
 800696e:	f2c0 8339 	blt.w	8006fe4 <_dtoa_r+0x754>
 8006972:	f64f 420e 	movw	r2, #64526	; 0xfc0e
 8006976:	f6cf 72ff 	movt	r2, #65535	; 0xffff
 800697a:	1b90      	subs	r0, r2, r6
 800697c:	f206 4412 	addw	r4, r6, #1042	; 0x412
 8006980:	fa08 f100 	lsl.w	r1, r8, r0
 8006984:	fa2a f504 	lsr.w	r5, sl, r4
 8006988:	ea41 0005 	orr.w	r0, r1, r5
 800698c:	f7fb fb86 	bl	800209c <__aeabi_ui2d>
 8006990:	2501      	movs	r5, #1
 8006992:	3e01      	subs	r6, #1
 8006994:	f1a1 71f8 	sub.w	r1, r1, #32505856	; 0x1f00000
 8006998:	950b      	str	r5, [sp, #44]	; 0x2c
 800699a:	2300      	movs	r3, #0
 800699c:	2200      	movs	r2, #0
 800699e:	f6c3 73f8 	movt	r3, #16376	; 0x3ff8
 80069a2:	f7fb fa3d 	bl	8001e20 <__aeabi_dsub>
 80069a6:	a374      	add	r3, pc, #464	; (adr r3, 8006b78 <_dtoa_r+0x2e8>)
 80069a8:	e9d3 2300 	ldrd	r2, r3, [r3]
 80069ac:	f7fb fbec 	bl	8002188 <__aeabi_dmul>
 80069b0:	a373      	add	r3, pc, #460	; (adr r3, 8006b80 <_dtoa_r+0x2f0>)
 80069b2:	e9d3 2300 	ldrd	r2, r3, [r3]
 80069b6:	f7fb fa35 	bl	8001e24 <__adddf3>
 80069ba:	4604      	mov	r4, r0
 80069bc:	4630      	mov	r0, r6
 80069be:	460d      	mov	r5, r1
 80069c0:	f7fb fb7c 	bl	80020bc <__aeabi_i2d>
 80069c4:	a370      	add	r3, pc, #448	; (adr r3, 8006b88 <_dtoa_r+0x2f8>)
 80069c6:	e9d3 2300 	ldrd	r2, r3, [r3]
 80069ca:	f7fb fbdd 	bl	8002188 <__aeabi_dmul>
 80069ce:	4602      	mov	r2, r0
 80069d0:	460b      	mov	r3, r1
 80069d2:	4620      	mov	r0, r4
 80069d4:	4629      	mov	r1, r5
 80069d6:	f7fb fa25 	bl	8001e24 <__adddf3>
 80069da:	4604      	mov	r4, r0
 80069dc:	460d      	mov	r5, r1
 80069de:	f7fb fe6d 	bl	80026bc <__aeabi_d2iz>
 80069e2:	4629      	mov	r1, r5
 80069e4:	9006      	str	r0, [sp, #24]
 80069e6:	2200      	movs	r2, #0
 80069e8:	4620      	mov	r0, r4
 80069ea:	2300      	movs	r3, #0
 80069ec:	f7fb fe3e 	bl	800266c <__aeabi_dcmplt>
 80069f0:	2800      	cmp	r0, #0
 80069f2:	f040 82c7 	bne.w	8006f84 <_dtoa_r+0x6f4>
 80069f6:	9a06      	ldr	r2, [sp, #24]
 80069f8:	2a16      	cmp	r2, #22
 80069fa:	f200 82c0 	bhi.w	8006f7e <_dtoa_r+0x6ee>
 80069fe:	4c66      	ldr	r4, [pc, #408]	; (8006b98 <_dtoa_r+0x308>)
 8006a00:	eb04 05c2 	add.w	r5, r4, r2, lsl #3
 8006a04:	e9d5 0100 	ldrd	r0, r1, [r5]
 8006a08:	4652      	mov	r2, sl
 8006a0a:	465b      	mov	r3, fp
 8006a0c:	f7fb fe4c 	bl	80026a8 <__aeabi_dcmpgt>
 8006a10:	2800      	cmp	r0, #0
 8006a12:	f000 82ef 	beq.w	8006ff4 <_dtoa_r+0x764>
 8006a16:	9806      	ldr	r0, [sp, #24]
 8006a18:	2200      	movs	r2, #0
 8006a1a:	1e41      	subs	r1, r0, #1
 8006a1c:	9106      	str	r1, [sp, #24]
 8006a1e:	9210      	str	r2, [sp, #64]	; 0x40
 8006a20:	1bbe      	subs	r6, r7, r6
 8006a22:	3e01      	subs	r6, #1
 8006a24:	f100 82c8 	bmi.w	8006fb8 <_dtoa_r+0x728>
 8006a28:	2400      	movs	r4, #0
 8006a2a:	9607      	str	r6, [sp, #28]
 8006a2c:	940c      	str	r4, [sp, #48]	; 0x30
 8006a2e:	9d06      	ldr	r5, [sp, #24]
 8006a30:	2d00      	cmp	r5, #0
 8006a32:	f2c0 82b5 	blt.w	8006fa0 <_dtoa_r+0x710>
 8006a36:	f8dd 801c 	ldr.w	r8, [sp, #28]
 8006a3a:	950f      	str	r5, [sp, #60]	; 0x3c
 8006a3c:	eb08 0c05 	add.w	ip, r8, r5
 8006a40:	2400      	movs	r4, #0
 8006a42:	f8cd c01c 	str.w	ip, [sp, #28]
 8006a46:	940e      	str	r4, [sp, #56]	; 0x38
 8006a48:	9d02      	ldr	r5, [sp, #8]
 8006a4a:	2d09      	cmp	r5, #9
 8006a4c:	d82b      	bhi.n	8006aa6 <_dtoa_r+0x216>
 8006a4e:	2d05      	cmp	r5, #5
 8006a50:	f341 8044 	ble.w	8007adc <_dtoa_r+0x124c>
 8006a54:	1f28      	subs	r0, r5, #4
 8006a56:	9002      	str	r0, [sp, #8]
 8006a58:	2500      	movs	r5, #0
 8006a5a:	9902      	ldr	r1, [sp, #8]
 8006a5c:	1e8a      	subs	r2, r1, #2
 8006a5e:	2a03      	cmp	r2, #3
 8006a60:	d823      	bhi.n	8006aaa <_dtoa_r+0x21a>
 8006a62:	e8df f012 	tbh	[pc, r2, lsl #1]
 8006a66:	0544      	.short	0x0544
 8006a68:	034a0530 	.word	0x034a0530
 8006a6c:	0541      	.short	0x0541
 8006a6e:	4949      	ldr	r1, [pc, #292]	; (8006b94 <_dtoa_r+0x304>)
 8006a70:	4a4a      	ldr	r2, [pc, #296]	; (8006b9c <_dtoa_r+0x30c>)
 8006a72:	f3c8 0813 	ubfx	r8, r8, #0, #20
 8006a76:	f1b8 0f00 	cmp.w	r8, #0
 8006a7a:	bf18      	it	ne
 8006a7c:	460a      	movne	r2, r1
 8006a7e:	9204      	str	r2, [sp, #16]
 8006a80:	e74f      	b.n	8006922 <_dtoa_r+0x92>
 8006a82:	f02b 437f 	bic.w	r3, fp, #4278190080	; 0xff000000
 8006a86:	f423 0270 	bic.w	r2, r3, #15728640	; 0xf00000
 8006a8a:	f042 547f 	orr.w	r4, r2, #1069547520	; 0x3fc00000
 8006a8e:	2500      	movs	r5, #0
 8006a90:	4650      	mov	r0, sl
 8006a92:	f444 1140 	orr.w	r1, r4, #3145728	; 0x300000
 8006a96:	f2a6 36ff 	subw	r6, r6, #1023	; 0x3ff
 8006a9a:	9f1a      	ldr	r7, [sp, #104]	; 0x68
 8006a9c:	950b      	str	r5, [sp, #44]	; 0x2c
 8006a9e:	e77c      	b.n	800699a <_dtoa_r+0x10a>
 8006aa0:	4d3f      	ldr	r5, [pc, #252]	; (8006ba0 <_dtoa_r+0x310>)
 8006aa2:	9504      	str	r5, [sp, #16]
 8006aa4:	e72f      	b.n	8006906 <_dtoa_r+0x76>
 8006aa6:	2400      	movs	r4, #0
 8006aa8:	9402      	str	r4, [sp, #8]
 8006aaa:	2400      	movs	r4, #0
 8006aac:	f8c9 4044 	str.w	r4, [r9, #68]	; 0x44
 8006ab0:	4648      	mov	r0, r9
 8006ab2:	4621      	mov	r1, r4
 8006ab4:	f001 fbba 	bl	800822c <_Balloc>
 8006ab8:	2501      	movs	r5, #1
 8006aba:	f04f 32ff 	mov.w	r2, #4294967295
 8006abe:	9004      	str	r0, [sp, #16]
 8006ac0:	9209      	str	r2, [sp, #36]	; 0x24
 8006ac2:	f8c9 0040 	str.w	r0, [r9, #64]	; 0x40
 8006ac6:	9211      	str	r2, [sp, #68]	; 0x44
 8006ac8:	9405      	str	r4, [sp, #20]
 8006aca:	950d      	str	r5, [sp, #52]	; 0x34
 8006acc:	9b1b      	ldr	r3, [sp, #108]	; 0x6c
 8006ace:	2b00      	cmp	r3, #0
 8006ad0:	f2c0 8140 	blt.w	8006d54 <_dtoa_r+0x4c4>
 8006ad4:	9906      	ldr	r1, [sp, #24]
 8006ad6:	290e      	cmp	r1, #14
 8006ad8:	f300 813c 	bgt.w	8006d54 <_dtoa_r+0x4c4>
 8006adc:	4d2e      	ldr	r5, [pc, #184]	; (8006b98 <_dtoa_r+0x308>)
 8006ade:	eb05 00c1 	add.w	r0, r5, r1, lsl #3
 8006ae2:	ed90 7b00 	vldr	d7, [r0]
 8006ae6:	9905      	ldr	r1, [sp, #20]
 8006ae8:	2900      	cmp	r1, #0
 8006aea:	ed8d 7b02 	vstr	d7, [sp, #8]
 8006aee:	f2c0 8501 	blt.w	80074f4 <_dtoa_r+0xc64>
 8006af2:	e9dd 2302 	ldrd	r2, r3, [sp, #8]
 8006af6:	4650      	mov	r0, sl
 8006af8:	4659      	mov	r1, fp
 8006afa:	f7fb fc6f 	bl	80023dc <__aeabi_ddiv>
 8006afe:	f7fb fddd 	bl	80026bc <__aeabi_d2iz>
 8006b02:	4606      	mov	r6, r0
 8006b04:	f7fb fada 	bl	80020bc <__aeabi_i2d>
 8006b08:	e9dd 2302 	ldrd	r2, r3, [sp, #8]
 8006b0c:	f7fb fb3c 	bl	8002188 <__aeabi_dmul>
 8006b10:	4602      	mov	r2, r0
 8006b12:	460b      	mov	r3, r1
 8006b14:	4650      	mov	r0, sl
 8006b16:	4659      	mov	r1, fp
 8006b18:	f7fb f982 	bl	8001e20 <__aeabi_dsub>
 8006b1c:	9a09      	ldr	r2, [sp, #36]	; 0x24
 8006b1e:	f8dd 8010 	ldr.w	r8, [sp, #16]
 8006b22:	f106 0330 	add.w	r3, r6, #48	; 0x30
 8006b26:	2a01      	cmp	r2, #1
 8006b28:	4604      	mov	r4, r0
 8006b2a:	460d      	mov	r5, r1
 8006b2c:	f808 3b01 	strb.w	r3, [r8], #1
 8006b30:	f000 8092 	beq.w	8006c58 <_dtoa_r+0x3c8>
 8006b34:	2300      	movs	r3, #0
 8006b36:	2200      	movs	r2, #0
 8006b38:	f2c4 0324 	movt	r3, #16420	; 0x4024
 8006b3c:	f7fb fb24 	bl	8002188 <__aeabi_dmul>
 8006b40:	2200      	movs	r2, #0
 8006b42:	2300      	movs	r3, #0
 8006b44:	4604      	mov	r4, r0
 8006b46:	460d      	mov	r5, r1
 8006b48:	f7fb fd86 	bl	8002658 <__aeabi_dcmpeq>
 8006b4c:	2800      	cmp	r0, #0
 8006b4e:	f040 80c1 	bne.w	8006cd4 <_dtoa_r+0x444>
 8006b52:	9f04      	ldr	r7, [sp, #16]
 8006b54:	9e04      	ldr	r6, [sp, #16]
 8006b56:	9809      	ldr	r0, [sp, #36]	; 0x24
 8006b58:	3702      	adds	r7, #2
 8006b5a:	eb06 0b00 	add.w	fp, r6, r0
 8006b5e:	ebc7 010b 	rsb	r1, r7, fp
 8006b62:	07c9      	lsls	r1, r1, #31
 8006b64:	f100 80c8 	bmi.w	8006cf8 <_dtoa_r+0x468>
 8006b68:	f8cd b014 	str.w	fp, [sp, #20]
 8006b6c:	e9dd ab02 	ldrd	sl, fp, [sp, #8]
 8006b70:	e04c      	b.n	8006c0c <_dtoa_r+0x37c>
 8006b72:	bf00      	nop
 8006b74:	f3af 8000 	nop.w
 8006b78:	636f4361 	.word	0x636f4361
 8006b7c:	3fd287a7 	.word	0x3fd287a7
 8006b80:	8b60c8b3 	.word	0x8b60c8b3
 8006b84:	3fc68a28 	.word	0x3fc68a28
 8006b88:	509f79fb 	.word	0x509f79fb
 8006b8c:	3fd34413 	.word	0x3fd34413
 8006b90:	0800e0ad 	.word	0x0800e0ad
 8006b94:	0800e1e0 	.word	0x0800e1e0
 8006b98:	0800e200 	.word	0x0800e200
 8006b9c:	0800e1d4 	.word	0x0800e1d4
 8006ba0:	0800e0ac 	.word	0x0800e0ac
 8006ba4:	f7fb faf0 	bl	8002188 <__aeabi_dmul>
 8006ba8:	2200      	movs	r2, #0
 8006baa:	2300      	movs	r3, #0
 8006bac:	4604      	mov	r4, r0
 8006bae:	460d      	mov	r5, r1
 8006bb0:	f7fb fd52 	bl	8002658 <__aeabi_dcmpeq>
 8006bb4:	4652      	mov	r2, sl
 8006bb6:	465b      	mov	r3, fp
 8006bb8:	2800      	cmp	r0, #0
 8006bba:	f040 808b 	bne.w	8006cd4 <_dtoa_r+0x444>
 8006bbe:	4620      	mov	r0, r4
 8006bc0:	4629      	mov	r1, r5
 8006bc2:	f7fb fc0b 	bl	80023dc <__aeabi_ddiv>
 8006bc6:	f7fb fd79 	bl	80026bc <__aeabi_d2iz>
 8006bca:	4606      	mov	r6, r0
 8006bcc:	f7fb fa76 	bl	80020bc <__aeabi_i2d>
 8006bd0:	4652      	mov	r2, sl
 8006bd2:	465b      	mov	r3, fp
 8006bd4:	f7fb fad8 	bl	8002188 <__aeabi_dmul>
 8006bd8:	4602      	mov	r2, r0
 8006bda:	460b      	mov	r3, r1
 8006bdc:	4620      	mov	r0, r4
 8006bde:	4629      	mov	r1, r5
 8006be0:	f7fb f91e 	bl	8001e20 <__aeabi_dsub>
 8006be4:	3630      	adds	r6, #48	; 0x30
 8006be6:	2300      	movs	r3, #0
 8006be8:	2200      	movs	r2, #0
 8006bea:	f2c4 0324 	movt	r3, #16420	; 0x4024
 8006bee:	f807 6c01 	strb.w	r6, [r7, #-1]
 8006bf2:	f7fb fac9 	bl	8002188 <__aeabi_dmul>
 8006bf6:	2200      	movs	r2, #0
 8006bf8:	2300      	movs	r3, #0
 8006bfa:	46b8      	mov	r8, r7
 8006bfc:	4604      	mov	r4, r0
 8006bfe:	460d      	mov	r5, r1
 8006c00:	f107 0701 	add.w	r7, r7, #1
 8006c04:	f7fb fd28 	bl	8002658 <__aeabi_dcmpeq>
 8006c08:	2800      	cmp	r0, #0
 8006c0a:	d163      	bne.n	8006cd4 <_dtoa_r+0x444>
 8006c0c:	4652      	mov	r2, sl
 8006c0e:	465b      	mov	r3, fp
 8006c10:	4620      	mov	r0, r4
 8006c12:	4629      	mov	r1, r5
 8006c14:	f7fb fbe2 	bl	80023dc <__aeabi_ddiv>
 8006c18:	f7fb fd50 	bl	80026bc <__aeabi_d2iz>
 8006c1c:	4606      	mov	r6, r0
 8006c1e:	f7fb fa4d 	bl	80020bc <__aeabi_i2d>
 8006c22:	4652      	mov	r2, sl
 8006c24:	465b      	mov	r3, fp
 8006c26:	f7fb faaf 	bl	8002188 <__aeabi_dmul>
 8006c2a:	4602      	mov	r2, r0
 8006c2c:	460b      	mov	r3, r1
 8006c2e:	4620      	mov	r0, r4
 8006c30:	4629      	mov	r1, r5
 8006c32:	f7fb f8f5 	bl	8001e20 <__aeabi_dsub>
 8006c36:	f8dd c014 	ldr.w	ip, [sp, #20]
 8006c3a:	2300      	movs	r3, #0
 8006c3c:	f106 0830 	add.w	r8, r6, #48	; 0x30
 8006c40:	2200      	movs	r2, #0
 8006c42:	4567      	cmp	r7, ip
 8006c44:	f807 8c01 	strb.w	r8, [r7, #-1]
 8006c48:	4604      	mov	r4, r0
 8006c4a:	46b8      	mov	r8, r7
 8006c4c:	460d      	mov	r5, r1
 8006c4e:	f2c4 0324 	movt	r3, #16420	; 0x4024
 8006c52:	f107 0701 	add.w	r7, r7, #1
 8006c56:	d1a5      	bne.n	8006ba4 <_dtoa_r+0x314>
 8006c58:	4622      	mov	r2, r4
 8006c5a:	462b      	mov	r3, r5
 8006c5c:	4620      	mov	r0, r4
 8006c5e:	4629      	mov	r1, r5
 8006c60:	f7fb f8e0 	bl	8001e24 <__adddf3>
 8006c64:	4604      	mov	r4, r0
 8006c66:	460d      	mov	r5, r1
 8006c68:	4622      	mov	r2, r4
 8006c6a:	e9dd 0102 	ldrd	r0, r1, [sp, #8]
 8006c6e:	462b      	mov	r3, r5
 8006c70:	f7fb fcfc 	bl	800266c <__aeabi_dcmplt>
 8006c74:	b940      	cbnz	r0, 8006c88 <_dtoa_r+0x3f8>
 8006c76:	e9dd 0102 	ldrd	r0, r1, [sp, #8]
 8006c7a:	4622      	mov	r2, r4
 8006c7c:	462b      	mov	r3, r5
 8006c7e:	f7fb fceb 	bl	8002658 <__aeabi_dcmpeq>
 8006c82:	b338      	cbz	r0, 8006cd4 <_dtoa_r+0x444>
 8006c84:	07f5      	lsls	r5, r6, #31
 8006c86:	d525      	bpl.n	8006cd4 <_dtoa_r+0x444>
 8006c88:	f818 bc01 	ldrb.w	fp, [r8, #-1]
 8006c8c:	9a04      	ldr	r2, [sp, #16]
 8006c8e:	43d3      	mvns	r3, r2
 8006c90:	eb08 0003 	add.w	r0, r8, r3
 8006c94:	07c0      	lsls	r0, r0, #31
 8006c96:	f100 8505 	bmi.w	80076a4 <_dtoa_r+0xe14>
 8006c9a:	4615      	mov	r5, r2
 8006c9c:	f1bb 0f39 	cmp.w	fp, #57	; 0x39
 8006ca0:	f108 31ff 	add.w	r1, r8, #4294967295
 8006ca4:	d112      	bne.n	8006ccc <_dtoa_r+0x43c>
 8006ca6:	428d      	cmp	r5, r1
 8006ca8:	f000 853f 	beq.w	800772a <_dtoa_r+0xe9a>
 8006cac:	f811 bc01 	ldrb.w	fp, [r1, #-1]
 8006cb0:	f1bb 0f39 	cmp.w	fp, #57	; 0x39
 8006cb4:	4688      	mov	r8, r1
 8006cb6:	f101 31ff 	add.w	r1, r1, #4294967295
 8006cba:	d107      	bne.n	8006ccc <_dtoa_r+0x43c>
 8006cbc:	f811 bc01 	ldrb.w	fp, [r1, #-1]
 8006cc0:	4688      	mov	r8, r1
 8006cc2:	f1bb 0f39 	cmp.w	fp, #57	; 0x39
 8006cc6:	f108 31ff 	add.w	r1, r8, #4294967295
 8006cca:	d0ec      	beq.n	8006ca6 <_dtoa_r+0x416>
 8006ccc:	f10b 0201 	add.w	r2, fp, #1
 8006cd0:	b2d3      	uxtb	r3, r2
 8006cd2:	700b      	strb	r3, [r1, #0]
 8006cd4:	4648      	mov	r0, r9
 8006cd6:	990a      	ldr	r1, [sp, #40]	; 0x28
 8006cd8:	f001 face 	bl	8008278 <_Bfree>
 8006cdc:	9806      	ldr	r0, [sp, #24]
 8006cde:	9d08      	ldr	r5, [sp, #32]
 8006ce0:	1c41      	adds	r1, r0, #1
 8006ce2:	2200      	movs	r2, #0
 8006ce4:	f888 2000 	strb.w	r2, [r8]
 8006ce8:	6029      	str	r1, [r5, #0]
 8006cea:	9d27      	ldr	r5, [sp, #156]	; 0x9c
 8006cec:	2d00      	cmp	r5, #0
 8006cee:	f43f ae0a 	beq.w	8006906 <_dtoa_r+0x76>
 8006cf2:	f8c5 8000 	str.w	r8, [r5]
 8006cf6:	e606      	b.n	8006906 <_dtoa_r+0x76>
 8006cf8:	e9dd 2302 	ldrd	r2, r3, [sp, #8]
 8006cfc:	4620      	mov	r0, r4
 8006cfe:	4629      	mov	r1, r5
 8006d00:	f7fb fb6c 	bl	80023dc <__aeabi_ddiv>
 8006d04:	f7fb fcda 	bl	80026bc <__aeabi_d2iz>
 8006d08:	4606      	mov	r6, r0
 8006d0a:	f7fb f9d7 	bl	80020bc <__aeabi_i2d>
 8006d0e:	e9dd 2302 	ldrd	r2, r3, [sp, #8]
 8006d12:	f7fb fa39 	bl	8002188 <__aeabi_dmul>
 8006d16:	4602      	mov	r2, r0
 8006d18:	460b      	mov	r3, r1
 8006d1a:	4620      	mov	r0, r4
 8006d1c:	4629      	mov	r1, r5
 8006d1e:	f7fb f87f 	bl	8001e20 <__aeabi_dsub>
 8006d22:	3630      	adds	r6, #48	; 0x30
 8006d24:	2300      	movs	r3, #0
 8006d26:	2200      	movs	r2, #0
 8006d28:	f2c4 0324 	movt	r3, #16420	; 0x4024
 8006d2c:	f807 6c01 	strb.w	r6, [r7, #-1]
 8006d30:	f7fb fa2a 	bl	8002188 <__aeabi_dmul>
 8006d34:	46b8      	mov	r8, r7
 8006d36:	9f04      	ldr	r7, [sp, #16]
 8006d38:	2200      	movs	r2, #0
 8006d3a:	2300      	movs	r3, #0
 8006d3c:	4604      	mov	r4, r0
 8006d3e:	460d      	mov	r5, r1
 8006d40:	3703      	adds	r7, #3
 8006d42:	f7fb fc89 	bl	8002658 <__aeabi_dcmpeq>
 8006d46:	2800      	cmp	r0, #0
 8006d48:	f43f af0e 	beq.w	8006b68 <_dtoa_r+0x2d8>
 8006d4c:	e7c2      	b.n	8006cd4 <_dtoa_r+0x444>
 8006d4e:	9804      	ldr	r0, [sp, #16]
 8006d50:	1cc1      	adds	r1, r0, #3
 8006d52:	e5f0      	b.n	8006936 <_dtoa_r+0xa6>
 8006d54:	9f0d      	ldr	r7, [sp, #52]	; 0x34
 8006d56:	2f00      	cmp	r7, #0
 8006d58:	f000 8133 	beq.w	8006fc2 <_dtoa_r+0x732>
 8006d5c:	9c02      	ldr	r4, [sp, #8]
 8006d5e:	2c01      	cmp	r4, #1
 8006d60:	f340 83f8 	ble.w	8007554 <_dtoa_r+0xcc4>
 8006d64:	9a09      	ldr	r2, [sp, #36]	; 0x24
 8006d66:	9b0e      	ldr	r3, [sp, #56]	; 0x38
 8006d68:	1e57      	subs	r7, r2, #1
 8006d6a:	42bb      	cmp	r3, r7
 8006d6c:	f2c0 84e8 	blt.w	8007740 <_dtoa_r+0xeb0>
 8006d70:	1bdd      	subs	r5, r3, r7
 8006d72:	9c09      	ldr	r4, [sp, #36]	; 0x24
 8006d74:	2c00      	cmp	r4, #0
 8006d76:	f2c0 8637 	blt.w	80079e8 <_dtoa_r+0x1158>
 8006d7a:	9c0c      	ldr	r4, [sp, #48]	; 0x30
 8006d7c:	9f09      	ldr	r7, [sp, #36]	; 0x24
 8006d7e:	f8dd e030 	ldr.w	lr, [sp, #48]	; 0x30
 8006d82:	9a07      	ldr	r2, [sp, #28]
 8006d84:	eb0e 0807 	add.w	r8, lr, r7
 8006d88:	4648      	mov	r0, r9
 8006d8a:	19d7      	adds	r7, r2, r7
 8006d8c:	2101      	movs	r1, #1
 8006d8e:	f8cd 8030 	str.w	r8, [sp, #48]	; 0x30
 8006d92:	9707      	str	r7, [sp, #28]
 8006d94:	f001 fbe2 	bl	800855c <__i2b>
 8006d98:	900b      	str	r0, [sp, #44]	; 0x2c
 8006d9a:	b164      	cbz	r4, 8006db6 <_dtoa_r+0x526>
 8006d9c:	9907      	ldr	r1, [sp, #28]
 8006d9e:	2900      	cmp	r1, #0
 8006da0:	dd09      	ble.n	8006db6 <_dtoa_r+0x526>
 8006da2:	9b0c      	ldr	r3, [sp, #48]	; 0x30
 8006da4:	4608      	mov	r0, r1
 8006da6:	42a0      	cmp	r0, r4
 8006da8:	bfa8      	it	ge
 8006daa:	4620      	movge	r0, r4
 8006dac:	1a1a      	subs	r2, r3, r0
 8006dae:	1a0f      	subs	r7, r1, r0
 8006db0:	920c      	str	r2, [sp, #48]	; 0x30
 8006db2:	1a24      	subs	r4, r4, r0
 8006db4:	9707      	str	r7, [sp, #28]
 8006db6:	990e      	ldr	r1, [sp, #56]	; 0x38
 8006db8:	2900      	cmp	r1, #0
 8006dba:	dd1a      	ble.n	8006df2 <_dtoa_r+0x562>
 8006dbc:	980d      	ldr	r0, [sp, #52]	; 0x34
 8006dbe:	2800      	cmp	r0, #0
 8006dc0:	f000 84ab 	beq.w	800771a <_dtoa_r+0xe8a>
 8006dc4:	2d00      	cmp	r5, #0
 8006dc6:	dd10      	ble.n	8006dea <_dtoa_r+0x55a>
 8006dc8:	990b      	ldr	r1, [sp, #44]	; 0x2c
 8006dca:	462a      	mov	r2, r5
 8006dcc:	4648      	mov	r0, r9
 8006dce:	f001 fd37 	bl	8008840 <__pow5mult>
 8006dd2:	900b      	str	r0, [sp, #44]	; 0x2c
 8006dd4:	990b      	ldr	r1, [sp, #44]	; 0x2c
 8006dd6:	9a0a      	ldr	r2, [sp, #40]	; 0x28
 8006dd8:	4648      	mov	r0, r9
 8006dda:	f001 fbc9 	bl	8008570 <__multiply>
 8006dde:	990a      	ldr	r1, [sp, #40]	; 0x28
 8006de0:	4606      	mov	r6, r0
 8006de2:	4648      	mov	r0, r9
 8006de4:	f001 fa48 	bl	8008278 <_Bfree>
 8006de8:	960a      	str	r6, [sp, #40]	; 0x28
 8006dea:	9b0e      	ldr	r3, [sp, #56]	; 0x38
 8006dec:	1b5a      	subs	r2, r3, r5
 8006dee:	f040 83ab 	bne.w	8007548 <_dtoa_r+0xcb8>
 8006df2:	2101      	movs	r1, #1
 8006df4:	4648      	mov	r0, r9
 8006df6:	f001 fbb1 	bl	800855c <__i2b>
 8006dfa:	9d0f      	ldr	r5, [sp, #60]	; 0x3c
 8006dfc:	2d00      	cmp	r5, #0
 8006dfe:	4607      	mov	r7, r0
 8006e00:	dd05      	ble.n	8006e0e <_dtoa_r+0x57e>
 8006e02:	4639      	mov	r1, r7
 8006e04:	4648      	mov	r0, r9
 8006e06:	462a      	mov	r2, r5
 8006e08:	f001 fd1a 	bl	8008840 <__pow5mult>
 8006e0c:	4607      	mov	r7, r0
 8006e0e:	9a02      	ldr	r2, [sp, #8]
 8006e10:	2a01      	cmp	r2, #1
 8006e12:	f340 8159 	ble.w	80070c8 <_dtoa_r+0x838>
 8006e16:	2500      	movs	r5, #0
 8006e18:	9b0f      	ldr	r3, [sp, #60]	; 0x3c
 8006e1a:	2b00      	cmp	r3, #0
 8006e1c:	f040 841a 	bne.w	8007654 <_dtoa_r+0xdc4>
 8006e20:	2101      	movs	r1, #1
 8006e22:	9b07      	ldr	r3, [sp, #28]
 8006e24:	18c9      	adds	r1, r1, r3
 8006e26:	f011 001f 	ands.w	r0, r1, #31
 8006e2a:	f000 80cf 	beq.w	8006fcc <_dtoa_r+0x73c>
 8006e2e:	f1c0 0220 	rsb	r2, r0, #32
 8006e32:	2a04      	cmp	r2, #4
 8006e34:	f340 8655 	ble.w	8007ae2 <_dtoa_r+0x1252>
 8006e38:	f8dd 8030 	ldr.w	r8, [sp, #48]	; 0x30
 8006e3c:	9a07      	ldr	r2, [sp, #28]
 8006e3e:	f1c0 031c 	rsb	r3, r0, #28
 8006e42:	eb08 0c03 	add.w	ip, r8, r3
 8006e46:	18d1      	adds	r1, r2, r3
 8006e48:	f8cd c030 	str.w	ip, [sp, #48]	; 0x30
 8006e4c:	18e4      	adds	r4, r4, r3
 8006e4e:	9107      	str	r1, [sp, #28]
 8006e50:	980c      	ldr	r0, [sp, #48]	; 0x30
 8006e52:	2800      	cmp	r0, #0
 8006e54:	dd05      	ble.n	8006e62 <_dtoa_r+0x5d2>
 8006e56:	4648      	mov	r0, r9
 8006e58:	990a      	ldr	r1, [sp, #40]	; 0x28
 8006e5a:	9a0c      	ldr	r2, [sp, #48]	; 0x30
 8006e5c:	f001 fd3a 	bl	80088d4 <__lshift>
 8006e60:	900a      	str	r0, [sp, #40]	; 0x28
 8006e62:	9a07      	ldr	r2, [sp, #28]
 8006e64:	2a00      	cmp	r2, #0
 8006e66:	dd04      	ble.n	8006e72 <_dtoa_r+0x5e2>
 8006e68:	4639      	mov	r1, r7
 8006e6a:	4648      	mov	r0, r9
 8006e6c:	f001 fd32 	bl	80088d4 <__lshift>
 8006e70:	4607      	mov	r7, r0
 8006e72:	9b10      	ldr	r3, [sp, #64]	; 0x40
 8006e74:	2b00      	cmp	r3, #0
 8006e76:	f040 83d2 	bne.w	800761e <_dtoa_r+0xd8e>
 8006e7a:	9b09      	ldr	r3, [sp, #36]	; 0x24
 8006e7c:	2b00      	cmp	r3, #0
 8006e7e:	f340 83f3 	ble.w	8007668 <_dtoa_r+0xdd8>
 8006e82:	990d      	ldr	r1, [sp, #52]	; 0x34
 8006e84:	2900      	cmp	r1, #0
 8006e86:	f040 80b7 	bne.w	8006ff8 <_dtoa_r+0x768>
 8006e8a:	9809      	ldr	r0, [sp, #36]	; 0x24
 8006e8c:	9d0d      	ldr	r5, [sp, #52]	; 0x34
 8006e8e:	07c2      	lsls	r2, r0, #31
 8006e90:	f140 83a2 	bpl.w	80075d8 <_dtoa_r+0xd48>
 8006e94:	4682      	mov	sl, r0
 8006e96:	9e0a      	ldr	r6, [sp, #40]	; 0x28
 8006e98:	f8dd 8010 	ldr.w	r8, [sp, #16]
 8006e9c:	e010      	b.n	8006ec0 <_dtoa_r+0x630>
 8006e9e:	f001 f9f5 	bl	800828c <__multadd>
 8006ea2:	4639      	mov	r1, r7
 8006ea4:	4606      	mov	r6, r0
 8006ea6:	f7ff fb7b 	bl	80065a0 <quorem>
 8006eaa:	3030      	adds	r0, #48	; 0x30
 8006eac:	f808 0004 	strb.w	r0, [r8, r4]
 8006eb0:	4631      	mov	r1, r6
 8006eb2:	4648      	mov	r0, r9
 8006eb4:	220a      	movs	r2, #10
 8006eb6:	2300      	movs	r3, #0
 8006eb8:	f001 f9e8 	bl	800828c <__multadd>
 8006ebc:	1c65      	adds	r5, r4, #1
 8006ebe:	4606      	mov	r6, r0
 8006ec0:	4639      	mov	r1, r7
 8006ec2:	4630      	mov	r0, r6
 8006ec4:	f7ff fb6c 	bl	80065a0 <quorem>
 8006ec8:	1c6c      	adds	r4, r5, #1
 8006eca:	f100 0b30 	add.w	fp, r0, #48	; 0x30
 8006ece:	220a      	movs	r2, #10
 8006ed0:	2300      	movs	r3, #0
 8006ed2:	45a2      	cmp	sl, r4
 8006ed4:	4631      	mov	r1, r6
 8006ed6:	4648      	mov	r0, r9
 8006ed8:	f808 b005 	strb.w	fp, [r8, r5]
 8006edc:	dcdf      	bgt.n	8006e9e <_dtoa_r+0x60e>
 8006ede:	960a      	str	r6, [sp, #40]	; 0x28
 8006ee0:	f8dd 8010 	ldr.w	r8, [sp, #16]
 8006ee4:	9a09      	ldr	r2, [sp, #36]	; 0x24
 8006ee6:	2500      	movs	r5, #0
 8006ee8:	2a01      	cmp	r2, #1
 8006eea:	bfac      	ite	ge
 8006eec:	4490      	addge	r8, r2
 8006eee:	f108 0801 	addlt.w	r8, r8, #1
 8006ef2:	2201      	movs	r2, #1
 8006ef4:	990a      	ldr	r1, [sp, #40]	; 0x28
 8006ef6:	4648      	mov	r0, r9
 8006ef8:	f001 fcec 	bl	80088d4 <__lshift>
 8006efc:	4639      	mov	r1, r7
 8006efe:	900a      	str	r0, [sp, #40]	; 0x28
 8006f00:	f001 fdac 	bl	8008a5c <__mcmp>
 8006f04:	2800      	cmp	r0, #0
 8006f06:	f340 844f 	ble.w	80077a8 <_dtoa_r+0xf18>
 8006f0a:	f818 2c01 	ldrb.w	r2, [r8, #-1]
 8006f0e:	9904      	ldr	r1, [sp, #16]
 8006f10:	43c8      	mvns	r0, r1
 8006f12:	eb08 0300 	add.w	r3, r8, r0
 8006f16:	07db      	lsls	r3, r3, #31
 8006f18:	d507      	bpl.n	8006f2a <_dtoa_r+0x69a>
 8006f1a:	2a39      	cmp	r2, #57	; 0x39
 8006f1c:	f108 30ff 	add.w	r0, r8, #4294967295
 8006f20:	d118      	bne.n	8006f54 <_dtoa_r+0x6c4>
 8006f22:	f810 2c01 	ldrb.w	r2, [r0, #-1]
 8006f26:	9904      	ldr	r1, [sp, #16]
 8006f28:	4680      	mov	r8, r0
 8006f2a:	2a39      	cmp	r2, #57	; 0x39
 8006f2c:	f108 30ff 	add.w	r0, r8, #4294967295
 8006f30:	d110      	bne.n	8006f54 <_dtoa_r+0x6c4>
 8006f32:	4281      	cmp	r1, r0
 8006f34:	f000 836c 	beq.w	8007610 <_dtoa_r+0xd80>
 8006f38:	f810 2c01 	ldrb.w	r2, [r0, #-1]
 8006f3c:	2a39      	cmp	r2, #57	; 0x39
 8006f3e:	4680      	mov	r8, r0
 8006f40:	f100 30ff 	add.w	r0, r0, #4294967295
 8006f44:	d106      	bne.n	8006f54 <_dtoa_r+0x6c4>
 8006f46:	f810 2c01 	ldrb.w	r2, [r0, #-1]
 8006f4a:	4680      	mov	r8, r0
 8006f4c:	2a39      	cmp	r2, #57	; 0x39
 8006f4e:	f108 30ff 	add.w	r0, r8, #4294967295
 8006f52:	d0ee      	beq.n	8006f32 <_dtoa_r+0x6a2>
 8006f54:	3201      	adds	r2, #1
 8006f56:	7002      	strb	r2, [r0, #0]
 8006f58:	4648      	mov	r0, r9
 8006f5a:	4639      	mov	r1, r7
 8006f5c:	f001 f98c 	bl	8008278 <_Bfree>
 8006f60:	9b0b      	ldr	r3, [sp, #44]	; 0x2c
 8006f62:	2b00      	cmp	r3, #0
 8006f64:	f43f aeb6 	beq.w	8006cd4 <_dtoa_r+0x444>
 8006f68:	2d00      	cmp	r5, #0
 8006f6a:	f000 82e7 	beq.w	800753c <_dtoa_r+0xcac>
 8006f6e:	429d      	cmp	r5, r3
 8006f70:	f000 82e4 	beq.w	800753c <_dtoa_r+0xcac>
 8006f74:	4648      	mov	r0, r9
 8006f76:	4629      	mov	r1, r5
 8006f78:	f001 f97e 	bl	8008278 <_Bfree>
 8006f7c:	e2de      	b.n	800753c <_dtoa_r+0xcac>
 8006f7e:	2301      	movs	r3, #1
 8006f80:	9310      	str	r3, [sp, #64]	; 0x40
 8006f82:	e54d      	b.n	8006a20 <_dtoa_r+0x190>
 8006f84:	9806      	ldr	r0, [sp, #24]
 8006f86:	f7fb f899 	bl	80020bc <__aeabi_i2d>
 8006f8a:	4622      	mov	r2, r4
 8006f8c:	462b      	mov	r3, r5
 8006f8e:	f7fb fb63 	bl	8002658 <__aeabi_dcmpeq>
 8006f92:	2800      	cmp	r0, #0
 8006f94:	f47f ad2f 	bne.w	80069f6 <_dtoa_r+0x166>
 8006f98:	9806      	ldr	r0, [sp, #24]
 8006f9a:	1e41      	subs	r1, r0, #1
 8006f9c:	9106      	str	r1, [sp, #24]
 8006f9e:	e52a      	b.n	80069f6 <_dtoa_r+0x166>
 8006fa0:	980c      	ldr	r0, [sp, #48]	; 0x30
 8006fa2:	f8dd e018 	ldr.w	lr, [sp, #24]
 8006fa6:	2300      	movs	r3, #0
 8006fa8:	ebce 0100 	rsb	r1, lr, r0
 8006fac:	f1ce 0200 	rsb	r2, lr, #0
 8006fb0:	910c      	str	r1, [sp, #48]	; 0x30
 8006fb2:	920e      	str	r2, [sp, #56]	; 0x38
 8006fb4:	930f      	str	r3, [sp, #60]	; 0x3c
 8006fb6:	e547      	b.n	8006a48 <_dtoa_r+0x1b8>
 8006fb8:	4276      	negs	r6, r6
 8006fba:	2300      	movs	r3, #0
 8006fbc:	960c      	str	r6, [sp, #48]	; 0x30
 8006fbe:	9307      	str	r3, [sp, #28]
 8006fc0:	e535      	b.n	8006a2e <_dtoa_r+0x19e>
 8006fc2:	980d      	ldr	r0, [sp, #52]	; 0x34
 8006fc4:	9d0e      	ldr	r5, [sp, #56]	; 0x38
 8006fc6:	9c0c      	ldr	r4, [sp, #48]	; 0x30
 8006fc8:	900b      	str	r0, [sp, #44]	; 0x2c
 8006fca:	e6e6      	b.n	8006d9a <_dtoa_r+0x50a>
 8006fcc:	231c      	movs	r3, #28
 8006fce:	990c      	ldr	r1, [sp, #48]	; 0x30
 8006fd0:	f8dd c01c 	ldr.w	ip, [sp, #28]
 8006fd4:	18c8      	adds	r0, r1, r3
 8006fd6:	eb0c 0e03 	add.w	lr, ip, r3
 8006fda:	900c      	str	r0, [sp, #48]	; 0x30
 8006fdc:	18e4      	adds	r4, r4, r3
 8006fde:	f8cd e01c 	str.w	lr, [sp, #28]
 8006fe2:	e735      	b.n	8006e50 <_dtoa_r+0x5c0>
 8006fe4:	f64f 35ee 	movw	r5, #64494	; 0xfbee
 8006fe8:	f6cf 75ff 	movt	r5, #65535	; 0xffff
 8006fec:	1bab      	subs	r3, r5, r6
 8006fee:	fa0a f003 	lsl.w	r0, sl, r3
 8006ff2:	e4cb      	b.n	800698c <_dtoa_r+0xfc>
 8006ff4:	9010      	str	r0, [sp, #64]	; 0x40
 8006ff6:	e513      	b.n	8006a20 <_dtoa_r+0x190>
 8006ff8:	2c00      	cmp	r4, #0
 8006ffa:	dd05      	ble.n	8007008 <_dtoa_r+0x778>
 8006ffc:	4648      	mov	r0, r9
 8006ffe:	990b      	ldr	r1, [sp, #44]	; 0x2c
 8007000:	4622      	mov	r2, r4
 8007002:	f001 fc67 	bl	80088d4 <__lshift>
 8007006:	900b      	str	r0, [sp, #44]	; 0x2c
 8007008:	2d00      	cmp	r5, #0
 800700a:	f040 8405 	bne.w	8007818 <_dtoa_r+0xf88>
 800700e:	9e0b      	ldr	r6, [sp, #44]	; 0x2c
 8007010:	9d09      	ldr	r5, [sp, #36]	; 0x24
 8007012:	9a04      	ldr	r2, [sp, #16]
 8007014:	9b04      	ldr	r3, [sp, #16]
 8007016:	1951      	adds	r1, r2, r5
 8007018:	f00a 0001 	and.w	r0, sl, #1
 800701c:	9d0b      	ldr	r5, [sp, #44]	; 0x2c
 800701e:	f8dd a028 	ldr.w	sl, [sp, #40]	; 0x28
 8007022:	9107      	str	r1, [sp, #28]
 8007024:	1c5c      	adds	r4, r3, #1
 8007026:	9009      	str	r0, [sp, #36]	; 0x24
 8007028:	4639      	mov	r1, r7
 800702a:	4650      	mov	r0, sl
 800702c:	f7ff fab8 	bl	80065a0 <quorem>
 8007030:	4629      	mov	r1, r5
 8007032:	4680      	mov	r8, r0
 8007034:	4650      	mov	r0, sl
 8007036:	f001 fd11 	bl	8008a5c <__mcmp>
 800703a:	4639      	mov	r1, r7
 800703c:	4632      	mov	r2, r6
 800703e:	4683      	mov	fp, r0
 8007040:	4648      	mov	r0, r9
 8007042:	f001 fd39 	bl	8008ab8 <__mdiff>
 8007046:	68c1      	ldr	r1, [r0, #12]
 8007048:	1e63      	subs	r3, r4, #1
 800704a:	4602      	mov	r2, r0
 800704c:	9305      	str	r3, [sp, #20]
 800704e:	f108 0c30 	add.w	ip, r8, #48	; 0x30
 8007052:	2900      	cmp	r1, #0
 8007054:	f000 8287 	beq.w	8007566 <_dtoa_r+0xcd6>
 8007058:	4648      	mov	r0, r9
 800705a:	4611      	mov	r1, r2
 800705c:	f8cd c000 	str.w	ip, [sp]
 8007060:	f001 f90a 	bl	8008278 <_Bfree>
 8007064:	f8dd c000 	ldr.w	ip, [sp]
 8007068:	2001      	movs	r0, #1
 800706a:	f1bb 0f00 	cmp.w	fp, #0
 800706e:	f2c0 837b 	blt.w	8007768 <_dtoa_r+0xed8>
 8007072:	d105      	bne.n	8007080 <_dtoa_r+0x7f0>
 8007074:	9a02      	ldr	r2, [sp, #8]
 8007076:	b91a      	cbnz	r2, 8007080 <_dtoa_r+0x7f0>
 8007078:	9909      	ldr	r1, [sp, #36]	; 0x24
 800707a:	2900      	cmp	r1, #0
 800707c:	f000 8374 	beq.w	8007768 <_dtoa_r+0xed8>
 8007080:	2800      	cmp	r0, #0
 8007082:	f300 83e0 	bgt.w	8007846 <_dtoa_r+0xfb6>
 8007086:	9807      	ldr	r0, [sp, #28]
 8007088:	f804 cc01 	strb.w	ip, [r4, #-1]
 800708c:	4284      	cmp	r4, r0
 800708e:	46a0      	mov	r8, r4
 8007090:	f000 83e8 	beq.w	8007864 <_dtoa_r+0xfd4>
 8007094:	4651      	mov	r1, sl
 8007096:	220a      	movs	r2, #10
 8007098:	2300      	movs	r3, #0
 800709a:	4648      	mov	r0, r9
 800709c:	f001 f8f6 	bl	800828c <__multadd>
 80070a0:	42b5      	cmp	r5, r6
 80070a2:	4682      	mov	sl, r0
 80070a4:	f000 828e 	beq.w	80075c4 <_dtoa_r+0xd34>
 80070a8:	4629      	mov	r1, r5
 80070aa:	220a      	movs	r2, #10
 80070ac:	2300      	movs	r3, #0
 80070ae:	4648      	mov	r0, r9
 80070b0:	f001 f8ec 	bl	800828c <__multadd>
 80070b4:	4631      	mov	r1, r6
 80070b6:	4605      	mov	r5, r0
 80070b8:	220a      	movs	r2, #10
 80070ba:	4648      	mov	r0, r9
 80070bc:	2300      	movs	r3, #0
 80070be:	f001 f8e5 	bl	800828c <__multadd>
 80070c2:	3401      	adds	r4, #1
 80070c4:	4606      	mov	r6, r0
 80070c6:	e7af      	b.n	8007028 <_dtoa_r+0x798>
 80070c8:	f1ba 0f00 	cmp.w	sl, #0
 80070cc:	f47f aea3 	bne.w	8006e16 <_dtoa_r+0x586>
 80070d0:	f3cb 0013 	ubfx	r0, fp, #0, #20
 80070d4:	4659      	mov	r1, fp
 80070d6:	2800      	cmp	r0, #0
 80070d8:	f040 8492 	bne.w	8007a00 <_dtoa_r+0x1170>
 80070dc:	2500      	movs	r5, #0
 80070de:	f6c7 75f0 	movt	r5, #32752	; 0x7ff0
 80070e2:	400d      	ands	r5, r1
 80070e4:	2d00      	cmp	r5, #0
 80070e6:	f43f ae97 	beq.w	8006e18 <_dtoa_r+0x588>
 80070ea:	9b0c      	ldr	r3, [sp, #48]	; 0x30
 80070ec:	9907      	ldr	r1, [sp, #28]
 80070ee:	1c5a      	adds	r2, r3, #1
 80070f0:	1c48      	adds	r0, r1, #1
 80070f2:	920c      	str	r2, [sp, #48]	; 0x30
 80070f4:	9007      	str	r0, [sp, #28]
 80070f6:	2501      	movs	r5, #1
 80070f8:	e68e      	b.n	8006e18 <_dtoa_r+0x588>
 80070fa:	2301      	movs	r3, #1
 80070fc:	930d      	str	r3, [sp, #52]	; 0x34
 80070fe:	9905      	ldr	r1, [sp, #20]
 8007100:	2900      	cmp	r1, #0
 8007102:	f340 832c 	ble.w	800775e <_dtoa_r+0xece>
 8007106:	460c      	mov	r4, r1
 8007108:	9111      	str	r1, [sp, #68]	; 0x44
 800710a:	9109      	str	r1, [sp, #36]	; 0x24
 800710c:	2100      	movs	r1, #0
 800710e:	2c17      	cmp	r4, #23
 8007110:	f8c9 1044 	str.w	r1, [r9, #68]	; 0x44
 8007114:	d90a      	bls.n	800712c <_dtoa_r+0x89c>
 8007116:	2201      	movs	r2, #1
 8007118:	2304      	movs	r3, #4
 800711a:	005b      	lsls	r3, r3, #1
 800711c:	f103 0014 	add.w	r0, r3, #20
 8007120:	4611      	mov	r1, r2
 8007122:	3201      	adds	r2, #1
 8007124:	42a0      	cmp	r0, r4
 8007126:	d9f8      	bls.n	800711a <_dtoa_r+0x88a>
 8007128:	f8c9 1044 	str.w	r1, [r9, #68]	; 0x44
 800712c:	4648      	mov	r0, r9
 800712e:	f001 f87d 	bl	800822c <_Balloc>
 8007132:	2c0e      	cmp	r4, #14
 8007134:	9004      	str	r0, [sp, #16]
 8007136:	f8c9 0040 	str.w	r0, [r9, #64]	; 0x40
 800713a:	f63f acc7 	bhi.w	8006acc <_dtoa_r+0x23c>
 800713e:	2d00      	cmp	r5, #0
 8007140:	f43f acc4 	beq.w	8006acc <_dtoa_r+0x23c>
 8007144:	9f06      	ldr	r7, [sp, #24]
 8007146:	2f00      	cmp	r7, #0
 8007148:	e9cd ab12 	strd	sl, fp, [sp, #72]	; 0x48
 800714c:	f340 8340 	ble.w	80077d0 <_dtoa_r+0xf40>
 8007150:	4c99      	ldr	r4, [pc, #612]	; (80073b8 <_dtoa_r+0xb28>)
 8007152:	f007 060f 	and.w	r6, r7, #15
 8007156:	eb04 00c6 	add.w	r0, r4, r6, lsl #3
 800715a:	113e      	asrs	r6, r7, #4
 800715c:	06f1      	lsls	r1, r6, #27
 800715e:	e9d0 4500 	ldrd	r4, r5, [r0]
 8007162:	f140 82f8 	bpl.w	8007756 <_dtoa_r+0xec6>
 8007166:	4f95      	ldr	r7, [pc, #596]	; (80073bc <_dtoa_r+0xb2c>)
 8007168:	4650      	mov	r0, sl
 800716a:	4659      	mov	r1, fp
 800716c:	e9d7 2308 	ldrd	r2, r3, [r7, #32]
 8007170:	f7fb f934 	bl	80023dc <__aeabi_ddiv>
 8007174:	f006 060f 	and.w	r6, r6, #15
 8007178:	4682      	mov	sl, r0
 800717a:	468b      	mov	fp, r1
 800717c:	2703      	movs	r7, #3
 800717e:	b186      	cbz	r6, 80071a2 <_dtoa_r+0x912>
 8007180:	f8df 8238 	ldr.w	r8, [pc, #568]	; 80073bc <_dtoa_r+0xb2c>
 8007184:	4620      	mov	r0, r4
 8007186:	4629      	mov	r1, r5
 8007188:	07f2      	lsls	r2, r6, #31
 800718a:	d504      	bpl.n	8007196 <_dtoa_r+0x906>
 800718c:	e9d8 2300 	ldrd	r2, r3, [r8]
 8007190:	f7fa fffa 	bl	8002188 <__aeabi_dmul>
 8007194:	3701      	adds	r7, #1
 8007196:	1076      	asrs	r6, r6, #1
 8007198:	f108 0808 	add.w	r8, r8, #8
 800719c:	d1f4      	bne.n	8007188 <_dtoa_r+0x8f8>
 800719e:	4604      	mov	r4, r0
 80071a0:	460d      	mov	r5, r1
 80071a2:	4650      	mov	r0, sl
 80071a4:	4659      	mov	r1, fp
 80071a6:	4622      	mov	r2, r4
 80071a8:	462b      	mov	r3, r5
 80071aa:	f7fb f917 	bl	80023dc <__aeabi_ddiv>
 80071ae:	4682      	mov	sl, r0
 80071b0:	468b      	mov	fp, r1
 80071b2:	9910      	ldr	r1, [sp, #64]	; 0x40
 80071b4:	b151      	cbz	r1, 80071cc <_dtoa_r+0x93c>
 80071b6:	2300      	movs	r3, #0
 80071b8:	4650      	mov	r0, sl
 80071ba:	4659      	mov	r1, fp
 80071bc:	2200      	movs	r2, #0
 80071be:	f6c3 73f0 	movt	r3, #16368	; 0x3ff0
 80071c2:	f7fb fa53 	bl	800266c <__aeabi_dcmplt>
 80071c6:	2800      	cmp	r0, #0
 80071c8:	f040 8422 	bne.w	8007a10 <_dtoa_r+0x1180>
 80071cc:	4638      	mov	r0, r7
 80071ce:	f7fa ff75 	bl	80020bc <__aeabi_i2d>
 80071d2:	4652      	mov	r2, sl
 80071d4:	465b      	mov	r3, fp
 80071d6:	f7fa ffd7 	bl	8002188 <__aeabi_dmul>
 80071da:	2300      	movs	r3, #0
 80071dc:	2200      	movs	r2, #0
 80071de:	f2c4 031c 	movt	r3, #16412	; 0x401c
 80071e2:	f7fa fe1f 	bl	8001e24 <__adddf3>
 80071e6:	9a09      	ldr	r2, [sp, #36]	; 0x24
 80071e8:	4604      	mov	r4, r0
 80071ea:	f1a1 7550 	sub.w	r5, r1, #54525952	; 0x3400000
 80071ee:	2a00      	cmp	r2, #0
 80071f0:	f000 8276 	beq.w	80076e0 <_dtoa_r+0xe50>
 80071f4:	9e06      	ldr	r6, [sp, #24]
 80071f6:	9619      	str	r6, [sp, #100]	; 0x64
 80071f8:	9e09      	ldr	r6, [sp, #36]	; 0x24
 80071fa:	980d      	ldr	r0, [sp, #52]	; 0x34
 80071fc:	2800      	cmp	r0, #0
 80071fe:	f000 8337 	beq.w	8007870 <_dtoa_r+0xfe0>
 8007202:	4a6d      	ldr	r2, [pc, #436]	; (80073b8 <_dtoa_r+0xb28>)
 8007204:	2100      	movs	r1, #0
 8007206:	eb02 03c6 	add.w	r3, r2, r6, lsl #3
 800720a:	e953 2302 	ldrd	r2, r3, [r3, #-8]
 800720e:	2000      	movs	r0, #0
 8007210:	f6c3 71e0 	movt	r1, #16352	; 0x3fe0
 8007214:	f7fb f8e2 	bl	80023dc <__aeabi_ddiv>
 8007218:	4622      	mov	r2, r4
 800721a:	462b      	mov	r3, r5
 800721c:	f7fa fe00 	bl	8001e20 <__aeabi_dsub>
 8007220:	e9cd 0116 	strd	r0, r1, [sp, #88]	; 0x58
 8007224:	4659      	mov	r1, fp
 8007226:	4650      	mov	r0, sl
 8007228:	f7fb fa48 	bl	80026bc <__aeabi_d2iz>
 800722c:	4604      	mov	r4, r0
 800722e:	f7fa ff45 	bl	80020bc <__aeabi_i2d>
 8007232:	4602      	mov	r2, r0
 8007234:	460b      	mov	r3, r1
 8007236:	4650      	mov	r0, sl
 8007238:	4659      	mov	r1, fp
 800723a:	f7fa fdf1 	bl	8001e20 <__aeabi_dsub>
 800723e:	3430      	adds	r4, #48	; 0x30
 8007240:	f8dd 8010 	ldr.w	r8, [sp, #16]
 8007244:	e9cd 0114 	strd	r0, r1, [sp, #80]	; 0x50
 8007248:	fa5f fb84 	uxtb.w	fp, r4
 800724c:	f808 bb01 	strb.w	fp, [r8], #1
 8007250:	e9dd 0116 	ldrd	r0, r1, [sp, #88]	; 0x58
 8007254:	e9dd 2314 	ldrd	r2, r3, [sp, #80]	; 0x50
 8007258:	f7fb fa26 	bl	80026a8 <__aeabi_dcmpgt>
 800725c:	2800      	cmp	r0, #0
 800725e:	f040 812f 	bne.w	80074c0 <_dtoa_r+0xc30>
 8007262:	2100      	movs	r1, #0
 8007264:	e9dd 2314 	ldrd	r2, r3, [sp, #80]	; 0x50
 8007268:	2000      	movs	r0, #0
 800726a:	f6c3 71f0 	movt	r1, #16368	; 0x3ff0
 800726e:	f7fa fdd7 	bl	8001e20 <__aeabi_dsub>
 8007272:	4602      	mov	r2, r0
 8007274:	460b      	mov	r3, r1
 8007276:	e9dd 0116 	ldrd	r0, r1, [sp, #88]	; 0x58
 800727a:	f7fb fa15 	bl	80026a8 <__aeabi_dcmpgt>
 800727e:	2800      	cmp	r0, #0
 8007280:	f040 840d 	bne.w	8007a9e <_dtoa_r+0x120e>
 8007284:	2e01      	cmp	r6, #1
 8007286:	f340 829f 	ble.w	80077c8 <_dtoa_r+0xf38>
 800728a:	9c04      	ldr	r4, [sp, #16]
 800728c:	ea6f 0708 	mvn.w	r7, r8
 8007290:	19a6      	adds	r6, r4, r6
 8007292:	19bd      	adds	r5, r7, r6
 8007294:	2300      	movs	r3, #0
 8007296:	f005 0701 	and.w	r7, r5, #1
 800729a:	2200      	movs	r2, #0
 800729c:	f2c4 0324 	movt	r3, #16420	; 0x4024
 80072a0:	e9dd 0116 	ldrd	r0, r1, [sp, #88]	; 0x58
 80072a4:	9618      	str	r6, [sp, #96]	; 0x60
 80072a6:	9716      	str	r7, [sp, #88]	; 0x58
 80072a8:	f7fa ff6e 	bl	8002188 <__aeabi_dmul>
 80072ac:	2300      	movs	r3, #0
 80072ae:	2200      	movs	r2, #0
 80072b0:	f2c4 0324 	movt	r3, #16420	; 0x4024
 80072b4:	4604      	mov	r4, r0
 80072b6:	460d      	mov	r5, r1
 80072b8:	e9dd 0114 	ldrd	r0, r1, [sp, #80]	; 0x50
 80072bc:	f7fa ff64 	bl	8002188 <__aeabi_dmul>
 80072c0:	460f      	mov	r7, r1
 80072c2:	4606      	mov	r6, r0
 80072c4:	f7fb f9fa 	bl	80026bc <__aeabi_d2iz>
 80072c8:	4683      	mov	fp, r0
 80072ca:	f7fa fef7 	bl	80020bc <__aeabi_i2d>
 80072ce:	4602      	mov	r2, r0
 80072d0:	460b      	mov	r3, r1
 80072d2:	4630      	mov	r0, r6
 80072d4:	4639      	mov	r1, r7
 80072d6:	f7fa fda3 	bl	8001e20 <__aeabi_dsub>
 80072da:	46c2      	mov	sl, r8
 80072dc:	f10b 0230 	add.w	r2, fp, #48	; 0x30
 80072e0:	fa5f fb82 	uxtb.w	fp, r2
 80072e4:	f80a bb01 	strb.w	fp, [sl], #1
 80072e8:	4622      	mov	r2, r4
 80072ea:	462b      	mov	r3, r5
 80072ec:	4606      	mov	r6, r0
 80072ee:	460f      	mov	r7, r1
 80072f0:	46d0      	mov	r8, sl
 80072f2:	f7fb f9bb 	bl	800266c <__aeabi_dcmplt>
 80072f6:	2800      	cmp	r0, #0
 80072f8:	f040 80e2 	bne.w	80074c0 <_dtoa_r+0xc30>
 80072fc:	2100      	movs	r1, #0
 80072fe:	4632      	mov	r2, r6
 8007300:	463b      	mov	r3, r7
 8007302:	2000      	movs	r0, #0
 8007304:	f6c3 71f0 	movt	r1, #16368	; 0x3ff0
 8007308:	f7fa fd8a 	bl	8001e20 <__aeabi_dsub>
 800730c:	4622      	mov	r2, r4
 800730e:	462b      	mov	r3, r5
 8007310:	f7fb f9ac 	bl	800266c <__aeabi_dcmplt>
 8007314:	2800      	cmp	r0, #0
 8007316:	f040 83c2 	bne.w	8007a9e <_dtoa_r+0x120e>
 800731a:	9918      	ldr	r1, [sp, #96]	; 0x60
 800731c:	458a      	cmp	sl, r1
 800731e:	f000 8253 	beq.w	80077c8 <_dtoa_r+0xf38>
 8007322:	9816      	ldr	r0, [sp, #88]	; 0x58
 8007324:	2800      	cmp	r0, #0
 8007326:	d042      	beq.n	80073ae <_dtoa_r+0xb1e>
 8007328:	2300      	movs	r3, #0
 800732a:	2200      	movs	r2, #0
 800732c:	f2c4 0324 	movt	r3, #16420	; 0x4024
 8007330:	4620      	mov	r0, r4
 8007332:	4629      	mov	r1, r5
 8007334:	f7fa ff28 	bl	8002188 <__aeabi_dmul>
 8007338:	2300      	movs	r3, #0
 800733a:	2200      	movs	r2, #0
 800733c:	f2c4 0324 	movt	r3, #16420	; 0x4024
 8007340:	4604      	mov	r4, r0
 8007342:	460d      	mov	r5, r1
 8007344:	4630      	mov	r0, r6
 8007346:	4639      	mov	r1, r7
 8007348:	f7fa ff1e 	bl	8002188 <__aeabi_dmul>
 800734c:	460f      	mov	r7, r1
 800734e:	4606      	mov	r6, r0
 8007350:	f7fb f9b4 	bl	80026bc <__aeabi_d2iz>
 8007354:	4680      	mov	r8, r0
 8007356:	f7fa feb1 	bl	80020bc <__aeabi_i2d>
 800735a:	4602      	mov	r2, r0
 800735c:	460b      	mov	r3, r1
 800735e:	4630      	mov	r0, r6
 8007360:	4639      	mov	r1, r7
 8007362:	f7fa fd5d 	bl	8001e20 <__aeabi_dsub>
 8007366:	f108 0330 	add.w	r3, r8, #48	; 0x30
 800736a:	fa5f fb83 	uxtb.w	fp, r3
 800736e:	f80a bb01 	strb.w	fp, [sl], #1
 8007372:	4622      	mov	r2, r4
 8007374:	462b      	mov	r3, r5
 8007376:	4606      	mov	r6, r0
 8007378:	460f      	mov	r7, r1
 800737a:	46d0      	mov	r8, sl
 800737c:	f7fb f976 	bl	800266c <__aeabi_dcmplt>
 8007380:	2800      	cmp	r0, #0
 8007382:	f040 809d 	bne.w	80074c0 <_dtoa_r+0xc30>
 8007386:	2100      	movs	r1, #0
 8007388:	4632      	mov	r2, r6
 800738a:	463b      	mov	r3, r7
 800738c:	2000      	movs	r0, #0
 800738e:	f6c3 71f0 	movt	r1, #16368	; 0x3ff0
 8007392:	f7fa fd45 	bl	8001e20 <__aeabi_dsub>
 8007396:	4622      	mov	r2, r4
 8007398:	462b      	mov	r3, r5
 800739a:	f7fb f967 	bl	800266c <__aeabi_dcmplt>
 800739e:	2800      	cmp	r0, #0
 80073a0:	f040 837d 	bne.w	8007a9e <_dtoa_r+0x120e>
 80073a4:	f8dd e060 	ldr.w	lr, [sp, #96]	; 0x60
 80073a8:	45f2      	cmp	sl, lr
 80073aa:	f000 820d 	beq.w	80077c8 <_dtoa_r+0xf38>
 80073ae:	f8cd 9050 	str.w	r9, [sp, #80]	; 0x50
 80073b2:	f8dd 9060 	ldr.w	r9, [sp, #96]	; 0x60
 80073b6:	e050      	b.n	800745a <_dtoa_r+0xbca>
 80073b8:	0800e200 	.word	0x0800e200
 80073bc:	0800e2c8 	.word	0x0800e2c8
 80073c0:	2100      	movs	r1, #0
 80073c2:	2000      	movs	r0, #0
 80073c4:	f6c3 71f0 	movt	r1, #16368	; 0x3ff0
 80073c8:	f7fa fd2a 	bl	8001e20 <__aeabi_dsub>
 80073cc:	4622      	mov	r2, r4
 80073ce:	462b      	mov	r3, r5
 80073d0:	f7fb f94c 	bl	800266c <__aeabi_dcmplt>
 80073d4:	2300      	movs	r3, #0
 80073d6:	2200      	movs	r2, #0
 80073d8:	f2c4 0324 	movt	r3, #16420	; 0x4024
 80073dc:	2800      	cmp	r0, #0
 80073de:	f040 835c 	bne.w	8007a9a <_dtoa_r+0x120a>
 80073e2:	4620      	mov	r0, r4
 80073e4:	4629      	mov	r1, r5
 80073e6:	f7fa fecf 	bl	8002188 <__aeabi_dmul>
 80073ea:	2300      	movs	r3, #0
 80073ec:	2200      	movs	r2, #0
 80073ee:	f2c4 0324 	movt	r3, #16420	; 0x4024
 80073f2:	4604      	mov	r4, r0
 80073f4:	460d      	mov	r5, r1
 80073f6:	4630      	mov	r0, r6
 80073f8:	4639      	mov	r1, r7
 80073fa:	f7fa fec5 	bl	8002188 <__aeabi_dmul>
 80073fe:	460f      	mov	r7, r1
 8007400:	4606      	mov	r6, r0
 8007402:	f7fb f95b 	bl	80026bc <__aeabi_d2iz>
 8007406:	4680      	mov	r8, r0
 8007408:	f7fa fe58 	bl	80020bc <__aeabi_i2d>
 800740c:	4602      	mov	r2, r0
 800740e:	460b      	mov	r3, r1
 8007410:	4630      	mov	r0, r6
 8007412:	4639      	mov	r1, r7
 8007414:	f7fa fd04 	bl	8001e20 <__aeabi_dsub>
 8007418:	f108 0330 	add.w	r3, r8, #48	; 0x30
 800741c:	fa5f fb83 	uxtb.w	fp, r3
 8007420:	f80a bb01 	strb.w	fp, [sl], #1
 8007424:	4622      	mov	r2, r4
 8007426:	462b      	mov	r3, r5
 8007428:	4606      	mov	r6, r0
 800742a:	460f      	mov	r7, r1
 800742c:	f7fb f91e 	bl	800266c <__aeabi_dcmplt>
 8007430:	46d0      	mov	r8, sl
 8007432:	4632      	mov	r2, r6
 8007434:	463b      	mov	r3, r7
 8007436:	2800      	cmp	r0, #0
 8007438:	d140      	bne.n	80074bc <_dtoa_r+0xc2c>
 800743a:	2100      	movs	r1, #0
 800743c:	2000      	movs	r0, #0
 800743e:	f6c3 71f0 	movt	r1, #16368	; 0x3ff0
 8007442:	f7fa fced 	bl	8001e20 <__aeabi_dsub>
 8007446:	4622      	mov	r2, r4
 8007448:	462b      	mov	r3, r5
 800744a:	f7fb f90f 	bl	800266c <__aeabi_dcmplt>
 800744e:	2800      	cmp	r0, #0
 8007450:	f040 8323 	bne.w	8007a9a <_dtoa_r+0x120a>
 8007454:	45ca      	cmp	sl, r9
 8007456:	f000 81b5 	beq.w	80077c4 <_dtoa_r+0xf34>
 800745a:	2300      	movs	r3, #0
 800745c:	4620      	mov	r0, r4
 800745e:	4629      	mov	r1, r5
 8007460:	2200      	movs	r2, #0
 8007462:	f2c4 0324 	movt	r3, #16420	; 0x4024
 8007466:	f7fa fe8f 	bl	8002188 <__aeabi_dmul>
 800746a:	2300      	movs	r3, #0
 800746c:	2200      	movs	r2, #0
 800746e:	f2c4 0324 	movt	r3, #16420	; 0x4024
 8007472:	4604      	mov	r4, r0
 8007474:	460d      	mov	r5, r1
 8007476:	4630      	mov	r0, r6
 8007478:	4639      	mov	r1, r7
 800747a:	f7fa fe85 	bl	8002188 <__aeabi_dmul>
 800747e:	460f      	mov	r7, r1
 8007480:	4606      	mov	r6, r0
 8007482:	f7fb f91b 	bl	80026bc <__aeabi_d2iz>
 8007486:	4683      	mov	fp, r0
 8007488:	f7fa fe18 	bl	80020bc <__aeabi_i2d>
 800748c:	4602      	mov	r2, r0
 800748e:	460b      	mov	r3, r1
 8007490:	4630      	mov	r0, r6
 8007492:	4639      	mov	r1, r7
 8007494:	f7fa fcc4 	bl	8001e20 <__aeabi_dsub>
 8007498:	46d0      	mov	r8, sl
 800749a:	f10b 0230 	add.w	r2, fp, #48	; 0x30
 800749e:	fa5f fb82 	uxtb.w	fp, r2
 80074a2:	f808 bb01 	strb.w	fp, [r8], #1
 80074a6:	4622      	mov	r2, r4
 80074a8:	462b      	mov	r3, r5
 80074aa:	4606      	mov	r6, r0
 80074ac:	460f      	mov	r7, r1
 80074ae:	f7fb f8dd 	bl	800266c <__aeabi_dcmplt>
 80074b2:	46c2      	mov	sl, r8
 80074b4:	4632      	mov	r2, r6
 80074b6:	463b      	mov	r3, r7
 80074b8:	2800      	cmp	r0, #0
 80074ba:	d081      	beq.n	80073c0 <_dtoa_r+0xb30>
 80074bc:	f8dd 9050 	ldr.w	r9, [sp, #80]	; 0x50
 80074c0:	9819      	ldr	r0, [sp, #100]	; 0x64
 80074c2:	9006      	str	r0, [sp, #24]
 80074c4:	e406      	b.n	8006cd4 <_dtoa_r+0x444>
 80074c6:	2400      	movs	r4, #0
 80074c8:	940d      	str	r4, [sp, #52]	; 0x34
 80074ca:	9b05      	ldr	r3, [sp, #20]
 80074cc:	f8dd e018 	ldr.w	lr, [sp, #24]
 80074d0:	eb03 040e 	add.w	r4, r3, lr
 80074d4:	9411      	str	r4, [sp, #68]	; 0x44
 80074d6:	3401      	adds	r4, #1
 80074d8:	2c00      	cmp	r4, #0
 80074da:	9409      	str	r4, [sp, #36]	; 0x24
 80074dc:	f73f ae16 	bgt.w	800710c <_dtoa_r+0x87c>
 80074e0:	2100      	movs	r1, #0
 80074e2:	f8c9 1044 	str.w	r1, [r9, #68]	; 0x44
 80074e6:	e621      	b.n	800712c <_dtoa_r+0x89c>
 80074e8:	2201      	movs	r2, #1
 80074ea:	920d      	str	r2, [sp, #52]	; 0x34
 80074ec:	e7ed      	b.n	80074ca <_dtoa_r+0xc3a>
 80074ee:	2000      	movs	r0, #0
 80074f0:	900d      	str	r0, [sp, #52]	; 0x34
 80074f2:	e604      	b.n	80070fe <_dtoa_r+0x86e>
 80074f4:	9a09      	ldr	r2, [sp, #36]	; 0x24
 80074f6:	2a00      	cmp	r2, #0
 80074f8:	f73f aafb 	bgt.w	8006af2 <_dtoa_r+0x262>
 80074fc:	f040 82e9 	bne.w	8007ad2 <_dtoa_r+0x1242>
 8007500:	2300      	movs	r3, #0
 8007502:	2200      	movs	r2, #0
 8007504:	f2c4 0314 	movt	r3, #16404	; 0x4014
 8007508:	e9dd 0102 	ldrd	r0, r1, [sp, #8]
 800750c:	f7fa fe3c 	bl	8002188 <__aeabi_dmul>
 8007510:	4652      	mov	r2, sl
 8007512:	465b      	mov	r3, fp
 8007514:	f7fb f8be 	bl	8002694 <__aeabi_dcmpge>
 8007518:	9f09      	ldr	r7, [sp, #36]	; 0x24
 800751a:	970b      	str	r7, [sp, #44]	; 0x2c
 800751c:	2800      	cmp	r0, #0
 800751e:	f000 80b8 	beq.w	8007692 <_dtoa_r+0xe02>
 8007522:	9a05      	ldr	r2, [sp, #20]
 8007524:	f8dd 8010 	ldr.w	r8, [sp, #16]
 8007528:	43d5      	mvns	r5, r2
 800752a:	9506      	str	r5, [sp, #24]
 800752c:	4648      	mov	r0, r9
 800752e:	4639      	mov	r1, r7
 8007530:	f000 fea2 	bl	8008278 <_Bfree>
 8007534:	9b0b      	ldr	r3, [sp, #44]	; 0x2c
 8007536:	2b00      	cmp	r3, #0
 8007538:	f43f abcc 	beq.w	8006cd4 <_dtoa_r+0x444>
 800753c:	4648      	mov	r0, r9
 800753e:	990b      	ldr	r1, [sp, #44]	; 0x2c
 8007540:	f000 fe9a 	bl	8008278 <_Bfree>
 8007544:	f7ff bbc6 	b.w	8006cd4 <_dtoa_r+0x444>
 8007548:	4648      	mov	r0, r9
 800754a:	990a      	ldr	r1, [sp, #40]	; 0x28
 800754c:	f001 f978 	bl	8008840 <__pow5mult>
 8007550:	900a      	str	r0, [sp, #40]	; 0x28
 8007552:	e44e      	b.n	8006df2 <_dtoa_r+0x562>
 8007554:	9d0b      	ldr	r5, [sp, #44]	; 0x2c
 8007556:	2d00      	cmp	r5, #0
 8007558:	f000 824b 	beq.w	80079f2 <_dtoa_r+0x1162>
 800755c:	f203 4733 	addw	r7, r3, #1075	; 0x433
 8007560:	9d0e      	ldr	r5, [sp, #56]	; 0x38
 8007562:	9c0c      	ldr	r4, [sp, #48]	; 0x30
 8007564:	e40b      	b.n	8006d7e <_dtoa_r+0x4ee>
 8007566:	4611      	mov	r1, r2
 8007568:	4650      	mov	r0, sl
 800756a:	f8cd c000 	str.w	ip, [sp]
 800756e:	9201      	str	r2, [sp, #4]
 8007570:	f001 fa74 	bl	8008a5c <__mcmp>
 8007574:	9a01      	ldr	r2, [sp, #4]
 8007576:	4603      	mov	r3, r0
 8007578:	4611      	mov	r1, r2
 800757a:	4648      	mov	r0, r9
 800757c:	9301      	str	r3, [sp, #4]
 800757e:	f000 fe7b 	bl	8008278 <_Bfree>
 8007582:	9801      	ldr	r0, [sp, #4]
 8007584:	f8dd c000 	ldr.w	ip, [sp]
 8007588:	2800      	cmp	r0, #0
 800758a:	f47f ad6e 	bne.w	800706a <_dtoa_r+0x7da>
 800758e:	9902      	ldr	r1, [sp, #8]
 8007590:	2900      	cmp	r1, #0
 8007592:	f47f ad6a 	bne.w	800706a <_dtoa_r+0x7da>
 8007596:	9b09      	ldr	r3, [sp, #36]	; 0x24
 8007598:	2b00      	cmp	r3, #0
 800759a:	f47f ad66 	bne.w	800706a <_dtoa_r+0x7da>
 800759e:	f1bc 0f39 	cmp.w	ip, #57	; 0x39
 80075a2:	f8cd a028 	str.w	sl, [sp, #40]	; 0x28
 80075a6:	46da      	mov	sl, fp
 80075a8:	46e3      	mov	fp, ip
 80075aa:	f000 80f5 	beq.w	8007798 <_dtoa_r+0xf08>
 80075ae:	f1ba 0f00 	cmp.w	sl, #0
 80075b2:	dd01      	ble.n	80075b8 <_dtoa_r+0xd28>
 80075b4:	f108 0b31 	add.w	fp, r8, #49	; 0x31
 80075b8:	f8dd 8014 	ldr.w	r8, [sp, #20]
 80075bc:	960b      	str	r6, [sp, #44]	; 0x2c
 80075be:	f808 bb01 	strb.w	fp, [r8], #1
 80075c2:	e4c9      	b.n	8006f58 <_dtoa_r+0x6c8>
 80075c4:	4629      	mov	r1, r5
 80075c6:	4648      	mov	r0, r9
 80075c8:	220a      	movs	r2, #10
 80075ca:	2300      	movs	r3, #0
 80075cc:	f000 fe5e 	bl	800828c <__multadd>
 80075d0:	3401      	adds	r4, #1
 80075d2:	4605      	mov	r5, r0
 80075d4:	4606      	mov	r6, r0
 80075d6:	e527      	b.n	8007028 <_dtoa_r+0x798>
 80075d8:	980a      	ldr	r0, [sp, #40]	; 0x28
 80075da:	4639      	mov	r1, r7
 80075dc:	f7fe ffe0 	bl	80065a0 <quorem>
 80075e0:	9b09      	ldr	r3, [sp, #36]	; 0x24
 80075e2:	f8dd c010 	ldr.w	ip, [sp, #16]
 80075e6:	2501      	movs	r5, #1
 80075e8:	f100 0b30 	add.w	fp, r0, #48	; 0x30
 80075ec:	42ab      	cmp	r3, r5
 80075ee:	f88c b000 	strb.w	fp, [ip]
 80075f2:	f77f ac75 	ble.w	8006ee0 <_dtoa_r+0x650>
 80075f6:	4648      	mov	r0, r9
 80075f8:	990a      	ldr	r1, [sp, #40]	; 0x28
 80075fa:	9b0d      	ldr	r3, [sp, #52]	; 0x34
 80075fc:	220a      	movs	r2, #10
 80075fe:	f000 fe45 	bl	800828c <__multadd>
 8007602:	f8dd a024 	ldr.w	sl, [sp, #36]	; 0x24
 8007606:	900a      	str	r0, [sp, #40]	; 0x28
 8007608:	4606      	mov	r6, r0
 800760a:	f8dd 8010 	ldr.w	r8, [sp, #16]
 800760e:	e457      	b.n	8006ec0 <_dtoa_r+0x630>
 8007610:	9b06      	ldr	r3, [sp, #24]
 8007612:	9a04      	ldr	r2, [sp, #16]
 8007614:	1c58      	adds	r0, r3, #1
 8007616:	2131      	movs	r1, #49	; 0x31
 8007618:	9006      	str	r0, [sp, #24]
 800761a:	7011      	strb	r1, [r2, #0]
 800761c:	e49c      	b.n	8006f58 <_dtoa_r+0x6c8>
 800761e:	980a      	ldr	r0, [sp, #40]	; 0x28
 8007620:	4639      	mov	r1, r7
 8007622:	f001 fa1b 	bl	8008a5c <__mcmp>
 8007626:	2800      	cmp	r0, #0
 8007628:	f6bf ac27 	bge.w	8006e7a <_dtoa_r+0x5ea>
 800762c:	220a      	movs	r2, #10
 800762e:	4648      	mov	r0, r9
 8007630:	990a      	ldr	r1, [sp, #40]	; 0x28
 8007632:	2300      	movs	r3, #0
 8007634:	f000 fe2a 	bl	800828c <__multadd>
 8007638:	f8dd e018 	ldr.w	lr, [sp, #24]
 800763c:	9a0d      	ldr	r2, [sp, #52]	; 0x34
 800763e:	900a      	str	r0, [sp, #40]	; 0x28
 8007640:	f10e 38ff 	add.w	r8, lr, #4294967295
 8007644:	f8cd 8018 	str.w	r8, [sp, #24]
 8007648:	2a00      	cmp	r2, #0
 800764a:	f040 8237 	bne.w	8007abc <_dtoa_r+0x122c>
 800764e:	9911      	ldr	r1, [sp, #68]	; 0x44
 8007650:	9109      	str	r1, [sp, #36]	; 0x24
 8007652:	e412      	b.n	8006e7a <_dtoa_r+0x5ea>
 8007654:	693a      	ldr	r2, [r7, #16]
 8007656:	eb07 0082 	add.w	r0, r7, r2, lsl #2
 800765a:	6900      	ldr	r0, [r0, #16]
 800765c:	f000 ff32 	bl	80084c4 <__hi0bits>
 8007660:	f1c0 0120 	rsb	r1, r0, #32
 8007664:	f7ff bbdd 	b.w	8006e22 <_dtoa_r+0x592>
 8007668:	9a02      	ldr	r2, [sp, #8]
 800766a:	2a02      	cmp	r2, #2
 800766c:	f77f ac09 	ble.w	8006e82 <_dtoa_r+0x5f2>
 8007670:	2b00      	cmp	r3, #0
 8007672:	f47f af56 	bne.w	8007522 <_dtoa_r+0xc92>
 8007676:	4639      	mov	r1, r7
 8007678:	2205      	movs	r2, #5
 800767a:	9b09      	ldr	r3, [sp, #36]	; 0x24
 800767c:	4648      	mov	r0, r9
 800767e:	f000 fe05 	bl	800828c <__multadd>
 8007682:	4607      	mov	r7, r0
 8007684:	4639      	mov	r1, r7
 8007686:	980a      	ldr	r0, [sp, #40]	; 0x28
 8007688:	f001 f9e8 	bl	8008a5c <__mcmp>
 800768c:	2800      	cmp	r0, #0
 800768e:	f77f af48 	ble.w	8007522 <_dtoa_r+0xc92>
 8007692:	9806      	ldr	r0, [sp, #24]
 8007694:	f8dd 8010 	ldr.w	r8, [sp, #16]
 8007698:	2331      	movs	r3, #49	; 0x31
 800769a:	1c41      	adds	r1, r0, #1
 800769c:	f808 3b01 	strb.w	r3, [r8], #1
 80076a0:	9106      	str	r1, [sp, #24]
 80076a2:	e743      	b.n	800752c <_dtoa_r+0xc9c>
 80076a4:	f1bb 0f39 	cmp.w	fp, #57	; 0x39
 80076a8:	f108 31ff 	add.w	r1, r8, #4294967295
 80076ac:	f47f ab0e 	bne.w	8006ccc <_dtoa_r+0x43c>
 80076b0:	f811 bc01 	ldrb.w	fp, [r1, #-1]
 80076b4:	9d04      	ldr	r5, [sp, #16]
 80076b6:	4688      	mov	r8, r1
 80076b8:	f7ff baf0 	b.w	8006c9c <_dtoa_r+0x40c>
 80076bc:	4638      	mov	r0, r7
 80076be:	f7fa fcfd 	bl	80020bc <__aeabi_i2d>
 80076c2:	4602      	mov	r2, r0
 80076c4:	460b      	mov	r3, r1
 80076c6:	4650      	mov	r0, sl
 80076c8:	4659      	mov	r1, fp
 80076ca:	f7fa fd5d 	bl	8002188 <__aeabi_dmul>
 80076ce:	2300      	movs	r3, #0
 80076d0:	2200      	movs	r2, #0
 80076d2:	f2c4 031c 	movt	r3, #16412	; 0x401c
 80076d6:	f7fa fba5 	bl	8001e24 <__adddf3>
 80076da:	4604      	mov	r4, r0
 80076dc:	f1a1 7550 	sub.w	r5, r1, #54525952	; 0x3400000
 80076e0:	2300      	movs	r3, #0
 80076e2:	2200      	movs	r2, #0
 80076e4:	f2c4 0314 	movt	r3, #16404	; 0x4014
 80076e8:	4650      	mov	r0, sl
 80076ea:	4659      	mov	r1, fp
 80076ec:	f7fa fb98 	bl	8001e20 <__aeabi_dsub>
 80076f0:	4622      	mov	r2, r4
 80076f2:	462b      	mov	r3, r5
 80076f4:	4682      	mov	sl, r0
 80076f6:	468b      	mov	fp, r1
 80076f8:	f7fa ffd6 	bl	80026a8 <__aeabi_dcmpgt>
 80076fc:	4607      	mov	r7, r0
 80076fe:	2800      	cmp	r0, #0
 8007700:	f040 816f 	bne.w	80079e2 <_dtoa_r+0x1152>
 8007704:	4622      	mov	r2, r4
 8007706:	f105 4300 	add.w	r3, r5, #2147483648	; 0x80000000
 800770a:	4650      	mov	r0, sl
 800770c:	4659      	mov	r1, fp
 800770e:	f7fa ffad 	bl	800266c <__aeabi_dcmplt>
 8007712:	2800      	cmp	r0, #0
 8007714:	d058      	beq.n	80077c8 <_dtoa_r+0xf38>
 8007716:	970b      	str	r7, [sp, #44]	; 0x2c
 8007718:	e703      	b.n	8007522 <_dtoa_r+0xc92>
 800771a:	4648      	mov	r0, r9
 800771c:	990a      	ldr	r1, [sp, #40]	; 0x28
 800771e:	9a0e      	ldr	r2, [sp, #56]	; 0x38
 8007720:	f001 f88e 	bl	8008840 <__pow5mult>
 8007724:	900a      	str	r0, [sp, #40]	; 0x28
 8007726:	f7ff bb64 	b.w	8006df2 <_dtoa_r+0x562>
 800772a:	9806      	ldr	r0, [sp, #24]
 800772c:	9d04      	ldr	r5, [sp, #16]
 800772e:	1c41      	adds	r1, r0, #1
 8007730:	9106      	str	r1, [sp, #24]
 8007732:	4629      	mov	r1, r5
 8007734:	2230      	movs	r2, #48	; 0x30
 8007736:	2331      	movs	r3, #49	; 0x31
 8007738:	702a      	strb	r2, [r5, #0]
 800773a:	700b      	strb	r3, [r1, #0]
 800773c:	f7ff baca 	b.w	8006cd4 <_dtoa_r+0x444>
 8007740:	f8dd c038 	ldr.w	ip, [sp, #56]	; 0x38
 8007744:	990f      	ldr	r1, [sp, #60]	; 0x3c
 8007746:	970e      	str	r7, [sp, #56]	; 0x38
 8007748:	ebcc 0507 	rsb	r5, ip, r7
 800774c:	1948      	adds	r0, r1, r5
 800774e:	900f      	str	r0, [sp, #60]	; 0x3c
 8007750:	2500      	movs	r5, #0
 8007752:	f7ff bb0e 	b.w	8006d72 <_dtoa_r+0x4e2>
 8007756:	e9dd ab12 	ldrd	sl, fp, [sp, #72]	; 0x48
 800775a:	2702      	movs	r7, #2
 800775c:	e50f      	b.n	800717e <_dtoa_r+0x8ee>
 800775e:	2401      	movs	r4, #1
 8007760:	9411      	str	r4, [sp, #68]	; 0x44
 8007762:	9409      	str	r4, [sp, #36]	; 0x24
 8007764:	9405      	str	r4, [sp, #20]
 8007766:	e6bb      	b.n	80074e0 <_dtoa_r+0xc50>
 8007768:	2800      	cmp	r0, #0
 800776a:	46e3      	mov	fp, ip
 800776c:	f8cd a028 	str.w	sl, [sp, #40]	; 0x28
 8007770:	4664      	mov	r4, ip
 8007772:	f77f af21 	ble.w	80075b8 <_dtoa_r+0xd28>
 8007776:	2201      	movs	r2, #1
 8007778:	990a      	ldr	r1, [sp, #40]	; 0x28
 800777a:	4648      	mov	r0, r9
 800777c:	f001 f8aa 	bl	80088d4 <__lshift>
 8007780:	4639      	mov	r1, r7
 8007782:	900a      	str	r0, [sp, #40]	; 0x28
 8007784:	f001 f96a 	bl	8008a5c <__mcmp>
 8007788:	2800      	cmp	r0, #0
 800778a:	f340 818c 	ble.w	8007aa6 <_dtoa_r+0x1216>
 800778e:	2c39      	cmp	r4, #57	; 0x39
 8007790:	f108 0b31 	add.w	fp, r8, #49	; 0x31
 8007794:	f47f af10 	bne.w	80075b8 <_dtoa_r+0xd28>
 8007798:	f8dd 8014 	ldr.w	r8, [sp, #20]
 800779c:	960b      	str	r6, [sp, #44]	; 0x2c
 800779e:	2239      	movs	r2, #57	; 0x39
 80077a0:	f808 2b01 	strb.w	r2, [r8], #1
 80077a4:	f7ff bbb3 	b.w	8006f0e <_dtoa_r+0x67e>
 80077a8:	d103      	bne.n	80077b2 <_dtoa_r+0xf22>
 80077aa:	f01b 0f01 	tst.w	fp, #1
 80077ae:	f47f abac 	bne.w	8006f0a <_dtoa_r+0x67a>
 80077b2:	4643      	mov	r3, r8
 80077b4:	4698      	mov	r8, r3
 80077b6:	3b01      	subs	r3, #1
 80077b8:	f818 2c01 	ldrb.w	r2, [r8, #-1]
 80077bc:	2a30      	cmp	r2, #48	; 0x30
 80077be:	d0f9      	beq.n	80077b4 <_dtoa_r+0xf24>
 80077c0:	f7ff bbca 	b.w	8006f58 <_dtoa_r+0x6c8>
 80077c4:	f8dd 9050 	ldr.w	r9, [sp, #80]	; 0x50
 80077c8:	e9dd ab12 	ldrd	sl, fp, [sp, #72]	; 0x48
 80077cc:	f7ff b97e 	b.w	8006acc <_dtoa_r+0x23c>
 80077d0:	9d06      	ldr	r5, [sp, #24]
 80077d2:	426c      	negs	r4, r5
 80077d4:	2c00      	cmp	r4, #0
 80077d6:	f000 8116 	beq.w	8007a06 <_dtoa_r+0x1176>
 80077da:	4bb6      	ldr	r3, [pc, #728]	; (8007ab4 <_dtoa_r+0x1224>)
 80077dc:	f004 010f 	and.w	r1, r4, #15
 80077e0:	eb03 02c1 	add.w	r2, r3, r1, lsl #3
 80077e4:	e9d2 2300 	ldrd	r2, r3, [r2]
 80077e8:	e9dd 0112 	ldrd	r0, r1, [sp, #72]	; 0x48
 80077ec:	f7fa fccc 	bl	8002188 <__aeabi_dmul>
 80077f0:	1124      	asrs	r4, r4, #4
 80077f2:	4682      	mov	sl, r0
 80077f4:	468b      	mov	fp, r1
 80077f6:	f000 816e 	beq.w	8007ad6 <_dtoa_r+0x1246>
 80077fa:	4daf      	ldr	r5, [pc, #700]	; (8007ab8 <_dtoa_r+0x1228>)
 80077fc:	2702      	movs	r7, #2
 80077fe:	07e3      	lsls	r3, r4, #31
 8007800:	d504      	bpl.n	800780c <_dtoa_r+0xf7c>
 8007802:	e9d5 2300 	ldrd	r2, r3, [r5]
 8007806:	f7fa fcbf 	bl	8002188 <__aeabi_dmul>
 800780a:	3701      	adds	r7, #1
 800780c:	3508      	adds	r5, #8
 800780e:	1064      	asrs	r4, r4, #1
 8007810:	d1f5      	bne.n	80077fe <_dtoa_r+0xf6e>
 8007812:	4682      	mov	sl, r0
 8007814:	468b      	mov	fp, r1
 8007816:	e4cc      	b.n	80071b2 <_dtoa_r+0x922>
 8007818:	9d0b      	ldr	r5, [sp, #44]	; 0x2c
 800781a:	4648      	mov	r0, r9
 800781c:	6869      	ldr	r1, [r5, #4]
 800781e:	f000 fd05 	bl	800822c <_Balloc>
 8007822:	6929      	ldr	r1, [r5, #16]
 8007824:	4604      	mov	r4, r0
 8007826:	1c88      	adds	r0, r1, #2
 8007828:	4629      	mov	r1, r5
 800782a:	0082      	lsls	r2, r0, #2
 800782c:	310c      	adds	r1, #12
 800782e:	f104 000c 	add.w	r0, r4, #12
 8007832:	f7fc fdeb 	bl	800440c <memcpy>
 8007836:	4648      	mov	r0, r9
 8007838:	4621      	mov	r1, r4
 800783a:	2201      	movs	r2, #1
 800783c:	f001 f84a 	bl	80088d4 <__lshift>
 8007840:	4606      	mov	r6, r0
 8007842:	f7ff bbe5 	b.w	8007010 <_dtoa_r+0x780>
 8007846:	f1bc 0f39 	cmp.w	ip, #57	; 0x39
 800784a:	46e3      	mov	fp, ip
 800784c:	f8cd a028 	str.w	sl, [sp, #40]	; 0x28
 8007850:	d0a2      	beq.n	8007798 <_dtoa_r+0xf08>
 8007852:	f8dd 8014 	ldr.w	r8, [sp, #20]
 8007856:	960b      	str	r6, [sp, #44]	; 0x2c
 8007858:	f10c 0e01 	add.w	lr, ip, #1
 800785c:	f808 eb01 	strb.w	lr, [r8], #1
 8007860:	f7ff bb7a 	b.w	8006f58 <_dtoa_r+0x6c8>
 8007864:	46e3      	mov	fp, ip
 8007866:	f8cd a028 	str.w	sl, [sp, #40]	; 0x28
 800786a:	960b      	str	r6, [sp, #44]	; 0x2c
 800786c:	f7ff bb41 	b.w	8006ef2 <_dtoa_r+0x662>
 8007870:	4990      	ldr	r1, [pc, #576]	; (8007ab4 <_dtoa_r+0x1224>)
 8007872:	1e73      	subs	r3, r6, #1
 8007874:	eb01 00c3 	add.w	r0, r1, r3, lsl #3
 8007878:	4622      	mov	r2, r4
 800787a:	9318      	str	r3, [sp, #96]	; 0x60
 800787c:	e9d0 0100 	ldrd	r0, r1, [r0]
 8007880:	462b      	mov	r3, r5
 8007882:	f7fa fc81 	bl	8002188 <__aeabi_dmul>
 8007886:	e9cd 0114 	strd	r0, r1, [sp, #80]	; 0x50
 800788a:	4659      	mov	r1, fp
 800788c:	4650      	mov	r0, sl
 800788e:	f7fa ff15 	bl	80026bc <__aeabi_d2iz>
 8007892:	4604      	mov	r4, r0
 8007894:	f7fa fc12 	bl	80020bc <__aeabi_i2d>
 8007898:	4602      	mov	r2, r0
 800789a:	460b      	mov	r3, r1
 800789c:	4650      	mov	r0, sl
 800789e:	4659      	mov	r1, fp
 80078a0:	f7fa fabe 	bl	8001e20 <__aeabi_dsub>
 80078a4:	f8dd 8010 	ldr.w	r8, [sp, #16]
 80078a8:	3430      	adds	r4, #48	; 0x30
 80078aa:	2e01      	cmp	r6, #1
 80078ac:	4682      	mov	sl, r0
 80078ae:	468b      	mov	fp, r1
 80078b0:	f808 4b01 	strb.w	r4, [r8], #1
 80078b4:	f000 8081 	beq.w	80079ba <_dtoa_r+0x112a>
 80078b8:	9c04      	ldr	r4, [sp, #16]
 80078ba:	2300      	movs	r3, #0
 80078bc:	1e67      	subs	r7, r4, #1
 80078be:	eb07 0a06 	add.w	sl, r7, r6
 80078c2:	2200      	movs	r2, #0
 80078c4:	f2c4 0324 	movt	r3, #16420	; 0x4024
 80078c8:	f8cd a000 	str.w	sl, [sp]
 80078cc:	f7fa fc5c 	bl	8002188 <__aeabi_dmul>
 80078d0:	43e6      	mvns	r6, r4
 80078d2:	460f      	mov	r7, r1
 80078d4:	eb06 050a 	add.w	r5, r6, sl
 80078d8:	4606      	mov	r6, r0
 80078da:	f7fa feef 	bl	80026bc <__aeabi_d2iz>
 80078de:	4604      	mov	r4, r0
 80078e0:	f7fa fbec 	bl	80020bc <__aeabi_i2d>
 80078e4:	4602      	mov	r2, r0
 80078e6:	460b      	mov	r3, r1
 80078e8:	4630      	mov	r0, r6
 80078ea:	4639      	mov	r1, r7
 80078ec:	f7fa fa98 	bl	8001e20 <__aeabi_dsub>
 80078f0:	f8dd c010 	ldr.w	ip, [sp, #16]
 80078f4:	3430      	adds	r4, #48	; 0x30
 80078f6:	f88c 4001 	strb.w	r4, [ip, #1]
 80078fa:	f8dd c000 	ldr.w	ip, [sp]
 80078fe:	45e0      	cmp	r8, ip
 8007900:	f005 0501 	and.w	r5, r5, #1
 8007904:	4682      	mov	sl, r0
 8007906:	468b      	mov	fp, r1
 8007908:	4647      	mov	r7, r8
 800790a:	d054      	beq.n	80079b6 <_dtoa_r+0x1126>
 800790c:	b1f5      	cbz	r5, 800794c <_dtoa_r+0x10bc>
 800790e:	2300      	movs	r3, #0
 8007910:	2200      	movs	r2, #0
 8007912:	f2c4 0324 	movt	r3, #16420	; 0x4024
 8007916:	f8cd c000 	str.w	ip, [sp]
 800791a:	f7fa fc35 	bl	8002188 <__aeabi_dmul>
 800791e:	468b      	mov	fp, r1
 8007920:	4682      	mov	sl, r0
 8007922:	f7fa fecb 	bl	80026bc <__aeabi_d2iz>
 8007926:	4604      	mov	r4, r0
 8007928:	f7fa fbc8 	bl	80020bc <__aeabi_i2d>
 800792c:	4647      	mov	r7, r8
 800792e:	4602      	mov	r2, r0
 8007930:	460b      	mov	r3, r1
 8007932:	4650      	mov	r0, sl
 8007934:	4659      	mov	r1, fp
 8007936:	3430      	adds	r4, #48	; 0x30
 8007938:	f7fa fa72 	bl	8001e20 <__aeabi_dsub>
 800793c:	f807 4f01 	strb.w	r4, [r7, #1]!
 8007940:	f8dd c000 	ldr.w	ip, [sp]
 8007944:	4567      	cmp	r7, ip
 8007946:	4682      	mov	sl, r0
 8007948:	468b      	mov	fp, r1
 800794a:	d034      	beq.n	80079b6 <_dtoa_r+0x1126>
 800794c:	4650      	mov	r0, sl
 800794e:	4659      	mov	r1, fp
 8007950:	4666      	mov	r6, ip
 8007952:	2300      	movs	r3, #0
 8007954:	2200      	movs	r2, #0
 8007956:	f2c4 0324 	movt	r3, #16420	; 0x4024
 800795a:	f7fa fc15 	bl	8002188 <__aeabi_dmul>
 800795e:	460d      	mov	r5, r1
 8007960:	4604      	mov	r4, r0
 8007962:	f7fa feab 	bl	80026bc <__aeabi_d2iz>
 8007966:	4682      	mov	sl, r0
 8007968:	f7fa fba8 	bl	80020bc <__aeabi_i2d>
 800796c:	4602      	mov	r2, r0
 800796e:	460b      	mov	r3, r1
 8007970:	4620      	mov	r0, r4
 8007972:	4629      	mov	r1, r5
 8007974:	f7fa fa54 	bl	8001e20 <__aeabi_dsub>
 8007978:	f10a 0430 	add.w	r4, sl, #48	; 0x30
 800797c:	2300      	movs	r3, #0
 800797e:	2200      	movs	r2, #0
 8007980:	f2c4 0324 	movt	r3, #16420	; 0x4024
 8007984:	f807 4f01 	strb.w	r4, [r7, #1]!
 8007988:	f7fa fbfe 	bl	8002188 <__aeabi_dmul>
 800798c:	460d      	mov	r5, r1
 800798e:	4604      	mov	r4, r0
 8007990:	f7fa fe94 	bl	80026bc <__aeabi_d2iz>
 8007994:	4683      	mov	fp, r0
 8007996:	f7fa fb91 	bl	80020bc <__aeabi_i2d>
 800799a:	4602      	mov	r2, r0
 800799c:	460b      	mov	r3, r1
 800799e:	4620      	mov	r0, r4
 80079a0:	4629      	mov	r1, r5
 80079a2:	f7fa fa3d 	bl	8001e20 <__aeabi_dsub>
 80079a6:	f10b 0230 	add.w	r2, fp, #48	; 0x30
 80079aa:	f807 2f01 	strb.w	r2, [r7, #1]!
 80079ae:	42b7      	cmp	r7, r6
 80079b0:	d1cf      	bne.n	8007952 <_dtoa_r+0x10c2>
 80079b2:	4682      	mov	sl, r0
 80079b4:	468b      	mov	fp, r1
 80079b6:	9b18      	ldr	r3, [sp, #96]	; 0x60
 80079b8:	4498      	add	r8, r3
 80079ba:	2300      	movs	r3, #0
 80079bc:	2200      	movs	r2, #0
 80079be:	f6c3 73e0 	movt	r3, #16352	; 0x3fe0
 80079c2:	e9dd 0114 	ldrd	r0, r1, [sp, #80]	; 0x50
 80079c6:	f7fa fa2d 	bl	8001e24 <__adddf3>
 80079ca:	4652      	mov	r2, sl
 80079cc:	465b      	mov	r3, fp
 80079ce:	f7fa fe4d 	bl	800266c <__aeabi_dcmplt>
 80079d2:	2800      	cmp	r0, #0
 80079d4:	d049      	beq.n	8007a6a <_dtoa_r+0x11da>
 80079d6:	9d19      	ldr	r5, [sp, #100]	; 0x64
 80079d8:	f818 bc01 	ldrb.w	fp, [r8, #-1]
 80079dc:	9506      	str	r5, [sp, #24]
 80079de:	f7ff b955 	b.w	8006c8c <_dtoa_r+0x3fc>
 80079e2:	2700      	movs	r7, #0
 80079e4:	970b      	str	r7, [sp, #44]	; 0x2c
 80079e6:	e654      	b.n	8007692 <_dtoa_r+0xe02>
 80079e8:	9a0c      	ldr	r2, [sp, #48]	; 0x30
 80079ea:	2700      	movs	r7, #0
 80079ec:	1b14      	subs	r4, r2, r4
 80079ee:	f7ff b9c6 	b.w	8006d7e <_dtoa_r+0x4ee>
 80079f2:	9b1a      	ldr	r3, [sp, #104]	; 0x68
 80079f4:	9d0e      	ldr	r5, [sp, #56]	; 0x38
 80079f6:	9c0c      	ldr	r4, [sp, #48]	; 0x30
 80079f8:	f1c3 0736 	rsb	r7, r3, #54	; 0x36
 80079fc:	f7ff b9bf 	b.w	8006d7e <_dtoa_r+0x4ee>
 8007a00:	4655      	mov	r5, sl
 8007a02:	f7ff ba09 	b.w	8006e18 <_dtoa_r+0x588>
 8007a06:	e9dd ab12 	ldrd	sl, fp, [sp, #72]	; 0x48
 8007a0a:	2702      	movs	r7, #2
 8007a0c:	f7ff bbd1 	b.w	80071b2 <_dtoa_r+0x922>
 8007a10:	9d09      	ldr	r5, [sp, #36]	; 0x24
 8007a12:	2d00      	cmp	r5, #0
 8007a14:	f43f ae52 	beq.w	80076bc <_dtoa_r+0xe2c>
 8007a18:	9b11      	ldr	r3, [sp, #68]	; 0x44
 8007a1a:	2b00      	cmp	r3, #0
 8007a1c:	f77f aed4 	ble.w	80077c8 <_dtoa_r+0xf38>
 8007a20:	2300      	movs	r3, #0
 8007a22:	2200      	movs	r2, #0
 8007a24:	f2c4 0324 	movt	r3, #16420	; 0x4024
 8007a28:	4650      	mov	r0, sl
 8007a2a:	4659      	mov	r1, fp
 8007a2c:	f7fa fbac 	bl	8002188 <__aeabi_dmul>
 8007a30:	4682      	mov	sl, r0
 8007a32:	1c78      	adds	r0, r7, #1
 8007a34:	468b      	mov	fp, r1
 8007a36:	f7fa fb41 	bl	80020bc <__aeabi_i2d>
 8007a3a:	4602      	mov	r2, r0
 8007a3c:	460b      	mov	r3, r1
 8007a3e:	4650      	mov	r0, sl
 8007a40:	4659      	mov	r1, fp
 8007a42:	f7fa fba1 	bl	8002188 <__aeabi_dmul>
 8007a46:	2300      	movs	r3, #0
 8007a48:	2200      	movs	r2, #0
 8007a4a:	f2c4 031c 	movt	r3, #16412	; 0x401c
 8007a4e:	f7fa f9e9 	bl	8001e24 <__adddf3>
 8007a52:	f8dd c018 	ldr.w	ip, [sp, #24]
 8007a56:	9e11      	ldr	r6, [sp, #68]	; 0x44
 8007a58:	f10c 3eff 	add.w	lr, ip, #4294967295
 8007a5c:	4604      	mov	r4, r0
 8007a5e:	f8cd e064 	str.w	lr, [sp, #100]	; 0x64
 8007a62:	f1a1 7550 	sub.w	r5, r1, #54525952	; 0x3400000
 8007a66:	f7ff bbc8 	b.w	80071fa <_dtoa_r+0x96a>
 8007a6a:	2100      	movs	r1, #0
 8007a6c:	e9dd 2314 	ldrd	r2, r3, [sp, #80]	; 0x50
 8007a70:	2000      	movs	r0, #0
 8007a72:	f6c3 71e0 	movt	r1, #16352	; 0x3fe0
 8007a76:	f7fa f9d3 	bl	8001e20 <__aeabi_dsub>
 8007a7a:	4652      	mov	r2, sl
 8007a7c:	465b      	mov	r3, fp
 8007a7e:	f7fa fe13 	bl	80026a8 <__aeabi_dcmpgt>
 8007a82:	2800      	cmp	r0, #0
 8007a84:	f43f aea0 	beq.w	80077c8 <_dtoa_r+0xf38>
 8007a88:	4641      	mov	r1, r8
 8007a8a:	4688      	mov	r8, r1
 8007a8c:	f101 31ff 	add.w	r1, r1, #4294967295
 8007a90:	f818 0c01 	ldrb.w	r0, [r8, #-1]
 8007a94:	2830      	cmp	r0, #48	; 0x30
 8007a96:	d0f8      	beq.n	8007a8a <_dtoa_r+0x11fa>
 8007a98:	e512      	b.n	80074c0 <_dtoa_r+0xc30>
 8007a9a:	f8dd 9050 	ldr.w	r9, [sp, #80]	; 0x50
 8007a9e:	9919      	ldr	r1, [sp, #100]	; 0x64
 8007aa0:	9106      	str	r1, [sp, #24]
 8007aa2:	f7ff b8f3 	b.w	8006c8c <_dtoa_r+0x3fc>
 8007aa6:	f47f ad87 	bne.w	80075b8 <_dtoa_r+0xd28>
 8007aaa:	f01b 0f01 	tst.w	fp, #1
 8007aae:	f43f ad83 	beq.w	80075b8 <_dtoa_r+0xd28>
 8007ab2:	e66c      	b.n	800778e <_dtoa_r+0xefe>
 8007ab4:	0800e200 	.word	0x0800e200
 8007ab8:	0800e2c8 	.word	0x0800e2c8
 8007abc:	4648      	mov	r0, r9
 8007abe:	990b      	ldr	r1, [sp, #44]	; 0x2c
 8007ac0:	220a      	movs	r2, #10
 8007ac2:	2300      	movs	r3, #0
 8007ac4:	f000 fbe2 	bl	800828c <__multadd>
 8007ac8:	900b      	str	r0, [sp, #44]	; 0x2c
 8007aca:	9811      	ldr	r0, [sp, #68]	; 0x44
 8007acc:	9009      	str	r0, [sp, #36]	; 0x24
 8007ace:	f7ff b9d4 	b.w	8006e7a <_dtoa_r+0x5ea>
 8007ad2:	2700      	movs	r7, #0
 8007ad4:	e61f      	b.n	8007716 <_dtoa_r+0xe86>
 8007ad6:	2702      	movs	r7, #2
 8007ad8:	f7ff bb6b 	b.w	80071b2 <_dtoa_r+0x922>
 8007adc:	2501      	movs	r5, #1
 8007ade:	f7fe bfbc 	b.w	8006a5a <_dtoa_r+0x1ca>
 8007ae2:	f43f a9b5 	beq.w	8006e50 <_dtoa_r+0x5c0>
 8007ae6:	f1c0 033c 	rsb	r3, r0, #60	; 0x3c
 8007aea:	f7ff ba70 	b.w	8006fce <_dtoa_r+0x73e>
 8007aee:	bf00      	nop

08007af0 <_setlocale_r>:
 8007af0:	b510      	push	{r4, lr}
 8007af2:	4614      	mov	r4, r2
 8007af4:	b122      	cbz	r2, 8007b00 <_setlocale_r+0x10>
 8007af6:	4610      	mov	r0, r2
 8007af8:	490a      	ldr	r1, [pc, #40]	; (8007b24 <_setlocale_r+0x34>)
 8007afa:	f001 fb03 	bl	8009104 <strcmp>
 8007afe:	b908      	cbnz	r0, 8007b04 <_setlocale_r+0x14>
 8007b00:	4809      	ldr	r0, [pc, #36]	; (8007b28 <_setlocale_r+0x38>)
 8007b02:	bd10      	pop	{r4, pc}
 8007b04:	4620      	mov	r0, r4
 8007b06:	4908      	ldr	r1, [pc, #32]	; (8007b28 <_setlocale_r+0x38>)
 8007b08:	f001 fafc 	bl	8009104 <strcmp>
 8007b0c:	2800      	cmp	r0, #0
 8007b0e:	d0f7      	beq.n	8007b00 <_setlocale_r+0x10>
 8007b10:	4620      	mov	r0, r4
 8007b12:	4906      	ldr	r1, [pc, #24]	; (8007b2c <_setlocale_r+0x3c>)
 8007b14:	f001 faf6 	bl	8009104 <strcmp>
 8007b18:	4b03      	ldr	r3, [pc, #12]	; (8007b28 <_setlocale_r+0x38>)
 8007b1a:	2800      	cmp	r0, #0
 8007b1c:	bf0c      	ite	eq
 8007b1e:	4618      	moveq	r0, r3
 8007b20:	2000      	movne	r0, #0
 8007b22:	bd10      	pop	{r4, pc}
 8007b24:	0800e1e4 	.word	0x0800e1e4
 8007b28:	0800e064 	.word	0x0800e064
 8007b2c:	0800e08c 	.word	0x0800e08c

08007b30 <__locale_charset>:
 8007b30:	f240 40d0 	movw	r0, #1232	; 0x4d0
 8007b34:	f2c1 0000 	movt	r0, #4096	; 0x1000
 8007b38:	4770      	bx	lr
 8007b3a:	bf00      	nop

08007b3c <__locale_mb_cur_max>:
 8007b3c:	f240 43f0 	movw	r3, #1264	; 0x4f0
 8007b40:	f2c1 0300 	movt	r3, #4096	; 0x1000
 8007b44:	6818      	ldr	r0, [r3, #0]
 8007b46:	4770      	bx	lr

08007b48 <__locale_msgcharset>:
 8007b48:	f240 4078 	movw	r0, #1144	; 0x478
 8007b4c:	f2c1 0000 	movt	r0, #4096	; 0x1000
 8007b50:	4770      	bx	lr
 8007b52:	bf00      	nop

08007b54 <__locale_cjk_lang>:
 8007b54:	2000      	movs	r0, #0
 8007b56:	4770      	bx	lr

08007b58 <_localeconv_r>:
 8007b58:	f240 4098 	movw	r0, #1176	; 0x498
 8007b5c:	f2c1 0000 	movt	r0, #4096	; 0x1000
 8007b60:	4770      	bx	lr
 8007b62:	bf00      	nop

08007b64 <setlocale>:
 8007b64:	b410      	push	{r4}
 8007b66:	f240 4370 	movw	r3, #1136	; 0x470
 8007b6a:	f2c1 0300 	movt	r3, #4096	; 0x1000
 8007b6e:	4604      	mov	r4, r0
 8007b70:	6818      	ldr	r0, [r3, #0]
 8007b72:	460a      	mov	r2, r1
 8007b74:	4621      	mov	r1, r4
 8007b76:	bc10      	pop	{r4}
 8007b78:	f7ff bfba 	b.w	8007af0 <_setlocale_r>

08007b7c <localeconv>:
 8007b7c:	f240 4098 	movw	r0, #1176	; 0x498
 8007b80:	f2c1 0000 	movt	r0, #4096	; 0x1000
 8007b84:	4770      	bx	lr
 8007b86:	bf00      	nop

08007b88 <_malloc_r>:
 8007b88:	e92d 4ff0 	stmdb	sp!, {r4, r5, r6, r7, r8, r9, sl, fp, lr}
 8007b8c:	f101 050b 	add.w	r5, r1, #11
 8007b90:	2d16      	cmp	r5, #22
 8007b92:	b083      	sub	sp, #12
 8007b94:	4606      	mov	r6, r0
 8007b96:	d927      	bls.n	8007be8 <_malloc_r+0x60>
 8007b98:	f035 0507 	bics.w	r5, r5, #7
 8007b9c:	d427      	bmi.n	8007bee <_malloc_r+0x66>
 8007b9e:	42a9      	cmp	r1, r5
 8007ba0:	d825      	bhi.n	8007bee <_malloc_r+0x66>
 8007ba2:	4630      	mov	r0, r6
 8007ba4:	f000 fb3e 	bl	8008224 <__malloc_lock>
 8007ba8:	f5b5 7ffc 	cmp.w	r5, #504	; 0x1f8
 8007bac:	d223      	bcs.n	8007bf6 <_malloc_r+0x6e>
 8007bae:	4fba      	ldr	r7, [pc, #744]	; (8007e98 <_malloc_r+0x310>)
 8007bb0:	ea4f 0cd5 	mov.w	ip, r5, lsr #3
 8007bb4:	eb07 02cc 	add.w	r2, r7, ip, lsl #3
 8007bb8:	68d4      	ldr	r4, [r2, #12]
 8007bba:	4294      	cmp	r4, r2
 8007bbc:	f000 81de 	beq.w	8007f7c <_malloc_r+0x3f4>
 8007bc0:	6863      	ldr	r3, [r4, #4]
 8007bc2:	68e2      	ldr	r2, [r4, #12]
 8007bc4:	68a1      	ldr	r1, [r4, #8]
 8007bc6:	f023 0003 	bic.w	r0, r3, #3
 8007bca:	1823      	adds	r3, r4, r0
 8007bcc:	60ca      	str	r2, [r1, #12]
 8007bce:	6858      	ldr	r0, [r3, #4]
 8007bd0:	6091      	str	r1, [r2, #8]
 8007bd2:	f040 0201 	orr.w	r2, r0, #1
 8007bd6:	605a      	str	r2, [r3, #4]
 8007bd8:	4630      	mov	r0, r6
 8007bda:	f000 fb25 	bl	8008228 <__malloc_unlock>
 8007bde:	3408      	adds	r4, #8
 8007be0:	4620      	mov	r0, r4
 8007be2:	b003      	add	sp, #12
 8007be4:	e8bd 8ff0 	ldmia.w	sp!, {r4, r5, r6, r7, r8, r9, sl, fp, pc}
 8007be8:	2510      	movs	r5, #16
 8007bea:	42a9      	cmp	r1, r5
 8007bec:	d9d9      	bls.n	8007ba2 <_malloc_r+0x1a>
 8007bee:	240c      	movs	r4, #12
 8007bf0:	6034      	str	r4, [r6, #0]
 8007bf2:	2400      	movs	r4, #0
 8007bf4:	e7f4      	b.n	8007be0 <_malloc_r+0x58>
 8007bf6:	ea5f 2c55 	movs.w	ip, r5, lsr #9
 8007bfa:	f000 808b 	beq.w	8007d14 <_malloc_r+0x18c>
 8007bfe:	f1bc 0f04 	cmp.w	ip, #4
 8007c02:	f200 8155 	bhi.w	8007eb0 <_malloc_r+0x328>
 8007c06:	ea4f 1795 	mov.w	r7, r5, lsr #6
 8007c0a:	f107 0e38 	add.w	lr, r7, #56	; 0x38
 8007c0e:	ea4f 014e 	mov.w	r1, lr, lsl #1
 8007c12:	4fa1      	ldr	r7, [pc, #644]	; (8007e98 <_malloc_r+0x310>)
 8007c14:	eb07 0181 	add.w	r1, r7, r1, lsl #2
 8007c18:	68cc      	ldr	r4, [r1, #12]
 8007c1a:	42a1      	cmp	r1, r4
 8007c1c:	d105      	bne.n	8007c2a <_malloc_r+0xa2>
 8007c1e:	e00c      	b.n	8007c3a <_malloc_r+0xb2>
 8007c20:	2a00      	cmp	r2, #0
 8007c22:	da7c      	bge.n	8007d1e <_malloc_r+0x196>
 8007c24:	68e4      	ldr	r4, [r4, #12]
 8007c26:	42a1      	cmp	r1, r4
 8007c28:	d007      	beq.n	8007c3a <_malloc_r+0xb2>
 8007c2a:	6863      	ldr	r3, [r4, #4]
 8007c2c:	f023 0003 	bic.w	r0, r3, #3
 8007c30:	1b42      	subs	r2, r0, r5
 8007c32:	2a0f      	cmp	r2, #15
 8007c34:	ddf4      	ble.n	8007c20 <_malloc_r+0x98>
 8007c36:	f10e 3eff 	add.w	lr, lr, #4294967295
 8007c3a:	f10e 0c01 	add.w	ip, lr, #1
 8007c3e:	4b96      	ldr	r3, [pc, #600]	; (8007e98 <_malloc_r+0x310>)
 8007c40:	693c      	ldr	r4, [r7, #16]
 8007c42:	f103 0e08 	add.w	lr, r3, #8
 8007c46:	4574      	cmp	r4, lr
 8007c48:	f000 8175 	beq.w	8007f36 <_malloc_r+0x3ae>
 8007c4c:	6861      	ldr	r1, [r4, #4]
 8007c4e:	f021 0103 	bic.w	r1, r1, #3
 8007c52:	1b4a      	subs	r2, r1, r5
 8007c54:	2a0f      	cmp	r2, #15
 8007c56:	f300 815b 	bgt.w	8007f10 <_malloc_r+0x388>
 8007c5a:	2a00      	cmp	r2, #0
 8007c5c:	f8c3 e014 	str.w	lr, [r3, #20]
 8007c60:	f8c3 e010 	str.w	lr, [r3, #16]
 8007c64:	da69      	bge.n	8007d3a <_malloc_r+0x1b2>
 8007c66:	f5b1 7f00 	cmp.w	r1, #512	; 0x200
 8007c6a:	f080 812f 	bcs.w	8007ecc <_malloc_r+0x344>
 8007c6e:	08ca      	lsrs	r2, r1, #3
 8007c70:	eb03 01c2 	add.w	r1, r3, r2, lsl #3
 8007c74:	f04f 0901 	mov.w	r9, #1
 8007c78:	1092      	asrs	r2, r2, #2
 8007c7a:	fa09 f902 	lsl.w	r9, r9, r2
 8007c7e:	685a      	ldr	r2, [r3, #4]
 8007c80:	6888      	ldr	r0, [r1, #8]
 8007c82:	60e1      	str	r1, [r4, #12]
 8007c84:	ea49 0902 	orr.w	r9, r9, r2
 8007c88:	60a0      	str	r0, [r4, #8]
 8007c8a:	f8c3 9004 	str.w	r9, [r3, #4]
 8007c8e:	608c      	str	r4, [r1, #8]
 8007c90:	60c4      	str	r4, [r0, #12]
 8007c92:	2001      	movs	r0, #1
 8007c94:	ea4f 04ac 	mov.w	r4, ip, asr #2
 8007c98:	fa00 f004 	lsl.w	r0, r0, r4
 8007c9c:	4548      	cmp	r0, r9
 8007c9e:	d856      	bhi.n	8007d4e <_malloc_r+0x1c6>
 8007ca0:	ea19 0f00 	tst.w	r9, r0
 8007ca4:	d107      	bne.n	8007cb6 <_malloc_r+0x12e>
 8007ca6:	f02c 0c03 	bic.w	ip, ip, #3
 8007caa:	0040      	lsls	r0, r0, #1
 8007cac:	ea19 0f00 	tst.w	r9, r0
 8007cb0:	f10c 0c04 	add.w	ip, ip, #4
 8007cb4:	d0f9      	beq.n	8007caa <_malloc_r+0x122>
 8007cb6:	eb07 09cc 	add.w	r9, r7, ip, lsl #3
 8007cba:	464c      	mov	r4, r9
 8007cbc:	46e0      	mov	r8, ip
 8007cbe:	68e3      	ldr	r3, [r4, #12]
 8007cc0:	429c      	cmp	r4, r3
 8007cc2:	d107      	bne.n	8007cd4 <_malloc_r+0x14c>
 8007cc4:	e13a      	b.n	8007f3c <_malloc_r+0x3b4>
 8007cc6:	2a00      	cmp	r2, #0
 8007cc8:	f280 8162 	bge.w	8007f90 <_malloc_r+0x408>
 8007ccc:	68db      	ldr	r3, [r3, #12]
 8007cce:	429c      	cmp	r4, r3
 8007cd0:	f000 8134 	beq.w	8007f3c <_malloc_r+0x3b4>
 8007cd4:	6859      	ldr	r1, [r3, #4]
 8007cd6:	f021 0103 	bic.w	r1, r1, #3
 8007cda:	1b4a      	subs	r2, r1, r5
 8007cdc:	2a0f      	cmp	r2, #15
 8007cde:	ddf2      	ble.n	8007cc6 <_malloc_r+0x13e>
 8007ce0:	461c      	mov	r4, r3
 8007ce2:	1959      	adds	r1, r3, r5
 8007ce4:	68d8      	ldr	r0, [r3, #12]
 8007ce6:	f854 cf08 	ldr.w	ip, [r4, #8]!
 8007cea:	508a      	str	r2, [r1, r2]
 8007cec:	f045 0501 	orr.w	r5, r5, #1
 8007cf0:	f042 0201 	orr.w	r2, r2, #1
 8007cf4:	f8cc 000c 	str.w	r0, [ip, #12]
 8007cf8:	f8c0 c008 	str.w	ip, [r0, #8]
 8007cfc:	605d      	str	r5, [r3, #4]
 8007cfe:	6179      	str	r1, [r7, #20]
 8007d00:	6139      	str	r1, [r7, #16]
 8007d02:	f8c1 e00c 	str.w	lr, [r1, #12]
 8007d06:	f8c1 e008 	str.w	lr, [r1, #8]
 8007d0a:	604a      	str	r2, [r1, #4]
 8007d0c:	4630      	mov	r0, r6
 8007d0e:	f000 fa8b 	bl	8008228 <__malloc_unlock>
 8007d12:	e765      	b.n	8007be0 <_malloc_r+0x58>
 8007d14:	ea4f 0ed5 	mov.w	lr, r5, lsr #3
 8007d18:	ea4f 014e 	mov.w	r1, lr, lsl #1
 8007d1c:	e779      	b.n	8007c12 <_malloc_r+0x8a>
 8007d1e:	1822      	adds	r2, r4, r0
 8007d20:	68e3      	ldr	r3, [r4, #12]
 8007d22:	6850      	ldr	r0, [r2, #4]
 8007d24:	68a1      	ldr	r1, [r4, #8]
 8007d26:	f040 0001 	orr.w	r0, r0, #1
 8007d2a:	6050      	str	r0, [r2, #4]
 8007d2c:	60cb      	str	r3, [r1, #12]
 8007d2e:	6099      	str	r1, [r3, #8]
 8007d30:	4630      	mov	r0, r6
 8007d32:	f000 fa79 	bl	8008228 <__malloc_unlock>
 8007d36:	3408      	adds	r4, #8
 8007d38:	e752      	b.n	8007be0 <_malloc_r+0x58>
 8007d3a:	1861      	adds	r1, r4, r1
 8007d3c:	4630      	mov	r0, r6
 8007d3e:	684b      	ldr	r3, [r1, #4]
 8007d40:	f043 0201 	orr.w	r2, r3, #1
 8007d44:	604a      	str	r2, [r1, #4]
 8007d46:	f000 fa6f 	bl	8008228 <__malloc_unlock>
 8007d4a:	3408      	adds	r4, #8
 8007d4c:	e748      	b.n	8007be0 <_malloc_r+0x58>
 8007d4e:	68bc      	ldr	r4, [r7, #8]
 8007d50:	6860      	ldr	r0, [r4, #4]
 8007d52:	f020 0903 	bic.w	r9, r0, #3
 8007d56:	45a9      	cmp	r9, r5
 8007d58:	d304      	bcc.n	8007d64 <_malloc_r+0x1dc>
 8007d5a:	ebc5 0309 	rsb	r3, r5, r9
 8007d5e:	2b0f      	cmp	r3, #15
 8007d60:	f300 808d 	bgt.w	8007e7e <_malloc_r+0x2f6>
 8007d64:	4a4d      	ldr	r2, [pc, #308]	; (8007e9c <_malloc_r+0x314>)
 8007d66:	4b4e      	ldr	r3, [pc, #312]	; (8007ea0 <_malloc_r+0x318>)
 8007d68:	6811      	ldr	r1, [r2, #0]
 8007d6a:	6818      	ldr	r0, [r3, #0]
 8007d6c:	3101      	adds	r1, #1
 8007d6e:	eb04 0b09 	add.w	fp, r4, r9
 8007d72:	eb05 0300 	add.w	r3, r5, r0
 8007d76:	f000 815a 	beq.w	800802e <_malloc_r+0x4a6>
 8007d7a:	f503 5080 	add.w	r0, r3, #4096	; 0x1000
 8007d7e:	300f      	adds	r0, #15
 8007d80:	f420 617f 	bic.w	r1, r0, #4080	; 0xff0
 8007d84:	f021 0c0f 	bic.w	ip, r1, #15
 8007d88:	4661      	mov	r1, ip
 8007d8a:	4630      	mov	r0, r6
 8007d8c:	e88d 1004 	stmia.w	sp, {r2, ip}
 8007d90:	f001 f9a6 	bl	80090e0 <_sbrk_r>
 8007d94:	f1b0 3fff 	cmp.w	r0, #4294967295
 8007d98:	4680      	mov	r8, r0
 8007d9a:	e89d 1004 	ldmia.w	sp, {r2, ip}
 8007d9e:	f000 8152 	beq.w	8008046 <_malloc_r+0x4be>
 8007da2:	4583      	cmp	fp, r0
 8007da4:	f200 810f 	bhi.w	8007fc6 <_malloc_r+0x43e>
 8007da8:	f8df a100 	ldr.w	sl, [pc, #256]	; 8007eac <_malloc_r+0x324>
 8007dac:	f8da 3000 	ldr.w	r3, [sl]
 8007db0:	45c3      	cmp	fp, r8
 8007db2:	4463      	add	r3, ip
 8007db4:	f8ca 3000 	str.w	r3, [sl]
 8007db8:	f000 814a 	beq.w	8008050 <_malloc_r+0x4c8>
 8007dbc:	6812      	ldr	r2, [r2, #0]
 8007dbe:	3201      	adds	r2, #1
 8007dc0:	f000 8157 	beq.w	8008072 <_malloc_r+0x4ea>
 8007dc4:	ebcb 0b08 	rsb	fp, fp, r8
 8007dc8:	445b      	add	r3, fp
 8007dca:	f8ca 3000 	str.w	r3, [sl]
 8007dce:	f018 0107 	ands.w	r1, r8, #7
 8007dd2:	f000 810b 	beq.w	8007fec <_malloc_r+0x464>
 8007dd6:	f1c1 0008 	rsb	r0, r1, #8
 8007dda:	f5c1 5380 	rsb	r3, r1, #4096	; 0x1000
 8007dde:	4480      	add	r8, r0
 8007de0:	f103 0208 	add.w	r2, r3, #8
 8007de4:	eb08 010c 	add.w	r1, r8, ip
 8007de8:	0508      	lsls	r0, r1, #20
 8007dea:	0d03      	lsrs	r3, r0, #20
 8007dec:	ebc3 0b02 	rsb	fp, r3, r2
 8007df0:	4630      	mov	r0, r6
 8007df2:	4659      	mov	r1, fp
 8007df4:	f001 f974 	bl	80090e0 <_sbrk_r>
 8007df8:	1c43      	adds	r3, r0, #1
 8007dfa:	f000 8146 	beq.w	800808a <_malloc_r+0x502>
 8007dfe:	ebc8 0200 	rsb	r2, r8, r0
 8007e02:	eb0b 0102 	add.w	r1, fp, r2
 8007e06:	f041 0001 	orr.w	r0, r1, #1
 8007e0a:	f8da 3000 	ldr.w	r3, [sl]
 8007e0e:	f8c7 8008 	str.w	r8, [r7, #8]
 8007e12:	445b      	add	r3, fp
 8007e14:	42bc      	cmp	r4, r7
 8007e16:	f8ca 3000 	str.w	r3, [sl]
 8007e1a:	f8c8 0004 	str.w	r0, [r8, #4]
 8007e1e:	d015      	beq.n	8007e4c <_malloc_r+0x2c4>
 8007e20:	f1b9 0f0f 	cmp.w	r9, #15
 8007e24:	f240 80f2 	bls.w	800800c <_malloc_r+0x484>
 8007e28:	6861      	ldr	r1, [r4, #4]
 8007e2a:	f1a9 020c 	sub.w	r2, r9, #12
 8007e2e:	f022 0207 	bic.w	r2, r2, #7
 8007e32:	18a0      	adds	r0, r4, r2
 8007e34:	f001 0c01 	and.w	ip, r1, #1
 8007e38:	ea42 0e0c 	orr.w	lr, r2, ip
 8007e3c:	2105      	movs	r1, #5
 8007e3e:	2a0f      	cmp	r2, #15
 8007e40:	f8c4 e004 	str.w	lr, [r4, #4]
 8007e44:	6041      	str	r1, [r0, #4]
 8007e46:	6081      	str	r1, [r0, #8]
 8007e48:	f200 8117 	bhi.w	800807a <_malloc_r+0x4f2>
 8007e4c:	4a15      	ldr	r2, [pc, #84]	; (8007ea4 <_malloc_r+0x31c>)
 8007e4e:	68bc      	ldr	r4, [r7, #8]
 8007e50:	6810      	ldr	r0, [r2, #0]
 8007e52:	4283      	cmp	r3, r0
 8007e54:	bf88      	it	hi
 8007e56:	6013      	strhi	r3, [r2, #0]
 8007e58:	4a13      	ldr	r2, [pc, #76]	; (8007ea8 <_malloc_r+0x320>)
 8007e5a:	6811      	ldr	r1, [r2, #0]
 8007e5c:	428b      	cmp	r3, r1
 8007e5e:	bf88      	it	hi
 8007e60:	6013      	strhi	r3, [r2, #0]
 8007e62:	6863      	ldr	r3, [r4, #4]
 8007e64:	f023 0003 	bic.w	r0, r3, #3
 8007e68:	42a8      	cmp	r0, r5
 8007e6a:	ebc5 0300 	rsb	r3, r5, r0
 8007e6e:	d301      	bcc.n	8007e74 <_malloc_r+0x2ec>
 8007e70:	2b0f      	cmp	r3, #15
 8007e72:	dc04      	bgt.n	8007e7e <_malloc_r+0x2f6>
 8007e74:	4630      	mov	r0, r6
 8007e76:	f000 f9d7 	bl	8008228 <__malloc_unlock>
 8007e7a:	2400      	movs	r4, #0
 8007e7c:	e6b0      	b.n	8007be0 <_malloc_r+0x58>
 8007e7e:	1962      	adds	r2, r4, r5
 8007e80:	f043 0101 	orr.w	r1, r3, #1
 8007e84:	f045 0501 	orr.w	r5, r5, #1
 8007e88:	6065      	str	r5, [r4, #4]
 8007e8a:	4630      	mov	r0, r6
 8007e8c:	6051      	str	r1, [r2, #4]
 8007e8e:	60ba      	str	r2, [r7, #8]
 8007e90:	f000 f9ca 	bl	8008228 <__malloc_unlock>
 8007e94:	3408      	adds	r4, #8
 8007e96:	e6a3      	b.n	8007be0 <_malloc_r+0x58>
 8007e98:	100004f4 	.word	0x100004f4
 8007e9c:	10000900 	.word	0x10000900
 8007ea0:	10001754 	.word	0x10001754
 8007ea4:	10001750 	.word	0x10001750
 8007ea8:	1000174c 	.word	0x1000174c
 8007eac:	10001758 	.word	0x10001758
 8007eb0:	f1bc 0f14 	cmp.w	ip, #20
 8007eb4:	d97b      	bls.n	8007fae <_malloc_r+0x426>
 8007eb6:	f1bc 0f54 	cmp.w	ip, #84	; 0x54
 8007eba:	f200 808d 	bhi.w	8007fd8 <_malloc_r+0x450>
 8007ebe:	ea4f 3415 	mov.w	r4, r5, lsr #12
 8007ec2:	f104 0e6e 	add.w	lr, r4, #110	; 0x6e
 8007ec6:	ea4f 014e 	mov.w	r1, lr, lsl #1
 8007eca:	e6a2      	b.n	8007c12 <_malloc_r+0x8a>
 8007ecc:	0a48      	lsrs	r0, r1, #9
 8007ece:	2804      	cmp	r0, #4
 8007ed0:	d972      	bls.n	8007fb8 <_malloc_r+0x430>
 8007ed2:	2814      	cmp	r0, #20
 8007ed4:	f200 80ae 	bhi.w	8008034 <_malloc_r+0x4ac>
 8007ed8:	f100 095b 	add.w	r9, r0, #91	; 0x5b
 8007edc:	ea4f 0249 	mov.w	r2, r9, lsl #1
 8007ee0:	eb07 0082 	add.w	r0, r7, r2, lsl #2
 8007ee4:	f8df 81f0 	ldr.w	r8, [pc, #496]	; 80080d8 <_malloc_r+0x550>
 8007ee8:	6883      	ldr	r3, [r0, #8]
 8007eea:	4283      	cmp	r3, r0
 8007eec:	f000 8081 	beq.w	8007ff2 <_malloc_r+0x46a>
 8007ef0:	685a      	ldr	r2, [r3, #4]
 8007ef2:	f022 0203 	bic.w	r2, r2, #3
 8007ef6:	4291      	cmp	r1, r2
 8007ef8:	d202      	bcs.n	8007f00 <_malloc_r+0x378>
 8007efa:	689b      	ldr	r3, [r3, #8]
 8007efc:	4298      	cmp	r0, r3
 8007efe:	d1f7      	bne.n	8007ef0 <_malloc_r+0x368>
 8007f00:	68da      	ldr	r2, [r3, #12]
 8007f02:	f8d7 9004 	ldr.w	r9, [r7, #4]
 8007f06:	60e2      	str	r2, [r4, #12]
 8007f08:	60a3      	str	r3, [r4, #8]
 8007f0a:	60dc      	str	r4, [r3, #12]
 8007f0c:	6094      	str	r4, [r2, #8]
 8007f0e:	e6c0      	b.n	8007c92 <_malloc_r+0x10a>
 8007f10:	1961      	adds	r1, r4, r5
 8007f12:	f042 0001 	orr.w	r0, r2, #1
 8007f16:	f045 0501 	orr.w	r5, r5, #1
 8007f1a:	6065      	str	r5, [r4, #4]
 8007f1c:	6159      	str	r1, [r3, #20]
 8007f1e:	6119      	str	r1, [r3, #16]
 8007f20:	6048      	str	r0, [r1, #4]
 8007f22:	f8c1 e00c 	str.w	lr, [r1, #12]
 8007f26:	f8c1 e008 	str.w	lr, [r1, #8]
 8007f2a:	508a      	str	r2, [r1, r2]
 8007f2c:	4630      	mov	r0, r6
 8007f2e:	f000 f97b 	bl	8008228 <__malloc_unlock>
 8007f32:	3408      	adds	r4, #8
 8007f34:	e654      	b.n	8007be0 <_malloc_r+0x58>
 8007f36:	f8d3 9004 	ldr.w	r9, [r3, #4]
 8007f3a:	e6aa      	b.n	8007c92 <_malloc_r+0x10a>
 8007f3c:	f108 0801 	add.w	r8, r8, #1
 8007f40:	3408      	adds	r4, #8
 8007f42:	f018 0f03 	tst.w	r8, #3
 8007f46:	f47f aeba 	bne.w	8007cbe <_malloc_r+0x136>
 8007f4a:	4649      	mov	r1, r9
 8007f4c:	f01c 0f03 	tst.w	ip, #3
 8007f50:	f1a1 0408 	sub.w	r4, r1, #8
 8007f54:	f10c 3cff 	add.w	ip, ip, #4294967295
 8007f58:	f000 80b0 	beq.w	80080bc <_malloc_r+0x534>
 8007f5c:	6809      	ldr	r1, [r1, #0]
 8007f5e:	42a1      	cmp	r1, r4
 8007f60:	d0f4      	beq.n	8007f4c <_malloc_r+0x3c4>
 8007f62:	687c      	ldr	r4, [r7, #4]
 8007f64:	0040      	lsls	r0, r0, #1
 8007f66:	42a0      	cmp	r0, r4
 8007f68:	f63f aef1 	bhi.w	8007d4e <_malloc_r+0x1c6>
 8007f6c:	2800      	cmp	r0, #0
 8007f6e:	f43f aeee 	beq.w	8007d4e <_malloc_r+0x1c6>
 8007f72:	4204      	tst	r4, r0
 8007f74:	f000 80a7 	beq.w	80080c6 <_malloc_r+0x53e>
 8007f78:	46c4      	mov	ip, r8
 8007f7a:	e69c      	b.n	8007cb6 <_malloc_r+0x12e>
 8007f7c:	f104 0308 	add.w	r3, r4, #8
 8007f80:	6964      	ldr	r4, [r4, #20]
 8007f82:	42a3      	cmp	r3, r4
 8007f84:	bf08      	it	eq
 8007f86:	f10c 0c02 	addeq.w	ip, ip, #2
 8007f8a:	f43f ae58 	beq.w	8007c3e <_malloc_r+0xb6>
 8007f8e:	e617      	b.n	8007bc0 <_malloc_r+0x38>
 8007f90:	1859      	adds	r1, r3, r1
 8007f92:	461c      	mov	r4, r3
 8007f94:	6848      	ldr	r0, [r1, #4]
 8007f96:	68db      	ldr	r3, [r3, #12]
 8007f98:	f854 2f08 	ldr.w	r2, [r4, #8]!
 8007f9c:	f040 0001 	orr.w	r0, r0, #1
 8007fa0:	6048      	str	r0, [r1, #4]
 8007fa2:	60d3      	str	r3, [r2, #12]
 8007fa4:	609a      	str	r2, [r3, #8]
 8007fa6:	4630      	mov	r0, r6
 8007fa8:	f000 f93e 	bl	8008228 <__malloc_unlock>
 8007fac:	e618      	b.n	8007be0 <_malloc_r+0x58>
 8007fae:	f10c 0e5b 	add.w	lr, ip, #91	; 0x5b
 8007fb2:	ea4f 014e 	mov.w	r1, lr, lsl #1
 8007fb6:	e62c      	b.n	8007c12 <_malloc_r+0x8a>
 8007fb8:	ea4f 1891 	mov.w	r8, r1, lsr #6
 8007fbc:	f108 0938 	add.w	r9, r8, #56	; 0x38
 8007fc0:	ea4f 0249 	mov.w	r2, r9, lsl #1
 8007fc4:	e78c      	b.n	8007ee0 <_malloc_r+0x358>
 8007fc6:	42bc      	cmp	r4, r7
 8007fc8:	f43f aeee 	beq.w	8007da8 <_malloc_r+0x220>
 8007fcc:	4c42      	ldr	r4, [pc, #264]	; (80080d8 <_malloc_r+0x550>)
 8007fce:	68a4      	ldr	r4, [r4, #8]
 8007fd0:	6862      	ldr	r2, [r4, #4]
 8007fd2:	f022 0003 	bic.w	r0, r2, #3
 8007fd6:	e747      	b.n	8007e68 <_malloc_r+0x2e0>
 8007fd8:	f5bc 7faa 	cmp.w	ip, #340	; 0x154
 8007fdc:	d81c      	bhi.n	8008018 <_malloc_r+0x490>
 8007fde:	ea4f 32d5 	mov.w	r2, r5, lsr #15
 8007fe2:	f102 0e77 	add.w	lr, r2, #119	; 0x77
 8007fe6:	ea4f 014e 	mov.w	r1, lr, lsl #1
 8007fea:	e612      	b.n	8007c12 <_malloc_r+0x8a>
 8007fec:	f44f 5280 	mov.w	r2, #4096	; 0x1000
 8007ff0:	e6f8      	b.n	8007de4 <_malloc_r+0x25c>
 8007ff2:	f8d8 0004 	ldr.w	r0, [r8, #4]
 8007ff6:	ea4f 02a9 	mov.w	r2, r9, asr #2
 8007ffa:	2101      	movs	r1, #1
 8007ffc:	fa01 f202 	lsl.w	r2, r1, r2
 8008000:	ea42 0900 	orr.w	r9, r2, r0
 8008004:	f8c8 9004 	str.w	r9, [r8, #4]
 8008008:	461a      	mov	r2, r3
 800800a:	e77c      	b.n	8007f06 <_malloc_r+0x37e>
 800800c:	2201      	movs	r2, #1
 800800e:	f8c8 2004 	str.w	r2, [r8, #4]
 8008012:	4644      	mov	r4, r8
 8008014:	2000      	movs	r0, #0
 8008016:	e727      	b.n	8007e68 <_malloc_r+0x2e0>
 8008018:	f240 5354 	movw	r3, #1364	; 0x554
 800801c:	459c      	cmp	ip, r3
 800801e:	d824      	bhi.n	800806a <_malloc_r+0x4e2>
 8008020:	ea4f 4095 	mov.w	r0, r5, lsr #18
 8008024:	f100 0e7c 	add.w	lr, r0, #124	; 0x7c
 8008028:	ea4f 014e 	mov.w	r1, lr, lsl #1
 800802c:	e5f1      	b.n	8007c12 <_malloc_r+0x8a>
 800802e:	f103 0c10 	add.w	ip, r3, #16
 8008032:	e6a9      	b.n	8007d88 <_malloc_r+0x200>
 8008034:	2854      	cmp	r0, #84	; 0x54
 8008036:	d82c      	bhi.n	8008092 <_malloc_r+0x50a>
 8008038:	ea4f 3211 	mov.w	r2, r1, lsr #12
 800803c:	f102 096e 	add.w	r9, r2, #110	; 0x6e
 8008040:	ea4f 0249 	mov.w	r2, r9, lsl #1
 8008044:	e74c      	b.n	8007ee0 <_malloc_r+0x358>
 8008046:	68bc      	ldr	r4, [r7, #8]
 8008048:	6861      	ldr	r1, [r4, #4]
 800804a:	f021 0003 	bic.w	r0, r1, #3
 800804e:	e70b      	b.n	8007e68 <_malloc_r+0x2e0>
 8008050:	ea4f 500b 	mov.w	r0, fp, lsl #20
 8008054:	0d01      	lsrs	r1, r0, #20
 8008056:	2900      	cmp	r1, #0
 8008058:	f47f aeb0 	bne.w	8007dbc <_malloc_r+0x234>
 800805c:	68b8      	ldr	r0, [r7, #8]
 800805e:	eb0c 0109 	add.w	r1, ip, r9
 8008062:	f041 0401 	orr.w	r4, r1, #1
 8008066:	6044      	str	r4, [r0, #4]
 8008068:	e6f0      	b.n	8007e4c <_malloc_r+0x2c4>
 800806a:	21fc      	movs	r1, #252	; 0xfc
 800806c:	f04f 0e7e 	mov.w	lr, #126	; 0x7e
 8008070:	e5cf      	b.n	8007c12 <_malloc_r+0x8a>
 8008072:	481a      	ldr	r0, [pc, #104]	; (80080dc <_malloc_r+0x554>)
 8008074:	f8c0 8000 	str.w	r8, [r0]
 8008078:	e6a9      	b.n	8007dce <_malloc_r+0x246>
 800807a:	f104 0108 	add.w	r1, r4, #8
 800807e:	4c18      	ldr	r4, [pc, #96]	; (80080e0 <_malloc_r+0x558>)
 8008080:	4630      	mov	r0, r6
 8008082:	f002 f919 	bl	800a2b8 <_free_r>
 8008086:	6823      	ldr	r3, [r4, #0]
 8008088:	e6e0      	b.n	8007e4c <_malloc_r+0x2c4>
 800808a:	2001      	movs	r0, #1
 800808c:	f04f 0b00 	mov.w	fp, #0
 8008090:	e6bb      	b.n	8007e0a <_malloc_r+0x282>
 8008092:	f5b0 7faa 	cmp.w	r0, #340	; 0x154
 8008096:	d806      	bhi.n	80080a6 <_malloc_r+0x51e>
 8008098:	ea4f 33d1 	mov.w	r3, r1, lsr #15
 800809c:	f103 0977 	add.w	r9, r3, #119	; 0x77
 80080a0:	ea4f 0249 	mov.w	r2, r9, lsl #1
 80080a4:	e71c      	b.n	8007ee0 <_malloc_r+0x358>
 80080a6:	f240 5354 	movw	r3, #1364	; 0x554
 80080aa:	4298      	cmp	r0, r3
 80080ac:	d80f      	bhi.n	80080ce <_malloc_r+0x546>
 80080ae:	ea4f 4091 	mov.w	r0, r1, lsr #18
 80080b2:	f100 097c 	add.w	r9, r0, #124	; 0x7c
 80080b6:	ea4f 0249 	mov.w	r2, r9, lsl #1
 80080ba:	e711      	b.n	8007ee0 <_malloc_r+0x358>
 80080bc:	687c      	ldr	r4, [r7, #4]
 80080be:	ea24 0400 	bic.w	r4, r4, r0
 80080c2:	607c      	str	r4, [r7, #4]
 80080c4:	e74e      	b.n	8007f64 <_malloc_r+0x3dc>
 80080c6:	0040      	lsls	r0, r0, #1
 80080c8:	f108 0804 	add.w	r8, r8, #4
 80080cc:	e751      	b.n	8007f72 <_malloc_r+0x3ea>
 80080ce:	22fc      	movs	r2, #252	; 0xfc
 80080d0:	f04f 097e 	mov.w	r9, #126	; 0x7e
 80080d4:	e704      	b.n	8007ee0 <_malloc_r+0x358>
 80080d6:	bf00      	nop
 80080d8:	100004f4 	.word	0x100004f4
 80080dc:	10000900 	.word	0x10000900
 80080e0:	10001758 	.word	0x10001758

080080e4 <memchr>:
 80080e4:	0783      	lsls	r3, r0, #30
 80080e6:	b4f0      	push	{r4, r5, r6, r7}
 80080e8:	b2c9      	uxtb	r1, r1
 80080ea:	f000 8096 	beq.w	800821a <memchr+0x136>
 80080ee:	1e53      	subs	r3, r2, #1
 80080f0:	2a00      	cmp	r2, #0
 80080f2:	f000 8094 	beq.w	800821e <memchr+0x13a>
 80080f6:	7802      	ldrb	r2, [r0, #0]
 80080f8:	428a      	cmp	r2, r1
 80080fa:	d00b      	beq.n	8008114 <memchr+0x30>
 80080fc:	1c42      	adds	r2, r0, #1
 80080fe:	07d8      	lsls	r0, r3, #31
 8008100:	d51a      	bpl.n	8008138 <memchr+0x54>
 8008102:	f012 0f03 	tst.w	r2, #3
 8008106:	4610      	mov	r0, r2
 8008108:	d01c      	beq.n	8008144 <memchr+0x60>
 800810a:	7814      	ldrb	r4, [r2, #0]
 800810c:	3b01      	subs	r3, #1
 800810e:	3201      	adds	r2, #1
 8008110:	428c      	cmp	r4, r1
 8008112:	d111      	bne.n	8008138 <memchr+0x54>
 8008114:	bcf0      	pop	{r4, r5, r6, r7}
 8008116:	4770      	bx	lr
 8008118:	2b00      	cmp	r3, #0
 800811a:	d07c      	beq.n	8008216 <memchr+0x132>
 800811c:	7812      	ldrb	r2, [r2, #0]
 800811e:	3b01      	subs	r3, #1
 8008120:	428a      	cmp	r2, r1
 8008122:	d0f7      	beq.n	8008114 <memchr+0x30>
 8008124:	f014 0f03 	tst.w	r4, #3
 8008128:	4620      	mov	r0, r4
 800812a:	f104 0201 	add.w	r2, r4, #1
 800812e:	d009      	beq.n	8008144 <memchr+0x60>
 8008130:	7824      	ldrb	r4, [r4, #0]
 8008132:	3b01      	subs	r3, #1
 8008134:	428c      	cmp	r4, r1
 8008136:	d0ed      	beq.n	8008114 <memchr+0x30>
 8008138:	f012 0f03 	tst.w	r2, #3
 800813c:	4610      	mov	r0, r2
 800813e:	f102 0401 	add.w	r4, r2, #1
 8008142:	d1e9      	bne.n	8008118 <memchr+0x34>
 8008144:	2b03      	cmp	r3, #3
 8008146:	d93f      	bls.n	80081c8 <memchr+0xe4>
 8008148:	6804      	ldr	r4, [r0, #0]
 800814a:	ea41 2501 	orr.w	r5, r1, r1, lsl #8
 800814e:	ea45 4505 	orr.w	r5, r5, r5, lsl #16
 8008152:	ea85 0704 	eor.w	r7, r5, r4
 8008156:	f1a7 3201 	sub.w	r2, r7, #16843009	; 0x1010101
 800815a:	ea22 0207 	bic.w	r2, r2, r7
 800815e:	1f1e      	subs	r6, r3, #4
 8008160:	1d04      	adds	r4, r0, #4
 8008162:	f012 3f80 	tst.w	r2, #2155905152	; 0x80808080
 8008166:	f3c6 0780 	ubfx	r7, r6, #2, #1
 800816a:	d12d      	bne.n	80081c8 <memchr+0xe4>
 800816c:	2e03      	cmp	r6, #3
 800816e:	4633      	mov	r3, r6
 8008170:	d929      	bls.n	80081c6 <memchr+0xe2>
 8008172:	b167      	cbz	r7, 800818e <memchr+0xaa>
 8008174:	4620      	mov	r0, r4
 8008176:	3404      	adds	r4, #4
 8008178:	6806      	ldr	r6, [r0, #0]
 800817a:	ea85 0206 	eor.w	r2, r5, r6
 800817e:	f1a2 3601 	sub.w	r6, r2, #16843009	; 0x1010101
 8008182:	ea26 0202 	bic.w	r2, r6, r2
 8008186:	f012 3f80 	tst.w	r2, #2155905152	; 0x80808080
 800818a:	d019      	beq.n	80081c0 <memchr+0xdc>
 800818c:	e01c      	b.n	80081c8 <memchr+0xe4>
 800818e:	1d26      	adds	r6, r4, #4
 8008190:	4620      	mov	r0, r4
 8008192:	6824      	ldr	r4, [r4, #0]
 8008194:	ea85 0204 	eor.w	r2, r5, r4
 8008198:	f1a2 3401 	sub.w	r4, r2, #16843009	; 0x1010101
 800819c:	ea24 0202 	bic.w	r2, r4, r2
 80081a0:	f012 3f80 	tst.w	r2, #2155905152	; 0x80808080
 80081a4:	d110      	bne.n	80081c8 <memchr+0xe4>
 80081a6:	6834      	ldr	r4, [r6, #0]
 80081a8:	ea85 0204 	eor.w	r2, r5, r4
 80081ac:	f1a2 3401 	sub.w	r4, r2, #16843009	; 0x1010101
 80081b0:	ea24 0202 	bic.w	r2, r4, r2
 80081b4:	3b04      	subs	r3, #4
 80081b6:	1d34      	adds	r4, r6, #4
 80081b8:	f012 3f80 	tst.w	r2, #2155905152	; 0x80808080
 80081bc:	4630      	mov	r0, r6
 80081be:	d103      	bne.n	80081c8 <memchr+0xe4>
 80081c0:	3b04      	subs	r3, #4
 80081c2:	2b03      	cmp	r3, #3
 80081c4:	d8e3      	bhi.n	800818e <memchr+0xaa>
 80081c6:	4620      	mov	r0, r4
 80081c8:	1e5d      	subs	r5, r3, #1
 80081ca:	b323      	cbz	r3, 8008216 <memchr+0x132>
 80081cc:	7803      	ldrb	r3, [r0, #0]
 80081ce:	428b      	cmp	r3, r1
 80081d0:	d0a0      	beq.n	8008114 <memchr+0x30>
 80081d2:	1c43      	adds	r3, r0, #1
 80081d4:	2200      	movs	r2, #0
 80081d6:	07e8      	lsls	r0, r5, #31
 80081d8:	d514      	bpl.n	8008204 <memchr+0x120>
 80081da:	4618      	mov	r0, r3
 80081dc:	2201      	movs	r2, #1
 80081de:	7804      	ldrb	r4, [r0, #0]
 80081e0:	3301      	adds	r3, #1
 80081e2:	428c      	cmp	r4, r1
 80081e4:	d096      	beq.n	8008114 <memchr+0x30>
 80081e6:	4295      	cmp	r5, r2
 80081e8:	4618      	mov	r0, r3
 80081ea:	f103 0401 	add.w	r4, r3, #1
 80081ee:	f102 0202 	add.w	r2, r2, #2
 80081f2:	d00e      	beq.n	8008212 <memchr+0x12e>
 80081f4:	781b      	ldrb	r3, [r3, #0]
 80081f6:	428b      	cmp	r3, r1
 80081f8:	d08c      	beq.n	8008114 <memchr+0x30>
 80081fa:	1c63      	adds	r3, r4, #1
 80081fc:	4620      	mov	r0, r4
 80081fe:	7824      	ldrb	r4, [r4, #0]
 8008200:	428c      	cmp	r4, r1
 8008202:	d087      	beq.n	8008114 <memchr+0x30>
 8008204:	4295      	cmp	r5, r2
 8008206:	4618      	mov	r0, r3
 8008208:	f103 0401 	add.w	r4, r3, #1
 800820c:	f102 0202 	add.w	r2, r2, #2
 8008210:	d1f0      	bne.n	80081f4 <memchr+0x110>
 8008212:	2000      	movs	r0, #0
 8008214:	e77e      	b.n	8008114 <memchr+0x30>
 8008216:	4618      	mov	r0, r3
 8008218:	e77c      	b.n	8008114 <memchr+0x30>
 800821a:	4613      	mov	r3, r2
 800821c:	e792      	b.n	8008144 <memchr+0x60>
 800821e:	4610      	mov	r0, r2
 8008220:	e778      	b.n	8008114 <memchr+0x30>
 8008222:	bf00      	nop

08008224 <__malloc_lock>:
 8008224:	4770      	bx	lr
 8008226:	bf00      	nop

08008228 <__malloc_unlock>:
 8008228:	4770      	bx	lr
 800822a:	bf00      	nop

0800822c <_Balloc>:
 800822c:	6cc3      	ldr	r3, [r0, #76]	; 0x4c
 800822e:	b570      	push	{r4, r5, r6, lr}
 8008230:	4605      	mov	r5, r0
 8008232:	460c      	mov	r4, r1
 8008234:	b14b      	cbz	r3, 800824a <_Balloc+0x1e>
 8008236:	f853 0024 	ldr.w	r0, [r3, r4, lsl #2]
 800823a:	b180      	cbz	r0, 800825e <_Balloc+0x32>
 800823c:	6801      	ldr	r1, [r0, #0]
 800823e:	f843 1024 	str.w	r1, [r3, r4, lsl #2]
 8008242:	2300      	movs	r3, #0
 8008244:	6103      	str	r3, [r0, #16]
 8008246:	60c3      	str	r3, [r0, #12]
 8008248:	bd70      	pop	{r4, r5, r6, pc}
 800824a:	2104      	movs	r1, #4
 800824c:	2221      	movs	r2, #33	; 0x21
 800824e:	f001 ffb7 	bl	800a1c0 <_calloc_r>
 8008252:	4603      	mov	r3, r0
 8008254:	64e8      	str	r0, [r5, #76]	; 0x4c
 8008256:	2800      	cmp	r0, #0
 8008258:	d1ed      	bne.n	8008236 <_Balloc+0xa>
 800825a:	2000      	movs	r0, #0
 800825c:	bd70      	pop	{r4, r5, r6, pc}
 800825e:	2101      	movs	r1, #1
 8008260:	fa01 f604 	lsl.w	r6, r1, r4
 8008264:	1d72      	adds	r2, r6, #5
 8008266:	4628      	mov	r0, r5
 8008268:	0092      	lsls	r2, r2, #2
 800826a:	f001 ffa9 	bl	800a1c0 <_calloc_r>
 800826e:	2800      	cmp	r0, #0
 8008270:	d0f3      	beq.n	800825a <_Balloc+0x2e>
 8008272:	6044      	str	r4, [r0, #4]
 8008274:	6086      	str	r6, [r0, #8]
 8008276:	e7e4      	b.n	8008242 <_Balloc+0x16>

08008278 <_Bfree>:
 8008278:	b131      	cbz	r1, 8008288 <_Bfree+0x10>
 800827a:	6cc3      	ldr	r3, [r0, #76]	; 0x4c
 800827c:	684a      	ldr	r2, [r1, #4]
 800827e:	f853 0022 	ldr.w	r0, [r3, r2, lsl #2]
 8008282:	6008      	str	r0, [r1, #0]
 8008284:	f843 1022 	str.w	r1, [r3, r2, lsl #2]
 8008288:	4770      	bx	lr
 800828a:	bf00      	nop

0800828c <__multadd>:
 800828c:	e92d 41f0 	stmdb	sp!, {r4, r5, r6, r7, r8, lr}
 8008290:	460e      	mov	r6, r1
 8008292:	6949      	ldr	r1, [r1, #20]
 8008294:	6937      	ldr	r7, [r6, #16]
 8008296:	b28c      	uxth	r4, r1
 8008298:	0c0d      	lsrs	r5, r1, #16
 800829a:	fb02 3304 	mla	r3, r2, r4, r3
 800829e:	fb02 f105 	mul.w	r1, r2, r5
 80082a2:	eb01 4513 	add.w	r5, r1, r3, lsr #16
 80082a6:	f106 0418 	add.w	r4, r6, #24
 80082aa:	b29b      	uxth	r3, r3
 80082ac:	eb03 4305 	add.w	r3, r3, r5, lsl #16
 80082b0:	f844 3c04 	str.w	r3, [r4, #-4]
 80082b4:	2301      	movs	r3, #1
 80082b6:	1e79      	subs	r1, r7, #1
 80082b8:	0c2d      	lsrs	r5, r5, #16
 80082ba:	429f      	cmp	r7, r3
 80082bc:	4680      	mov	r8, r0
 80082be:	f001 0001 	and.w	r0, r1, #1
 80082c2:	dd39      	ble.n	8008338 <__multadd+0xac>
 80082c4:	b198      	cbz	r0, 80082ee <__multadd+0x62>
 80082c6:	6824      	ldr	r4, [r4, #0]
 80082c8:	b2a3      	uxth	r3, r4
 80082ca:	0c21      	lsrs	r1, r4, #16
 80082cc:	fb02 5503 	mla	r5, r2, r3, r5
 80082d0:	fb02 f101 	mul.w	r1, r2, r1
 80082d4:	b2ab      	uxth	r3, r5
 80082d6:	eb01 4015 	add.w	r0, r1, r5, lsr #16
 80082da:	eb03 4100 	add.w	r1, r3, r0, lsl #16
 80082de:	f106 041c 	add.w	r4, r6, #28
 80082e2:	2302      	movs	r3, #2
 80082e4:	0c05      	lsrs	r5, r0, #16
 80082e6:	429f      	cmp	r7, r3
 80082e8:	f844 1c04 	str.w	r1, [r4, #-4]
 80082ec:	dd24      	ble.n	8008338 <__multadd+0xac>
 80082ee:	6820      	ldr	r0, [r4, #0]
 80082f0:	b281      	uxth	r1, r0
 80082f2:	0c00      	lsrs	r0, r0, #16
 80082f4:	fb02 5101 	mla	r1, r2, r1, r5
 80082f8:	fb02 f000 	mul.w	r0, r2, r0
 80082fc:	4625      	mov	r5, r4
 80082fe:	eb00 4011 	add.w	r0, r0, r1, lsr #16
 8008302:	b289      	uxth	r1, r1
 8008304:	eb01 4100 	add.w	r1, r1, r0, lsl #16
 8008308:	f845 1b04 	str.w	r1, [r5], #4
 800830c:	6864      	ldr	r4, [r4, #4]
 800830e:	fa1f fc84 	uxth.w	ip, r4
 8008312:	0c21      	lsrs	r1, r4, #16
 8008314:	fb02 fc0c 	mul.w	ip, r2, ip
 8008318:	eb0c 4010 	add.w	r0, ip, r0, lsr #16
 800831c:	fb02 f101 	mul.w	r1, r2, r1
 8008320:	eb01 4110 	add.w	r1, r1, r0, lsr #16
 8008324:	462c      	mov	r4, r5
 8008326:	3302      	adds	r3, #2
 8008328:	b285      	uxth	r5, r0
 800832a:	eb05 4001 	add.w	r0, r5, r1, lsl #16
 800832e:	0c0d      	lsrs	r5, r1, #16
 8008330:	429f      	cmp	r7, r3
 8008332:	f844 0b04 	str.w	r0, [r4], #4
 8008336:	dcda      	bgt.n	80082ee <__multadd+0x62>
 8008338:	b13d      	cbz	r5, 800834a <__multadd+0xbe>
 800833a:	68b2      	ldr	r2, [r6, #8]
 800833c:	4297      	cmp	r7, r2
 800833e:	da07      	bge.n	8008350 <__multadd+0xc4>
 8008340:	eb06 0287 	add.w	r2, r6, r7, lsl #2
 8008344:	3701      	adds	r7, #1
 8008346:	6155      	str	r5, [r2, #20]
 8008348:	6137      	str	r7, [r6, #16]
 800834a:	4630      	mov	r0, r6
 800834c:	e8bd 81f0 	ldmia.w	sp!, {r4, r5, r6, r7, r8, pc}
 8008350:	6873      	ldr	r3, [r6, #4]
 8008352:	4640      	mov	r0, r8
 8008354:	1c59      	adds	r1, r3, #1
 8008356:	f7ff ff69 	bl	800822c <_Balloc>
 800835a:	6931      	ldr	r1, [r6, #16]
 800835c:	1c8a      	adds	r2, r1, #2
 800835e:	4604      	mov	r4, r0
 8008360:	f106 010c 	add.w	r1, r6, #12
 8008364:	f100 000c 	add.w	r0, r0, #12
 8008368:	0092      	lsls	r2, r2, #2
 800836a:	f7fc f84f 	bl	800440c <memcpy>
 800836e:	6870      	ldr	r0, [r6, #4]
 8008370:	f8d8 304c 	ldr.w	r3, [r8, #76]	; 0x4c
 8008374:	f853 1020 	ldr.w	r1, [r3, r0, lsl #2]
 8008378:	6031      	str	r1, [r6, #0]
 800837a:	f843 6020 	str.w	r6, [r3, r0, lsl #2]
 800837e:	4626      	mov	r6, r4
 8008380:	e7de      	b.n	8008340 <__multadd+0xb4>
 8008382:	bf00      	nop

08008384 <__s2b>:
 8008384:	e92d 4ff8 	stmdb	sp!, {r3, r4, r5, r6, r7, r8, r9, sl, fp, lr}
 8008388:	f648 6639 	movw	r6, #36409	; 0x8e39
 800838c:	f6c3 06e3 	movt	r6, #14563	; 0x38e3
 8008390:	461f      	mov	r7, r3
 8008392:	f103 0308 	add.w	r3, r3, #8
 8008396:	fb86 4503 	smull	r4, r5, r6, r3
 800839a:	17dc      	asrs	r4, r3, #31
 800839c:	ebc4 0665 	rsb	r6, r4, r5, asr #1
 80083a0:	2e01      	cmp	r6, #1
 80083a2:	4605      	mov	r5, r0
 80083a4:	4689      	mov	r9, r1
 80083a6:	4690      	mov	r8, r2
 80083a8:	f340 808a 	ble.w	80084c0 <__s2b+0x13c>
 80083ac:	2401      	movs	r4, #1
 80083ae:	2100      	movs	r1, #0
 80083b0:	0064      	lsls	r4, r4, #1
 80083b2:	3101      	adds	r1, #1
 80083b4:	42a6      	cmp	r6, r4
 80083b6:	dcfb      	bgt.n	80083b0 <__s2b+0x2c>
 80083b8:	4628      	mov	r0, r5
 80083ba:	f7ff ff37 	bl	800822c <_Balloc>
 80083be:	4601      	mov	r1, r0
 80083c0:	980a      	ldr	r0, [sp, #40]	; 0x28
 80083c2:	2201      	movs	r2, #1
 80083c4:	f1b8 0f09 	cmp.w	r8, #9
 80083c8:	6148      	str	r0, [r1, #20]
 80083ca:	610a      	str	r2, [r1, #16]
 80083cc:	dd73      	ble.n	80084b6 <__s2b+0x132>
 80083ce:	f109 0609 	add.w	r6, r9, #9
 80083d2:	eb09 0408 	add.w	r4, r9, r8
 80083d6:	7833      	ldrb	r3, [r6, #0]
 80083d8:	ea6f 0a06 	mvn.w	sl, r6
 80083dc:	220a      	movs	r2, #10
 80083de:	eb04 0c0a 	add.w	ip, r4, sl
 80083e2:	3b30      	subs	r3, #48	; 0x30
 80083e4:	4628      	mov	r0, r5
 80083e6:	eb09 0b02 	add.w	fp, r9, r2
 80083ea:	f00c 0a01 	and.w	sl, ip, #1
 80083ee:	f7ff ff4d 	bl	800828c <__multadd>
 80083f2:	45a3      	cmp	fp, r4
 80083f4:	4601      	mov	r1, r0
 80083f6:	d023      	beq.n	8008440 <__s2b+0xbc>
 80083f8:	f1ba 0f00 	cmp.w	sl, #0
 80083fc:	d00b      	beq.n	8008416 <__s2b+0x92>
 80083fe:	f89b 3000 	ldrb.w	r3, [fp]
 8008402:	220a      	movs	r2, #10
 8008404:	3b30      	subs	r3, #48	; 0x30
 8008406:	4628      	mov	r0, r5
 8008408:	f7ff ff40 	bl	800828c <__multadd>
 800840c:	f109 0b0b 	add.w	fp, r9, #11
 8008410:	45a3      	cmp	fp, r4
 8008412:	4601      	mov	r1, r0
 8008414:	d014      	beq.n	8008440 <__s2b+0xbc>
 8008416:	46d9      	mov	r9, fp
 8008418:	220a      	movs	r2, #10
 800841a:	f819 3b01 	ldrb.w	r3, [r9], #1
 800841e:	4628      	mov	r0, r5
 8008420:	3b30      	subs	r3, #48	; 0x30
 8008422:	f7ff ff33 	bl	800828c <__multadd>
 8008426:	f89b 3001 	ldrb.w	r3, [fp, #1]
 800842a:	4601      	mov	r1, r0
 800842c:	220a      	movs	r2, #10
 800842e:	3b30      	subs	r3, #48	; 0x30
 8008430:	4628      	mov	r0, r5
 8008432:	f7ff ff2b 	bl	800828c <__multadd>
 8008436:	f109 0b01 	add.w	fp, r9, #1
 800843a:	45a3      	cmp	fp, r4
 800843c:	4601      	mov	r1, r0
 800843e:	d1ea      	bne.n	8008416 <__s2b+0x92>
 8008440:	eb06 0308 	add.w	r3, r6, r8
 8008444:	f1a3 0908 	sub.w	r9, r3, #8
 8008448:	4547      	cmp	r7, r8
 800844a:	dd31      	ble.n	80084b0 <__s2b+0x12c>
 800844c:	464c      	mov	r4, r9
 800844e:	220a      	movs	r2, #10
 8008450:	f814 3b01 	ldrb.w	r3, [r4], #1
 8008454:	4628      	mov	r0, r5
 8008456:	3b30      	subs	r3, #48	; 0x30
 8008458:	f7ff ff18 	bl	800828c <__multadd>
 800845c:	ebc8 0707 	rsb	r7, r8, r7
 8008460:	444f      	add	r7, r9
 8008462:	ea6f 0609 	mvn.w	r6, r9
 8008466:	eb07 0906 	add.w	r9, r7, r6
 800846a:	42bc      	cmp	r4, r7
 800846c:	f009 0601 	and.w	r6, r9, #1
 8008470:	4601      	mov	r1, r0
 8008472:	d01d      	beq.n	80084b0 <__s2b+0x12c>
 8008474:	b14e      	cbz	r6, 800848a <__s2b+0x106>
 8008476:	f814 3b01 	ldrb.w	r3, [r4], #1
 800847a:	220a      	movs	r2, #10
 800847c:	3b30      	subs	r3, #48	; 0x30
 800847e:	4628      	mov	r0, r5
 8008480:	f7ff ff04 	bl	800828c <__multadd>
 8008484:	42bc      	cmp	r4, r7
 8008486:	4601      	mov	r1, r0
 8008488:	d012      	beq.n	80084b0 <__s2b+0x12c>
 800848a:	4626      	mov	r6, r4
 800848c:	220a      	movs	r2, #10
 800848e:	f816 3b01 	ldrb.w	r3, [r6], #1
 8008492:	4628      	mov	r0, r5
 8008494:	3b30      	subs	r3, #48	; 0x30
 8008496:	f7ff fef9 	bl	800828c <__multadd>
 800849a:	7863      	ldrb	r3, [r4, #1]
 800849c:	4601      	mov	r1, r0
 800849e:	220a      	movs	r2, #10
 80084a0:	3b30      	subs	r3, #48	; 0x30
 80084a2:	4628      	mov	r0, r5
 80084a4:	f7ff fef2 	bl	800828c <__multadd>
 80084a8:	1c74      	adds	r4, r6, #1
 80084aa:	42bc      	cmp	r4, r7
 80084ac:	4601      	mov	r1, r0
 80084ae:	d1ec      	bne.n	800848a <__s2b+0x106>
 80084b0:	4608      	mov	r0, r1
 80084b2:	e8bd 8ff8 	ldmia.w	sp!, {r3, r4, r5, r6, r7, r8, r9, sl, fp, pc}
 80084b6:	f109 090a 	add.w	r9, r9, #10
 80084ba:	f04f 0809 	mov.w	r8, #9
 80084be:	e7c3      	b.n	8008448 <__s2b+0xc4>
 80084c0:	2100      	movs	r1, #0
 80084c2:	e779      	b.n	80083b8 <__s2b+0x34>

080084c4 <__hi0bits>:
 80084c4:	0c02      	lsrs	r2, r0, #16
 80084c6:	4603      	mov	r3, r0
 80084c8:	d116      	bne.n	80084f8 <__hi0bits+0x34>
 80084ca:	0403      	lsls	r3, r0, #16
 80084cc:	2010      	movs	r0, #16
 80084ce:	f013 4f7f 	tst.w	r3, #4278190080	; 0xff000000
 80084d2:	d101      	bne.n	80084d8 <__hi0bits+0x14>
 80084d4:	3008      	adds	r0, #8
 80084d6:	021b      	lsls	r3, r3, #8
 80084d8:	f013 4f70 	tst.w	r3, #4026531840	; 0xf0000000
 80084dc:	d101      	bne.n	80084e2 <__hi0bits+0x1e>
 80084de:	3004      	adds	r0, #4
 80084e0:	011b      	lsls	r3, r3, #4
 80084e2:	f013 4f40 	tst.w	r3, #3221225472	; 0xc0000000
 80084e6:	d101      	bne.n	80084ec <__hi0bits+0x28>
 80084e8:	3002      	adds	r0, #2
 80084ea:	009b      	lsls	r3, r3, #2
 80084ec:	2b00      	cmp	r3, #0
 80084ee:	db02      	blt.n	80084f6 <__hi0bits+0x32>
 80084f0:	005b      	lsls	r3, r3, #1
 80084f2:	d403      	bmi.n	80084fc <__hi0bits+0x38>
 80084f4:	2020      	movs	r0, #32
 80084f6:	4770      	bx	lr
 80084f8:	2000      	movs	r0, #0
 80084fa:	e7e8      	b.n	80084ce <__hi0bits+0xa>
 80084fc:	3001      	adds	r0, #1
 80084fe:	4770      	bx	lr

08008500 <__lo0bits>:
 8008500:	6803      	ldr	r3, [r0, #0]
 8008502:	4602      	mov	r2, r0
 8008504:	f013 0007 	ands.w	r0, r3, #7
 8008508:	d007      	beq.n	800851a <__lo0bits+0x1a>
 800850a:	07d9      	lsls	r1, r3, #31
 800850c:	d41f      	bmi.n	800854e <__lo0bits+0x4e>
 800850e:	0798      	lsls	r0, r3, #30
 8008510:	d41f      	bmi.n	8008552 <__lo0bits+0x52>
 8008512:	0898      	lsrs	r0, r3, #2
 8008514:	6010      	str	r0, [r2, #0]
 8008516:	2002      	movs	r0, #2
 8008518:	4770      	bx	lr
 800851a:	b299      	uxth	r1, r3
 800851c:	b909      	cbnz	r1, 8008522 <__lo0bits+0x22>
 800851e:	0c1b      	lsrs	r3, r3, #16
 8008520:	2010      	movs	r0, #16
 8008522:	f013 0fff 	tst.w	r3, #255	; 0xff
 8008526:	d101      	bne.n	800852c <__lo0bits+0x2c>
 8008528:	3008      	adds	r0, #8
 800852a:	0a1b      	lsrs	r3, r3, #8
 800852c:	0719      	lsls	r1, r3, #28
 800852e:	d101      	bne.n	8008534 <__lo0bits+0x34>
 8008530:	3004      	adds	r0, #4
 8008532:	091b      	lsrs	r3, r3, #4
 8008534:	0799      	lsls	r1, r3, #30
 8008536:	d101      	bne.n	800853c <__lo0bits+0x3c>
 8008538:	3002      	adds	r0, #2
 800853a:	089b      	lsrs	r3, r3, #2
 800853c:	07d9      	lsls	r1, r3, #31
 800853e:	d404      	bmi.n	800854a <__lo0bits+0x4a>
 8008540:	085b      	lsrs	r3, r3, #1
 8008542:	d101      	bne.n	8008548 <__lo0bits+0x48>
 8008544:	2020      	movs	r0, #32
 8008546:	4770      	bx	lr
 8008548:	3001      	adds	r0, #1
 800854a:	6013      	str	r3, [r2, #0]
 800854c:	4770      	bx	lr
 800854e:	2000      	movs	r0, #0
 8008550:	4770      	bx	lr
 8008552:	0859      	lsrs	r1, r3, #1
 8008554:	6011      	str	r1, [r2, #0]
 8008556:	2001      	movs	r0, #1
 8008558:	4770      	bx	lr
 800855a:	bf00      	nop

0800855c <__i2b>:
 800855c:	b510      	push	{r4, lr}
 800855e:	460c      	mov	r4, r1
 8008560:	2101      	movs	r1, #1
 8008562:	f7ff fe63 	bl	800822c <_Balloc>
 8008566:	2201      	movs	r2, #1
 8008568:	6144      	str	r4, [r0, #20]
 800856a:	6102      	str	r2, [r0, #16]
 800856c:	bd10      	pop	{r4, pc}
 800856e:	bf00      	nop

08008570 <__multiply>:
 8008570:	e92d 4ff0 	stmdb	sp!, {r4, r5, r6, r7, r8, r9, sl, fp, lr}
 8008574:	690c      	ldr	r4, [r1, #16]
 8008576:	6917      	ldr	r7, [r2, #16]
 8008578:	42bc      	cmp	r4, r7
 800857a:	b085      	sub	sp, #20
 800857c:	460e      	mov	r6, r1
 800857e:	4690      	mov	r8, r2
 8008580:	da04      	bge.n	800858c <__multiply+0x1c>
 8008582:	4622      	mov	r2, r4
 8008584:	4646      	mov	r6, r8
 8008586:	463c      	mov	r4, r7
 8008588:	4688      	mov	r8, r1
 800858a:	4617      	mov	r7, r2
 800858c:	68b3      	ldr	r3, [r6, #8]
 800858e:	6871      	ldr	r1, [r6, #4]
 8008590:	19e2      	adds	r2, r4, r7
 8008592:	429a      	cmp	r2, r3
 8008594:	bfc8      	it	gt
 8008596:	3101      	addgt	r1, #1
 8008598:	9201      	str	r2, [sp, #4]
 800859a:	f7ff fe47 	bl	800822c <_Balloc>
 800859e:	9901      	ldr	r1, [sp, #4]
 80085a0:	9003      	str	r0, [sp, #12]
 80085a2:	eb00 0381 	add.w	r3, r0, r1, lsl #2
 80085a6:	3314      	adds	r3, #20
 80085a8:	3014      	adds	r0, #20
 80085aa:	4298      	cmp	r0, r3
 80085ac:	9302      	str	r3, [sp, #8]
 80085ae:	d21a      	bcs.n	80085e6 <__multiply+0x76>
 80085b0:	9902      	ldr	r1, [sp, #8]
 80085b2:	9b03      	ldr	r3, [sp, #12]
 80085b4:	43c2      	mvns	r2, r0
 80085b6:	188a      	adds	r2, r1, r2
 80085b8:	9902      	ldr	r1, [sp, #8]
 80085ba:	3318      	adds	r3, #24
 80085bc:	2500      	movs	r5, #0
 80085be:	4299      	cmp	r1, r3
 80085c0:	6005      	str	r5, [r0, #0]
 80085c2:	f3c2 0080 	ubfx	r0, r2, #2, #1
 80085c6:	d90e      	bls.n	80085e6 <__multiply+0x76>
 80085c8:	b128      	cbz	r0, 80085d6 <__multiply+0x66>
 80085ca:	601d      	str	r5, [r3, #0]
 80085cc:	9b03      	ldr	r3, [sp, #12]
 80085ce:	9a02      	ldr	r2, [sp, #8]
 80085d0:	331c      	adds	r3, #28
 80085d2:	429a      	cmp	r2, r3
 80085d4:	d907      	bls.n	80085e6 <__multiply+0x76>
 80085d6:	9802      	ldr	r0, [sp, #8]
 80085d8:	4619      	mov	r1, r3
 80085da:	f841 5b04 	str.w	r5, [r1], #4
 80085de:	605d      	str	r5, [r3, #4]
 80085e0:	1d0b      	adds	r3, r1, #4
 80085e2:	4298      	cmp	r0, r3
 80085e4:	d8f8      	bhi.n	80085d8 <__multiply+0x68>
 80085e6:	eb08 0387 	add.w	r3, r8, r7, lsl #2
 80085ea:	3314      	adds	r3, #20
 80085ec:	eb06 0484 	add.w	r4, r6, r4, lsl #2
 80085f0:	f108 0714 	add.w	r7, r8, #20
 80085f4:	3414      	adds	r4, #20
 80085f6:	429f      	cmp	r7, r3
 80085f8:	9300      	str	r3, [sp, #0]
 80085fa:	f106 0c14 	add.w	ip, r6, #20
 80085fe:	f080 80f8 	bcs.w	80087f2 <__multiply+0x282>
 8008602:	9803      	ldr	r0, [sp, #12]
 8008604:	3018      	adds	r0, #24
 8008606:	f857 3b04 	ldr.w	r3, [r7], #4
 800860a:	b29a      	uxth	r2, r3
 800860c:	2a00      	cmp	r2, #0
 800860e:	d06e      	beq.n	80086ee <__multiply+0x17e>
 8008610:	4661      	mov	r1, ip
 8008612:	f850 5c04 	ldr.w	r5, [r0, #-4]
 8008616:	f851 6b04 	ldr.w	r6, [r1], #4
 800861a:	b2ab      	uxth	r3, r5
 800861c:	fa1f f886 	uxth.w	r8, r6
 8008620:	0c2d      	lsrs	r5, r5, #16
 8008622:	0c36      	lsrs	r6, r6, #16
 8008624:	fb02 3308 	mla	r3, r2, r8, r3
 8008628:	fb02 5606 	mla	r6, r2, r6, r5
 800862c:	eb06 4613 	add.w	r6, r6, r3, lsr #16
 8008630:	ea6f 050c 	mvn.w	r5, ip
 8008634:	b29b      	uxth	r3, r3
 8008636:	ea43 4306 	orr.w	r3, r3, r6, lsl #16
 800863a:	1965      	adds	r5, r4, r5
 800863c:	0c36      	lsrs	r6, r6, #16
 800863e:	428c      	cmp	r4, r1
 8008640:	f840 3c04 	str.w	r3, [r0, #-4]
 8008644:	f3c5 0580 	ubfx	r5, r5, #2, #1
 8008648:	4603      	mov	r3, r0
 800864a:	d94d      	bls.n	80086e8 <__multiply+0x178>
 800864c:	b1cd      	cbz	r5, 8008682 <__multiply+0x112>
 800864e:	f8dc 5004 	ldr.w	r5, [ip, #4]
 8008652:	6803      	ldr	r3, [r0, #0]
 8008654:	fa1f f985 	uxth.w	r9, r5
 8008658:	fa1f f883 	uxth.w	r8, r3
 800865c:	0c2d      	lsrs	r5, r5, #16
 800865e:	0c1b      	lsrs	r3, r3, #16
 8008660:	fb02 8809 	mla	r8, r2, r9, r8
 8008664:	4446      	add	r6, r8
 8008666:	fb02 3505 	mla	r5, r2, r5, r3
 800866a:	eb05 4516 	add.w	r5, r5, r6, lsr #16
 800866e:	4603      	mov	r3, r0
 8008670:	b2b6      	uxth	r6, r6
 8008672:	ea46 4605 	orr.w	r6, r6, r5, lsl #16
 8008676:	3104      	adds	r1, #4
 8008678:	f843 6b04 	str.w	r6, [r3], #4
 800867c:	0c2e      	lsrs	r6, r5, #16
 800867e:	428c      	cmp	r4, r1
 8008680:	d932      	bls.n	80086e8 <__multiply+0x178>
 8008682:	460d      	mov	r5, r1
 8008684:	f8d3 e000 	ldr.w	lr, [r3]
 8008688:	f855 9b04 	ldr.w	r9, [r5], #4
 800868c:	fa1f fa8e 	uxth.w	sl, lr
 8008690:	fa1f fb89 	uxth.w	fp, r9
 8008694:	fb02 aa0b 	mla	sl, r2, fp, sl
 8008698:	ea4f 4919 	mov.w	r9, r9, lsr #16
 800869c:	ea4f 481e 	mov.w	r8, lr, lsr #16
 80086a0:	4456      	add	r6, sl
 80086a2:	fb02 8e09 	mla	lr, r2, r9, r8
 80086a6:	eb0e 4916 	add.w	r9, lr, r6, lsr #16
 80086aa:	4698      	mov	r8, r3
 80086ac:	b2b6      	uxth	r6, r6
 80086ae:	ea46 4609 	orr.w	r6, r6, r9, lsl #16
 80086b2:	f848 6b04 	str.w	r6, [r8], #4
 80086b6:	684e      	ldr	r6, [r1, #4]
 80086b8:	685b      	ldr	r3, [r3, #4]
 80086ba:	fa1f fa86 	uxth.w	sl, r6
 80086be:	b299      	uxth	r1, r3
 80086c0:	0c36      	lsrs	r6, r6, #16
 80086c2:	0c1b      	lsrs	r3, r3, #16
 80086c4:	fb02 110a 	mla	r1, r2, sl, r1
 80086c8:	eb01 4119 	add.w	r1, r1, r9, lsr #16
 80086cc:	fb02 3606 	mla	r6, r2, r6, r3
 80086d0:	eb06 4611 	add.w	r6, r6, r1, lsr #16
 80086d4:	b289      	uxth	r1, r1
 80086d6:	4643      	mov	r3, r8
 80086d8:	ea41 4806 	orr.w	r8, r1, r6, lsl #16
 80086dc:	1d29      	adds	r1, r5, #4
 80086de:	0c36      	lsrs	r6, r6, #16
 80086e0:	428c      	cmp	r4, r1
 80086e2:	f843 8b04 	str.w	r8, [r3], #4
 80086e6:	d8cc      	bhi.n	8008682 <__multiply+0x112>
 80086e8:	601e      	str	r6, [r3, #0]
 80086ea:	f857 3c04 	ldr.w	r3, [r7, #-4]
 80086ee:	0c1a      	lsrs	r2, r3, #16
 80086f0:	d07a      	beq.n	80087e8 <__multiply+0x278>
 80086f2:	f850 6c04 	ldr.w	r6, [r0, #-4]
 80086f6:	f8bc 5000 	ldrh.w	r5, [ip]
 80086fa:	0c31      	lsrs	r1, r6, #16
 80086fc:	fb02 1505 	mla	r5, r2, r5, r1
 8008700:	b2b3      	uxth	r3, r6
 8008702:	ea43 4605 	orr.w	r6, r3, r5, lsl #16
 8008706:	46e1      	mov	r9, ip
 8008708:	4603      	mov	r3, r0
 800870a:	f840 6c04 	str.w	r6, [r0, #-4]
 800870e:	f859 1b04 	ldr.w	r1, [r9], #4
 8008712:	f853 6b04 	ldr.w	r6, [r3], #4
 8008716:	0c09      	lsrs	r1, r1, #16
 8008718:	fa1f fa86 	uxth.w	sl, r6
 800871c:	fb02 a101 	mla	r1, r2, r1, sl
 8008720:	ea6f 0e0c 	mvn.w	lr, ip
 8008724:	eb04 080e 	add.w	r8, r4, lr
 8008728:	eb01 4115 	add.w	r1, r1, r5, lsr #16
 800872c:	454c      	cmp	r4, r9
 800872e:	f3c8 0a80 	ubfx	sl, r8, #2, #1
 8008732:	4605      	mov	r5, r0
 8008734:	ea4f 4811 	mov.w	r8, r1, lsr #16
 8008738:	d955      	bls.n	80087e6 <__multiply+0x276>
 800873a:	f1ba 0f00 	cmp.w	sl, #0
 800873e:	d01b      	beq.n	8008778 <__multiply+0x208>
 8008740:	f8bc 5004 	ldrh.w	r5, [ip, #4]
 8008744:	0c36      	lsrs	r6, r6, #16
 8008746:	fb02 6505 	mla	r5, r2, r5, r6
 800874a:	eb05 0e08 	add.w	lr, r5, r8
 800874e:	b289      	uxth	r1, r1
 8008750:	ea41 460e 	orr.w	r6, r1, lr, lsl #16
 8008754:	f843 6c04 	str.w	r6, [r3, #-4]
 8008758:	f859 1b04 	ldr.w	r1, [r9], #4
 800875c:	461d      	mov	r5, r3
 800875e:	f853 6b04 	ldr.w	r6, [r3], #4
 8008762:	0c09      	lsrs	r1, r1, #16
 8008764:	fa1f fa86 	uxth.w	sl, r6
 8008768:	fb02 a101 	mla	r1, r2, r1, sl
 800876c:	eb01 411e 	add.w	r1, r1, lr, lsr #16
 8008770:	454c      	cmp	r4, r9
 8008772:	ea4f 4811 	mov.w	r8, r1, lsr #16
 8008776:	d936      	bls.n	80087e6 <__multiply+0x276>
 8008778:	f8b9 b000 	ldrh.w	fp, [r9]
 800877c:	0c35      	lsrs	r5, r6, #16
 800877e:	fb02 5a0b 	mla	sl, r2, fp, r5
 8008782:	44c2      	add	sl, r8
 8008784:	b289      	uxth	r1, r1
 8008786:	461d      	mov	r5, r3
 8008788:	464e      	mov	r6, r9
 800878a:	ea41 410a 	orr.w	r1, r1, sl, lsl #16
 800878e:	f843 1c04 	str.w	r1, [r3, #-4]
 8008792:	f856 eb04 	ldr.w	lr, [r6], #4
 8008796:	f855 1b04 	ldr.w	r1, [r5], #4
 800879a:	f8d9 8004 	ldr.w	r8, [r9, #4]
 800879e:	fa1f fb81 	uxth.w	fp, r1
 80087a2:	ea4f 491e 	mov.w	r9, lr, lsr #16
 80087a6:	0c09      	lsrs	r1, r1, #16
 80087a8:	fb02 be09 	mla	lr, r2, r9, fp
 80087ac:	fa1f f888 	uxth.w	r8, r8
 80087b0:	eb0e 491a 	add.w	r9, lr, sl, lsr #16
 80087b4:	fb02 1e08 	mla	lr, r2, r8, r1
 80087b8:	eb0e 4819 	add.w	r8, lr, r9, lsr #16
 80087bc:	fa1f f189 	uxth.w	r1, r9
 80087c0:	46b1      	mov	r9, r6
 80087c2:	ea41 4608 	orr.w	r6, r1, r8, lsl #16
 80087c6:	f845 6c04 	str.w	r6, [r5, #-4]
 80087ca:	f859 1b04 	ldr.w	r1, [r9], #4
 80087ce:	685e      	ldr	r6, [r3, #4]
 80087d0:	0c09      	lsrs	r1, r1, #16
 80087d2:	b2b3      	uxth	r3, r6
 80087d4:	fb02 3301 	mla	r3, r2, r1, r3
 80087d8:	eb03 4118 	add.w	r1, r3, r8, lsr #16
 80087dc:	1d2b      	adds	r3, r5, #4
 80087de:	454c      	cmp	r4, r9
 80087e0:	ea4f 4811 	mov.w	r8, r1, lsr #16
 80087e4:	d8c8      	bhi.n	8008778 <__multiply+0x208>
 80087e6:	6029      	str	r1, [r5, #0]
 80087e8:	9a00      	ldr	r2, [sp, #0]
 80087ea:	3004      	adds	r0, #4
 80087ec:	42ba      	cmp	r2, r7
 80087ee:	f63f af0a 	bhi.w	8008606 <__multiply+0x96>
 80087f2:	9901      	ldr	r1, [sp, #4]
 80087f4:	2900      	cmp	r1, #0
 80087f6:	dd1a      	ble.n	800882e <__multiply+0x2be>
 80087f8:	9b02      	ldr	r3, [sp, #8]
 80087fa:	f853 0c04 	ldr.w	r0, [r3, #-4]
 80087fe:	3b04      	subs	r3, #4
 8008800:	b9a8      	cbnz	r0, 800882e <__multiply+0x2be>
 8008802:	9901      	ldr	r1, [sp, #4]
 8008804:	1e4a      	subs	r2, r1, #1
 8008806:	07d0      	lsls	r0, r2, #31
 8008808:	d517      	bpl.n	800883a <__multiply+0x2ca>
 800880a:	f853 0d04 	ldr.w	r0, [r3, #-4]!
 800880e:	9201      	str	r2, [sp, #4]
 8008810:	b968      	cbnz	r0, 800882e <__multiply+0x2be>
 8008812:	9a01      	ldr	r2, [sp, #4]
 8008814:	e008      	b.n	8008828 <__multiply+0x2b8>
 8008816:	f853 1c04 	ldr.w	r1, [r3, #-4]
 800881a:	3b04      	subs	r3, #4
 800881c:	b931      	cbnz	r1, 800882c <__multiply+0x2bc>
 800881e:	f853 0c04 	ldr.w	r0, [r3, #-4]
 8008822:	3a01      	subs	r2, #1
 8008824:	3b04      	subs	r3, #4
 8008826:	b908      	cbnz	r0, 800882c <__multiply+0x2bc>
 8008828:	3a01      	subs	r2, #1
 800882a:	d1f4      	bne.n	8008816 <__multiply+0x2a6>
 800882c:	9201      	str	r2, [sp, #4]
 800882e:	9901      	ldr	r1, [sp, #4]
 8008830:	9803      	ldr	r0, [sp, #12]
 8008832:	6101      	str	r1, [r0, #16]
 8008834:	b005      	add	sp, #20
 8008836:	e8bd 8ff0 	ldmia.w	sp!, {r4, r5, r6, r7, r8, r9, sl, fp, pc}
 800883a:	460a      	mov	r2, r1
 800883c:	e7f4      	b.n	8008828 <__multiply+0x2b8>
 800883e:	bf00      	nop

08008840 <__pow5mult>:
 8008840:	f012 0303 	ands.w	r3, r2, #3
 8008844:	e92d 41f0 	stmdb	sp!, {r4, r5, r6, r7, r8, lr}
 8008848:	4614      	mov	r4, r2
 800884a:	4680      	mov	r8, r0
 800884c:	460f      	mov	r7, r1
 800884e:	d12b      	bne.n	80088a8 <__pow5mult+0x68>
 8008850:	10a4      	asrs	r4, r4, #2
 8008852:	d01b      	beq.n	800888c <__pow5mult+0x4c>
 8008854:	f8d8 6048 	ldr.w	r6, [r8, #72]	; 0x48
 8008858:	b92e      	cbnz	r6, 8008866 <__pow5mult+0x26>
 800885a:	e02e      	b.n	80088ba <__pow5mult+0x7a>
 800885c:	1064      	asrs	r4, r4, #1
 800885e:	d015      	beq.n	800888c <__pow5mult+0x4c>
 8008860:	6835      	ldr	r5, [r6, #0]
 8008862:	b1b5      	cbz	r5, 8008892 <__pow5mult+0x52>
 8008864:	462e      	mov	r6, r5
 8008866:	07e3      	lsls	r3, r4, #31
 8008868:	d5f8      	bpl.n	800885c <__pow5mult+0x1c>
 800886a:	4639      	mov	r1, r7
 800886c:	4632      	mov	r2, r6
 800886e:	4640      	mov	r0, r8
 8008870:	f7ff fe7e 	bl	8008570 <__multiply>
 8008874:	b1b7      	cbz	r7, 80088a4 <__pow5mult+0x64>
 8008876:	687a      	ldr	r2, [r7, #4]
 8008878:	f8d8 304c 	ldr.w	r3, [r8, #76]	; 0x4c
 800887c:	f853 1022 	ldr.w	r1, [r3, r2, lsl #2]
 8008880:	1064      	asrs	r4, r4, #1
 8008882:	6039      	str	r1, [r7, #0]
 8008884:	f843 7022 	str.w	r7, [r3, r2, lsl #2]
 8008888:	4607      	mov	r7, r0
 800888a:	d1e9      	bne.n	8008860 <__pow5mult+0x20>
 800888c:	4638      	mov	r0, r7
 800888e:	e8bd 81f0 	ldmia.w	sp!, {r4, r5, r6, r7, r8, pc}
 8008892:	4631      	mov	r1, r6
 8008894:	4632      	mov	r2, r6
 8008896:	4640      	mov	r0, r8
 8008898:	f7ff fe6a 	bl	8008570 <__multiply>
 800889c:	6030      	str	r0, [r6, #0]
 800889e:	6005      	str	r5, [r0, #0]
 80088a0:	4606      	mov	r6, r0
 80088a2:	e7e0      	b.n	8008866 <__pow5mult+0x26>
 80088a4:	4607      	mov	r7, r0
 80088a6:	e7d9      	b.n	800885c <__pow5mult+0x1c>
 80088a8:	1e5d      	subs	r5, r3, #1
 80088aa:	4a09      	ldr	r2, [pc, #36]	; (80088d0 <__pow5mult+0x90>)
 80088ac:	2300      	movs	r3, #0
 80088ae:	f852 2025 	ldr.w	r2, [r2, r5, lsl #2]
 80088b2:	f7ff fceb 	bl	800828c <__multadd>
 80088b6:	4607      	mov	r7, r0
 80088b8:	e7ca      	b.n	8008850 <__pow5mult+0x10>
 80088ba:	4640      	mov	r0, r8
 80088bc:	f240 2171 	movw	r1, #625	; 0x271
 80088c0:	f7ff fe4c 	bl	800855c <__i2b>
 80088c4:	4606      	mov	r6, r0
 80088c6:	f8c8 0048 	str.w	r0, [r8, #72]	; 0x48
 80088ca:	2000      	movs	r0, #0
 80088cc:	6030      	str	r0, [r6, #0]
 80088ce:	e7ca      	b.n	8008866 <__pow5mult+0x26>
 80088d0:	0800e1f0 	.word	0x0800e1f0

080088d4 <__lshift>:
 80088d4:	e92d 4ff0 	stmdb	sp!, {r4, r5, r6, r7, r8, r9, sl, fp, lr}
 80088d8:	4617      	mov	r7, r2
 80088da:	690a      	ldr	r2, [r1, #16]
 80088dc:	688b      	ldr	r3, [r1, #8]
 80088de:	117e      	asrs	r6, r7, #5
 80088e0:	b083      	sub	sp, #12
 80088e2:	18b4      	adds	r4, r6, r2
 80088e4:	9401      	str	r4, [sp, #4]
 80088e6:	3401      	adds	r4, #1
 80088e8:	429c      	cmp	r4, r3
 80088ea:	460d      	mov	r5, r1
 80088ec:	4680      	mov	r8, r0
 80088ee:	6849      	ldr	r1, [r1, #4]
 80088f0:	dd03      	ble.n	80088fa <__lshift+0x26>
 80088f2:	005b      	lsls	r3, r3, #1
 80088f4:	3101      	adds	r1, #1
 80088f6:	429c      	cmp	r4, r3
 80088f8:	dcfb      	bgt.n	80088f2 <__lshift+0x1e>
 80088fa:	4640      	mov	r0, r8
 80088fc:	f7ff fc96 	bl	800822c <_Balloc>
 8008900:	2e00      	cmp	r6, #0
 8008902:	f100 0114 	add.w	r1, r0, #20
 8008906:	dd1f      	ble.n	8008948 <__lshift+0x74>
 8008908:	2301      	movs	r3, #1
 800890a:	1e72      	subs	r2, r6, #1
 800890c:	f04f 0c00 	mov.w	ip, #0
 8008910:	42b3      	cmp	r3, r6
 8008912:	f8c1 c000 	str.w	ip, [r1]
 8008916:	ea02 0103 	and.w	r1, r2, r3
 800891a:	f100 0218 	add.w	r2, r0, #24
 800891e:	d010      	beq.n	8008942 <__lshift+0x6e>
 8008920:	b131      	cbz	r1, 8008930 <__lshift+0x5c>
 8008922:	2302      	movs	r3, #2
 8008924:	42b3      	cmp	r3, r6
 8008926:	f8c2 c000 	str.w	ip, [r2]
 800892a:	f100 021c 	add.w	r2, r0, #28
 800892e:	d008      	beq.n	8008942 <__lshift+0x6e>
 8008930:	4611      	mov	r1, r2
 8008932:	3302      	adds	r3, #2
 8008934:	f841 cb04 	str.w	ip, [r1], #4
 8008938:	f8c2 c004 	str.w	ip, [r2, #4]
 800893c:	1d0a      	adds	r2, r1, #4
 800893e:	42b3      	cmp	r3, r6
 8008940:	d1f6      	bne.n	8008930 <__lshift+0x5c>
 8008942:	eb00 0183 	add.w	r1, r0, r3, lsl #2
 8008946:	3114      	adds	r1, #20
 8008948:	692e      	ldr	r6, [r5, #16]
 800894a:	eb05 0686 	add.w	r6, r5, r6, lsl #2
 800894e:	3614      	adds	r6, #20
 8008950:	f017 071f 	ands.w	r7, r7, #31
 8008954:	f105 0e14 	add.w	lr, r5, #20
 8008958:	9700      	str	r7, [sp, #0]
 800895a:	d05b      	beq.n	8008a14 <__lshift+0x140>
 800895c:	f8de 2000 	ldr.w	r2, [lr]
 8008960:	fa02 f207 	lsl.w	r2, r2, r7
 8008964:	f105 0318 	add.w	r3, r5, #24
 8008968:	f841 2b04 	str.w	r2, [r1], #4
 800896c:	ea6f 090e 	mvn.w	r9, lr
 8008970:	f853 2c04 	ldr.w	r2, [r3, #-4]
 8008974:	eb06 0a09 	add.w	sl, r6, r9
 8008978:	f1c7 0e20 	rsb	lr, r7, #32
 800897c:	429e      	cmp	r6, r3
 800897e:	f3ca 0a80 	ubfx	sl, sl, #2, #1
 8008982:	fa22 f90e 	lsr.w	r9, r2, lr
 8008986:	d931      	bls.n	80089ec <__lshift+0x118>
 8008988:	f1ba 0f00 	cmp.w	sl, #0
 800898c:	d00f      	beq.n	80089ae <__lshift+0xda>
 800898e:	681f      	ldr	r7, [r3, #0]
 8008990:	9b00      	ldr	r3, [sp, #0]
 8008992:	fa07 f703 	lsl.w	r7, r7, r3
 8008996:	ea49 0207 	orr.w	r2, r9, r7
 800899a:	f105 031c 	add.w	r3, r5, #28
 800899e:	f841 2b04 	str.w	r2, [r1], #4
 80089a2:	f853 7c04 	ldr.w	r7, [r3, #-4]
 80089a6:	429e      	cmp	r6, r3
 80089a8:	fa27 f90e 	lsr.w	r9, r7, lr
 80089ac:	d91e      	bls.n	80089ec <__lshift+0x118>
 80089ae:	681a      	ldr	r2, [r3, #0]
 80089b0:	f8dd b000 	ldr.w	fp, [sp]
 80089b4:	460f      	mov	r7, r1
 80089b6:	fa02 fc0b 	lsl.w	ip, r2, fp
 80089ba:	ea49 090c 	orr.w	r9, r9, ip
 80089be:	f847 9b04 	str.w	r9, [r7], #4
 80089c2:	461a      	mov	r2, r3
 80089c4:	f8d3 a004 	ldr.w	sl, [r3, #4]
 80089c8:	f852 3b04 	ldr.w	r3, [r2], #4
 80089cc:	fa0a fc0b 	lsl.w	ip, sl, fp
 80089d0:	fa23 fb0e 	lsr.w	fp, r3, lr
 80089d4:	ea4b 0a0c 	orr.w	sl, fp, ip
 80089d8:	4613      	mov	r3, r2
 80089da:	f8c1 a004 	str.w	sl, [r1, #4]
 80089de:	f853 9b04 	ldr.w	r9, [r3], #4
 80089e2:	1d39      	adds	r1, r7, #4
 80089e4:	429e      	cmp	r6, r3
 80089e6:	fa29 f90e 	lsr.w	r9, r9, lr
 80089ea:	d8e0      	bhi.n	80089ae <__lshift+0xda>
 80089ec:	f8c1 9000 	str.w	r9, [r1]
 80089f0:	f1b9 0f00 	cmp.w	r9, #0
 80089f4:	d001      	beq.n	80089fa <__lshift+0x126>
 80089f6:	9c01      	ldr	r4, [sp, #4]
 80089f8:	3402      	adds	r4, #2
 80089fa:	f8d8 304c 	ldr.w	r3, [r8, #76]	; 0x4c
 80089fe:	686a      	ldr	r2, [r5, #4]
 8008a00:	f853 1022 	ldr.w	r1, [r3, r2, lsl #2]
 8008a04:	3c01      	subs	r4, #1
 8008a06:	6104      	str	r4, [r0, #16]
 8008a08:	6029      	str	r1, [r5, #0]
 8008a0a:	f843 5022 	str.w	r5, [r3, r2, lsl #2]
 8008a0e:	b003      	add	sp, #12
 8008a10:	e8bd 8ff0 	ldmia.w	sp!, {r4, r5, r6, r7, r8, r9, sl, fp, pc}
 8008a14:	ea6f 030e 	mvn.w	r3, lr
 8008a18:	f8de 7000 	ldr.w	r7, [lr]
 8008a1c:	f105 0218 	add.w	r2, r5, #24
 8008a20:	18f3      	adds	r3, r6, r3
 8008a22:	4296      	cmp	r6, r2
 8008a24:	f841 7b04 	str.w	r7, [r1], #4
 8008a28:	f3c3 0380 	ubfx	r3, r3, #2, #1
 8008a2c:	d9e5      	bls.n	80089fa <__lshift+0x126>
 8008a2e:	b133      	cbz	r3, 8008a3e <__lshift+0x16a>
 8008a30:	6813      	ldr	r3, [r2, #0]
 8008a32:	f105 021c 	add.w	r2, r5, #28
 8008a36:	4296      	cmp	r6, r2
 8008a38:	f841 3b04 	str.w	r3, [r1], #4
 8008a3c:	d9dd      	bls.n	80089fa <__lshift+0x126>
 8008a3e:	4694      	mov	ip, r2
 8008a40:	460f      	mov	r7, r1
 8008a42:	f85c 3b04 	ldr.w	r3, [ip], #4
 8008a46:	f847 3b04 	str.w	r3, [r7], #4
 8008a4a:	6853      	ldr	r3, [r2, #4]
 8008a4c:	f10c 0204 	add.w	r2, ip, #4
 8008a50:	604b      	str	r3, [r1, #4]
 8008a52:	1d39      	adds	r1, r7, #4
 8008a54:	4296      	cmp	r6, r2
 8008a56:	d8f2      	bhi.n	8008a3e <__lshift+0x16a>
 8008a58:	e7cf      	b.n	80089fa <__lshift+0x126>
 8008a5a:	bf00      	nop

08008a5c <__mcmp>:
 8008a5c:	b4f0      	push	{r4, r5, r6, r7}
 8008a5e:	690b      	ldr	r3, [r1, #16]
 8008a60:	4605      	mov	r5, r0
 8008a62:	6900      	ldr	r0, [r0, #16]
 8008a64:	1ac0      	subs	r0, r0, r3
 8008a66:	d124      	bne.n	8008ab2 <__mcmp+0x56>
 8008a68:	1d1a      	adds	r2, r3, #4
 8008a6a:	0094      	lsls	r4, r2, #2
 8008a6c:	192b      	adds	r3, r5, r4
 8008a6e:	1d1e      	adds	r6, r3, #4
 8008a70:	1909      	adds	r1, r1, r4
 8008a72:	3514      	adds	r5, #20
 8008a74:	f856 4c04 	ldr.w	r4, [r6, #-4]
 8008a78:	680a      	ldr	r2, [r1, #0]
 8008a7a:	43ef      	mvns	r7, r5
 8008a7c:	19be      	adds	r6, r7, r6
 8008a7e:	4294      	cmp	r4, r2
 8008a80:	f3c6 0680 	ubfx	r6, r6, #2, #1
 8008a84:	d110      	bne.n	8008aa8 <__mcmp+0x4c>
 8008a86:	429d      	cmp	r5, r3
 8008a88:	d213      	bcs.n	8008ab2 <__mcmp+0x56>
 8008a8a:	b13e      	cbz	r6, 8008a9c <__mcmp+0x40>
 8008a8c:	f853 4d04 	ldr.w	r4, [r3, #-4]!
 8008a90:	f851 2d04 	ldr.w	r2, [r1, #-4]!
 8008a94:	4294      	cmp	r4, r2
 8008a96:	d107      	bne.n	8008aa8 <__mcmp+0x4c>
 8008a98:	429d      	cmp	r5, r3
 8008a9a:	d20a      	bcs.n	8008ab2 <__mcmp+0x56>
 8008a9c:	f853 4d04 	ldr.w	r4, [r3, #-4]!
 8008aa0:	f851 2d04 	ldr.w	r2, [r1, #-4]!
 8008aa4:	4294      	cmp	r4, r2
 8008aa6:	d0f1      	beq.n	8008a8c <__mcmp+0x30>
 8008aa8:	42a2      	cmp	r2, r4
 8008aaa:	bf94      	ite	ls
 8008aac:	2001      	movls	r0, #1
 8008aae:	f04f 30ff 	movhi.w	r0, #4294967295
 8008ab2:	bcf0      	pop	{r4, r5, r6, r7}
 8008ab4:	4770      	bx	lr
 8008ab6:	bf00      	nop

08008ab8 <__mdiff>:
 8008ab8:	e92d 4ff8 	stmdb	sp!, {r3, r4, r5, r6, r7, r8, r9, sl, fp, lr}
 8008abc:	460f      	mov	r7, r1
 8008abe:	4605      	mov	r5, r0
 8008ac0:	4611      	mov	r1, r2
 8008ac2:	4638      	mov	r0, r7
 8008ac4:	4693      	mov	fp, r2
 8008ac6:	f7ff ffc9 	bl	8008a5c <__mcmp>
 8008aca:	1e04      	subs	r4, r0, #0
 8008acc:	f000 80f1 	beq.w	8008cb2 <__mdiff+0x1fa>
 8008ad0:	f2c0 80ea 	blt.w	8008ca8 <__mdiff+0x1f0>
 8008ad4:	2400      	movs	r4, #0
 8008ad6:	4628      	mov	r0, r5
 8008ad8:	6879      	ldr	r1, [r7, #4]
 8008ada:	f7ff fba7 	bl	800822c <_Balloc>
 8008ade:	f8db 6014 	ldr.w	r6, [fp, #20]
 8008ae2:	697a      	ldr	r2, [r7, #20]
 8008ae4:	f8db 5010 	ldr.w	r5, [fp, #16]
 8008ae8:	60c4      	str	r4, [r0, #12]
 8008aea:	fa1f fc82 	uxth.w	ip, r2
 8008aee:	ea4f 4a16 	mov.w	sl, r6, lsr #16
 8008af2:	b2b4      	uxth	r4, r6
 8008af4:	ebc4 060c 	rsb	r6, r4, ip
 8008af8:	693b      	ldr	r3, [r7, #16]
 8008afa:	eb0b 0585 	add.w	r5, fp, r5, lsl #2
 8008afe:	ebca 4212 	rsb	r2, sl, r2, lsr #16
 8008b02:	f10b 0114 	add.w	r1, fp, #20
 8008b06:	eb02 4a26 	add.w	sl, r2, r6, asr #16
 8008b0a:	f105 0814 	add.w	r8, r5, #20
 8008b0e:	43c9      	mvns	r1, r1
 8008b10:	b2b4      	uxth	r4, r6
 8008b12:	f10b 0618 	add.w	r6, fp, #24
 8008b16:	eb08 0201 	add.w	r2, r8, r1
 8008b1a:	ea44 440a 	orr.w	r4, r4, sl, lsl #16
 8008b1e:	eb07 0983 	add.w	r9, r7, r3, lsl #2
 8008b22:	f100 0518 	add.w	r5, r0, #24
 8008b26:	45b0      	cmp	r8, r6
 8008b28:	f3c2 0180 	ubfx	r1, r2, #2, #1
 8008b2c:	6144      	str	r4, [r0, #20]
 8008b2e:	f109 0914 	add.w	r9, r9, #20
 8008b32:	f107 0c18 	add.w	ip, r7, #24
 8008b36:	ea4f 4a2a 	mov.w	sl, sl, asr #16
 8008b3a:	462a      	mov	r2, r5
 8008b3c:	d952      	bls.n	8008be4 <__mdiff+0x12c>
 8008b3e:	b1d9      	cbz	r1, 8008b78 <__mdiff+0xc0>
 8008b40:	f8dc 2000 	ldr.w	r2, [ip]
 8008b44:	6836      	ldr	r6, [r6, #0]
 8008b46:	fa1a fe82 	uxtah	lr, sl, r2
 8008b4a:	0c31      	lsrs	r1, r6, #16
 8008b4c:	b2b4      	uxth	r4, r6
 8008b4e:	ebc4 060e 	rsb	r6, r4, lr
 8008b52:	ebc1 4c12 	rsb	ip, r1, r2, lsr #16
 8008b56:	eb0c 4a26 	add.w	sl, ip, r6, asr #16
 8008b5a:	b2b2      	uxth	r2, r6
 8008b5c:	ea42 440a 	orr.w	r4, r2, sl, lsl #16
 8008b60:	f10b 061c 	add.w	r6, fp, #28
 8008b64:	602c      	str	r4, [r5, #0]
 8008b66:	45b0      	cmp	r8, r6
 8008b68:	f100 051c 	add.w	r5, r0, #28
 8008b6c:	f107 0c1c 	add.w	ip, r7, #28
 8008b70:	ea4f 4a2a 	mov.w	sl, sl, asr #16
 8008b74:	462a      	mov	r2, r5
 8008b76:	d935      	bls.n	8008be4 <__mdiff+0x12c>
 8008b78:	4662      	mov	r2, ip
 8008b7a:	4637      	mov	r7, r6
 8008b7c:	f852 1b04 	ldr.w	r1, [r2], #4
 8008b80:	f857 4b04 	ldr.w	r4, [r7], #4
 8008b84:	fa1a fe81 	uxtah	lr, sl, r1
 8008b88:	fa1f fb84 	uxth.w	fp, r4
 8008b8c:	0c24      	lsrs	r4, r4, #16
 8008b8e:	ebcb 0a0e 	rsb	sl, fp, lr
 8008b92:	ebc4 4111 	rsb	r1, r4, r1, lsr #16
 8008b96:	eb01 442a 	add.w	r4, r1, sl, asr #16
 8008b9a:	fa1f fe8a 	uxth.w	lr, sl
 8008b9e:	4629      	mov	r1, r5
 8008ba0:	ea4e 4b04 	orr.w	fp, lr, r4, lsl #16
 8008ba4:	f841 bb04 	str.w	fp, [r1], #4
 8008ba8:	f8dc c004 	ldr.w	ip, [ip, #4]
 8008bac:	6876      	ldr	r6, [r6, #4]
 8008bae:	fa1f fa8c 	uxth.w	sl, ip
 8008bb2:	eb0a 4424 	add.w	r4, sl, r4, asr #16
 8008bb6:	fa1f fb86 	uxth.w	fp, r6
 8008bba:	ea4f 4616 	mov.w	r6, r6, lsr #16
 8008bbe:	ebcb 0404 	rsb	r4, fp, r4
 8008bc2:	ebc6 4e1c 	rsb	lr, r6, ip, lsr #16
 8008bc6:	eb0e 4a24 	add.w	sl, lr, r4, asr #16
 8008bca:	b2a6      	uxth	r6, r4
 8008bcc:	ea46 440a 	orr.w	r4, r6, sl, lsl #16
 8008bd0:	1d3e      	adds	r6, r7, #4
 8008bd2:	606c      	str	r4, [r5, #4]
 8008bd4:	1d0d      	adds	r5, r1, #4
 8008bd6:	45b0      	cmp	r8, r6
 8008bd8:	f102 0c04 	add.w	ip, r2, #4
 8008bdc:	ea4f 4a2a 	mov.w	sl, sl, asr #16
 8008be0:	462a      	mov	r2, r5
 8008be2:	d8c9      	bhi.n	8008b78 <__mdiff+0xc0>
 8008be4:	45e1      	cmp	r9, ip
 8008be6:	d955      	bls.n	8008c94 <__mdiff+0x1dc>
 8008be8:	4662      	mov	r2, ip
 8008bea:	ea6f 040c 	mvn.w	r4, ip
 8008bee:	f852 1b04 	ldr.w	r1, [r2], #4
 8008bf2:	fa1a fe81 	uxtah	lr, sl, r1
 8008bf6:	ea4f 4811 	mov.w	r8, r1, lsr #16
 8008bfa:	eb08 482e 	add.w	r8, r8, lr, asr #16
 8008bfe:	fa1f fa8e 	uxth.w	sl, lr
 8008c02:	4629      	mov	r1, r5
 8008c04:	eb09 0604 	add.w	r6, r9, r4
 8008c08:	4591      	cmp	r9, r2
 8008c0a:	ea4a 4408 	orr.w	r4, sl, r8, lsl #16
 8008c0e:	f841 4b04 	str.w	r4, [r1], #4
 8008c12:	f3c6 0680 	ubfx	r6, r6, #2, #1
 8008c16:	ea4f 4828 	mov.w	r8, r8, asr #16
 8008c1a:	d933      	bls.n	8008c84 <__mdiff+0x1cc>
 8008c1c:	b186      	cbz	r6, 8008c40 <__mdiff+0x188>
 8008c1e:	f852 4b04 	ldr.w	r4, [r2], #4
 8008c22:	fa18 fe84 	uxtah	lr, r8, r4
 8008c26:	0c26      	lsrs	r6, r4, #16
 8008c28:	eb06 462e 	add.w	r6, r6, lr, asr #16
 8008c2c:	fa1f f88e 	uxth.w	r8, lr
 8008c30:	ea48 4406 	orr.w	r4, r8, r6, lsl #16
 8008c34:	4591      	cmp	r9, r2
 8008c36:	f841 4b04 	str.w	r4, [r1], #4
 8008c3a:	ea4f 4826 	mov.w	r8, r6, asr #16
 8008c3e:	d921      	bls.n	8008c84 <__mdiff+0x1cc>
 8008c40:	4617      	mov	r7, r2
 8008c42:	460e      	mov	r6, r1
 8008c44:	f857 4b04 	ldr.w	r4, [r7], #4
 8008c48:	fa18 fe84 	uxtah	lr, r8, r4
 8008c4c:	0c24      	lsrs	r4, r4, #16
 8008c4e:	eb04 442e 	add.w	r4, r4, lr, asr #16
 8008c52:	fa1f f88e 	uxth.w	r8, lr
 8008c56:	ea48 4e04 	orr.w	lr, r8, r4, lsl #16
 8008c5a:	f846 eb04 	str.w	lr, [r6], #4
 8008c5e:	6852      	ldr	r2, [r2, #4]
 8008c60:	fa1f f882 	uxth.w	r8, r2
 8008c64:	eb08 4424 	add.w	r4, r8, r4, asr #16
 8008c68:	ea4f 4212 	mov.w	r2, r2, lsr #16
 8008c6c:	eb02 4e24 	add.w	lr, r2, r4, asr #16
 8008c70:	b2a4      	uxth	r4, r4
 8008c72:	ea44 440e 	orr.w	r4, r4, lr, lsl #16
 8008c76:	1d3a      	adds	r2, r7, #4
 8008c78:	604c      	str	r4, [r1, #4]
 8008c7a:	1d31      	adds	r1, r6, #4
 8008c7c:	4591      	cmp	r9, r2
 8008c7e:	ea4f 482e 	mov.w	r8, lr, asr #16
 8008c82:	d8dd      	bhi.n	8008c40 <__mdiff+0x188>
 8008c84:	ea6f 010c 	mvn.w	r1, ip
 8008c88:	eb01 0209 	add.w	r2, r1, r9
 8008c8c:	f022 0103 	bic.w	r1, r2, #3
 8008c90:	1d0a      	adds	r2, r1, #4
 8008c92:	18aa      	adds	r2, r5, r2
 8008c94:	3a04      	subs	r2, #4
 8008c96:	b924      	cbnz	r4, 8008ca2 <__mdiff+0x1ea>
 8008c98:	f852 1d04 	ldr.w	r1, [r2, #-4]!
 8008c9c:	3b01      	subs	r3, #1
 8008c9e:	2900      	cmp	r1, #0
 8008ca0:	d0fa      	beq.n	8008c98 <__mdiff+0x1e0>
 8008ca2:	6103      	str	r3, [r0, #16]
 8008ca4:	e8bd 8ff8 	ldmia.w	sp!, {r3, r4, r5, r6, r7, r8, r9, sl, fp, pc}
 8008ca8:	463b      	mov	r3, r7
 8008caa:	2401      	movs	r4, #1
 8008cac:	465f      	mov	r7, fp
 8008cae:	469b      	mov	fp, r3
 8008cb0:	e711      	b.n	8008ad6 <__mdiff+0x1e>
 8008cb2:	4628      	mov	r0, r5
 8008cb4:	4621      	mov	r1, r4
 8008cb6:	f7ff fab9 	bl	800822c <_Balloc>
 8008cba:	2201      	movs	r2, #1
 8008cbc:	6102      	str	r2, [r0, #16]
 8008cbe:	6144      	str	r4, [r0, #20]
 8008cc0:	e8bd 8ff8 	ldmia.w	sp!, {r3, r4, r5, r6, r7, r8, r9, sl, fp, pc}

08008cc4 <__ulp>:
 8008cc4:	ec53 2b10 	vmov	r2, r3, d0
 8008cc8:	f023 4300 	bic.w	r3, r3, #2147483648	; 0x80000000
 8008ccc:	0d18      	lsrs	r0, r3, #20
 8008cce:	0501      	lsls	r1, r0, #20
 8008cd0:	f1a1 7250 	sub.w	r2, r1, #54525952	; 0x3400000
 8008cd4:	2a00      	cmp	r2, #0
 8008cd6:	dd04      	ble.n	8008ce2 <__ulp+0x1e>
 8008cd8:	4613      	mov	r3, r2
 8008cda:	2200      	movs	r2, #0
 8008cdc:	ec43 2b10 	vmov	d0, r2, r3
 8008ce0:	4770      	bx	lr
 8008ce2:	4253      	negs	r3, r2
 8008ce4:	1519      	asrs	r1, r3, #20
 8008ce6:	2300      	movs	r3, #0
 8008ce8:	2913      	cmp	r1, #19
 8008cea:	dd0c      	ble.n	8008d06 <__ulp+0x42>
 8008cec:	2932      	cmp	r1, #50	; 0x32
 8008cee:	dd04      	ble.n	8008cfa <__ulp+0x36>
 8008cf0:	2001      	movs	r0, #1
 8008cf2:	4602      	mov	r2, r0
 8008cf4:	ec43 2b10 	vmov	d0, r2, r3
 8008cf8:	4770      	bx	lr
 8008cfa:	f1c1 0233 	rsb	r2, r1, #51	; 0x33
 8008cfe:	2101      	movs	r1, #1
 8008d00:	fa01 f002 	lsl.w	r0, r1, r2
 8008d04:	e7f5      	b.n	8008cf2 <__ulp+0x2e>
 8008d06:	f44f 2300 	mov.w	r3, #524288	; 0x80000
 8008d0a:	fa43 f301 	asr.w	r3, r3, r1
 8008d0e:	2200      	movs	r2, #0
 8008d10:	ec43 2b10 	vmov	d0, r2, r3
 8008d14:	4770      	bx	lr
 8008d16:	bf00      	nop

08008d18 <__b2d>:
 8008d18:	e92d 41f0 	stmdb	sp!, {r4, r5, r6, r7, r8, lr}
 8008d1c:	6906      	ldr	r6, [r0, #16]
 8008d1e:	4688      	mov	r8, r1
 8008d20:	1d31      	adds	r1, r6, #4
 8008d22:	eb00 0681 	add.w	r6, r0, r1, lsl #2
 8008d26:	4634      	mov	r4, r6
 8008d28:	f100 0714 	add.w	r7, r0, #20
 8008d2c:	f854 5b04 	ldr.w	r5, [r4], #4
 8008d30:	4628      	mov	r0, r5
 8008d32:	f7ff fbc7 	bl	80084c4 <__hi0bits>
 8008d36:	f1c0 0320 	rsb	r3, r0, #32
 8008d3a:	280a      	cmp	r0, #10
 8008d3c:	f8c8 3000 	str.w	r3, [r8]
 8008d40:	4632      	mov	r2, r6
 8008d42:	dc18      	bgt.n	8008d76 <__b2d+0x5e>
 8008d44:	42b7      	cmp	r7, r6
 8008d46:	bf38      	it	cc
 8008d48:	f854 4c08 	ldrcc.w	r4, [r4, #-8]
 8008d4c:	f1c0 010b 	rsb	r1, r0, #11
 8008d50:	fa25 f301 	lsr.w	r3, r5, r1
 8008d54:	bf34      	ite	cc
 8008d56:	fa24 f101 	lsrcc.w	r1, r4, r1
 8008d5a:	2100      	movcs	r1, #0
 8008d5c:	3015      	adds	r0, #21
 8008d5e:	f043 527f 	orr.w	r2, r3, #1069547520	; 0x3fc00000
 8008d62:	fa05 f500 	lsl.w	r5, r5, r0
 8008d66:	f442 1340 	orr.w	r3, r2, #3145728	; 0x300000
 8008d6a:	ea41 0205 	orr.w	r2, r1, r5
 8008d6e:	ec43 2b10 	vmov	d0, r2, r3
 8008d72:	e8bd 81f0 	ldmia.w	sp!, {r4, r5, r6, r7, r8, pc}
 8008d76:	42b7      	cmp	r7, r6
 8008d78:	d320      	bcc.n	8008dbc <__b2d+0xa4>
 8008d7a:	2400      	movs	r4, #0
 8008d7c:	f1b0 060b 	subs.w	r6, r0, #11
 8008d80:	d022      	beq.n	8008dc8 <__b2d+0xb0>
 8008d82:	42ba      	cmp	r2, r7
 8008d84:	bf88      	it	hi
 8008d86:	f852 2c04 	ldrhi.w	r2, [r2, #-4]
 8008d8a:	fa05 f506 	lsl.w	r5, r5, r6
 8008d8e:	f1c0 002b 	rsb	r0, r0, #43	; 0x2b
 8008d92:	f045 557f 	orr.w	r5, r5, #1069547520	; 0x3fc00000
 8008d96:	fa24 fc00 	lsr.w	ip, r4, r0
 8008d9a:	f445 1540 	orr.w	r5, r5, #3145728	; 0x300000
 8008d9e:	bf88      	it	hi
 8008da0:	fa22 f000 	lsrhi.w	r0, r2, r0
 8008da4:	fa04 f406 	lsl.w	r4, r4, r6
 8008da8:	bf98      	it	ls
 8008daa:	2000      	movls	r0, #0
 8008dac:	ea45 030c 	orr.w	r3, r5, ip
 8008db0:	ea40 0204 	orr.w	r2, r0, r4
 8008db4:	ec43 2b10 	vmov	d0, r2, r3
 8008db8:	e8bd 81f0 	ldmia.w	sp!, {r4, r5, r6, r7, r8, pc}
 8008dbc:	1f32      	subs	r2, r6, #4
 8008dbe:	f1b0 060b 	subs.w	r6, r0, #11
 8008dc2:	f854 4c08 	ldr.w	r4, [r4, #-8]
 8008dc6:	d1dc      	bne.n	8008d82 <__b2d+0x6a>
 8008dc8:	f045 557f 	orr.w	r5, r5, #1069547520	; 0x3fc00000
 8008dcc:	f445 1340 	orr.w	r3, r5, #3145728	; 0x300000
 8008dd0:	4622      	mov	r2, r4
 8008dd2:	ec43 2b10 	vmov	d0, r2, r3
 8008dd6:	e8bd 81f0 	ldmia.w	sp!, {r4, r5, r6, r7, r8, pc}
 8008dda:	bf00      	nop

08008ddc <__d2b>:
 8008ddc:	e92d 43f0 	stmdb	sp!, {r4, r5, r6, r7, r8, r9, lr}
 8008de0:	4689      	mov	r9, r1
 8008de2:	b083      	sub	sp, #12
 8008de4:	2101      	movs	r1, #1
 8008de6:	ec55 4b10 	vmov	r4, r5, d0
 8008dea:	4690      	mov	r8, r2
 8008dec:	f7ff fa1e 	bl	800822c <_Balloc>
 8008df0:	f3c5 570a 	ubfx	r7, r5, #20, #11
 8008df4:	f025 437f 	bic.w	r3, r5, #4278190080	; 0xff000000
 8008df8:	4606      	mov	r6, r0
 8008dfa:	f423 0070 	bic.w	r0, r3, #15728640	; 0xf00000
 8008dfe:	b10f      	cbz	r7, 8008e04 <__d2b+0x28>
 8008e00:	f440 1080 	orr.w	r0, r0, #1048576	; 0x100000
 8008e04:	9001      	str	r0, [sp, #4]
 8008e06:	2c00      	cmp	r4, #0
 8008e08:	d022      	beq.n	8008e50 <__d2b+0x74>
 8008e0a:	aa02      	add	r2, sp, #8
 8008e0c:	4668      	mov	r0, sp
 8008e0e:	f842 4d08 	str.w	r4, [r2, #-8]!
 8008e12:	f7ff fb75 	bl	8008500 <__lo0bits>
 8008e16:	9b01      	ldr	r3, [sp, #4]
 8008e18:	2800      	cmp	r0, #0
 8008e1a:	d12d      	bne.n	8008e78 <__d2b+0x9c>
 8008e1c:	9c00      	ldr	r4, [sp, #0]
 8008e1e:	6174      	str	r4, [r6, #20]
 8008e20:	2b00      	cmp	r3, #0
 8008e22:	bf0c      	ite	eq
 8008e24:	2401      	moveq	r4, #1
 8008e26:	2402      	movne	r4, #2
 8008e28:	61b3      	str	r3, [r6, #24]
 8008e2a:	6134      	str	r4, [r6, #16]
 8008e2c:	b9d7      	cbnz	r7, 8008e64 <__d2b+0x88>
 8008e2e:	eb06 0284 	add.w	r2, r6, r4, lsl #2
 8008e32:	f2a0 4332 	subw	r3, r0, #1074	; 0x432
 8008e36:	6910      	ldr	r0, [r2, #16]
 8008e38:	f8c9 3000 	str.w	r3, [r9]
 8008e3c:	f7ff fb42 	bl	80084c4 <__hi0bits>
 8008e40:	ebc0 1044 	rsb	r0, r0, r4, lsl #5
 8008e44:	f8c8 0000 	str.w	r0, [r8]
 8008e48:	4630      	mov	r0, r6
 8008e4a:	b003      	add	sp, #12
 8008e4c:	e8bd 83f0 	ldmia.w	sp!, {r4, r5, r6, r7, r8, r9, pc}
 8008e50:	a801      	add	r0, sp, #4
 8008e52:	f7ff fb55 	bl	8008500 <__lo0bits>
 8008e56:	9901      	ldr	r1, [sp, #4]
 8008e58:	2401      	movs	r4, #1
 8008e5a:	6171      	str	r1, [r6, #20]
 8008e5c:	6134      	str	r4, [r6, #16]
 8008e5e:	3020      	adds	r0, #32
 8008e60:	2f00      	cmp	r7, #0
 8008e62:	d0e4      	beq.n	8008e2e <__d2b+0x52>
 8008e64:	f2a7 4733 	subw	r7, r7, #1075	; 0x433
 8008e68:	183f      	adds	r7, r7, r0
 8008e6a:	f1c0 0135 	rsb	r1, r0, #53	; 0x35
 8008e6e:	f8c9 7000 	str.w	r7, [r9]
 8008e72:	f8c8 1000 	str.w	r1, [r8]
 8008e76:	e7e7      	b.n	8008e48 <__d2b+0x6c>
 8008e78:	f1c0 0120 	rsb	r1, r0, #32
 8008e7c:	9a00      	ldr	r2, [sp, #0]
 8008e7e:	fa03 f401 	lsl.w	r4, r3, r1
 8008e82:	ea44 0102 	orr.w	r1, r4, r2
 8008e86:	fa23 f300 	lsr.w	r3, r3, r0
 8008e8a:	6171      	str	r1, [r6, #20]
 8008e8c:	9301      	str	r3, [sp, #4]
 8008e8e:	e7c7      	b.n	8008e20 <__d2b+0x44>

08008e90 <__ratio>:
 8008e90:	b5f0      	push	{r4, r5, r6, r7, lr}
 8008e92:	b083      	sub	sp, #12
 8008e94:	460e      	mov	r6, r1
 8008e96:	4669      	mov	r1, sp
 8008e98:	4607      	mov	r7, r0
 8008e9a:	f7ff ff3d 	bl	8008d18 <__b2d>
 8008e9e:	4630      	mov	r0, r6
 8008ea0:	a901      	add	r1, sp, #4
 8008ea2:	ec55 4b10 	vmov	r4, r5, d0
 8008ea6:	f7ff ff37 	bl	8008d18 <__b2d>
 8008eaa:	e89d 0003 	ldmia.w	sp, {r0, r1}
 8008eae:	693f      	ldr	r7, [r7, #16]
 8008eb0:	6936      	ldr	r6, [r6, #16]
 8008eb2:	1a41      	subs	r1, r0, r1
 8008eb4:	ebc6 0e07 	rsb	lr, r6, r7
 8008eb8:	ec53 2b10 	vmov	r2, r3, d0
 8008ebc:	eb01 1c4e 	add.w	ip, r1, lr, lsl #5
 8008ec0:	f1bc 0f00 	cmp.w	ip, #0
 8008ec4:	4620      	mov	r0, r4
 8008ec6:	ee10 6a10 	vmov	r6, s0
 8008eca:	461f      	mov	r7, r3
 8008ecc:	dd0a      	ble.n	8008ee4 <__ratio+0x54>
 8008ece:	eb05 550c 	add.w	r5, r5, ip, lsl #20
 8008ed2:	4604      	mov	r4, r0
 8008ed4:	4620      	mov	r0, r4
 8008ed6:	4629      	mov	r1, r5
 8008ed8:	f7f9 fa80 	bl	80023dc <__aeabi_ddiv>
 8008edc:	ec41 0b10 	vmov	d0, r0, r1
 8008ee0:	b003      	add	sp, #12
 8008ee2:	bdf0      	pop	{r4, r5, r6, r7, pc}
 8008ee4:	eba3 570c 	sub.w	r7, r3, ip, lsl #20
 8008ee8:	463b      	mov	r3, r7
 8008eea:	e7f3      	b.n	8008ed4 <__ratio+0x44>

08008eec <_mprec_log10>:
 8008eec:	2817      	cmp	r0, #23
 8008eee:	b538      	push	{r3, r4, r5, lr}
 8008ef0:	dd27      	ble.n	8008f42 <_mprec_log10+0x56>
 8008ef2:	2100      	movs	r1, #0
 8008ef4:	2300      	movs	r3, #0
 8008ef6:	1e45      	subs	r5, r0, #1
 8008ef8:	2200      	movs	r2, #0
 8008efa:	f2c4 0324 	movt	r3, #16420	; 0x4024
 8008efe:	2000      	movs	r0, #0
 8008f00:	f6c3 71f0 	movt	r1, #16368	; 0x3ff0
 8008f04:	f7f9 f940 	bl	8002188 <__aeabi_dmul>
 8008f08:	462c      	mov	r4, r5
 8008f0a:	4602      	mov	r2, r0
 8008f0c:	460b      	mov	r3, r1
 8008f0e:	f005 0501 	and.w	r5, r5, #1
 8008f12:	b19c      	cbz	r4, 8008f3c <_mprec_log10+0x50>
 8008f14:	b965      	cbnz	r5, 8008f30 <_mprec_log10+0x44>
 8008f16:	4619      	mov	r1, r3
 8008f18:	2300      	movs	r3, #0
 8008f1a:	4610      	mov	r0, r2
 8008f1c:	f2c4 0324 	movt	r3, #16420	; 0x4024
 8008f20:	2200      	movs	r2, #0
 8008f22:	f7f9 f931 	bl	8002188 <__aeabi_dmul>
 8008f26:	2300      	movs	r3, #0
 8008f28:	3c01      	subs	r4, #1
 8008f2a:	2200      	movs	r2, #0
 8008f2c:	f2c4 0324 	movt	r3, #16420	; 0x4024
 8008f30:	f7f9 f92a 	bl	8002188 <__aeabi_dmul>
 8008f34:	3c01      	subs	r4, #1
 8008f36:	4602      	mov	r2, r0
 8008f38:	460b      	mov	r3, r1
 8008f3a:	d1ec      	bne.n	8008f16 <_mprec_log10+0x2a>
 8008f3c:	ec43 2b10 	vmov	d0, r2, r3
 8008f40:	bd38      	pop	{r3, r4, r5, pc}
 8008f42:	4b04      	ldr	r3, [pc, #16]	; (8008f54 <_mprec_log10+0x68>)
 8008f44:	eb03 00c0 	add.w	r0, r3, r0, lsl #3
 8008f48:	e9d0 2300 	ldrd	r2, r3, [r0]
 8008f4c:	ec43 2b10 	vmov	d0, r2, r3
 8008f50:	bd38      	pop	{r3, r4, r5, pc}
 8008f52:	bf00      	nop
 8008f54:	0800e200 	.word	0x0800e200

08008f58 <__copybits>:
 8008f58:	b4f0      	push	{r4, r5, r6, r7}
 8008f5a:	6916      	ldr	r6, [r2, #16]
 8008f5c:	4694      	mov	ip, r2
 8008f5e:	3901      	subs	r1, #1
 8008f60:	eb02 0686 	add.w	r6, r2, r6, lsl #2
 8008f64:	114f      	asrs	r7, r1, #5
 8008f66:	f10c 0314 	add.w	r3, ip, #20
 8008f6a:	3614      	adds	r6, #20
 8008f6c:	1c7a      	adds	r2, r7, #1
 8008f6e:	42b3      	cmp	r3, r6
 8008f70:	eb00 0782 	add.w	r7, r0, r2, lsl #2
 8008f74:	d227      	bcs.n	8008fc6 <__copybits+0x6e>
 8008f76:	43da      	mvns	r2, r3
 8008f78:	f8dc 4014 	ldr.w	r4, [ip, #20]
 8008f7c:	4601      	mov	r1, r0
 8008f7e:	f10c 0318 	add.w	r3, ip, #24
 8008f82:	18b2      	adds	r2, r6, r2
 8008f84:	429e      	cmp	r6, r3
 8008f86:	f841 4b04 	str.w	r4, [r1], #4
 8008f8a:	f3c2 0280 	ubfx	r2, r2, #2, #1
 8008f8e:	d913      	bls.n	8008fb8 <__copybits+0x60>
 8008f90:	b132      	cbz	r2, 8008fa0 <__copybits+0x48>
 8008f92:	681a      	ldr	r2, [r3, #0]
 8008f94:	f10c 031c 	add.w	r3, ip, #28
 8008f98:	429e      	cmp	r6, r3
 8008f9a:	f841 2b04 	str.w	r2, [r1], #4
 8008f9e:	d90b      	bls.n	8008fb8 <__copybits+0x60>
 8008fa0:	461d      	mov	r5, r3
 8008fa2:	460c      	mov	r4, r1
 8008fa4:	f855 2b04 	ldr.w	r2, [r5], #4
 8008fa8:	f844 2b04 	str.w	r2, [r4], #4
 8008fac:	685b      	ldr	r3, [r3, #4]
 8008fae:	604b      	str	r3, [r1, #4]
 8008fb0:	1d2b      	adds	r3, r5, #4
 8008fb2:	1d21      	adds	r1, r4, #4
 8008fb4:	429e      	cmp	r6, r3
 8008fb6:	d8f3      	bhi.n	8008fa0 <__copybits+0x48>
 8008fb8:	ebcc 0106 	rsb	r1, ip, r6
 8008fbc:	3915      	subs	r1, #21
 8008fbe:	f021 0203 	bic.w	r2, r1, #3
 8008fc2:	1d13      	adds	r3, r2, #4
 8008fc4:	18c0      	adds	r0, r0, r3
 8008fc6:	4287      	cmp	r7, r0
 8008fc8:	d915      	bls.n	8008ff6 <__copybits+0x9e>
 8008fca:	4603      	mov	r3, r0
 8008fcc:	2100      	movs	r1, #0
 8008fce:	f843 1b04 	str.w	r1, [r3], #4
 8008fd2:	43c0      	mvns	r0, r0
 8008fd4:	183a      	adds	r2, r7, r0
 8008fd6:	429f      	cmp	r7, r3
 8008fd8:	f3c2 0080 	ubfx	r0, r2, #2, #1
 8008fdc:	d90b      	bls.n	8008ff6 <__copybits+0x9e>
 8008fde:	b118      	cbz	r0, 8008fe8 <__copybits+0x90>
 8008fe0:	f843 1b04 	str.w	r1, [r3], #4
 8008fe4:	429f      	cmp	r7, r3
 8008fe6:	d906      	bls.n	8008ff6 <__copybits+0x9e>
 8008fe8:	461a      	mov	r2, r3
 8008fea:	f842 1b04 	str.w	r1, [r2], #4
 8008fee:	6059      	str	r1, [r3, #4]
 8008ff0:	1d13      	adds	r3, r2, #4
 8008ff2:	429f      	cmp	r7, r3
 8008ff4:	d8f8      	bhi.n	8008fe8 <__copybits+0x90>
 8008ff6:	bcf0      	pop	{r4, r5, r6, r7}
 8008ff8:	4770      	bx	lr
 8008ffa:	bf00      	nop

08008ffc <__any_on>:
 8008ffc:	b430      	push	{r4, r5}
 8008ffe:	6904      	ldr	r4, [r0, #16]
 8009000:	114a      	asrs	r2, r1, #5
 8009002:	4294      	cmp	r4, r2
 8009004:	f100 0314 	add.w	r3, r0, #20
 8009008:	da22      	bge.n	8009050 <__any_on+0x54>
 800900a:	4622      	mov	r2, r4
 800900c:	3204      	adds	r2, #4
 800900e:	eb00 0082 	add.w	r0, r0, r2, lsl #2
 8009012:	1d01      	adds	r1, r0, #4
 8009014:	428b      	cmp	r3, r1
 8009016:	d229      	bcs.n	800906c <__any_on+0x70>
 8009018:	f851 2c04 	ldr.w	r2, [r1, #-4]
 800901c:	b972      	cbnz	r2, 800903c <__any_on+0x40>
 800901e:	1ac1      	subs	r1, r0, r3
 8009020:	1cca      	adds	r2, r1, #3
 8009022:	0752      	lsls	r2, r2, #29
 8009024:	d40d      	bmi.n	8009042 <__any_on+0x46>
 8009026:	4283      	cmp	r3, r0
 8009028:	d220      	bcs.n	800906c <__any_on+0x70>
 800902a:	f850 2c04 	ldr.w	r2, [r0, #-4]
 800902e:	3804      	subs	r0, #4
 8009030:	b922      	cbnz	r2, 800903c <__any_on+0x40>
 8009032:	f850 1c04 	ldr.w	r1, [r0, #-4]
 8009036:	3804      	subs	r0, #4
 8009038:	2900      	cmp	r1, #0
 800903a:	d0f4      	beq.n	8009026 <__any_on+0x2a>
 800903c:	2001      	movs	r0, #1
 800903e:	bc30      	pop	{r4, r5}
 8009040:	4770      	bx	lr
 8009042:	4283      	cmp	r3, r0
 8009044:	d212      	bcs.n	800906c <__any_on+0x70>
 8009046:	f850 1d04 	ldr.w	r1, [r0, #-4]!
 800904a:	2900      	cmp	r1, #0
 800904c:	d0eb      	beq.n	8009026 <__any_on+0x2a>
 800904e:	e7f5      	b.n	800903c <__any_on+0x40>
 8009050:	dddc      	ble.n	800900c <__any_on+0x10>
 8009052:	f011 011f 	ands.w	r1, r1, #31
 8009056:	d0d9      	beq.n	800900c <__any_on+0x10>
 8009058:	eb00 0482 	add.w	r4, r0, r2, lsl #2
 800905c:	6964      	ldr	r4, [r4, #20]
 800905e:	fa24 f501 	lsr.w	r5, r4, r1
 8009062:	fa05 f101 	lsl.w	r1, r5, r1
 8009066:	42a1      	cmp	r1, r4
 8009068:	d1e8      	bne.n	800903c <__any_on+0x40>
 800906a:	e7cf      	b.n	800900c <__any_on+0x10>
 800906c:	2000      	movs	r0, #0
 800906e:	e7e6      	b.n	800903e <__any_on+0x42>

08009070 <__fpclassifyd>:
 8009070:	ec53 2b10 	vmov	r2, r3, d0
 8009074:	ee10 0a10 	vmov	r0, s0
 8009078:	461a      	mov	r2, r3
 800907a:	b163      	cbz	r3, 8009096 <__fpclassifyd+0x26>
 800907c:	f1b3 4f00 	cmp.w	r3, #2147483648	; 0x80000000
 8009080:	d009      	beq.n	8009096 <__fpclassifyd+0x26>
 8009082:	f64f 73ff 	movw	r3, #65535	; 0xffff
 8009086:	f5a2 1180 	sub.w	r1, r2, #1048576	; 0x100000
 800908a:	f6c7 73df 	movt	r3, #32735	; 0x7fdf
 800908e:	4299      	cmp	r1, r3
 8009090:	d805      	bhi.n	800909e <__fpclassifyd+0x2e>
 8009092:	2004      	movs	r0, #4
 8009094:	4770      	bx	lr
 8009096:	2800      	cmp	r0, #0
 8009098:	d1f3      	bne.n	8009082 <__fpclassifyd+0x12>
 800909a:	2002      	movs	r0, #2
 800909c:	4770      	bx	lr
 800909e:	f102 41ff 	add.w	r1, r2, #2139095040	; 0x7f800000
 80090a2:	f501 01e0 	add.w	r1, r1, #7340032	; 0x700000
 80090a6:	4299      	cmp	r1, r3
 80090a8:	d9f3      	bls.n	8009092 <__fpclassifyd+0x22>
 80090aa:	f64f 73ff 	movw	r3, #65535	; 0xffff
 80090ae:	f2c0 030f 	movt	r3, #15
 80090b2:	429a      	cmp	r2, r3
 80090b4:	d801      	bhi.n	80090ba <__fpclassifyd+0x4a>
 80090b6:	2003      	movs	r0, #3
 80090b8:	4770      	bx	lr
 80090ba:	f102 4100 	add.w	r1, r2, #2147483648	; 0x80000000
 80090be:	4299      	cmp	r1, r3
 80090c0:	d9f9      	bls.n	80090b6 <__fpclassifyd+0x46>
 80090c2:	2300      	movs	r3, #0
 80090c4:	f6c7 73f0 	movt	r3, #32752	; 0x7ff0
 80090c8:	429a      	cmp	r2, r3
 80090ca:	d004      	beq.n	80090d6 <__fpclassifyd+0x66>
 80090cc:	f512 1f80 	cmn.w	r2, #1048576	; 0x100000
 80090d0:	d001      	beq.n	80090d6 <__fpclassifyd+0x66>
 80090d2:	2000      	movs	r0, #0
 80090d4:	4770      	bx	lr
 80090d6:	f1d0 0001 	rsbs	r0, r0, #1
 80090da:	bf38      	it	cc
 80090dc:	2000      	movcc	r0, #0
 80090de:	4770      	bx	lr

080090e0 <_sbrk_r>:
 80090e0:	b538      	push	{r3, r4, r5, lr}
 80090e2:	4c07      	ldr	r4, [pc, #28]	; (8009100 <_sbrk_r+0x20>)
 80090e4:	2300      	movs	r3, #0
 80090e6:	4605      	mov	r5, r0
 80090e8:	4608      	mov	r0, r1
 80090ea:	6023      	str	r3, [r4, #0]
 80090ec:	f7f8 fa5c 	bl	80015a8 <_sbrk>
 80090f0:	1c43      	adds	r3, r0, #1
 80090f2:	d000      	beq.n	80090f6 <_sbrk_r+0x16>
 80090f4:	bd38      	pop	{r3, r4, r5, pc}
 80090f6:	6821      	ldr	r1, [r4, #0]
 80090f8:	2900      	cmp	r1, #0
 80090fa:	d0fb      	beq.n	80090f4 <_sbrk_r+0x14>
 80090fc:	6029      	str	r1, [r5, #0]
 80090fe:	bd38      	pop	{r3, r4, r5, pc}
 8009100:	10001780 	.word	0x10001780

08009104 <strcmp>:
 8009104:	ea80 0201 	eor.w	r2, r0, r1
 8009108:	f012 0f03 	tst.w	r2, #3
 800910c:	f040 803a 	bne.w	8009184 <strcmp_unaligned>
 8009110:	f010 0203 	ands.w	r2, r0, #3
 8009114:	f020 0003 	bic.w	r0, r0, #3
 8009118:	f021 0103 	bic.w	r1, r1, #3
 800911c:	f850 cb04 	ldr.w	ip, [r0], #4
 8009120:	bf08      	it	eq
 8009122:	f851 3b04 	ldreq.w	r3, [r1], #4
 8009126:	d00d      	beq.n	8009144 <strcmp+0x40>
 8009128:	f082 0203 	eor.w	r2, r2, #3
 800912c:	ea4f 02c2 	mov.w	r2, r2, lsl #3
 8009130:	f06f 437f 	mvn.w	r3, #4278190080	; 0xff000000
 8009134:	fa23 f202 	lsr.w	r2, r3, r2
 8009138:	f851 3b04 	ldr.w	r3, [r1], #4
 800913c:	ea4c 0c02 	orr.w	ip, ip, r2
 8009140:	ea43 0302 	orr.w	r3, r3, r2
 8009144:	f1ac 3201 	sub.w	r2, ip, #16843009	; 0x1010101
 8009148:	459c      	cmp	ip, r3
 800914a:	bf01      	itttt	eq
 800914c:	ea22 020c 	biceq.w	r2, r2, ip
 8009150:	f012 3f80 	tsteq.w	r2, #2155905152	; 0x80808080
 8009154:	f850 cb04 	ldreq.w	ip, [r0], #4
 8009158:	f851 3b04 	ldreq.w	r3, [r1], #4
 800915c:	d0f2      	beq.n	8009144 <strcmp+0x40>
 800915e:	ea4f 600c 	mov.w	r0, ip, lsl #24
 8009162:	ea4f 2c1c 	mov.w	ip, ip, lsr #8
 8009166:	2801      	cmp	r0, #1
 8009168:	bf28      	it	cs
 800916a:	ebb0 6f03 	cmpcs.w	r0, r3, lsl #24
 800916e:	bf08      	it	eq
 8009170:	0a1b      	lsreq	r3, r3, #8
 8009172:	d0f4      	beq.n	800915e <strcmp+0x5a>
 8009174:	f003 03ff 	and.w	r3, r3, #255	; 0xff
 8009178:	ea4f 6010 	mov.w	r0, r0, lsr #24
 800917c:	eba0 0003 	sub.w	r0, r0, r3
 8009180:	4770      	bx	lr
 8009182:	bf00      	nop

08009184 <strcmp_unaligned>:
 8009184:	f010 0f03 	tst.w	r0, #3
 8009188:	d00a      	beq.n	80091a0 <strcmp_unaligned+0x1c>
 800918a:	f810 2b01 	ldrb.w	r2, [r0], #1
 800918e:	f811 3b01 	ldrb.w	r3, [r1], #1
 8009192:	2a01      	cmp	r2, #1
 8009194:	bf28      	it	cs
 8009196:	429a      	cmpcs	r2, r3
 8009198:	d0f4      	beq.n	8009184 <strcmp_unaligned>
 800919a:	eba2 0003 	sub.w	r0, r2, r3
 800919e:	4770      	bx	lr
 80091a0:	f84d 5d04 	str.w	r5, [sp, #-4]!
 80091a4:	f84d 4d04 	str.w	r4, [sp, #-4]!
 80091a8:	f04f 0201 	mov.w	r2, #1
 80091ac:	ea42 2202 	orr.w	r2, r2, r2, lsl #8
 80091b0:	ea42 4202 	orr.w	r2, r2, r2, lsl #16
 80091b4:	f001 0c03 	and.w	ip, r1, #3
 80091b8:	f021 0103 	bic.w	r1, r1, #3
 80091bc:	f850 4b04 	ldr.w	r4, [r0], #4
 80091c0:	f851 5b04 	ldr.w	r5, [r1], #4
 80091c4:	f1bc 0f02 	cmp.w	ip, #2
 80091c8:	d026      	beq.n	8009218 <strcmp_unaligned+0x94>
 80091ca:	d84b      	bhi.n	8009264 <strcmp_unaligned+0xe0>
 80091cc:	f024 4c7f 	bic.w	ip, r4, #4278190080	; 0xff000000
 80091d0:	ebbc 2f15 	cmp.w	ip, r5, lsr #8
 80091d4:	eba4 0302 	sub.w	r3, r4, r2
 80091d8:	ea23 0304 	bic.w	r3, r3, r4
 80091dc:	d10d      	bne.n	80091fa <strcmp_unaligned+0x76>
 80091de:	ea13 13c2 	ands.w	r3, r3, r2, lsl #7
 80091e2:	bf08      	it	eq
 80091e4:	f851 5b04 	ldreq.w	r5, [r1], #4
 80091e8:	d10a      	bne.n	8009200 <strcmp_unaligned+0x7c>
 80091ea:	ea8c 0c04 	eor.w	ip, ip, r4
 80091ee:	ebbc 6f05 	cmp.w	ip, r5, lsl #24
 80091f2:	d10c      	bne.n	800920e <strcmp_unaligned+0x8a>
 80091f4:	f850 4b04 	ldr.w	r4, [r0], #4
 80091f8:	e7e8      	b.n	80091cc <strcmp_unaligned+0x48>
 80091fa:	ea4f 2515 	mov.w	r5, r5, lsr #8
 80091fe:	e05c      	b.n	80092ba <strcmp_unaligned+0x136>
 8009200:	f033 437f 	bics.w	r3, r3, #4278190080	; 0xff000000
 8009204:	d152      	bne.n	80092ac <strcmp_unaligned+0x128>
 8009206:	780d      	ldrb	r5, [r1, #0]
 8009208:	ea4f 6c14 	mov.w	ip, r4, lsr #24
 800920c:	e055      	b.n	80092ba <strcmp_unaligned+0x136>
 800920e:	ea4f 6c14 	mov.w	ip, r4, lsr #24
 8009212:	f005 05ff 	and.w	r5, r5, #255	; 0xff
 8009216:	e050      	b.n	80092ba <strcmp_unaligned+0x136>
 8009218:	ea4f 4c04 	mov.w	ip, r4, lsl #16
 800921c:	eba4 0302 	sub.w	r3, r4, r2
 8009220:	ea4f 4c1c 	mov.w	ip, ip, lsr #16
 8009224:	ea23 0304 	bic.w	r3, r3, r4
 8009228:	ebbc 4f15 	cmp.w	ip, r5, lsr #16
 800922c:	d117      	bne.n	800925e <strcmp_unaligned+0xda>
 800922e:	ea13 13c2 	ands.w	r3, r3, r2, lsl #7
 8009232:	bf08      	it	eq
 8009234:	f851 5b04 	ldreq.w	r5, [r1], #4
 8009238:	d107      	bne.n	800924a <strcmp_unaligned+0xc6>
 800923a:	ea8c 0c04 	eor.w	ip, ip, r4
 800923e:	ebbc 4f05 	cmp.w	ip, r5, lsl #16
 8009242:	d108      	bne.n	8009256 <strcmp_unaligned+0xd2>
 8009244:	f850 4b04 	ldr.w	r4, [r0], #4
 8009248:	e7e6      	b.n	8009218 <strcmp_unaligned+0x94>
 800924a:	041b      	lsls	r3, r3, #16
 800924c:	d12e      	bne.n	80092ac <strcmp_unaligned+0x128>
 800924e:	880d      	ldrh	r5, [r1, #0]
 8009250:	ea4f 4c14 	mov.w	ip, r4, lsr #16
 8009254:	e031      	b.n	80092ba <strcmp_unaligned+0x136>
 8009256:	ea4f 4505 	mov.w	r5, r5, lsl #16
 800925a:	ea4f 4c14 	mov.w	ip, r4, lsr #16
 800925e:	ea4f 4515 	mov.w	r5, r5, lsr #16
 8009262:	e02a      	b.n	80092ba <strcmp_unaligned+0x136>
 8009264:	f004 0cff 	and.w	ip, r4, #255	; 0xff
 8009268:	ebbc 6f15 	cmp.w	ip, r5, lsr #24
 800926c:	eba4 0302 	sub.w	r3, r4, r2
 8009270:	ea23 0304 	bic.w	r3, r3, r4
 8009274:	d10d      	bne.n	8009292 <strcmp_unaligned+0x10e>
 8009276:	ea13 13c2 	ands.w	r3, r3, r2, lsl #7
 800927a:	bf08      	it	eq
 800927c:	f851 5b04 	ldreq.w	r5, [r1], #4
 8009280:	d10a      	bne.n	8009298 <strcmp_unaligned+0x114>
 8009282:	ea8c 0c04 	eor.w	ip, ip, r4
 8009286:	ebbc 2f05 	cmp.w	ip, r5, lsl #8
 800928a:	d10a      	bne.n	80092a2 <strcmp_unaligned+0x11e>
 800928c:	f850 4b04 	ldr.w	r4, [r0], #4
 8009290:	e7e8      	b.n	8009264 <strcmp_unaligned+0xe0>
 8009292:	ea4f 6515 	mov.w	r5, r5, lsr #24
 8009296:	e010      	b.n	80092ba <strcmp_unaligned+0x136>
 8009298:	f014 0fff 	tst.w	r4, #255	; 0xff
 800929c:	d006      	beq.n	80092ac <strcmp_unaligned+0x128>
 800929e:	f851 5b04 	ldr.w	r5, [r1], #4
 80092a2:	ea4f 2c14 	mov.w	ip, r4, lsr #8
 80092a6:	f025 457f 	bic.w	r5, r5, #4278190080	; 0xff000000
 80092aa:	e006      	b.n	80092ba <strcmp_unaligned+0x136>
 80092ac:	f04f 0000 	mov.w	r0, #0
 80092b0:	f85d 4b04 	ldr.w	r4, [sp], #4
 80092b4:	f85d 5b04 	ldr.w	r5, [sp], #4
 80092b8:	4770      	bx	lr
 80092ba:	f00c 02ff 	and.w	r2, ip, #255	; 0xff
 80092be:	f005 00ff 	and.w	r0, r5, #255	; 0xff
 80092c2:	2801      	cmp	r0, #1
 80092c4:	bf28      	it	cs
 80092c6:	4290      	cmpcs	r0, r2
 80092c8:	bf04      	itt	eq
 80092ca:	ea4f 2c1c 	moveq.w	ip, ip, lsr #8
 80092ce:	0a2d      	lsreq	r5, r5, #8
 80092d0:	d0f3      	beq.n	80092ba <strcmp_unaligned+0x136>
 80092d2:	eba2 0000 	sub.w	r0, r2, r0
 80092d6:	f85d 4b04 	ldr.w	r4, [sp], #4
 80092da:	f85d 5b04 	ldr.w	r5, [sp], #4
 80092de:	4770      	bx	lr

080092e0 <__ssprint_r>:
 80092e0:	e92d 4ff0 	stmdb	sp!, {r4, r5, r6, r7, r8, r9, sl, fp, lr}
 80092e4:	6894      	ldr	r4, [r2, #8]
 80092e6:	6817      	ldr	r7, [r2, #0]
 80092e8:	b083      	sub	sp, #12
 80092ea:	4692      	mov	sl, r2
 80092ec:	4681      	mov	r9, r0
 80092ee:	460d      	mov	r5, r1
 80092f0:	2c00      	cmp	r4, #0
 80092f2:	d06e      	beq.n	80093d2 <__ssprint_r+0xf2>
 80092f4:	f04f 0b00 	mov.w	fp, #0
 80092f8:	6808      	ldr	r0, [r1, #0]
 80092fa:	688e      	ldr	r6, [r1, #8]
 80092fc:	465c      	mov	r4, fp
 80092fe:	2c00      	cmp	r4, #0
 8009300:	d047      	beq.n	8009392 <__ssprint_r+0xb2>
 8009302:	42b4      	cmp	r4, r6
 8009304:	46b0      	mov	r8, r6
 8009306:	d349      	bcc.n	800939c <__ssprint_r+0xbc>
 8009308:	89ab      	ldrh	r3, [r5, #12]
 800930a:	f413 6f90 	tst.w	r3, #1152	; 0x480
 800930e:	d030      	beq.n	8009372 <__ssprint_r+0x92>
 8009310:	696e      	ldr	r6, [r5, #20]
 8009312:	6929      	ldr	r1, [r5, #16]
 8009314:	eb06 0246 	add.w	r2, r6, r6, lsl #1
 8009318:	ebc1 0800 	rsb	r8, r1, r0
 800931c:	eb02 76d2 	add.w	r6, r2, r2, lsr #31
 8009320:	1c60      	adds	r0, r4, #1
 8009322:	1076      	asrs	r6, r6, #1
 8009324:	4440      	add	r0, r8
 8009326:	4286      	cmp	r6, r0
 8009328:	f403 6380 	and.w	r3, r3, #1024	; 0x400
 800932c:	4632      	mov	r2, r6
 800932e:	b21b      	sxth	r3, r3
 8009330:	bf3c      	itt	cc
 8009332:	4606      	movcc	r6, r0
 8009334:	4632      	movcc	r2, r6
 8009336:	4648      	mov	r0, r9
 8009338:	2b00      	cmp	r3, #0
 800933a:	d032      	beq.n	80093a2 <__ssprint_r+0xc2>
 800933c:	4611      	mov	r1, r2
 800933e:	f7fe fc23 	bl	8007b88 <_malloc_r>
 8009342:	2800      	cmp	r0, #0
 8009344:	d036      	beq.n	80093b4 <__ssprint_r+0xd4>
 8009346:	6929      	ldr	r1, [r5, #16]
 8009348:	9001      	str	r0, [sp, #4]
 800934a:	4642      	mov	r2, r8
 800934c:	f7fb f85e 	bl	800440c <memcpy>
 8009350:	89aa      	ldrh	r2, [r5, #12]
 8009352:	f422 6090 	bic.w	r0, r2, #1152	; 0x480
 8009356:	f040 0180 	orr.w	r1, r0, #128	; 0x80
 800935a:	81a9      	strh	r1, [r5, #12]
 800935c:	9901      	ldr	r1, [sp, #4]
 800935e:	ebc8 0306 	rsb	r3, r8, r6
 8009362:	eb01 0008 	add.w	r0, r1, r8
 8009366:	616e      	str	r6, [r5, #20]
 8009368:	6129      	str	r1, [r5, #16]
 800936a:	6028      	str	r0, [r5, #0]
 800936c:	4626      	mov	r6, r4
 800936e:	60ab      	str	r3, [r5, #8]
 8009370:	46a0      	mov	r8, r4
 8009372:	4659      	mov	r1, fp
 8009374:	4642      	mov	r2, r8
 8009376:	f001 f869 	bl	800a44c <memmove>
 800937a:	f8da 1008 	ldr.w	r1, [sl, #8]
 800937e:	68aa      	ldr	r2, [r5, #8]
 8009380:	6828      	ldr	r0, [r5, #0]
 8009382:	1b96      	subs	r6, r2, r6
 8009384:	4440      	add	r0, r8
 8009386:	1b0c      	subs	r4, r1, r4
 8009388:	60ae      	str	r6, [r5, #8]
 800938a:	6028      	str	r0, [r5, #0]
 800938c:	f8ca 4008 	str.w	r4, [sl, #8]
 8009390:	b1fc      	cbz	r4, 80093d2 <__ssprint_r+0xf2>
 8009392:	f8d7 b000 	ldr.w	fp, [r7]
 8009396:	687c      	ldr	r4, [r7, #4]
 8009398:	3708      	adds	r7, #8
 800939a:	e7b0      	b.n	80092fe <__ssprint_r+0x1e>
 800939c:	4626      	mov	r6, r4
 800939e:	46a0      	mov	r8, r4
 80093a0:	e7e7      	b.n	8009372 <__ssprint_r+0x92>
 80093a2:	f001 f91f 	bl	800a5e4 <_realloc_r>
 80093a6:	4601      	mov	r1, r0
 80093a8:	2800      	cmp	r0, #0
 80093aa:	d1d8      	bne.n	800935e <__ssprint_r+0x7e>
 80093ac:	4648      	mov	r0, r9
 80093ae:	6929      	ldr	r1, [r5, #16]
 80093b0:	f000 ff82 	bl	800a2b8 <_free_r>
 80093b4:	89aa      	ldrh	r2, [r5, #12]
 80093b6:	2100      	movs	r1, #0
 80093b8:	f042 0040 	orr.w	r0, r2, #64	; 0x40
 80093bc:	230c      	movs	r3, #12
 80093be:	f8c9 3000 	str.w	r3, [r9]
 80093c2:	81a8      	strh	r0, [r5, #12]
 80093c4:	f04f 30ff 	mov.w	r0, #4294967295
 80093c8:	f8ca 1008 	str.w	r1, [sl, #8]
 80093cc:	f8ca 1004 	str.w	r1, [sl, #4]
 80093d0:	e002      	b.n	80093d8 <__ssprint_r+0xf8>
 80093d2:	f8ca 4004 	str.w	r4, [sl, #4]
 80093d6:	4620      	mov	r0, r4
 80093d8:	b003      	add	sp, #12
 80093da:	e8bd 8ff0 	ldmia.w	sp!, {r4, r5, r6, r7, r8, r9, sl, fp, pc}
 80093de:	bf00      	nop

080093e0 <_svfiprintf_r>:
 80093e0:	e92d 4ff0 	stmdb	sp!, {r4, r5, r6, r7, r8, r9, sl, fp, lr}
 80093e4:	b0af      	sub	sp, #188	; 0xbc
 80093e6:	9103      	str	r1, [sp, #12]
 80093e8:	8989      	ldrh	r1, [r1, #12]
 80093ea:	9005      	str	r0, [sp, #20]
 80093ec:	f001 0480 	and.w	r4, r1, #128	; 0x80
 80093f0:	b221      	sxth	r1, r4
 80093f2:	9309      	str	r3, [sp, #36]	; 0x24
 80093f4:	b121      	cbz	r1, 8009400 <_svfiprintf_r+0x20>
 80093f6:	9c03      	ldr	r4, [sp, #12]
 80093f8:	6923      	ldr	r3, [r4, #16]
 80093fa:	2b00      	cmp	r3, #0
 80093fc:	f000 8690 	beq.w	800a120 <_svfiprintf_r+0xd40>
 8009400:	2600      	movs	r6, #0
 8009402:	ac1e      	add	r4, sp, #120	; 0x78
 8009404:	4d9f      	ldr	r5, [pc, #636]	; (8009684 <_svfiprintf_r+0x2a4>)
 8009406:	9401      	str	r4, [sp, #4]
 8009408:	960b      	str	r6, [sp, #44]	; 0x2c
 800940a:	9411      	str	r4, [sp, #68]	; 0x44
 800940c:	9613      	str	r6, [sp, #76]	; 0x4c
 800940e:	9612      	str	r6, [sp, #72]	; 0x48
 8009410:	4691      	mov	r9, r2
 8009412:	9607      	str	r6, [sp, #28]
 8009414:	f899 2000 	ldrb.w	r2, [r9]
 8009418:	2a00      	cmp	r2, #0
 800941a:	f000 8403 	beq.w	8009c24 <_svfiprintf_r+0x844>
 800941e:	2a25      	cmp	r2, #37	; 0x25
 8009420:	f000 8400 	beq.w	8009c24 <_svfiprintf_r+0x844>
 8009424:	f109 0701 	add.w	r7, r9, #1
 8009428:	e001      	b.n	800942e <_svfiprintf_r+0x4e>
 800942a:	2925      	cmp	r1, #37	; 0x25
 800942c:	d004      	beq.n	8009438 <_svfiprintf_r+0x58>
 800942e:	463e      	mov	r6, r7
 8009430:	3701      	adds	r7, #1
 8009432:	7831      	ldrb	r1, [r6, #0]
 8009434:	2900      	cmp	r1, #0
 8009436:	d1f8      	bne.n	800942a <_svfiprintf_r+0x4a>
 8009438:	ebc9 0706 	rsb	r7, r9, r6
 800943c:	b17f      	cbz	r7, 800945e <_svfiprintf_r+0x7e>
 800943e:	9a12      	ldr	r2, [sp, #72]	; 0x48
 8009440:	9b13      	ldr	r3, [sp, #76]	; 0x4c
 8009442:	f8c4 9000 	str.w	r9, [r4]
 8009446:	1c51      	adds	r1, r2, #1
 8009448:	19d8      	adds	r0, r3, r7
 800944a:	2907      	cmp	r1, #7
 800944c:	6067      	str	r7, [r4, #4]
 800944e:	9013      	str	r0, [sp, #76]	; 0x4c
 8009450:	9112      	str	r1, [sp, #72]	; 0x48
 8009452:	f300 84d7 	bgt.w	8009e04 <_svfiprintf_r+0xa24>
 8009456:	3408      	adds	r4, #8
 8009458:	9b07      	ldr	r3, [sp, #28]
 800945a:	19d8      	adds	r0, r3, r7
 800945c:	9007      	str	r0, [sp, #28]
 800945e:	7832      	ldrb	r2, [r6, #0]
 8009460:	2a00      	cmp	r2, #0
 8009462:	f000 8418 	beq.w	8009c96 <_svfiprintf_r+0x8b6>
 8009466:	2100      	movs	r1, #0
 8009468:	f04f 30ff 	mov.w	r0, #4294967295
 800946c:	7873      	ldrb	r3, [r6, #1]
 800946e:	f88d 103f 	strb.w	r1, [sp, #63]	; 0x3f
 8009472:	460a      	mov	r2, r1
 8009474:	f106 0901 	add.w	r9, r6, #1
 8009478:	9002      	str	r0, [sp, #8]
 800947a:	9108      	str	r1, [sp, #32]
 800947c:	4688      	mov	r8, r1
 800947e:	f109 0901 	add.w	r9, r9, #1
 8009482:	f1a3 0120 	sub.w	r1, r3, #32
 8009486:	2958      	cmp	r1, #88	; 0x58
 8009488:	f200 81fb 	bhi.w	8009882 <_svfiprintf_r+0x4a2>
 800948c:	e8df f011 	tbh	[pc, r1, lsl #1]
 8009490:	01f901f2 	.word	0x01f901f2
 8009494:	01ed01f9 	.word	0x01ed01f9
 8009498:	01f901f9 	.word	0x01f901f9
 800949c:	01f901f9 	.word	0x01f901f9
 80094a0:	01f901f9 	.word	0x01f901f9
 80094a4:	025a00a8 	.word	0x025a00a8
 80094a8:	00b501f9 	.word	0x00b501f9
 80094ac:	01f9025e 	.word	0x01f9025e
 80094b0:	02440255 	.word	0x02440255
 80094b4:	02440244 	.word	0x02440244
 80094b8:	02440244 	.word	0x02440244
 80094bc:	02440244 	.word	0x02440244
 80094c0:	02440244 	.word	0x02440244
 80094c4:	01f901f9 	.word	0x01f901f9
 80094c8:	01f901f9 	.word	0x01f901f9
 80094cc:	01f901f9 	.word	0x01f901f9
 80094d0:	01f901f9 	.word	0x01f901f9
 80094d4:	01f901f9 	.word	0x01f901f9
 80094d8:	01f90220 	.word	0x01f90220
 80094dc:	01f901f9 	.word	0x01f901f9
 80094e0:	01f901f9 	.word	0x01f901f9
 80094e4:	01f901f9 	.word	0x01f901f9
 80094e8:	01f901f9 	.word	0x01f901f9
 80094ec:	009601f9 	.word	0x009601f9
 80094f0:	01f901f9 	.word	0x01f901f9
 80094f4:	01f901f9 	.word	0x01f901f9
 80094f8:	005901f9 	.word	0x005901f9
 80094fc:	01f901f9 	.word	0x01f901f9
 8009500:	01f901cb 	.word	0x01f901cb
 8009504:	01f901f9 	.word	0x01f901f9
 8009508:	01f901f9 	.word	0x01f901f9
 800950c:	01f901f9 	.word	0x01f901f9
 8009510:	01f901f9 	.word	0x01f901f9
 8009514:	012901f9 	.word	0x012901f9
 8009518:	01f90110 	.word	0x01f90110
 800951c:	01f901f9 	.word	0x01f901f9
 8009520:	0110010b 	.word	0x0110010b
 8009524:	01f901f9 	.word	0x01f901f9
 8009528:	01f900fe 	.word	0x01f900fe
 800952c:	009801b7 	.word	0x009801b7
 8009530:	00e200e7 	.word	0x00e200e7
 8009534:	00ba01f9 	.word	0x00ba01f9
 8009538:	005b01f9 	.word	0x005b01f9
 800953c:	01f901f9 	.word	0x01f901f9
 8009540:	0208      	.short	0x0208
 8009542:	f048 0810 	orr.w	r8, r8, #16
 8009546:	f018 0f20 	tst.w	r8, #32
 800954a:	f000 84f0 	beq.w	8009f2e <_svfiprintf_r+0xb4e>
 800954e:	9e09      	ldr	r6, [sp, #36]	; 0x24
 8009550:	1df2      	adds	r2, r6, #7
 8009552:	f022 0107 	bic.w	r1, r2, #7
 8009556:	e9d1 6700 	ldrd	r6, r7, [r1]
 800955a:	f101 0c08 	add.w	ip, r1, #8
 800955e:	f8cd c024 	str.w	ip, [sp, #36]	; 0x24
 8009562:	2301      	movs	r3, #1
 8009564:	f04f 0b00 	mov.w	fp, #0
 8009568:	f88d b03f 	strb.w	fp, [sp, #63]	; 0x3f
 800956c:	9a02      	ldr	r2, [sp, #8]
 800956e:	2a00      	cmp	r2, #0
 8009570:	bfa8      	it	ge
 8009572:	f028 0880 	bicge.w	r8, r8, #128	; 0x80
 8009576:	ea56 0a07 	orrs.w	sl, r6, r7
 800957a:	f040 8360 	bne.w	8009c3e <_svfiprintf_r+0x85e>
 800957e:	9902      	ldr	r1, [sp, #8]
 8009580:	2900      	cmp	r1, #0
 8009582:	f040 835c 	bne.w	8009c3e <_svfiprintf_r+0x85e>
 8009586:	2b00      	cmp	r3, #0
 8009588:	f040 84cb 	bne.w	8009f22 <_svfiprintf_r+0xb42>
 800958c:	f018 0f01 	tst.w	r8, #1
 8009590:	f000 8516 	beq.w	8009fc0 <_svfiprintf_r+0xbe0>
 8009594:	f10d 0ab8 	add.w	sl, sp, #184	; 0xb8
 8009598:	2730      	movs	r7, #48	; 0x30
 800959a:	f80a 7d41 	strb.w	r7, [sl, #-65]!
 800959e:	9901      	ldr	r1, [sp, #4]
 80095a0:	ebca 0201 	rsb	r2, sl, r1
 80095a4:	9204      	str	r2, [sp, #16]
 80095a6:	9f04      	ldr	r7, [sp, #16]
 80095a8:	9b02      	ldr	r3, [sp, #8]
 80095aa:	429f      	cmp	r7, r3
 80095ac:	bfb8      	it	lt
 80095ae:	461f      	movlt	r7, r3
 80095b0:	f1bb 0f00 	cmp.w	fp, #0
 80095b4:	f000 80a7 	beq.w	8009706 <_svfiprintf_r+0x326>
 80095b8:	3701      	adds	r7, #1
 80095ba:	e0a4      	b.n	8009706 <_svfiprintf_r+0x326>
 80095bc:	f048 0810 	orr.w	r8, r8, #16
 80095c0:	f018 0320 	ands.w	r3, r8, #32
 80095c4:	f000 84d1 	beq.w	8009f6a <_svfiprintf_r+0xb8a>
 80095c8:	9b09      	ldr	r3, [sp, #36]	; 0x24
 80095ca:	1ddf      	adds	r7, r3, #7
 80095cc:	f027 0207 	bic.w	r2, r7, #7
 80095d0:	f102 0c08 	add.w	ip, r2, #8
 80095d4:	f8cd c024 	str.w	ip, [sp, #36]	; 0x24
 80095d8:	e9d2 6700 	ldrd	r6, r7, [r2]
 80095dc:	2300      	movs	r3, #0
 80095de:	e7c1      	b.n	8009564 <_svfiprintf_r+0x184>
 80095e0:	9b09      	ldr	r3, [sp, #36]	; 0x24
 80095e2:	9809      	ldr	r0, [sp, #36]	; 0x24
 80095e4:	6819      	ldr	r1, [r3, #0]
 80095e6:	9108      	str	r1, [sp, #32]
 80095e8:	9b08      	ldr	r3, [sp, #32]
 80095ea:	1d01      	adds	r1, r0, #4
 80095ec:	2b00      	cmp	r3, #0
 80095ee:	f280 84e2 	bge.w	8009fb6 <_svfiprintf_r+0xbd6>
 80095f2:	9808      	ldr	r0, [sp, #32]
 80095f4:	9109      	str	r1, [sp, #36]	; 0x24
 80095f6:	4243      	negs	r3, r0
 80095f8:	9308      	str	r3, [sp, #32]
 80095fa:	f048 0804 	orr.w	r8, r8, #4
 80095fe:	f899 3000 	ldrb.w	r3, [r9]
 8009602:	e73c      	b.n	800947e <_svfiprintf_r+0x9e>
 8009604:	f8dd b024 	ldr.w	fp, [sp, #36]	; 0x24
 8009608:	f8db a000 	ldr.w	sl, [fp]
 800960c:	2600      	movs	r6, #0
 800960e:	465f      	mov	r7, fp
 8009610:	f88d 603f 	strb.w	r6, [sp, #63]	; 0x3f
 8009614:	1d3b      	adds	r3, r7, #4
 8009616:	f1ba 0f00 	cmp.w	sl, #0
 800961a:	f000 8575 	beq.w	800a108 <_svfiprintf_r+0xd28>
 800961e:	9a02      	ldr	r2, [sp, #8]
 8009620:	2a00      	cmp	r2, #0
 8009622:	4650      	mov	r0, sl
 8009624:	f2c0 853f 	blt.w	800a0a6 <_svfiprintf_r+0xcc6>
 8009628:	4631      	mov	r1, r6
 800962a:	9a02      	ldr	r2, [sp, #8]
 800962c:	9300      	str	r3, [sp, #0]
 800962e:	f7fe fd59 	bl	80080e4 <memchr>
 8009632:	9900      	ldr	r1, [sp, #0]
 8009634:	2800      	cmp	r0, #0
 8009636:	f000 859b 	beq.w	800a170 <_svfiprintf_r+0xd90>
 800963a:	9a02      	ldr	r2, [sp, #8]
 800963c:	f89d b03f 	ldrb.w	fp, [sp, #63]	; 0x3f
 8009640:	9109      	str	r1, [sp, #36]	; 0x24
 8009642:	ebca 0300 	rsb	r3, sl, r0
 8009646:	4293      	cmp	r3, r2
 8009648:	9304      	str	r3, [sp, #16]
 800964a:	f340 8534 	ble.w	800a0b6 <_svfiprintf_r+0xcd6>
 800964e:	9204      	str	r2, [sp, #16]
 8009650:	9602      	str	r6, [sp, #8]
 8009652:	e7a8      	b.n	80095a6 <_svfiprintf_r+0x1c6>
 8009654:	f048 0820 	orr.w	r8, r8, #32
 8009658:	f899 3000 	ldrb.w	r3, [r9]
 800965c:	e70f      	b.n	800947e <_svfiprintf_r+0x9e>
 800965e:	9e09      	ldr	r6, [sp, #36]	; 0x24
 8009660:	9a09      	ldr	r2, [sp, #36]	; 0x24
 8009662:	6831      	ldr	r1, [r6, #0]
 8009664:	460e      	mov	r6, r1
 8009666:	4908      	ldr	r1, [pc, #32]	; (8009688 <_svfiprintf_r+0x2a8>)
 8009668:	2730      	movs	r7, #48	; 0x30
 800966a:	2378      	movs	r3, #120	; 0x78
 800966c:	1d10      	adds	r0, r2, #4
 800966e:	f88d 7040 	strb.w	r7, [sp, #64]	; 0x40
 8009672:	f88d 3041 	strb.w	r3, [sp, #65]	; 0x41
 8009676:	9009      	str	r0, [sp, #36]	; 0x24
 8009678:	2700      	movs	r7, #0
 800967a:	f048 0802 	orr.w	r8, r8, #2
 800967e:	910b      	str	r1, [sp, #44]	; 0x2c
 8009680:	2302      	movs	r3, #2
 8009682:	e76f      	b.n	8009564 <_svfiprintf_r+0x184>
 8009684:	0800e318 	.word	0x0800e318
 8009688:	0800e090 	.word	0x0800e090
 800968c:	f899 3000 	ldrb.w	r3, [r9]
 8009690:	4648      	mov	r0, r9
 8009692:	2b6c      	cmp	r3, #108	; 0x6c
 8009694:	bf03      	ittte	eq
 8009696:	f109 0901 	addeq.w	r9, r9, #1
 800969a:	f048 0820 	orreq.w	r8, r8, #32
 800969e:	7843      	ldrbeq	r3, [r0, #1]
 80096a0:	f048 0810 	orrne.w	r8, r8, #16
 80096a4:	e6eb      	b.n	800947e <_svfiprintf_r+0x9e>
 80096a6:	f048 0840 	orr.w	r8, r8, #64	; 0x40
 80096aa:	f899 3000 	ldrb.w	r3, [r9]
 80096ae:	e6e6      	b.n	800947e <_svfiprintf_r+0x9e>
 80096b0:	f018 0f20 	tst.w	r8, #32
 80096b4:	f88d 203f 	strb.w	r2, [sp, #63]	; 0x3f
 80096b8:	f000 8112 	beq.w	80098e0 <_svfiprintf_r+0x500>
 80096bc:	9b09      	ldr	r3, [sp, #36]	; 0x24
 80096be:	1ddf      	adds	r7, r3, #7
 80096c0:	f027 0607 	bic.w	r6, r7, #7
 80096c4:	e9d6 2300 	ldrd	r2, r3, [r6]
 80096c8:	3608      	adds	r6, #8
 80096ca:	2a00      	cmp	r2, #0
 80096cc:	f173 0100 	sbcs.w	r1, r3, #0
 80096d0:	9609      	str	r6, [sp, #36]	; 0x24
 80096d2:	461f      	mov	r7, r3
 80096d4:	4616      	mov	r6, r2
 80096d6:	f2c0 8116 	blt.w	8009906 <_svfiprintf_r+0x526>
 80096da:	f89d b03f 	ldrb.w	fp, [sp, #63]	; 0x3f
 80096de:	2301      	movs	r3, #1
 80096e0:	e744      	b.n	800956c <_svfiprintf_r+0x18c>
 80096e2:	9f09      	ldr	r7, [sp, #36]	; 0x24
 80096e4:	9909      	ldr	r1, [sp, #36]	; 0x24
 80096e6:	683b      	ldr	r3, [r7, #0]
 80096e8:	2200      	movs	r2, #0
 80096ea:	2701      	movs	r7, #1
 80096ec:	1d08      	adds	r0, r1, #4
 80096ee:	f88d 203f 	strb.w	r2, [sp, #63]	; 0x3f
 80096f2:	9009      	str	r0, [sp, #36]	; 0x24
 80096f4:	f88d 3050 	strb.w	r3, [sp, #80]	; 0x50
 80096f8:	9704      	str	r7, [sp, #16]
 80096fa:	f10d 0a50 	add.w	sl, sp, #80	; 0x50
 80096fe:	f04f 0b00 	mov.w	fp, #0
 8009702:	f8cd b008 	str.w	fp, [sp, #8]
 8009706:	f018 0102 	ands.w	r1, r8, #2
 800970a:	bf18      	it	ne
 800970c:	3702      	addne	r7, #2
 800970e:	f018 0b84 	ands.w	fp, r8, #132	; 0x84
 8009712:	9106      	str	r1, [sp, #24]
 8009714:	f8cd b028 	str.w	fp, [sp, #40]	; 0x28
 8009718:	f040 815a 	bne.w	80099d0 <_svfiprintf_r+0x5f0>
 800971c:	9808      	ldr	r0, [sp, #32]
 800971e:	ebc7 0b00 	rsb	fp, r7, r0
 8009722:	f1bb 0f00 	cmp.w	fp, #0
 8009726:	f340 8153 	ble.w	80099d0 <_svfiprintf_r+0x5f0>
 800972a:	f1bb 0f10 	cmp.w	fp, #16
 800972e:	f340 8512 	ble.w	800a156 <_svfiprintf_r+0xd76>
 8009732:	f24e 3628 	movw	r6, #58152	; 0xe328
 8009736:	9a13      	ldr	r2, [sp, #76]	; 0x4c
 8009738:	9812      	ldr	r0, [sp, #72]	; 0x48
 800973a:	4ba2      	ldr	r3, [pc, #648]	; (80099c4 <_svfiprintf_r+0x5e4>)
 800973c:	f6c0 0600 	movt	r6, #2048	; 0x800
 8009740:	6026      	str	r6, [r4, #0]
 8009742:	2610      	movs	r6, #16
 8009744:	1991      	adds	r1, r2, r6
 8009746:	1c42      	adds	r2, r0, #1
 8009748:	f1ab 0c11 	sub.w	ip, fp, #17
 800974c:	2a07      	cmp	r2, #7
 800974e:	930c      	str	r3, [sp, #48]	; 0x30
 8009750:	6066      	str	r6, [r4, #4]
 8009752:	9113      	str	r1, [sp, #76]	; 0x4c
 8009754:	9212      	str	r2, [sp, #72]	; 0x48
 8009756:	f3cc 1300 	ubfx	r3, ip, #4, #1
 800975a:	f300 83c8 	bgt.w	8009eee <_svfiprintf_r+0xb0e>
 800975e:	3408      	adds	r4, #8
 8009760:	f1ab 0b10 	sub.w	fp, fp, #16
 8009764:	f1bb 0f10 	cmp.w	fp, #16
 8009768:	f340 8120 	ble.w	80099ac <_svfiprintf_r+0x5cc>
 800976c:	b19b      	cbz	r3, 8009796 <_svfiprintf_r+0x3b6>
 800976e:	3201      	adds	r2, #1
 8009770:	f24e 3328 	movw	r3, #58152	; 0xe328
 8009774:	3110      	adds	r1, #16
 8009776:	f6c0 0300 	movt	r3, #2048	; 0x800
 800977a:	2a07      	cmp	r2, #7
 800977c:	e884 0048 	stmia.w	r4, {r3, r6}
 8009780:	9113      	str	r1, [sp, #76]	; 0x4c
 8009782:	9212      	str	r2, [sp, #72]	; 0x48
 8009784:	f300 83c1 	bgt.w	8009f0a <_svfiprintf_r+0xb2a>
 8009788:	3408      	adds	r4, #8
 800978a:	f1ab 0b10 	sub.w	fp, fp, #16
 800978e:	f1bb 0f10 	cmp.w	fp, #16
 8009792:	f340 810b 	ble.w	80099ac <_svfiprintf_r+0x5cc>
 8009796:	4623      	mov	r3, r4
 8009798:	970d      	str	r7, [sp, #52]	; 0x34
 800979a:	9c03      	ldr	r4, [sp, #12]
 800979c:	9f05      	ldr	r7, [sp, #20]
 800979e:	e016      	b.n	80097ce <_svfiprintf_r+0x3ee>
 80097a0:	3308      	adds	r3, #8
 80097a2:	3201      	adds	r2, #1
 80097a4:	f24e 3028 	movw	r0, #58152	; 0xe328
 80097a8:	3110      	adds	r1, #16
 80097aa:	f6c0 0000 	movt	r0, #2048	; 0x800
 80097ae:	2a07      	cmp	r2, #7
 80097b0:	e883 0041 	stmia.w	r3, {r0, r6}
 80097b4:	9113      	str	r1, [sp, #76]	; 0x4c
 80097b6:	9212      	str	r2, [sp, #72]	; 0x48
 80097b8:	f1ab 0b10 	sub.w	fp, fp, #16
 80097bc:	f300 80e3 	bgt.w	8009986 <_svfiprintf_r+0x5a6>
 80097c0:	f1ab 0b10 	sub.w	fp, fp, #16
 80097c4:	3308      	adds	r3, #8
 80097c6:	f1bb 0f10 	cmp.w	fp, #16
 80097ca:	f340 80ed 	ble.w	80099a8 <_svfiprintf_r+0x5c8>
 80097ce:	3201      	adds	r2, #1
 80097d0:	f24e 3028 	movw	r0, #58152	; 0xe328
 80097d4:	3110      	adds	r1, #16
 80097d6:	f6c0 0000 	movt	r0, #2048	; 0x800
 80097da:	2a07      	cmp	r2, #7
 80097dc:	9113      	str	r1, [sp, #76]	; 0x4c
 80097de:	9212      	str	r2, [sp, #72]	; 0x48
 80097e0:	e883 0041 	stmia.w	r3, {r0, r6}
 80097e4:	dddc      	ble.n	80097a0 <_svfiprintf_r+0x3c0>
 80097e6:	4638      	mov	r0, r7
 80097e8:	4621      	mov	r1, r4
 80097ea:	aa11      	add	r2, sp, #68	; 0x44
 80097ec:	f7ff fd78 	bl	80092e0 <__ssprint_r>
 80097f0:	2800      	cmp	r0, #0
 80097f2:	f040 8257 	bne.w	8009ca4 <_svfiprintf_r+0x8c4>
 80097f6:	9913      	ldr	r1, [sp, #76]	; 0x4c
 80097f8:	9a12      	ldr	r2, [sp, #72]	; 0x48
 80097fa:	ab1e      	add	r3, sp, #120	; 0x78
 80097fc:	e7d1      	b.n	80097a2 <_svfiprintf_r+0x3c2>
 80097fe:	f018 0f20 	tst.w	r8, #32
 8009802:	f88d 203f 	strb.w	r2, [sp, #63]	; 0x3f
 8009806:	f040 840f 	bne.w	800a028 <_svfiprintf_r+0xc48>
 800980a:	f018 0f10 	tst.w	r8, #16
 800980e:	f000 846b 	beq.w	800a0e8 <_svfiprintf_r+0xd08>
 8009812:	f8dd a024 	ldr.w	sl, [sp, #36]	; 0x24
 8009816:	9e07      	ldr	r6, [sp, #28]
 8009818:	f8da 3000 	ldr.w	r3, [sl]
 800981c:	4650      	mov	r0, sl
 800981e:	1d01      	adds	r1, r0, #4
 8009820:	9109      	str	r1, [sp, #36]	; 0x24
 8009822:	601e      	str	r6, [r3, #0]
 8009824:	e5f6      	b.n	8009414 <_svfiprintf_r+0x34>
 8009826:	4e68      	ldr	r6, [pc, #416]	; (80099c8 <_svfiprintf_r+0x5e8>)
 8009828:	f88d 203f 	strb.w	r2, [sp, #63]	; 0x3f
 800982c:	f018 0f20 	tst.w	r8, #32
 8009830:	960b      	str	r6, [sp, #44]	; 0x2c
 8009832:	d03c      	beq.n	80098ae <_svfiprintf_r+0x4ce>
 8009834:	9809      	ldr	r0, [sp, #36]	; 0x24
 8009836:	1dc7      	adds	r7, r0, #7
 8009838:	f027 0607 	bic.w	r6, r7, #7
 800983c:	f106 0c08 	add.w	ip, r6, #8
 8009840:	e9d6 6700 	ldrd	r6, r7, [r6]
 8009844:	f8cd c024 	str.w	ip, [sp, #36]	; 0x24
 8009848:	f018 0f01 	tst.w	r8, #1
 800984c:	f000 8099 	beq.w	8009982 <_svfiprintf_r+0x5a2>
 8009850:	ea56 0107 	orrs.w	r1, r6, r7
 8009854:	f000 8095 	beq.w	8009982 <_svfiprintf_r+0x5a2>
 8009858:	2230      	movs	r2, #48	; 0x30
 800985a:	f88d 3041 	strb.w	r3, [sp, #65]	; 0x41
 800985e:	f88d 2040 	strb.w	r2, [sp, #64]	; 0x40
 8009862:	f048 0802 	orr.w	r8, r8, #2
 8009866:	2302      	movs	r3, #2
 8009868:	e67c      	b.n	8009564 <_svfiprintf_r+0x184>
 800986a:	f048 0801 	orr.w	r8, r8, #1
 800986e:	f899 3000 	ldrb.w	r3, [r9]
 8009872:	e604      	b.n	800947e <_svfiprintf_r+0x9e>
 8009874:	f899 3000 	ldrb.w	r3, [r9]
 8009878:	2a00      	cmp	r2, #0
 800987a:	f47f ae00 	bne.w	800947e <_svfiprintf_r+0x9e>
 800987e:	2220      	movs	r2, #32
 8009880:	e5fd      	b.n	800947e <_svfiprintf_r+0x9e>
 8009882:	f88d 203f 	strb.w	r2, [sp, #63]	; 0x3f
 8009886:	2b00      	cmp	r3, #0
 8009888:	f000 8205 	beq.w	8009c96 <_svfiprintf_r+0x8b6>
 800988c:	2701      	movs	r7, #1
 800988e:	2200      	movs	r2, #0
 8009890:	f88d 3050 	strb.w	r3, [sp, #80]	; 0x50
 8009894:	f88d 203f 	strb.w	r2, [sp, #63]	; 0x3f
 8009898:	9704      	str	r7, [sp, #16]
 800989a:	f10d 0a50 	add.w	sl, sp, #80	; 0x50
 800989e:	e72e      	b.n	80096fe <_svfiprintf_r+0x31e>
 80098a0:	4e4a      	ldr	r6, [pc, #296]	; (80099cc <_svfiprintf_r+0x5ec>)
 80098a2:	f88d 203f 	strb.w	r2, [sp, #63]	; 0x3f
 80098a6:	f018 0f20 	tst.w	r8, #32
 80098aa:	960b      	str	r6, [sp, #44]	; 0x2c
 80098ac:	d1c2      	bne.n	8009834 <_svfiprintf_r+0x454>
 80098ae:	f018 0f10 	tst.w	r8, #16
 80098b2:	f040 83b0 	bne.w	800a016 <_svfiprintf_r+0xc36>
 80098b6:	f018 0f40 	tst.w	r8, #64	; 0x40
 80098ba:	f8dd b024 	ldr.w	fp, [sp, #36]	; 0x24
 80098be:	f000 840a 	beq.w	800a0d6 <_svfiprintf_r+0xcf6>
 80098c2:	4658      	mov	r0, fp
 80098c4:	1d07      	adds	r7, r0, #4
 80098c6:	9709      	str	r7, [sp, #36]	; 0x24
 80098c8:	f8bb 6000 	ldrh.w	r6, [fp]
 80098cc:	2700      	movs	r7, #0
 80098ce:	e7bb      	b.n	8009848 <_svfiprintf_r+0x468>
 80098d0:	f048 0810 	orr.w	r8, r8, #16
 80098d4:	f018 0f20 	tst.w	r8, #32
 80098d8:	f88d 203f 	strb.w	r2, [sp, #63]	; 0x3f
 80098dc:	f47f aeee 	bne.w	80096bc <_svfiprintf_r+0x2dc>
 80098e0:	f018 0f10 	tst.w	r8, #16
 80098e4:	f8dd b024 	ldr.w	fp, [sp, #36]	; 0x24
 80098e8:	f000 8370 	beq.w	8009fcc <_svfiprintf_r+0xbec>
 80098ec:	f8db 6000 	ldr.w	r6, [fp]
 80098f0:	17f7      	asrs	r7, r6, #31
 80098f2:	4659      	mov	r1, fp
 80098f4:	4632      	mov	r2, r6
 80098f6:	463b      	mov	r3, r7
 80098f8:	1d08      	adds	r0, r1, #4
 80098fa:	2a00      	cmp	r2, #0
 80098fc:	f173 0100 	sbcs.w	r1, r3, #0
 8009900:	9009      	str	r0, [sp, #36]	; 0x24
 8009902:	f6bf aeea 	bge.w	80096da <_svfiprintf_r+0x2fa>
 8009906:	f04f 0b2d 	mov.w	fp, #45	; 0x2d
 800990a:	4276      	negs	r6, r6
 800990c:	eb67 0747 	sbc.w	r7, r7, r7, lsl #1
 8009910:	f88d b03f 	strb.w	fp, [sp, #63]	; 0x3f
 8009914:	2301      	movs	r3, #1
 8009916:	e629      	b.n	800956c <_svfiprintf_r+0x18c>
 8009918:	4648      	mov	r0, r9
 800991a:	2100      	movs	r1, #0
 800991c:	f1a3 0730 	sub.w	r7, r3, #48	; 0x30
 8009920:	f810 3b01 	ldrb.w	r3, [r0], #1
 8009924:	f1a3 0630 	sub.w	r6, r3, #48	; 0x30
 8009928:	eb01 0181 	add.w	r1, r1, r1, lsl #2
 800992c:	2e09      	cmp	r6, #9
 800992e:	eb07 0141 	add.w	r1, r7, r1, lsl #1
 8009932:	4681      	mov	r9, r0
 8009934:	d9f2      	bls.n	800991c <_svfiprintf_r+0x53c>
 8009936:	9108      	str	r1, [sp, #32]
 8009938:	e5a3      	b.n	8009482 <_svfiprintf_r+0xa2>
 800993a:	f048 0880 	orr.w	r8, r8, #128	; 0x80
 800993e:	f899 3000 	ldrb.w	r3, [r9]
 8009942:	e59c      	b.n	800947e <_svfiprintf_r+0x9e>
 8009944:	f899 3000 	ldrb.w	r3, [r9]
 8009948:	222b      	movs	r2, #43	; 0x2b
 800994a:	e598      	b.n	800947e <_svfiprintf_r+0x9e>
 800994c:	464e      	mov	r6, r9
 800994e:	f816 3b01 	ldrb.w	r3, [r6], #1
 8009952:	2b2a      	cmp	r3, #42	; 0x2a
 8009954:	f000 8414 	beq.w	800a180 <_svfiprintf_r+0xda0>
 8009958:	f1a3 0130 	sub.w	r1, r3, #48	; 0x30
 800995c:	2000      	movs	r0, #0
 800995e:	2909      	cmp	r1, #9
 8009960:	f200 8401 	bhi.w	800a166 <_svfiprintf_r+0xd86>
 8009964:	f816 3b01 	ldrb.w	r3, [r6], #1
 8009968:	eb00 0080 	add.w	r0, r0, r0, lsl #2
 800996c:	eb01 0040 	add.w	r0, r1, r0, lsl #1
 8009970:	f1a3 0130 	sub.w	r1, r3, #48	; 0x30
 8009974:	2909      	cmp	r1, #9
 8009976:	46b1      	mov	r9, r6
 8009978:	d9f4      	bls.n	8009964 <_svfiprintf_r+0x584>
 800997a:	ea40 70e0 	orr.w	r0, r0, r0, asr #31
 800997e:	9002      	str	r0, [sp, #8]
 8009980:	e57f      	b.n	8009482 <_svfiprintf_r+0xa2>
 8009982:	2302      	movs	r3, #2
 8009984:	e5ee      	b.n	8009564 <_svfiprintf_r+0x184>
 8009986:	4638      	mov	r0, r7
 8009988:	4621      	mov	r1, r4
 800998a:	aa11      	add	r2, sp, #68	; 0x44
 800998c:	f7ff fca8 	bl	80092e0 <__ssprint_r>
 8009990:	2800      	cmp	r0, #0
 8009992:	f040 8187 	bne.w	8009ca4 <_svfiprintf_r+0x8c4>
 8009996:	f1ab 0b10 	sub.w	fp, fp, #16
 800999a:	f1bb 0f10 	cmp.w	fp, #16
 800999e:	ab1e      	add	r3, sp, #120	; 0x78
 80099a0:	9913      	ldr	r1, [sp, #76]	; 0x4c
 80099a2:	9a12      	ldr	r2, [sp, #72]	; 0x48
 80099a4:	f73f af13 	bgt.w	80097ce <_svfiprintf_r+0x3ee>
 80099a8:	9f0d      	ldr	r7, [sp, #52]	; 0x34
 80099aa:	461c      	mov	r4, r3
 80099ac:	3201      	adds	r2, #1
 80099ae:	9b0c      	ldr	r3, [sp, #48]	; 0x30
 80099b0:	9212      	str	r2, [sp, #72]	; 0x48
 80099b2:	4459      	add	r1, fp
 80099b4:	2a07      	cmp	r2, #7
 80099b6:	e884 0808 	stmia.w	r4, {r3, fp}
 80099ba:	9113      	str	r1, [sp, #76]	; 0x4c
 80099bc:	f300 82c9 	bgt.w	8009f52 <_svfiprintf_r+0xb72>
 80099c0:	3408      	adds	r4, #8
 80099c2:	e007      	b.n	80099d4 <_svfiprintf_r+0x5f4>
 80099c4:	0800e328 	.word	0x0800e328
 80099c8:	0800e07c 	.word	0x0800e07c
 80099cc:	0800e090 	.word	0x0800e090
 80099d0:	9913      	ldr	r1, [sp, #76]	; 0x4c
 80099d2:	9a12      	ldr	r2, [sp, #72]	; 0x48
 80099d4:	f89d 003f 	ldrb.w	r0, [sp, #63]	; 0x3f
 80099d8:	b160      	cbz	r0, 80099f4 <_svfiprintf_r+0x614>
 80099da:	3201      	adds	r2, #1
 80099dc:	3101      	adds	r1, #1
 80099de:	2001      	movs	r0, #1
 80099e0:	f10d 033f 	add.w	r3, sp, #63	; 0x3f
 80099e4:	2a07      	cmp	r2, #7
 80099e6:	6023      	str	r3, [r4, #0]
 80099e8:	6060      	str	r0, [r4, #4]
 80099ea:	9113      	str	r1, [sp, #76]	; 0x4c
 80099ec:	9212      	str	r2, [sp, #72]	; 0x48
 80099ee:	f300 8266 	bgt.w	8009ebe <_svfiprintf_r+0xade>
 80099f2:	3408      	adds	r4, #8
 80099f4:	9b06      	ldr	r3, [sp, #24]
 80099f6:	b15b      	cbz	r3, 8009a10 <_svfiprintf_r+0x630>
 80099f8:	3201      	adds	r2, #1
 80099fa:	3102      	adds	r1, #2
 80099fc:	2302      	movs	r3, #2
 80099fe:	a810      	add	r0, sp, #64	; 0x40
 8009a00:	2a07      	cmp	r2, #7
 8009a02:	6020      	str	r0, [r4, #0]
 8009a04:	6063      	str	r3, [r4, #4]
 8009a06:	9113      	str	r1, [sp, #76]	; 0x4c
 8009a08:	9212      	str	r2, [sp, #72]	; 0x48
 8009a0a:	f300 8264 	bgt.w	8009ed6 <_svfiprintf_r+0xaf6>
 8009a0e:	3408      	adds	r4, #8
 8009a10:	9e0a      	ldr	r6, [sp, #40]	; 0x28
 8009a12:	2e80      	cmp	r6, #128	; 0x80
 8009a14:	f000 815a 	beq.w	8009ccc <_svfiprintf_r+0x8ec>
 8009a18:	f8dd b008 	ldr.w	fp, [sp, #8]
 8009a1c:	9e04      	ldr	r6, [sp, #16]
 8009a1e:	ebc6 060b 	rsb	r6, r6, fp
 8009a22:	2e00      	cmp	r6, #0
 8009a24:	dd67      	ble.n	8009af6 <_svfiprintf_r+0x716>
 8009a26:	2e10      	cmp	r6, #16
 8009a28:	f340 8348 	ble.w	800a0bc <_svfiprintf_r+0xcdc>
 8009a2c:	f04f 0b10 	mov.w	fp, #16
 8009a30:	3201      	adds	r2, #1
 8009a32:	4ba4      	ldr	r3, [pc, #656]	; (8009cc4 <_svfiprintf_r+0x8e4>)
 8009a34:	9212      	str	r2, [sp, #72]	; 0x48
 8009a36:	f1a6 0c11 	sub.w	ip, r6, #17
 8009a3a:	4459      	add	r1, fp
 8009a3c:	2a07      	cmp	r2, #7
 8009a3e:	9302      	str	r3, [sp, #8]
 8009a40:	e884 0820 	stmia.w	r4, {r5, fp}
 8009a44:	9113      	str	r1, [sp, #76]	; 0x4c
 8009a46:	f3cc 1300 	ubfx	r3, ip, #4, #1
 8009a4a:	f300 81c1 	bgt.w	8009dd0 <_svfiprintf_r+0x9f0>
 8009a4e:	3408      	adds	r4, #8
 8009a50:	3e10      	subs	r6, #16
 8009a52:	2e10      	cmp	r6, #16
 8009a54:	dd44      	ble.n	8009ae0 <_svfiprintf_r+0x700>
 8009a56:	b163      	cbz	r3, 8009a72 <_svfiprintf_r+0x692>
 8009a58:	3201      	adds	r2, #1
 8009a5a:	3110      	adds	r1, #16
 8009a5c:	2a07      	cmp	r2, #7
 8009a5e:	e884 0820 	stmia.w	r4, {r5, fp}
 8009a62:	9113      	str	r1, [sp, #76]	; 0x4c
 8009a64:	9212      	str	r2, [sp, #72]	; 0x48
 8009a66:	f300 81c1 	bgt.w	8009dec <_svfiprintf_r+0xa0c>
 8009a6a:	3408      	adds	r4, #8
 8009a6c:	3e10      	subs	r6, #16
 8009a6e:	2e10      	cmp	r6, #16
 8009a70:	dd36      	ble.n	8009ae0 <_svfiprintf_r+0x700>
 8009a72:	4620      	mov	r0, r4
 8009a74:	9706      	str	r7, [sp, #24]
 8009a76:	9c03      	ldr	r4, [sp, #12]
 8009a78:	9f05      	ldr	r7, [sp, #20]
 8009a7a:	e00d      	b.n	8009a98 <_svfiprintf_r+0x6b8>
 8009a7c:	3008      	adds	r0, #8
 8009a7e:	3201      	adds	r2, #1
 8009a80:	3110      	adds	r1, #16
 8009a82:	3e10      	subs	r6, #16
 8009a84:	2a07      	cmp	r2, #7
 8009a86:	e880 0820 	stmia.w	r0, {r5, fp}
 8009a8a:	9113      	str	r1, [sp, #76]	; 0x4c
 8009a8c:	9212      	str	r2, [sp, #72]	; 0x48
 8009a8e:	dc17      	bgt.n	8009ac0 <_svfiprintf_r+0x6e0>
 8009a90:	3e10      	subs	r6, #16
 8009a92:	3008      	adds	r0, #8
 8009a94:	2e10      	cmp	r6, #16
 8009a96:	dd21      	ble.n	8009adc <_svfiprintf_r+0x6fc>
 8009a98:	3201      	adds	r2, #1
 8009a9a:	3110      	adds	r1, #16
 8009a9c:	2a07      	cmp	r2, #7
 8009a9e:	9113      	str	r1, [sp, #76]	; 0x4c
 8009aa0:	9212      	str	r2, [sp, #72]	; 0x48
 8009aa2:	e880 0820 	stmia.w	r0, {r5, fp}
 8009aa6:	dde9      	ble.n	8009a7c <_svfiprintf_r+0x69c>
 8009aa8:	4638      	mov	r0, r7
 8009aaa:	4621      	mov	r1, r4
 8009aac:	aa11      	add	r2, sp, #68	; 0x44
 8009aae:	f7ff fc17 	bl	80092e0 <__ssprint_r>
 8009ab2:	2800      	cmp	r0, #0
 8009ab4:	f040 80f6 	bne.w	8009ca4 <_svfiprintf_r+0x8c4>
 8009ab8:	9913      	ldr	r1, [sp, #76]	; 0x4c
 8009aba:	9a12      	ldr	r2, [sp, #72]	; 0x48
 8009abc:	a81e      	add	r0, sp, #120	; 0x78
 8009abe:	e7de      	b.n	8009a7e <_svfiprintf_r+0x69e>
 8009ac0:	4638      	mov	r0, r7
 8009ac2:	4621      	mov	r1, r4
 8009ac4:	aa11      	add	r2, sp, #68	; 0x44
 8009ac6:	f7ff fc0b 	bl	80092e0 <__ssprint_r>
 8009aca:	2800      	cmp	r0, #0
 8009acc:	f040 80ea 	bne.w	8009ca4 <_svfiprintf_r+0x8c4>
 8009ad0:	3e10      	subs	r6, #16
 8009ad2:	2e10      	cmp	r6, #16
 8009ad4:	a81e      	add	r0, sp, #120	; 0x78
 8009ad6:	9913      	ldr	r1, [sp, #76]	; 0x4c
 8009ad8:	9a12      	ldr	r2, [sp, #72]	; 0x48
 8009ada:	dcdd      	bgt.n	8009a98 <_svfiprintf_r+0x6b8>
 8009adc:	9f06      	ldr	r7, [sp, #24]
 8009ade:	4604      	mov	r4, r0
 8009ae0:	3201      	adds	r2, #1
 8009ae2:	9b02      	ldr	r3, [sp, #8]
 8009ae4:	9212      	str	r2, [sp, #72]	; 0x48
 8009ae6:	1989      	adds	r1, r1, r6
 8009ae8:	2a07      	cmp	r2, #7
 8009aea:	e884 0048 	stmia.w	r4, {r3, r6}
 8009aee:	9113      	str	r1, [sp, #76]	; 0x4c
 8009af0:	f300 8193 	bgt.w	8009e1a <_svfiprintf_r+0xa3a>
 8009af4:	3408      	adds	r4, #8
 8009af6:	9b04      	ldr	r3, [sp, #16]
 8009af8:	f8c4 a000 	str.w	sl, [r4]
 8009afc:	3201      	adds	r2, #1
 8009afe:	18c9      	adds	r1, r1, r3
 8009b00:	2a07      	cmp	r2, #7
 8009b02:	6063      	str	r3, [r4, #4]
 8009b04:	9113      	str	r1, [sp, #76]	; 0x4c
 8009b06:	9212      	str	r2, [sp, #72]	; 0x48
 8009b08:	f300 814e 	bgt.w	8009da8 <_svfiprintf_r+0x9c8>
 8009b0c:	f104 0208 	add.w	r2, r4, #8
 8009b10:	f018 0f04 	tst.w	r8, #4
 8009b14:	d074      	beq.n	8009c00 <_svfiprintf_r+0x820>
 8009b16:	9e08      	ldr	r6, [sp, #32]
 8009b18:	1bf6      	subs	r6, r6, r7
 8009b1a:	2e00      	cmp	r6, #0
 8009b1c:	dd70      	ble.n	8009c00 <_svfiprintf_r+0x820>
 8009b1e:	2e10      	cmp	r6, #16
 8009b20:	dd5a      	ble.n	8009bd8 <_svfiprintf_r+0x7f8>
 8009b22:	9812      	ldr	r0, [sp, #72]	; 0x48
 8009b24:	f8df a1a0 	ldr.w	sl, [pc, #416]	; 8009cc8 <_svfiprintf_r+0x8e8>
 8009b28:	f24e 3428 	movw	r4, #58152	; 0xe328
 8009b2c:	f6c0 0400 	movt	r4, #2048	; 0x800
 8009b30:	1c43      	adds	r3, r0, #1
 8009b32:	6014      	str	r4, [r2, #0]
 8009b34:	2410      	movs	r4, #16
 8009b36:	f1a6 0811 	sub.w	r8, r6, #17
 8009b3a:	1909      	adds	r1, r1, r4
 8009b3c:	2b07      	cmp	r3, #7
 8009b3e:	6054      	str	r4, [r2, #4]
 8009b40:	9113      	str	r1, [sp, #76]	; 0x4c
 8009b42:	9312      	str	r3, [sp, #72]	; 0x48
 8009b44:	f3c8 1800 	ubfx	r8, r8, #4, #1
 8009b48:	f300 821e 	bgt.w	8009f88 <_svfiprintf_r+0xba8>
 8009b4c:	3208      	adds	r2, #8
 8009b4e:	3e10      	subs	r6, #16
 8009b50:	2e10      	cmp	r6, #16
 8009b52:	dd44      	ble.n	8009bde <_svfiprintf_r+0x7fe>
 8009b54:	f1b8 0f00 	cmp.w	r8, #0
 8009b58:	d010      	beq.n	8009b7c <_svfiprintf_r+0x79c>
 8009b5a:	3301      	adds	r3, #1
 8009b5c:	f24e 3028 	movw	r0, #58152	; 0xe328
 8009b60:	3110      	adds	r1, #16
 8009b62:	f6c0 0000 	movt	r0, #2048	; 0x800
 8009b66:	2b07      	cmp	r3, #7
 8009b68:	e882 0011 	stmia.w	r2, {r0, r4}
 8009b6c:	9113      	str	r1, [sp, #76]	; 0x4c
 8009b6e:	9312      	str	r3, [sp, #72]	; 0x48
 8009b70:	f300 8267 	bgt.w	800a042 <_svfiprintf_r+0xc62>
 8009b74:	3208      	adds	r2, #8
 8009b76:	3e10      	subs	r6, #16
 8009b78:	2e10      	cmp	r6, #16
 8009b7a:	dd30      	ble.n	8009bde <_svfiprintf_r+0x7fe>
 8009b7c:	f8dd 8014 	ldr.w	r8, [sp, #20]
 8009b80:	f8dd b00c 	ldr.w	fp, [sp, #12]
 8009b84:	e011      	b.n	8009baa <_svfiprintf_r+0x7ca>
 8009b86:	3208      	adds	r2, #8
 8009b88:	3301      	adds	r3, #1
 8009b8a:	f24e 3028 	movw	r0, #58152	; 0xe328
 8009b8e:	3110      	adds	r1, #16
 8009b90:	f6c0 0000 	movt	r0, #2048	; 0x800
 8009b94:	3e10      	subs	r6, #16
 8009b96:	2b07      	cmp	r3, #7
 8009b98:	e882 0011 	stmia.w	r2, {r0, r4}
 8009b9c:	9113      	str	r1, [sp, #76]	; 0x4c
 8009b9e:	9312      	str	r3, [sp, #72]	; 0x48
 8009ba0:	dc42      	bgt.n	8009c28 <_svfiprintf_r+0x848>
 8009ba2:	3208      	adds	r2, #8
 8009ba4:	3e10      	subs	r6, #16
 8009ba6:	2e10      	cmp	r6, #16
 8009ba8:	dd19      	ble.n	8009bde <_svfiprintf_r+0x7fe>
 8009baa:	3301      	adds	r3, #1
 8009bac:	f24e 3028 	movw	r0, #58152	; 0xe328
 8009bb0:	3110      	adds	r1, #16
 8009bb2:	f6c0 0000 	movt	r0, #2048	; 0x800
 8009bb6:	2b07      	cmp	r3, #7
 8009bb8:	e882 0011 	stmia.w	r2, {r0, r4}
 8009bbc:	9113      	str	r1, [sp, #76]	; 0x4c
 8009bbe:	9312      	str	r3, [sp, #72]	; 0x48
 8009bc0:	dde1      	ble.n	8009b86 <_svfiprintf_r+0x7a6>
 8009bc2:	4640      	mov	r0, r8
 8009bc4:	4659      	mov	r1, fp
 8009bc6:	aa11      	add	r2, sp, #68	; 0x44
 8009bc8:	f7ff fb8a 	bl	80092e0 <__ssprint_r>
 8009bcc:	2800      	cmp	r0, #0
 8009bce:	d169      	bne.n	8009ca4 <_svfiprintf_r+0x8c4>
 8009bd0:	9913      	ldr	r1, [sp, #76]	; 0x4c
 8009bd2:	9b12      	ldr	r3, [sp, #72]	; 0x48
 8009bd4:	aa1e      	add	r2, sp, #120	; 0x78
 8009bd6:	e7d7      	b.n	8009b88 <_svfiprintf_r+0x7a8>
 8009bd8:	9b12      	ldr	r3, [sp, #72]	; 0x48
 8009bda:	f8df a0ec 	ldr.w	sl, [pc, #236]	; 8009cc8 <_svfiprintf_r+0x8e8>
 8009bde:	1c5c      	adds	r4, r3, #1
 8009be0:	1871      	adds	r1, r6, r1
 8009be2:	2c07      	cmp	r4, #7
 8009be4:	f8c2 a000 	str.w	sl, [r2]
 8009be8:	6056      	str	r6, [r2, #4]
 8009bea:	9113      	str	r1, [sp, #76]	; 0x4c
 8009bec:	9412      	str	r4, [sp, #72]	; 0x48
 8009bee:	dd07      	ble.n	8009c00 <_svfiprintf_r+0x820>
 8009bf0:	9805      	ldr	r0, [sp, #20]
 8009bf2:	9903      	ldr	r1, [sp, #12]
 8009bf4:	aa11      	add	r2, sp, #68	; 0x44
 8009bf6:	f7ff fb73 	bl	80092e0 <__ssprint_r>
 8009bfa:	2800      	cmp	r0, #0
 8009bfc:	d152      	bne.n	8009ca4 <_svfiprintf_r+0x8c4>
 8009bfe:	9913      	ldr	r1, [sp, #76]	; 0x4c
 8009c00:	9a07      	ldr	r2, [sp, #28]
 8009c02:	9808      	ldr	r0, [sp, #32]
 8009c04:	4287      	cmp	r7, r0
 8009c06:	bfac      	ite	ge
 8009c08:	19d2      	addge	r2, r2, r7
 8009c0a:	1812      	addlt	r2, r2, r0
 8009c0c:	9207      	str	r2, [sp, #28]
 8009c0e:	2900      	cmp	r1, #0
 8009c10:	f040 80d5 	bne.w	8009dbe <_svfiprintf_r+0x9de>
 8009c14:	f899 2000 	ldrb.w	r2, [r9]
 8009c18:	2600      	movs	r6, #0
 8009c1a:	9612      	str	r6, [sp, #72]	; 0x48
 8009c1c:	ac1e      	add	r4, sp, #120	; 0x78
 8009c1e:	2a00      	cmp	r2, #0
 8009c20:	f47f abfd 	bne.w	800941e <_svfiprintf_r+0x3e>
 8009c24:	464e      	mov	r6, r9
 8009c26:	e41a      	b.n	800945e <_svfiprintf_r+0x7e>
 8009c28:	4640      	mov	r0, r8
 8009c2a:	4659      	mov	r1, fp
 8009c2c:	aa11      	add	r2, sp, #68	; 0x44
 8009c2e:	f7ff fb57 	bl	80092e0 <__ssprint_r>
 8009c32:	2800      	cmp	r0, #0
 8009c34:	d136      	bne.n	8009ca4 <_svfiprintf_r+0x8c4>
 8009c36:	aa1e      	add	r2, sp, #120	; 0x78
 8009c38:	9913      	ldr	r1, [sp, #76]	; 0x4c
 8009c3a:	9b12      	ldr	r3, [sp, #72]	; 0x48
 8009c3c:	e7b2      	b.n	8009ba4 <_svfiprintf_r+0x7c4>
 8009c3e:	2b01      	cmp	r3, #1
 8009c40:	f000 8117 	beq.w	8009e72 <_svfiprintf_r+0xa92>
 8009c44:	2b02      	cmp	r3, #2
 8009c46:	f10d 0177 	add.w	r1, sp, #119	; 0x77
 8009c4a:	f000 80f2 	beq.w	8009e32 <_svfiprintf_r+0xa52>
 8009c4e:	46dc      	mov	ip, fp
 8009c50:	f04f 0a07 	mov.w	sl, #7
 8009c54:	08f0      	lsrs	r0, r6, #3
 8009c56:	ea06 020a 	and.w	r2, r6, sl
 8009c5a:	08fb      	lsrs	r3, r7, #3
 8009c5c:	ea40 7647 	orr.w	r6, r0, r7, lsl #29
 8009c60:	3230      	adds	r2, #48	; 0x30
 8009c62:	461f      	mov	r7, r3
 8009c64:	b2d0      	uxtb	r0, r2
 8009c66:	ea56 0b07 	orrs.w	fp, r6, r7
 8009c6a:	468a      	mov	sl, r1
 8009c6c:	7008      	strb	r0, [r1, #0]
 8009c6e:	f101 31ff 	add.w	r1, r1, #4294967295
 8009c72:	d1ed      	bne.n	8009c50 <_svfiprintf_r+0x870>
 8009c74:	f018 0f01 	tst.w	r8, #1
 8009c78:	46e3      	mov	fp, ip
 8009c7a:	4657      	mov	r7, sl
 8009c7c:	f43f ac8f 	beq.w	800959e <_svfiprintf_r+0x1be>
 8009c80:	2830      	cmp	r0, #48	; 0x30
 8009c82:	f43f ac8c 	beq.w	800959e <_svfiprintf_r+0x1be>
 8009c86:	9801      	ldr	r0, [sp, #4]
 8009c88:	2330      	movs	r3, #48	; 0x30
 8009c8a:	f807 3c01 	strb.w	r3, [r7, #-1]
 8009c8e:	1a47      	subs	r7, r0, r1
 8009c90:	468a      	mov	sl, r1
 8009c92:	9704      	str	r7, [sp, #16]
 8009c94:	e487      	b.n	80095a6 <_svfiprintf_r+0x1c6>
 8009c96:	9913      	ldr	r1, [sp, #76]	; 0x4c
 8009c98:	b121      	cbz	r1, 8009ca4 <_svfiprintf_r+0x8c4>
 8009c9a:	9805      	ldr	r0, [sp, #20]
 8009c9c:	9903      	ldr	r1, [sp, #12]
 8009c9e:	aa11      	add	r2, sp, #68	; 0x44
 8009ca0:	f7ff fb1e 	bl	80092e0 <__ssprint_r>
 8009ca4:	9c03      	ldr	r4, [sp, #12]
 8009ca6:	f8dd a01c 	ldr.w	sl, [sp, #28]
 8009caa:	89a3      	ldrh	r3, [r4, #12]
 8009cac:	f003 0240 	and.w	r2, r3, #64	; 0x40
 8009cb0:	b210      	sxth	r0, r2
 8009cb2:	2800      	cmp	r0, #0
 8009cb4:	bf18      	it	ne
 8009cb6:	f04f 3aff 	movne.w	sl, #4294967295
 8009cba:	4650      	mov	r0, sl
 8009cbc:	b02f      	add	sp, #188	; 0xbc
 8009cbe:	e8bd 8ff0 	ldmia.w	sp!, {r4, r5, r6, r7, r8, r9, sl, fp, pc}
 8009cc2:	bf00      	nop
 8009cc4:	0800e318 	.word	0x0800e318
 8009cc8:	0800e328 	.word	0x0800e328
 8009ccc:	9808      	ldr	r0, [sp, #32]
 8009cce:	1bc6      	subs	r6, r0, r7
 8009cd0:	2e00      	cmp	r6, #0
 8009cd2:	f77f aea1 	ble.w	8009a18 <_svfiprintf_r+0x638>
 8009cd6:	2e10      	cmp	r6, #16
 8009cd8:	f340 8242 	ble.w	800a160 <_svfiprintf_r+0xd80>
 8009cdc:	f04f 0b10 	mov.w	fp, #16
 8009ce0:	3201      	adds	r2, #1
 8009ce2:	48a8      	ldr	r0, [pc, #672]	; (8009f84 <_svfiprintf_r+0xba4>)
 8009ce4:	9212      	str	r2, [sp, #72]	; 0x48
 8009ce6:	f1a6 0311 	sub.w	r3, r6, #17
 8009cea:	4459      	add	r1, fp
 8009cec:	2a07      	cmp	r2, #7
 8009cee:	e884 0820 	stmia.w	r4, {r5, fp}
 8009cf2:	9113      	str	r1, [sp, #76]	; 0x4c
 8009cf4:	9006      	str	r0, [sp, #24]
 8009cf6:	f3c3 1300 	ubfx	r3, r3, #4, #1
 8009cfa:	f300 81ae 	bgt.w	800a05a <_svfiprintf_r+0xc7a>
 8009cfe:	3408      	adds	r4, #8
 8009d00:	3e10      	subs	r6, #16
 8009d02:	2e10      	cmp	r6, #16
 8009d04:	dd44      	ble.n	8009d90 <_svfiprintf_r+0x9b0>
 8009d06:	b163      	cbz	r3, 8009d22 <_svfiprintf_r+0x942>
 8009d08:	3201      	adds	r2, #1
 8009d0a:	3110      	adds	r1, #16
 8009d0c:	2a07      	cmp	r2, #7
 8009d0e:	e884 0820 	stmia.w	r4, {r5, fp}
 8009d12:	9113      	str	r1, [sp, #76]	; 0x4c
 8009d14:	9212      	str	r2, [sp, #72]	; 0x48
 8009d16:	f300 81ae 	bgt.w	800a076 <_svfiprintf_r+0xc96>
 8009d1a:	3408      	adds	r4, #8
 8009d1c:	3e10      	subs	r6, #16
 8009d1e:	2e10      	cmp	r6, #16
 8009d20:	dd36      	ble.n	8009d90 <_svfiprintf_r+0x9b0>
 8009d22:	970a      	str	r7, [sp, #40]	; 0x28
 8009d24:	4613      	mov	r3, r2
 8009d26:	9f03      	ldr	r7, [sp, #12]
 8009d28:	4622      	mov	r2, r4
 8009d2a:	9c05      	ldr	r4, [sp, #20]
 8009d2c:	e00d      	b.n	8009d4a <_svfiprintf_r+0x96a>
 8009d2e:	3208      	adds	r2, #8
 8009d30:	1c43      	adds	r3, r0, #1
 8009d32:	3110      	adds	r1, #16
 8009d34:	3e10      	subs	r6, #16
 8009d36:	2b07      	cmp	r3, #7
 8009d38:	e882 0820 	stmia.w	r2, {r5, fp}
 8009d3c:	9113      	str	r1, [sp, #76]	; 0x4c
 8009d3e:	9312      	str	r3, [sp, #72]	; 0x48
 8009d40:	dc16      	bgt.n	8009d70 <_svfiprintf_r+0x990>
 8009d42:	3e10      	subs	r6, #16
 8009d44:	3208      	adds	r2, #8
 8009d46:	2e10      	cmp	r6, #16
 8009d48:	dd1f      	ble.n	8009d8a <_svfiprintf_r+0x9aa>
 8009d4a:	1c58      	adds	r0, r3, #1
 8009d4c:	3110      	adds	r1, #16
 8009d4e:	2807      	cmp	r0, #7
 8009d50:	9113      	str	r1, [sp, #76]	; 0x4c
 8009d52:	9012      	str	r0, [sp, #72]	; 0x48
 8009d54:	e882 0820 	stmia.w	r2, {r5, fp}
 8009d58:	dde9      	ble.n	8009d2e <_svfiprintf_r+0x94e>
 8009d5a:	4620      	mov	r0, r4
 8009d5c:	4639      	mov	r1, r7
 8009d5e:	aa11      	add	r2, sp, #68	; 0x44
 8009d60:	f7ff fabe 	bl	80092e0 <__ssprint_r>
 8009d64:	2800      	cmp	r0, #0
 8009d66:	d19d      	bne.n	8009ca4 <_svfiprintf_r+0x8c4>
 8009d68:	9913      	ldr	r1, [sp, #76]	; 0x4c
 8009d6a:	9812      	ldr	r0, [sp, #72]	; 0x48
 8009d6c:	aa1e      	add	r2, sp, #120	; 0x78
 8009d6e:	e7df      	b.n	8009d30 <_svfiprintf_r+0x950>
 8009d70:	4620      	mov	r0, r4
 8009d72:	4639      	mov	r1, r7
 8009d74:	aa11      	add	r2, sp, #68	; 0x44
 8009d76:	f7ff fab3 	bl	80092e0 <__ssprint_r>
 8009d7a:	2800      	cmp	r0, #0
 8009d7c:	d192      	bne.n	8009ca4 <_svfiprintf_r+0x8c4>
 8009d7e:	3e10      	subs	r6, #16
 8009d80:	2e10      	cmp	r6, #16
 8009d82:	aa1e      	add	r2, sp, #120	; 0x78
 8009d84:	9913      	ldr	r1, [sp, #76]	; 0x4c
 8009d86:	9b12      	ldr	r3, [sp, #72]	; 0x48
 8009d88:	dcdf      	bgt.n	8009d4a <_svfiprintf_r+0x96a>
 8009d8a:	9f0a      	ldr	r7, [sp, #40]	; 0x28
 8009d8c:	4614      	mov	r4, r2
 8009d8e:	461a      	mov	r2, r3
 8009d90:	3201      	adds	r2, #1
 8009d92:	9b06      	ldr	r3, [sp, #24]
 8009d94:	9212      	str	r2, [sp, #72]	; 0x48
 8009d96:	1989      	adds	r1, r1, r6
 8009d98:	2a07      	cmp	r2, #7
 8009d9a:	e884 0048 	stmia.w	r4, {r3, r6}
 8009d9e:	9113      	str	r1, [sp, #76]	; 0x4c
 8009da0:	f300 8175 	bgt.w	800a08e <_svfiprintf_r+0xcae>
 8009da4:	3408      	adds	r4, #8
 8009da6:	e637      	b.n	8009a18 <_svfiprintf_r+0x638>
 8009da8:	9805      	ldr	r0, [sp, #20]
 8009daa:	9903      	ldr	r1, [sp, #12]
 8009dac:	aa11      	add	r2, sp, #68	; 0x44
 8009dae:	f7ff fa97 	bl	80092e0 <__ssprint_r>
 8009db2:	2800      	cmp	r0, #0
 8009db4:	f47f af76 	bne.w	8009ca4 <_svfiprintf_r+0x8c4>
 8009db8:	9913      	ldr	r1, [sp, #76]	; 0x4c
 8009dba:	aa1e      	add	r2, sp, #120	; 0x78
 8009dbc:	e6a8      	b.n	8009b10 <_svfiprintf_r+0x730>
 8009dbe:	9805      	ldr	r0, [sp, #20]
 8009dc0:	9903      	ldr	r1, [sp, #12]
 8009dc2:	aa11      	add	r2, sp, #68	; 0x44
 8009dc4:	f7ff fa8c 	bl	80092e0 <__ssprint_r>
 8009dc8:	2800      	cmp	r0, #0
 8009dca:	f43f af23 	beq.w	8009c14 <_svfiprintf_r+0x834>
 8009dce:	e769      	b.n	8009ca4 <_svfiprintf_r+0x8c4>
 8009dd0:	9805      	ldr	r0, [sp, #20]
 8009dd2:	9903      	ldr	r1, [sp, #12]
 8009dd4:	9300      	str	r3, [sp, #0]
 8009dd6:	aa11      	add	r2, sp, #68	; 0x44
 8009dd8:	f7ff fa82 	bl	80092e0 <__ssprint_r>
 8009ddc:	9b00      	ldr	r3, [sp, #0]
 8009dde:	2800      	cmp	r0, #0
 8009de0:	f47f af60 	bne.w	8009ca4 <_svfiprintf_r+0x8c4>
 8009de4:	ac1e      	add	r4, sp, #120	; 0x78
 8009de6:	9913      	ldr	r1, [sp, #76]	; 0x4c
 8009de8:	9a12      	ldr	r2, [sp, #72]	; 0x48
 8009dea:	e631      	b.n	8009a50 <_svfiprintf_r+0x670>
 8009dec:	9805      	ldr	r0, [sp, #20]
 8009dee:	9903      	ldr	r1, [sp, #12]
 8009df0:	aa11      	add	r2, sp, #68	; 0x44
 8009df2:	f7ff fa75 	bl	80092e0 <__ssprint_r>
 8009df6:	2800      	cmp	r0, #0
 8009df8:	f47f af54 	bne.w	8009ca4 <_svfiprintf_r+0x8c4>
 8009dfc:	ac1e      	add	r4, sp, #120	; 0x78
 8009dfe:	9913      	ldr	r1, [sp, #76]	; 0x4c
 8009e00:	9a12      	ldr	r2, [sp, #72]	; 0x48
 8009e02:	e633      	b.n	8009a6c <_svfiprintf_r+0x68c>
 8009e04:	9805      	ldr	r0, [sp, #20]
 8009e06:	9903      	ldr	r1, [sp, #12]
 8009e08:	aa11      	add	r2, sp, #68	; 0x44
 8009e0a:	f7ff fa69 	bl	80092e0 <__ssprint_r>
 8009e0e:	2800      	cmp	r0, #0
 8009e10:	f47f af48 	bne.w	8009ca4 <_svfiprintf_r+0x8c4>
 8009e14:	ac1e      	add	r4, sp, #120	; 0x78
 8009e16:	f7ff bb1f 	b.w	8009458 <_svfiprintf_r+0x78>
 8009e1a:	9805      	ldr	r0, [sp, #20]
 8009e1c:	9903      	ldr	r1, [sp, #12]
 8009e1e:	aa11      	add	r2, sp, #68	; 0x44
 8009e20:	f7ff fa5e 	bl	80092e0 <__ssprint_r>
 8009e24:	2800      	cmp	r0, #0
 8009e26:	f47f af3d 	bne.w	8009ca4 <_svfiprintf_r+0x8c4>
 8009e2a:	9913      	ldr	r1, [sp, #76]	; 0x4c
 8009e2c:	9a12      	ldr	r2, [sp, #72]	; 0x48
 8009e2e:	ac1e      	add	r4, sp, #120	; 0x78
 8009e30:	e661      	b.n	8009af6 <_svfiprintf_r+0x716>
 8009e32:	980b      	ldr	r0, [sp, #44]	; 0x2c
 8009e34:	f8cd b010 	str.w	fp, [sp, #16]
 8009e38:	f04f 0b0f 	mov.w	fp, #15
 8009e3c:	ea06 020b 	and.w	r2, r6, fp
 8009e40:	1883      	adds	r3, r0, r2
 8009e42:	0936      	lsrs	r6, r6, #4
 8009e44:	ea46 7207 	orr.w	r2, r6, r7, lsl #28
 8009e48:	ea4f 1c17 	mov.w	ip, r7, lsr #4
 8009e4c:	468a      	mov	sl, r1
 8009e4e:	4616      	mov	r6, r2
 8009e50:	7819      	ldrb	r1, [r3, #0]
 8009e52:	4667      	mov	r7, ip
 8009e54:	ea56 0b07 	orrs.w	fp, r6, r7
 8009e58:	f88a 1000 	strb.w	r1, [sl]
 8009e5c:	f10a 31ff 	add.w	r1, sl, #4294967295
 8009e60:	d1ea      	bne.n	8009e38 <_svfiprintf_r+0xa58>
 8009e62:	9f01      	ldr	r7, [sp, #4]
 8009e64:	f8dd b010 	ldr.w	fp, [sp, #16]
 8009e68:	ebca 0007 	rsb	r0, sl, r7
 8009e6c:	9004      	str	r0, [sp, #16]
 8009e6e:	f7ff bb9a 	b.w	80095a6 <_svfiprintf_r+0x1c6>
 8009e72:	2f00      	cmp	r7, #0
 8009e74:	bf08      	it	eq
 8009e76:	2e0a      	cmpeq	r6, #10
 8009e78:	f0c0 8092 	bcc.w	8009fa0 <_svfiprintf_r+0xbc0>
 8009e7c:	f10d 0377 	add.w	r3, sp, #119	; 0x77
 8009e80:	9404      	str	r4, [sp, #16]
 8009e82:	461c      	mov	r4, r3
 8009e84:	4630      	mov	r0, r6
 8009e86:	4639      	mov	r1, r7
 8009e88:	220a      	movs	r2, #10
 8009e8a:	2300      	movs	r3, #0
 8009e8c:	f7f8 fd9c 	bl	80029c8 <__aeabi_uldivmod>
 8009e90:	3230      	adds	r2, #48	; 0x30
 8009e92:	7022      	strb	r2, [r4, #0]
 8009e94:	4630      	mov	r0, r6
 8009e96:	4639      	mov	r1, r7
 8009e98:	220a      	movs	r2, #10
 8009e9a:	2300      	movs	r3, #0
 8009e9c:	f7f8 fd94 	bl	80029c8 <__aeabi_uldivmod>
 8009ea0:	4606      	mov	r6, r0
 8009ea2:	460f      	mov	r7, r1
 8009ea4:	ea56 0007 	orrs.w	r0, r6, r7
 8009ea8:	46a2      	mov	sl, r4
 8009eaa:	f104 34ff 	add.w	r4, r4, #4294967295
 8009eae:	d1e9      	bne.n	8009e84 <_svfiprintf_r+0xaa4>
 8009eb0:	9a01      	ldr	r2, [sp, #4]
 8009eb2:	9c04      	ldr	r4, [sp, #16]
 8009eb4:	ebca 0102 	rsb	r1, sl, r2
 8009eb8:	9104      	str	r1, [sp, #16]
 8009eba:	f7ff bb74 	b.w	80095a6 <_svfiprintf_r+0x1c6>
 8009ebe:	9805      	ldr	r0, [sp, #20]
 8009ec0:	9903      	ldr	r1, [sp, #12]
 8009ec2:	aa11      	add	r2, sp, #68	; 0x44
 8009ec4:	f7ff fa0c 	bl	80092e0 <__ssprint_r>
 8009ec8:	2800      	cmp	r0, #0
 8009eca:	f47f aeeb 	bne.w	8009ca4 <_svfiprintf_r+0x8c4>
 8009ece:	9913      	ldr	r1, [sp, #76]	; 0x4c
 8009ed0:	9a12      	ldr	r2, [sp, #72]	; 0x48
 8009ed2:	ac1e      	add	r4, sp, #120	; 0x78
 8009ed4:	e58e      	b.n	80099f4 <_svfiprintf_r+0x614>
 8009ed6:	9805      	ldr	r0, [sp, #20]
 8009ed8:	9903      	ldr	r1, [sp, #12]
 8009eda:	aa11      	add	r2, sp, #68	; 0x44
 8009edc:	f7ff fa00 	bl	80092e0 <__ssprint_r>
 8009ee0:	2800      	cmp	r0, #0
 8009ee2:	f47f aedf 	bne.w	8009ca4 <_svfiprintf_r+0x8c4>
 8009ee6:	9913      	ldr	r1, [sp, #76]	; 0x4c
 8009ee8:	9a12      	ldr	r2, [sp, #72]	; 0x48
 8009eea:	ac1e      	add	r4, sp, #120	; 0x78
 8009eec:	e590      	b.n	8009a10 <_svfiprintf_r+0x630>
 8009eee:	9805      	ldr	r0, [sp, #20]
 8009ef0:	9903      	ldr	r1, [sp, #12]
 8009ef2:	9300      	str	r3, [sp, #0]
 8009ef4:	aa11      	add	r2, sp, #68	; 0x44
 8009ef6:	f7ff f9f3 	bl	80092e0 <__ssprint_r>
 8009efa:	9b00      	ldr	r3, [sp, #0]
 8009efc:	2800      	cmp	r0, #0
 8009efe:	f47f aed1 	bne.w	8009ca4 <_svfiprintf_r+0x8c4>
 8009f02:	ac1e      	add	r4, sp, #120	; 0x78
 8009f04:	9913      	ldr	r1, [sp, #76]	; 0x4c
 8009f06:	9a12      	ldr	r2, [sp, #72]	; 0x48
 8009f08:	e42a      	b.n	8009760 <_svfiprintf_r+0x380>
 8009f0a:	9805      	ldr	r0, [sp, #20]
 8009f0c:	9903      	ldr	r1, [sp, #12]
 8009f0e:	aa11      	add	r2, sp, #68	; 0x44
 8009f10:	f7ff f9e6 	bl	80092e0 <__ssprint_r>
 8009f14:	2800      	cmp	r0, #0
 8009f16:	f47f aec5 	bne.w	8009ca4 <_svfiprintf_r+0x8c4>
 8009f1a:	ac1e      	add	r4, sp, #120	; 0x78
 8009f1c:	9913      	ldr	r1, [sp, #76]	; 0x4c
 8009f1e:	9a12      	ldr	r2, [sp, #72]	; 0x48
 8009f20:	e433      	b.n	800978a <_svfiprintf_r+0x3aa>
 8009f22:	9802      	ldr	r0, [sp, #8]
 8009f24:	f10d 0a78 	add.w	sl, sp, #120	; 0x78
 8009f28:	9004      	str	r0, [sp, #16]
 8009f2a:	f7ff bb3c 	b.w	80095a6 <_svfiprintf_r+0x1c6>
 8009f2e:	f018 0f10 	tst.w	r8, #16
 8009f32:	d152      	bne.n	8009fda <_svfiprintf_r+0xbfa>
 8009f34:	f018 0f40 	tst.w	r8, #64	; 0x40
 8009f38:	f8dd b024 	ldr.w	fp, [sp, #36]	; 0x24
 8009f3c:	f000 80c1 	beq.w	800a0c2 <_svfiprintf_r+0xce2>
 8009f40:	465a      	mov	r2, fp
 8009f42:	1d11      	adds	r1, r2, #4
 8009f44:	f8bb 6000 	ldrh.w	r6, [fp]
 8009f48:	9109      	str	r1, [sp, #36]	; 0x24
 8009f4a:	2301      	movs	r3, #1
 8009f4c:	2700      	movs	r7, #0
 8009f4e:	f7ff bb09 	b.w	8009564 <_svfiprintf_r+0x184>
 8009f52:	9805      	ldr	r0, [sp, #20]
 8009f54:	9903      	ldr	r1, [sp, #12]
 8009f56:	aa11      	add	r2, sp, #68	; 0x44
 8009f58:	f7ff f9c2 	bl	80092e0 <__ssprint_r>
 8009f5c:	2800      	cmp	r0, #0
 8009f5e:	f47f aea1 	bne.w	8009ca4 <_svfiprintf_r+0x8c4>
 8009f62:	9913      	ldr	r1, [sp, #76]	; 0x4c
 8009f64:	9a12      	ldr	r2, [sp, #72]	; 0x48
 8009f66:	ac1e      	add	r4, sp, #120	; 0x78
 8009f68:	e534      	b.n	80099d4 <_svfiprintf_r+0x5f4>
 8009f6a:	f018 0710 	ands.w	r7, r8, #16
 8009f6e:	d040      	beq.n	8009ff2 <_svfiprintf_r+0xc12>
 8009f70:	f8dd a024 	ldr.w	sl, [sp, #36]	; 0x24
 8009f74:	4651      	mov	r1, sl
 8009f76:	1d08      	adds	r0, r1, #4
 8009f78:	f8da 6000 	ldr.w	r6, [sl]
 8009f7c:	9009      	str	r0, [sp, #36]	; 0x24
 8009f7e:	2700      	movs	r7, #0
 8009f80:	f7ff baf0 	b.w	8009564 <_svfiprintf_r+0x184>
 8009f84:	0800e318 	.word	0x0800e318
 8009f88:	9805      	ldr	r0, [sp, #20]
 8009f8a:	9903      	ldr	r1, [sp, #12]
 8009f8c:	aa11      	add	r2, sp, #68	; 0x44
 8009f8e:	f7ff f9a7 	bl	80092e0 <__ssprint_r>
 8009f92:	2800      	cmp	r0, #0
 8009f94:	f47f ae86 	bne.w	8009ca4 <_svfiprintf_r+0x8c4>
 8009f98:	aa1e      	add	r2, sp, #120	; 0x78
 8009f9a:	9913      	ldr	r1, [sp, #76]	; 0x4c
 8009f9c:	9b12      	ldr	r3, [sp, #72]	; 0x48
 8009f9e:	e5d6      	b.n	8009b4e <_svfiprintf_r+0x76e>
 8009fa0:	f10d 0ab8 	add.w	sl, sp, #184	; 0xb8
 8009fa4:	3630      	adds	r6, #48	; 0x30
 8009fa6:	f80a 6d41 	strb.w	r6, [sl, #-65]!
 8009faa:	9f01      	ldr	r7, [sp, #4]
 8009fac:	ebca 0007 	rsb	r0, sl, r7
 8009fb0:	9004      	str	r0, [sp, #16]
 8009fb2:	f7ff baf8 	b.w	80095a6 <_svfiprintf_r+0x1c6>
 8009fb6:	f899 3000 	ldrb.w	r3, [r9]
 8009fba:	9109      	str	r1, [sp, #36]	; 0x24
 8009fbc:	f7ff ba5f 	b.w	800947e <_svfiprintf_r+0x9e>
 8009fc0:	9b02      	ldr	r3, [sp, #8]
 8009fc2:	f10d 0a78 	add.w	sl, sp, #120	; 0x78
 8009fc6:	9304      	str	r3, [sp, #16]
 8009fc8:	f7ff baed 	b.w	80095a6 <_svfiprintf_r+0x1c6>
 8009fcc:	f018 0f40 	tst.w	r8, #64	; 0x40
 8009fd0:	f43f ac8c 	beq.w	80098ec <_svfiprintf_r+0x50c>
 8009fd4:	f9bb 6000 	ldrsh.w	r6, [fp]
 8009fd8:	e48a      	b.n	80098f0 <_svfiprintf_r+0x510>
 8009fda:	f8dd a024 	ldr.w	sl, [sp, #36]	; 0x24
 8009fde:	f8da 7000 	ldr.w	r7, [sl]
 8009fe2:	4650      	mov	r0, sl
 8009fe4:	1d03      	adds	r3, r0, #4
 8009fe6:	463e      	mov	r6, r7
 8009fe8:	9309      	str	r3, [sp, #36]	; 0x24
 8009fea:	2700      	movs	r7, #0
 8009fec:	2301      	movs	r3, #1
 8009fee:	f7ff bab9 	b.w	8009564 <_svfiprintf_r+0x184>
 8009ff2:	f8dd b024 	ldr.w	fp, [sp, #36]	; 0x24
 8009ff6:	f018 0340 	ands.w	r3, r8, #64	; 0x40
 8009ffa:	bf0c      	ite	eq
 8009ffc:	f8db 7000 	ldreq.w	r7, [fp]
 800a000:	f8bb 6000 	ldrhne.w	r6, [fp]
 800a004:	4658      	mov	r0, fp
 800a006:	bf14      	ite	ne
 800a008:	463b      	movne	r3, r7
 800a00a:	463e      	moveq	r6, r7
 800a00c:	1d02      	adds	r2, r0, #4
 800a00e:	2700      	movs	r7, #0
 800a010:	9209      	str	r2, [sp, #36]	; 0x24
 800a012:	f7ff baa7 	b.w	8009564 <_svfiprintf_r+0x184>
 800a016:	f8dd a024 	ldr.w	sl, [sp, #36]	; 0x24
 800a01a:	4652      	mov	r2, sl
 800a01c:	1d11      	adds	r1, r2, #4
 800a01e:	f8da 6000 	ldr.w	r6, [sl]
 800a022:	9109      	str	r1, [sp, #36]	; 0x24
 800a024:	2700      	movs	r7, #0
 800a026:	e40f      	b.n	8009848 <_svfiprintf_r+0x468>
 800a028:	f8dd c024 	ldr.w	ip, [sp, #36]	; 0x24
 800a02c:	9a07      	ldr	r2, [sp, #28]
 800a02e:	f8dc 3000 	ldr.w	r3, [ip]
 800a032:	4661      	mov	r1, ip
 800a034:	17d0      	asrs	r0, r2, #31
 800a036:	1d0e      	adds	r6, r1, #4
 800a038:	601a      	str	r2, [r3, #0]
 800a03a:	6058      	str	r0, [r3, #4]
 800a03c:	9609      	str	r6, [sp, #36]	; 0x24
 800a03e:	f7ff b9e9 	b.w	8009414 <_svfiprintf_r+0x34>
 800a042:	9805      	ldr	r0, [sp, #20]
 800a044:	9903      	ldr	r1, [sp, #12]
 800a046:	aa11      	add	r2, sp, #68	; 0x44
 800a048:	f7ff f94a 	bl	80092e0 <__ssprint_r>
 800a04c:	2800      	cmp	r0, #0
 800a04e:	f47f ae29 	bne.w	8009ca4 <_svfiprintf_r+0x8c4>
 800a052:	aa1e      	add	r2, sp, #120	; 0x78
 800a054:	9913      	ldr	r1, [sp, #76]	; 0x4c
 800a056:	9b12      	ldr	r3, [sp, #72]	; 0x48
 800a058:	e58d      	b.n	8009b76 <_svfiprintf_r+0x796>
 800a05a:	9805      	ldr	r0, [sp, #20]
 800a05c:	9903      	ldr	r1, [sp, #12]
 800a05e:	9300      	str	r3, [sp, #0]
 800a060:	aa11      	add	r2, sp, #68	; 0x44
 800a062:	f7ff f93d 	bl	80092e0 <__ssprint_r>
 800a066:	9b00      	ldr	r3, [sp, #0]
 800a068:	2800      	cmp	r0, #0
 800a06a:	f47f ae1b 	bne.w	8009ca4 <_svfiprintf_r+0x8c4>
 800a06e:	ac1e      	add	r4, sp, #120	; 0x78
 800a070:	9913      	ldr	r1, [sp, #76]	; 0x4c
 800a072:	9a12      	ldr	r2, [sp, #72]	; 0x48
 800a074:	e644      	b.n	8009d00 <_svfiprintf_r+0x920>
 800a076:	9805      	ldr	r0, [sp, #20]
 800a078:	9903      	ldr	r1, [sp, #12]
 800a07a:	aa11      	add	r2, sp, #68	; 0x44
 800a07c:	f7ff f930 	bl	80092e0 <__ssprint_r>
 800a080:	2800      	cmp	r0, #0
 800a082:	f47f ae0f 	bne.w	8009ca4 <_svfiprintf_r+0x8c4>
 800a086:	ac1e      	add	r4, sp, #120	; 0x78
 800a088:	9913      	ldr	r1, [sp, #76]	; 0x4c
 800a08a:	9a12      	ldr	r2, [sp, #72]	; 0x48
 800a08c:	e646      	b.n	8009d1c <_svfiprintf_r+0x93c>
 800a08e:	9805      	ldr	r0, [sp, #20]
 800a090:	9903      	ldr	r1, [sp, #12]
 800a092:	aa11      	add	r2, sp, #68	; 0x44
 800a094:	f7ff f924 	bl	80092e0 <__ssprint_r>
 800a098:	2800      	cmp	r0, #0
 800a09a:	f47f ae03 	bne.w	8009ca4 <_svfiprintf_r+0x8c4>
 800a09e:	9913      	ldr	r1, [sp, #76]	; 0x4c
 800a0a0:	9a12      	ldr	r2, [sp, #72]	; 0x48
 800a0a2:	ac1e      	add	r4, sp, #120	; 0x78
 800a0a4:	e4b8      	b.n	8009a18 <_svfiprintf_r+0x638>
 800a0a6:	9300      	str	r3, [sp, #0]
 800a0a8:	f7fa fb5c 	bl	8004764 <strlen>
 800a0ac:	9004      	str	r0, [sp, #16]
 800a0ae:	9800      	ldr	r0, [sp, #0]
 800a0b0:	f89d b03f 	ldrb.w	fp, [sp, #63]	; 0x3f
 800a0b4:	9009      	str	r0, [sp, #36]	; 0x24
 800a0b6:	9602      	str	r6, [sp, #8]
 800a0b8:	f7ff ba75 	b.w	80095a6 <_svfiprintf_r+0x1c6>
 800a0bc:	483d      	ldr	r0, [pc, #244]	; (800a1b4 <_svfiprintf_r+0xdd4>)
 800a0be:	9002      	str	r0, [sp, #8]
 800a0c0:	e50e      	b.n	8009ae0 <_svfiprintf_r+0x700>
 800a0c2:	f8db 1000 	ldr.w	r1, [fp]
 800a0c6:	4658      	mov	r0, fp
 800a0c8:	1d03      	adds	r3, r0, #4
 800a0ca:	9309      	str	r3, [sp, #36]	; 0x24
 800a0cc:	460e      	mov	r6, r1
 800a0ce:	2700      	movs	r7, #0
 800a0d0:	2301      	movs	r3, #1
 800a0d2:	f7ff ba47 	b.w	8009564 <_svfiprintf_r+0x184>
 800a0d6:	f8db 7000 	ldr.w	r7, [fp]
 800a0da:	465a      	mov	r2, fp
 800a0dc:	1d11      	adds	r1, r2, #4
 800a0de:	463e      	mov	r6, r7
 800a0e0:	9109      	str	r1, [sp, #36]	; 0x24
 800a0e2:	2700      	movs	r7, #0
 800a0e4:	f7ff bbb0 	b.w	8009848 <_svfiprintf_r+0x468>
 800a0e8:	f018 0f40 	tst.w	r8, #64	; 0x40
 800a0ec:	d028      	beq.n	800a140 <_svfiprintf_r+0xd60>
 800a0ee:	f8dd a024 	ldr.w	sl, [sp, #36]	; 0x24
 800a0f2:	f8dd c01c 	ldr.w	ip, [sp, #28]
 800a0f6:	f8da 1000 	ldr.w	r1, [sl]
 800a0fa:	4656      	mov	r6, sl
 800a0fc:	1d32      	adds	r2, r6, #4
 800a0fe:	9209      	str	r2, [sp, #36]	; 0x24
 800a100:	f8a1 c000 	strh.w	ip, [r1]
 800a104:	f7ff b986 	b.w	8009414 <_svfiprintf_r+0x34>
 800a108:	9802      	ldr	r0, [sp, #8]
 800a10a:	9309      	str	r3, [sp, #36]	; 0x24
 800a10c:	2806      	cmp	r0, #6
 800a10e:	bf28      	it	cs
 800a110:	2006      	movcs	r0, #6
 800a112:	9004      	str	r0, [sp, #16]
 800a114:	ea20 77e0 	bic.w	r7, r0, r0, asr #31
 800a118:	f8df a0a0 	ldr.w	sl, [pc, #160]	; 800a1bc <_svfiprintf_r+0xddc>
 800a11c:	f7ff baef 	b.w	80096fe <_svfiprintf_r+0x31e>
 800a120:	2140      	movs	r1, #64	; 0x40
 800a122:	9200      	str	r2, [sp, #0]
 800a124:	f7fd fd30 	bl	8007b88 <_malloc_r>
 800a128:	9a00      	ldr	r2, [sp, #0]
 800a12a:	6020      	str	r0, [r4, #0]
 800a12c:	6120      	str	r0, [r4, #16]
 800a12e:	2800      	cmp	r0, #0
 800a130:	d037      	beq.n	800a1a2 <_svfiprintf_r+0xdc2>
 800a132:	f8dd b00c 	ldr.w	fp, [sp, #12]
 800a136:	2040      	movs	r0, #64	; 0x40
 800a138:	f8cb 0014 	str.w	r0, [fp, #20]
 800a13c:	f7ff b960 	b.w	8009400 <_svfiprintf_r+0x20>
 800a140:	f8dd b024 	ldr.w	fp, [sp, #36]	; 0x24
 800a144:	9b07      	ldr	r3, [sp, #28]
 800a146:	f8db 6000 	ldr.w	r6, [fp]
 800a14a:	465a      	mov	r2, fp
 800a14c:	1d10      	adds	r0, r2, #4
 800a14e:	9009      	str	r0, [sp, #36]	; 0x24
 800a150:	6033      	str	r3, [r6, #0]
 800a152:	f7ff b95f 	b.w	8009414 <_svfiprintf_r+0x34>
 800a156:	4b18      	ldr	r3, [pc, #96]	; (800a1b8 <_svfiprintf_r+0xdd8>)
 800a158:	9913      	ldr	r1, [sp, #76]	; 0x4c
 800a15a:	9a12      	ldr	r2, [sp, #72]	; 0x48
 800a15c:	930c      	str	r3, [sp, #48]	; 0x30
 800a15e:	e425      	b.n	80099ac <_svfiprintf_r+0x5cc>
 800a160:	4b14      	ldr	r3, [pc, #80]	; (800a1b4 <_svfiprintf_r+0xdd4>)
 800a162:	9306      	str	r3, [sp, #24]
 800a164:	e614      	b.n	8009d90 <_svfiprintf_r+0x9b0>
 800a166:	2000      	movs	r0, #0
 800a168:	46b1      	mov	r9, r6
 800a16a:	9002      	str	r0, [sp, #8]
 800a16c:	f7ff b989 	b.w	8009482 <_svfiprintf_r+0xa2>
 800a170:	9f02      	ldr	r7, [sp, #8]
 800a172:	f89d b03f 	ldrb.w	fp, [sp, #63]	; 0x3f
 800a176:	9109      	str	r1, [sp, #36]	; 0x24
 800a178:	9704      	str	r7, [sp, #16]
 800a17a:	9002      	str	r0, [sp, #8]
 800a17c:	f7ff ba13 	b.w	80095a6 <_svfiprintf_r+0x1c6>
 800a180:	9b09      	ldr	r3, [sp, #36]	; 0x24
 800a182:	9909      	ldr	r1, [sp, #36]	; 0x24
 800a184:	6818      	ldr	r0, [r3, #0]
 800a186:	f899 3001 	ldrb.w	r3, [r9, #1]
 800a18a:	9002      	str	r0, [sp, #8]
 800a18c:	3104      	adds	r1, #4
 800a18e:	2800      	cmp	r0, #0
 800a190:	9109      	str	r1, [sp, #36]	; 0x24
 800a192:	46b1      	mov	r9, r6
 800a194:	f6bf a973 	bge.w	800947e <_svfiprintf_r+0x9e>
 800a198:	f04f 30ff 	mov.w	r0, #4294967295
 800a19c:	9002      	str	r0, [sp, #8]
 800a19e:	f7ff b96e 	b.w	800947e <_svfiprintf_r+0x9e>
 800a1a2:	f8dd a014 	ldr.w	sl, [sp, #20]
 800a1a6:	210c      	movs	r1, #12
 800a1a8:	f8ca 1000 	str.w	r1, [sl]
 800a1ac:	f04f 30ff 	mov.w	r0, #4294967295
 800a1b0:	e584      	b.n	8009cbc <_svfiprintf_r+0x8dc>
 800a1b2:	bf00      	nop
 800a1b4:	0800e318 	.word	0x0800e318
 800a1b8:	0800e328 	.word	0x0800e328
 800a1bc:	0800e0a4 	.word	0x0800e0a4

0800a1c0 <_calloc_r>:
 800a1c0:	b510      	push	{r4, lr}
 800a1c2:	fb01 f102 	mul.w	r1, r1, r2
 800a1c6:	f7fd fcdf 	bl	8007b88 <_malloc_r>
 800a1ca:	4604      	mov	r4, r0
 800a1cc:	b168      	cbz	r0, 800a1ea <_calloc_r+0x2a>
 800a1ce:	f850 2c04 	ldr.w	r2, [r0, #-4]
 800a1d2:	f022 0103 	bic.w	r1, r2, #3
 800a1d6:	1f0a      	subs	r2, r1, #4
 800a1d8:	2a24      	cmp	r2, #36	; 0x24
 800a1da:	d818      	bhi.n	800a20e <_calloc_r+0x4e>
 800a1dc:	2a13      	cmp	r2, #19
 800a1de:	d806      	bhi.n	800a1ee <_calloc_r+0x2e>
 800a1e0:	4603      	mov	r3, r0
 800a1e2:	2000      	movs	r0, #0
 800a1e4:	6018      	str	r0, [r3, #0]
 800a1e6:	6058      	str	r0, [r3, #4]
 800a1e8:	6098      	str	r0, [r3, #8]
 800a1ea:	4620      	mov	r0, r4
 800a1ec:	bd10      	pop	{r4, pc}
 800a1ee:	2300      	movs	r3, #0
 800a1f0:	2a1b      	cmp	r2, #27
 800a1f2:	6003      	str	r3, [r0, #0]
 800a1f4:	6043      	str	r3, [r0, #4]
 800a1f6:	d90f      	bls.n	800a218 <_calloc_r+0x58>
 800a1f8:	2a24      	cmp	r2, #36	; 0x24
 800a1fa:	6083      	str	r3, [r0, #8]
 800a1fc:	60c3      	str	r3, [r0, #12]
 800a1fe:	bf05      	ittet	eq
 800a200:	6103      	streq	r3, [r0, #16]
 800a202:	6143      	streq	r3, [r0, #20]
 800a204:	f100 0310 	addne.w	r3, r0, #16
 800a208:	f100 0318 	addeq.w	r3, r0, #24
 800a20c:	e7e9      	b.n	800a1e2 <_calloc_r+0x22>
 800a20e:	2100      	movs	r1, #0
 800a210:	f7fa f99e 	bl	8004550 <memset>
 800a214:	4620      	mov	r0, r4
 800a216:	bd10      	pop	{r4, pc}
 800a218:	f100 0308 	add.w	r3, r0, #8
 800a21c:	e7e1      	b.n	800a1e2 <_calloc_r+0x22>
 800a21e:	bf00      	nop

0800a220 <_malloc_trim_r>:
 800a220:	b5f8      	push	{r3, r4, r5, r6, r7, lr}
 800a222:	4d22      	ldr	r5, [pc, #136]	; (800a2ac <_malloc_trim_r+0x8c>)
 800a224:	460f      	mov	r7, r1
 800a226:	4604      	mov	r4, r0
 800a228:	f7fd fffc 	bl	8008224 <__malloc_lock>
 800a22c:	68ab      	ldr	r3, [r5, #8]
 800a22e:	685e      	ldr	r6, [r3, #4]
 800a230:	f026 0603 	bic.w	r6, r6, #3
 800a234:	f606 70ef 	addw	r0, r6, #4079	; 0xfef
 800a238:	1bc1      	subs	r1, r0, r7
 800a23a:	0b0a      	lsrs	r2, r1, #12
 800a23c:	1e57      	subs	r7, r2, #1
 800a23e:	033f      	lsls	r7, r7, #12
 800a240:	f5b7 5f80 	cmp.w	r7, #4096	; 0x1000
 800a244:	db07      	blt.n	800a256 <_malloc_trim_r+0x36>
 800a246:	2100      	movs	r1, #0
 800a248:	4620      	mov	r0, r4
 800a24a:	f7fe ff49 	bl	80090e0 <_sbrk_r>
 800a24e:	68ab      	ldr	r3, [r5, #8]
 800a250:	1999      	adds	r1, r3, r6
 800a252:	4288      	cmp	r0, r1
 800a254:	d004      	beq.n	800a260 <_malloc_trim_r+0x40>
 800a256:	4620      	mov	r0, r4
 800a258:	f7fd ffe6 	bl	8008228 <__malloc_unlock>
 800a25c:	2000      	movs	r0, #0
 800a25e:	bdf8      	pop	{r3, r4, r5, r6, r7, pc}
 800a260:	4279      	negs	r1, r7
 800a262:	4620      	mov	r0, r4
 800a264:	f7fe ff3c 	bl	80090e0 <_sbrk_r>
 800a268:	3001      	adds	r0, #1
 800a26a:	d00d      	beq.n	800a288 <_malloc_trim_r+0x68>
 800a26c:	4b10      	ldr	r3, [pc, #64]	; (800a2b0 <_malloc_trim_r+0x90>)
 800a26e:	68a8      	ldr	r0, [r5, #8]
 800a270:	681a      	ldr	r2, [r3, #0]
 800a272:	1bf6      	subs	r6, r6, r7
 800a274:	f046 0601 	orr.w	r6, r6, #1
 800a278:	1bd7      	subs	r7, r2, r7
 800a27a:	6046      	str	r6, [r0, #4]
 800a27c:	4620      	mov	r0, r4
 800a27e:	601f      	str	r7, [r3, #0]
 800a280:	f7fd ffd2 	bl	8008228 <__malloc_unlock>
 800a284:	2001      	movs	r0, #1
 800a286:	bdf8      	pop	{r3, r4, r5, r6, r7, pc}
 800a288:	2100      	movs	r1, #0
 800a28a:	4620      	mov	r0, r4
 800a28c:	f7fe ff28 	bl	80090e0 <_sbrk_r>
 800a290:	68ab      	ldr	r3, [r5, #8]
 800a292:	1ac2      	subs	r2, r0, r3
 800a294:	2a0f      	cmp	r2, #15
 800a296:	ddde      	ble.n	800a256 <_malloc_trim_r+0x36>
 800a298:	4906      	ldr	r1, [pc, #24]	; (800a2b4 <_malloc_trim_r+0x94>)
 800a29a:	6809      	ldr	r1, [r1, #0]
 800a29c:	1a40      	subs	r0, r0, r1
 800a29e:	4904      	ldr	r1, [pc, #16]	; (800a2b0 <_malloc_trim_r+0x90>)
 800a2a0:	f042 0201 	orr.w	r2, r2, #1
 800a2a4:	6008      	str	r0, [r1, #0]
 800a2a6:	605a      	str	r2, [r3, #4]
 800a2a8:	e7d5      	b.n	800a256 <_malloc_trim_r+0x36>
 800a2aa:	bf00      	nop
 800a2ac:	100004f4 	.word	0x100004f4
 800a2b0:	10001758 	.word	0x10001758
 800a2b4:	10000900 	.word	0x10000900

0800a2b8 <_free_r>:
 800a2b8:	e92d 41f0 	stmdb	sp!, {r4, r5, r6, r7, r8, lr}
 800a2bc:	460d      	mov	r5, r1
 800a2be:	4606      	mov	r6, r0
 800a2c0:	2900      	cmp	r1, #0
 800a2c2:	d055      	beq.n	800a370 <_free_r+0xb8>
 800a2c4:	f7fd ffae 	bl	8008224 <__malloc_lock>
 800a2c8:	f855 1c04 	ldr.w	r1, [r5, #-4]
 800a2cc:	f8df c16c 	ldr.w	ip, [pc, #364]	; 800a43c <_free_r+0x184>
 800a2d0:	f1a5 0408 	sub.w	r4, r5, #8
 800a2d4:	f021 0301 	bic.w	r3, r1, #1
 800a2d8:	18e2      	adds	r2, r4, r3
 800a2da:	f8dc 0008 	ldr.w	r0, [ip, #8]
 800a2de:	6857      	ldr	r7, [r2, #4]
 800a2e0:	4290      	cmp	r0, r2
 800a2e2:	f027 0703 	bic.w	r7, r7, #3
 800a2e6:	d065      	beq.n	800a3b4 <_free_r+0xfc>
 800a2e8:	f011 0101 	ands.w	r1, r1, #1
 800a2ec:	6057      	str	r7, [r2, #4]
 800a2ee:	d032      	beq.n	800a356 <_free_r+0x9e>
 800a2f0:	2100      	movs	r1, #0
 800a2f2:	19d0      	adds	r0, r2, r7
 800a2f4:	6840      	ldr	r0, [r0, #4]
 800a2f6:	07c0      	lsls	r0, r0, #31
 800a2f8:	d406      	bmi.n	800a308 <_free_r+0x50>
 800a2fa:	19db      	adds	r3, r3, r7
 800a2fc:	6890      	ldr	r0, [r2, #8]
 800a2fe:	2900      	cmp	r1, #0
 800a300:	d04a      	beq.n	800a398 <_free_r+0xe0>
 800a302:	68d2      	ldr	r2, [r2, #12]
 800a304:	60c2      	str	r2, [r0, #12]
 800a306:	6090      	str	r0, [r2, #8]
 800a308:	f043 0001 	orr.w	r0, r3, #1
 800a30c:	6060      	str	r0, [r4, #4]
 800a30e:	50e3      	str	r3, [r4, r3]
 800a310:	b9e1      	cbnz	r1, 800a34c <_free_r+0x94>
 800a312:	f5b3 7f00 	cmp.w	r3, #512	; 0x200
 800a316:	d32d      	bcc.n	800a374 <_free_r+0xbc>
 800a318:	0a5a      	lsrs	r2, r3, #9
 800a31a:	2a04      	cmp	r2, #4
 800a31c:	d866      	bhi.n	800a3ec <_free_r+0x134>
 800a31e:	0998      	lsrs	r0, r3, #6
 800a320:	3038      	adds	r0, #56	; 0x38
 800a322:	0042      	lsls	r2, r0, #1
 800a324:	eb0c 0e82 	add.w	lr, ip, r2, lsl #2
 800a328:	4944      	ldr	r1, [pc, #272]	; (800a43c <_free_r+0x184>)
 800a32a:	f8de 2008 	ldr.w	r2, [lr, #8]
 800a32e:	4572      	cmp	r2, lr
 800a330:	d062      	beq.n	800a3f8 <_free_r+0x140>
 800a332:	6850      	ldr	r0, [r2, #4]
 800a334:	f020 0103 	bic.w	r1, r0, #3
 800a338:	428b      	cmp	r3, r1
 800a33a:	d202      	bcs.n	800a342 <_free_r+0x8a>
 800a33c:	6892      	ldr	r2, [r2, #8]
 800a33e:	4596      	cmp	lr, r2
 800a340:	d1f7      	bne.n	800a332 <_free_r+0x7a>
 800a342:	68d0      	ldr	r0, [r2, #12]
 800a344:	60e0      	str	r0, [r4, #12]
 800a346:	60a2      	str	r2, [r4, #8]
 800a348:	60d4      	str	r4, [r2, #12]
 800a34a:	6084      	str	r4, [r0, #8]
 800a34c:	4630      	mov	r0, r6
 800a34e:	e8bd 41f0 	ldmia.w	sp!, {r4, r5, r6, r7, r8, lr}
 800a352:	f7fd bf69 	b.w	8008228 <__malloc_unlock>
 800a356:	f855 5c08 	ldr.w	r5, [r5, #-8]
 800a35a:	1b64      	subs	r4, r4, r5
 800a35c:	f10c 0808 	add.w	r8, ip, #8
 800a360:	68a0      	ldr	r0, [r4, #8]
 800a362:	4540      	cmp	r0, r8
 800a364:	442b      	add	r3, r5
 800a366:	d03f      	beq.n	800a3e8 <_free_r+0x130>
 800a368:	68e5      	ldr	r5, [r4, #12]
 800a36a:	60c5      	str	r5, [r0, #12]
 800a36c:	60a8      	str	r0, [r5, #8]
 800a36e:	e7c0      	b.n	800a2f2 <_free_r+0x3a>
 800a370:	e8bd 81f0 	ldmia.w	sp!, {r4, r5, r6, r7, r8, pc}
 800a374:	08dd      	lsrs	r5, r3, #3
 800a376:	eb0c 02c5 	add.w	r2, ip, r5, lsl #3
 800a37a:	f8dc 0004 	ldr.w	r0, [ip, #4]
 800a37e:	6891      	ldr	r1, [r2, #8]
 800a380:	60e2      	str	r2, [r4, #12]
 800a382:	10ab      	asrs	r3, r5, #2
 800a384:	2501      	movs	r5, #1
 800a386:	fa05 f303 	lsl.w	r3, r5, r3
 800a38a:	4318      	orrs	r0, r3
 800a38c:	60a1      	str	r1, [r4, #8]
 800a38e:	f8cc 0004 	str.w	r0, [ip, #4]
 800a392:	6094      	str	r4, [r2, #8]
 800a394:	60cc      	str	r4, [r1, #12]
 800a396:	e7d9      	b.n	800a34c <_free_r+0x94>
 800a398:	4d29      	ldr	r5, [pc, #164]	; (800a440 <_free_r+0x188>)
 800a39a:	42a8      	cmp	r0, r5
 800a39c:	d1b1      	bne.n	800a302 <_free_r+0x4a>
 800a39e:	f043 0201 	orr.w	r2, r3, #1
 800a3a2:	f8cc 4014 	str.w	r4, [ip, #20]
 800a3a6:	f8cc 4010 	str.w	r4, [ip, #16]
 800a3aa:	60e0      	str	r0, [r4, #12]
 800a3ac:	60a0      	str	r0, [r4, #8]
 800a3ae:	6062      	str	r2, [r4, #4]
 800a3b0:	50e3      	str	r3, [r4, r3]
 800a3b2:	e7cb      	b.n	800a34c <_free_r+0x94>
 800a3b4:	18ff      	adds	r7, r7, r3
 800a3b6:	07cb      	lsls	r3, r1, #31
 800a3b8:	d407      	bmi.n	800a3ca <_free_r+0x112>
 800a3ba:	f855 1c08 	ldr.w	r1, [r5, #-8]
 800a3be:	1a64      	subs	r4, r4, r1
 800a3c0:	187f      	adds	r7, r7, r1
 800a3c2:	68e3      	ldr	r3, [r4, #12]
 800a3c4:	68a0      	ldr	r0, [r4, #8]
 800a3c6:	60c3      	str	r3, [r0, #12]
 800a3c8:	6098      	str	r0, [r3, #8]
 800a3ca:	4a1e      	ldr	r2, [pc, #120]	; (800a444 <_free_r+0x18c>)
 800a3cc:	f8cc 4008 	str.w	r4, [ip, #8]
 800a3d0:	6811      	ldr	r1, [r2, #0]
 800a3d2:	f047 0301 	orr.w	r3, r7, #1
 800a3d6:	428f      	cmp	r7, r1
 800a3d8:	6063      	str	r3, [r4, #4]
 800a3da:	d3b7      	bcc.n	800a34c <_free_r+0x94>
 800a3dc:	4a1a      	ldr	r2, [pc, #104]	; (800a448 <_free_r+0x190>)
 800a3de:	4630      	mov	r0, r6
 800a3e0:	6811      	ldr	r1, [r2, #0]
 800a3e2:	f7ff ff1d 	bl	800a220 <_malloc_trim_r>
 800a3e6:	e7b1      	b.n	800a34c <_free_r+0x94>
 800a3e8:	2101      	movs	r1, #1
 800a3ea:	e782      	b.n	800a2f2 <_free_r+0x3a>
 800a3ec:	2a14      	cmp	r2, #20
 800a3ee:	d80c      	bhi.n	800a40a <_free_r+0x152>
 800a3f0:	f102 005b 	add.w	r0, r2, #91	; 0x5b
 800a3f4:	0042      	lsls	r2, r0, #1
 800a3f6:	e795      	b.n	800a324 <_free_r+0x6c>
 800a3f8:	684b      	ldr	r3, [r1, #4]
 800a3fa:	1080      	asrs	r0, r0, #2
 800a3fc:	2501      	movs	r5, #1
 800a3fe:	fa05 f000 	lsl.w	r0, r5, r0
 800a402:	4303      	orrs	r3, r0
 800a404:	604b      	str	r3, [r1, #4]
 800a406:	4610      	mov	r0, r2
 800a408:	e79c      	b.n	800a344 <_free_r+0x8c>
 800a40a:	2a54      	cmp	r2, #84	; 0x54
 800a40c:	d803      	bhi.n	800a416 <_free_r+0x15e>
 800a40e:	0b18      	lsrs	r0, r3, #12
 800a410:	306e      	adds	r0, #110	; 0x6e
 800a412:	0042      	lsls	r2, r0, #1
 800a414:	e786      	b.n	800a324 <_free_r+0x6c>
 800a416:	f5b2 7faa 	cmp.w	r2, #340	; 0x154
 800a41a:	d803      	bhi.n	800a424 <_free_r+0x16c>
 800a41c:	0bd8      	lsrs	r0, r3, #15
 800a41e:	3077      	adds	r0, #119	; 0x77
 800a420:	0042      	lsls	r2, r0, #1
 800a422:	e77f      	b.n	800a324 <_free_r+0x6c>
 800a424:	f240 5154 	movw	r1, #1364	; 0x554
 800a428:	428a      	cmp	r2, r1
 800a42a:	d803      	bhi.n	800a434 <_free_r+0x17c>
 800a42c:	0c98      	lsrs	r0, r3, #18
 800a42e:	307c      	adds	r0, #124	; 0x7c
 800a430:	0042      	lsls	r2, r0, #1
 800a432:	e777      	b.n	800a324 <_free_r+0x6c>
 800a434:	22fc      	movs	r2, #252	; 0xfc
 800a436:	207e      	movs	r0, #126	; 0x7e
 800a438:	e774      	b.n	800a324 <_free_r+0x6c>
 800a43a:	bf00      	nop
 800a43c:	100004f4 	.word	0x100004f4
 800a440:	100004fc 	.word	0x100004fc
 800a444:	100008fc 	.word	0x100008fc
 800a448:	10001754 	.word	0x10001754

0800a44c <memmove>:
 800a44c:	4288      	cmp	r0, r1
 800a44e:	e92d 03f0 	stmdb	sp!, {r4, r5, r6, r7, r8, r9}
 800a452:	d926      	bls.n	800a4a2 <memmove+0x56>
 800a454:	188c      	adds	r4, r1, r2
 800a456:	42a0      	cmp	r0, r4
 800a458:	d223      	bcs.n	800a4a2 <memmove+0x56>
 800a45a:	1883      	adds	r3, r0, r2
 800a45c:	1e55      	subs	r5, r2, #1
 800a45e:	b1ea      	cbz	r2, 800a49c <memmove+0x50>
 800a460:	4622      	mov	r2, r4
 800a462:	f005 0401 	and.w	r4, r5, #1
 800a466:	f812 1d01 	ldrb.w	r1, [r2, #-1]!
 800a46a:	f803 1d01 	strb.w	r1, [r3, #-1]!
 800a46e:	1e69      	subs	r1, r5, #1
 800a470:	b1a5      	cbz	r5, 800a49c <memmove+0x50>
 800a472:	b13c      	cbz	r4, 800a484 <memmove+0x38>
 800a474:	f812 4d01 	ldrb.w	r4, [r2, #-1]!
 800a478:	3901      	subs	r1, #1
 800a47a:	f1b1 3fff 	cmp.w	r1, #4294967295
 800a47e:	f803 4d01 	strb.w	r4, [r3, #-1]!
 800a482:	d00b      	beq.n	800a49c <memmove+0x50>
 800a484:	f812 4d01 	ldrb.w	r4, [r2, #-1]!
 800a488:	f803 4d01 	strb.w	r4, [r3, #-1]!
 800a48c:	3902      	subs	r1, #2
 800a48e:	f812 4d01 	ldrb.w	r4, [r2, #-1]!
 800a492:	f1b1 3fff 	cmp.w	r1, #4294967295
 800a496:	f803 4d01 	strb.w	r4, [r3, #-1]!
 800a49a:	d1f3      	bne.n	800a484 <memmove+0x38>
 800a49c:	e8bd 03f0 	ldmia.w	sp!, {r4, r5, r6, r7, r8, r9}
 800a4a0:	4770      	bx	lr
 800a4a2:	2a0f      	cmp	r2, #15
 800a4a4:	f240 8096 	bls.w	800a5d4 <memmove+0x188>
 800a4a8:	ea41 0300 	orr.w	r3, r1, r0
 800a4ac:	079b      	lsls	r3, r3, #30
 800a4ae:	f040 8093 	bne.w	800a5d8 <memmove+0x18c>
 800a4b2:	680c      	ldr	r4, [r1, #0]
 800a4b4:	6004      	str	r4, [r0, #0]
 800a4b6:	684d      	ldr	r5, [r1, #4]
 800a4b8:	6045      	str	r5, [r0, #4]
 800a4ba:	688e      	ldr	r6, [r1, #8]
 800a4bc:	f1a2 0310 	sub.w	r3, r2, #16
 800a4c0:	6086      	str	r6, [r0, #8]
 800a4c2:	68cc      	ldr	r4, [r1, #12]
 800a4c4:	461d      	mov	r5, r3
 800a4c6:	2d0f      	cmp	r5, #15
 800a4c8:	60c4      	str	r4, [r0, #12]
 800a4ca:	f3c3 1600 	ubfx	r6, r3, #4, #1
 800a4ce:	f101 0410 	add.w	r4, r1, #16
 800a4d2:	f100 0310 	add.w	r3, r0, #16
 800a4d6:	d922      	bls.n	800a51e <memmove+0xd2>
 800a4d8:	b166      	cbz	r6, 800a4f4 <memmove+0xa8>
 800a4da:	6826      	ldr	r6, [r4, #0]
 800a4dc:	601e      	str	r6, [r3, #0]
 800a4de:	6866      	ldr	r6, [r4, #4]
 800a4e0:	605e      	str	r6, [r3, #4]
 800a4e2:	68a6      	ldr	r6, [r4, #8]
 800a4e4:	609e      	str	r6, [r3, #8]
 800a4e6:	68e6      	ldr	r6, [r4, #12]
 800a4e8:	3d10      	subs	r5, #16
 800a4ea:	60de      	str	r6, [r3, #12]
 800a4ec:	3410      	adds	r4, #16
 800a4ee:	3310      	adds	r3, #16
 800a4f0:	2d0f      	cmp	r5, #15
 800a4f2:	d914      	bls.n	800a51e <memmove+0xd2>
 800a4f4:	6826      	ldr	r6, [r4, #0]
 800a4f6:	601e      	str	r6, [r3, #0]
 800a4f8:	6866      	ldr	r6, [r4, #4]
 800a4fa:	605e      	str	r6, [r3, #4]
 800a4fc:	68a6      	ldr	r6, [r4, #8]
 800a4fe:	609e      	str	r6, [r3, #8]
 800a500:	68e6      	ldr	r6, [r4, #12]
 800a502:	60de      	str	r6, [r3, #12]
 800a504:	6926      	ldr	r6, [r4, #16]
 800a506:	611e      	str	r6, [r3, #16]
 800a508:	6966      	ldr	r6, [r4, #20]
 800a50a:	615e      	str	r6, [r3, #20]
 800a50c:	69a6      	ldr	r6, [r4, #24]
 800a50e:	619e      	str	r6, [r3, #24]
 800a510:	69e6      	ldr	r6, [r4, #28]
 800a512:	3d20      	subs	r5, #32
 800a514:	61de      	str	r6, [r3, #28]
 800a516:	3420      	adds	r4, #32
 800a518:	3320      	adds	r3, #32
 800a51a:	2d0f      	cmp	r5, #15
 800a51c:	d8ea      	bhi.n	800a4f4 <memmove+0xa8>
 800a51e:	f1a2 0310 	sub.w	r3, r2, #16
 800a522:	f023 040f 	bic.w	r4, r3, #15
 800a526:	f002 030f 	and.w	r3, r2, #15
 800a52a:	3410      	adds	r4, #16
 800a52c:	2b03      	cmp	r3, #3
 800a52e:	eb00 0804 	add.w	r8, r0, r4
 800a532:	4421      	add	r1, r4
 800a534:	d952      	bls.n	800a5dc <memmove+0x190>
 800a536:	f1a3 0904 	sub.w	r9, r3, #4
 800a53a:	460b      	mov	r3, r1
 800a53c:	ea4f 0999 	mov.w	r9, r9, lsr #2
 800a540:	eb01 0c89 	add.w	ip, r1, r9, lsl #2
 800a544:	f853 6b04 	ldr.w	r6, [r3], #4
 800a548:	ebc1 050c 	rsb	r5, r1, ip
 800a54c:	4644      	mov	r4, r8
 800a54e:	f10c 0c04 	add.w	ip, ip, #4
 800a552:	4563      	cmp	r3, ip
 800a554:	f844 6b04 	str.w	r6, [r4], #4
 800a558:	f3c5 0580 	ubfx	r5, r5, #2, #1
 800a55c:	d012      	beq.n	800a584 <memmove+0x138>
 800a55e:	b12d      	cbz	r5, 800a56c <memmove+0x120>
 800a560:	f853 5b04 	ldr.w	r5, [r3], #4
 800a564:	4563      	cmp	r3, ip
 800a566:	f844 5b04 	str.w	r5, [r4], #4
 800a56a:	d00b      	beq.n	800a584 <memmove+0x138>
 800a56c:	461e      	mov	r6, r3
 800a56e:	4625      	mov	r5, r4
 800a570:	f856 7b04 	ldr.w	r7, [r6], #4
 800a574:	f845 7b04 	str.w	r7, [r5], #4
 800a578:	685f      	ldr	r7, [r3, #4]
 800a57a:	1d33      	adds	r3, r6, #4
 800a57c:	6067      	str	r7, [r4, #4]
 800a57e:	1d2c      	adds	r4, r5, #4
 800a580:	4563      	cmp	r3, ip
 800a582:	d1f3      	bne.n	800a56c <memmove+0x120>
 800a584:	f109 0301 	add.w	r3, r9, #1
 800a588:	009c      	lsls	r4, r3, #2
 800a58a:	1909      	adds	r1, r1, r4
 800a58c:	f002 0203 	and.w	r2, r2, #3
 800a590:	4444      	add	r4, r8
 800a592:	2a00      	cmp	r2, #0
 800a594:	d082      	beq.n	800a49c <memmove+0x50>
 800a596:	4623      	mov	r3, r4
 800a598:	780d      	ldrb	r5, [r1, #0]
 800a59a:	f803 5b01 	strb.w	r5, [r3], #1
 800a59e:	18a2      	adds	r2, r4, r2
 800a5a0:	43e4      	mvns	r4, r4
 800a5a2:	1914      	adds	r4, r2, r4
 800a5a4:	4293      	cmp	r3, r2
 800a5a6:	f004 0401 	and.w	r4, r4, #1
 800a5aa:	f43f af77 	beq.w	800a49c <memmove+0x50>
 800a5ae:	b134      	cbz	r4, 800a5be <memmove+0x172>
 800a5b0:	f811 4f01 	ldrb.w	r4, [r1, #1]!
 800a5b4:	f803 4b01 	strb.w	r4, [r3], #1
 800a5b8:	4293      	cmp	r3, r2
 800a5ba:	f43f af6f 	beq.w	800a49c <memmove+0x50>
 800a5be:	784d      	ldrb	r5, [r1, #1]
 800a5c0:	461c      	mov	r4, r3
 800a5c2:	f804 5b01 	strb.w	r5, [r4], #1
 800a5c6:	788d      	ldrb	r5, [r1, #2]
 800a5c8:	705d      	strb	r5, [r3, #1]
 800a5ca:	1c63      	adds	r3, r4, #1
 800a5cc:	3102      	adds	r1, #2
 800a5ce:	4293      	cmp	r3, r2
 800a5d0:	d1f5      	bne.n	800a5be <memmove+0x172>
 800a5d2:	e763      	b.n	800a49c <memmove+0x50>
 800a5d4:	4604      	mov	r4, r0
 800a5d6:	e7dc      	b.n	800a592 <memmove+0x146>
 800a5d8:	4604      	mov	r4, r0
 800a5da:	e7dc      	b.n	800a596 <memmove+0x14a>
 800a5dc:	4644      	mov	r4, r8
 800a5de:	461a      	mov	r2, r3
 800a5e0:	e7d7      	b.n	800a592 <memmove+0x146>
 800a5e2:	bf00      	nop

0800a5e4 <_realloc_r>:
 800a5e4:	e92d 4ff0 	stmdb	sp!, {r4, r5, r6, r7, r8, r9, sl, fp, lr}
 800a5e8:	460c      	mov	r4, r1
 800a5ea:	b083      	sub	sp, #12
 800a5ec:	4681      	mov	r9, r0
 800a5ee:	4617      	mov	r7, r2
 800a5f0:	2900      	cmp	r1, #0
 800a5f2:	f000 80c5 	beq.w	800a780 <_realloc_r+0x19c>
 800a5f6:	f7fd fe15 	bl	8008224 <__malloc_lock>
 800a5fa:	f107 050b 	add.w	r5, r7, #11
 800a5fe:	f854 3c04 	ldr.w	r3, [r4, #-4]
 800a602:	2d16      	cmp	r5, #22
 800a604:	f1a4 0a08 	sub.w	sl, r4, #8
 800a608:	f023 0603 	bic.w	r6, r3, #3
 800a60c:	d84f      	bhi.n	800a6ae <_realloc_r+0xca>
 800a60e:	2110      	movs	r1, #16
 800a610:	460d      	mov	r5, r1
 800a612:	42af      	cmp	r7, r5
 800a614:	d850      	bhi.n	800a6b8 <_realloc_r+0xd4>
 800a616:	428e      	cmp	r6, r1
 800a618:	da53      	bge.n	800a6c2 <_realloc_r+0xde>
 800a61a:	f8df c3a0 	ldr.w	ip, [pc, #928]	; 800a9bc <_realloc_r+0x3d8>
 800a61e:	f8dc 0008 	ldr.w	r0, [ip, #8]
 800a622:	eb0a 0206 	add.w	r2, sl, r6
 800a626:	4290      	cmp	r0, r2
 800a628:	f000 80b0 	beq.w	800a78c <_realloc_r+0x1a8>
 800a62c:	f8d2 e004 	ldr.w	lr, [r2, #4]
 800a630:	f02e 0801 	bic.w	r8, lr, #1
 800a634:	4490      	add	r8, r2
 800a636:	f8d8 8004 	ldr.w	r8, [r8, #4]
 800a63a:	f018 0f01 	tst.w	r8, #1
 800a63e:	d059      	beq.n	800a6f4 <_realloc_r+0x110>
 800a640:	f04f 0e00 	mov.w	lr, #0
 800a644:	4672      	mov	r2, lr
 800a646:	07db      	lsls	r3, r3, #31
 800a648:	d476      	bmi.n	800a738 <_realloc_r+0x154>
 800a64a:	f854 3c08 	ldr.w	r3, [r4, #-8]
 800a64e:	ebc3 0b0a 	rsb	fp, r3, sl
 800a652:	f8db 3004 	ldr.w	r3, [fp, #4]
 800a656:	f023 0303 	bic.w	r3, r3, #3
 800a65a:	199b      	adds	r3, r3, r6
 800a65c:	9301      	str	r3, [sp, #4]
 800a65e:	2a00      	cmp	r2, #0
 800a660:	d067      	beq.n	800a732 <_realloc_r+0x14e>
 800a662:	4282      	cmp	r2, r0
 800a664:	eb0e 0803 	add.w	r8, lr, r3
 800a668:	f000 80f1 	beq.w	800a84e <_realloc_r+0x26a>
 800a66c:	4588      	cmp	r8, r1
 800a66e:	db60      	blt.n	800a732 <_realloc_r+0x14e>
 800a670:	68d1      	ldr	r1, [r2, #12]
 800a672:	6890      	ldr	r0, [r2, #8]
 800a674:	465f      	mov	r7, fp
 800a676:	60c1      	str	r1, [r0, #12]
 800a678:	6088      	str	r0, [r1, #8]
 800a67a:	f8db 300c 	ldr.w	r3, [fp, #12]
 800a67e:	f857 1f08 	ldr.w	r1, [r7, #8]!
 800a682:	1f32      	subs	r2, r6, #4
 800a684:	2a24      	cmp	r2, #36	; 0x24
 800a686:	60cb      	str	r3, [r1, #12]
 800a688:	6099      	str	r1, [r3, #8]
 800a68a:	f200 812a 	bhi.w	800a8e2 <_realloc_r+0x2fe>
 800a68e:	2a13      	cmp	r2, #19
 800a690:	f240 80b9 	bls.w	800a806 <_realloc_r+0x222>
 800a694:	6823      	ldr	r3, [r4, #0]
 800a696:	f8cb 3008 	str.w	r3, [fp, #8]
 800a69a:	6861      	ldr	r1, [r4, #4]
 800a69c:	2a1b      	cmp	r2, #27
 800a69e:	f8cb 100c 	str.w	r1, [fp, #12]
 800a6a2:	f200 8134 	bhi.w	800a90e <_realloc_r+0x32a>
 800a6a6:	f10b 0010 	add.w	r0, fp, #16
 800a6aa:	3408      	adds	r4, #8
 800a6ac:	e0ac      	b.n	800a808 <_realloc_r+0x224>
 800a6ae:	f025 0507 	bic.w	r5, r5, #7
 800a6b2:	2d00      	cmp	r5, #0
 800a6b4:	4629      	mov	r1, r5
 800a6b6:	daac      	bge.n	800a612 <_realloc_r+0x2e>
 800a6b8:	270c      	movs	r7, #12
 800a6ba:	f8c9 7000 	str.w	r7, [r9]
 800a6be:	2700      	movs	r7, #0
 800a6c0:	e014      	b.n	800a6ec <_realloc_r+0x108>
 800a6c2:	46b0      	mov	r8, r6
 800a6c4:	ebc5 0708 	rsb	r7, r5, r8
 800a6c8:	2f0f      	cmp	r7, #15
 800a6ca:	d81e      	bhi.n	800a70a <_realloc_r+0x126>
 800a6cc:	f003 0301 	and.w	r3, r3, #1
 800a6d0:	eb0a 0108 	add.w	r1, sl, r8
 800a6d4:	ea43 0008 	orr.w	r0, r3, r8
 800a6d8:	f8ca 0004 	str.w	r0, [sl, #4]
 800a6dc:	684a      	ldr	r2, [r1, #4]
 800a6de:	f042 0701 	orr.w	r7, r2, #1
 800a6e2:	604f      	str	r7, [r1, #4]
 800a6e4:	4648      	mov	r0, r9
 800a6e6:	f7fd fd9f 	bl	8008228 <__malloc_unlock>
 800a6ea:	4627      	mov	r7, r4
 800a6ec:	4638      	mov	r0, r7
 800a6ee:	b003      	add	sp, #12
 800a6f0:	e8bd 8ff0 	ldmia.w	sp!, {r4, r5, r6, r7, r8, r9, sl, fp, pc}
 800a6f4:	f02e 0e03 	bic.w	lr, lr, #3
 800a6f8:	eb0e 0806 	add.w	r8, lr, r6
 800a6fc:	4588      	cmp	r8, r1
 800a6fe:	dba2      	blt.n	800a646 <_realloc_r+0x62>
 800a700:	68d7      	ldr	r7, [r2, #12]
 800a702:	6892      	ldr	r2, [r2, #8]
 800a704:	60d7      	str	r7, [r2, #12]
 800a706:	60ba      	str	r2, [r7, #8]
 800a708:	e7dc      	b.n	800a6c4 <_realloc_r+0xe0>
 800a70a:	eb0a 0105 	add.w	r1, sl, r5
 800a70e:	f003 0301 	and.w	r3, r3, #1
 800a712:	19c8      	adds	r0, r1, r7
 800a714:	431d      	orrs	r5, r3
 800a716:	f047 0201 	orr.w	r2, r7, #1
 800a71a:	f8ca 5004 	str.w	r5, [sl, #4]
 800a71e:	604a      	str	r2, [r1, #4]
 800a720:	6847      	ldr	r7, [r0, #4]
 800a722:	f047 0301 	orr.w	r3, r7, #1
 800a726:	6043      	str	r3, [r0, #4]
 800a728:	3108      	adds	r1, #8
 800a72a:	4648      	mov	r0, r9
 800a72c:	f7ff fdc4 	bl	800a2b8 <_free_r>
 800a730:	e7d8      	b.n	800a6e4 <_realloc_r+0x100>
 800a732:	9b01      	ldr	r3, [sp, #4]
 800a734:	428b      	cmp	r3, r1
 800a736:	da34      	bge.n	800a7a2 <_realloc_r+0x1be>
 800a738:	4639      	mov	r1, r7
 800a73a:	4648      	mov	r0, r9
 800a73c:	f7fd fa24 	bl	8007b88 <_malloc_r>
 800a740:	4607      	mov	r7, r0
 800a742:	b1c8      	cbz	r0, 800a778 <_realloc_r+0x194>
 800a744:	f854 3c04 	ldr.w	r3, [r4, #-4]
 800a748:	f023 0201 	bic.w	r2, r3, #1
 800a74c:	f1a0 0108 	sub.w	r1, r0, #8
 800a750:	4452      	add	r2, sl
 800a752:	4291      	cmp	r1, r2
 800a754:	f000 80be 	beq.w	800a8d4 <_realloc_r+0x2f0>
 800a758:	1f32      	subs	r2, r6, #4
 800a75a:	2a24      	cmp	r2, #36	; 0x24
 800a75c:	d873      	bhi.n	800a846 <_realloc_r+0x262>
 800a75e:	2a13      	cmp	r2, #19
 800a760:	d846      	bhi.n	800a7f0 <_realloc_r+0x20c>
 800a762:	4623      	mov	r3, r4
 800a764:	6819      	ldr	r1, [r3, #0]
 800a766:	6001      	str	r1, [r0, #0]
 800a768:	685a      	ldr	r2, [r3, #4]
 800a76a:	6042      	str	r2, [r0, #4]
 800a76c:	689b      	ldr	r3, [r3, #8]
 800a76e:	6083      	str	r3, [r0, #8]
 800a770:	4648      	mov	r0, r9
 800a772:	4621      	mov	r1, r4
 800a774:	f7ff fda0 	bl	800a2b8 <_free_r>
 800a778:	4648      	mov	r0, r9
 800a77a:	f7fd fd55 	bl	8008228 <__malloc_unlock>
 800a77e:	e7b5      	b.n	800a6ec <_realloc_r+0x108>
 800a780:	4611      	mov	r1, r2
 800a782:	b003      	add	sp, #12
 800a784:	e8bd 4ff0 	ldmia.w	sp!, {r4, r5, r6, r7, r8, r9, sl, fp, lr}
 800a788:	f7fd b9fe 	b.w	8007b88 <_malloc_r>
 800a78c:	6842      	ldr	r2, [r0, #4]
 800a78e:	f022 0e03 	bic.w	lr, r2, #3
 800a792:	eb0e 0206 	add.w	r2, lr, r6
 800a796:	f105 0810 	add.w	r8, r5, #16
 800a79a:	4542      	cmp	r2, r8
 800a79c:	da3f      	bge.n	800a81e <_realloc_r+0x23a>
 800a79e:	4602      	mov	r2, r0
 800a7a0:	e751      	b.n	800a646 <_realloc_r+0x62>
 800a7a2:	465f      	mov	r7, fp
 800a7a4:	f8db 000c 	ldr.w	r0, [fp, #12]
 800a7a8:	f857 1f08 	ldr.w	r1, [r7, #8]!
 800a7ac:	1f32      	subs	r2, r6, #4
 800a7ae:	2a24      	cmp	r2, #36	; 0x24
 800a7b0:	60c8      	str	r0, [r1, #12]
 800a7b2:	6081      	str	r1, [r0, #8]
 800a7b4:	f200 80a0 	bhi.w	800a8f8 <_realloc_r+0x314>
 800a7b8:	2a13      	cmp	r2, #19
 800a7ba:	f240 809b 	bls.w	800a8f4 <_realloc_r+0x310>
 800a7be:	6820      	ldr	r0, [r4, #0]
 800a7c0:	f8cb 0008 	str.w	r0, [fp, #8]
 800a7c4:	6861      	ldr	r1, [r4, #4]
 800a7c6:	2a1b      	cmp	r2, #27
 800a7c8:	f8cb 100c 	str.w	r1, [fp, #12]
 800a7cc:	f200 80b4 	bhi.w	800a938 <_realloc_r+0x354>
 800a7d0:	f10b 0310 	add.w	r3, fp, #16
 800a7d4:	3408      	adds	r4, #8
 800a7d6:	6820      	ldr	r0, [r4, #0]
 800a7d8:	f8dd 8004 	ldr.w	r8, [sp, #4]
 800a7dc:	6018      	str	r0, [r3, #0]
 800a7de:	6862      	ldr	r2, [r4, #4]
 800a7e0:	605a      	str	r2, [r3, #4]
 800a7e2:	68a4      	ldr	r4, [r4, #8]
 800a7e4:	609c      	str	r4, [r3, #8]
 800a7e6:	f8db 3004 	ldr.w	r3, [fp, #4]
 800a7ea:	463c      	mov	r4, r7
 800a7ec:	46da      	mov	sl, fp
 800a7ee:	e769      	b.n	800a6c4 <_realloc_r+0xe0>
 800a7f0:	6821      	ldr	r1, [r4, #0]
 800a7f2:	6001      	str	r1, [r0, #0]
 800a7f4:	6860      	ldr	r0, [r4, #4]
 800a7f6:	2a1b      	cmp	r2, #27
 800a7f8:	6078      	str	r0, [r7, #4]
 800a7fa:	d860      	bhi.n	800a8be <_realloc_r+0x2da>
 800a7fc:	f107 0008 	add.w	r0, r7, #8
 800a800:	f104 0308 	add.w	r3, r4, #8
 800a804:	e7ae      	b.n	800a764 <_realloc_r+0x180>
 800a806:	4638      	mov	r0, r7
 800a808:	6823      	ldr	r3, [r4, #0]
 800a80a:	6003      	str	r3, [r0, #0]
 800a80c:	6862      	ldr	r2, [r4, #4]
 800a80e:	6042      	str	r2, [r0, #4]
 800a810:	68a4      	ldr	r4, [r4, #8]
 800a812:	6084      	str	r4, [r0, #8]
 800a814:	f8db 3004 	ldr.w	r3, [fp, #4]
 800a818:	463c      	mov	r4, r7
 800a81a:	46da      	mov	sl, fp
 800a81c:	e752      	b.n	800a6c4 <_realloc_r+0xe0>
 800a81e:	eb0a 0705 	add.w	r7, sl, r5
 800a822:	1b50      	subs	r0, r2, r5
 800a824:	f040 0201 	orr.w	r2, r0, #1
 800a828:	607a      	str	r2, [r7, #4]
 800a82a:	f854 1c04 	ldr.w	r1, [r4, #-4]
 800a82e:	f8cc 7008 	str.w	r7, [ip, #8]
 800a832:	f001 0301 	and.w	r3, r1, #1
 800a836:	431d      	orrs	r5, r3
 800a838:	f844 5c04 	str.w	r5, [r4, #-4]
 800a83c:	4648      	mov	r0, r9
 800a83e:	f7fd fcf3 	bl	8008228 <__malloc_unlock>
 800a842:	4627      	mov	r7, r4
 800a844:	e752      	b.n	800a6ec <_realloc_r+0x108>
 800a846:	4621      	mov	r1, r4
 800a848:	f7ff fe00 	bl	800a44c <memmove>
 800a84c:	e790      	b.n	800a770 <_realloc_r+0x18c>
 800a84e:	f105 0010 	add.w	r0, r5, #16
 800a852:	4580      	cmp	r8, r0
 800a854:	f6ff af6d 	blt.w	800a732 <_realloc_r+0x14e>
 800a858:	465f      	mov	r7, fp
 800a85a:	f8db 000c 	ldr.w	r0, [fp, #12]
 800a85e:	f857 1f08 	ldr.w	r1, [r7, #8]!
 800a862:	1f32      	subs	r2, r6, #4
 800a864:	2a24      	cmp	r2, #36	; 0x24
 800a866:	60c8      	str	r0, [r1, #12]
 800a868:	6081      	str	r1, [r0, #8]
 800a86a:	f200 8087 	bhi.w	800a97c <_realloc_r+0x398>
 800a86e:	2a13      	cmp	r2, #19
 800a870:	d978      	bls.n	800a964 <_realloc_r+0x380>
 800a872:	6820      	ldr	r0, [r4, #0]
 800a874:	f8cb 0008 	str.w	r0, [fp, #8]
 800a878:	6861      	ldr	r1, [r4, #4]
 800a87a:	2a1b      	cmp	r2, #27
 800a87c:	f8cb 100c 	str.w	r1, [fp, #12]
 800a880:	f200 8085 	bhi.w	800a98e <_realloc_r+0x3aa>
 800a884:	f10b 0310 	add.w	r3, fp, #16
 800a888:	3408      	adds	r4, #8
 800a88a:	6820      	ldr	r0, [r4, #0]
 800a88c:	6018      	str	r0, [r3, #0]
 800a88e:	6862      	ldr	r2, [r4, #4]
 800a890:	605a      	str	r2, [r3, #4]
 800a892:	68a1      	ldr	r1, [r4, #8]
 800a894:	6099      	str	r1, [r3, #8]
 800a896:	eb0b 0305 	add.w	r3, fp, r5
 800a89a:	ebc5 0008 	rsb	r0, r5, r8
 800a89e:	f040 0201 	orr.w	r2, r0, #1
 800a8a2:	605a      	str	r2, [r3, #4]
 800a8a4:	f8db 1004 	ldr.w	r1, [fp, #4]
 800a8a8:	f8cc 3008 	str.w	r3, [ip, #8]
 800a8ac:	f001 0301 	and.w	r3, r1, #1
 800a8b0:	431d      	orrs	r5, r3
 800a8b2:	f8cb 5004 	str.w	r5, [fp, #4]
 800a8b6:	4648      	mov	r0, r9
 800a8b8:	f7fd fcb6 	bl	8008228 <__malloc_unlock>
 800a8bc:	e716      	b.n	800a6ec <_realloc_r+0x108>
 800a8be:	68a3      	ldr	r3, [r4, #8]
 800a8c0:	60bb      	str	r3, [r7, #8]
 800a8c2:	68e1      	ldr	r1, [r4, #12]
 800a8c4:	2a24      	cmp	r2, #36	; 0x24
 800a8c6:	60f9      	str	r1, [r7, #12]
 800a8c8:	d02d      	beq.n	800a926 <_realloc_r+0x342>
 800a8ca:	f107 0010 	add.w	r0, r7, #16
 800a8ce:	f104 0310 	add.w	r3, r4, #16
 800a8d2:	e747      	b.n	800a764 <_realloc_r+0x180>
 800a8d4:	f850 7c04 	ldr.w	r7, [r0, #-4]
 800a8d8:	f027 0c03 	bic.w	ip, r7, #3
 800a8dc:	eb0c 0806 	add.w	r8, ip, r6
 800a8e0:	e6f0      	b.n	800a6c4 <_realloc_r+0xe0>
 800a8e2:	4621      	mov	r1, r4
 800a8e4:	4638      	mov	r0, r7
 800a8e6:	f7ff fdb1 	bl	800a44c <memmove>
 800a8ea:	463c      	mov	r4, r7
 800a8ec:	f8db 3004 	ldr.w	r3, [fp, #4]
 800a8f0:	46da      	mov	sl, fp
 800a8f2:	e6e7      	b.n	800a6c4 <_realloc_r+0xe0>
 800a8f4:	463b      	mov	r3, r7
 800a8f6:	e76e      	b.n	800a7d6 <_realloc_r+0x1f2>
 800a8f8:	4621      	mov	r1, r4
 800a8fa:	4638      	mov	r0, r7
 800a8fc:	f7ff fda6 	bl	800a44c <memmove>
 800a900:	463c      	mov	r4, r7
 800a902:	f8db 3004 	ldr.w	r3, [fp, #4]
 800a906:	f8dd 8004 	ldr.w	r8, [sp, #4]
 800a90a:	46da      	mov	sl, fp
 800a90c:	e6da      	b.n	800a6c4 <_realloc_r+0xe0>
 800a90e:	68a0      	ldr	r0, [r4, #8]
 800a910:	f8cb 0010 	str.w	r0, [fp, #16]
 800a914:	68e3      	ldr	r3, [r4, #12]
 800a916:	2a24      	cmp	r2, #36	; 0x24
 800a918:	f8cb 3014 	str.w	r3, [fp, #20]
 800a91c:	d018      	beq.n	800a950 <_realloc_r+0x36c>
 800a91e:	f10b 0018 	add.w	r0, fp, #24
 800a922:	3410      	adds	r4, #16
 800a924:	e770      	b.n	800a808 <_realloc_r+0x224>
 800a926:	6922      	ldr	r2, [r4, #16]
 800a928:	613a      	str	r2, [r7, #16]
 800a92a:	6963      	ldr	r3, [r4, #20]
 800a92c:	f107 0018 	add.w	r0, r7, #24
 800a930:	617b      	str	r3, [r7, #20]
 800a932:	f104 0318 	add.w	r3, r4, #24
 800a936:	e715      	b.n	800a764 <_realloc_r+0x180>
 800a938:	68a3      	ldr	r3, [r4, #8]
 800a93a:	f8cb 3010 	str.w	r3, [fp, #16]
 800a93e:	68e0      	ldr	r0, [r4, #12]
 800a940:	2a24      	cmp	r2, #36	; 0x24
 800a942:	f8cb 0014 	str.w	r0, [fp, #20]
 800a946:	d00f      	beq.n	800a968 <_realloc_r+0x384>
 800a948:	f10b 0318 	add.w	r3, fp, #24
 800a94c:	3410      	adds	r4, #16
 800a94e:	e742      	b.n	800a7d6 <_realloc_r+0x1f2>
 800a950:	6922      	ldr	r2, [r4, #16]
 800a952:	f8cb 2018 	str.w	r2, [fp, #24]
 800a956:	6961      	ldr	r1, [r4, #20]
 800a958:	f10b 0020 	add.w	r0, fp, #32
 800a95c:	f8cb 101c 	str.w	r1, [fp, #28]
 800a960:	3418      	adds	r4, #24
 800a962:	e751      	b.n	800a808 <_realloc_r+0x224>
 800a964:	463b      	mov	r3, r7
 800a966:	e790      	b.n	800a88a <_realloc_r+0x2a6>
 800a968:	6922      	ldr	r2, [r4, #16]
 800a96a:	f8cb 2018 	str.w	r2, [fp, #24]
 800a96e:	6961      	ldr	r1, [r4, #20]
 800a970:	f10b 0320 	add.w	r3, fp, #32
 800a974:	f8cb 101c 	str.w	r1, [fp, #28]
 800a978:	3418      	adds	r4, #24
 800a97a:	e72c      	b.n	800a7d6 <_realloc_r+0x1f2>
 800a97c:	4638      	mov	r0, r7
 800a97e:	4621      	mov	r1, r4
 800a980:	f8cd c000 	str.w	ip, [sp]
 800a984:	f7ff fd62 	bl	800a44c <memmove>
 800a988:	f8dd c000 	ldr.w	ip, [sp]
 800a98c:	e783      	b.n	800a896 <_realloc_r+0x2b2>
 800a98e:	68a3      	ldr	r3, [r4, #8]
 800a990:	f8cb 3010 	str.w	r3, [fp, #16]
 800a994:	68e0      	ldr	r0, [r4, #12]
 800a996:	2a24      	cmp	r2, #36	; 0x24
 800a998:	f8cb 0014 	str.w	r0, [fp, #20]
 800a99c:	d003      	beq.n	800a9a6 <_realloc_r+0x3c2>
 800a99e:	f10b 0318 	add.w	r3, fp, #24
 800a9a2:	3410      	adds	r4, #16
 800a9a4:	e771      	b.n	800a88a <_realloc_r+0x2a6>
 800a9a6:	6922      	ldr	r2, [r4, #16]
 800a9a8:	f8cb 2018 	str.w	r2, [fp, #24]
 800a9ac:	6961      	ldr	r1, [r4, #20]
 800a9ae:	f10b 0320 	add.w	r3, fp, #32
 800a9b2:	f8cb 101c 	str.w	r1, [fp, #28]
 800a9b6:	3418      	adds	r4, #24
 800a9b8:	e767      	b.n	800a88a <_realloc_r+0x2a6>
 800a9ba:	bf00      	nop
 800a9bc:	100004f4 	.word	0x100004f4

0800a9c0 <cleanup_glue>:
 800a9c0:	b538      	push	{r3, r4, r5, lr}
 800a9c2:	460c      	mov	r4, r1
 800a9c4:	6809      	ldr	r1, [r1, #0]
 800a9c6:	4605      	mov	r5, r0
 800a9c8:	b109      	cbz	r1, 800a9ce <cleanup_glue+0xe>
 800a9ca:	f7ff fff9 	bl	800a9c0 <cleanup_glue>
 800a9ce:	4628      	mov	r0, r5
 800a9d0:	4621      	mov	r1, r4
 800a9d2:	e8bd 4038 	ldmia.w	sp!, {r3, r4, r5, lr}
 800a9d6:	f7ff bc6f 	b.w	800a2b8 <_free_r>
 800a9da:	bf00      	nop

0800a9dc <_reclaim_reent>:
 800a9dc:	4b21      	ldr	r3, [pc, #132]	; (800aa64 <_reclaim_reent+0x88>)
 800a9de:	6819      	ldr	r1, [r3, #0]
 800a9e0:	4288      	cmp	r0, r1
 800a9e2:	b570      	push	{r4, r5, r6, lr}
 800a9e4:	4605      	mov	r5, r0
 800a9e6:	d030      	beq.n	800aa4a <_reclaim_reent+0x6e>
 800a9e8:	6cc2      	ldr	r2, [r0, #76]	; 0x4c
 800a9ea:	b1a2      	cbz	r2, 800aa16 <_reclaim_reent+0x3a>
 800a9ec:	2000      	movs	r0, #0
 800a9ee:	4606      	mov	r6, r0
 800a9f0:	f852 1020 	ldr.w	r1, [r2, r0, lsl #2]
 800a9f4:	b139      	cbz	r1, 800aa06 <_reclaim_reent+0x2a>
 800a9f6:	680c      	ldr	r4, [r1, #0]
 800a9f8:	4628      	mov	r0, r5
 800a9fa:	f7ff fc5d 	bl	800a2b8 <_free_r>
 800a9fe:	4621      	mov	r1, r4
 800aa00:	2c00      	cmp	r4, #0
 800aa02:	d1f8      	bne.n	800a9f6 <_reclaim_reent+0x1a>
 800aa04:	6cea      	ldr	r2, [r5, #76]	; 0x4c
 800aa06:	3601      	adds	r6, #1
 800aa08:	2e20      	cmp	r6, #32
 800aa0a:	4630      	mov	r0, r6
 800aa0c:	d1f0      	bne.n	800a9f0 <_reclaim_reent+0x14>
 800aa0e:	4628      	mov	r0, r5
 800aa10:	4611      	mov	r1, r2
 800aa12:	f7ff fc51 	bl	800a2b8 <_free_r>
 800aa16:	6c29      	ldr	r1, [r5, #64]	; 0x40
 800aa18:	b111      	cbz	r1, 800aa20 <_reclaim_reent+0x44>
 800aa1a:	4628      	mov	r0, r5
 800aa1c:	f7ff fc4c 	bl	800a2b8 <_free_r>
 800aa20:	f8d5 1148 	ldr.w	r1, [r5, #328]	; 0x148
 800aa24:	b151      	cbz	r1, 800aa3c <_reclaim_reent+0x60>
 800aa26:	f505 76a6 	add.w	r6, r5, #332	; 0x14c
 800aa2a:	42b1      	cmp	r1, r6
 800aa2c:	d006      	beq.n	800aa3c <_reclaim_reent+0x60>
 800aa2e:	680c      	ldr	r4, [r1, #0]
 800aa30:	4628      	mov	r0, r5
 800aa32:	f7ff fc41 	bl	800a2b8 <_free_r>
 800aa36:	42a6      	cmp	r6, r4
 800aa38:	4621      	mov	r1, r4
 800aa3a:	d1f8      	bne.n	800aa2e <_reclaim_reent+0x52>
 800aa3c:	6d69      	ldr	r1, [r5, #84]	; 0x54
 800aa3e:	b111      	cbz	r1, 800aa46 <_reclaim_reent+0x6a>
 800aa40:	4628      	mov	r0, r5
 800aa42:	f7ff fc39 	bl	800a2b8 <_free_r>
 800aa46:	6bab      	ldr	r3, [r5, #56]	; 0x38
 800aa48:	b903      	cbnz	r3, 800aa4c <_reclaim_reent+0x70>
 800aa4a:	bd70      	pop	{r4, r5, r6, pc}
 800aa4c:	6be9      	ldr	r1, [r5, #60]	; 0x3c
 800aa4e:	4628      	mov	r0, r5
 800aa50:	4788      	blx	r1
 800aa52:	f8d5 12e0 	ldr.w	r1, [r5, #736]	; 0x2e0
 800aa56:	2900      	cmp	r1, #0
 800aa58:	d0f7      	beq.n	800aa4a <_reclaim_reent+0x6e>
 800aa5a:	4628      	mov	r0, r5
 800aa5c:	e8bd 4070 	ldmia.w	sp!, {r4, r5, r6, lr}
 800aa60:	f7ff bfae 	b.w	800a9c0 <cleanup_glue>
 800aa64:	10000470 	.word	0x10000470

0800aa68 <_wrapup_reent>:
 800aa68:	e92d 43f8 	stmdb	sp!, {r3, r4, r5, r6, r7, r8, r9, lr}
 800aa6c:	4680      	mov	r8, r0
 800aa6e:	2800      	cmp	r0, #0
 800aa70:	d02e      	beq.n	800aad0 <_wrapup_reent+0x68>
 800aa72:	f8d8 7148 	ldr.w	r7, [r8, #328]	; 0x148
 800aa76:	b317      	cbz	r7, 800aabe <_wrapup_reent+0x56>
 800aa78:	687c      	ldr	r4, [r7, #4]
 800aa7a:	1e65      	subs	r5, r4, #1
 800aa7c:	d41c      	bmi.n	800aab8 <_wrapup_reent+0x50>
 800aa7e:	3402      	adds	r4, #2
 800aa80:	eb07 0484 	add.w	r4, r7, r4, lsl #2
 800aa84:	f005 0901 	and.w	r9, r5, #1
 800aa88:	f854 0d04 	ldr.w	r0, [r4, #-4]!
 800aa8c:	4780      	blx	r0
 800aa8e:	1e6e      	subs	r6, r5, #1
 800aa90:	b195      	cbz	r5, 800aab8 <_wrapup_reent+0x50>
 800aa92:	f1b9 0f00 	cmp.w	r9, #0
 800aa96:	d005      	beq.n	800aaa4 <_wrapup_reent+0x3c>
 800aa98:	f854 1d04 	ldr.w	r1, [r4, #-4]!
 800aa9c:	3e01      	subs	r6, #1
 800aa9e:	4788      	blx	r1
 800aaa0:	1c73      	adds	r3, r6, #1
 800aaa2:	d009      	beq.n	800aab8 <_wrapup_reent+0x50>
 800aaa4:	f854 2d04 	ldr.w	r2, [r4, #-4]!
 800aaa8:	4790      	blx	r2
 800aaaa:	1e75      	subs	r5, r6, #1
 800aaac:	f854 3d04 	ldr.w	r3, [r4, #-4]!
 800aab0:	4798      	blx	r3
 800aab2:	3e02      	subs	r6, #2
 800aab4:	2d00      	cmp	r5, #0
 800aab6:	d1f5      	bne.n	800aaa4 <_wrapup_reent+0x3c>
 800aab8:	683f      	ldr	r7, [r7, #0]
 800aaba:	2f00      	cmp	r7, #0
 800aabc:	d1dc      	bne.n	800aa78 <_wrapup_reent+0x10>
 800aabe:	f8d8 103c 	ldr.w	r1, [r8, #60]	; 0x3c
 800aac2:	b119      	cbz	r1, 800aacc <_wrapup_reent+0x64>
 800aac4:	4640      	mov	r0, r8
 800aac6:	4788      	blx	r1
 800aac8:	e8bd 83f8 	ldmia.w	sp!, {r3, r4, r5, r6, r7, r8, r9, pc}
 800aacc:	e8bd 83f8 	ldmia.w	sp!, {r3, r4, r5, r6, r7, r8, r9, pc}
 800aad0:	4b01      	ldr	r3, [pc, #4]	; (800aad8 <_wrapup_reent+0x70>)
 800aad2:	f8d3 8000 	ldr.w	r8, [r3]
 800aad6:	e7cc      	b.n	800aa72 <_wrapup_reent+0xa>
 800aad8:	10000470 	.word	0x10000470
 800aadc:	00000000 	.word	0x00000000

0800aae0 <cos>:
 800aae0:	b500      	push	{lr}
 800aae2:	ec53 2b10 	vmov	r2, r3, d0
 800aae6:	f242 12fb 	movw	r2, #8699	; 0x21fb
 800aaea:	f023 4300 	bic.w	r3, r3, #2147483648	; 0x80000000
 800aaee:	f6c3 72e9 	movt	r2, #16361	; 0x3fe9
 800aaf2:	4293      	cmp	r3, r2
 800aaf4:	b085      	sub	sp, #20
 800aaf6:	dd27      	ble.n	800ab48 <cos+0x68>
 800aaf8:	f64f 70ff 	movw	r0, #65535	; 0xffff
 800aafc:	f6c7 70ef 	movt	r0, #32751	; 0x7fef
 800ab00:	4283      	cmp	r3, r0
 800ab02:	dd0c      	ble.n	800ab1e <cos+0x3e>
 800ab04:	ec51 0b10 	vmov	r0, r1, d0
 800ab08:	ee10 2a10 	vmov	r2, s0
 800ab0c:	460b      	mov	r3, r1
 800ab0e:	f7f7 f987 	bl	8001e20 <__aeabi_dsub>
 800ab12:	4602      	mov	r2, r0
 800ab14:	460b      	mov	r3, r1
 800ab16:	ec43 2b10 	vmov	d0, r2, r3
 800ab1a:	b005      	add	sp, #20
 800ab1c:	bd00      	pop	{pc}
 800ab1e:	4668      	mov	r0, sp
 800ab20:	f001 f8ee 	bl	800bd00 <__ieee754_rem_pio2>
 800ab24:	f000 0003 	and.w	r0, r0, #3
 800ab28:	2801      	cmp	r0, #1
 800ab2a:	ed9d 0b00 	vldr	d0, [sp]
 800ab2e:	ed9d 1b02 	vldr	d1, [sp, #8]
 800ab32:	d01b      	beq.n	800ab6c <cos+0x8c>
 800ab34:	2802      	cmp	r0, #2
 800ab36:	d010      	beq.n	800ab5a <cos+0x7a>
 800ab38:	bb08      	cbnz	r0, 800ab7e <cos+0x9e>
 800ab3a:	f001 fc39 	bl	800c3b0 <__kernel_cos>
 800ab3e:	ee10 0a10 	vmov	r0, s0
 800ab42:	ee10 1a90 	vmov	r1, s1
 800ab46:	e7e4      	b.n	800ab12 <cos+0x32>
 800ab48:	ed9f 1b11 	vldr	d1, [pc, #68]	; 800ab90 <cos+0xb0>
 800ab4c:	f001 fc30 	bl	800c3b0 <__kernel_cos>
 800ab50:	ee10 0a10 	vmov	r0, s0
 800ab54:	ee10 1a90 	vmov	r1, s1
 800ab58:	e7db      	b.n	800ab12 <cos+0x32>
 800ab5a:	f001 fc29 	bl	800c3b0 <__kernel_cos>
 800ab5e:	ee10 1a90 	vmov	r1, s1
 800ab62:	ee10 0a10 	vmov	r0, s0
 800ab66:	f101 4100 	add.w	r1, r1, #2147483648	; 0x80000000
 800ab6a:	e7d2      	b.n	800ab12 <cos+0x32>
 800ab6c:	f002 fc5c 	bl	800d428 <__kernel_sin>
 800ab70:	ee10 2a90 	vmov	r2, s1
 800ab74:	ee10 0a10 	vmov	r0, s0
 800ab78:	f102 4100 	add.w	r1, r2, #2147483648	; 0x80000000
 800ab7c:	e7c9      	b.n	800ab12 <cos+0x32>
 800ab7e:	2001      	movs	r0, #1
 800ab80:	f002 fc52 	bl	800d428 <__kernel_sin>
 800ab84:	ee10 0a10 	vmov	r0, s0
 800ab88:	ee10 1a90 	vmov	r1, s1
 800ab8c:	e7c1      	b.n	800ab12 <cos+0x32>
 800ab8e:	bf00      	nop
	...

0800ab98 <fminf>:
 800ab98:	b508      	push	{r3, lr}
 800ab9a:	ed2d 8b02 	vpush	{d8}
 800ab9e:	eef0 8a40 	vmov.f32	s17, s0
 800aba2:	eeb0 8a60 	vmov.f32	s16, s1
 800aba6:	f000 f813 	bl	800abd0 <__fpclassifyf>
 800abaa:	b920      	cbnz	r0, 800abb6 <fminf+0x1e>
 800abac:	eeb0 0a48 	vmov.f32	s0, s16
 800abb0:	ecbd 8b02 	vpop	{d8}
 800abb4:	bd08      	pop	{r3, pc}
 800abb6:	eeb0 0a48 	vmov.f32	s0, s16
 800abba:	f000 f809 	bl	800abd0 <__fpclassifyf>
 800abbe:	b120      	cbz	r0, 800abca <fminf+0x32>
 800abc0:	eef4 8ac8 	vcmpe.f32	s17, s16
 800abc4:	eef1 fa10 	vmrs	APSR_nzcv, fpscr
 800abc8:	d5f0      	bpl.n	800abac <fminf+0x14>
 800abca:	eeb0 8a68 	vmov.f32	s16, s17
 800abce:	e7ed      	b.n	800abac <fminf+0x14>

0800abd0 <__fpclassifyf>:
 800abd0:	ee10 3a10 	vmov	r3, s0
 800abd4:	b90b      	cbnz	r3, 800abda <__fpclassifyf+0xa>
 800abd6:	2002      	movs	r0, #2
 800abd8:	4770      	bx	lr
 800abda:	f1b3 4f00 	cmp.w	r3, #2147483648	; 0x80000000
 800abde:	d0fa      	beq.n	800abd6 <__fpclassifyf+0x6>
 800abe0:	f5a3 0100 	sub.w	r1, r3, #8388608	; 0x800000
 800abe4:	f06f 4201 	mvn.w	r2, #2164260864	; 0x81000000
 800abe8:	4291      	cmp	r1, r2
 800abea:	d801      	bhi.n	800abf0 <__fpclassifyf+0x20>
 800abec:	2004      	movs	r0, #4
 800abee:	4770      	bx	lr
 800abf0:	f103 41ff 	add.w	r1, r3, #2139095040	; 0x7f800000
 800abf4:	4291      	cmp	r1, r2
 800abf6:	d9f9      	bls.n	800abec <__fpclassifyf+0x1c>
 800abf8:	f64f 72fe 	movw	r2, #65534	; 0xfffe
 800abfc:	1e59      	subs	r1, r3, #1
 800abfe:	f2c0 027f 	movt	r2, #127	; 0x7f
 800ac02:	4291      	cmp	r1, r2
 800ac04:	d801      	bhi.n	800ac0a <__fpclassifyf+0x3a>
 800ac06:	2003      	movs	r0, #3
 800ac08:	4770      	bx	lr
 800ac0a:	f103 4100 	add.w	r1, r3, #2147483648	; 0x80000000
 800ac0e:	3901      	subs	r1, #1
 800ac10:	4291      	cmp	r1, r2
 800ac12:	d9f8      	bls.n	800ac06 <__fpclassifyf+0x36>
 800ac14:	f1b3 4fff 	cmp.w	r3, #2139095040	; 0x7f800000
 800ac18:	d005      	beq.n	800ac26 <__fpclassifyf+0x56>
 800ac1a:	f513 0f00 	cmn.w	r3, #8388608	; 0x800000
 800ac1e:	bf14      	ite	ne
 800ac20:	2000      	movne	r0, #0
 800ac22:	2001      	moveq	r0, #1
 800ac24:	4770      	bx	lr
 800ac26:	2001      	movs	r0, #1
 800ac28:	4770      	bx	lr
 800ac2a:	bf00      	nop

0800ac2c <atan2>:
 800ac2c:	f000 b9b4 	b.w	800af98 <__ieee754_atan2>

0800ac30 <pow>:
 800ac30:	b570      	push	{r4, r5, r6, lr}
 800ac32:	ed2d 8b06 	vpush	{d8-d10}
 800ac36:	eeb0 aa40 	vmov.f32	s20, s0
 800ac3a:	eef0 aa60 	vmov.f32	s21, s1
 800ac3e:	eeb0 9a41 	vmov.f32	s18, s2
 800ac42:	eef0 9a61 	vmov.f32	s19, s3
 800ac46:	4eab      	ldr	r6, [pc, #684]	; (800aef4 <pow+0x2c4>)
 800ac48:	b08a      	sub	sp, #40	; 0x28
 800ac4a:	f000 fab1 	bl	800b1b0 <__ieee754_pow>
 800ac4e:	f996 3000 	ldrsb.w	r3, [r6]
 800ac52:	eeb0 8a40 	vmov.f32	s16, s0
 800ac56:	eef0 8a60 	vmov.f32	s17, s1
 800ac5a:	3301      	adds	r3, #1
 800ac5c:	d006      	beq.n	800ac6c <pow+0x3c>
 800ac5e:	eeb0 0a49 	vmov.f32	s0, s18
 800ac62:	eef0 0a69 	vmov.f32	s1, s19
 800ac66:	f7fe fa03 	bl	8009070 <__fpclassifyd>
 800ac6a:	b938      	cbnz	r0, 800ac7c <pow+0x4c>
 800ac6c:	eeb0 0a48 	vmov.f32	s0, s16
 800ac70:	eef0 0a68 	vmov.f32	s1, s17
 800ac74:	b00a      	add	sp, #40	; 0x28
 800ac76:	ecbd 8b06 	vpop	{d8-d10}
 800ac7a:	bd70      	pop	{r4, r5, r6, pc}
 800ac7c:	eeb0 0a4a 	vmov.f32	s0, s20
 800ac80:	eef0 0a6a 	vmov.f32	s1, s21
 800ac84:	f7fe f9f4 	bl	8009070 <__fpclassifyd>
 800ac88:	4604      	mov	r4, r0
 800ac8a:	bb68      	cbnz	r0, 800ace8 <pow+0xb8>
 800ac8c:	ec51 0b19 	vmov	r0, r1, d9
 800ac90:	2200      	movs	r2, #0
 800ac92:	2300      	movs	r3, #0
 800ac94:	f7f7 fce0 	bl	8002658 <__aeabi_dcmpeq>
 800ac98:	2800      	cmp	r0, #0
 800ac9a:	d0e7      	beq.n	800ac6c <pow+0x3c>
 800ac9c:	2101      	movs	r1, #1
 800ac9e:	9100      	str	r1, [sp, #0]
 800aca0:	2100      	movs	r1, #0
 800aca2:	4a95      	ldr	r2, [pc, #596]	; (800aef8 <pow+0x2c8>)
 800aca4:	f996 3000 	ldrsb.w	r3, [r6]
 800aca8:	9201      	str	r2, [sp, #4]
 800acaa:	2000      	movs	r0, #0
 800acac:	f6c3 71f0 	movt	r1, #16368	; 0x3ff0
 800acb0:	ec41 0b17 	vmov	d7, r0, r1
 800acb4:	1c5a      	adds	r2, r3, #1
 800acb6:	9408      	str	r4, [sp, #32]
 800acb8:	ed8d ab02 	vstr	d10, [sp, #8]
 800acbc:	ed8d 9b04 	vstr	d9, [sp, #16]
 800acc0:	ed8d 7b06 	vstr	d7, [sp, #24]
 800acc4:	d00d      	beq.n	800ace2 <pow+0xb2>
 800acc6:	2b02      	cmp	r3, #2
 800acc8:	d00b      	beq.n	800ace2 <pow+0xb2>
 800acca:	4668      	mov	r0, sp
 800accc:	f002 fee4 	bl	800da98 <matherr>
 800acd0:	2800      	cmp	r0, #0
 800acd2:	f000 80a3 	beq.w	800ae1c <pow+0x1ec>
 800acd6:	9808      	ldr	r0, [sp, #32]
 800acd8:	b118      	cbz	r0, 800ace2 <pow+0xb2>
 800acda:	f7f9 fb47 	bl	800436c <__errno>
 800acde:	9a08      	ldr	r2, [sp, #32]
 800ace0:	6002      	str	r2, [r0, #0]
 800ace2:	ed9d 8b06 	vldr	d8, [sp, #24]
 800ace6:	e7c1      	b.n	800ac6c <pow+0x3c>
 800ace8:	ec51 0b1a 	vmov	r0, r1, d10
 800acec:	2200      	movs	r2, #0
 800acee:	2300      	movs	r3, #0
 800acf0:	f7f7 fcb2 	bl	8002658 <__aeabi_dcmpeq>
 800acf4:	b320      	cbz	r0, 800ad40 <pow+0x110>
 800acf6:	ec51 0b19 	vmov	r0, r1, d9
 800acfa:	2200      	movs	r2, #0
 800acfc:	2300      	movs	r3, #0
 800acfe:	f7f7 fcab 	bl	8002658 <__aeabi_dcmpeq>
 800ad02:	2800      	cmp	r0, #0
 800ad04:	d05c      	beq.n	800adc0 <pow+0x190>
 800ad06:	2101      	movs	r1, #1
 800ad08:	2000      	movs	r0, #0
 800ad0a:	9100      	str	r1, [sp, #0]
 800ad0c:	9008      	str	r0, [sp, #32]
 800ad0e:	2100      	movs	r1, #0
 800ad10:	2000      	movs	r0, #0
 800ad12:	4a79      	ldr	r2, [pc, #484]	; (800aef8 <pow+0x2c8>)
 800ad14:	f996 3000 	ldrsb.w	r3, [r6]
 800ad18:	9201      	str	r2, [sp, #4]
 800ad1a:	ec41 0b16 	vmov	d6, r0, r1
 800ad1e:	ed8d ab02 	vstr	d10, [sp, #8]
 800ad22:	ed8d 9b04 	vstr	d9, [sp, #16]
 800ad26:	ed8d 6b06 	vstr	d6, [sp, #24]
 800ad2a:	2b00      	cmp	r3, #0
 800ad2c:	d0cd      	beq.n	800acca <pow+0x9a>
 800ad2e:	2100      	movs	r1, #0
 800ad30:	2000      	movs	r0, #0
 800ad32:	f6c3 71f0 	movt	r1, #16368	; 0x3ff0
 800ad36:	ec41 0b18 	vmov	d8, r0, r1
 800ad3a:	ed8d 8b06 	vstr	d8, [sp, #24]
 800ad3e:	e7d0      	b.n	800ace2 <pow+0xb2>
 800ad40:	eeb0 0a48 	vmov.f32	s0, s16
 800ad44:	eef0 0a68 	vmov.f32	s1, s17
 800ad48:	f002 fe04 	bl	800d954 <finite>
 800ad4c:	4604      	mov	r4, r0
 800ad4e:	2800      	cmp	r0, #0
 800ad50:	d069      	beq.n	800ae26 <pow+0x1f6>
 800ad52:	ec51 0b18 	vmov	r0, r1, d8
 800ad56:	2200      	movs	r2, #0
 800ad58:	2300      	movs	r3, #0
 800ad5a:	f7f7 fc7d 	bl	8002658 <__aeabi_dcmpeq>
 800ad5e:	2800      	cmp	r0, #0
 800ad60:	d084      	beq.n	800ac6c <pow+0x3c>
 800ad62:	eeb0 0a4a 	vmov.f32	s0, s20
 800ad66:	eef0 0a6a 	vmov.f32	s1, s21
 800ad6a:	f002 fdf3 	bl	800d954 <finite>
 800ad6e:	2800      	cmp	r0, #0
 800ad70:	f43f af7c 	beq.w	800ac6c <pow+0x3c>
 800ad74:	eeb0 0a49 	vmov.f32	s0, s18
 800ad78:	eef0 0a69 	vmov.f32	s1, s19
 800ad7c:	f002 fdea 	bl	800d954 <finite>
 800ad80:	2800      	cmp	r0, #0
 800ad82:	f43f af73 	beq.w	800ac6c <pow+0x3c>
 800ad86:	2004      	movs	r0, #4
 800ad88:	2100      	movs	r1, #0
 800ad8a:	f996 3000 	ldrsb.w	r3, [r6]
 800ad8e:	9000      	str	r0, [sp, #0]
 800ad90:	9108      	str	r1, [sp, #32]
 800ad92:	2000      	movs	r0, #0
 800ad94:	2100      	movs	r1, #0
 800ad96:	4a58      	ldr	r2, [pc, #352]	; (800aef8 <pow+0x2c8>)
 800ad98:	ec41 0b17 	vmov	d7, r0, r1
 800ad9c:	2b02      	cmp	r3, #2
 800ad9e:	9201      	str	r2, [sp, #4]
 800ada0:	ed8d ab02 	vstr	d10, [sp, #8]
 800ada4:	ed8d 9b04 	vstr	d9, [sp, #16]
 800ada8:	ed8d 7b06 	vstr	d7, [sp, #24]
 800adac:	d070      	beq.n	800ae90 <pow+0x260>
 800adae:	4668      	mov	r0, sp
 800adb0:	f002 fe72 	bl	800da98 <matherr>
 800adb4:	2800      	cmp	r0, #0
 800adb6:	d06b      	beq.n	800ae90 <pow+0x260>
 800adb8:	9808      	ldr	r0, [sp, #32]
 800adba:	2800      	cmp	r0, #0
 800adbc:	d091      	beq.n	800ace2 <pow+0xb2>
 800adbe:	e78c      	b.n	800acda <pow+0xaa>
 800adc0:	eeb0 0a49 	vmov.f32	s0, s18
 800adc4:	eef0 0a69 	vmov.f32	s1, s19
 800adc8:	f002 fdc4 	bl	800d954 <finite>
 800adcc:	2800      	cmp	r0, #0
 800adce:	f43f af4d 	beq.w	800ac6c <pow+0x3c>
 800add2:	ec51 0b19 	vmov	r0, r1, d9
 800add6:	2200      	movs	r2, #0
 800add8:	2300      	movs	r3, #0
 800adda:	f7f7 fc47 	bl	800266c <__aeabi_dcmplt>
 800adde:	2800      	cmp	r0, #0
 800ade0:	f43f af44 	beq.w	800ac6c <pow+0x3c>
 800ade4:	4844      	ldr	r0, [pc, #272]	; (800aef8 <pow+0x2c8>)
 800ade6:	7833      	ldrb	r3, [r6, #0]
 800ade8:	9001      	str	r0, [sp, #4]
 800adea:	2100      	movs	r1, #0
 800adec:	2201      	movs	r2, #1
 800adee:	9108      	str	r1, [sp, #32]
 800adf0:	9200      	str	r2, [sp, #0]
 800adf2:	ed8d ab02 	vstr	d10, [sp, #8]
 800adf6:	ed8d 9b04 	vstr	d9, [sp, #16]
 800adfa:	2000      	movs	r0, #0
 800adfc:	2100      	movs	r1, #0
 800adfe:	2b00      	cmp	r3, #0
 800ae00:	d043      	beq.n	800ae8a <pow+0x25a>
 800ae02:	f6cf 71f0 	movt	r1, #65520	; 0xfff0
 800ae06:	ec41 0b14 	vmov	d4, r0, r1
 800ae0a:	2b02      	cmp	r3, #2
 800ae0c:	ed8d 4b06 	vstr	d4, [sp, #24]
 800ae10:	d135      	bne.n	800ae7e <pow+0x24e>
 800ae12:	f7f9 faab 	bl	800436c <__errno>
 800ae16:	2321      	movs	r3, #33	; 0x21
 800ae18:	6003      	str	r3, [r0, #0]
 800ae1a:	e7cd      	b.n	800adb8 <pow+0x188>
 800ae1c:	f7f9 faa6 	bl	800436c <__errno>
 800ae20:	2321      	movs	r3, #33	; 0x21
 800ae22:	6003      	str	r3, [r0, #0]
 800ae24:	e757      	b.n	800acd6 <pow+0xa6>
 800ae26:	eeb0 0a4a 	vmov.f32	s0, s20
 800ae2a:	eef0 0a6a 	vmov.f32	s1, s21
 800ae2e:	f002 fd91 	bl	800d954 <finite>
 800ae32:	2800      	cmp	r0, #0
 800ae34:	d08d      	beq.n	800ad52 <pow+0x122>
 800ae36:	eeb0 0a49 	vmov.f32	s0, s18
 800ae3a:	eef0 0a69 	vmov.f32	s1, s19
 800ae3e:	f002 fd89 	bl	800d954 <finite>
 800ae42:	2800      	cmp	r0, #0
 800ae44:	d085      	beq.n	800ad52 <pow+0x122>
 800ae46:	eeb0 0a48 	vmov.f32	s0, s16
 800ae4a:	eef0 0a68 	vmov.f32	s1, s17
 800ae4e:	f7fe f90f 	bl	8009070 <__fpclassifyd>
 800ae52:	bb10      	cbnz	r0, 800ae9a <pow+0x26a>
 800ae54:	4a28      	ldr	r2, [pc, #160]	; (800aef8 <pow+0x2c8>)
 800ae56:	7834      	ldrb	r4, [r6, #0]
 800ae58:	9008      	str	r0, [sp, #32]
 800ae5a:	2101      	movs	r1, #1
 800ae5c:	9100      	str	r1, [sp, #0]
 800ae5e:	9201      	str	r2, [sp, #4]
 800ae60:	ed8d ab02 	vstr	d10, [sp, #8]
 800ae64:	ed8d 9b04 	vstr	d9, [sp, #16]
 800ae68:	2000      	movs	r0, #0
 800ae6a:	2100      	movs	r1, #0
 800ae6c:	b16c      	cbz	r4, 800ae8a <pow+0x25a>
 800ae6e:	4602      	mov	r2, r0
 800ae70:	460b      	mov	r3, r1
 800ae72:	f7f7 fab3 	bl	80023dc <__aeabi_ddiv>
 800ae76:	2c02      	cmp	r4, #2
 800ae78:	e9cd 0106 	strd	r0, r1, [sp, #24]
 800ae7c:	d0c9      	beq.n	800ae12 <pow+0x1e2>
 800ae7e:	4668      	mov	r0, sp
 800ae80:	f002 fe0a 	bl	800da98 <matherr>
 800ae84:	2800      	cmp	r0, #0
 800ae86:	d197      	bne.n	800adb8 <pow+0x188>
 800ae88:	e7c3      	b.n	800ae12 <pow+0x1e2>
 800ae8a:	e9cd 0106 	strd	r0, r1, [sp, #24]
 800ae8e:	e7f6      	b.n	800ae7e <pow+0x24e>
 800ae90:	f7f9 fa6c 	bl	800436c <__errno>
 800ae94:	2322      	movs	r3, #34	; 0x22
 800ae96:	6003      	str	r3, [r0, #0]
 800ae98:	e78e      	b.n	800adb8 <pow+0x188>
 800ae9a:	4a17      	ldr	r2, [pc, #92]	; (800aef8 <pow+0x2c8>)
 800ae9c:	f996 5000 	ldrsb.w	r5, [r6]
 800aea0:	9201      	str	r2, [sp, #4]
 800aea2:	2003      	movs	r0, #3
 800aea4:	9000      	str	r0, [sp, #0]
 800aea6:	9408      	str	r4, [sp, #32]
 800aea8:	ed8d ab02 	vstr	d10, [sp, #8]
 800aeac:	ed8d 9b04 	vstr	d9, [sp, #16]
 800aeb0:	ec51 0b1a 	vmov	r0, r1, d10
 800aeb4:	2200      	movs	r2, #0
 800aeb6:	bb0d      	cbnz	r5, 800aefc <pow+0x2cc>
 800aeb8:	f64f 75ff 	movw	r5, #65535	; 0xffff
 800aebc:	f04f 4460 	mov.w	r4, #3758096384	; 0xe0000000
 800aec0:	f2c4 75ef 	movt	r5, #18415	; 0x47ef
 800aec4:	ec45 4b12 	vmov	d2, r4, r5
 800aec8:	2300      	movs	r3, #0
 800aeca:	ed8d 2b06 	vstr	d2, [sp, #24]
 800aece:	f7f7 fbcd 	bl	800266c <__aeabi_dcmplt>
 800aed2:	2800      	cmp	r0, #0
 800aed4:	d13e      	bne.n	800af54 <pow+0x324>
 800aed6:	f996 1000 	ldrsb.w	r1, [r6]
 800aeda:	2902      	cmp	r1, #2
 800aedc:	d005      	beq.n	800aeea <pow+0x2ba>
 800aede:	4668      	mov	r0, sp
 800aee0:	f002 fdda 	bl	800da98 <matherr>
 800aee4:	2800      	cmp	r0, #0
 800aee6:	f47f aef6 	bne.w	800acd6 <pow+0xa6>
 800aeea:	f7f9 fa3f 	bl	800436c <__errno>
 800aeee:	2322      	movs	r3, #34	; 0x22
 800aef0:	6003      	str	r3, [r0, #0]
 800aef2:	e6f0      	b.n	800acd6 <pow+0xa6>
 800aef4:	10000904 	.word	0x10000904
 800aef8:	0800e338 	.word	0x0800e338
 800aefc:	2500      	movs	r5, #0
 800aefe:	2400      	movs	r4, #0
 800af00:	f6c7 75f0 	movt	r5, #32752	; 0x7ff0
 800af04:	ec45 4b10 	vmov	d0, r4, r5
 800af08:	2300      	movs	r3, #0
 800af0a:	ed8d 0b06 	vstr	d0, [sp, #24]
 800af0e:	f7f7 fbad 	bl	800266c <__aeabi_dcmplt>
 800af12:	2800      	cmp	r0, #0
 800af14:	d0df      	beq.n	800aed6 <pow+0x2a6>
 800af16:	2300      	movs	r3, #0
 800af18:	2200      	movs	r2, #0
 800af1a:	f6c3 73e0 	movt	r3, #16352	; 0x3fe0
 800af1e:	ec51 0b19 	vmov	r0, r1, d9
 800af22:	f7f7 f931 	bl	8002188 <__aeabi_dmul>
 800af26:	4604      	mov	r4, r0
 800af28:	460d      	mov	r5, r1
 800af2a:	ec45 4b10 	vmov	d0, r4, r5
 800af2e:	f002 fdbf 	bl	800dab0 <rint>
 800af32:	4622      	mov	r2, r4
 800af34:	ec51 0b10 	vmov	r0, r1, d0
 800af38:	462b      	mov	r3, r5
 800af3a:	f7f7 fb8d 	bl	8002658 <__aeabi_dcmpeq>
 800af3e:	2800      	cmp	r0, #0
 800af40:	d1c9      	bne.n	800aed6 <pow+0x2a6>
 800af42:	2100      	movs	r1, #0
 800af44:	2000      	movs	r0, #0
 800af46:	f6cf 71f0 	movt	r1, #65520	; 0xfff0
 800af4a:	ec41 0b11 	vmov	d1, r0, r1
 800af4e:	ed8d 1b06 	vstr	d1, [sp, #24]
 800af52:	e7c0      	b.n	800aed6 <pow+0x2a6>
 800af54:	2300      	movs	r3, #0
 800af56:	2200      	movs	r2, #0
 800af58:	f6c3 73e0 	movt	r3, #16352	; 0x3fe0
 800af5c:	ec51 0b19 	vmov	r0, r1, d9
 800af60:	f7f7 f912 	bl	8002188 <__aeabi_dmul>
 800af64:	4604      	mov	r4, r0
 800af66:	460d      	mov	r5, r1
 800af68:	ec45 4b10 	vmov	d0, r4, r5
 800af6c:	f002 fda0 	bl	800dab0 <rint>
 800af70:	4622      	mov	r2, r4
 800af72:	ec51 0b10 	vmov	r0, r1, d0
 800af76:	462b      	mov	r3, r5
 800af78:	f7f7 fb6e 	bl	8002658 <__aeabi_dcmpeq>
 800af7c:	2800      	cmp	r0, #0
 800af7e:	d1aa      	bne.n	800aed6 <pow+0x2a6>
 800af80:	f64f 71ff 	movw	r1, #65535	; 0xffff
 800af84:	f04f 4060 	mov.w	r0, #3758096384	; 0xe0000000
 800af88:	f2cc 71ef 	movt	r1, #51183	; 0xc7ef
 800af8c:	ec41 0b13 	vmov	d3, r0, r1
 800af90:	ed8d 3b06 	vstr	d3, [sp, #24]
 800af94:	e79f      	b.n	800aed6 <pow+0x2a6>
 800af96:	bf00      	nop

0800af98 <__ieee754_atan2>:
 800af98:	ec53 2b11 	vmov	r2, r3, d1
 800af9c:	eeb0 7a40 	vmov.f32	s14, s0
 800afa0:	eef0 7a60 	vmov.f32	s15, s1
 800afa4:	f1c2 0c00 	rsb	ip, r2, #0
 800afa8:	e92d 41f0 	stmdb	sp!, {r4, r5, r6, r7, r8, lr}
 800afac:	ea4c 0202 	orr.w	r2, ip, r2
 800afb0:	2400      	movs	r4, #0
 800afb2:	f023 4700 	bic.w	r7, r3, #2147483648	; 0x80000000
 800afb6:	ea47 7cd2 	orr.w	ip, r7, r2, lsr #31
 800afba:	f6c7 74f0 	movt	r4, #32752	; 0x7ff0
 800afbe:	45a4      	cmp	ip, r4
 800afc0:	ee11 5a10 	vmov	r5, s2
 800afc4:	461e      	mov	r6, r3
 800afc6:	ec51 0b10 	vmov	r0, r1, d0
 800afca:	d842      	bhi.n	800b052 <__ieee754_atan2+0xba>
 800afcc:	f1c0 0800 	rsb	r8, r0, #0
 800afd0:	f021 4c00 	bic.w	ip, r1, #2147483648	; 0x80000000
 800afd4:	ea48 0200 	orr.w	r2, r8, r0
 800afd8:	ea4c 78d2 	orr.w	r8, ip, r2, lsr #31
 800afdc:	45a0      	cmp	r8, r4
 800afde:	d838      	bhi.n	800b052 <__ieee754_atan2+0xba>
 800afe0:	f103 4640 	add.w	r6, r3, #3221225472	; 0xc0000000
 800afe4:	f506 1280 	add.w	r2, r6, #1048576	; 0x100000
 800afe8:	ea52 0605 	orrs.w	r6, r2, r5
 800afec:	d051      	beq.n	800b092 <__ieee754_atan2+0xfa>
 800afee:	179c      	asrs	r4, r3, #30
 800aff0:	f004 0202 	and.w	r2, r4, #2
 800aff4:	ea5c 0000 	orrs.w	r0, ip, r0
 800aff8:	ea42 74d1 	orr.w	r4, r2, r1, lsr #31
 800affc:	d037      	beq.n	800b06e <__ieee754_atan2+0xd6>
 800affe:	433d      	orrs	r5, r7
 800b000:	d042      	beq.n	800b088 <__ieee754_atan2+0xf0>
 800b002:	2000      	movs	r0, #0
 800b004:	f6c7 70f0 	movt	r0, #32752	; 0x7ff0
 800b008:	4287      	cmp	r7, r0
 800b00a:	d050      	beq.n	800b0ae <__ieee754_atan2+0x116>
 800b00c:	2500      	movs	r5, #0
 800b00e:	f6c7 75f0 	movt	r5, #32752	; 0x7ff0
 800b012:	45ac      	cmp	ip, r5
 800b014:	d038      	beq.n	800b088 <__ieee754_atan2+0xf0>
 800b016:	ebc7 070c 	rsb	r7, r7, ip
 800b01a:	153f      	asrs	r7, r7, #20
 800b01c:	2f3c      	cmp	r7, #60	; 0x3c
 800b01e:	dc42      	bgt.n	800b0a6 <__ieee754_atan2+0x10e>
 800b020:	2b00      	cmp	r3, #0
 800b022:	db7d      	blt.n	800b120 <__ieee754_atan2+0x188>
 800b024:	ec53 2b11 	vmov	r2, r3, d1
 800b028:	ec51 0b17 	vmov	r0, r1, d7
 800b02c:	f7f7 f9d6 	bl	80023dc <__aeabi_ddiv>
 800b030:	ec41 0b10 	vmov	d0, r0, r1
 800b034:	f002 fc84 	bl	800d940 <fabs>
 800b038:	f002 fab6 	bl	800d5a8 <atan>
 800b03c:	ec51 0b10 	vmov	r0, r1, d0
 800b040:	2c01      	cmp	r4, #1
 800b042:	d068      	beq.n	800b116 <__ieee754_atan2+0x17e>
 800b044:	2c02      	cmp	r4, #2
 800b046:	d057      	beq.n	800b0f8 <__ieee754_atan2+0x160>
 800b048:	2c00      	cmp	r4, #0
 800b04a:	d148      	bne.n	800b0de <__ieee754_atan2+0x146>
 800b04c:	ec41 0b17 	vmov	d7, r0, r1
 800b050:	e007      	b.n	800b062 <__ieee754_atan2+0xca>
 800b052:	ec51 0b17 	vmov	r0, r1, d7
 800b056:	ec53 2b11 	vmov	r2, r3, d1
 800b05a:	f7f6 fee3 	bl	8001e24 <__adddf3>
 800b05e:	ec41 0b17 	vmov	d7, r0, r1
 800b062:	eeb0 0a47 	vmov.f32	s0, s14
 800b066:	eef0 0a67 	vmov.f32	s1, s15
 800b06a:	e8bd 81f0 	ldmia.w	sp!, {r4, r5, r6, r7, r8, pc}
 800b06e:	2c03      	cmp	r4, #3
 800b070:	d8c5      	bhi.n	800affe <__ieee754_atan2+0x66>
 800b072:	a201      	add	r2, pc, #4	; (adr r2, 800b078 <__ieee754_atan2+0xe0>)
 800b074:	f852 f024 	ldr.w	pc, [r2, r4, lsl #2]
 800b078:	0800b063 	.word	0x0800b063
 800b07c:	0800b063 	.word	0x0800b063
 800b080:	0800b0a1 	.word	0x0800b0a1
 800b084:	0800b09b 	.word	0x0800b09b
 800b088:	2900      	cmp	r1, #0
 800b08a:	db25      	blt.n	800b0d8 <__ieee754_atan2+0x140>
 800b08c:	ed9f 7b32 	vldr	d7, [pc, #200]	; 800b158 <__ieee754_atan2+0x1c0>
 800b090:	e7e7      	b.n	800b062 <__ieee754_atan2+0xca>
 800b092:	e8bd 41f0 	ldmia.w	sp!, {r4, r5, r6, r7, r8, lr}
 800b096:	f002 ba87 	b.w	800d5a8 <atan>
 800b09a:	ed9f 7b31 	vldr	d7, [pc, #196]	; 800b160 <__ieee754_atan2+0x1c8>
 800b09e:	e7e0      	b.n	800b062 <__ieee754_atan2+0xca>
 800b0a0:	ed9f 7b31 	vldr	d7, [pc, #196]	; 800b168 <__ieee754_atan2+0x1d0>
 800b0a4:	e7dd      	b.n	800b062 <__ieee754_atan2+0xca>
 800b0a6:	a12c      	add	r1, pc, #176	; (adr r1, 800b158 <__ieee754_atan2+0x1c0>)
 800b0a8:	e9d1 0100 	ldrd	r0, r1, [r1]
 800b0ac:	e7c8      	b.n	800b040 <__ieee754_atan2+0xa8>
 800b0ae:	45bc      	cmp	ip, r7
 800b0b0:	d03d      	beq.n	800b12e <__ieee754_atan2+0x196>
 800b0b2:	2c03      	cmp	r4, #3
 800b0b4:	d8aa      	bhi.n	800b00c <__ieee754_atan2+0x74>
 800b0b6:	a201      	add	r2, pc, #4	; (adr r2, 800b0bc <__ieee754_atan2+0x124>)
 800b0b8:	f852 f024 	ldr.w	pc, [r2, r4, lsl #2]
 800b0bc:	0800b0d3 	.word	0x0800b0d3
 800b0c0:	0800b0cd 	.word	0x0800b0cd
 800b0c4:	0800b0a1 	.word	0x0800b0a1
 800b0c8:	0800b09b 	.word	0x0800b09b
 800b0cc:	ed9f 7b28 	vldr	d7, [pc, #160]	; 800b170 <__ieee754_atan2+0x1d8>
 800b0d0:	e7c7      	b.n	800b062 <__ieee754_atan2+0xca>
 800b0d2:	ed9f 7b29 	vldr	d7, [pc, #164]	; 800b178 <__ieee754_atan2+0x1e0>
 800b0d6:	e7c4      	b.n	800b062 <__ieee754_atan2+0xca>
 800b0d8:	ed9f 7b29 	vldr	d7, [pc, #164]	; 800b180 <__ieee754_atan2+0x1e8>
 800b0dc:	e7c1      	b.n	800b062 <__ieee754_atan2+0xca>
 800b0de:	a332      	add	r3, pc, #200	; (adr r3, 800b1a8 <__ieee754_atan2+0x210>)
 800b0e0:	e9d3 2300 	ldrd	r2, r3, [r3]
 800b0e4:	f7f6 fe9c 	bl	8001e20 <__aeabi_dsub>
 800b0e8:	a31f      	add	r3, pc, #124	; (adr r3, 800b168 <__ieee754_atan2+0x1d0>)
 800b0ea:	e9d3 2300 	ldrd	r2, r3, [r3]
 800b0ee:	f7f6 fe97 	bl	8001e20 <__aeabi_dsub>
 800b0f2:	ec41 0b17 	vmov	d7, r0, r1
 800b0f6:	e7b4      	b.n	800b062 <__ieee754_atan2+0xca>
 800b0f8:	a32b      	add	r3, pc, #172	; (adr r3, 800b1a8 <__ieee754_atan2+0x210>)
 800b0fa:	e9d3 2300 	ldrd	r2, r3, [r3]
 800b0fe:	f7f6 fe8f 	bl	8001e20 <__aeabi_dsub>
 800b102:	4602      	mov	r2, r0
 800b104:	460b      	mov	r3, r1
 800b106:	a118      	add	r1, pc, #96	; (adr r1, 800b168 <__ieee754_atan2+0x1d0>)
 800b108:	e9d1 0100 	ldrd	r0, r1, [r1]
 800b10c:	f7f6 fe88 	bl	8001e20 <__aeabi_dsub>
 800b110:	ec41 0b17 	vmov	d7, r0, r1
 800b114:	e7a5      	b.n	800b062 <__ieee754_atan2+0xca>
 800b116:	f101 4100 	add.w	r1, r1, #2147483648	; 0x80000000
 800b11a:	ec41 0b17 	vmov	d7, r0, r1
 800b11e:	e7a0      	b.n	800b062 <__ieee754_atan2+0xca>
 800b120:	f117 0f3c 	cmn.w	r7, #60	; 0x3c
 800b124:	f6bf af7e 	bge.w	800b024 <__ieee754_atan2+0x8c>
 800b128:	2000      	movs	r0, #0
 800b12a:	2100      	movs	r1, #0
 800b12c:	e788      	b.n	800b040 <__ieee754_atan2+0xa8>
 800b12e:	2c03      	cmp	r4, #3
 800b130:	d8aa      	bhi.n	800b088 <__ieee754_atan2+0xf0>
 800b132:	e8df f004 	tbb	[pc, r4]
 800b136:	080b      	.short	0x080b
 800b138:	0205      	.short	0x0205
 800b13a:	ed9f 7b13 	vldr	d7, [pc, #76]	; 800b188 <__ieee754_atan2+0x1f0>
 800b13e:	e790      	b.n	800b062 <__ieee754_atan2+0xca>
 800b140:	ed9f 7b13 	vldr	d7, [pc, #76]	; 800b190 <__ieee754_atan2+0x1f8>
 800b144:	e78d      	b.n	800b062 <__ieee754_atan2+0xca>
 800b146:	ed9f 7b14 	vldr	d7, [pc, #80]	; 800b198 <__ieee754_atan2+0x200>
 800b14a:	e78a      	b.n	800b062 <__ieee754_atan2+0xca>
 800b14c:	ed9f 7b14 	vldr	d7, [pc, #80]	; 800b1a0 <__ieee754_atan2+0x208>
 800b150:	e787      	b.n	800b062 <__ieee754_atan2+0xca>
 800b152:	bf00      	nop
 800b154:	f3af 8000 	nop.w
 800b158:	54442d18 	.word	0x54442d18
 800b15c:	3ff921fb 	.word	0x3ff921fb
 800b160:	54442d18 	.word	0x54442d18
 800b164:	c00921fb 	.word	0xc00921fb
 800b168:	54442d18 	.word	0x54442d18
 800b16c:	400921fb 	.word	0x400921fb
 800b170:	00000000 	.word	0x00000000
 800b174:	80000000 	.word	0x80000000
	...
 800b180:	54442d18 	.word	0x54442d18
 800b184:	bff921fb 	.word	0xbff921fb
 800b188:	7f3321d2 	.word	0x7f3321d2
 800b18c:	c002d97c 	.word	0xc002d97c
 800b190:	7f3321d2 	.word	0x7f3321d2
 800b194:	4002d97c 	.word	0x4002d97c
 800b198:	54442d18 	.word	0x54442d18
 800b19c:	bfe921fb 	.word	0xbfe921fb
 800b1a0:	54442d18 	.word	0x54442d18
 800b1a4:	3fe921fb 	.word	0x3fe921fb
 800b1a8:	33145c07 	.word	0x33145c07
 800b1ac:	3ca1a626 	.word	0x3ca1a626

0800b1b0 <__ieee754_pow>:
 800b1b0:	e92d 4ff0 	stmdb	sp!, {r4, r5, r6, r7, r8, r9, sl, fp, lr}
 800b1b4:	ee11 aa90 	vmov	sl, s3
 800b1b8:	ee11 ba10 	vmov	fp, s2
 800b1bc:	ee10 5a90 	vmov	r5, s1
 800b1c0:	f02a 4c00 	bic.w	ip, sl, #2147483648	; 0x80000000
 800b1c4:	ea5c 010b 	orrs.w	r1, ip, fp
 800b1c8:	b091      	sub	sp, #68	; 0x44
 800b1ca:	ee10 4a10 	vmov	r4, s0
 800b1ce:	ee11 0a10 	vmov	r0, s2
 800b1d2:	ee10 2a10 	vmov	r2, s0
 800b1d6:	ee11 9a90 	vmov	r9, s3
 800b1da:	462f      	mov	r7, r5
 800b1dc:	d046      	beq.n	800b26c <__ieee754_pow+0xbc>
 800b1de:	2300      	movs	r3, #0
 800b1e0:	f025 4800 	bic.w	r8, r5, #2147483648	; 0x80000000
 800b1e4:	f6c7 73f0 	movt	r3, #32752	; 0x7ff0
 800b1e8:	4598      	cmp	r8, r3
 800b1ea:	dd11      	ble.n	800b210 <__ieee754_pow+0x60>
 800b1ec:	f108 4840 	add.w	r8, r8, #3221225472	; 0xc0000000
 800b1f0:	f508 1b80 	add.w	fp, r8, #1048576	; 0x100000
 800b1f4:	ea5b 0b02 	orrs.w	fp, fp, r2
 800b1f8:	d13e      	bne.n	800b278 <__ieee754_pow+0xc8>
 800b1fa:	f04f 0a00 	mov.w	sl, #0
 800b1fe:	f6c3 7af0 	movt	sl, #16368	; 0x3ff0
 800b202:	465a      	mov	r2, fp
 800b204:	4653      	mov	r3, sl
 800b206:	ec43 2b10 	vmov	d0, r2, r3
 800b20a:	b011      	add	sp, #68	; 0x44
 800b20c:	e8bd 8ff0 	ldmia.w	sp!, {r4, r5, r6, r7, r8, r9, sl, fp, pc}
 800b210:	d038      	beq.n	800b284 <__ieee754_pow+0xd4>
 800b212:	2100      	movs	r1, #0
 800b214:	f6c7 71f0 	movt	r1, #32752	; 0x7ff0
 800b218:	458c      	cmp	ip, r1
 800b21a:	dce7      	bgt.n	800b1ec <__ieee754_pow+0x3c>
 800b21c:	f000 80bf 	beq.w	800b39e <__ieee754_pow+0x1ee>
 800b220:	2f00      	cmp	r7, #0
 800b222:	f2c0 8092 	blt.w	800b34a <__ieee754_pow+0x19a>
 800b226:	2600      	movs	r6, #0
 800b228:	2800      	cmp	r0, #0
 800b22a:	d12f      	bne.n	800b28c <__ieee754_pow+0xdc>
 800b22c:	2100      	movs	r1, #0
 800b22e:	f6c7 71f0 	movt	r1, #32752	; 0x7ff0
 800b232:	458c      	cmp	ip, r1
 800b234:	f000 80b7 	beq.w	800b3a6 <__ieee754_pow+0x1f6>
 800b238:	2000      	movs	r0, #0
 800b23a:	f6c3 70f0 	movt	r0, #16368	; 0x3ff0
 800b23e:	4584      	cmp	ip, r0
 800b240:	f000 80a6 	beq.w	800b390 <__ieee754_pow+0x1e0>
 800b244:	f1b9 4f80 	cmp.w	r9, #1073741824	; 0x40000000
 800b248:	f000 83fa 	beq.w	800ba40 <__ieee754_pow+0x890>
 800b24c:	2300      	movs	r3, #0
 800b24e:	f6c3 73e0 	movt	r3, #16352	; 0x3fe0
 800b252:	4599      	cmp	r9, r3
 800b254:	d11a      	bne.n	800b28c <__ieee754_pow+0xdc>
 800b256:	2f00      	cmp	r7, #0
 800b258:	db18      	blt.n	800b28c <__ieee754_pow+0xdc>
 800b25a:	4622      	mov	r2, r4
 800b25c:	462b      	mov	r3, r5
 800b25e:	ec43 2b10 	vmov	d0, r2, r3
 800b262:	b011      	add	sp, #68	; 0x44
 800b264:	e8bd 4ff0 	ldmia.w	sp!, {r4, r5, r6, r7, r8, r9, sl, fp, lr}
 800b268:	f000 bf96 	b.w	800c198 <__ieee754_sqrt>
 800b26c:	f04f 0a00 	mov.w	sl, #0
 800b270:	468b      	mov	fp, r1
 800b272:	f6c3 7af0 	movt	sl, #16368	; 0x3ff0
 800b276:	e7c4      	b.n	800b202 <__ieee754_pow+0x52>
 800b278:	485b      	ldr	r0, [pc, #364]	; (800b3e8 <__ieee754_pow+0x238>)
 800b27a:	b011      	add	sp, #68	; 0x44
 800b27c:	e8bd 4ff0 	ldmia.w	sp!, {r4, r5, r6, r7, r8, r9, sl, fp, lr}
 800b280:	f002 bc0e 	b.w	800daa0 <nan>
 800b284:	2c00      	cmp	r4, #0
 800b286:	d1b1      	bne.n	800b1ec <__ieee754_pow+0x3c>
 800b288:	e7c3      	b.n	800b212 <__ieee754_pow+0x62>
 800b28a:	2600      	movs	r6, #0
 800b28c:	4620      	mov	r0, r4
 800b28e:	4629      	mov	r1, r5
 800b290:	ec41 0b10 	vmov	d0, r0, r1
 800b294:	9201      	str	r2, [sp, #4]
 800b296:	f8cd c000 	str.w	ip, [sp]
 800b29a:	f002 fb51 	bl	800d940 <fabs>
 800b29e:	9a01      	ldr	r2, [sp, #4]
 800b2a0:	f8dd c000 	ldr.w	ip, [sp]
 800b2a4:	ee10 0a10 	vmov	r0, s0
 800b2a8:	ee10 1a90 	vmov	r1, s1
 800b2ac:	bb4a      	cbnz	r2, 800b302 <__ieee754_pow+0x152>
 800b2ae:	2300      	movs	r3, #0
 800b2b0:	f6c7 73f0 	movt	r3, #32752	; 0x7ff0
 800b2b4:	4598      	cmp	r8, r3
 800b2b6:	d007      	beq.n	800b2c8 <__ieee754_pow+0x118>
 800b2b8:	f1b8 0f00 	cmp.w	r8, #0
 800b2bc:	d004      	beq.n	800b2c8 <__ieee754_pow+0x118>
 800b2be:	2200      	movs	r2, #0
 800b2c0:	f6c3 72f0 	movt	r2, #16368	; 0x3ff0
 800b2c4:	4590      	cmp	r8, r2
 800b2c6:	d11c      	bne.n	800b302 <__ieee754_pow+0x152>
 800b2c8:	f1b9 0f00 	cmp.w	r9, #0
 800b2cc:	f2c0 8423 	blt.w	800bb16 <__ieee754_pow+0x966>
 800b2d0:	4683      	mov	fp, r0
 800b2d2:	468a      	mov	sl, r1
 800b2d4:	2f00      	cmp	r7, #0
 800b2d6:	da94      	bge.n	800b202 <__ieee754_pow+0x52>
 800b2d8:	f108 4340 	add.w	r3, r8, #3221225472	; 0xc0000000
 800b2dc:	f503 1280 	add.w	r2, r3, #1048576	; 0x100000
 800b2e0:	ea56 0302 	orrs.w	r3, r6, r2
 800b2e4:	f040 84b4 	bne.w	800bc50 <__ieee754_pow+0xaa0>
 800b2e8:	4658      	mov	r0, fp
 800b2ea:	465a      	mov	r2, fp
 800b2ec:	4651      	mov	r1, sl
 800b2ee:	4653      	mov	r3, sl
 800b2f0:	f7f6 fd96 	bl	8001e20 <__aeabi_dsub>
 800b2f4:	4602      	mov	r2, r0
 800b2f6:	460b      	mov	r3, r1
 800b2f8:	f7f7 f870 	bl	80023dc <__aeabi_ddiv>
 800b2fc:	4683      	mov	fp, r0
 800b2fe:	468a      	mov	sl, r1
 800b300:	e77f      	b.n	800b202 <__ieee754_pow+0x52>
 800b302:	0fff      	lsrs	r7, r7, #31
 800b304:	3f01      	subs	r7, #1
 800b306:	ea56 0307 	orrs.w	r3, r6, r7
 800b30a:	d064      	beq.n	800b3d6 <__ieee754_pow+0x226>
 800b30c:	2300      	movs	r3, #0
 800b30e:	f2c4 13e0 	movt	r3, #16864	; 0x41e0
 800b312:	459c      	cmp	ip, r3
 800b314:	dd6a      	ble.n	800b3ec <__ieee754_pow+0x23c>
 800b316:	2200      	movs	r2, #0
 800b318:	f2c4 32f0 	movt	r2, #17392	; 0x43f0
 800b31c:	4594      	cmp	ip, r2
 800b31e:	f340 840b 	ble.w	800bb38 <__ieee754_pow+0x988>
 800b322:	f64f 70ff 	movw	r0, #65535	; 0xffff
 800b326:	f6c3 70ef 	movt	r0, #16367	; 0x3fef
 800b32a:	4580      	cmp	r8, r0
 800b32c:	f340 83ee 	ble.w	800bb0c <__ieee754_pow+0x95c>
 800b330:	f1b9 0f00 	cmp.w	r9, #0
 800b334:	dd49      	ble.n	800b3ca <__ieee754_pow+0x21a>
 800b336:	a12a      	add	r1, pc, #168	; (adr r1, 800b3e0 <__ieee754_pow+0x230>)
 800b338:	e9d1 0100 	ldrd	r0, r1, [r1]
 800b33c:	4602      	mov	r2, r0
 800b33e:	460b      	mov	r3, r1
 800b340:	f7f6 ff22 	bl	8002188 <__aeabi_dmul>
 800b344:	4683      	mov	fp, r0
 800b346:	468a      	mov	sl, r1
 800b348:	e75b      	b.n	800b202 <__ieee754_pow+0x52>
 800b34a:	f64f 76ff 	movw	r6, #65535	; 0xffff
 800b34e:	f2c4 363f 	movt	r6, #17215	; 0x433f
 800b352:	45b4      	cmp	ip, r6
 800b354:	dc3d      	bgt.n	800b3d2 <__ieee754_pow+0x222>
 800b356:	f64f 73ff 	movw	r3, #65535	; 0xffff
 800b35a:	f6c3 73ef 	movt	r3, #16367	; 0x3fef
 800b35e:	459c      	cmp	ip, r3
 800b360:	f77f af61 	ble.w	800b226 <__ieee754_pow+0x76>
 800b364:	ea4f 562c 	mov.w	r6, ip, asr #20
 800b368:	f240 4113 	movw	r1, #1043	; 0x413
 800b36c:	428e      	cmp	r6, r1
 800b36e:	f340 8473 	ble.w	800bc58 <__ieee754_pow+0xaa8>
 800b372:	f5c6 6686 	rsb	r6, r6, #1072	; 0x430
 800b376:	1cf3      	adds	r3, r6, #3
 800b378:	fa20 f103 	lsr.w	r1, r0, r3
 800b37c:	fa01 f603 	lsl.w	r6, r1, r3
 800b380:	4286      	cmp	r6, r0
 800b382:	f47f af50 	bne.w	800b226 <__ieee754_pow+0x76>
 800b386:	f001 0301 	and.w	r3, r1, #1
 800b38a:	f1c3 0602 	rsb	r6, r3, #2
 800b38e:	e74b      	b.n	800b228 <__ieee754_pow+0x78>
 800b390:	f1b9 0f00 	cmp.w	r9, #0
 800b394:	f2c0 8440 	blt.w	800bc18 <__ieee754_pow+0xa68>
 800b398:	46a3      	mov	fp, r4
 800b39a:	46aa      	mov	sl, r5
 800b39c:	e731      	b.n	800b202 <__ieee754_pow+0x52>
 800b39e:	2800      	cmp	r0, #0
 800b3a0:	f43f af3e 	beq.w	800b220 <__ieee754_pow+0x70>
 800b3a4:	e722      	b.n	800b1ec <__ieee754_pow+0x3c>
 800b3a6:	f108 4140 	add.w	r1, r8, #3221225472	; 0xc0000000
 800b3aa:	f501 1380 	add.w	r3, r1, #1048576	; 0x100000
 800b3ae:	4313      	orrs	r3, r2
 800b3b0:	f000 833f 	beq.w	800ba32 <__ieee754_pow+0x882>
 800b3b4:	f64f 70ff 	movw	r0, #65535	; 0xffff
 800b3b8:	f6c3 70ef 	movt	r0, #16367	; 0x3fef
 800b3bc:	4580      	cmp	r8, r0
 800b3be:	f340 839d 	ble.w	800bafc <__ieee754_pow+0x94c>
 800b3c2:	f1b9 0f00 	cmp.w	r9, #0
 800b3c6:	f6bf af1c 	bge.w	800b202 <__ieee754_pow+0x52>
 800b3ca:	f04f 0b00 	mov.w	fp, #0
 800b3ce:	46da      	mov	sl, fp
 800b3d0:	e717      	b.n	800b202 <__ieee754_pow+0x52>
 800b3d2:	2602      	movs	r6, #2
 800b3d4:	e728      	b.n	800b228 <__ieee754_pow+0x78>
 800b3d6:	4620      	mov	r0, r4
 800b3d8:	4629      	mov	r1, r5
 800b3da:	4622      	mov	r2, r4
 800b3dc:	462b      	mov	r3, r5
 800b3de:	e787      	b.n	800b2f0 <__ieee754_pow+0x140>
 800b3e0:	8800759c 	.word	0x8800759c
 800b3e4:	7e37e43c 	.word	0x7e37e43c
 800b3e8:	0800e08c 	.word	0x0800e08c
 800b3ec:	f5b8 1f80 	cmp.w	r8, #1048576	; 0x100000
 800b3f0:	f280 83a0 	bge.w	800bb34 <__ieee754_pow+0x984>
 800b3f4:	2300      	movs	r3, #0
 800b3f6:	2200      	movs	r2, #0
 800b3f8:	f2c4 3340 	movt	r3, #17216	; 0x4340
 800b3fc:	f7f6 fec4 	bl	8002188 <__aeabi_dmul>
 800b400:	f06f 0434 	mvn.w	r4, #52	; 0x34
 800b404:	4688      	mov	r8, r1
 800b406:	f028 437f 	bic.w	r3, r8, #4278190080	; 0xff000000
 800b40a:	ea4f 5528 	mov.w	r5, r8, asr #20
 800b40e:	f649 028e 	movw	r2, #39054	; 0x988e
 800b412:	f423 0170 	bic.w	r1, r3, #15728640	; 0xf00000
 800b416:	f2a5 3eff 	subw	lr, r5, #1023	; 0x3ff
 800b41a:	f2c0 0203 	movt	r2, #3
 800b41e:	f041 537f 	orr.w	r3, r1, #1069547520	; 0x3fc00000
 800b422:	eb0e 0804 	add.w	r8, lr, r4
 800b426:	4291      	cmp	r1, r2
 800b428:	f8cd 803c 	str.w	r8, [sp, #60]	; 0x3c
 800b42c:	f443 1540 	orr.w	r5, r3, #3145728	; 0x300000
 800b430:	f340 837d 	ble.w	800bb2e <__ieee754_pow+0x97e>
 800b434:	f24b 6479 	movw	r4, #46713	; 0xb679
 800b438:	f2c0 040b 	movt	r4, #11
 800b43c:	42a1      	cmp	r1, r4
 800b43e:	f340 841a 	ble.w	800bc76 <__ieee754_pow+0xac6>
 800b442:	4641      	mov	r1, r8
 800b444:	2400      	movs	r4, #0
 800b446:	1c4a      	adds	r2, r1, #1
 800b448:	920f      	str	r2, [sp, #60]	; 0x3c
 800b44a:	f5a5 1580 	sub.w	r5, r5, #1048576	; 0x100000
 800b44e:	46a1      	mov	r9, r4
 800b450:	4602      	mov	r2, r0
 800b452:	48ab      	ldr	r0, [pc, #684]	; (800b700 <__ieee754_pow+0x550>)
 800b454:	ea4f 0cc9 	mov.w	ip, r9, lsl #3
 800b458:	eb00 010c 	add.w	r1, r0, ip
 800b45c:	e9d1 8900 	ldrd	r8, r9, [r1]
 800b460:	462b      	mov	r3, r5
 800b462:	e9cd 2304 	strd	r2, r3, [sp, #16]
 800b466:	e9dd 0104 	ldrd	r0, r1, [sp, #16]
 800b46a:	4642      	mov	r2, r8
 800b46c:	464b      	mov	r3, r9
 800b46e:	f8cd c000 	str.w	ip, [sp]
 800b472:	f7f6 fcd5 	bl	8001e20 <__aeabi_dsub>
 800b476:	4642      	mov	r2, r8
 800b478:	464b      	mov	r3, r9
 800b47a:	e9cd 010a 	strd	r0, r1, [sp, #40]	; 0x28
 800b47e:	e9dd 0104 	ldrd	r0, r1, [sp, #16]
 800b482:	f7f6 fccf 	bl	8001e24 <__adddf3>
 800b486:	460b      	mov	r3, r1
 800b488:	2100      	movs	r1, #0
 800b48a:	4602      	mov	r2, r0
 800b48c:	f6c3 71f0 	movt	r1, #16368	; 0x3ff0
 800b490:	2000      	movs	r0, #0
 800b492:	f7f6 ffa3 	bl	80023dc <__aeabi_ddiv>
 800b496:	e9cd 010c 	strd	r0, r1, [sp, #48]	; 0x30
 800b49a:	e9dd 230c 	ldrd	r2, r3, [sp, #48]	; 0x30
 800b49e:	e9dd 010a 	ldrd	r0, r1, [sp, #40]	; 0x28
 800b4a2:	f7f6 fe71 	bl	8002188 <__aeabi_dmul>
 800b4a6:	e9cd 0106 	strd	r0, r1, [sp, #24]
 800b4aa:	ed9d 7b06 	vldr	d7, [sp, #24]
 800b4ae:	2000      	movs	r0, #0
 800b4b0:	ed8d 7b08 	vstr	d7, [sp, #32]
 800b4b4:	9008      	str	r0, [sp, #32]
 800b4b6:	ed9d 0b08 	vldr	d0, [sp, #32]
 800b4ba:	106b      	asrs	r3, r5, #1
 800b4bc:	f043 5500 	orr.w	r5, r3, #536870912	; 0x20000000
 800b4c0:	f505 2100 	add.w	r1, r5, #524288	; 0x80000
 800b4c4:	190b      	adds	r3, r1, r4
 800b4c6:	2200      	movs	r2, #0
 800b4c8:	ec51 0b10 	vmov	r0, r1, d0
 800b4cc:	ed8d 0b02 	vstr	d0, [sp, #8]
 800b4d0:	4614      	mov	r4, r2
 800b4d2:	461d      	mov	r5, r3
 800b4d4:	f7f6 fe58 	bl	8002188 <__aeabi_dmul>
 800b4d8:	4602      	mov	r2, r0
 800b4da:	460b      	mov	r3, r1
 800b4dc:	e9dd 010a 	ldrd	r0, r1, [sp, #40]	; 0x28
 800b4e0:	f7f6 fc9e 	bl	8001e20 <__aeabi_dsub>
 800b4e4:	4642      	mov	r2, r8
 800b4e6:	e9cd 010a 	strd	r0, r1, [sp, #40]	; 0x28
 800b4ea:	464b      	mov	r3, r9
 800b4ec:	4620      	mov	r0, r4
 800b4ee:	4629      	mov	r1, r5
 800b4f0:	f7f6 fc96 	bl	8001e20 <__aeabi_dsub>
 800b4f4:	4602      	mov	r2, r0
 800b4f6:	460b      	mov	r3, r1
 800b4f8:	e9dd 0104 	ldrd	r0, r1, [sp, #16]
 800b4fc:	f7f6 fc90 	bl	8001e20 <__aeabi_dsub>
 800b500:	4602      	mov	r2, r0
 800b502:	460b      	mov	r3, r1
 800b504:	e9dd 0102 	ldrd	r0, r1, [sp, #8]
 800b508:	f7f6 fe3e 	bl	8002188 <__aeabi_dmul>
 800b50c:	4602      	mov	r2, r0
 800b50e:	460b      	mov	r3, r1
 800b510:	e9dd 010a 	ldrd	r0, r1, [sp, #40]	; 0x28
 800b514:	f7f6 fc84 	bl	8001e20 <__aeabi_dsub>
 800b518:	e9dd 230c 	ldrd	r2, r3, [sp, #48]	; 0x30
 800b51c:	f7f6 fe34 	bl	8002188 <__aeabi_dmul>
 800b520:	e9cd 0104 	strd	r0, r1, [sp, #16]
 800b524:	e9dd 0106 	ldrd	r0, r1, [sp, #24]
 800b528:	4602      	mov	r2, r0
 800b52a:	460b      	mov	r3, r1
 800b52c:	f7f6 fe2c 	bl	8002188 <__aeabi_dmul>
 800b530:	4602      	mov	r2, r0
 800b532:	460b      	mov	r3, r1
 800b534:	4604      	mov	r4, r0
 800b536:	460d      	mov	r5, r1
 800b538:	f7f6 fe26 	bl	8002188 <__aeabi_dmul>
 800b53c:	a35e      	add	r3, pc, #376	; (adr r3, 800b6b8 <__ieee754_pow+0x508>)
 800b53e:	e9d3 2300 	ldrd	r2, r3, [r3]
 800b542:	4680      	mov	r8, r0
 800b544:	4689      	mov	r9, r1
 800b546:	4620      	mov	r0, r4
 800b548:	4629      	mov	r1, r5
 800b54a:	f7f6 fe1d 	bl	8002188 <__aeabi_dmul>
 800b54e:	a35c      	add	r3, pc, #368	; (adr r3, 800b6c0 <__ieee754_pow+0x510>)
 800b550:	e9d3 2300 	ldrd	r2, r3, [r3]
 800b554:	f7f6 fc66 	bl	8001e24 <__adddf3>
 800b558:	4622      	mov	r2, r4
 800b55a:	462b      	mov	r3, r5
 800b55c:	f7f6 fe14 	bl	8002188 <__aeabi_dmul>
 800b560:	a359      	add	r3, pc, #356	; (adr r3, 800b6c8 <__ieee754_pow+0x518>)
 800b562:	e9d3 2300 	ldrd	r2, r3, [r3]
 800b566:	f7f6 fc5d 	bl	8001e24 <__adddf3>
 800b56a:	4622      	mov	r2, r4
 800b56c:	462b      	mov	r3, r5
 800b56e:	f7f6 fe0b 	bl	8002188 <__aeabi_dmul>
 800b572:	a357      	add	r3, pc, #348	; (adr r3, 800b6d0 <__ieee754_pow+0x520>)
 800b574:	e9d3 2300 	ldrd	r2, r3, [r3]
 800b578:	f7f6 fc54 	bl	8001e24 <__adddf3>
 800b57c:	4622      	mov	r2, r4
 800b57e:	462b      	mov	r3, r5
 800b580:	f7f6 fe02 	bl	8002188 <__aeabi_dmul>
 800b584:	a354      	add	r3, pc, #336	; (adr r3, 800b6d8 <__ieee754_pow+0x528>)
 800b586:	e9d3 2300 	ldrd	r2, r3, [r3]
 800b58a:	f7f6 fc4b 	bl	8001e24 <__adddf3>
 800b58e:	4622      	mov	r2, r4
 800b590:	462b      	mov	r3, r5
 800b592:	f7f6 fdf9 	bl	8002188 <__aeabi_dmul>
 800b596:	a352      	add	r3, pc, #328	; (adr r3, 800b6e0 <__ieee754_pow+0x530>)
 800b598:	e9d3 2300 	ldrd	r2, r3, [r3]
 800b59c:	f7f6 fc42 	bl	8001e24 <__adddf3>
 800b5a0:	4602      	mov	r2, r0
 800b5a2:	460b      	mov	r3, r1
 800b5a4:	4640      	mov	r0, r8
 800b5a6:	4649      	mov	r1, r9
 800b5a8:	f7f6 fdee 	bl	8002188 <__aeabi_dmul>
 800b5ac:	e9dd 2306 	ldrd	r2, r3, [sp, #24]
 800b5b0:	4604      	mov	r4, r0
 800b5b2:	460d      	mov	r5, r1
 800b5b4:	e9dd 0102 	ldrd	r0, r1, [sp, #8]
 800b5b8:	f7f6 fc34 	bl	8001e24 <__adddf3>
 800b5bc:	e9dd 2304 	ldrd	r2, r3, [sp, #16]
 800b5c0:	f7f6 fde2 	bl	8002188 <__aeabi_dmul>
 800b5c4:	4622      	mov	r2, r4
 800b5c6:	462b      	mov	r3, r5
 800b5c8:	f7f6 fc2c 	bl	8001e24 <__adddf3>
 800b5cc:	4680      	mov	r8, r0
 800b5ce:	4689      	mov	r9, r1
 800b5d0:	e9dd 0102 	ldrd	r0, r1, [sp, #8]
 800b5d4:	4602      	mov	r2, r0
 800b5d6:	460b      	mov	r3, r1
 800b5d8:	f7f6 fdd6 	bl	8002188 <__aeabi_dmul>
 800b5dc:	2200      	movs	r2, #0
 800b5de:	2300      	movs	r3, #0
 800b5e0:	f2c4 0308 	movt	r3, #16392	; 0x4008
 800b5e4:	e9cd 010a 	strd	r0, r1, [sp, #40]	; 0x28
 800b5e8:	f7f6 fc1c 	bl	8001e24 <__adddf3>
 800b5ec:	4642      	mov	r2, r8
 800b5ee:	464b      	mov	r3, r9
 800b5f0:	f7f6 fc18 	bl	8001e24 <__adddf3>
 800b5f4:	9a08      	ldr	r2, [sp, #32]
 800b5f6:	460d      	mov	r5, r1
 800b5f8:	462b      	mov	r3, r5
 800b5fa:	e9dd 0102 	ldrd	r0, r1, [sp, #8]
 800b5fe:	4614      	mov	r4, r2
 800b600:	f7f6 fdc2 	bl	8002188 <__aeabi_dmul>
 800b604:	4622      	mov	r2, r4
 800b606:	462b      	mov	r3, r5
 800b608:	e9cd 0102 	strd	r0, r1, [sp, #8]
 800b60c:	e9dd 0104 	ldrd	r0, r1, [sp, #16]
 800b610:	f7f6 fdba 	bl	8002188 <__aeabi_dmul>
 800b614:	2300      	movs	r3, #0
 800b616:	e9cd 0104 	strd	r0, r1, [sp, #16]
 800b61a:	2200      	movs	r2, #0
 800b61c:	4620      	mov	r0, r4
 800b61e:	4629      	mov	r1, r5
 800b620:	f2c4 0308 	movt	r3, #16392	; 0x4008
 800b624:	f7f6 fbfc 	bl	8001e20 <__aeabi_dsub>
 800b628:	e9dd 230a 	ldrd	r2, r3, [sp, #40]	; 0x28
 800b62c:	f7f6 fbf8 	bl	8001e20 <__aeabi_dsub>
 800b630:	4602      	mov	r2, r0
 800b632:	460b      	mov	r3, r1
 800b634:	4640      	mov	r0, r8
 800b636:	4649      	mov	r1, r9
 800b638:	f7f6 fbf2 	bl	8001e20 <__aeabi_dsub>
 800b63c:	e9dd 2306 	ldrd	r2, r3, [sp, #24]
 800b640:	f7f6 fda2 	bl	8002188 <__aeabi_dmul>
 800b644:	4602      	mov	r2, r0
 800b646:	460b      	mov	r3, r1
 800b648:	e9dd 0104 	ldrd	r0, r1, [sp, #16]
 800b64c:	f7f6 fbea 	bl	8001e24 <__adddf3>
 800b650:	4680      	mov	r8, r0
 800b652:	4689      	mov	r9, r1
 800b654:	4642      	mov	r2, r8
 800b656:	464b      	mov	r3, r9
 800b658:	e9dd 0102 	ldrd	r0, r1, [sp, #8]
 800b65c:	f7f6 fbe2 	bl	8001e24 <__adddf3>
 800b660:	9b08      	ldr	r3, [sp, #32]
 800b662:	461c      	mov	r4, r3
 800b664:	4620      	mov	r0, r4
 800b666:	a320      	add	r3, pc, #128	; (adr r3, 800b6e8 <__ieee754_pow+0x538>)
 800b668:	e9d3 2300 	ldrd	r2, r3, [r3]
 800b66c:	460d      	mov	r5, r1
 800b66e:	f7f6 fd8b 	bl	8002188 <__aeabi_dmul>
 800b672:	a31f      	add	r3, pc, #124	; (adr r3, 800b6f0 <__ieee754_pow+0x540>)
 800b674:	e9d3 2300 	ldrd	r2, r3, [r3]
 800b678:	e9cd 0104 	strd	r0, r1, [sp, #16]
 800b67c:	4620      	mov	r0, r4
 800b67e:	4629      	mov	r1, r5
 800b680:	f7f6 fd82 	bl	8002188 <__aeabi_dmul>
 800b684:	e9dd 2302 	ldrd	r2, r3, [sp, #8]
 800b688:	e9cd 0106 	strd	r0, r1, [sp, #24]
 800b68c:	4620      	mov	r0, r4
 800b68e:	4629      	mov	r1, r5
 800b690:	f7f6 fbc6 	bl	8001e20 <__aeabi_dsub>
 800b694:	4602      	mov	r2, r0
 800b696:	460b      	mov	r3, r1
 800b698:	4640      	mov	r0, r8
 800b69a:	4649      	mov	r1, r9
 800b69c:	f7f6 fbc0 	bl	8001e20 <__aeabi_dsub>
 800b6a0:	a315      	add	r3, pc, #84	; (adr r3, 800b6f8 <__ieee754_pow+0x548>)
 800b6a2:	e9d3 2300 	ldrd	r2, r3, [r3]
 800b6a6:	f7f6 fd6f 	bl	8002188 <__aeabi_dmul>
 800b6aa:	4602      	mov	r2, r0
 800b6ac:	460b      	mov	r3, r1
 800b6ae:	e9dd 0106 	ldrd	r0, r1, [sp, #24]
 800b6b2:	f7f6 fbb7 	bl	8001e24 <__adddf3>
 800b6b6:	e025      	b.n	800b704 <__ieee754_pow+0x554>
 800b6b8:	4a454eef 	.word	0x4a454eef
 800b6bc:	3fca7e28 	.word	0x3fca7e28
 800b6c0:	93c9db65 	.word	0x93c9db65
 800b6c4:	3fcd864a 	.word	0x3fcd864a
 800b6c8:	a91d4101 	.word	0xa91d4101
 800b6cc:	3fd17460 	.word	0x3fd17460
 800b6d0:	518f264d 	.word	0x518f264d
 800b6d4:	3fd55555 	.word	0x3fd55555
 800b6d8:	db6fabff 	.word	0xdb6fabff
 800b6dc:	3fdb6db6 	.word	0x3fdb6db6
 800b6e0:	33333303 	.word	0x33333303
 800b6e4:	3fe33333 	.word	0x3fe33333
 800b6e8:	e0000000 	.word	0xe0000000
 800b6ec:	3feec709 	.word	0x3feec709
 800b6f0:	145b01f5 	.word	0x145b01f5
 800b6f4:	be3e2fe0 	.word	0xbe3e2fe0
 800b6f8:	dc3a03fd 	.word	0xdc3a03fd
 800b6fc:	3feec709 	.word	0x3feec709
 800b700:	0800e360 	.word	0x0800e360
 800b704:	f8dd c000 	ldr.w	ip, [sp]
 800b708:	4baf      	ldr	r3, [pc, #700]	; (800b9c8 <__ieee754_pow+0x818>)
 800b70a:	eb03 020c 	add.w	r2, r3, ip
 800b70e:	e9d2 2300 	ldrd	r2, r3, [r2]
 800b712:	f7f6 fb87 	bl	8001e24 <__adddf3>
 800b716:	4680      	mov	r8, r0
 800b718:	980f      	ldr	r0, [sp, #60]	; 0x3c
 800b71a:	4689      	mov	r9, r1
 800b71c:	f7f6 fcce 	bl	80020bc <__aeabi_i2d>
 800b720:	f8dd c000 	ldr.w	ip, [sp]
 800b724:	460d      	mov	r5, r1
 800b726:	49a9      	ldr	r1, [pc, #676]	; (800b9cc <__ieee754_pow+0x81c>)
 800b728:	4604      	mov	r4, r0
 800b72a:	eb01 000c 	add.w	r0, r1, ip
 800b72e:	ed90 1b00 	vldr	d1, [r0]
 800b732:	4642      	mov	r2, r8
 800b734:	ed8d 1b06 	vstr	d1, [sp, #24]
 800b738:	464b      	mov	r3, r9
 800b73a:	e9dd 0104 	ldrd	r0, r1, [sp, #16]
 800b73e:	f7f6 fb71 	bl	8001e24 <__adddf3>
 800b742:	e9dd 2306 	ldrd	r2, r3, [sp, #24]
 800b746:	f7f6 fb6d 	bl	8001e24 <__adddf3>
 800b74a:	4622      	mov	r2, r4
 800b74c:	462b      	mov	r3, r5
 800b74e:	f7f6 fb69 	bl	8001e24 <__adddf3>
 800b752:	9b08      	ldr	r3, [sp, #32]
 800b754:	4622      	mov	r2, r4
 800b756:	4618      	mov	r0, r3
 800b758:	462b      	mov	r3, r5
 800b75a:	e9cd 0102 	strd	r0, r1, [sp, #8]
 800b75e:	f7f6 fb5f 	bl	8001e20 <__aeabi_dsub>
 800b762:	e9dd 2306 	ldrd	r2, r3, [sp, #24]
 800b766:	f7f6 fb5b 	bl	8001e20 <__aeabi_dsub>
 800b76a:	e9dd 2304 	ldrd	r2, r3, [sp, #16]
 800b76e:	f7f6 fb57 	bl	8001e20 <__aeabi_dsub>
 800b772:	4602      	mov	r2, r0
 800b774:	460b      	mov	r3, r1
 800b776:	4640      	mov	r0, r8
 800b778:	4649      	mov	r1, r9
 800b77a:	f7f6 fb51 	bl	8001e20 <__aeabi_dsub>
 800b77e:	4680      	mov	r8, r0
 800b780:	4689      	mov	r9, r1
 800b782:	3e01      	subs	r6, #1
 800b784:	433e      	orrs	r6, r7
 800b786:	f040 81b4 	bne.w	800baf2 <__ieee754_pow+0x942>
 800b78a:	ed9f 3b7b 	vldr	d3, [pc, #492]	; 800b978 <__ieee754_pow+0x7c8>
 800b78e:	ed8d 3b08 	vstr	d3, [sp, #32]
 800b792:	2400      	movs	r4, #0
 800b794:	4622      	mov	r2, r4
 800b796:	4653      	mov	r3, sl
 800b798:	4658      	mov	r0, fp
 800b79a:	4651      	mov	r1, sl
 800b79c:	f7f6 fb40 	bl	8001e20 <__aeabi_dsub>
 800b7a0:	e9dd 2302 	ldrd	r2, r3, [sp, #8]
 800b7a4:	f7f6 fcf0 	bl	8002188 <__aeabi_dmul>
 800b7a8:	4655      	mov	r5, sl
 800b7aa:	4606      	mov	r6, r0
 800b7ac:	460f      	mov	r7, r1
 800b7ae:	4642      	mov	r2, r8
 800b7b0:	464b      	mov	r3, r9
 800b7b2:	4658      	mov	r0, fp
 800b7b4:	4629      	mov	r1, r5
 800b7b6:	f7f6 fce7 	bl	8002188 <__aeabi_dmul>
 800b7ba:	4602      	mov	r2, r0
 800b7bc:	460b      	mov	r3, r1
 800b7be:	4630      	mov	r0, r6
 800b7c0:	4639      	mov	r1, r7
 800b7c2:	f7f6 fb2f 	bl	8001e24 <__adddf3>
 800b7c6:	e9dd 2302 	ldrd	r2, r3, [sp, #8]
 800b7ca:	4682      	mov	sl, r0
 800b7cc:	468b      	mov	fp, r1
 800b7ce:	4620      	mov	r0, r4
 800b7d0:	4629      	mov	r1, r5
 800b7d2:	f7f6 fcd9 	bl	8002188 <__aeabi_dmul>
 800b7d6:	4604      	mov	r4, r0
 800b7d8:	460d      	mov	r5, r1
 800b7da:	4650      	mov	r0, sl
 800b7dc:	4659      	mov	r1, fp
 800b7de:	4622      	mov	r2, r4
 800b7e0:	462b      	mov	r3, r5
 800b7e2:	f7f6 fb1f 	bl	8001e24 <__adddf3>
 800b7e6:	f64f 78ff 	movw	r8, #65535	; 0xffff
 800b7ea:	f2c4 088f 	movt	r8, #16527	; 0x408f
 800b7ee:	4541      	cmp	r1, r8
 800b7f0:	4606      	mov	r6, r0
 800b7f2:	460f      	mov	r7, r1
 800b7f4:	4689      	mov	r9, r1
 800b7f6:	f340 8126 	ble.w	800ba46 <__ieee754_pow+0x896>
 800b7fa:	f101 403f 	add.w	r0, r1, #3204448256	; 0xbf000000
 800b7fe:	f500 01e0 	add.w	r1, r0, #7340032	; 0x700000
 800b802:	ea51 0306 	orrs.w	r3, r1, r6
 800b806:	f040 8213 	bne.w	800bc30 <__ieee754_pow+0xa80>
 800b80a:	a35d      	add	r3, pc, #372	; (adr r3, 800b980 <__ieee754_pow+0x7d0>)
 800b80c:	e9d3 2300 	ldrd	r2, r3, [r3]
 800b810:	4650      	mov	r0, sl
 800b812:	4659      	mov	r1, fp
 800b814:	f7f6 fb06 	bl	8001e24 <__adddf3>
 800b818:	4622      	mov	r2, r4
 800b81a:	e9cd 0102 	strd	r0, r1, [sp, #8]
 800b81e:	462b      	mov	r3, r5
 800b820:	4630      	mov	r0, r6
 800b822:	4639      	mov	r1, r7
 800b824:	f7f6 fafc 	bl	8001e20 <__aeabi_dsub>
 800b828:	4602      	mov	r2, r0
 800b82a:	460b      	mov	r3, r1
 800b82c:	e9dd 0102 	ldrd	r0, r1, [sp, #8]
 800b830:	f7f6 ff3a 	bl	80026a8 <__aeabi_dcmpgt>
 800b834:	2800      	cmp	r0, #0
 800b836:	f040 81fb 	bne.w	800bc30 <__ieee754_pow+0xa80>
 800b83a:	f027 4800 	bic.w	r8, r7, #2147483648	; 0x80000000
 800b83e:	2600      	movs	r6, #0
 800b840:	f6c3 76e0 	movt	r6, #16352	; 0x3fe0
 800b844:	45b0      	cmp	r8, r6
 800b846:	f300 811c 	bgt.w	800ba82 <__ieee754_pow+0x8d2>
 800b84a:	f04f 0c00 	mov.w	ip, #0
 800b84e:	f8cd c008 	str.w	ip, [sp, #8]
 800b852:	2600      	movs	r6, #0
 800b854:	a34c      	add	r3, pc, #304	; (adr r3, 800b988 <__ieee754_pow+0x7d8>)
 800b856:	e9d3 2300 	ldrd	r2, r3, [r3]
 800b85a:	4630      	mov	r0, r6
 800b85c:	4639      	mov	r1, r7
 800b85e:	f8cd c000 	str.w	ip, [sp]
 800b862:	f7f6 fc91 	bl	8002188 <__aeabi_dmul>
 800b866:	4622      	mov	r2, r4
 800b868:	4680      	mov	r8, r0
 800b86a:	4689      	mov	r9, r1
 800b86c:	462b      	mov	r3, r5
 800b86e:	4630      	mov	r0, r6
 800b870:	4639      	mov	r1, r7
 800b872:	f7f6 fad5 	bl	8001e20 <__aeabi_dsub>
 800b876:	4602      	mov	r2, r0
 800b878:	460b      	mov	r3, r1
 800b87a:	4650      	mov	r0, sl
 800b87c:	4659      	mov	r1, fp
 800b87e:	f7f6 facf 	bl	8001e20 <__aeabi_dsub>
 800b882:	a343      	add	r3, pc, #268	; (adr r3, 800b990 <__ieee754_pow+0x7e0>)
 800b884:	e9d3 2300 	ldrd	r2, r3, [r3]
 800b888:	f7f6 fc7e 	bl	8002188 <__aeabi_dmul>
 800b88c:	a342      	add	r3, pc, #264	; (adr r3, 800b998 <__ieee754_pow+0x7e8>)
 800b88e:	e9d3 2300 	ldrd	r2, r3, [r3]
 800b892:	4604      	mov	r4, r0
 800b894:	460d      	mov	r5, r1
 800b896:	4630      	mov	r0, r6
 800b898:	4639      	mov	r1, r7
 800b89a:	f7f6 fc75 	bl	8002188 <__aeabi_dmul>
 800b89e:	4602      	mov	r2, r0
 800b8a0:	460b      	mov	r3, r1
 800b8a2:	4620      	mov	r0, r4
 800b8a4:	4629      	mov	r1, r5
 800b8a6:	f7f6 fabd 	bl	8001e24 <__adddf3>
 800b8aa:	4606      	mov	r6, r0
 800b8ac:	460f      	mov	r7, r1
 800b8ae:	4632      	mov	r2, r6
 800b8b0:	463b      	mov	r3, r7
 800b8b2:	4640      	mov	r0, r8
 800b8b4:	4649      	mov	r1, r9
 800b8b6:	f7f6 fab5 	bl	8001e24 <__adddf3>
 800b8ba:	4642      	mov	r2, r8
 800b8bc:	464b      	mov	r3, r9
 800b8be:	4604      	mov	r4, r0
 800b8c0:	460d      	mov	r5, r1
 800b8c2:	f7f6 faad 	bl	8001e20 <__aeabi_dsub>
 800b8c6:	4602      	mov	r2, r0
 800b8c8:	460b      	mov	r3, r1
 800b8ca:	4630      	mov	r0, r6
 800b8cc:	4639      	mov	r1, r7
 800b8ce:	f7f6 faa7 	bl	8001e20 <__aeabi_dsub>
 800b8d2:	4622      	mov	r2, r4
 800b8d4:	4682      	mov	sl, r0
 800b8d6:	468b      	mov	fp, r1
 800b8d8:	462b      	mov	r3, r5
 800b8da:	4620      	mov	r0, r4
 800b8dc:	4629      	mov	r1, r5
 800b8de:	f7f6 fc53 	bl	8002188 <__aeabi_dmul>
 800b8e2:	a32f      	add	r3, pc, #188	; (adr r3, 800b9a0 <__ieee754_pow+0x7f0>)
 800b8e4:	e9d3 2300 	ldrd	r2, r3, [r3]
 800b8e8:	4606      	mov	r6, r0
 800b8ea:	460f      	mov	r7, r1
 800b8ec:	f7f6 fc4c 	bl	8002188 <__aeabi_dmul>
 800b8f0:	a32d      	add	r3, pc, #180	; (adr r3, 800b9a8 <__ieee754_pow+0x7f8>)
 800b8f2:	e9d3 2300 	ldrd	r2, r3, [r3]
 800b8f6:	f7f6 fa93 	bl	8001e20 <__aeabi_dsub>
 800b8fa:	4632      	mov	r2, r6
 800b8fc:	463b      	mov	r3, r7
 800b8fe:	f7f6 fc43 	bl	8002188 <__aeabi_dmul>
 800b902:	a32b      	add	r3, pc, #172	; (adr r3, 800b9b0 <__ieee754_pow+0x800>)
 800b904:	e9d3 2300 	ldrd	r2, r3, [r3]
 800b908:	f7f6 fa8c 	bl	8001e24 <__adddf3>
 800b90c:	4632      	mov	r2, r6
 800b90e:	463b      	mov	r3, r7
 800b910:	f7f6 fc3a 	bl	8002188 <__aeabi_dmul>
 800b914:	a328      	add	r3, pc, #160	; (adr r3, 800b9b8 <__ieee754_pow+0x808>)
 800b916:	e9d3 2300 	ldrd	r2, r3, [r3]
 800b91a:	f7f6 fa81 	bl	8001e20 <__aeabi_dsub>
 800b91e:	4632      	mov	r2, r6
 800b920:	463b      	mov	r3, r7
 800b922:	f7f6 fc31 	bl	8002188 <__aeabi_dmul>
 800b926:	a326      	add	r3, pc, #152	; (adr r3, 800b9c0 <__ieee754_pow+0x810>)
 800b928:	e9d3 2300 	ldrd	r2, r3, [r3]
 800b92c:	f7f6 fa7a 	bl	8001e24 <__adddf3>
 800b930:	4632      	mov	r2, r6
 800b932:	463b      	mov	r3, r7
 800b934:	f7f6 fc28 	bl	8002188 <__aeabi_dmul>
 800b938:	4602      	mov	r2, r0
 800b93a:	460b      	mov	r3, r1
 800b93c:	4620      	mov	r0, r4
 800b93e:	4629      	mov	r1, r5
 800b940:	f7f6 fa6e 	bl	8001e20 <__aeabi_dsub>
 800b944:	4606      	mov	r6, r0
 800b946:	460f      	mov	r7, r1
 800b948:	4632      	mov	r2, r6
 800b94a:	463b      	mov	r3, r7
 800b94c:	4620      	mov	r0, r4
 800b94e:	4629      	mov	r1, r5
 800b950:	f7f6 fc1a 	bl	8002188 <__aeabi_dmul>
 800b954:	2200      	movs	r2, #0
 800b956:	4680      	mov	r8, r0
 800b958:	4689      	mov	r9, r1
 800b95a:	4630      	mov	r0, r6
 800b95c:	4639      	mov	r1, r7
 800b95e:	f04f 4380 	mov.w	r3, #1073741824	; 0x40000000
 800b962:	f7f6 fa5d 	bl	8001e20 <__aeabi_dsub>
 800b966:	4602      	mov	r2, r0
 800b968:	460b      	mov	r3, r1
 800b96a:	4640      	mov	r0, r8
 800b96c:	4649      	mov	r1, r9
 800b96e:	f7f6 fd35 	bl	80023dc <__aeabi_ddiv>
 800b972:	e02d      	b.n	800b9d0 <__ieee754_pow+0x820>
 800b974:	f3af 8000 	nop.w
 800b978:	00000000 	.word	0x00000000
 800b97c:	bff00000 	.word	0xbff00000
 800b980:	652b82fe 	.word	0x652b82fe
 800b984:	3c971547 	.word	0x3c971547
 800b988:	00000000 	.word	0x00000000
 800b98c:	3fe62e43 	.word	0x3fe62e43
 800b990:	fefa39ef 	.word	0xfefa39ef
 800b994:	3fe62e42 	.word	0x3fe62e42
 800b998:	0ca86c39 	.word	0x0ca86c39
 800b99c:	be205c61 	.word	0xbe205c61
 800b9a0:	72bea4d0 	.word	0x72bea4d0
 800b9a4:	3e663769 	.word	0x3e663769
 800b9a8:	c5d26bf1 	.word	0xc5d26bf1
 800b9ac:	3ebbbd41 	.word	0x3ebbbd41
 800b9b0:	af25de2c 	.word	0xaf25de2c
 800b9b4:	3f11566a 	.word	0x3f11566a
 800b9b8:	16bebd93 	.word	0x16bebd93
 800b9bc:	3f66c16c 	.word	0x3f66c16c
 800b9c0:	5555553e 	.word	0x5555553e
 800b9c4:	3fc55555 	.word	0x3fc55555
 800b9c8:	0800e350 	.word	0x0800e350
 800b9cc:	0800e340 	.word	0x0800e340
 800b9d0:	4652      	mov	r2, sl
 800b9d2:	4606      	mov	r6, r0
 800b9d4:	460f      	mov	r7, r1
 800b9d6:	465b      	mov	r3, fp
 800b9d8:	4620      	mov	r0, r4
 800b9da:	4629      	mov	r1, r5
 800b9dc:	f7f6 fbd4 	bl	8002188 <__aeabi_dmul>
 800b9e0:	4652      	mov	r2, sl
 800b9e2:	465b      	mov	r3, fp
 800b9e4:	f7f6 fa1e 	bl	8001e24 <__adddf3>
 800b9e8:	4602      	mov	r2, r0
 800b9ea:	460b      	mov	r3, r1
 800b9ec:	4630      	mov	r0, r6
 800b9ee:	4639      	mov	r1, r7
 800b9f0:	f7f6 fa16 	bl	8001e20 <__aeabi_dsub>
 800b9f4:	4622      	mov	r2, r4
 800b9f6:	462b      	mov	r3, r5
 800b9f8:	f7f6 fa12 	bl	8001e20 <__aeabi_dsub>
 800b9fc:	460b      	mov	r3, r1
 800b9fe:	2100      	movs	r1, #0
 800ba00:	4602      	mov	r2, r0
 800ba02:	f6c3 71f0 	movt	r1, #16368	; 0x3ff0
 800ba06:	2000      	movs	r0, #0
 800ba08:	f7f6 fa0a 	bl	8001e20 <__aeabi_dsub>
 800ba0c:	f8dd c000 	ldr.w	ip, [sp]
 800ba10:	eb0c 0201 	add.w	r2, ip, r1
 800ba14:	f5b2 1f80 	cmp.w	r2, #1048576	; 0x100000
 800ba18:	f2c0 8146 	blt.w	800bca8 <__ieee754_pow+0xaf8>
 800ba1c:	4611      	mov	r1, r2
 800ba1e:	460b      	mov	r3, r1
 800ba20:	4602      	mov	r2, r0
 800ba22:	e9dd 0108 	ldrd	r0, r1, [sp, #32]
 800ba26:	f7f6 fbaf 	bl	8002188 <__aeabi_dmul>
 800ba2a:	4683      	mov	fp, r0
 800ba2c:	468a      	mov	sl, r1
 800ba2e:	f7ff bbe8 	b.w	800b202 <__ieee754_pow+0x52>
 800ba32:	f04f 0a00 	mov.w	sl, #0
 800ba36:	4683      	mov	fp, r0
 800ba38:	f6c3 7af0 	movt	sl, #16368	; 0x3ff0
 800ba3c:	f7ff bbe1 	b.w	800b202 <__ieee754_pow+0x52>
 800ba40:	4620      	mov	r0, r4
 800ba42:	4629      	mov	r1, r5
 800ba44:	e47a      	b.n	800b33c <__ieee754_pow+0x18c>
 800ba46:	f64c 33ff 	movw	r3, #52223	; 0xcbff
 800ba4a:	f021 4800 	bic.w	r8, r1, #2147483648	; 0x80000000
 800ba4e:	f2c4 0390 	movt	r3, #16528	; 0x4090
 800ba52:	4598      	cmp	r8, r3
 800ba54:	f77f aef3 	ble.w	800b83e <__ieee754_pow+0x68e>
 800ba58:	f44f 5350 	mov.w	r3, #13312	; 0x3400
 800ba5c:	f6c3 736f 	movt	r3, #16239	; 0x3f6f
 800ba60:	18cb      	adds	r3, r1, r3
 800ba62:	4303      	orrs	r3, r0
 800ba64:	f040 810d 	bne.w	800bc82 <__ieee754_pow+0xad2>
 800ba68:	4622      	mov	r2, r4
 800ba6a:	462b      	mov	r3, r5
 800ba6c:	f7f6 f9d8 	bl	8001e20 <__aeabi_dsub>
 800ba70:	4602      	mov	r2, r0
 800ba72:	460b      	mov	r3, r1
 800ba74:	4650      	mov	r0, sl
 800ba76:	4659      	mov	r1, fp
 800ba78:	f7f6 fe02 	bl	8002680 <__aeabi_dcmple>
 800ba7c:	2800      	cmp	r0, #0
 800ba7e:	f040 8100 	bne.w	800bc82 <__ieee754_pow+0xad2>
 800ba82:	ea4f 5728 	mov.w	r7, r8, asr #20
 800ba86:	f2a7 32fe 	subw	r2, r7, #1022	; 0x3fe
 800ba8a:	f44f 1380 	mov.w	r3, #1048576	; 0x100000
 800ba8e:	fa43 f302 	asr.w	r3, r3, r2
 800ba92:	eb03 0109 	add.w	r1, r3, r9
 800ba96:	f3c1 500a 	ubfx	r0, r1, #20, #11
 800ba9a:	f64f 76ff 	movw	r6, #65535	; 0xffff
 800ba9e:	f2a0 37ff 	subw	r7, r0, #1023	; 0x3ff
 800baa2:	f2c0 060f 	movt	r6, #15
 800baa6:	f021 487f 	bic.w	r8, r1, #4278190080	; 0xff000000
 800baaa:	fa46 f307 	asr.w	r3, r6, r7
 800baae:	f5c0 6082 	rsb	r0, r0, #1040	; 0x410
 800bab2:	f428 0670 	bic.w	r6, r8, #15728640	; 0xf00000
 800bab6:	ea21 0303 	bic.w	r3, r1, r3
 800baba:	f446 1780 	orr.w	r7, r6, #1048576	; 0x100000
 800babe:	1cc1      	adds	r1, r0, #3
 800bac0:	2200      	movs	r2, #0
 800bac2:	fa47 f601 	asr.w	r6, r7, r1
 800bac6:	f1b9 0f00 	cmp.w	r9, #0
 800baca:	9602      	str	r6, [sp, #8]
 800bacc:	f2c0 80e9 	blt.w	800bca2 <__ieee754_pow+0xaf2>
 800bad0:	4620      	mov	r0, r4
 800bad2:	4629      	mov	r1, r5
 800bad4:	f7f6 f9a4 	bl	8001e20 <__aeabi_dsub>
 800bad8:	4604      	mov	r4, r0
 800bada:	460d      	mov	r5, r1
 800badc:	4622      	mov	r2, r4
 800bade:	4650      	mov	r0, sl
 800bae0:	4659      	mov	r1, fp
 800bae2:	462b      	mov	r3, r5
 800bae4:	f7f6 f99e 	bl	8001e24 <__adddf3>
 800bae8:	9a02      	ldr	r2, [sp, #8]
 800baea:	460f      	mov	r7, r1
 800baec:	ea4f 5c02 	mov.w	ip, r2, lsl #20
 800baf0:	e6af      	b.n	800b852 <__ieee754_pow+0x6a2>
 800baf2:	ed9f 2b75 	vldr	d2, [pc, #468]	; 800bcc8 <__ieee754_pow+0xb18>
 800baf6:	ed8d 2b08 	vstr	d2, [sp, #32]
 800bafa:	e64a      	b.n	800b792 <__ieee754_pow+0x5e2>
 800bafc:	f1b9 0f00 	cmp.w	r9, #0
 800bb00:	f6bf ac63 	bge.w	800b3ca <__ieee754_pow+0x21a>
 800bb04:	f10a 4a00 	add.w	sl, sl, #2147483648	; 0x80000000
 800bb08:	f7ff bb7b 	b.w	800b202 <__ieee754_pow+0x52>
 800bb0c:	f1b9 0f00 	cmp.w	r9, #0
 800bb10:	f6bf ac5b 	bge.w	800b3ca <__ieee754_pow+0x21a>
 800bb14:	e40f      	b.n	800b336 <__ieee754_pow+0x186>
 800bb16:	460b      	mov	r3, r1
 800bb18:	2100      	movs	r1, #0
 800bb1a:	4602      	mov	r2, r0
 800bb1c:	f6c3 71f0 	movt	r1, #16368	; 0x3ff0
 800bb20:	2000      	movs	r0, #0
 800bb22:	f7f6 fc5b 	bl	80023dc <__aeabi_ddiv>
 800bb26:	4683      	mov	fp, r0
 800bb28:	468a      	mov	sl, r1
 800bb2a:	f7ff bbd3 	b.w	800b2d4 <__ieee754_pow+0x124>
 800bb2e:	2400      	movs	r4, #0
 800bb30:	46a1      	mov	r9, r4
 800bb32:	e48d      	b.n	800b450 <__ieee754_pow+0x2a0>
 800bb34:	2400      	movs	r4, #0
 800bb36:	e466      	b.n	800b406 <__ieee754_pow+0x256>
 800bb38:	f64f 73fe 	movw	r3, #65534	; 0xfffe
 800bb3c:	f6c3 73ef 	movt	r3, #16367	; 0x3fef
 800bb40:	4598      	cmp	r8, r3
 800bb42:	dde3      	ble.n	800bb0c <__ieee754_pow+0x95c>
 800bb44:	2200      	movs	r2, #0
 800bb46:	f6c3 72f0 	movt	r2, #16368	; 0x3ff0
 800bb4a:	4590      	cmp	r8, r2
 800bb4c:	f73f abf0 	bgt.w	800b330 <__ieee754_pow+0x180>
 800bb50:	2300      	movs	r3, #0
 800bb52:	2200      	movs	r2, #0
 800bb54:	f6c3 73f0 	movt	r3, #16368	; 0x3ff0
 800bb58:	f7f6 f962 	bl	8001e20 <__aeabi_dsub>
 800bb5c:	a35c      	add	r3, pc, #368	; (adr r3, 800bcd0 <__ieee754_pow+0xb20>)
 800bb5e:	e9d3 2300 	ldrd	r2, r3, [r3]
 800bb62:	4604      	mov	r4, r0
 800bb64:	460d      	mov	r5, r1
 800bb66:	f7f6 fb0f 	bl	8002188 <__aeabi_dmul>
 800bb6a:	a35b      	add	r3, pc, #364	; (adr r3, 800bcd8 <__ieee754_pow+0xb28>)
 800bb6c:	e9d3 2300 	ldrd	r2, r3, [r3]
 800bb70:	4680      	mov	r8, r0
 800bb72:	4689      	mov	r9, r1
 800bb74:	4620      	mov	r0, r4
 800bb76:	4629      	mov	r1, r5
 800bb78:	f7f6 fb06 	bl	8002188 <__aeabi_dmul>
 800bb7c:	4622      	mov	r2, r4
 800bb7e:	e9cd 0102 	strd	r0, r1, [sp, #8]
 800bb82:	462b      	mov	r3, r5
 800bb84:	4620      	mov	r0, r4
 800bb86:	4629      	mov	r1, r5
 800bb88:	f7f6 fafe 	bl	8002188 <__aeabi_dmul>
 800bb8c:	2300      	movs	r3, #0
 800bb8e:	e9cd 0108 	strd	r0, r1, [sp, #32]
 800bb92:	2200      	movs	r2, #0
 800bb94:	4620      	mov	r0, r4
 800bb96:	4629      	mov	r1, r5
 800bb98:	f6c3 73d0 	movt	r3, #16336	; 0x3fd0
 800bb9c:	f7f6 faf4 	bl	8002188 <__aeabi_dmul>
 800bba0:	4602      	mov	r2, r0
 800bba2:	460b      	mov	r3, r1
 800bba4:	a14e      	add	r1, pc, #312	; (adr r1, 800bce0 <__ieee754_pow+0xb30>)
 800bba6:	e9d1 0100 	ldrd	r0, r1, [r1]
 800bbaa:	f7f6 f939 	bl	8001e20 <__aeabi_dsub>
 800bbae:	4622      	mov	r2, r4
 800bbb0:	462b      	mov	r3, r5
 800bbb2:	f7f6 fae9 	bl	8002188 <__aeabi_dmul>
 800bbb6:	460b      	mov	r3, r1
 800bbb8:	2100      	movs	r1, #0
 800bbba:	4602      	mov	r2, r0
 800bbbc:	f6c3 71e0 	movt	r1, #16352	; 0x3fe0
 800bbc0:	2000      	movs	r0, #0
 800bbc2:	f7f6 f92d 	bl	8001e20 <__aeabi_dsub>
 800bbc6:	4602      	mov	r2, r0
 800bbc8:	460b      	mov	r3, r1
 800bbca:	e9dd 0108 	ldrd	r0, r1, [sp, #32]
 800bbce:	f7f6 fadb 	bl	8002188 <__aeabi_dmul>
 800bbd2:	a345      	add	r3, pc, #276	; (adr r3, 800bce8 <__ieee754_pow+0xb38>)
 800bbd4:	e9d3 2300 	ldrd	r2, r3, [r3]
 800bbd8:	f7f6 fad6 	bl	8002188 <__aeabi_dmul>
 800bbdc:	4602      	mov	r2, r0
 800bbde:	460b      	mov	r3, r1
 800bbe0:	e9dd 0102 	ldrd	r0, r1, [sp, #8]
 800bbe4:	f7f6 f91c 	bl	8001e20 <__aeabi_dsub>
 800bbe8:	4604      	mov	r4, r0
 800bbea:	460d      	mov	r5, r1
 800bbec:	4640      	mov	r0, r8
 800bbee:	4649      	mov	r1, r9
 800bbf0:	4622      	mov	r2, r4
 800bbf2:	462b      	mov	r3, r5
 800bbf4:	f7f6 f916 	bl	8001e24 <__adddf3>
 800bbf8:	4642      	mov	r2, r8
 800bbfa:	464b      	mov	r3, r9
 800bbfc:	2000      	movs	r0, #0
 800bbfe:	e9cd 0102 	strd	r0, r1, [sp, #8]
 800bc02:	f7f6 f90d 	bl	8001e20 <__aeabi_dsub>
 800bc06:	4602      	mov	r2, r0
 800bc08:	460b      	mov	r3, r1
 800bc0a:	4620      	mov	r0, r4
 800bc0c:	4629      	mov	r1, r5
 800bc0e:	f7f6 f907 	bl	8001e20 <__aeabi_dsub>
 800bc12:	4680      	mov	r8, r0
 800bc14:	4689      	mov	r9, r1
 800bc16:	e5b4      	b.n	800b782 <__ieee754_pow+0x5d2>
 800bc18:	2100      	movs	r1, #0
 800bc1a:	4622      	mov	r2, r4
 800bc1c:	462b      	mov	r3, r5
 800bc1e:	2000      	movs	r0, #0
 800bc20:	f6c3 71f0 	movt	r1, #16368	; 0x3ff0
 800bc24:	f7f6 fbda 	bl	80023dc <__aeabi_ddiv>
 800bc28:	4683      	mov	fp, r0
 800bc2a:	468a      	mov	sl, r1
 800bc2c:	f7ff bae9 	b.w	800b202 <__ieee754_pow+0x52>
 800bc30:	a32f      	add	r3, pc, #188	; (adr r3, 800bcf0 <__ieee754_pow+0xb40>)
 800bc32:	e9d3 2300 	ldrd	r2, r3, [r3]
 800bc36:	e9dd 0108 	ldrd	r0, r1, [sp, #32]
 800bc3a:	f7f6 faa5 	bl	8002188 <__aeabi_dmul>
 800bc3e:	a32c      	add	r3, pc, #176	; (adr r3, 800bcf0 <__ieee754_pow+0xb40>)
 800bc40:	e9d3 2300 	ldrd	r2, r3, [r3]
 800bc44:	f7f6 faa0 	bl	8002188 <__aeabi_dmul>
 800bc48:	4683      	mov	fp, r0
 800bc4a:	468a      	mov	sl, r1
 800bc4c:	f7ff bad9 	b.w	800b202 <__ieee754_pow+0x52>
 800bc50:	2e01      	cmp	r6, #1
 800bc52:	f47f aad6 	bne.w	800b202 <__ieee754_pow+0x52>
 800bc56:	e755      	b.n	800bb04 <__ieee754_pow+0x954>
 800bc58:	2800      	cmp	r0, #0
 800bc5a:	f47f ab16 	bne.w	800b28a <__ieee754_pow+0xda>
 800bc5e:	f5c6 6382 	rsb	r3, r6, #1040	; 0x410
 800bc62:	1cde      	adds	r6, r3, #3
 800bc64:	fa4c f306 	asr.w	r3, ip, r6
 800bc68:	fa03 f106 	lsl.w	r1, r3, r6
 800bc6c:	4561      	cmp	r1, ip
 800bc6e:	d023      	beq.n	800bcb8 <__ieee754_pow+0xb08>
 800bc70:	4606      	mov	r6, r0
 800bc72:	f7ff bae1 	b.w	800b238 <__ieee754_pow+0x88>
 800bc76:	f44f 2480 	mov.w	r4, #262144	; 0x40000
 800bc7a:	f04f 0901 	mov.w	r9, #1
 800bc7e:	f7ff bbe7 	b.w	800b450 <__ieee754_pow+0x2a0>
 800bc82:	a31d      	add	r3, pc, #116	; (adr r3, 800bcf8 <__ieee754_pow+0xb48>)
 800bc84:	e9d3 2300 	ldrd	r2, r3, [r3]
 800bc88:	e9dd 0108 	ldrd	r0, r1, [sp, #32]
 800bc8c:	f7f6 fa7c 	bl	8002188 <__aeabi_dmul>
 800bc90:	a319      	add	r3, pc, #100	; (adr r3, 800bcf8 <__ieee754_pow+0xb48>)
 800bc92:	e9d3 2300 	ldrd	r2, r3, [r3]
 800bc96:	f7f6 fa77 	bl	8002188 <__aeabi_dmul>
 800bc9a:	4683      	mov	fp, r0
 800bc9c:	468a      	mov	sl, r1
 800bc9e:	f7ff bab0 	b.w	800b202 <__ieee754_pow+0x52>
 800bca2:	4270      	negs	r0, r6
 800bca4:	9002      	str	r0, [sp, #8]
 800bca6:	e713      	b.n	800bad0 <__ieee754_pow+0x920>
 800bca8:	ec41 0b10 	vmov	d0, r0, r1
 800bcac:	9802      	ldr	r0, [sp, #8]
 800bcae:	f001 ff8f 	bl	800dbd0 <scalbn>
 800bcb2:	ec53 2b10 	vmov	r2, r3, d0
 800bcb6:	e6b4      	b.n	800ba22 <__ieee754_pow+0x872>
 800bcb8:	f003 0001 	and.w	r0, r3, #1
 800bcbc:	f1c0 0602 	rsb	r6, r0, #2
 800bcc0:	f7ff baba 	b.w	800b238 <__ieee754_pow+0x88>
 800bcc4:	f3af 8000 	nop.w
 800bcc8:	00000000 	.word	0x00000000
 800bccc:	3ff00000 	.word	0x3ff00000
 800bcd0:	60000000 	.word	0x60000000
 800bcd4:	3ff71547 	.word	0x3ff71547
 800bcd8:	f85ddf44 	.word	0xf85ddf44
 800bcdc:	3e54ae0b 	.word	0x3e54ae0b
 800bce0:	55555555 	.word	0x55555555
 800bce4:	3fd55555 	.word	0x3fd55555
 800bce8:	652b82fe 	.word	0x652b82fe
 800bcec:	3ff71547 	.word	0x3ff71547
 800bcf0:	8800759c 	.word	0x8800759c
 800bcf4:	7e37e43c 	.word	0x7e37e43c
 800bcf8:	c2f8f359 	.word	0xc2f8f359
 800bcfc:	01a56e1f 	.word	0x01a56e1f

0800bd00 <__ieee754_rem_pio2>:
 800bd00:	e92d 4ff0 	stmdb	sp!, {r4, r5, r6, r7, r8, r9, sl, fp, lr}
 800bd04:	ec53 2b10 	vmov	r2, r3, d0
 800bd08:	f242 11fb 	movw	r1, #8699	; 0x21fb
 800bd0c:	f023 4600 	bic.w	r6, r3, #2147483648	; 0x80000000
 800bd10:	f6c3 71e9 	movt	r1, #16361	; 0x3fe9
 800bd14:	428e      	cmp	r6, r1
 800bd16:	b08f      	sub	sp, #60	; 0x3c
 800bd18:	461c      	mov	r4, r3
 800bd1a:	4680      	mov	r8, r0
 800bd1c:	f340 80ae 	ble.w	800be7c <__ieee754_rem_pio2+0x17c>
 800bd20:	f64d 127b 	movw	r2, #55675	; 0xd97b
 800bd24:	f2c4 0202 	movt	r2, #16386	; 0x4002
 800bd28:	4296      	cmp	r6, r2
 800bd2a:	4699      	mov	r9, r3
 800bd2c:	dc2b      	bgt.n	800bd86 <__ieee754_rem_pio2+0x86>
 800bd2e:	2c00      	cmp	r4, #0
 800bd30:	ec51 0b10 	vmov	r0, r1, d0
 800bd34:	a3a8      	add	r3, pc, #672	; (adr r3, 800bfd8 <__ieee754_rem_pio2+0x2d8>)
 800bd36:	e9d3 2300 	ldrd	r2, r3, [r3]
 800bd3a:	f340 81d1 	ble.w	800c0e0 <__ieee754_rem_pio2+0x3e0>
 800bd3e:	f7f6 f86f 	bl	8001e20 <__aeabi_dsub>
 800bd42:	f242 14fb 	movw	r4, #8699	; 0x21fb
 800bd46:	f6c3 74f9 	movt	r4, #16377	; 0x3ff9
 800bd4a:	42a6      	cmp	r6, r4
 800bd4c:	4682      	mov	sl, r0
 800bd4e:	468b      	mov	fp, r1
 800bd50:	f000 80b0 	beq.w	800beb4 <__ieee754_rem_pio2+0x1b4>
 800bd54:	a3a2      	add	r3, pc, #648	; (adr r3, 800bfe0 <__ieee754_rem_pio2+0x2e0>)
 800bd56:	e9d3 2300 	ldrd	r2, r3, [r3]
 800bd5a:	f7f6 f861 	bl	8001e20 <__aeabi_dsub>
 800bd5e:	4604      	mov	r4, r0
 800bd60:	460d      	mov	r5, r1
 800bd62:	4650      	mov	r0, sl
 800bd64:	4622      	mov	r2, r4
 800bd66:	462b      	mov	r3, r5
 800bd68:	4659      	mov	r1, fp
 800bd6a:	e9c8 4500 	strd	r4, r5, [r8]
 800bd6e:	f7f6 f857 	bl	8001e20 <__aeabi_dsub>
 800bd72:	a39b      	add	r3, pc, #620	; (adr r3, 800bfe0 <__ieee754_rem_pio2+0x2e0>)
 800bd74:	e9d3 2300 	ldrd	r2, r3, [r3]
 800bd78:	f7f6 f852 	bl	8001e20 <__aeabi_dsub>
 800bd7c:	f04f 0a01 	mov.w	sl, #1
 800bd80:	e9c8 0102 	strd	r0, r1, [r8, #8]
 800bd84:	e084      	b.n	800be90 <__ieee754_rem_pio2+0x190>
 800bd86:	f242 13fb 	movw	r3, #8699	; 0x21fb
 800bd8a:	f2c4 1339 	movt	r3, #16697	; 0x4139
 800bd8e:	429e      	cmp	r6, r3
 800bd90:	f340 80b0 	ble.w	800bef4 <__ieee754_rem_pio2+0x1f4>
 800bd94:	f64f 70ff 	movw	r0, #65535	; 0xffff
 800bd98:	f6c7 70ef 	movt	r0, #32751	; 0x7fef
 800bd9c:	4286      	cmp	r6, r0
 800bd9e:	dc7b      	bgt.n	800be98 <__ieee754_rem_pio2+0x198>
 800bda0:	ea4f 5a26 	mov.w	sl, r6, asr #20
 800bda4:	f2aa 4a16 	subw	sl, sl, #1046	; 0x416
 800bda8:	ec51 0b10 	vmov	r0, r1, d0
 800bdac:	eba6 550a 	sub.w	r5, r6, sl, lsl #20
 800bdb0:	4629      	mov	r1, r5
 800bdb2:	4606      	mov	r6, r0
 800bdb4:	f7f6 fc82 	bl	80026bc <__aeabi_d2iz>
 800bdb8:	f7f6 f980 	bl	80020bc <__aeabi_i2d>
 800bdbc:	462f      	mov	r7, r5
 800bdbe:	4604      	mov	r4, r0
 800bdc0:	460d      	mov	r5, r1
 800bdc2:	4622      	mov	r2, r4
 800bdc4:	462b      	mov	r3, r5
 800bdc6:	4630      	mov	r0, r6
 800bdc8:	4639      	mov	r1, r7
 800bdca:	e9cd 4508 	strd	r4, r5, [sp, #32]
 800bdce:	f7f6 f827 	bl	8001e20 <__aeabi_dsub>
 800bdd2:	2300      	movs	r3, #0
 800bdd4:	2200      	movs	r2, #0
 800bdd6:	f2c4 1370 	movt	r3, #16752	; 0x4170
 800bdda:	f7f6 f9d5 	bl	8002188 <__aeabi_dmul>
 800bdde:	460f      	mov	r7, r1
 800bde0:	4606      	mov	r6, r0
 800bde2:	f7f6 fc6b 	bl	80026bc <__aeabi_d2iz>
 800bde6:	f7f6 f969 	bl	80020bc <__aeabi_i2d>
 800bdea:	4604      	mov	r4, r0
 800bdec:	460d      	mov	r5, r1
 800bdee:	4622      	mov	r2, r4
 800bdf0:	462b      	mov	r3, r5
 800bdf2:	4630      	mov	r0, r6
 800bdf4:	4639      	mov	r1, r7
 800bdf6:	e9cd 450a 	strd	r4, r5, [sp, #40]	; 0x28
 800bdfa:	f7f6 f811 	bl	8001e20 <__aeabi_dsub>
 800bdfe:	2300      	movs	r3, #0
 800be00:	2200      	movs	r2, #0
 800be02:	f2c4 1370 	movt	r3, #16752	; 0x4170
 800be06:	f7f6 f9bf 	bl	8002188 <__aeabi_dmul>
 800be0a:	2200      	movs	r2, #0
 800be0c:	2300      	movs	r3, #0
 800be0e:	e9cd 010c 	strd	r0, r1, [sp, #48]	; 0x30
 800be12:	f7f6 fc21 	bl	8002658 <__aeabi_dcmpeq>
 800be16:	2800      	cmp	r0, #0
 800be18:	f000 8185 	beq.w	800c126 <__ieee754_rem_pio2+0x426>
 800be1c:	2603      	movs	r6, #3
 800be1e:	4620      	mov	r0, r4
 800be20:	4629      	mov	r1, r5
 800be22:	2200      	movs	r2, #0
 800be24:	2300      	movs	r3, #0
 800be26:	af0a      	add	r7, sp, #40	; 0x28
 800be28:	3e01      	subs	r6, #1
 800be2a:	f7f6 fc15 	bl	8002658 <__aeabi_dcmpeq>
 800be2e:	b140      	cbz	r0, 800be42 <__ieee754_rem_pio2+0x142>
 800be30:	e977 0102 	ldrd	r0, r1, [r7, #-8]!
 800be34:	2200      	movs	r2, #0
 800be36:	2300      	movs	r3, #0
 800be38:	3e01      	subs	r6, #1
 800be3a:	f7f6 fc0d 	bl	8002658 <__aeabi_dcmpeq>
 800be3e:	2800      	cmp	r0, #0
 800be40:	d1f6      	bne.n	800be30 <__ieee754_rem_pio2+0x130>
 800be42:	4a69      	ldr	r2, [pc, #420]	; (800bfe8 <__ieee754_rem_pio2+0x2e8>)
 800be44:	2102      	movs	r1, #2
 800be46:	9100      	str	r1, [sp, #0]
 800be48:	9201      	str	r2, [sp, #4]
 800be4a:	a808      	add	r0, sp, #32
 800be4c:	4652      	mov	r2, sl
 800be4e:	4641      	mov	r1, r8
 800be50:	4633      	mov	r3, r6
 800be52:	f000 fbe9 	bl	800c628 <__kernel_rem_pio2>
 800be56:	f1b9 0f00 	cmp.w	r9, #0
 800be5a:	4682      	mov	sl, r0
 800be5c:	da18      	bge.n	800be90 <__ieee754_rem_pio2+0x190>
 800be5e:	f8d8 0004 	ldr.w	r0, [r8, #4]
 800be62:	f8d8 300c 	ldr.w	r3, [r8, #12]
 800be66:	f100 4100 	add.w	r1, r0, #2147483648	; 0x80000000
 800be6a:	f103 4200 	add.w	r2, r3, #2147483648	; 0x80000000
 800be6e:	f8c8 1004 	str.w	r1, [r8, #4]
 800be72:	f8c8 200c 	str.w	r2, [r8, #12]
 800be76:	f1ca 0a00 	rsb	sl, sl, #0
 800be7a:	e009      	b.n	800be90 <__ieee754_rem_pio2+0x190>
 800be7c:	2200      	movs	r2, #0
 800be7e:	2300      	movs	r3, #0
 800be80:	ed88 0b00 	vstr	d0, [r8]
 800be84:	ec43 2b10 	vmov	d0, r2, r3
 800be88:	ed80 0b02 	vstr	d0, [r0, #8]
 800be8c:	f04f 0a00 	mov.w	sl, #0
 800be90:	4650      	mov	r0, sl
 800be92:	b00f      	add	sp, #60	; 0x3c
 800be94:	e8bd 8ff0 	ldmia.w	sp!, {r4, r5, r6, r7, r8, r9, sl, fp, pc}
 800be98:	ec51 0b10 	vmov	r0, r1, d0
 800be9c:	ee10 2a10 	vmov	r2, s0
 800bea0:	460b      	mov	r3, r1
 800bea2:	f7f5 ffbd 	bl	8001e20 <__aeabi_dsub>
 800bea6:	f04f 0a00 	mov.w	sl, #0
 800beaa:	e9c8 0102 	strd	r0, r1, [r8, #8]
 800beae:	e9c8 0100 	strd	r0, r1, [r8]
 800beb2:	e7ed      	b.n	800be90 <__ieee754_rem_pio2+0x190>
 800beb4:	a342      	add	r3, pc, #264	; (adr r3, 800bfc0 <__ieee754_rem_pio2+0x2c0>)
 800beb6:	e9d3 2300 	ldrd	r2, r3, [r3]
 800beba:	f7f5 ffb1 	bl	8001e20 <__aeabi_dsub>
 800bebe:	a342      	add	r3, pc, #264	; (adr r3, 800bfc8 <__ieee754_rem_pio2+0x2c8>)
 800bec0:	e9d3 2300 	ldrd	r2, r3, [r3]
 800bec4:	4606      	mov	r6, r0
 800bec6:	460f      	mov	r7, r1
 800bec8:	f7f5 ffaa 	bl	8001e20 <__aeabi_dsub>
 800becc:	4604      	mov	r4, r0
 800bece:	460d      	mov	r5, r1
 800bed0:	4622      	mov	r2, r4
 800bed2:	462b      	mov	r3, r5
 800bed4:	4630      	mov	r0, r6
 800bed6:	4639      	mov	r1, r7
 800bed8:	e9c8 4500 	strd	r4, r5, [r8]
 800bedc:	f7f5 ffa0 	bl	8001e20 <__aeabi_dsub>
 800bee0:	a339      	add	r3, pc, #228	; (adr r3, 800bfc8 <__ieee754_rem_pio2+0x2c8>)
 800bee2:	e9d3 2300 	ldrd	r2, r3, [r3]
 800bee6:	f7f5 ff9b 	bl	8001e20 <__aeabi_dsub>
 800beea:	f04f 0a01 	mov.w	sl, #1
 800beee:	e9c8 0102 	strd	r0, r1, [r8, #8]
 800bef2:	e7cd      	b.n	800be90 <__ieee754_rem_pio2+0x190>
 800bef4:	f001 fd24 	bl	800d940 <fabs>
 800bef8:	ec55 4b10 	vmov	r4, r5, d0
 800befc:	ee10 0a10 	vmov	r0, s0
 800bf00:	a333      	add	r3, pc, #204	; (adr r3, 800bfd0 <__ieee754_rem_pio2+0x2d0>)
 800bf02:	e9d3 2300 	ldrd	r2, r3, [r3]
 800bf06:	4629      	mov	r1, r5
 800bf08:	f7f6 f93e 	bl	8002188 <__aeabi_dmul>
 800bf0c:	2300      	movs	r3, #0
 800bf0e:	2200      	movs	r2, #0
 800bf10:	f6c3 73e0 	movt	r3, #16352	; 0x3fe0
 800bf14:	f7f5 ff86 	bl	8001e24 <__adddf3>
 800bf18:	f7f6 fbd0 	bl	80026bc <__aeabi_d2iz>
 800bf1c:	4682      	mov	sl, r0
 800bf1e:	f7f6 f8cd 	bl	80020bc <__aeabi_i2d>
 800bf22:	a32d      	add	r3, pc, #180	; (adr r3, 800bfd8 <__ieee754_rem_pio2+0x2d8>)
 800bf24:	e9d3 2300 	ldrd	r2, r3, [r3]
 800bf28:	e9cd 0104 	strd	r0, r1, [sp, #16]
 800bf2c:	f7f6 f92c 	bl	8002188 <__aeabi_dmul>
 800bf30:	4602      	mov	r2, r0
 800bf32:	460b      	mov	r3, r1
 800bf34:	4620      	mov	r0, r4
 800bf36:	4629      	mov	r1, r5
 800bf38:	f7f5 ff72 	bl	8001e20 <__aeabi_dsub>
 800bf3c:	a328      	add	r3, pc, #160	; (adr r3, 800bfe0 <__ieee754_rem_pio2+0x2e0>)
 800bf3e:	e9d3 2300 	ldrd	r2, r3, [r3]
 800bf42:	4604      	mov	r4, r0
 800bf44:	460d      	mov	r5, r1
 800bf46:	e9dd 0104 	ldrd	r0, r1, [sp, #16]
 800bf4a:	f7f6 f91d 	bl	8002188 <__aeabi_dmul>
 800bf4e:	f1ba 0f1f 	cmp.w	sl, #31
 800bf52:	e9cd 0102 	strd	r0, r1, [sp, #8]
 800bf56:	4620      	mov	r0, r4
 800bf58:	4629      	mov	r1, r5
 800bf5a:	dc49      	bgt.n	800bff0 <__ieee754_rem_pio2+0x2f0>
 800bf5c:	f10a 37ff 	add.w	r7, sl, #4294967295
 800bf60:	4b22      	ldr	r3, [pc, #136]	; (800bfec <__ieee754_rem_pio2+0x2ec>)
 800bf62:	f853 2027 	ldr.w	r2, [r3, r7, lsl #2]
 800bf66:	42b2      	cmp	r2, r6
 800bf68:	d042      	beq.n	800bff0 <__ieee754_rem_pio2+0x2f0>
 800bf6a:	e9dd 2302 	ldrd	r2, r3, [sp, #8]
 800bf6e:	f7f5 ff57 	bl	8001e20 <__aeabi_dsub>
 800bf72:	4602      	mov	r2, r0
 800bf74:	460b      	mov	r3, r1
 800bf76:	e9c8 2300 	strd	r2, r3, [r8]
 800bf7a:	4683      	mov	fp, r0
 800bf7c:	460f      	mov	r7, r1
 800bf7e:	465a      	mov	r2, fp
 800bf80:	463b      	mov	r3, r7
 800bf82:	4620      	mov	r0, r4
 800bf84:	4629      	mov	r1, r5
 800bf86:	f7f5 ff4b 	bl	8001e20 <__aeabi_dsub>
 800bf8a:	e9dd 2302 	ldrd	r2, r3, [sp, #8]
 800bf8e:	f7f5 ff47 	bl	8001e20 <__aeabi_dsub>
 800bf92:	f1b9 0f00 	cmp.w	r9, #0
 800bf96:	4602      	mov	r2, r0
 800bf98:	460b      	mov	r3, r1
 800bf9a:	e9c8 2302 	strd	r2, r3, [r8, #8]
 800bf9e:	f6bf af77 	bge.w	800be90 <__ieee754_rem_pio2+0x190>
 800bfa2:	f107 4700 	add.w	r7, r7, #2147483648	; 0x80000000
 800bfa6:	f101 4300 	add.w	r3, r1, #2147483648	; 0x80000000
 800bfaa:	f8c8 b000 	str.w	fp, [r8]
 800bfae:	f8c8 7004 	str.w	r7, [r8, #4]
 800bfb2:	f8c8 0008 	str.w	r0, [r8, #8]
 800bfb6:	f8c8 300c 	str.w	r3, [r8, #12]
 800bfba:	f1ca 0a00 	rsb	sl, sl, #0
 800bfbe:	e767      	b.n	800be90 <__ieee754_rem_pio2+0x190>
 800bfc0:	1a600000 	.word	0x1a600000
 800bfc4:	3dd0b461 	.word	0x3dd0b461
 800bfc8:	2e037073 	.word	0x2e037073
 800bfcc:	3ba3198a 	.word	0x3ba3198a
 800bfd0:	6dc9c883 	.word	0x6dc9c883
 800bfd4:	3fe45f30 	.word	0x3fe45f30
 800bfd8:	54400000 	.word	0x54400000
 800bfdc:	3ff921fb 	.word	0x3ff921fb
 800bfe0:	1a626331 	.word	0x1a626331
 800bfe4:	3dd0b461 	.word	0x3dd0b461
 800bfe8:	0800e3f0 	.word	0x0800e3f0
 800bfec:	0800e370 	.word	0x0800e370
 800bff0:	e9dd 2302 	ldrd	r2, r3, [sp, #8]
 800bff4:	f7f5 ff14 	bl	8001e20 <__aeabi_dsub>
 800bff8:	1536      	asrs	r6, r6, #20
 800bffa:	460b      	mov	r3, r1
 800bffc:	460f      	mov	r7, r1
 800bffe:	f3c1 510a 	ubfx	r1, r1, #20, #11
 800c002:	4602      	mov	r2, r0
 800c004:	4683      	mov	fp, r0
 800c006:	1a70      	subs	r0, r6, r1
 800c008:	2810      	cmp	r0, #16
 800c00a:	e9c8 2300 	strd	r2, r3, [r8]
 800c00e:	ddb6      	ble.n	800bf7e <__ieee754_rem_pio2+0x27e>
 800c010:	a357      	add	r3, pc, #348	; (adr r3, 800c170 <__ieee754_rem_pio2+0x470>)
 800c012:	e9d3 2300 	ldrd	r2, r3, [r3]
 800c016:	e9dd 0104 	ldrd	r0, r1, [sp, #16]
 800c01a:	f7f6 f8b5 	bl	8002188 <__aeabi_dmul>
 800c01e:	e9cd 0102 	strd	r0, r1, [sp, #8]
 800c022:	e9dd 2302 	ldrd	r2, r3, [sp, #8]
 800c026:	4620      	mov	r0, r4
 800c028:	4629      	mov	r1, r5
 800c02a:	f7f5 fef9 	bl	8001e20 <__aeabi_dsub>
 800c02e:	e9cd 0106 	strd	r0, r1, [sp, #24]
 800c032:	e9dd 2306 	ldrd	r2, r3, [sp, #24]
 800c036:	4620      	mov	r0, r4
 800c038:	4629      	mov	r1, r5
 800c03a:	f7f5 fef1 	bl	8001e20 <__aeabi_dsub>
 800c03e:	e9dd 2302 	ldrd	r2, r3, [sp, #8]
 800c042:	f7f5 feed 	bl	8001e20 <__aeabi_dsub>
 800c046:	a34c      	add	r3, pc, #304	; (adr r3, 800c178 <__ieee754_rem_pio2+0x478>)
 800c048:	e9d3 2300 	ldrd	r2, r3, [r3]
 800c04c:	4604      	mov	r4, r0
 800c04e:	460d      	mov	r5, r1
 800c050:	e9dd 0104 	ldrd	r0, r1, [sp, #16]
 800c054:	f7f6 f898 	bl	8002188 <__aeabi_dmul>
 800c058:	4622      	mov	r2, r4
 800c05a:	462b      	mov	r3, r5
 800c05c:	f7f5 fee0 	bl	8001e20 <__aeabi_dsub>
 800c060:	e9cd 0102 	strd	r0, r1, [sp, #8]
 800c064:	e9dd 2302 	ldrd	r2, r3, [sp, #8]
 800c068:	e9dd 0106 	ldrd	r0, r1, [sp, #24]
 800c06c:	f7f5 fed8 	bl	8001e20 <__aeabi_dsub>
 800c070:	4602      	mov	r2, r0
 800c072:	4683      	mov	fp, r0
 800c074:	f3c1 500a 	ubfx	r0, r1, #20, #11
 800c078:	1a36      	subs	r6, r6, r0
 800c07a:	460b      	mov	r3, r1
 800c07c:	2e31      	cmp	r6, #49	; 0x31
 800c07e:	460f      	mov	r7, r1
 800c080:	e9c8 2300 	strd	r2, r3, [r8]
 800c084:	dd71      	ble.n	800c16a <__ieee754_rem_pio2+0x46a>
 800c086:	a33e      	add	r3, pc, #248	; (adr r3, 800c180 <__ieee754_rem_pio2+0x480>)
 800c088:	e9d3 2300 	ldrd	r2, r3, [r3]
 800c08c:	e9dd 0104 	ldrd	r0, r1, [sp, #16]
 800c090:	f7f6 f87a 	bl	8002188 <__aeabi_dmul>
 800c094:	4606      	mov	r6, r0
 800c096:	460f      	mov	r7, r1
 800c098:	4632      	mov	r2, r6
 800c09a:	463b      	mov	r3, r7
 800c09c:	e9dd 0106 	ldrd	r0, r1, [sp, #24]
 800c0a0:	f7f5 febe 	bl	8001e20 <__aeabi_dsub>
 800c0a4:	4604      	mov	r4, r0
 800c0a6:	460d      	mov	r5, r1
 800c0a8:	4622      	mov	r2, r4
 800c0aa:	462b      	mov	r3, r5
 800c0ac:	e9dd 0106 	ldrd	r0, r1, [sp, #24]
 800c0b0:	f7f5 feb6 	bl	8001e20 <__aeabi_dsub>
 800c0b4:	4632      	mov	r2, r6
 800c0b6:	463b      	mov	r3, r7
 800c0b8:	f7f5 feb2 	bl	8001e20 <__aeabi_dsub>
 800c0bc:	a332      	add	r3, pc, #200	; (adr r3, 800c188 <__ieee754_rem_pio2+0x488>)
 800c0be:	e9d3 2300 	ldrd	r2, r3, [r3]
 800c0c2:	4606      	mov	r6, r0
 800c0c4:	460f      	mov	r7, r1
 800c0c6:	e9dd 0104 	ldrd	r0, r1, [sp, #16]
 800c0ca:	f7f6 f85d 	bl	8002188 <__aeabi_dmul>
 800c0ce:	4632      	mov	r2, r6
 800c0d0:	463b      	mov	r3, r7
 800c0d2:	f7f5 fea5 	bl	8001e20 <__aeabi_dsub>
 800c0d6:	e9cd 0102 	strd	r0, r1, [sp, #8]
 800c0da:	4620      	mov	r0, r4
 800c0dc:	4629      	mov	r1, r5
 800c0de:	e744      	b.n	800bf6a <__ieee754_rem_pio2+0x26a>
 800c0e0:	f7f5 fea0 	bl	8001e24 <__adddf3>
 800c0e4:	f242 12fb 	movw	r2, #8699	; 0x21fb
 800c0e8:	f6c3 72f9 	movt	r2, #16377	; 0x3ff9
 800c0ec:	4296      	cmp	r6, r2
 800c0ee:	4682      	mov	sl, r0
 800c0f0:	468b      	mov	fp, r1
 800c0f2:	d01a      	beq.n	800c12a <__ieee754_rem_pio2+0x42a>
 800c0f4:	a326      	add	r3, pc, #152	; (adr r3, 800c190 <__ieee754_rem_pio2+0x490>)
 800c0f6:	e9d3 2300 	ldrd	r2, r3, [r3]
 800c0fa:	f7f5 fe93 	bl	8001e24 <__adddf3>
 800c0fe:	4604      	mov	r4, r0
 800c100:	460d      	mov	r5, r1
 800c102:	4650      	mov	r0, sl
 800c104:	4622      	mov	r2, r4
 800c106:	462b      	mov	r3, r5
 800c108:	4659      	mov	r1, fp
 800c10a:	e9c8 4500 	strd	r4, r5, [r8]
 800c10e:	f7f5 fe87 	bl	8001e20 <__aeabi_dsub>
 800c112:	a31f      	add	r3, pc, #124	; (adr r3, 800c190 <__ieee754_rem_pio2+0x490>)
 800c114:	e9d3 2300 	ldrd	r2, r3, [r3]
 800c118:	f7f5 fe84 	bl	8001e24 <__adddf3>
 800c11c:	f04f 3aff 	mov.w	sl, #4294967295
 800c120:	e9c8 0102 	strd	r0, r1, [r8, #8]
 800c124:	e6b4      	b.n	800be90 <__ieee754_rem_pio2+0x190>
 800c126:	2603      	movs	r6, #3
 800c128:	e68b      	b.n	800be42 <__ieee754_rem_pio2+0x142>
 800c12a:	a311      	add	r3, pc, #68	; (adr r3, 800c170 <__ieee754_rem_pio2+0x470>)
 800c12c:	e9d3 2300 	ldrd	r2, r3, [r3]
 800c130:	f7f5 fe78 	bl	8001e24 <__adddf3>
 800c134:	a310      	add	r3, pc, #64	; (adr r3, 800c178 <__ieee754_rem_pio2+0x478>)
 800c136:	e9d3 2300 	ldrd	r2, r3, [r3]
 800c13a:	4606      	mov	r6, r0
 800c13c:	460f      	mov	r7, r1
 800c13e:	f7f5 fe71 	bl	8001e24 <__adddf3>
 800c142:	4604      	mov	r4, r0
 800c144:	460d      	mov	r5, r1
 800c146:	4622      	mov	r2, r4
 800c148:	462b      	mov	r3, r5
 800c14a:	4630      	mov	r0, r6
 800c14c:	4639      	mov	r1, r7
 800c14e:	e9c8 4500 	strd	r4, r5, [r8]
 800c152:	f7f5 fe65 	bl	8001e20 <__aeabi_dsub>
 800c156:	a308      	add	r3, pc, #32	; (adr r3, 800c178 <__ieee754_rem_pio2+0x478>)
 800c158:	e9d3 2300 	ldrd	r2, r3, [r3]
 800c15c:	f7f5 fe62 	bl	8001e24 <__adddf3>
 800c160:	f04f 3aff 	mov.w	sl, #4294967295
 800c164:	e9c8 0102 	strd	r0, r1, [r8, #8]
 800c168:	e692      	b.n	800be90 <__ieee754_rem_pio2+0x190>
 800c16a:	e9dd 4506 	ldrd	r4, r5, [sp, #24]
 800c16e:	e706      	b.n	800bf7e <__ieee754_rem_pio2+0x27e>
 800c170:	1a600000 	.word	0x1a600000
 800c174:	3dd0b461 	.word	0x3dd0b461
 800c178:	2e037073 	.word	0x2e037073
 800c17c:	3ba3198a 	.word	0x3ba3198a
 800c180:	2e000000 	.word	0x2e000000
 800c184:	3ba3198a 	.word	0x3ba3198a
 800c188:	252049c1 	.word	0x252049c1
 800c18c:	397b839a 	.word	0x397b839a
 800c190:	1a626331 	.word	0x1a626331
 800c194:	3dd0b461 	.word	0x3dd0b461

0800c198 <__ieee754_sqrt>:
 800c198:	e92d 43f8 	stmdb	sp!, {r3, r4, r5, r6, r7, r8, r9, lr}
 800c19c:	ec53 2b10 	vmov	r2, r3, d0
 800c1a0:	2400      	movs	r4, #0
 800c1a2:	4626      	mov	r6, r4
 800c1a4:	f6c7 74f0 	movt	r4, #32752	; 0x7ff0
 800c1a8:	f6c7 76f0 	movt	r6, #32752	; 0x7ff0
 800c1ac:	401c      	ands	r4, r3
 800c1ae:	42b4      	cmp	r4, r6
 800c1b0:	ed2d 8b02 	vpush	{d8}
 800c1b4:	eeb0 8a40 	vmov.f32	s16, s0
 800c1b8:	eef0 8a60 	vmov.f32	s17, s1
 800c1bc:	461d      	mov	r5, r3
 800c1be:	4618      	mov	r0, r3
 800c1c0:	ee10 1a10 	vmov	r1, s0
 800c1c4:	f000 80d3 	beq.w	800c36e <__ieee754_sqrt+0x1d6>
 800c1c8:	2b00      	cmp	r3, #0
 800c1ca:	f340 80b0 	ble.w	800c32e <__ieee754_sqrt+0x196>
 800c1ce:	151f      	asrs	r7, r3, #20
 800c1d0:	f000 80b8 	beq.w	800c344 <__ieee754_sqrt+0x1ac>
 800c1d4:	f020 467f 	bic.w	r6, r0, #4278190080	; 0xff000000
 800c1d8:	f426 0270 	bic.w	r2, r6, #15728640	; 0xf00000
 800c1dc:	f2a7 34ff 	subw	r4, r7, #1023	; 0x3ff
 800c1e0:	f442 1380 	orr.w	r3, r2, #1048576	; 0x100000
 800c1e4:	07e2      	lsls	r2, r4, #31
 800c1e6:	f100 8097 	bmi.w	800c318 <__ieee754_sqrt+0x180>
 800c1ea:	0fcd      	lsrs	r5, r1, #31
 800c1ec:	f04f 0c00 	mov.w	ip, #0
 800c1f0:	eb05 0343 	add.w	r3, r5, r3, lsl #1
 800c1f4:	1067      	asrs	r7, r4, #1
 800c1f6:	0049      	lsls	r1, r1, #1
 800c1f8:	2516      	movs	r5, #22
 800c1fa:	4662      	mov	r2, ip
 800c1fc:	f44f 1000 	mov.w	r0, #2097152	; 0x200000
 800c200:	1816      	adds	r6, r2, r0
 800c202:	0844      	lsrs	r4, r0, #1
 800c204:	429e      	cmp	r6, r3
 800c206:	ea4f 78d1 	mov.w	r8, r1, lsr #31
 800c20a:	f105 35ff 	add.w	r5, r5, #4294967295
 800c20e:	ea4f 0141 	mov.w	r1, r1, lsl #1
 800c212:	dc02      	bgt.n	800c21a <__ieee754_sqrt+0x82>
 800c214:	1832      	adds	r2, r6, r0
 800c216:	1b9b      	subs	r3, r3, r6
 800c218:	4484      	add	ip, r0
 800c21a:	eb08 0343 	add.w	r3, r8, r3, lsl #1
 800c21e:	1910      	adds	r0, r2, r4
 800c220:	4298      	cmp	r0, r3
 800c222:	dc02      	bgt.n	800c22a <__ieee754_sqrt+0x92>
 800c224:	1a1b      	subs	r3, r3, r0
 800c226:	1902      	adds	r2, r0, r4
 800c228:	44a4      	add	ip, r4
 800c22a:	0fce      	lsrs	r6, r1, #31
 800c22c:	0860      	lsrs	r0, r4, #1
 800c22e:	0049      	lsls	r1, r1, #1
 800c230:	3d01      	subs	r5, #1
 800c232:	eb06 0343 	add.w	r3, r6, r3, lsl #1
 800c236:	d1e3      	bne.n	800c200 <__ieee754_sqrt+0x68>
 800c238:	f04f 0820 	mov.w	r8, #32
 800c23c:	462c      	mov	r4, r5
 800c23e:	f04f 4000 	mov.w	r0, #2147483648	; 0x80000000
 800c242:	e015      	b.n	800c270 <__ieee754_sqrt+0xd8>
 800c244:	f000 808f 	beq.w	800c366 <__ieee754_sqrt+0x1ce>
 800c248:	0fce      	lsrs	r6, r1, #31
 800c24a:	eb06 0343 	add.w	r3, r6, r3, lsl #1
 800c24e:	0840      	lsrs	r0, r0, #1
 800c250:	0049      	lsls	r1, r1, #1
 800c252:	4293      	cmp	r3, r2
 800c254:	f108 38ff 	add.w	r8, r8, #4294967295
 800c258:	eb04 0600 	add.w	r6, r4, r0
 800c25c:	dc1e      	bgt.n	800c29c <__ieee754_sqrt+0x104>
 800c25e:	d01b      	beq.n	800c298 <__ieee754_sqrt+0x100>
 800c260:	0fce      	lsrs	r6, r1, #31
 800c262:	0840      	lsrs	r0, r0, #1
 800c264:	0049      	lsls	r1, r1, #1
 800c266:	f1b8 0801 	subs.w	r8, r8, #1
 800c26a:	eb06 0343 	add.w	r3, r6, r3, lsl #1
 800c26e:	d02d      	beq.n	800c2cc <__ieee754_sqrt+0x134>
 800c270:	4293      	cmp	r3, r2
 800c272:	eb04 0600 	add.w	r6, r4, r0
 800c276:	dde5      	ble.n	800c244 <__ieee754_sqrt+0xac>
 800c278:	f006 4900 	and.w	r9, r6, #2147483648	; 0x80000000
 800c27c:	f1b9 4f00 	cmp.w	r9, #2147483648	; 0x80000000
 800c280:	eb06 0400 	add.w	r4, r6, r0
 800c284:	d043      	beq.n	800c30e <__ieee754_sqrt+0x176>
 800c286:	4691      	mov	r9, r2
 800c288:	1a9b      	subs	r3, r3, r2
 800c28a:	428e      	cmp	r6, r1
 800c28c:	bf88      	it	hi
 800c28e:	3b01      	subhi	r3, #1
 800c290:	1b89      	subs	r1, r1, r6
 800c292:	182d      	adds	r5, r5, r0
 800c294:	464a      	mov	r2, r9
 800c296:	e7d7      	b.n	800c248 <__ieee754_sqrt+0xb0>
 800c298:	428e      	cmp	r6, r1
 800c29a:	d8e1      	bhi.n	800c260 <__ieee754_sqrt+0xc8>
 800c29c:	f006 4900 	and.w	r9, r6, #2147483648	; 0x80000000
 800c2a0:	f1b9 4f00 	cmp.w	r9, #2147483648	; 0x80000000
 800c2a4:	eb06 0400 	add.w	r4, r6, r0
 800c2a8:	d02c      	beq.n	800c304 <__ieee754_sqrt+0x16c>
 800c2aa:	4691      	mov	r9, r2
 800c2ac:	428e      	cmp	r6, r1
 800c2ae:	ebc2 0303 	rsb	r3, r2, r3
 800c2b2:	d900      	bls.n	800c2b6 <__ieee754_sqrt+0x11e>
 800c2b4:	3b01      	subs	r3, #1
 800c2b6:	1b89      	subs	r1, r1, r6
 800c2b8:	0fce      	lsrs	r6, r1, #31
 800c2ba:	182d      	adds	r5, r5, r0
 800c2bc:	0049      	lsls	r1, r1, #1
 800c2be:	0840      	lsrs	r0, r0, #1
 800c2c0:	f1b8 0801 	subs.w	r8, r8, #1
 800c2c4:	464a      	mov	r2, r9
 800c2c6:	eb06 0343 	add.w	r3, r6, r3, lsl #1
 800c2ca:	d1d1      	bne.n	800c270 <__ieee754_sqrt+0xd8>
 800c2cc:	4319      	orrs	r1, r3
 800c2ce:	d128      	bne.n	800c322 <__ieee754_sqrt+0x18a>
 800c2d0:	ea4f 0855 	mov.w	r8, r5, lsr #1
 800c2d4:	ea4f 036c 	mov.w	r3, ip, asr #1
 800c2d8:	f103 517f 	add.w	r1, r3, #1069547520	; 0x3fc00000
 800c2dc:	f01c 0f01 	tst.w	ip, #1
 800c2e0:	f501 1000 	add.w	r0, r1, #2097152	; 0x200000
 800c2e4:	bf18      	it	ne
 800c2e6:	f048 4800 	orrne.w	r8, r8, #2147483648	; 0x80000000
 800c2ea:	eb00 5307 	add.w	r3, r0, r7, lsl #20
 800c2ee:	4642      	mov	r2, r8
 800c2f0:	ec43 2b18 	vmov	d8, r2, r3
 800c2f4:	eeb0 0a48 	vmov.f32	s0, s16
 800c2f8:	eef0 0a68 	vmov.f32	s1, s17
 800c2fc:	ecbd 8b02 	vpop	{d8}
 800c300:	e8bd 83f8 	ldmia.w	sp!, {r3, r4, r5, r6, r7, r8, r9, pc}
 800c304:	2c00      	cmp	r4, #0
 800c306:	dbd0      	blt.n	800c2aa <__ieee754_sqrt+0x112>
 800c308:	f102 0901 	add.w	r9, r2, #1
 800c30c:	e7ce      	b.n	800c2ac <__ieee754_sqrt+0x114>
 800c30e:	2c00      	cmp	r4, #0
 800c310:	dbb9      	blt.n	800c286 <__ieee754_sqrt+0xee>
 800c312:	f102 0901 	add.w	r9, r2, #1
 800c316:	e7b7      	b.n	800c288 <__ieee754_sqrt+0xf0>
 800c318:	0fc8      	lsrs	r0, r1, #31
 800c31a:	eb00 0343 	add.w	r3, r0, r3, lsl #1
 800c31e:	0049      	lsls	r1, r1, #1
 800c320:	e763      	b.n	800c1ea <__ieee754_sqrt+0x52>
 800c322:	1c6b      	adds	r3, r5, #1
 800c324:	d030      	beq.n	800c388 <__ieee754_sqrt+0x1f0>
 800c326:	f005 0201 	and.w	r2, r5, #1
 800c32a:	1955      	adds	r5, r2, r5
 800c32c:	e7d0      	b.n	800c2d0 <__ieee754_sqrt+0x138>
 800c32e:	f023 4000 	bic.w	r0, r3, #2147483648	; 0x80000000
 800c332:	4310      	orrs	r0, r2
 800c334:	d0de      	beq.n	800c2f4 <__ieee754_sqrt+0x15c>
 800c336:	bb73      	cbnz	r3, 800c396 <__ieee754_sqrt+0x1fe>
 800c338:	461f      	mov	r7, r3
 800c33a:	0ac8      	lsrs	r0, r1, #11
 800c33c:	3f15      	subs	r7, #21
 800c33e:	0549      	lsls	r1, r1, #21
 800c340:	2800      	cmp	r0, #0
 800c342:	d0fa      	beq.n	800c33a <__ieee754_sqrt+0x1a2>
 800c344:	f410 1380 	ands.w	r3, r0, #1048576	; 0x100000
 800c348:	d121      	bne.n	800c38e <__ieee754_sqrt+0x1f6>
 800c34a:	0040      	lsls	r0, r0, #1
 800c34c:	3301      	adds	r3, #1
 800c34e:	02c4      	lsls	r4, r0, #11
 800c350:	d5fb      	bpl.n	800c34a <__ieee754_sqrt+0x1b2>
 800c352:	f1c3 0401 	rsb	r4, r3, #1
 800c356:	f1c3 0220 	rsb	r2, r3, #32
 800c35a:	fa21 f502 	lsr.w	r5, r1, r2
 800c35e:	193f      	adds	r7, r7, r4
 800c360:	4328      	orrs	r0, r5
 800c362:	4099      	lsls	r1, r3
 800c364:	e736      	b.n	800c1d4 <__ieee754_sqrt+0x3c>
 800c366:	428e      	cmp	r6, r1
 800c368:	d986      	bls.n	800c278 <__ieee754_sqrt+0xe0>
 800c36a:	461a      	mov	r2, r3
 800c36c:	e76c      	b.n	800c248 <__ieee754_sqrt+0xb0>
 800c36e:	ec51 0b10 	vmov	r0, r1, d0
 800c372:	f7f5 ff09 	bl	8002188 <__aeabi_dmul>
 800c376:	4602      	mov	r2, r0
 800c378:	460b      	mov	r3, r1
 800c37a:	ec51 0b18 	vmov	r0, r1, d8
 800c37e:	f7f5 fd51 	bl	8001e24 <__adddf3>
 800c382:	ec41 0b18 	vmov	d8, r0, r1
 800c386:	e7b5      	b.n	800c2f4 <__ieee754_sqrt+0x15c>
 800c388:	f10c 0c01 	add.w	ip, ip, #1
 800c38c:	e7a2      	b.n	800c2d4 <__ieee754_sqrt+0x13c>
 800c38e:	2220      	movs	r2, #32
 800c390:	2401      	movs	r4, #1
 800c392:	2300      	movs	r3, #0
 800c394:	e7e1      	b.n	800c35a <__ieee754_sqrt+0x1c2>
 800c396:	ec51 0b10 	vmov	r0, r1, d0
 800c39a:	460b      	mov	r3, r1
 800c39c:	f7f5 fd40 	bl	8001e20 <__aeabi_dsub>
 800c3a0:	4602      	mov	r2, r0
 800c3a2:	460b      	mov	r3, r1
 800c3a4:	f7f6 f81a 	bl	80023dc <__aeabi_ddiv>
 800c3a8:	ec41 0b18 	vmov	d8, r0, r1
 800c3ac:	e7a2      	b.n	800c2f4 <__ieee754_sqrt+0x15c>
 800c3ae:	bf00      	nop

0800c3b0 <__kernel_cos>:
 800c3b0:	e92d 4ff0 	stmdb	sp!, {r4, r5, r6, r7, r8, r9, sl, fp, lr}
 800c3b4:	ec57 6b10 	vmov	r6, r7, d0
 800c3b8:	ed2d 8b02 	vpush	{d8}
 800c3bc:	eeb0 8a41 	vmov.f32	s16, s2
 800c3c0:	eef0 8a61 	vmov.f32	s17, s3
 800c3c4:	f027 4800 	bic.w	r8, r7, #2147483648	; 0x80000000
 800c3c8:	f1b8 5f79 	cmp.w	r8, #1044381696	; 0x3e400000
 800c3cc:	b083      	sub	sp, #12
 800c3ce:	da72      	bge.n	800c4b6 <__kernel_cos+0x106>
 800c3d0:	ee10 0a10 	vmov	r0, s0
 800c3d4:	4639      	mov	r1, r7
 800c3d6:	f7f6 f971 	bl	80026bc <__aeabi_d2iz>
 800c3da:	2800      	cmp	r0, #0
 800c3dc:	f000 8101 	beq.w	800c5e2 <__kernel_cos+0x232>
 800c3e0:	4632      	mov	r2, r6
 800c3e2:	463b      	mov	r3, r7
 800c3e4:	4630      	mov	r0, r6
 800c3e6:	4639      	mov	r1, r7
 800c3e8:	f7f5 fece 	bl	8002188 <__aeabi_dmul>
 800c3ec:	a382      	add	r3, pc, #520	; (adr r3, 800c5f8 <__kernel_cos+0x248>)
 800c3ee:	e9d3 2300 	ldrd	r2, r3, [r3]
 800c3f2:	4604      	mov	r4, r0
 800c3f4:	460d      	mov	r5, r1
 800c3f6:	f7f5 fec7 	bl	8002188 <__aeabi_dmul>
 800c3fa:	a381      	add	r3, pc, #516	; (adr r3, 800c600 <__kernel_cos+0x250>)
 800c3fc:	e9d3 2300 	ldrd	r2, r3, [r3]
 800c400:	f7f5 fd10 	bl	8001e24 <__adddf3>
 800c404:	4622      	mov	r2, r4
 800c406:	462b      	mov	r3, r5
 800c408:	f7f5 febe 	bl	8002188 <__aeabi_dmul>
 800c40c:	a37e      	add	r3, pc, #504	; (adr r3, 800c608 <__kernel_cos+0x258>)
 800c40e:	e9d3 2300 	ldrd	r2, r3, [r3]
 800c412:	f7f5 fd05 	bl	8001e20 <__aeabi_dsub>
 800c416:	4622      	mov	r2, r4
 800c418:	462b      	mov	r3, r5
 800c41a:	f7f5 feb5 	bl	8002188 <__aeabi_dmul>
 800c41e:	a37c      	add	r3, pc, #496	; (adr r3, 800c610 <__kernel_cos+0x260>)
 800c420:	e9d3 2300 	ldrd	r2, r3, [r3]
 800c424:	f7f5 fcfe 	bl	8001e24 <__adddf3>
 800c428:	4622      	mov	r2, r4
 800c42a:	462b      	mov	r3, r5
 800c42c:	f7f5 feac 	bl	8002188 <__aeabi_dmul>
 800c430:	a379      	add	r3, pc, #484	; (adr r3, 800c618 <__kernel_cos+0x268>)
 800c432:	e9d3 2300 	ldrd	r2, r3, [r3]
 800c436:	f7f5 fcf3 	bl	8001e20 <__aeabi_dsub>
 800c43a:	4622      	mov	r2, r4
 800c43c:	462b      	mov	r3, r5
 800c43e:	f7f5 fea3 	bl	8002188 <__aeabi_dmul>
 800c442:	a377      	add	r3, pc, #476	; (adr r3, 800c620 <__kernel_cos+0x270>)
 800c444:	e9d3 2300 	ldrd	r2, r3, [r3]
 800c448:	f7f5 fcec 	bl	8001e24 <__adddf3>
 800c44c:	4622      	mov	r2, r4
 800c44e:	462b      	mov	r3, r5
 800c450:	f7f5 fe9a 	bl	8002188 <__aeabi_dmul>
 800c454:	4682      	mov	sl, r0
 800c456:	468b      	mov	fp, r1
 800c458:	2300      	movs	r3, #0
 800c45a:	4620      	mov	r0, r4
 800c45c:	4629      	mov	r1, r5
 800c45e:	2200      	movs	r2, #0
 800c460:	f6c3 73e0 	movt	r3, #16352	; 0x3fe0
 800c464:	f7f5 fe90 	bl	8002188 <__aeabi_dmul>
 800c468:	4652      	mov	r2, sl
 800c46a:	4680      	mov	r8, r0
 800c46c:	4689      	mov	r9, r1
 800c46e:	4620      	mov	r0, r4
 800c470:	4629      	mov	r1, r5
 800c472:	465b      	mov	r3, fp
 800c474:	f7f5 fe88 	bl	8002188 <__aeabi_dmul>
 800c478:	ec53 2b18 	vmov	r2, r3, d8
 800c47c:	4604      	mov	r4, r0
 800c47e:	460d      	mov	r5, r1
 800c480:	4630      	mov	r0, r6
 800c482:	4639      	mov	r1, r7
 800c484:	f7f5 fe80 	bl	8002188 <__aeabi_dmul>
 800c488:	4602      	mov	r2, r0
 800c48a:	460b      	mov	r3, r1
 800c48c:	4620      	mov	r0, r4
 800c48e:	4629      	mov	r1, r5
 800c490:	f7f5 fcc6 	bl	8001e20 <__aeabi_dsub>
 800c494:	4602      	mov	r2, r0
 800c496:	460b      	mov	r3, r1
 800c498:	4640      	mov	r0, r8
 800c49a:	4649      	mov	r1, r9
 800c49c:	f7f5 fcc0 	bl	8001e20 <__aeabi_dsub>
 800c4a0:	460b      	mov	r3, r1
 800c4a2:	2100      	movs	r1, #0
 800c4a4:	4602      	mov	r2, r0
 800c4a6:	f6c3 71f0 	movt	r1, #16368	; 0x3ff0
 800c4aa:	2000      	movs	r0, #0
 800c4ac:	f7f5 fcb8 	bl	8001e20 <__aeabi_dsub>
 800c4b0:	ec41 0b10 	vmov	d0, r0, r1
 800c4b4:	e085      	b.n	800c5c2 <__kernel_cos+0x212>
 800c4b6:	ee10 2a10 	vmov	r2, s0
 800c4ba:	ee10 0a10 	vmov	r0, s0
 800c4be:	463b      	mov	r3, r7
 800c4c0:	4639      	mov	r1, r7
 800c4c2:	f7f5 fe61 	bl	8002188 <__aeabi_dmul>
 800c4c6:	a34c      	add	r3, pc, #304	; (adr r3, 800c5f8 <__kernel_cos+0x248>)
 800c4c8:	e9d3 2300 	ldrd	r2, r3, [r3]
 800c4cc:	4604      	mov	r4, r0
 800c4ce:	460d      	mov	r5, r1
 800c4d0:	f7f5 fe5a 	bl	8002188 <__aeabi_dmul>
 800c4d4:	a34a      	add	r3, pc, #296	; (adr r3, 800c600 <__kernel_cos+0x250>)
 800c4d6:	e9d3 2300 	ldrd	r2, r3, [r3]
 800c4da:	f7f5 fca3 	bl	8001e24 <__adddf3>
 800c4de:	4622      	mov	r2, r4
 800c4e0:	462b      	mov	r3, r5
 800c4e2:	f7f5 fe51 	bl	8002188 <__aeabi_dmul>
 800c4e6:	a348      	add	r3, pc, #288	; (adr r3, 800c608 <__kernel_cos+0x258>)
 800c4e8:	e9d3 2300 	ldrd	r2, r3, [r3]
 800c4ec:	f7f5 fc98 	bl	8001e20 <__aeabi_dsub>
 800c4f0:	4622      	mov	r2, r4
 800c4f2:	462b      	mov	r3, r5
 800c4f4:	f7f5 fe48 	bl	8002188 <__aeabi_dmul>
 800c4f8:	a345      	add	r3, pc, #276	; (adr r3, 800c610 <__kernel_cos+0x260>)
 800c4fa:	e9d3 2300 	ldrd	r2, r3, [r3]
 800c4fe:	f7f5 fc91 	bl	8001e24 <__adddf3>
 800c502:	4622      	mov	r2, r4
 800c504:	462b      	mov	r3, r5
 800c506:	f7f5 fe3f 	bl	8002188 <__aeabi_dmul>
 800c50a:	a343      	add	r3, pc, #268	; (adr r3, 800c618 <__kernel_cos+0x268>)
 800c50c:	e9d3 2300 	ldrd	r2, r3, [r3]
 800c510:	f7f5 fc86 	bl	8001e20 <__aeabi_dsub>
 800c514:	4622      	mov	r2, r4
 800c516:	462b      	mov	r3, r5
 800c518:	f7f5 fe36 	bl	8002188 <__aeabi_dmul>
 800c51c:	a340      	add	r3, pc, #256	; (adr r3, 800c620 <__kernel_cos+0x270>)
 800c51e:	e9d3 2300 	ldrd	r2, r3, [r3]
 800c522:	f7f5 fc7f 	bl	8001e24 <__adddf3>
 800c526:	4622      	mov	r2, r4
 800c528:	462b      	mov	r3, r5
 800c52a:	f7f5 fe2d 	bl	8002188 <__aeabi_dmul>
 800c52e:	4682      	mov	sl, r0
 800c530:	f243 3032 	movw	r0, #13106	; 0x3332
 800c534:	f6c3 70d3 	movt	r0, #16339	; 0x3fd3
 800c538:	4580      	cmp	r8, r0
 800c53a:	468b      	mov	fp, r1
 800c53c:	dd8c      	ble.n	800c458 <__kernel_cos+0xa8>
 800c53e:	2100      	movs	r1, #0
 800c540:	f6c3 71e9 	movt	r1, #16361	; 0x3fe9
 800c544:	4588      	cmp	r8, r1
 800c546:	dc41      	bgt.n	800c5cc <__kernel_cos+0x21c>
 800c548:	2100      	movs	r1, #0
 800c54a:	f5a8 1300 	sub.w	r3, r8, #2097152	; 0x200000
 800c54e:	2200      	movs	r2, #0
 800c550:	2000      	movs	r0, #0
 800c552:	f6c3 71f0 	movt	r1, #16368	; 0x3ff0
 800c556:	4690      	mov	r8, r2
 800c558:	4699      	mov	r9, r3
 800c55a:	f7f5 fc61 	bl	8001e20 <__aeabi_dsub>
 800c55e:	e9cd 0100 	strd	r0, r1, [sp]
 800c562:	2300      	movs	r3, #0
 800c564:	4620      	mov	r0, r4
 800c566:	4629      	mov	r1, r5
 800c568:	2200      	movs	r2, #0
 800c56a:	f6c3 73e0 	movt	r3, #16352	; 0x3fe0
 800c56e:	f7f5 fe0b 	bl	8002188 <__aeabi_dmul>
 800c572:	4642      	mov	r2, r8
 800c574:	464b      	mov	r3, r9
 800c576:	f7f5 fc53 	bl	8001e20 <__aeabi_dsub>
 800c57a:	4652      	mov	r2, sl
 800c57c:	4680      	mov	r8, r0
 800c57e:	4689      	mov	r9, r1
 800c580:	4620      	mov	r0, r4
 800c582:	4629      	mov	r1, r5
 800c584:	465b      	mov	r3, fp
 800c586:	f7f5 fdff 	bl	8002188 <__aeabi_dmul>
 800c58a:	ec53 2b18 	vmov	r2, r3, d8
 800c58e:	4604      	mov	r4, r0
 800c590:	460d      	mov	r5, r1
 800c592:	4630      	mov	r0, r6
 800c594:	4639      	mov	r1, r7
 800c596:	f7f5 fdf7 	bl	8002188 <__aeabi_dmul>
 800c59a:	4602      	mov	r2, r0
 800c59c:	460b      	mov	r3, r1
 800c59e:	4620      	mov	r0, r4
 800c5a0:	4629      	mov	r1, r5
 800c5a2:	f7f5 fc3d 	bl	8001e20 <__aeabi_dsub>
 800c5a6:	4602      	mov	r2, r0
 800c5a8:	460b      	mov	r3, r1
 800c5aa:	4640      	mov	r0, r8
 800c5ac:	4649      	mov	r1, r9
 800c5ae:	f7f5 fc37 	bl	8001e20 <__aeabi_dsub>
 800c5b2:	4602      	mov	r2, r0
 800c5b4:	460b      	mov	r3, r1
 800c5b6:	e9dd 0100 	ldrd	r0, r1, [sp]
 800c5ba:	f7f5 fc31 	bl	8001e20 <__aeabi_dsub>
 800c5be:	ec41 0b10 	vmov	d0, r0, r1
 800c5c2:	b003      	add	sp, #12
 800c5c4:	ecbd 8b02 	vpop	{d8}
 800c5c8:	e8bd 8ff0 	ldmia.w	sp!, {r4, r5, r6, r7, r8, r9, sl, fp, pc}
 800c5cc:	ed9f 7b06 	vldr	d7, [pc, #24]	; 800c5e8 <__kernel_cos+0x238>
 800c5d0:	f04f 0900 	mov.w	r9, #0
 800c5d4:	ed8d 7b00 	vstr	d7, [sp]
 800c5d8:	f04f 0800 	mov.w	r8, #0
 800c5dc:	f6c3 79d2 	movt	r9, #16338	; 0x3fd2
 800c5e0:	e7bf      	b.n	800c562 <__kernel_cos+0x1b2>
 800c5e2:	ed9f 0b03 	vldr	d0, [pc, #12]	; 800c5f0 <__kernel_cos+0x240>
 800c5e6:	e7ec      	b.n	800c5c2 <__kernel_cos+0x212>
 800c5e8:	00000000 	.word	0x00000000
 800c5ec:	3fe70000 	.word	0x3fe70000
 800c5f0:	00000000 	.word	0x00000000
 800c5f4:	3ff00000 	.word	0x3ff00000
 800c5f8:	be8838d4 	.word	0xbe8838d4
 800c5fc:	bda8fae9 	.word	0xbda8fae9
 800c600:	bdb4b1c4 	.word	0xbdb4b1c4
 800c604:	3e21ee9e 	.word	0x3e21ee9e
 800c608:	809c52ad 	.word	0x809c52ad
 800c60c:	3e927e4f 	.word	0x3e927e4f
 800c610:	19cb1590 	.word	0x19cb1590
 800c614:	3efa01a0 	.word	0x3efa01a0
 800c618:	16c15177 	.word	0x16c15177
 800c61c:	3f56c16c 	.word	0x3f56c16c
 800c620:	5555554c 	.word	0x5555554c
 800c624:	3fa55555 	.word	0x3fa55555

0800c628 <__kernel_rem_pio2>:
 800c628:	e92d 4ff0 	stmdb	sp!, {r4, r5, r6, r7, r8, r9, sl, fp, lr}
 800c62c:	f64a 25ab 	movw	r5, #43691	; 0xaaab
 800c630:	f5ad 7d1b 	sub.w	sp, sp, #620	; 0x26c
 800c634:	1ed4      	subs	r4, r2, #3
 800c636:	f6c2 25aa 	movt	r5, #10922	; 0x2aaa
 800c63a:	fb85 6504 	smull	r6, r5, r5, r4
 800c63e:	17e4      	asrs	r4, r4, #31
 800c640:	9fa4      	ldr	r7, [sp, #656]	; 0x290
 800c642:	4e30      	ldr	r6, [pc, #192]	; (800c704 <__kernel_rem_pio2+0xdc>)
 800c644:	910a      	str	r1, [sp, #40]	; 0x28
 800c646:	ebc4 05a5 	rsb	r5, r4, r5, asr #2
 800c64a:	ea25 74e5 	bic.w	r4, r5, r5, asr #31
 800c64e:	469a      	mov	sl, r3
 800c650:	f856 6027 	ldr.w	r6, [r6, r7, lsl #2]
 800c654:	940d      	str	r4, [sp, #52]	; 0x34
 800c656:	43e3      	mvns	r3, r4
 800c658:	f10a 37ff 	add.w	r7, sl, #4294967295
 800c65c:	9706      	str	r7, [sp, #24]
 800c65e:	eb03 0543 	add.w	r5, r3, r3, lsl #1
 800c662:	4683      	mov	fp, r0
 800c664:	eb02 00c5 	add.w	r0, r2, r5, lsl #3
 800c668:	9a06      	ldr	r2, [sp, #24]
 800c66a:	990d      	ldr	r1, [sp, #52]	; 0x34
 800c66c:	9608      	str	r6, [sp, #32]
 800c66e:	eb12 0906 	adds.w	r9, r2, r6
 800c672:	9009      	str	r0, [sp, #36]	; 0x24
 800c674:	ebc7 0401 	rsb	r4, r7, r1
 800c678:	d446      	bmi.n	800c708 <__kernel_rem_pio2+0xe0>
 800c67a:	44a1      	add	r9, r4
 800c67c:	9ea5      	ldr	r6, [sp, #660]	; 0x294
 800c67e:	ebc4 0809 	rsb	r8, r4, r9
 800c682:	2c00      	cmp	r4, #0
 800c684:	eb06 0584 	add.w	r5, r6, r4, lsl #2
 800c688:	f109 0901 	add.w	r9, r9, #1
 800c68c:	f008 0801 	and.w	r8, r8, #1
 800c690:	f2c0 86aa 	blt.w	800d3e8 <__kernel_rem_pio2+0xdc0>
 800c694:	6828      	ldr	r0, [r5, #0]
 800c696:	f7f5 fd11 	bl	80020bc <__aeabi_i2d>
 800c69a:	3401      	adds	r4, #1
 800c69c:	ae20      	add	r6, sp, #128	; 0x80
 800c69e:	2704      	movs	r7, #4
 800c6a0:	454c      	cmp	r4, r9
 800c6a2:	e9e6 0102 	strd	r0, r1, [r6, #8]!
 800c6a6:	d02f      	beq.n	800c708 <__kernel_rem_pio2+0xe0>
 800c6a8:	f1b8 0f00 	cmp.w	r8, #0
 800c6ac:	d021      	beq.n	800c6f2 <__kernel_rem_pio2+0xca>
 800c6ae:	2c00      	cmp	r4, #0
 800c6b0:	f2c0 869e 	blt.w	800d3f0 <__kernel_rem_pio2+0xdc8>
 800c6b4:	59e8      	ldr	r0, [r5, r7]
 800c6b6:	f7f5 fd01 	bl	80020bc <__aeabi_i2d>
 800c6ba:	3401      	adds	r4, #1
 800c6bc:	3704      	adds	r7, #4
 800c6be:	454c      	cmp	r4, r9
 800c6c0:	e9e6 0102 	strd	r0, r1, [r6, #8]!
 800c6c4:	d115      	bne.n	800c6f2 <__kernel_rem_pio2+0xca>
 800c6c6:	e01f      	b.n	800c708 <__kernel_rem_pio2+0xe0>
 800c6c8:	59e8      	ldr	r0, [r5, r7]
 800c6ca:	f7f5 fcf7 	bl	80020bc <__aeabi_i2d>
 800c6ce:	3704      	adds	r7, #4
 800c6d0:	3401      	adds	r4, #1
 800c6d2:	f106 0808 	add.w	r8, r6, #8
 800c6d6:	e9c6 0102 	strd	r0, r1, [r6, #8]
 800c6da:	d40f      	bmi.n	800c6fc <__kernel_rem_pio2+0xd4>
 800c6dc:	59e8      	ldr	r0, [r5, r7]
 800c6de:	f7f5 fced 	bl	80020bc <__aeabi_i2d>
 800c6e2:	3401      	adds	r4, #1
 800c6e4:	3704      	adds	r7, #4
 800c6e6:	454c      	cmp	r4, r9
 800c6e8:	e9c8 0102 	strd	r0, r1, [r8, #8]
 800c6ec:	f108 0608 	add.w	r6, r8, #8
 800c6f0:	d00a      	beq.n	800c708 <__kernel_rem_pio2+0xe0>
 800c6f2:	2c00      	cmp	r4, #0
 800c6f4:	dae8      	bge.n	800c6c8 <__kernel_rem_pio2+0xa0>
 800c6f6:	2000      	movs	r0, #0
 800c6f8:	2100      	movs	r1, #0
 800c6fa:	e7e8      	b.n	800c6ce <__kernel_rem_pio2+0xa6>
 800c6fc:	2000      	movs	r0, #0
 800c6fe:	2100      	movs	r1, #0
 800c700:	e7ef      	b.n	800c6e2 <__kernel_rem_pio2+0xba>
 800c702:	bf00      	nop
 800c704:	0800e4f8 	.word	0x0800e4f8
 800c708:	9b08      	ldr	r3, [sp, #32]
 800c70a:	2b00      	cmp	r3, #0
 800c70c:	db68      	blt.n	800c7e0 <__kernel_rem_pio2+0x1b8>
 800c70e:	9908      	ldr	r1, [sp, #32]
 800c710:	f8cd a00c 	str.w	sl, [sp, #12]
 800c714:	a872      	add	r0, sp, #456	; 0x1c8
 800c716:	eb00 02c1 	add.w	r2, r0, r1, lsl #3
 800c71a:	f50d 79e0 	add.w	r9, sp, #448	; 0x1c0
 800c71e:	9204      	str	r2, [sp, #16]
 800c720:	9d06      	ldr	r5, [sp, #24]
 800c722:	2d00      	cmp	r5, #0
 800c724:	f2c0 82e2 	blt.w	800ccec <__kernel_rem_pio2+0x6c4>
 800c728:	9c03      	ldr	r4, [sp, #12]
 800c72a:	ae22      	add	r6, sp, #136	; 0x88
 800c72c:	eb06 07c4 	add.w	r7, r6, r4, lsl #3
 800c730:	e957 2302 	ldrd	r2, r3, [r7, #-8]
 800c734:	f10a 3cff 	add.w	ip, sl, #4294967295
 800c738:	e9db 0100 	ldrd	r0, r1, [fp]
 800c73c:	f00c 0801 	and.w	r8, ip, #1
 800c740:	f7f5 fd22 	bl	8002188 <__aeabi_dmul>
 800c744:	4602      	mov	r2, r0
 800c746:	460b      	mov	r3, r1
 800c748:	2000      	movs	r0, #0
 800c74a:	2100      	movs	r1, #0
 800c74c:	f7f5 fb6a 	bl	8001e24 <__adddf3>
 800c750:	2601      	movs	r6, #1
 800c752:	3f08      	subs	r7, #8
 800c754:	4556      	cmp	r6, sl
 800c756:	4604      	mov	r4, r0
 800c758:	460d      	mov	r5, r1
 800c75a:	46de      	mov	lr, fp
 800c75c:	d038      	beq.n	800c7d0 <__kernel_rem_pio2+0x1a8>
 800c75e:	f1b8 0f00 	cmp.w	r8, #0
 800c762:	d012      	beq.n	800c78a <__kernel_rem_pio2+0x162>
 800c764:	e977 2302 	ldrd	r2, r3, [r7, #-8]!
 800c768:	e9db 0102 	ldrd	r0, r1, [fp, #8]
 800c76c:	f7f5 fd0c 	bl	8002188 <__aeabi_dmul>
 800c770:	4602      	mov	r2, r0
 800c772:	460b      	mov	r3, r1
 800c774:	4620      	mov	r0, r4
 800c776:	4629      	mov	r1, r5
 800c778:	f7f5 fb54 	bl	8001e24 <__adddf3>
 800c77c:	2602      	movs	r6, #2
 800c77e:	4556      	cmp	r6, sl
 800c780:	4604      	mov	r4, r0
 800c782:	460d      	mov	r5, r1
 800c784:	f10b 0e08 	add.w	lr, fp, #8
 800c788:	d022      	beq.n	800c7d0 <__kernel_rem_pio2+0x1a8>
 800c78a:	46f0      	mov	r8, lr
 800c78c:	e957 2302 	ldrd	r2, r3, [r7, #-8]
 800c790:	e9d8 0102 	ldrd	r0, r1, [r8, #8]
 800c794:	f7f5 fcf8 	bl	8002188 <__aeabi_dmul>
 800c798:	4602      	mov	r2, r0
 800c79a:	460b      	mov	r3, r1
 800c79c:	4620      	mov	r0, r4
 800c79e:	4629      	mov	r1, r5
 800c7a0:	f7f5 fb40 	bl	8001e24 <__adddf3>
 800c7a4:	e957 2304 	ldrd	r2, r3, [r7, #-16]
 800c7a8:	4604      	mov	r4, r0
 800c7aa:	460d      	mov	r5, r1
 800c7ac:	e9d8 0104 	ldrd	r0, r1, [r8, #16]
 800c7b0:	f7f5 fcea 	bl	8002188 <__aeabi_dmul>
 800c7b4:	4602      	mov	r2, r0
 800c7b6:	460b      	mov	r3, r1
 800c7b8:	4620      	mov	r0, r4
 800c7ba:	4629      	mov	r1, r5
 800c7bc:	f7f5 fb32 	bl	8001e24 <__adddf3>
 800c7c0:	3602      	adds	r6, #2
 800c7c2:	3f10      	subs	r7, #16
 800c7c4:	4556      	cmp	r6, sl
 800c7c6:	4604      	mov	r4, r0
 800c7c8:	460d      	mov	r5, r1
 800c7ca:	f108 0810 	add.w	r8, r8, #16
 800c7ce:	d1dd      	bne.n	800c78c <__kernel_rem_pio2+0x164>
 800c7d0:	e9e9 4502 	strd	r4, r5, [r9, #8]!
 800c7d4:	9b03      	ldr	r3, [sp, #12]
 800c7d6:	9904      	ldr	r1, [sp, #16]
 800c7d8:	1c58      	adds	r0, r3, #1
 800c7da:	4589      	cmp	r9, r1
 800c7dc:	9003      	str	r0, [sp, #12]
 800c7de:	d19f      	bne.n	800c720 <__kernel_rem_pio2+0xf8>
 800c7e0:	9e08      	ldr	r6, [sp, #32]
 800c7e2:	aa0e      	add	r2, sp, #56	; 0x38
 800c7e4:	eb02 0486 	add.w	r4, r2, r6, lsl #2
 800c7e8:	9202      	str	r2, [sp, #8]
 800c7ea:	940b      	str	r4, [sp, #44]	; 0x2c
 800c7ec:	9603      	str	r6, [sp, #12]
 800c7ee:	9d03      	ldr	r5, [sp, #12]
 800c7f0:	9a03      	ldr	r2, [sp, #12]
 800c7f2:	00eb      	lsls	r3, r5, #3
 800c7f4:	a89a      	add	r0, sp, #616	; 0x268
 800c7f6:	18c1      	adds	r1, r0, r3
 800c7f8:	2a00      	cmp	r2, #0
 800c7fa:	9305      	str	r3, [sp, #20]
 800c7fc:	e951 6728 	ldrd	r6, r7, [r1, #-160]	; 0xa0
 800c800:	f340 80bb 	ble.w	800c97a <__kernel_rem_pio2+0x352>
 800c804:	9d05      	ldr	r5, [sp, #20]
 800c806:	f50d 79e4 	add.w	r9, sp, #456	; 0x1c8
 800c80a:	44a9      	add	r9, r5
 800c80c:	9d03      	ldr	r5, [sp, #12]
 800c80e:	2300      	movs	r3, #0
 800c810:	ac0d      	add	r4, sp, #52	; 0x34
 800c812:	eb04 0c85 	add.w	ip, r4, r5, lsl #2
 800c816:	2200      	movs	r2, #0
 800c818:	f6c3 6370 	movt	r3, #15984	; 0x3e70
 800c81c:	4630      	mov	r0, r6
 800c81e:	4639      	mov	r1, r7
 800c820:	f8cd c004 	str.w	ip, [sp, #4]
 800c824:	f7f5 fcb0 	bl	8002188 <__aeabi_dmul>
 800c828:	f7f5 ff48 	bl	80026bc <__aeabi_d2iz>
 800c82c:	f7f5 fc46 	bl	80020bc <__aeabi_i2d>
 800c830:	2300      	movs	r3, #0
 800c832:	2200      	movs	r2, #0
 800c834:	f2c4 1370 	movt	r3, #16752	; 0x4170
 800c838:	4604      	mov	r4, r0
 800c83a:	460d      	mov	r5, r1
 800c83c:	f7f5 fca4 	bl	8002188 <__aeabi_dmul>
 800c840:	4602      	mov	r2, r0
 800c842:	460b      	mov	r3, r1
 800c844:	4630      	mov	r0, r6
 800c846:	4639      	mov	r1, r7
 800c848:	f7f5 faea 	bl	8001e20 <__aeabi_dsub>
 800c84c:	f7f5 ff36 	bl	80026bc <__aeabi_d2iz>
 800c850:	f10d 0838 	add.w	r8, sp, #56	; 0x38
 800c854:	462b      	mov	r3, r5
 800c856:	f8c8 0000 	str.w	r0, [r8]
 800c85a:	4622      	mov	r2, r4
 800c85c:	e979 0102 	ldrd	r0, r1, [r9, #-8]!
 800c860:	f7f5 fae0 	bl	8001e24 <__adddf3>
 800c864:	f8dd c004 	ldr.w	ip, [sp, #4]
 800c868:	45e0      	cmp	r8, ip
 800c86a:	4606      	mov	r6, r0
 800c86c:	460f      	mov	r7, r1
 800c86e:	f3cc 0380 	ubfx	r3, ip, #2, #1
 800c872:	f000 8082 	beq.w	800c97a <__kernel_rem_pio2+0x352>
 800c876:	b35b      	cbz	r3, 800c8d0 <__kernel_rem_pio2+0x2a8>
 800c878:	2300      	movs	r3, #0
 800c87a:	2200      	movs	r2, #0
 800c87c:	f6c3 6370 	movt	r3, #15984	; 0x3e70
 800c880:	f8cd c004 	str.w	ip, [sp, #4]
 800c884:	f7f5 fc80 	bl	8002188 <__aeabi_dmul>
 800c888:	f7f5 ff18 	bl	80026bc <__aeabi_d2iz>
 800c88c:	f7f5 fc16 	bl	80020bc <__aeabi_i2d>
 800c890:	2300      	movs	r3, #0
 800c892:	2200      	movs	r2, #0
 800c894:	f2c4 1370 	movt	r3, #16752	; 0x4170
 800c898:	4604      	mov	r4, r0
 800c89a:	460d      	mov	r5, r1
 800c89c:	f7f5 fc74 	bl	8002188 <__aeabi_dmul>
 800c8a0:	4602      	mov	r2, r0
 800c8a2:	460b      	mov	r3, r1
 800c8a4:	4630      	mov	r0, r6
 800c8a6:	4639      	mov	r1, r7
 800c8a8:	f7f5 faba 	bl	8001e20 <__aeabi_dsub>
 800c8ac:	f7f5 ff06 	bl	80026bc <__aeabi_d2iz>
 800c8b0:	f10d 083c 	add.w	r8, sp, #60	; 0x3c
 800c8b4:	4622      	mov	r2, r4
 800c8b6:	f8c8 0000 	str.w	r0, [r8]
 800c8ba:	462b      	mov	r3, r5
 800c8bc:	e979 0102 	ldrd	r0, r1, [r9, #-8]!
 800c8c0:	f7f5 fab0 	bl	8001e24 <__adddf3>
 800c8c4:	f8dd c004 	ldr.w	ip, [sp, #4]
 800c8c8:	45e0      	cmp	r8, ip
 800c8ca:	4606      	mov	r6, r0
 800c8cc:	460f      	mov	r7, r1
 800c8ce:	d054      	beq.n	800c97a <__kernel_rem_pio2+0x352>
 800c8d0:	f8cd b010 	str.w	fp, [sp, #16]
 800c8d4:	46d3      	mov	fp, sl
 800c8d6:	46e2      	mov	sl, ip
 800c8d8:	2300      	movs	r3, #0
 800c8da:	2200      	movs	r2, #0
 800c8dc:	f6c3 6370 	movt	r3, #15984	; 0x3e70
 800c8e0:	4630      	mov	r0, r6
 800c8e2:	4639      	mov	r1, r7
 800c8e4:	f7f5 fc50 	bl	8002188 <__aeabi_dmul>
 800c8e8:	f7f5 fee8 	bl	80026bc <__aeabi_d2iz>
 800c8ec:	f7f5 fbe6 	bl	80020bc <__aeabi_i2d>
 800c8f0:	2300      	movs	r3, #0
 800c8f2:	2200      	movs	r2, #0
 800c8f4:	f2c4 1370 	movt	r3, #16752	; 0x4170
 800c8f8:	4604      	mov	r4, r0
 800c8fa:	460d      	mov	r5, r1
 800c8fc:	f7f5 fc44 	bl	8002188 <__aeabi_dmul>
 800c900:	4602      	mov	r2, r0
 800c902:	460b      	mov	r3, r1
 800c904:	4630      	mov	r0, r6
 800c906:	4639      	mov	r1, r7
 800c908:	f7f5 fa8a 	bl	8001e20 <__aeabi_dsub>
 800c90c:	f7f5 fed6 	bl	80026bc <__aeabi_d2iz>
 800c910:	4622      	mov	r2, r4
 800c912:	462b      	mov	r3, r5
 800c914:	f8c8 0004 	str.w	r0, [r8, #4]
 800c918:	e979 0102 	ldrd	r0, r1, [r9, #-8]!
 800c91c:	f7f5 fa82 	bl	8001e24 <__adddf3>
 800c920:	2300      	movs	r3, #0
 800c922:	2200      	movs	r2, #0
 800c924:	f6c3 6370 	movt	r3, #15984	; 0x3e70
 800c928:	4606      	mov	r6, r0
 800c92a:	460f      	mov	r7, r1
 800c92c:	f7f5 fc2c 	bl	8002188 <__aeabi_dmul>
 800c930:	f7f5 fec4 	bl	80026bc <__aeabi_d2iz>
 800c934:	f7f5 fbc2 	bl	80020bc <__aeabi_i2d>
 800c938:	2300      	movs	r3, #0
 800c93a:	2200      	movs	r2, #0
 800c93c:	f2c4 1370 	movt	r3, #16752	; 0x4170
 800c940:	4604      	mov	r4, r0
 800c942:	460d      	mov	r5, r1
 800c944:	f7f5 fc20 	bl	8002188 <__aeabi_dmul>
 800c948:	4602      	mov	r2, r0
 800c94a:	460b      	mov	r3, r1
 800c94c:	4630      	mov	r0, r6
 800c94e:	4639      	mov	r1, r7
 800c950:	f7f5 fa66 	bl	8001e20 <__aeabi_dsub>
 800c954:	f7f5 feb2 	bl	80026bc <__aeabi_d2iz>
 800c958:	4622      	mov	r2, r4
 800c95a:	f8c8 0008 	str.w	r0, [r8, #8]
 800c95e:	462b      	mov	r3, r5
 800c960:	e979 0102 	ldrd	r0, r1, [r9, #-8]!
 800c964:	f7f5 fa5e 	bl	8001e24 <__adddf3>
 800c968:	f108 0808 	add.w	r8, r8, #8
 800c96c:	45d0      	cmp	r8, sl
 800c96e:	4606      	mov	r6, r0
 800c970:	460f      	mov	r7, r1
 800c972:	d1b1      	bne.n	800c8d8 <__kernel_rem_pio2+0x2b0>
 800c974:	46da      	mov	sl, fp
 800c976:	f8dd b010 	ldr.w	fp, [sp, #16]
 800c97a:	ec47 6b10 	vmov	d0, r6, r7
 800c97e:	9809      	ldr	r0, [sp, #36]	; 0x24
 800c980:	f001 f926 	bl	800dbd0 <scalbn>
 800c984:	ec55 4b10 	vmov	r4, r5, d0
 800c988:	2200      	movs	r2, #0
 800c98a:	f04f 537f 	mov.w	r3, #1069547520	; 0x3fc00000
 800c98e:	ee10 0a10 	vmov	r0, s0
 800c992:	4629      	mov	r1, r5
 800c994:	f7f5 fbf8 	bl	8002188 <__aeabi_dmul>
 800c998:	ec41 0b10 	vmov	d0, r0, r1
 800c99c:	f000 ffe4 	bl	800d968 <floor>
 800c9a0:	2300      	movs	r3, #0
 800c9a2:	ec51 0b10 	vmov	r0, r1, d0
 800c9a6:	2200      	movs	r2, #0
 800c9a8:	f2c4 0320 	movt	r3, #16416	; 0x4020
 800c9ac:	f7f5 fbec 	bl	8002188 <__aeabi_dmul>
 800c9b0:	4602      	mov	r2, r0
 800c9b2:	460b      	mov	r3, r1
 800c9b4:	4620      	mov	r0, r4
 800c9b6:	4629      	mov	r1, r5
 800c9b8:	f7f5 fa32 	bl	8001e20 <__aeabi_dsub>
 800c9bc:	460f      	mov	r7, r1
 800c9be:	4606      	mov	r6, r0
 800c9c0:	f7f5 fe7c 	bl	80026bc <__aeabi_d2iz>
 800c9c4:	4680      	mov	r8, r0
 800c9c6:	f7f5 fb79 	bl	80020bc <__aeabi_i2d>
 800c9ca:	4602      	mov	r2, r0
 800c9cc:	460b      	mov	r3, r1
 800c9ce:	4630      	mov	r0, r6
 800c9d0:	4639      	mov	r1, r7
 800c9d2:	f7f5 fa25 	bl	8001e20 <__aeabi_dsub>
 800c9d6:	9c09      	ldr	r4, [sp, #36]	; 0x24
 800c9d8:	2c00      	cmp	r4, #0
 800c9da:	4606      	mov	r6, r0
 800c9dc:	460f      	mov	r7, r1
 800c9de:	f340 814b 	ble.w	800cc78 <__kernel_rem_pio2+0x650>
 800c9e2:	9b03      	ldr	r3, [sp, #12]
 800c9e4:	f10d 0c38 	add.w	ip, sp, #56	; 0x38
 800c9e8:	1e5a      	subs	r2, r3, #1
 800c9ea:	f1c4 0518 	rsb	r5, r4, #24
 800c9ee:	f85c 3022 	ldr.w	r3, [ip, r2, lsl #2]
 800c9f2:	fa43 f105 	asr.w	r1, r3, r5
 800c9f6:	fa01 f005 	lsl.w	r0, r1, r5
 800c9fa:	1a1b      	subs	r3, r3, r0
 800c9fc:	f1c4 0417 	rsb	r4, r4, #23
 800ca00:	f84c 3022 	str.w	r3, [ip, r2, lsl #2]
 800ca04:	4488      	add	r8, r1
 800ca06:	fa43 f504 	asr.w	r5, r3, r4
 800ca0a:	2d00      	cmp	r5, #0
 800ca0c:	dd5a      	ble.n	800cac4 <__kernel_rem_pio2+0x49c>
 800ca0e:	9a03      	ldr	r2, [sp, #12]
 800ca10:	2a00      	cmp	r2, #0
 800ca12:	f108 0801 	add.w	r8, r8, #1
 800ca16:	f340 8173 	ble.w	800cd00 <__kernel_rem_pio2+0x6d8>
 800ca1a:	ab0e      	add	r3, sp, #56	; 0x38
 800ca1c:	9802      	ldr	r0, [sp, #8]
 800ca1e:	eb03 0182 	add.w	r1, r3, r2, lsl #2
 800ca22:	1a0c      	subs	r4, r1, r0
 800ca24:	f853 2b04 	ldr.w	r2, [r3], #4
 800ca28:	1f20      	subs	r0, r4, #4
 800ca2a:	f3c0 0080 	ubfx	r0, r0, #2, #1
 800ca2e:	2400      	movs	r4, #0
 800ca30:	b122      	cbz	r2, 800ca3c <__kernel_rem_pio2+0x414>
 800ca32:	f1c2 7480 	rsb	r4, r2, #16777216	; 0x1000000
 800ca36:	f843 4c04 	str.w	r4, [r3, #-4]
 800ca3a:	2401      	movs	r4, #1
 800ca3c:	428b      	cmp	r3, r1
 800ca3e:	d02b      	beq.n	800ca98 <__kernel_rem_pio2+0x470>
 800ca40:	b168      	cbz	r0, 800ca5e <__kernel_rem_pio2+0x436>
 800ca42:	9a0f      	ldr	r2, [sp, #60]	; 0x3c
 800ca44:	3304      	adds	r3, #4
 800ca46:	2c00      	cmp	r4, #0
 800ca48:	f000 810d 	beq.w	800cc66 <__kernel_rem_pio2+0x63e>
 800ca4c:	f1c2 10ff 	rsb	r0, r2, #16711935	; 0xff00ff
 800ca50:	f500 447f 	add.w	r4, r0, #65280	; 0xff00
 800ca54:	f843 4c04 	str.w	r4, [r3, #-4]
 800ca58:	2401      	movs	r4, #1
 800ca5a:	428b      	cmp	r3, r1
 800ca5c:	d01c      	beq.n	800ca98 <__kernel_rem_pio2+0x470>
 800ca5e:	f853 2b04 	ldr.w	r2, [r3], #4
 800ca62:	f1c2 10ff 	rsb	r0, r2, #16711935	; 0xff00ff
 800ca66:	f500 407f 	add.w	r0, r0, #65280	; 0xff00
 800ca6a:	b914      	cbnz	r4, 800ca72 <__kernel_rem_pio2+0x44a>
 800ca6c:	f1c2 7080 	rsb	r0, r2, #16777216	; 0x1000000
 800ca70:	b112      	cbz	r2, 800ca78 <__kernel_rem_pio2+0x450>
 800ca72:	f843 0c04 	str.w	r0, [r3, #-4]
 800ca76:	2401      	movs	r4, #1
 800ca78:	f853 2b04 	ldr.w	r2, [r3], #4
 800ca7c:	f1c2 10ff 	rsb	r0, r2, #16711935	; 0xff00ff
 800ca80:	f500 407f 	add.w	r0, r0, #65280	; 0xff00
 800ca84:	b91c      	cbnz	r4, 800ca8e <__kernel_rem_pio2+0x466>
 800ca86:	f1c2 7080 	rsb	r0, r2, #16777216	; 0x1000000
 800ca8a:	2a00      	cmp	r2, #0
 800ca8c:	d0e5      	beq.n	800ca5a <__kernel_rem_pio2+0x432>
 800ca8e:	2401      	movs	r4, #1
 800ca90:	428b      	cmp	r3, r1
 800ca92:	f843 0c04 	str.w	r0, [r3, #-4]
 800ca96:	d1e2      	bne.n	800ca5e <__kernel_rem_pio2+0x436>
 800ca98:	9b09      	ldr	r3, [sp, #36]	; 0x24
 800ca9a:	2b00      	cmp	r3, #0
 800ca9c:	dd0f      	ble.n	800cabe <__kernel_rem_pio2+0x496>
 800ca9e:	2b01      	cmp	r3, #1
 800caa0:	f000 810e 	beq.w	800ccc0 <__kernel_rem_pio2+0x698>
 800caa4:	2b02      	cmp	r3, #2
 800caa6:	d10a      	bne.n	800cabe <__kernel_rem_pio2+0x496>
 800caa8:	9903      	ldr	r1, [sp, #12]
 800caaa:	ab0e      	add	r3, sp, #56	; 0x38
 800caac:	1e48      	subs	r0, r1, #1
 800caae:	f853 2020 	ldr.w	r2, [r3, r0, lsl #2]
 800cab2:	f022 417f 	bic.w	r1, r2, #4278190080	; 0xff000000
 800cab6:	f421 0240 	bic.w	r2, r1, #12582912	; 0xc00000
 800caba:	f843 2020 	str.w	r2, [r3, r0, lsl #2]
 800cabe:	2d02      	cmp	r5, #2
 800cac0:	f000 80e3 	beq.w	800cc8a <__kernel_rem_pio2+0x662>
 800cac4:	4630      	mov	r0, r6
 800cac6:	4639      	mov	r1, r7
 800cac8:	2200      	movs	r2, #0
 800caca:	2300      	movs	r3, #0
 800cacc:	f7f5 fdc4 	bl	8002658 <__aeabi_dcmpeq>
 800cad0:	2800      	cmp	r0, #0
 800cad2:	f000 8446 	beq.w	800d362 <__kernel_rem_pio2+0xd3a>
 800cad6:	9803      	ldr	r0, [sp, #12]
 800cad8:	9f08      	ldr	r7, [sp, #32]
 800cada:	1e44      	subs	r4, r0, #1
 800cadc:	42a7      	cmp	r7, r4
 800cade:	dc22      	bgt.n	800cb26 <__kernel_rem_pio2+0x4fe>
 800cae0:	f10d 0c38 	add.w	ip, sp, #56	; 0x38
 800cae4:	eb0c 0180 	add.w	r1, ip, r0, lsl #2
 800cae8:	460b      	mov	r3, r1
 800caea:	9e0b      	ldr	r6, [sp, #44]	; 0x2c
 800caec:	f853 2d04 	ldr.w	r2, [r3, #-4]!
 800caf0:	1b88      	subs	r0, r1, r6
 800caf2:	1f01      	subs	r1, r0, #4
 800caf4:	42b3      	cmp	r3, r6
 800caf6:	f3c1 0080 	ubfx	r0, r1, #2, #1
 800cafa:	d011      	beq.n	800cb20 <__kernel_rem_pio2+0x4f8>
 800cafc:	b130      	cbz	r0, 800cb0c <__kernel_rem_pio2+0x4e4>
 800cafe:	f853 6d04 	ldr.w	r6, [r3, #-4]!
 800cb02:	990b      	ldr	r1, [sp, #44]	; 0x2c
 800cb04:	428b      	cmp	r3, r1
 800cb06:	ea42 0206 	orr.w	r2, r2, r6
 800cb0a:	d009      	beq.n	800cb20 <__kernel_rem_pio2+0x4f8>
 800cb0c:	9e0b      	ldr	r6, [sp, #44]	; 0x2c
 800cb0e:	f853 0d04 	ldr.w	r0, [r3, #-4]!
 800cb12:	f853 1d04 	ldr.w	r1, [r3, #-4]!
 800cb16:	4302      	orrs	r2, r0
 800cb18:	42b3      	cmp	r3, r6
 800cb1a:	ea42 0201 	orr.w	r2, r2, r1
 800cb1e:	d1f6      	bne.n	800cb0e <__kernel_rem_pio2+0x4e6>
 800cb20:	2a00      	cmp	r2, #0
 800cb22:	f040 80f1 	bne.w	800cd08 <__kernel_rem_pio2+0x6e0>
 800cb26:	9c08      	ldr	r4, [sp, #32]
 800cb28:	f10d 0938 	add.w	r9, sp, #56	; 0x38
 800cb2c:	1e65      	subs	r5, r4, #1
 800cb2e:	f859 3025 	ldr.w	r3, [r9, r5, lsl #2]
 800cb32:	2b00      	cmp	r3, #0
 800cb34:	f040 80e6 	bne.w	800cd04 <__kernel_rem_pio2+0x6dc>
 800cb38:	eb09 0785 	add.w	r7, r9, r5, lsl #2
 800cb3c:	2001      	movs	r0, #1
 800cb3e:	f857 2d04 	ldr.w	r2, [r7, #-4]!
 800cb42:	3001      	adds	r0, #1
 800cb44:	2a00      	cmp	r2, #0
 800cb46:	d0fa      	beq.n	800cb3e <__kernel_rem_pio2+0x516>
 800cb48:	9e03      	ldr	r6, [sp, #12]
 800cb4a:	1831      	adds	r1, r6, r0
 800cb4c:	f106 0901 	add.w	r9, r6, #1
 800cb50:	4589      	cmp	r9, r1
 800cb52:	910c      	str	r1, [sp, #48]	; 0x30
 800cb54:	f300 8081 	bgt.w	800cc5a <__kernel_rem_pio2+0x632>
 800cb58:	9c06      	ldr	r4, [sp, #24]
 800cb5a:	9b03      	ldr	r3, [sp, #12]
 800cb5c:	9d0d      	ldr	r5, [sp, #52]	; 0x34
 800cb5e:	9ea5      	ldr	r6, [sp, #660]	; 0x294
 800cb60:	eb04 0009 	add.w	r0, r4, r9
 800cb64:	1e42      	subs	r2, r0, #1
 800cb66:	ac22      	add	r4, sp, #136	; 0x88
 800cb68:	195f      	adds	r7, r3, r5
 800cb6a:	eb04 00c2 	add.w	r0, r4, r2, lsl #3
 800cb6e:	9d05      	ldr	r5, [sp, #20]
 800cb70:	9a0c      	ldr	r2, [sp, #48]	; 0x30
 800cb72:	9004      	str	r0, [sp, #16]
 800cb74:	ab72      	add	r3, sp, #456	; 0x1c8
 800cb76:	eb06 0187 	add.w	r1, r6, r7, lsl #2
 800cb7a:	195f      	adds	r7, r3, r5
 800cb7c:	1c56      	adds	r6, r2, #1
 800cb7e:	9103      	str	r1, [sp, #12]
 800cb80:	9705      	str	r7, [sp, #20]
 800cb82:	9607      	str	r6, [sp, #28]
 800cb84:	9903      	ldr	r1, [sp, #12]
 800cb86:	f851 0f04 	ldr.w	r0, [r1, #4]!
 800cb8a:	9103      	str	r1, [sp, #12]
 800cb8c:	f7f5 fa96 	bl	80020bc <__aeabi_i2d>
 800cb90:	9c04      	ldr	r4, [sp, #16]
 800cb92:	e9e4 0102 	strd	r0, r1, [r4, #8]!
 800cb96:	9806      	ldr	r0, [sp, #24]
 800cb98:	9404      	str	r4, [sp, #16]
 800cb9a:	2800      	cmp	r0, #0
 800cb9c:	db60      	blt.n	800cc60 <__kernel_rem_pio2+0x638>
 800cb9e:	eb09 030a 	add.w	r3, r9, sl
 800cba2:	ad22      	add	r5, sp, #136	; 0x88
 800cba4:	eb05 07c3 	add.w	r7, r5, r3, lsl #3
 800cba8:	e957 2302 	ldrd	r2, r3, [r7, #-8]
 800cbac:	f10a 3cff 	add.w	ip, sl, #4294967295
 800cbb0:	e9db 0100 	ldrd	r0, r1, [fp]
 800cbb4:	f00c 0801 	and.w	r8, ip, #1
 800cbb8:	f7f5 fae6 	bl	8002188 <__aeabi_dmul>
 800cbbc:	4602      	mov	r2, r0
 800cbbe:	460b      	mov	r3, r1
 800cbc0:	2000      	movs	r0, #0
 800cbc2:	2100      	movs	r1, #0
 800cbc4:	f7f5 f92e 	bl	8001e24 <__adddf3>
 800cbc8:	2601      	movs	r6, #1
 800cbca:	3f08      	subs	r7, #8
 800cbcc:	4556      	cmp	r6, sl
 800cbce:	4604      	mov	r4, r0
 800cbd0:	460d      	mov	r5, r1
 800cbd2:	46de      	mov	lr, fp
 800cbd4:	d038      	beq.n	800cc48 <__kernel_rem_pio2+0x620>
 800cbd6:	f1b8 0f00 	cmp.w	r8, #0
 800cbda:	d012      	beq.n	800cc02 <__kernel_rem_pio2+0x5da>
 800cbdc:	e977 2302 	ldrd	r2, r3, [r7, #-8]!
 800cbe0:	e9db 0102 	ldrd	r0, r1, [fp, #8]
 800cbe4:	f7f5 fad0 	bl	8002188 <__aeabi_dmul>
 800cbe8:	4602      	mov	r2, r0
 800cbea:	460b      	mov	r3, r1
 800cbec:	4620      	mov	r0, r4
 800cbee:	4629      	mov	r1, r5
 800cbf0:	f7f5 f918 	bl	8001e24 <__adddf3>
 800cbf4:	2602      	movs	r6, #2
 800cbf6:	4556      	cmp	r6, sl
 800cbf8:	4604      	mov	r4, r0
 800cbfa:	460d      	mov	r5, r1
 800cbfc:	f10b 0e08 	add.w	lr, fp, #8
 800cc00:	d022      	beq.n	800cc48 <__kernel_rem_pio2+0x620>
 800cc02:	46f0      	mov	r8, lr
 800cc04:	e957 2302 	ldrd	r2, r3, [r7, #-8]
 800cc08:	e9d8 0102 	ldrd	r0, r1, [r8, #8]
 800cc0c:	f7f5 fabc 	bl	8002188 <__aeabi_dmul>
 800cc10:	4602      	mov	r2, r0
 800cc12:	460b      	mov	r3, r1
 800cc14:	4620      	mov	r0, r4
 800cc16:	4629      	mov	r1, r5
 800cc18:	f7f5 f904 	bl	8001e24 <__adddf3>
 800cc1c:	e957 2304 	ldrd	r2, r3, [r7, #-16]
 800cc20:	4604      	mov	r4, r0
 800cc22:	460d      	mov	r5, r1
 800cc24:	e9d8 0104 	ldrd	r0, r1, [r8, #16]
 800cc28:	f7f5 faae 	bl	8002188 <__aeabi_dmul>
 800cc2c:	4602      	mov	r2, r0
 800cc2e:	460b      	mov	r3, r1
 800cc30:	4620      	mov	r0, r4
 800cc32:	4629      	mov	r1, r5
 800cc34:	f7f5 f8f6 	bl	8001e24 <__adddf3>
 800cc38:	3602      	adds	r6, #2
 800cc3a:	3f10      	subs	r7, #16
 800cc3c:	4556      	cmp	r6, sl
 800cc3e:	4604      	mov	r4, r0
 800cc40:	460d      	mov	r5, r1
 800cc42:	f108 0810 	add.w	r8, r8, #16
 800cc46:	d1dd      	bne.n	800cc04 <__kernel_rem_pio2+0x5dc>
 800cc48:	9a05      	ldr	r2, [sp, #20]
 800cc4a:	9907      	ldr	r1, [sp, #28]
 800cc4c:	e9e2 4502 	strd	r4, r5, [r2, #8]!
 800cc50:	f109 0901 	add.w	r9, r9, #1
 800cc54:	4589      	cmp	r9, r1
 800cc56:	9205      	str	r2, [sp, #20]
 800cc58:	d194      	bne.n	800cb84 <__kernel_rem_pio2+0x55c>
 800cc5a:	980c      	ldr	r0, [sp, #48]	; 0x30
 800cc5c:	9003      	str	r0, [sp, #12]
 800cc5e:	e5c6      	b.n	800c7ee <__kernel_rem_pio2+0x1c6>
 800cc60:	2400      	movs	r4, #0
 800cc62:	2500      	movs	r5, #0
 800cc64:	e7f0      	b.n	800cc48 <__kernel_rem_pio2+0x620>
 800cc66:	2a00      	cmp	r2, #0
 800cc68:	f43f aef7 	beq.w	800ca5a <__kernel_rem_pio2+0x432>
 800cc6c:	f1c2 7280 	rsb	r2, r2, #16777216	; 0x1000000
 800cc70:	f843 2c04 	str.w	r2, [r3, #-4]
 800cc74:	2401      	movs	r4, #1
 800cc76:	e6f0      	b.n	800ca5a <__kernel_rem_pio2+0x432>
 800cc78:	d12f      	bne.n	800ccda <__kernel_rem_pio2+0x6b2>
 800cc7a:	9803      	ldr	r0, [sp, #12]
 800cc7c:	f10d 0e38 	add.w	lr, sp, #56	; 0x38
 800cc80:	1e41      	subs	r1, r0, #1
 800cc82:	f85e 2021 	ldr.w	r2, [lr, r1, lsl #2]
 800cc86:	15d5      	asrs	r5, r2, #23
 800cc88:	e6bf      	b.n	800ca0a <__kernel_rem_pio2+0x3e2>
 800cc8a:	2100      	movs	r1, #0
 800cc8c:	4632      	mov	r2, r6
 800cc8e:	463b      	mov	r3, r7
 800cc90:	2000      	movs	r0, #0
 800cc92:	f6c3 71f0 	movt	r1, #16368	; 0x3ff0
 800cc96:	f7f5 f8c3 	bl	8001e20 <__aeabi_dsub>
 800cc9a:	4606      	mov	r6, r0
 800cc9c:	460f      	mov	r7, r1
 800cc9e:	2c00      	cmp	r4, #0
 800cca0:	f43f af10 	beq.w	800cac4 <__kernel_rem_pio2+0x49c>
 800cca4:	9809      	ldr	r0, [sp, #36]	; 0x24
 800cca6:	ed9f 0ba6 	vldr	d0, [pc, #664]	; 800cf40 <__kernel_rem_pio2+0x918>
 800ccaa:	f000 ff91 	bl	800dbd0 <scalbn>
 800ccae:	4630      	mov	r0, r6
 800ccb0:	4639      	mov	r1, r7
 800ccb2:	ec53 2b10 	vmov	r2, r3, d0
 800ccb6:	f7f5 f8b3 	bl	8001e20 <__aeabi_dsub>
 800ccba:	4606      	mov	r6, r0
 800ccbc:	460f      	mov	r7, r1
 800ccbe:	e701      	b.n	800cac4 <__kernel_rem_pio2+0x49c>
 800ccc0:	9803      	ldr	r0, [sp, #12]
 800ccc2:	f10d 0e38 	add.w	lr, sp, #56	; 0x38
 800ccc6:	1e43      	subs	r3, r0, #1
 800ccc8:	f85e 1023 	ldr.w	r1, [lr, r3, lsl #2]
 800cccc:	f021 427f 	bic.w	r2, r1, #4278190080	; 0xff000000
 800ccd0:	f422 0000 	bic.w	r0, r2, #8388608	; 0x800000
 800ccd4:	f84e 0023 	str.w	r0, [lr, r3, lsl #2]
 800ccd8:	e6f1      	b.n	800cabe <__kernel_rem_pio2+0x496>
 800ccda:	2300      	movs	r3, #0
 800ccdc:	2200      	movs	r2, #0
 800ccde:	f6c3 73e0 	movt	r3, #16352	; 0x3fe0
 800cce2:	f7f5 fcd7 	bl	8002694 <__aeabi_dcmpge>
 800cce6:	b920      	cbnz	r0, 800ccf2 <__kernel_rem_pio2+0x6ca>
 800cce8:	2500      	movs	r5, #0
 800ccea:	e6eb      	b.n	800cac4 <__kernel_rem_pio2+0x49c>
 800ccec:	2400      	movs	r4, #0
 800ccee:	2500      	movs	r5, #0
 800ccf0:	e56e      	b.n	800c7d0 <__kernel_rem_pio2+0x1a8>
 800ccf2:	9a03      	ldr	r2, [sp, #12]
 800ccf4:	2502      	movs	r5, #2
 800ccf6:	2a00      	cmp	r2, #0
 800ccf8:	f108 0801 	add.w	r8, r8, #1
 800ccfc:	f73f ae8d 	bgt.w	800ca1a <__kernel_rem_pio2+0x3f2>
 800cd00:	2400      	movs	r4, #0
 800cd02:	e6c9      	b.n	800ca98 <__kernel_rem_pio2+0x470>
 800cd04:	2001      	movs	r0, #1
 800cd06:	e71f      	b.n	800cb48 <__kernel_rem_pio2+0x520>
 800cd08:	aa0e      	add	r2, sp, #56	; 0x38
 800cd0a:	9506      	str	r5, [sp, #24]
 800cd0c:	9d09      	ldr	r5, [sp, #36]	; 0x24
 800cd0e:	f852 3024 	ldr.w	r3, [r2, r4, lsl #2]
 800cd12:	f8cd 801c 	str.w	r8, [sp, #28]
 800cd16:	3d18      	subs	r5, #24
 800cd18:	9509      	str	r5, [sp, #36]	; 0x24
 800cd1a:	2b00      	cmp	r3, #0
 800cd1c:	f040 836c 	bne.w	800d3f8 <__kernel_rem_pio2+0xdd0>
 800cd20:	eb02 0684 	add.w	r6, r2, r4, lsl #2
 800cd24:	9403      	str	r4, [sp, #12]
 800cd26:	4629      	mov	r1, r5
 800cd28:	f856 0d04 	ldr.w	r0, [r6, #-4]!
 800cd2c:	3c01      	subs	r4, #1
 800cd2e:	3918      	subs	r1, #24
 800cd30:	2800      	cmp	r0, #0
 800cd32:	d0f9      	beq.n	800cd28 <__kernel_rem_pio2+0x700>
 800cd34:	9403      	str	r4, [sp, #12]
 800cd36:	9109      	str	r1, [sp, #36]	; 0x24
 800cd38:	ed9f 0b81 	vldr	d0, [pc, #516]	; 800cf40 <__kernel_rem_pio2+0x918>
 800cd3c:	9809      	ldr	r0, [sp, #36]	; 0x24
 800cd3e:	f000 ff47 	bl	800dbd0 <scalbn>
 800cd42:	9e03      	ldr	r6, [sp, #12]
 800cd44:	2e00      	cmp	r6, #0
 800cd46:	ec55 4b10 	vmov	r4, r5, d0
 800cd4a:	f2c0 80d0 	blt.w	800ceee <__kernel_rem_pio2+0x8c6>
 800cd4e:	1c77      	adds	r7, r6, #1
 800cd50:	9704      	str	r7, [sp, #16]
 800cd52:	f8dd 9010 	ldr.w	r9, [sp, #16]
 800cd56:	f50d 7be4 	add.w	fp, sp, #456	; 0x1c8
 800cd5a:	aa0e      	add	r2, sp, #56	; 0x38
 800cd5c:	eb0b 06c7 	add.w	r6, fp, r7, lsl #3
 800cd60:	eb02 0789 	add.w	r7, r2, r9, lsl #2
 800cd64:	ebcb 0806 	rsb	r8, fp, r6
 800cd68:	f1a8 0308 	sub.w	r3, r8, #8
 800cd6c:	f857 0d04 	ldr.w	r0, [r7, #-4]!
 800cd70:	f3c3 08c0 	ubfx	r8, r3, #3, #1
 800cd74:	f7f5 f9a2 	bl	80020bc <__aeabi_i2d>
 800cd78:	4622      	mov	r2, r4
 800cd7a:	462b      	mov	r3, r5
 800cd7c:	f7f5 fa04 	bl	8002188 <__aeabi_dmul>
 800cd80:	2300      	movs	r3, #0
 800cd82:	e966 0102 	strd	r0, r1, [r6, #-8]!
 800cd86:	2200      	movs	r2, #0
 800cd88:	4620      	mov	r0, r4
 800cd8a:	4629      	mov	r1, r5
 800cd8c:	f6c3 6370 	movt	r3, #15984	; 0x3e70
 800cd90:	f7f5 f9fa 	bl	8002188 <__aeabi_dmul>
 800cd94:	455e      	cmp	r6, fp
 800cd96:	4604      	mov	r4, r0
 800cd98:	460d      	mov	r5, r1
 800cd9a:	d044      	beq.n	800ce26 <__kernel_rem_pio2+0x7fe>
 800cd9c:	f1b8 0f00 	cmp.w	r8, #0
 800cda0:	d015      	beq.n	800cdce <__kernel_rem_pio2+0x7a6>
 800cda2:	f857 0d04 	ldr.w	r0, [r7, #-4]!
 800cda6:	f7f5 f989 	bl	80020bc <__aeabi_i2d>
 800cdaa:	4622      	mov	r2, r4
 800cdac:	462b      	mov	r3, r5
 800cdae:	f7f5 f9eb 	bl	8002188 <__aeabi_dmul>
 800cdb2:	2300      	movs	r3, #0
 800cdb4:	e966 0102 	strd	r0, r1, [r6, #-8]!
 800cdb8:	2200      	movs	r2, #0
 800cdba:	4620      	mov	r0, r4
 800cdbc:	4629      	mov	r1, r5
 800cdbe:	f6c3 6370 	movt	r3, #15984	; 0x3e70
 800cdc2:	f7f5 f9e1 	bl	8002188 <__aeabi_dmul>
 800cdc6:	455e      	cmp	r6, fp
 800cdc8:	4604      	mov	r4, r0
 800cdca:	460d      	mov	r5, r1
 800cdcc:	d02b      	beq.n	800ce26 <__kernel_rem_pio2+0x7fe>
 800cdce:	f857 0c04 	ldr.w	r0, [r7, #-4]
 800cdd2:	f7f5 f973 	bl	80020bc <__aeabi_i2d>
 800cdd6:	4622      	mov	r2, r4
 800cdd8:	462b      	mov	r3, r5
 800cdda:	f7f5 f9d5 	bl	8002188 <__aeabi_dmul>
 800cdde:	2300      	movs	r3, #0
 800cde0:	e946 0102 	strd	r0, r1, [r6, #-8]
 800cde4:	2200      	movs	r2, #0
 800cde6:	f6c3 6370 	movt	r3, #15984	; 0x3e70
 800cdea:	4620      	mov	r0, r4
 800cdec:	4629      	mov	r1, r5
 800cdee:	f7f5 f9cb 	bl	8002188 <__aeabi_dmul>
 800cdf2:	4604      	mov	r4, r0
 800cdf4:	460d      	mov	r5, r1
 800cdf6:	f857 0c08 	ldr.w	r0, [r7, #-8]
 800cdfa:	f7f5 f95f 	bl	80020bc <__aeabi_i2d>
 800cdfe:	4622      	mov	r2, r4
 800ce00:	462b      	mov	r3, r5
 800ce02:	f7f5 f9c1 	bl	8002188 <__aeabi_dmul>
 800ce06:	2300      	movs	r3, #0
 800ce08:	e946 0104 	strd	r0, r1, [r6, #-16]
 800ce0c:	2200      	movs	r2, #0
 800ce0e:	4620      	mov	r0, r4
 800ce10:	4629      	mov	r1, r5
 800ce12:	f6c3 6370 	movt	r3, #15984	; 0x3e70
 800ce16:	f7f5 f9b7 	bl	8002188 <__aeabi_dmul>
 800ce1a:	3e10      	subs	r6, #16
 800ce1c:	3f08      	subs	r7, #8
 800ce1e:	455e      	cmp	r6, fp
 800ce20:	4604      	mov	r4, r0
 800ce22:	460d      	mov	r5, r1
 800ce24:	d1d3      	bne.n	800cdce <__kernel_rem_pio2+0x7a6>
 800ce26:	9903      	ldr	r1, [sp, #12]
 800ce28:	1e48      	subs	r0, r1, #1
 800ce2a:	f04f 0900 	mov.w	r9, #0
 800ce2e:	9005      	str	r0, [sp, #20]
 800ce30:	9a08      	ldr	r2, [sp, #32]
 800ce32:	2a00      	cmp	r2, #0
 800ce34:	f2c0 8290 	blt.w	800d358 <__kernel_rem_pio2+0xd30>
 800ce38:	f1b9 0f00 	cmp.w	r9, #0
 800ce3c:	f2c0 828c 	blt.w	800d358 <__kernel_rem_pio2+0xd30>
 800ce40:	9e05      	ldr	r6, [sp, #20]
 800ce42:	9b08      	ldr	r3, [sp, #32]
 800ce44:	4f40      	ldr	r7, [pc, #256]	; (800cf48 <__kernel_rem_pio2+0x920>)
 800ce46:	ebc9 0e06 	rsb	lr, r9, r6
 800ce4a:	2400      	movs	r4, #0
 800ce4c:	2500      	movs	r5, #0
 800ce4e:	2600      	movs	r6, #0
 800ce50:	07db      	lsls	r3, r3, #31
 800ce52:	eb0b 08ce 	add.w	r8, fp, lr, lsl #3
 800ce56:	d512      	bpl.n	800ce7e <__kernel_rem_pio2+0x856>
 800ce58:	e9f8 2302 	ldrd	r2, r3, [r8, #8]!
 800ce5c:	e9f7 0102 	ldrd	r0, r1, [r7, #8]!
 800ce60:	f7f5 f992 	bl	8002188 <__aeabi_dmul>
 800ce64:	4602      	mov	r2, r0
 800ce66:	460b      	mov	r3, r1
 800ce68:	4620      	mov	r0, r4
 800ce6a:	4629      	mov	r1, r5
 800ce6c:	f7f4 ffda 	bl	8001e24 <__adddf3>
 800ce70:	460d      	mov	r5, r1
 800ce72:	9908      	ldr	r1, [sp, #32]
 800ce74:	2601      	movs	r6, #1
 800ce76:	42b1      	cmp	r1, r6
 800ce78:	4604      	mov	r4, r0
 800ce7a:	da2c      	bge.n	800ced6 <__kernel_rem_pio2+0x8ae>
 800ce7c:	e02d      	b.n	800ceda <__kernel_rem_pio2+0x8b2>
 800ce7e:	e9d8 2302 	ldrd	r2, r3, [r8, #8]
 800ce82:	e9d7 0102 	ldrd	r0, r1, [r7, #8]
 800ce86:	f7f5 f97f 	bl	8002188 <__aeabi_dmul>
 800ce8a:	4602      	mov	r2, r0
 800ce8c:	460b      	mov	r3, r1
 800ce8e:	4620      	mov	r0, r4
 800ce90:	4629      	mov	r1, r5
 800ce92:	f7f4 ffc7 	bl	8001e24 <__adddf3>
 800ce96:	4604      	mov	r4, r0
 800ce98:	f107 0008 	add.w	r0, r7, #8
 800ce9c:	9f08      	ldr	r7, [sp, #32]
 800ce9e:	f106 0a01 	add.w	sl, r6, #1
 800cea2:	f108 0208 	add.w	r2, r8, #8
 800cea6:	3602      	adds	r6, #2
 800cea8:	4557      	cmp	r7, sl
 800ceaa:	460d      	mov	r5, r1
 800ceac:	f100 0708 	add.w	r7, r0, #8
 800ceb0:	f102 0808 	add.w	r8, r2, #8
 800ceb4:	db11      	blt.n	800ceda <__kernel_rem_pio2+0x8b2>
 800ceb6:	45ca      	cmp	sl, r9
 800ceb8:	dc0f      	bgt.n	800ceda <__kernel_rem_pio2+0x8b2>
 800ceba:	e9d2 2302 	ldrd	r2, r3, [r2, #8]
 800cebe:	e9d0 0102 	ldrd	r0, r1, [r0, #8]
 800cec2:	f7f5 f961 	bl	8002188 <__aeabi_dmul>
 800cec6:	4602      	mov	r2, r0
 800cec8:	460b      	mov	r3, r1
 800ceca:	4620      	mov	r0, r4
 800cecc:	4629      	mov	r1, r5
 800cece:	f7f4 ffa9 	bl	8001e24 <__adddf3>
 800ced2:	4604      	mov	r4, r0
 800ced4:	460d      	mov	r5, r1
 800ced6:	454e      	cmp	r6, r9
 800ced8:	ddd1      	ble.n	800ce7e <__kernel_rem_pio2+0x856>
 800ceda:	ab4a      	add	r3, sp, #296	; 0x128
 800cedc:	eb03 01c9 	add.w	r1, r3, r9, lsl #3
 800cee0:	e9c1 4500 	strd	r4, r5, [r1]
 800cee4:	9c04      	ldr	r4, [sp, #16]
 800cee6:	f109 0901 	add.w	r9, r9, #1
 800ceea:	45a1      	cmp	r9, r4
 800ceec:	d1a0      	bne.n	800ce30 <__kernel_rem_pio2+0x808>
 800ceee:	9ca4      	ldr	r4, [sp, #656]	; 0x290
 800cef0:	2c03      	cmp	r4, #3
 800cef2:	d81d      	bhi.n	800cf30 <__kernel_rem_pio2+0x908>
 800cef4:	e8df f014 	tbh	[pc, r4, lsl #1]
 800cef8:	017a01f3 	.word	0x017a01f3
 800cefc:	002a017a 	.word	0x002a017a
 800cf00:	2500      	movs	r5, #0
 800cf02:	462f      	mov	r7, r5
 800cf04:	9806      	ldr	r0, [sp, #24]
 800cf06:	2800      	cmp	r0, #0
 800cf08:	f000 815f 	beq.w	800d1ca <__kernel_rem_pio2+0xba2>
 800cf0c:	9e05      	ldr	r6, [sp, #20]
 800cf0e:	9c0a      	ldr	r4, [sp, #40]	; 0x28
 800cf10:	6871      	ldr	r1, [r6, #4]
 800cf12:	68f0      	ldr	r0, [r6, #12]
 800cf14:	6832      	ldr	r2, [r6, #0]
 800cf16:	68b3      	ldr	r3, [r6, #8]
 800cf18:	6022      	str	r2, [r4, #0]
 800cf1a:	f101 4100 	add.w	r1, r1, #2147483648	; 0x80000000
 800cf1e:	f100 4000 	add.w	r0, r0, #2147483648	; 0x80000000
 800cf22:	f107 4700 	add.w	r7, r7, #2147483648	; 0x80000000
 800cf26:	6061      	str	r1, [r4, #4]
 800cf28:	60a3      	str	r3, [r4, #8]
 800cf2a:	60e0      	str	r0, [r4, #12]
 800cf2c:	6125      	str	r5, [r4, #16]
 800cf2e:	6167      	str	r7, [r4, #20]
 800cf30:	9d07      	ldr	r5, [sp, #28]
 800cf32:	f005 0007 	and.w	r0, r5, #7
 800cf36:	f50d 7d1b 	add.w	sp, sp, #620	; 0x26c
 800cf3a:	e8bd 8ff0 	ldmia.w	sp!, {r4, r5, r6, r7, r8, r9, sl, fp, pc}
 800cf3e:	bf00      	nop
 800cf40:	00000000 	.word	0x00000000
 800cf44:	3ff00000 	.word	0x3ff00000
 800cf48:	0800e500 	.word	0x0800e500
 800cf4c:	9e03      	ldr	r6, [sp, #12]
 800cf4e:	2e00      	cmp	r6, #0
 800cf50:	f340 8264 	ble.w	800d41c <__kernel_rem_pio2+0xdf4>
 800cf54:	9e03      	ldr	r6, [sp, #12]
 800cf56:	ad4a      	add	r5, sp, #296	; 0x128
 800cf58:	1c72      	adds	r2, r6, #1
 800cf5a:	eb05 03c2 	add.w	r3, r5, r2, lsl #3
 800cf5e:	e953 6704 	ldrd	r6, r7, [r3, #-16]
 800cf62:	e953 ab02 	ldrd	sl, fp, [r3, #-8]
 800cf66:	9505      	str	r5, [sp, #20]
 800cf68:	ad4c      	add	r5, sp, #304	; 0x130
 800cf6a:	9304      	str	r3, [sp, #16]
 800cf6c:	1b5c      	subs	r4, r3, r5
 800cf6e:	4652      	mov	r2, sl
 800cf70:	465b      	mov	r3, fp
 800cf72:	4630      	mov	r0, r6
 800cf74:	4639      	mov	r1, r7
 800cf76:	9508      	str	r5, [sp, #32]
 800cf78:	f7f4 ff54 	bl	8001e24 <__adddf3>
 800cf7c:	4680      	mov	r8, r0
 800cf7e:	4689      	mov	r9, r1
 800cf80:	4642      	mov	r2, r8
 800cf82:	464b      	mov	r3, r9
 800cf84:	4630      	mov	r0, r6
 800cf86:	4639      	mov	r1, r7
 800cf88:	f7f4 ff4a 	bl	8001e20 <__aeabi_dsub>
 800cf8c:	4602      	mov	r2, r0
 800cf8e:	460b      	mov	r3, r1
 800cf90:	4650      	mov	r0, sl
 800cf92:	4659      	mov	r1, fp
 800cf94:	f7f4 ff46 	bl	8001e24 <__adddf3>
 800cf98:	f8dd b010 	ldr.w	fp, [sp, #16]
 800cf9c:	e96b 0102 	strd	r0, r1, [fp, #-8]!
 800cfa0:	3c08      	subs	r4, #8
 800cfa2:	45ab      	cmp	fp, r5
 800cfa4:	f3c4 04c0 	ubfx	r4, r4, #3, #1
 800cfa8:	e94b 8902 	strd	r8, r9, [fp, #-8]
 800cfac:	d059      	beq.n	800d062 <__kernel_rem_pio2+0xa3a>
 800cfae:	b1e4      	cbz	r4, 800cfea <__kernel_rem_pio2+0x9c2>
 800cfb0:	e95b 6704 	ldrd	r6, r7, [fp, #-16]
 800cfb4:	4642      	mov	r2, r8
 800cfb6:	464b      	mov	r3, r9
 800cfb8:	4639      	mov	r1, r7
 800cfba:	4630      	mov	r0, r6
 800cfbc:	f7f4 ff32 	bl	8001e24 <__adddf3>
 800cfc0:	4604      	mov	r4, r0
 800cfc2:	460d      	mov	r5, r1
 800cfc4:	4622      	mov	r2, r4
 800cfc6:	4639      	mov	r1, r7
 800cfc8:	462b      	mov	r3, r5
 800cfca:	4630      	mov	r0, r6
 800cfcc:	f7f4 ff28 	bl	8001e20 <__aeabi_dsub>
 800cfd0:	4602      	mov	r2, r0
 800cfd2:	460b      	mov	r3, r1
 800cfd4:	4640      	mov	r0, r8
 800cfd6:	4649      	mov	r1, r9
 800cfd8:	f7f4 ff24 	bl	8001e24 <__adddf3>
 800cfdc:	e96b 0102 	strd	r0, r1, [fp, #-8]!
 800cfe0:	9f08      	ldr	r7, [sp, #32]
 800cfe2:	45bb      	cmp	fp, r7
 800cfe4:	e94b 4502 	strd	r4, r5, [fp, #-8]
 800cfe8:	d03b      	beq.n	800d062 <__kernel_rem_pio2+0xa3a>
 800cfea:	46da      	mov	sl, fp
 800cfec:	e97a 8902 	ldrd	r8, r9, [sl, #-8]!
 800cff0:	e95b 6704 	ldrd	r6, r7, [fp, #-16]
 800cff4:	4642      	mov	r2, r8
 800cff6:	464b      	mov	r3, r9
 800cff8:	4630      	mov	r0, r6
 800cffa:	4639      	mov	r1, r7
 800cffc:	f7f4 ff12 	bl	8001e24 <__adddf3>
 800d000:	4604      	mov	r4, r0
 800d002:	460d      	mov	r5, r1
 800d004:	4630      	mov	r0, r6
 800d006:	4639      	mov	r1, r7
 800d008:	4622      	mov	r2, r4
 800d00a:	462b      	mov	r3, r5
 800d00c:	f7f4 ff08 	bl	8001e20 <__aeabi_dsub>
 800d010:	4602      	mov	r2, r0
 800d012:	460b      	mov	r3, r1
 800d014:	4640      	mov	r0, r8
 800d016:	4649      	mov	r1, r9
 800d018:	f7f4 ff04 	bl	8001e24 <__adddf3>
 800d01c:	e94b 0102 	strd	r0, r1, [fp, #-8]
 800d020:	e95a 8904 	ldrd	r8, r9, [sl, #-16]
 800d024:	4622      	mov	r2, r4
 800d026:	462b      	mov	r3, r5
 800d028:	e94a 4502 	strd	r4, r5, [sl, #-8]
 800d02c:	4640      	mov	r0, r8
 800d02e:	4649      	mov	r1, r9
 800d030:	f7f4 fef8 	bl	8001e24 <__adddf3>
 800d034:	4606      	mov	r6, r0
 800d036:	460f      	mov	r7, r1
 800d038:	4632      	mov	r2, r6
 800d03a:	463b      	mov	r3, r7
 800d03c:	4640      	mov	r0, r8
 800d03e:	4649      	mov	r1, r9
 800d040:	f7f4 feee 	bl	8001e20 <__aeabi_dsub>
 800d044:	4602      	mov	r2, r0
 800d046:	460b      	mov	r3, r1
 800d048:	4620      	mov	r0, r4
 800d04a:	4629      	mov	r1, r5
 800d04c:	f7f4 feea 	bl	8001e24 <__adddf3>
 800d050:	f1aa 0b08 	sub.w	fp, sl, #8
 800d054:	e94a 0102 	strd	r0, r1, [sl, #-8]
 800d058:	e94b 6702 	strd	r6, r7, [fp, #-8]
 800d05c:	9e08      	ldr	r6, [sp, #32]
 800d05e:	45b3      	cmp	fp, r6
 800d060:	d1c3      	bne.n	800cfea <__kernel_rem_pio2+0x9c2>
 800d062:	9903      	ldr	r1, [sp, #12]
 800d064:	2901      	cmp	r1, #1
 800d066:	f77f af4b 	ble.w	800cf00 <__kernel_rem_pio2+0x8d8>
 800d06a:	9804      	ldr	r0, [sp, #16]
 800d06c:	9f05      	ldr	r7, [sp, #20]
 800d06e:	e950 ab02 	ldrd	sl, fp, [r0, #-8]
 800d072:	e950 4504 	ldrd	r4, r5, [r0, #-16]
 800d076:	3710      	adds	r7, #16
 800d078:	465b      	mov	r3, fp
 800d07a:	1bc6      	subs	r6, r0, r7
 800d07c:	4652      	mov	r2, sl
 800d07e:	4620      	mov	r0, r4
 800d080:	4629      	mov	r1, r5
 800d082:	9703      	str	r7, [sp, #12]
 800d084:	f7f4 fece 	bl	8001e24 <__adddf3>
 800d088:	4680      	mov	r8, r0
 800d08a:	4689      	mov	r9, r1
 800d08c:	4642      	mov	r2, r8
 800d08e:	464b      	mov	r3, r9
 800d090:	4620      	mov	r0, r4
 800d092:	4629      	mov	r1, r5
 800d094:	f7f4 fec4 	bl	8001e20 <__aeabi_dsub>
 800d098:	4602      	mov	r2, r0
 800d09a:	460b      	mov	r3, r1
 800d09c:	4650      	mov	r0, sl
 800d09e:	4659      	mov	r1, fp
 800d0a0:	f7f4 fec0 	bl	8001e24 <__adddf3>
 800d0a4:	f8dd b010 	ldr.w	fp, [sp, #16]
 800d0a8:	e96b 0102 	strd	r0, r1, [fp, #-8]!
 800d0ac:	3e08      	subs	r6, #8
 800d0ae:	45bb      	cmp	fp, r7
 800d0b0:	f3c6 06c0 	ubfx	r6, r6, #3, #1
 800d0b4:	e94b 8902 	strd	r8, r9, [fp, #-8]
 800d0b8:	d059      	beq.n	800d16e <__kernel_rem_pio2+0xb46>
 800d0ba:	b1e6      	cbz	r6, 800d0f6 <__kernel_rem_pio2+0xace>
 800d0bc:	e95b 6704 	ldrd	r6, r7, [fp, #-16]
 800d0c0:	4642      	mov	r2, r8
 800d0c2:	464b      	mov	r3, r9
 800d0c4:	4630      	mov	r0, r6
 800d0c6:	4639      	mov	r1, r7
 800d0c8:	f7f4 feac 	bl	8001e24 <__adddf3>
 800d0cc:	4604      	mov	r4, r0
 800d0ce:	460d      	mov	r5, r1
 800d0d0:	4622      	mov	r2, r4
 800d0d2:	462b      	mov	r3, r5
 800d0d4:	4630      	mov	r0, r6
 800d0d6:	4639      	mov	r1, r7
 800d0d8:	f7f4 fea2 	bl	8001e20 <__aeabi_dsub>
 800d0dc:	4602      	mov	r2, r0
 800d0de:	460b      	mov	r3, r1
 800d0e0:	4640      	mov	r0, r8
 800d0e2:	4649      	mov	r1, r9
 800d0e4:	f7f4 fe9e 	bl	8001e24 <__adddf3>
 800d0e8:	e96b 0102 	strd	r0, r1, [fp, #-8]!
 800d0ec:	9a03      	ldr	r2, [sp, #12]
 800d0ee:	4593      	cmp	fp, r2
 800d0f0:	e94b 4502 	strd	r4, r5, [fp, #-8]
 800d0f4:	d03b      	beq.n	800d16e <__kernel_rem_pio2+0xb46>
 800d0f6:	46da      	mov	sl, fp
 800d0f8:	e97a 8902 	ldrd	r8, r9, [sl, #-8]!
 800d0fc:	e95b 6704 	ldrd	r6, r7, [fp, #-16]
 800d100:	4642      	mov	r2, r8
 800d102:	464b      	mov	r3, r9
 800d104:	4630      	mov	r0, r6
 800d106:	4639      	mov	r1, r7
 800d108:	f7f4 fe8c 	bl	8001e24 <__adddf3>
 800d10c:	4604      	mov	r4, r0
 800d10e:	460d      	mov	r5, r1
 800d110:	4630      	mov	r0, r6
 800d112:	4639      	mov	r1, r7
 800d114:	4622      	mov	r2, r4
 800d116:	462b      	mov	r3, r5
 800d118:	f7f4 fe82 	bl	8001e20 <__aeabi_dsub>
 800d11c:	4602      	mov	r2, r0
 800d11e:	460b      	mov	r3, r1
 800d120:	4640      	mov	r0, r8
 800d122:	4649      	mov	r1, r9
 800d124:	f7f4 fe7e 	bl	8001e24 <__adddf3>
 800d128:	e94b 0102 	strd	r0, r1, [fp, #-8]
 800d12c:	e95a 8904 	ldrd	r8, r9, [sl, #-16]
 800d130:	4622      	mov	r2, r4
 800d132:	462b      	mov	r3, r5
 800d134:	e94a 4502 	strd	r4, r5, [sl, #-8]
 800d138:	4640      	mov	r0, r8
 800d13a:	4649      	mov	r1, r9
 800d13c:	f7f4 fe72 	bl	8001e24 <__adddf3>
 800d140:	4606      	mov	r6, r0
 800d142:	460f      	mov	r7, r1
 800d144:	4632      	mov	r2, r6
 800d146:	463b      	mov	r3, r7
 800d148:	4640      	mov	r0, r8
 800d14a:	4649      	mov	r1, r9
 800d14c:	f7f4 fe68 	bl	8001e20 <__aeabi_dsub>
 800d150:	460b      	mov	r3, r1
 800d152:	4602      	mov	r2, r0
 800d154:	4629      	mov	r1, r5
 800d156:	4620      	mov	r0, r4
 800d158:	f7f4 fe64 	bl	8001e24 <__adddf3>
 800d15c:	9b03      	ldr	r3, [sp, #12]
 800d15e:	f1aa 0b08 	sub.w	fp, sl, #8
 800d162:	459b      	cmp	fp, r3
 800d164:	e94a 0102 	strd	r0, r1, [sl, #-8]
 800d168:	e94b 6702 	strd	r6, r7, [fp, #-8]
 800d16c:	d1c3      	bne.n	800d0f6 <__kernel_rem_pio2+0xace>
 800d16e:	9c04      	ldr	r4, [sp, #16]
 800d170:	9d03      	ldr	r5, [sp, #12]
 800d172:	2000      	movs	r0, #0
 800d174:	1b67      	subs	r7, r4, r5
 800d176:	4601      	mov	r1, r0
 800d178:	e974 2302 	ldrd	r2, r3, [r4, #-8]!
 800d17c:	f7f4 fe52 	bl	8001e24 <__adddf3>
 800d180:	3f08      	subs	r7, #8
 800d182:	f3c7 06c0 	ubfx	r6, r7, #3, #1
 800d186:	460f      	mov	r7, r1
 800d188:	9903      	ldr	r1, [sp, #12]
 800d18a:	428c      	cmp	r4, r1
 800d18c:	4605      	mov	r5, r0
 800d18e:	f43f aeb9 	beq.w	800cf04 <__kernel_rem_pio2+0x8dc>
 800d192:	b136      	cbz	r6, 800d1a2 <__kernel_rem_pio2+0xb7a>
 800d194:	4628      	mov	r0, r5
 800d196:	4639      	mov	r1, r7
 800d198:	e974 2302 	ldrd	r2, r3, [r4, #-8]!
 800d19c:	f7f4 fe42 	bl	8001e24 <__adddf3>
 800d1a0:	e00a      	b.n	800d1b8 <__kernel_rem_pio2+0xb90>
 800d1a2:	e954 2302 	ldrd	r2, r3, [r4, #-8]
 800d1a6:	4628      	mov	r0, r5
 800d1a8:	4639      	mov	r1, r7
 800d1aa:	f7f4 fe3b 	bl	8001e24 <__adddf3>
 800d1ae:	e954 2304 	ldrd	r2, r3, [r4, #-16]
 800d1b2:	f7f4 fe37 	bl	8001e24 <__adddf3>
 800d1b6:	3c10      	subs	r4, #16
 800d1b8:	9e03      	ldr	r6, [sp, #12]
 800d1ba:	42b4      	cmp	r4, r6
 800d1bc:	4605      	mov	r5, r0
 800d1be:	460f      	mov	r7, r1
 800d1c0:	d1ef      	bne.n	800d1a2 <__kernel_rem_pio2+0xb7a>
 800d1c2:	9806      	ldr	r0, [sp, #24]
 800d1c4:	2800      	cmp	r0, #0
 800d1c6:	f47f aea1 	bne.w	800cf0c <__kernel_rem_pio2+0x8e4>
 800d1ca:	9c05      	ldr	r4, [sp, #20]
 800d1cc:	9905      	ldr	r1, [sp, #20]
 800d1ce:	ed94 7b00 	vldr	d7, [r4]
 800d1d2:	ed91 0b02 	vldr	d0, [r1, #8]
 800d1d6:	462a      	mov	r2, r5
 800d1d8:	9c0a      	ldr	r4, [sp, #40]	; 0x28
 800d1da:	9d0a      	ldr	r5, [sp, #40]	; 0x28
 800d1dc:	463b      	mov	r3, r7
 800d1de:	ed85 7b00 	vstr	d7, [r5]
 800d1e2:	ed84 0b02 	vstr	d0, [r4, #8]
 800d1e6:	e9c4 2304 	strd	r2, r3, [r4, #16]
 800d1ea:	e6a1      	b.n	800cf30 <__kernel_rem_pio2+0x908>
 800d1ec:	9803      	ldr	r0, [sp, #12]
 800d1ee:	2800      	cmp	r0, #0
 800d1f0:	f2c0 8110 	blt.w	800d414 <__kernel_rem_pio2+0xdec>
 800d1f4:	9d03      	ldr	r5, [sp, #12]
 800d1f6:	ac4a      	add	r4, sp, #296	; 0x128
 800d1f8:	1c69      	adds	r1, r5, #1
 800d1fa:	eb04 06c1 	add.w	r6, r4, r1, lsl #3
 800d1fe:	2000      	movs	r0, #0
 800d200:	4635      	mov	r5, r6
 800d202:	e975 2302 	ldrd	r2, r3, [r5, #-8]!
 800d206:	ebc4 0c06 	rsb	ip, r4, r6
 800d20a:	4601      	mov	r1, r0
 800d20c:	f1ac 0808 	sub.w	r8, ip, #8
 800d210:	f7f4 fe08 	bl	8001e24 <__adddf3>
 800d214:	42a5      	cmp	r5, r4
 800d216:	f3c8 08c0 	ubfx	r8, r8, #3, #1
 800d21a:	4602      	mov	r2, r0
 800d21c:	460f      	mov	r7, r1
 800d21e:	d01b      	beq.n	800d258 <__kernel_rem_pio2+0xc30>
 800d220:	f1b8 0f00 	cmp.w	r8, #0
 800d224:	d007      	beq.n	800d236 <__kernel_rem_pio2+0xc0e>
 800d226:	e975 2302 	ldrd	r2, r3, [r5, #-8]!
 800d22a:	f7f4 fdfb 	bl	8001e24 <__adddf3>
 800d22e:	42a5      	cmp	r5, r4
 800d230:	4602      	mov	r2, r0
 800d232:	460f      	mov	r7, r1
 800d234:	d010      	beq.n	800d258 <__kernel_rem_pio2+0xc30>
 800d236:	4610      	mov	r0, r2
 800d238:	4639      	mov	r1, r7
 800d23a:	e955 2302 	ldrd	r2, r3, [r5, #-8]
 800d23e:	f7f4 fdf1 	bl	8001e24 <__adddf3>
 800d242:	4606      	mov	r6, r0
 800d244:	e955 2304 	ldrd	r2, r3, [r5, #-16]
 800d248:	4630      	mov	r0, r6
 800d24a:	f7f4 fdeb 	bl	8001e24 <__adddf3>
 800d24e:	3d10      	subs	r5, #16
 800d250:	42a5      	cmp	r5, r4
 800d252:	4602      	mov	r2, r0
 800d254:	460f      	mov	r7, r1
 800d256:	d1ee      	bne.n	800d236 <__kernel_rem_pio2+0xc0e>
 800d258:	9d06      	ldr	r5, [sp, #24]
 800d25a:	2d00      	cmp	r5, #0
 800d25c:	d07f      	beq.n	800d35e <__kernel_rem_pio2+0xd36>
 800d25e:	f107 4000 	add.w	r0, r7, #2147483648	; 0x80000000
 800d262:	4603      	mov	r3, r0
 800d264:	4619      	mov	r1, r3
 800d266:	463b      	mov	r3, r7
 800d268:	9f0a      	ldr	r7, [sp, #40]	; 0x28
 800d26a:	4610      	mov	r0, r2
 800d26c:	e9c7 0100 	strd	r0, r1, [r7]
 800d270:	e9d4 0100 	ldrd	r0, r1, [r4]
 800d274:	f7f4 fdd4 	bl	8001e20 <__aeabi_dsub>
 800d278:	9a03      	ldr	r2, [sp, #12]
 800d27a:	2a00      	cmp	r2, #0
 800d27c:	4684      	mov	ip, r0
 800d27e:	dd24      	ble.n	800d2ca <__kernel_rem_pio2+0xca2>
 800d280:	4625      	mov	r5, r4
 800d282:	eb04 06c2 	add.w	r6, r4, r2, lsl #3
 800d286:	4660      	mov	r0, ip
 800d288:	e9f5 2302 	ldrd	r2, r3, [r5, #8]!
 800d28c:	f7f4 fdca 	bl	8001e24 <__adddf3>
 800d290:	1b34      	subs	r4, r6, r4
 800d292:	3c08      	subs	r4, #8
 800d294:	42b5      	cmp	r5, r6
 800d296:	f3c4 04c0 	ubfx	r4, r4, #3, #1
 800d29a:	4684      	mov	ip, r0
 800d29c:	d015      	beq.n	800d2ca <__kernel_rem_pio2+0xca2>
 800d29e:	b13c      	cbz	r4, 800d2b0 <__kernel_rem_pio2+0xc88>
 800d2a0:	4660      	mov	r0, ip
 800d2a2:	e9f5 2302 	ldrd	r2, r3, [r5, #8]!
 800d2a6:	f7f4 fdbd 	bl	8001e24 <__adddf3>
 800d2aa:	42b5      	cmp	r5, r6
 800d2ac:	4684      	mov	ip, r0
 800d2ae:	d00c      	beq.n	800d2ca <__kernel_rem_pio2+0xca2>
 800d2b0:	4660      	mov	r0, ip
 800d2b2:	e9d5 2302 	ldrd	r2, r3, [r5, #8]
 800d2b6:	f7f4 fdb5 	bl	8001e24 <__adddf3>
 800d2ba:	e9d5 2304 	ldrd	r2, r3, [r5, #16]
 800d2be:	f7f4 fdb1 	bl	8001e24 <__adddf3>
 800d2c2:	3510      	adds	r5, #16
 800d2c4:	42b5      	cmp	r5, r6
 800d2c6:	4684      	mov	ip, r0
 800d2c8:	d1f2      	bne.n	800d2b0 <__kernel_rem_pio2+0xc88>
 800d2ca:	9e06      	ldr	r6, [sp, #24]
 800d2cc:	b10e      	cbz	r6, 800d2d2 <__kernel_rem_pio2+0xcaa>
 800d2ce:	f101 4100 	add.w	r1, r1, #2147483648	; 0x80000000
 800d2d2:	9f0a      	ldr	r7, [sp, #40]	; 0x28
 800d2d4:	4662      	mov	r2, ip
 800d2d6:	460b      	mov	r3, r1
 800d2d8:	e9c7 2302 	strd	r2, r3, [r7, #8]
 800d2dc:	e628      	b.n	800cf30 <__kernel_rem_pio2+0x908>
 800d2de:	9e03      	ldr	r6, [sp, #12]
 800d2e0:	2e00      	cmp	r6, #0
 800d2e2:	f2c0 8094 	blt.w	800d40e <__kernel_rem_pio2+0xde6>
 800d2e6:	1c71      	adds	r1, r6, #1
 800d2e8:	ac4a      	add	r4, sp, #296	; 0x128
 800d2ea:	eb04 03c1 	add.w	r3, r4, r1, lsl #3
 800d2ee:	2000      	movs	r0, #0
 800d2f0:	461d      	mov	r5, r3
 800d2f2:	ebc4 0e03 	rsb	lr, r4, r3
 800d2f6:	4601      	mov	r1, r0
 800d2f8:	e975 2302 	ldrd	r2, r3, [r5, #-8]!
 800d2fc:	f1ae 0808 	sub.w	r8, lr, #8
 800d300:	f7f4 fd90 	bl	8001e24 <__adddf3>
 800d304:	42a5      	cmp	r5, r4
 800d306:	f3c8 08c0 	ubfx	r8, r8, #3, #1
 800d30a:	4607      	mov	r7, r0
 800d30c:	460e      	mov	r6, r1
 800d30e:	d019      	beq.n	800d344 <__kernel_rem_pio2+0xd1c>
 800d310:	f1b8 0f00 	cmp.w	r8, #0
 800d314:	d007      	beq.n	800d326 <__kernel_rem_pio2+0xcfe>
 800d316:	e975 2302 	ldrd	r2, r3, [r5, #-8]!
 800d31a:	f7f4 fd83 	bl	8001e24 <__adddf3>
 800d31e:	42a5      	cmp	r5, r4
 800d320:	4607      	mov	r7, r0
 800d322:	460e      	mov	r6, r1
 800d324:	d00e      	beq.n	800d344 <__kernel_rem_pio2+0xd1c>
 800d326:	e955 2302 	ldrd	r2, r3, [r5, #-8]
 800d32a:	4638      	mov	r0, r7
 800d32c:	4631      	mov	r1, r6
 800d32e:	f7f4 fd79 	bl	8001e24 <__adddf3>
 800d332:	e955 2304 	ldrd	r2, r3, [r5, #-16]
 800d336:	f7f4 fd75 	bl	8001e24 <__adddf3>
 800d33a:	3d10      	subs	r5, #16
 800d33c:	42a5      	cmp	r5, r4
 800d33e:	4607      	mov	r7, r0
 800d340:	460e      	mov	r6, r1
 800d342:	d1f0      	bne.n	800d326 <__kernel_rem_pio2+0xcfe>
 800d344:	9c06      	ldr	r4, [sp, #24]
 800d346:	b10c      	cbz	r4, 800d34c <__kernel_rem_pio2+0xd24>
 800d348:	f106 4600 	add.w	r6, r6, #2147483648	; 0x80000000
 800d34c:	990a      	ldr	r1, [sp, #40]	; 0x28
 800d34e:	463a      	mov	r2, r7
 800d350:	4633      	mov	r3, r6
 800d352:	e9c1 2300 	strd	r2, r3, [r1]
 800d356:	e5eb      	b.n	800cf30 <__kernel_rem_pio2+0x908>
 800d358:	2400      	movs	r4, #0
 800d35a:	2500      	movs	r5, #0
 800d35c:	e5bd      	b.n	800ceda <__kernel_rem_pio2+0x8b2>
 800d35e:	4638      	mov	r0, r7
 800d360:	e77f      	b.n	800d262 <__kernel_rem_pio2+0xc3a>
 800d362:	ec47 6b10 	vmov	d0, r6, r7
 800d366:	9e09      	ldr	r6, [sp, #36]	; 0x24
 800d368:	f8cd 801c 	str.w	r8, [sp, #28]
 800d36c:	4270      	negs	r0, r6
 800d36e:	9506      	str	r5, [sp, #24]
 800d370:	f000 fc2e 	bl	800dbd0 <scalbn>
 800d374:	ec57 6b10 	vmov	r6, r7, d0
 800d378:	2300      	movs	r3, #0
 800d37a:	ee10 0a10 	vmov	r0, s0
 800d37e:	4639      	mov	r1, r7
 800d380:	2200      	movs	r2, #0
 800d382:	f2c4 1370 	movt	r3, #16752	; 0x4170
 800d386:	f7f5 f985 	bl	8002694 <__aeabi_dcmpge>
 800d38a:	2800      	cmp	r0, #0
 800d38c:	d036      	beq.n	800d3fc <__kernel_rem_pio2+0xdd4>
 800d38e:	2300      	movs	r3, #0
 800d390:	2200      	movs	r2, #0
 800d392:	f6c3 6370 	movt	r3, #15984	; 0x3e70
 800d396:	4630      	mov	r0, r6
 800d398:	4639      	mov	r1, r7
 800d39a:	f7f4 fef5 	bl	8002188 <__aeabi_dmul>
 800d39e:	f7f5 f98d 	bl	80026bc <__aeabi_d2iz>
 800d3a2:	f7f4 fe8b 	bl	80020bc <__aeabi_i2d>
 800d3a6:	2300      	movs	r3, #0
 800d3a8:	2200      	movs	r2, #0
 800d3aa:	f2c4 1370 	movt	r3, #16752	; 0x4170
 800d3ae:	4604      	mov	r4, r0
 800d3b0:	460d      	mov	r5, r1
 800d3b2:	f7f4 fee9 	bl	8002188 <__aeabi_dmul>
 800d3b6:	4602      	mov	r2, r0
 800d3b8:	460b      	mov	r3, r1
 800d3ba:	4630      	mov	r0, r6
 800d3bc:	4639      	mov	r1, r7
 800d3be:	f7f4 fd2f 	bl	8001e20 <__aeabi_dsub>
 800d3c2:	f7f5 f97b 	bl	80026bc <__aeabi_d2iz>
 800d3c6:	af0e      	add	r7, sp, #56	; 0x38
 800d3c8:	9e03      	ldr	r6, [sp, #12]
 800d3ca:	4629      	mov	r1, r5
 800d3cc:	f847 0026 	str.w	r0, [r7, r6, lsl #2]
 800d3d0:	4620      	mov	r0, r4
 800d3d2:	f7f5 f973 	bl	80026bc <__aeabi_d2iz>
 800d3d6:	9909      	ldr	r1, [sp, #36]	; 0x24
 800d3d8:	1c73      	adds	r3, r6, #1
 800d3da:	aa0e      	add	r2, sp, #56	; 0x38
 800d3dc:	3118      	adds	r1, #24
 800d3de:	9303      	str	r3, [sp, #12]
 800d3e0:	9109      	str	r1, [sp, #36]	; 0x24
 800d3e2:	f842 0023 	str.w	r0, [r2, r3, lsl #2]
 800d3e6:	e4a7      	b.n	800cd38 <__kernel_rem_pio2+0x710>
 800d3e8:	2000      	movs	r0, #0
 800d3ea:	2100      	movs	r1, #0
 800d3ec:	f7ff b955 	b.w	800c69a <__kernel_rem_pio2+0x72>
 800d3f0:	2000      	movs	r0, #0
 800d3f2:	2100      	movs	r1, #0
 800d3f4:	f7ff b961 	b.w	800c6ba <__kernel_rem_pio2+0x92>
 800d3f8:	9403      	str	r4, [sp, #12]
 800d3fa:	e49d      	b.n	800cd38 <__kernel_rem_pio2+0x710>
 800d3fc:	4639      	mov	r1, r7
 800d3fe:	4630      	mov	r0, r6
 800d400:	f7f5 f95c 	bl	80026bc <__aeabi_d2iz>
 800d404:	af0e      	add	r7, sp, #56	; 0x38
 800d406:	9d03      	ldr	r5, [sp, #12]
 800d408:	f847 0025 	str.w	r0, [r7, r5, lsl #2]
 800d40c:	e494      	b.n	800cd38 <__kernel_rem_pio2+0x710>
 800d40e:	2700      	movs	r7, #0
 800d410:	463e      	mov	r6, r7
 800d412:	e797      	b.n	800d344 <__kernel_rem_pio2+0xd1c>
 800d414:	2200      	movs	r2, #0
 800d416:	4617      	mov	r7, r2
 800d418:	ac4a      	add	r4, sp, #296	; 0x128
 800d41a:	e71d      	b.n	800d258 <__kernel_rem_pio2+0xc30>
 800d41c:	2500      	movs	r5, #0
 800d41e:	a84a      	add	r0, sp, #296	; 0x128
 800d420:	462f      	mov	r7, r5
 800d422:	9005      	str	r0, [sp, #20]
 800d424:	e56e      	b.n	800cf04 <__kernel_rem_pio2+0x8dc>
 800d426:	bf00      	nop

0800d428 <__kernel_sin>:
 800d428:	e92d 4ff0 	stmdb	sp!, {r4, r5, r6, r7, r8, r9, sl, fp, lr}
 800d42c:	ec55 4b10 	vmov	r4, r5, d0
 800d430:	ed2d 8b02 	vpush	{d8}
 800d434:	eeb0 8a41 	vmov.f32	s16, s2
 800d438:	eef0 8a61 	vmov.f32	s17, s3
 800d43c:	f025 4100 	bic.w	r1, r5, #2147483648	; 0x80000000
 800d440:	f1b1 5f79 	cmp.w	r1, #1044381696	; 0x3e400000
 800d444:	b083      	sub	sp, #12
 800d446:	4682      	mov	sl, r0
 800d448:	da06      	bge.n	800d458 <__kernel_sin+0x30>
 800d44a:	ee10 0a10 	vmov	r0, s0
 800d44e:	4629      	mov	r1, r5
 800d450:	f7f5 f934 	bl	80026bc <__aeabi_d2iz>
 800d454:	2800      	cmp	r0, #0
 800d456:	d06e      	beq.n	800d536 <__kernel_sin+0x10e>
 800d458:	4622      	mov	r2, r4
 800d45a:	462b      	mov	r3, r5
 800d45c:	4620      	mov	r0, r4
 800d45e:	4629      	mov	r1, r5
 800d460:	f7f4 fe92 	bl	8002188 <__aeabi_dmul>
 800d464:	4622      	mov	r2, r4
 800d466:	462b      	mov	r3, r5
 800d468:	4606      	mov	r6, r0
 800d46a:	460f      	mov	r7, r1
 800d46c:	f7f4 fe8c 	bl	8002188 <__aeabi_dmul>
 800d470:	a341      	add	r3, pc, #260	; (adr r3, 800d578 <__kernel_sin+0x150>)
 800d472:	e9d3 2300 	ldrd	r2, r3, [r3]
 800d476:	4680      	mov	r8, r0
 800d478:	4689      	mov	r9, r1
 800d47a:	4630      	mov	r0, r6
 800d47c:	4639      	mov	r1, r7
 800d47e:	f7f4 fe83 	bl	8002188 <__aeabi_dmul>
 800d482:	a33f      	add	r3, pc, #252	; (adr r3, 800d580 <__kernel_sin+0x158>)
 800d484:	e9d3 2300 	ldrd	r2, r3, [r3]
 800d488:	f7f4 fcca 	bl	8001e20 <__aeabi_dsub>
 800d48c:	4632      	mov	r2, r6
 800d48e:	463b      	mov	r3, r7
 800d490:	f7f4 fe7a 	bl	8002188 <__aeabi_dmul>
 800d494:	a33c      	add	r3, pc, #240	; (adr r3, 800d588 <__kernel_sin+0x160>)
 800d496:	e9d3 2300 	ldrd	r2, r3, [r3]
 800d49a:	f7f4 fcc3 	bl	8001e24 <__adddf3>
 800d49e:	4632      	mov	r2, r6
 800d4a0:	463b      	mov	r3, r7
 800d4a2:	f7f4 fe71 	bl	8002188 <__aeabi_dmul>
 800d4a6:	a33a      	add	r3, pc, #232	; (adr r3, 800d590 <__kernel_sin+0x168>)
 800d4a8:	e9d3 2300 	ldrd	r2, r3, [r3]
 800d4ac:	f7f4 fcb8 	bl	8001e20 <__aeabi_dsub>
 800d4b0:	4632      	mov	r2, r6
 800d4b2:	463b      	mov	r3, r7
 800d4b4:	f7f4 fe68 	bl	8002188 <__aeabi_dmul>
 800d4b8:	a337      	add	r3, pc, #220	; (adr r3, 800d598 <__kernel_sin+0x170>)
 800d4ba:	e9d3 2300 	ldrd	r2, r3, [r3]
 800d4be:	f7f4 fcb1 	bl	8001e24 <__adddf3>
 800d4c2:	e9cd 0100 	strd	r0, r1, [sp]
 800d4c6:	f1ba 0f00 	cmp.w	sl, #0
 800d4ca:	d03b      	beq.n	800d544 <__kernel_sin+0x11c>
 800d4cc:	2300      	movs	r3, #0
 800d4ce:	2200      	movs	r2, #0
 800d4d0:	f6c3 73e0 	movt	r3, #16352	; 0x3fe0
 800d4d4:	ec51 0b18 	vmov	r0, r1, d8
 800d4d8:	f7f4 fe56 	bl	8002188 <__aeabi_dmul>
 800d4dc:	e9dd 2300 	ldrd	r2, r3, [sp]
 800d4e0:	4682      	mov	sl, r0
 800d4e2:	468b      	mov	fp, r1
 800d4e4:	4640      	mov	r0, r8
 800d4e6:	4649      	mov	r1, r9
 800d4e8:	f7f4 fe4e 	bl	8002188 <__aeabi_dmul>
 800d4ec:	4602      	mov	r2, r0
 800d4ee:	460b      	mov	r3, r1
 800d4f0:	4650      	mov	r0, sl
 800d4f2:	4659      	mov	r1, fp
 800d4f4:	f7f4 fc94 	bl	8001e20 <__aeabi_dsub>
 800d4f8:	4632      	mov	r2, r6
 800d4fa:	463b      	mov	r3, r7
 800d4fc:	f7f4 fe44 	bl	8002188 <__aeabi_dmul>
 800d500:	ec53 2b18 	vmov	r2, r3, d8
 800d504:	f7f4 fc8c 	bl	8001e20 <__aeabi_dsub>
 800d508:	a325      	add	r3, pc, #148	; (adr r3, 800d5a0 <__kernel_sin+0x178>)
 800d50a:	e9d3 2300 	ldrd	r2, r3, [r3]
 800d50e:	4606      	mov	r6, r0
 800d510:	460f      	mov	r7, r1
 800d512:	4640      	mov	r0, r8
 800d514:	4649      	mov	r1, r9
 800d516:	f7f4 fe37 	bl	8002188 <__aeabi_dmul>
 800d51a:	4602      	mov	r2, r0
 800d51c:	460b      	mov	r3, r1
 800d51e:	4630      	mov	r0, r6
 800d520:	4639      	mov	r1, r7
 800d522:	f7f4 fc7f 	bl	8001e24 <__adddf3>
 800d526:	4602      	mov	r2, r0
 800d528:	460b      	mov	r3, r1
 800d52a:	4620      	mov	r0, r4
 800d52c:	4629      	mov	r1, r5
 800d52e:	f7f4 fc77 	bl	8001e20 <__aeabi_dsub>
 800d532:	4604      	mov	r4, r0
 800d534:	460d      	mov	r5, r1
 800d536:	ec45 4b10 	vmov	d0, r4, r5
 800d53a:	b003      	add	sp, #12
 800d53c:	ecbd 8b02 	vpop	{d8}
 800d540:	e8bd 8ff0 	ldmia.w	sp!, {r4, r5, r6, r7, r8, r9, sl, fp, pc}
 800d544:	4602      	mov	r2, r0
 800d546:	460b      	mov	r3, r1
 800d548:	4630      	mov	r0, r6
 800d54a:	4639      	mov	r1, r7
 800d54c:	f7f4 fe1c 	bl	8002188 <__aeabi_dmul>
 800d550:	a313      	add	r3, pc, #76	; (adr r3, 800d5a0 <__kernel_sin+0x178>)
 800d552:	e9d3 2300 	ldrd	r2, r3, [r3]
 800d556:	f7f4 fc63 	bl	8001e20 <__aeabi_dsub>
 800d55a:	4642      	mov	r2, r8
 800d55c:	464b      	mov	r3, r9
 800d55e:	f7f4 fe13 	bl	8002188 <__aeabi_dmul>
 800d562:	4602      	mov	r2, r0
 800d564:	460b      	mov	r3, r1
 800d566:	4620      	mov	r0, r4
 800d568:	4629      	mov	r1, r5
 800d56a:	f7f4 fc5b 	bl	8001e24 <__adddf3>
 800d56e:	4604      	mov	r4, r0
 800d570:	460d      	mov	r5, r1
 800d572:	e7e0      	b.n	800d536 <__kernel_sin+0x10e>
 800d574:	f3af 8000 	nop.w
 800d578:	5acfd57c 	.word	0x5acfd57c
 800d57c:	3de5d93a 	.word	0x3de5d93a
 800d580:	8a2b9ceb 	.word	0x8a2b9ceb
 800d584:	3e5ae5e6 	.word	0x3e5ae5e6
 800d588:	57b1fe7d 	.word	0x57b1fe7d
 800d58c:	3ec71de3 	.word	0x3ec71de3
 800d590:	19c161d5 	.word	0x19c161d5
 800d594:	3f2a01a0 	.word	0x3f2a01a0
 800d598:	1110f8a6 	.word	0x1110f8a6
 800d59c:	3f811111 	.word	0x3f811111
 800d5a0:	55555549 	.word	0x55555549
 800d5a4:	3fc55555 	.word	0x3fc55555

0800d5a8 <atan>:
 800d5a8:	e92d 4ff8 	stmdb	sp!, {r3, r4, r5, r6, r7, r8, r9, sl, fp, lr}
 800d5ac:	ee10 8a90 	vmov	r8, s1
 800d5b0:	f64f 73ff 	movw	r3, #65535	; 0xffff
 800d5b4:	f028 4600 	bic.w	r6, r8, #2147483648	; 0x80000000
 800d5b8:	f2c4 430f 	movt	r3, #17423	; 0x440f
 800d5bc:	429e      	cmp	r6, r3
 800d5be:	ee10 aa90 	vmov	sl, s1
 800d5c2:	ee10 9a10 	vmov	r9, s0
 800d5c6:	dd1e      	ble.n	800d606 <atan+0x5e>
 800d5c8:	2100      	movs	r1, #0
 800d5ca:	f6c7 71f0 	movt	r1, #32752	; 0x7ff0
 800d5ce:	428e      	cmp	r6, r1
 800d5d0:	ee10 3a10 	vmov	r3, s0
 800d5d4:	f300 80c0 	bgt.w	800d758 <atan+0x1b0>
 800d5d8:	f000 80bb 	beq.w	800d752 <atan+0x1aa>
 800d5dc:	f242 18fb 	movw	r8, #8699	; 0x21fb
 800d5e0:	4640      	mov	r0, r8
 800d5e2:	f642 5918 	movw	r9, #11544	; 0x2d18
 800d5e6:	f6cb 78f9 	movt	r8, #49145	; 0xbff9
 800d5ea:	f6c3 70f9 	movt	r0, #16377	; 0x3ff9
 800d5ee:	f2c5 4944 	movt	r9, #21572	; 0x5444
 800d5f2:	f1ba 0f00 	cmp.w	sl, #0
 800d5f6:	bfc8      	it	gt
 800d5f8:	4680      	movgt	r8, r0
 800d5fa:	464a      	mov	r2, r9
 800d5fc:	4643      	mov	r3, r8
 800d5fe:	ec43 2b10 	vmov	d0, r2, r3
 800d602:	e8bd 8ff8 	ldmia.w	sp!, {r3, r4, r5, r6, r7, r8, r9, sl, fp, pc}
 800d606:	f64f 70ff 	movw	r0, #65535	; 0xffff
 800d60a:	f6c3 70db 	movt	r0, #16347	; 0x3fdb
 800d60e:	4286      	cmp	r6, r0
 800d610:	f300 80be 	bgt.w	800d790 <atan+0x1e8>
 800d614:	f64f 70ff 	movw	r0, #65535	; 0xffff
 800d618:	f6c3 601f 	movt	r0, #15903	; 0x3e1f
 800d61c:	4286      	cmp	r6, r0
 800d61e:	f340 80a4 	ble.w	800d76a <atan+0x1c2>
 800d622:	f04f 3bff 	mov.w	fp, #4294967295
 800d626:	464a      	mov	r2, r9
 800d628:	4643      	mov	r3, r8
 800d62a:	4648      	mov	r0, r9
 800d62c:	4641      	mov	r1, r8
 800d62e:	f7f4 fdab 	bl	8002188 <__aeabi_dmul>
 800d632:	4602      	mov	r2, r0
 800d634:	460b      	mov	r3, r1
 800d636:	4606      	mov	r6, r0
 800d638:	460f      	mov	r7, r1
 800d63a:	f7f4 fda5 	bl	8002188 <__aeabi_dmul>
 800d63e:	a3aa      	add	r3, pc, #680	; (adr r3, 800d8e8 <atan+0x340>)
 800d640:	e9d3 2300 	ldrd	r2, r3, [r3]
 800d644:	4604      	mov	r4, r0
 800d646:	460d      	mov	r5, r1
 800d648:	f7f4 fd9e 	bl	8002188 <__aeabi_dmul>
 800d64c:	a3a8      	add	r3, pc, #672	; (adr r3, 800d8f0 <atan+0x348>)
 800d64e:	e9d3 2300 	ldrd	r2, r3, [r3]
 800d652:	f7f4 fbe7 	bl	8001e24 <__adddf3>
 800d656:	4622      	mov	r2, r4
 800d658:	462b      	mov	r3, r5
 800d65a:	f7f4 fd95 	bl	8002188 <__aeabi_dmul>
 800d65e:	a3a6      	add	r3, pc, #664	; (adr r3, 800d8f8 <atan+0x350>)
 800d660:	e9d3 2300 	ldrd	r2, r3, [r3]
 800d664:	f7f4 fbde 	bl	8001e24 <__adddf3>
 800d668:	4622      	mov	r2, r4
 800d66a:	462b      	mov	r3, r5
 800d66c:	f7f4 fd8c 	bl	8002188 <__aeabi_dmul>
 800d670:	a3a3      	add	r3, pc, #652	; (adr r3, 800d900 <atan+0x358>)
 800d672:	e9d3 2300 	ldrd	r2, r3, [r3]
 800d676:	f7f4 fbd5 	bl	8001e24 <__adddf3>
 800d67a:	4622      	mov	r2, r4
 800d67c:	462b      	mov	r3, r5
 800d67e:	f7f4 fd83 	bl	8002188 <__aeabi_dmul>
 800d682:	a3a1      	add	r3, pc, #644	; (adr r3, 800d908 <atan+0x360>)
 800d684:	e9d3 2300 	ldrd	r2, r3, [r3]
 800d688:	f7f4 fbcc 	bl	8001e24 <__adddf3>
 800d68c:	4622      	mov	r2, r4
 800d68e:	462b      	mov	r3, r5
 800d690:	f7f4 fd7a 	bl	8002188 <__aeabi_dmul>
 800d694:	a39e      	add	r3, pc, #632	; (adr r3, 800d910 <atan+0x368>)
 800d696:	e9d3 2300 	ldrd	r2, r3, [r3]
 800d69a:	f7f4 fbc3 	bl	8001e24 <__adddf3>
 800d69e:	4632      	mov	r2, r6
 800d6a0:	463b      	mov	r3, r7
 800d6a2:	f7f4 fd71 	bl	8002188 <__aeabi_dmul>
 800d6a6:	a39c      	add	r3, pc, #624	; (adr r3, 800d918 <atan+0x370>)
 800d6a8:	e9d3 2300 	ldrd	r2, r3, [r3]
 800d6ac:	4606      	mov	r6, r0
 800d6ae:	460f      	mov	r7, r1
 800d6b0:	4620      	mov	r0, r4
 800d6b2:	4629      	mov	r1, r5
 800d6b4:	f7f4 fd68 	bl	8002188 <__aeabi_dmul>
 800d6b8:	a399      	add	r3, pc, #612	; (adr r3, 800d920 <atan+0x378>)
 800d6ba:	e9d3 2300 	ldrd	r2, r3, [r3]
 800d6be:	f7f4 fbaf 	bl	8001e20 <__aeabi_dsub>
 800d6c2:	4622      	mov	r2, r4
 800d6c4:	462b      	mov	r3, r5
 800d6c6:	f7f4 fd5f 	bl	8002188 <__aeabi_dmul>
 800d6ca:	a397      	add	r3, pc, #604	; (adr r3, 800d928 <atan+0x380>)
 800d6cc:	e9d3 2300 	ldrd	r2, r3, [r3]
 800d6d0:	f7f4 fba6 	bl	8001e20 <__aeabi_dsub>
 800d6d4:	4622      	mov	r2, r4
 800d6d6:	462b      	mov	r3, r5
 800d6d8:	f7f4 fd56 	bl	8002188 <__aeabi_dmul>
 800d6dc:	a394      	add	r3, pc, #592	; (adr r3, 800d930 <atan+0x388>)
 800d6de:	e9d3 2300 	ldrd	r2, r3, [r3]
 800d6e2:	f7f4 fb9d 	bl	8001e20 <__aeabi_dsub>
 800d6e6:	4622      	mov	r2, r4
 800d6e8:	462b      	mov	r3, r5
 800d6ea:	f7f4 fd4d 	bl	8002188 <__aeabi_dmul>
 800d6ee:	a392      	add	r3, pc, #584	; (adr r3, 800d938 <atan+0x390>)
 800d6f0:	e9d3 2300 	ldrd	r2, r3, [r3]
 800d6f4:	f7f4 fb94 	bl	8001e20 <__aeabi_dsub>
 800d6f8:	4622      	mov	r2, r4
 800d6fa:	462b      	mov	r3, r5
 800d6fc:	f7f4 fd44 	bl	8002188 <__aeabi_dmul>
 800d700:	f1bb 3fff 	cmp.w	fp, #4294967295
 800d704:	4602      	mov	r2, r0
 800d706:	460b      	mov	r3, r1
 800d708:	d07a      	beq.n	800d800 <atan+0x258>
 800d70a:	4630      	mov	r0, r6
 800d70c:	4639      	mov	r1, r7
 800d70e:	f7f4 fb89 	bl	8001e24 <__adddf3>
 800d712:	4643      	mov	r3, r8
 800d714:	464a      	mov	r2, r9
 800d716:	f7f4 fd37 	bl	8002188 <__aeabi_dmul>
 800d71a:	4c71      	ldr	r4, [pc, #452]	; (800d8e0 <atan+0x338>)
 800d71c:	4a71      	ldr	r2, [pc, #452]	; (800d8e4 <atan+0x33c>)
 800d71e:	ea4f 0bcb 	mov.w	fp, fp, lsl #3
 800d722:	445c      	add	r4, fp
 800d724:	4493      	add	fp, r2
 800d726:	e9db 2300 	ldrd	r2, r3, [fp]
 800d72a:	f7f4 fb79 	bl	8001e20 <__aeabi_dsub>
 800d72e:	4643      	mov	r3, r8
 800d730:	464a      	mov	r2, r9
 800d732:	f7f4 fb75 	bl	8001e20 <__aeabi_dsub>
 800d736:	4602      	mov	r2, r0
 800d738:	460b      	mov	r3, r1
 800d73a:	e9d4 0100 	ldrd	r0, r1, [r4]
 800d73e:	f7f4 fb6f 	bl	8001e20 <__aeabi_dsub>
 800d742:	f1ba 0f00 	cmp.w	sl, #0
 800d746:	4681      	mov	r9, r0
 800d748:	bfb4      	ite	lt
 800d74a:	f101 4800 	addlt.w	r8, r1, #2147483648	; 0x80000000
 800d74e:	4688      	movge	r8, r1
 800d750:	e753      	b.n	800d5fa <atan+0x52>
 800d752:	2b00      	cmp	r3, #0
 800d754:	f43f af42 	beq.w	800d5dc <atan+0x34>
 800d758:	4648      	mov	r0, r9
 800d75a:	464a      	mov	r2, r9
 800d75c:	4641      	mov	r1, r8
 800d75e:	4643      	mov	r3, r8
 800d760:	f7f4 fb60 	bl	8001e24 <__adddf3>
 800d764:	4681      	mov	r9, r0
 800d766:	4688      	mov	r8, r1
 800d768:	e747      	b.n	800d5fa <atan+0x52>
 800d76a:	a35b      	add	r3, pc, #364	; (adr r3, 800d8d8 <atan+0x330>)
 800d76c:	e9d3 2300 	ldrd	r2, r3, [r3]
 800d770:	ee10 0a10 	vmov	r0, s0
 800d774:	ee10 1a90 	vmov	r1, s1
 800d778:	f7f4 fb54 	bl	8001e24 <__adddf3>
 800d77c:	2300      	movs	r3, #0
 800d77e:	2200      	movs	r2, #0
 800d780:	f6c3 73f0 	movt	r3, #16368	; 0x3ff0
 800d784:	f7f4 ff90 	bl	80026a8 <__aeabi_dcmpgt>
 800d788:	2800      	cmp	r0, #0
 800d78a:	f47f af36 	bne.w	800d5fa <atan+0x52>
 800d78e:	e748      	b.n	800d622 <atan+0x7a>
 800d790:	ee10 2a10 	vmov	r2, s0
 800d794:	ee10 3a90 	vmov	r3, s1
 800d798:	ec43 2b10 	vmov	d0, r2, r3
 800d79c:	f000 f8d0 	bl	800d940 <fabs>
 800d7a0:	f64f 71ff 	movw	r1, #65535	; 0xffff
 800d7a4:	f6c3 71f2 	movt	r1, #16370	; 0x3ff2
 800d7a8:	428e      	cmp	r6, r1
 800d7aa:	ec55 4b10 	vmov	r4, r5, d0
 800d7ae:	dc3a      	bgt.n	800d826 <atan+0x27e>
 800d7b0:	f64f 73ff 	movw	r3, #65535	; 0xffff
 800d7b4:	f6c3 73e5 	movt	r3, #16357	; 0x3fe5
 800d7b8:	429e      	cmp	r6, r3
 800d7ba:	dc6c      	bgt.n	800d896 <atan+0x2ee>
 800d7bc:	ee10 2a10 	vmov	r2, s0
 800d7c0:	ee10 0a10 	vmov	r0, s0
 800d7c4:	462b      	mov	r3, r5
 800d7c6:	4629      	mov	r1, r5
 800d7c8:	f7f4 fb2c 	bl	8001e24 <__adddf3>
 800d7cc:	2300      	movs	r3, #0
 800d7ce:	2200      	movs	r2, #0
 800d7d0:	f6c3 73f0 	movt	r3, #16368	; 0x3ff0
 800d7d4:	f7f4 fb24 	bl	8001e20 <__aeabi_dsub>
 800d7d8:	2200      	movs	r2, #0
 800d7da:	4606      	mov	r6, r0
 800d7dc:	460f      	mov	r7, r1
 800d7de:	f04f 4380 	mov.w	r3, #1073741824	; 0x40000000
 800d7e2:	4620      	mov	r0, r4
 800d7e4:	4629      	mov	r1, r5
 800d7e6:	f7f4 fb1d 	bl	8001e24 <__adddf3>
 800d7ea:	4602      	mov	r2, r0
 800d7ec:	460b      	mov	r3, r1
 800d7ee:	4630      	mov	r0, r6
 800d7f0:	4639      	mov	r1, r7
 800d7f2:	f7f4 fdf3 	bl	80023dc <__aeabi_ddiv>
 800d7f6:	f04f 0b00 	mov.w	fp, #0
 800d7fa:	4681      	mov	r9, r0
 800d7fc:	4688      	mov	r8, r1
 800d7fe:	e712      	b.n	800d626 <atan+0x7e>
 800d800:	4630      	mov	r0, r6
 800d802:	4639      	mov	r1, r7
 800d804:	f7f4 fb0e 	bl	8001e24 <__adddf3>
 800d808:	464a      	mov	r2, r9
 800d80a:	4643      	mov	r3, r8
 800d80c:	f7f4 fcbc 	bl	8002188 <__aeabi_dmul>
 800d810:	4602      	mov	r2, r0
 800d812:	460b      	mov	r3, r1
 800d814:	4648      	mov	r0, r9
 800d816:	4641      	mov	r1, r8
 800d818:	f7f4 fb02 	bl	8001e20 <__aeabi_dsub>
 800d81c:	464c      	mov	r4, r9
 800d81e:	4645      	mov	r5, r8
 800d820:	4681      	mov	r9, r0
 800d822:	4688      	mov	r8, r1
 800d824:	e6e9      	b.n	800d5fa <atan+0x52>
 800d826:	f647 72ff 	movw	r2, #32767	; 0x7fff
 800d82a:	f2c4 0203 	movt	r2, #16387	; 0x4003
 800d82e:	4296      	cmp	r6, r2
 800d830:	dc23      	bgt.n	800d87a <atan+0x2d2>
 800d832:	2300      	movs	r3, #0
 800d834:	ee10 0a10 	vmov	r0, s0
 800d838:	2200      	movs	r2, #0
 800d83a:	f6c3 73f8 	movt	r3, #16376	; 0x3ff8
 800d83e:	4629      	mov	r1, r5
 800d840:	f7f4 faee 	bl	8001e20 <__aeabi_dsub>
 800d844:	2300      	movs	r3, #0
 800d846:	4606      	mov	r6, r0
 800d848:	460f      	mov	r7, r1
 800d84a:	2200      	movs	r2, #0
 800d84c:	f6c3 73f8 	movt	r3, #16376	; 0x3ff8
 800d850:	4620      	mov	r0, r4
 800d852:	4629      	mov	r1, r5
 800d854:	f7f4 fc98 	bl	8002188 <__aeabi_dmul>
 800d858:	2300      	movs	r3, #0
 800d85a:	2200      	movs	r2, #0
 800d85c:	f6c3 73f0 	movt	r3, #16368	; 0x3ff0
 800d860:	f7f4 fae0 	bl	8001e24 <__adddf3>
 800d864:	4602      	mov	r2, r0
 800d866:	460b      	mov	r3, r1
 800d868:	4630      	mov	r0, r6
 800d86a:	4639      	mov	r1, r7
 800d86c:	f7f4 fdb6 	bl	80023dc <__aeabi_ddiv>
 800d870:	f04f 0b02 	mov.w	fp, #2
 800d874:	4681      	mov	r9, r0
 800d876:	4688      	mov	r8, r1
 800d878:	e6d5      	b.n	800d626 <atan+0x7e>
 800d87a:	2100      	movs	r1, #0
 800d87c:	2000      	movs	r0, #0
 800d87e:	f6cb 71f0 	movt	r1, #49136	; 0xbff0
 800d882:	ee10 2a10 	vmov	r2, s0
 800d886:	462b      	mov	r3, r5
 800d888:	f7f4 fda8 	bl	80023dc <__aeabi_ddiv>
 800d88c:	f04f 0b03 	mov.w	fp, #3
 800d890:	4681      	mov	r9, r0
 800d892:	4688      	mov	r8, r1
 800d894:	e6c7      	b.n	800d626 <atan+0x7e>
 800d896:	2300      	movs	r3, #0
 800d898:	ee10 0a10 	vmov	r0, s0
 800d89c:	2200      	movs	r2, #0
 800d89e:	f6c3 73f0 	movt	r3, #16368	; 0x3ff0
 800d8a2:	4629      	mov	r1, r5
 800d8a4:	f7f4 fabc 	bl	8001e20 <__aeabi_dsub>
 800d8a8:	2300      	movs	r3, #0
 800d8aa:	4606      	mov	r6, r0
 800d8ac:	460f      	mov	r7, r1
 800d8ae:	2200      	movs	r2, #0
 800d8b0:	f6c3 73f0 	movt	r3, #16368	; 0x3ff0
 800d8b4:	4620      	mov	r0, r4
 800d8b6:	4629      	mov	r1, r5
 800d8b8:	f7f4 fab4 	bl	8001e24 <__adddf3>
 800d8bc:	4602      	mov	r2, r0
 800d8be:	460b      	mov	r3, r1
 800d8c0:	4630      	mov	r0, r6
 800d8c2:	4639      	mov	r1, r7
 800d8c4:	f7f4 fd8a 	bl	80023dc <__aeabi_ddiv>
 800d8c8:	f04f 0b01 	mov.w	fp, #1
 800d8cc:	4681      	mov	r9, r0
 800d8ce:	4688      	mov	r8, r1
 800d8d0:	e6a9      	b.n	800d626 <atan+0x7e>
 800d8d2:	bf00      	nop
 800d8d4:	f3af 8000 	nop.w
 800d8d8:	8800759c 	.word	0x8800759c
 800d8dc:	7e37e43c 	.word	0x7e37e43c
 800d8e0:	0800e568 	.word	0x0800e568
 800d8e4:	0800e548 	.word	0x0800e548
 800d8e8:	e322da11 	.word	0xe322da11
 800d8ec:	3f90ad3a 	.word	0x3f90ad3a
 800d8f0:	24760deb 	.word	0x24760deb
 800d8f4:	3fa97b4b 	.word	0x3fa97b4b
 800d8f8:	a0d03d51 	.word	0xa0d03d51
 800d8fc:	3fb10d66 	.word	0x3fb10d66
 800d900:	c54c206e 	.word	0xc54c206e
 800d904:	3fb745cd 	.word	0x3fb745cd
 800d908:	920083ff 	.word	0x920083ff
 800d90c:	3fc24924 	.word	0x3fc24924
 800d910:	5555550d 	.word	0x5555550d
 800d914:	3fd55555 	.word	0x3fd55555
 800d918:	2c6a6c2f 	.word	0x2c6a6c2f
 800d91c:	bfa2b444 	.word	0xbfa2b444
 800d920:	52defd9a 	.word	0x52defd9a
 800d924:	3fadde2d 	.word	0x3fadde2d
 800d928:	af749a6d 	.word	0xaf749a6d
 800d92c:	3fb3b0f2 	.word	0x3fb3b0f2
 800d930:	fe231671 	.word	0xfe231671
 800d934:	3fbc71c6 	.word	0x3fbc71c6
 800d938:	9998ebc4 	.word	0x9998ebc4
 800d93c:	3fc99999 	.word	0x3fc99999

0800d940 <fabs>:
 800d940:	ec51 0b10 	vmov	r0, r1, d0
 800d944:	ec53 2b10 	vmov	r2, r3, d0
 800d948:	f021 4300 	bic.w	r3, r1, #2147483648	; 0x80000000
 800d94c:	ec43 2b10 	vmov	d0, r2, r3
 800d950:	4770      	bx	lr
 800d952:	bf00      	nop

0800d954 <finite>:
 800d954:	ec53 2b10 	vmov	r2, r3, d0
 800d958:	f043 4000 	orr.w	r0, r3, #2147483648	; 0x80000000
 800d95c:	f500 1180 	add.w	r1, r0, #1048576	; 0x100000
 800d960:	0fc8      	lsrs	r0, r1, #31
 800d962:	4770      	bx	lr
 800d964:	0000      	movs	r0, r0
	...

0800d968 <floor>:
 800d968:	e92d 43f8 	stmdb	sp!, {r3, r4, r5, r6, r7, r8, r9, lr}
 800d96c:	ec53 2b10 	vmov	r2, r3, d0
 800d970:	f3c3 570a 	ubfx	r7, r3, #20, #11
 800d974:	f2a7 34ff 	subw	r4, r7, #1023	; 0x3ff
 800d978:	2c13      	cmp	r4, #19
 800d97a:	461d      	mov	r5, r3
 800d97c:	4698      	mov	r8, r3
 800d97e:	ee10 6a10 	vmov	r6, s0
 800d982:	dc23      	bgt.n	800d9cc <floor+0x64>
 800d984:	2c00      	cmp	r4, #0
 800d986:	db4f      	blt.n	800da28 <floor+0xc0>
 800d988:	f64f 71ff 	movw	r1, #65535	; 0xffff
 800d98c:	f2c0 010f 	movt	r1, #15
 800d990:	fa41 f704 	asr.w	r7, r1, r4
 800d994:	ea07 0203 	and.w	r2, r7, r3
 800d998:	ea52 0306 	orrs.w	r3, r2, r6
 800d99c:	d014      	beq.n	800d9c8 <floor+0x60>
 800d99e:	a33c      	add	r3, pc, #240	; (adr r3, 800da90 <floor+0x128>)
 800d9a0:	e9d3 2300 	ldrd	r2, r3, [r3]
 800d9a4:	ec51 0b10 	vmov	r0, r1, d0
 800d9a8:	f7f4 fa3c 	bl	8001e24 <__adddf3>
 800d9ac:	2200      	movs	r2, #0
 800d9ae:	2300      	movs	r3, #0
 800d9b0:	f7f4 fe7a 	bl	80026a8 <__aeabi_dcmpgt>
 800d9b4:	b120      	cbz	r0, 800d9c0 <floor+0x58>
 800d9b6:	2d00      	cmp	r5, #0
 800d9b8:	db48      	blt.n	800da4c <floor+0xe4>
 800d9ba:	ea28 0507 	bic.w	r5, r8, r7
 800d9be:	2600      	movs	r6, #0
 800d9c0:	4629      	mov	r1, r5
 800d9c2:	4630      	mov	r0, r6
 800d9c4:	ec41 0b10 	vmov	d0, r0, r1
 800d9c8:	e8bd 83f8 	ldmia.w	sp!, {r3, r4, r5, r6, r7, r8, r9, pc}
 800d9cc:	2c33      	cmp	r4, #51	; 0x33
 800d9ce:	dd0b      	ble.n	800d9e8 <floor+0x80>
 800d9d0:	f5b4 6f80 	cmp.w	r4, #1024	; 0x400
 800d9d4:	d1f8      	bne.n	800d9c8 <floor+0x60>
 800d9d6:	ec51 0b10 	vmov	r0, r1, d0
 800d9da:	460b      	mov	r3, r1
 800d9dc:	f7f4 fa22 	bl	8001e24 <__adddf3>
 800d9e0:	ec41 0b10 	vmov	d0, r0, r1
 800d9e4:	e8bd 83f8 	ldmia.w	sp!, {r3, r4, r5, r6, r7, r8, r9, pc}
 800d9e8:	f2a7 4313 	subw	r3, r7, #1043	; 0x413
 800d9ec:	f04f 39ff 	mov.w	r9, #4294967295
 800d9f0:	fa29 f903 	lsr.w	r9, r9, r3
 800d9f4:	ea19 0f06 	tst.w	r9, r6
 800d9f8:	d0e6      	beq.n	800d9c8 <floor+0x60>
 800d9fa:	a325      	add	r3, pc, #148	; (adr r3, 800da90 <floor+0x128>)
 800d9fc:	e9d3 2300 	ldrd	r2, r3, [r3]
 800da00:	ec51 0b10 	vmov	r0, r1, d0
 800da04:	f7f4 fa0e 	bl	8001e24 <__adddf3>
 800da08:	2200      	movs	r2, #0
 800da0a:	2300      	movs	r3, #0
 800da0c:	f7f4 fe4c 	bl	80026a8 <__aeabi_dcmpgt>
 800da10:	2800      	cmp	r0, #0
 800da12:	d0d5      	beq.n	800d9c0 <floor+0x58>
 800da14:	2d00      	cmp	r5, #0
 800da16:	db1f      	blt.n	800da58 <floor+0xf0>
 800da18:	ea26 0609 	bic.w	r6, r6, r9
 800da1c:	4645      	mov	r5, r8
 800da1e:	4629      	mov	r1, r5
 800da20:	4630      	mov	r0, r6
 800da22:	ec41 0b10 	vmov	d0, r0, r1
 800da26:	e7cf      	b.n	800d9c8 <floor+0x60>
 800da28:	a319      	add	r3, pc, #100	; (adr r3, 800da90 <floor+0x128>)
 800da2a:	e9d3 2300 	ldrd	r2, r3, [r3]
 800da2e:	ec51 0b10 	vmov	r0, r1, d0
 800da32:	f7f4 f9f7 	bl	8001e24 <__adddf3>
 800da36:	2200      	movs	r2, #0
 800da38:	2300      	movs	r3, #0
 800da3a:	f7f4 fe35 	bl	80026a8 <__aeabi_dcmpgt>
 800da3e:	2800      	cmp	r0, #0
 800da40:	d0be      	beq.n	800d9c0 <floor+0x58>
 800da42:	2d00      	cmp	r5, #0
 800da44:	db15      	blt.n	800da72 <floor+0x10a>
 800da46:	2600      	movs	r6, #0
 800da48:	4635      	mov	r5, r6
 800da4a:	e7b9      	b.n	800d9c0 <floor+0x58>
 800da4c:	f44f 1580 	mov.w	r5, #1048576	; 0x100000
 800da50:	fa45 f404 	asr.w	r4, r5, r4
 800da54:	44a0      	add	r8, r4
 800da56:	e7b0      	b.n	800d9ba <floor+0x52>
 800da58:	2c14      	cmp	r4, #20
 800da5a:	d007      	beq.n	800da6c <floor+0x104>
 800da5c:	f5c7 6786 	rsb	r7, r7, #1072	; 0x430
 800da60:	3703      	adds	r7, #3
 800da62:	2001      	movs	r0, #1
 800da64:	fa00 f007 	lsl.w	r0, r0, r7
 800da68:	1986      	adds	r6, r0, r6
 800da6a:	d3d5      	bcc.n	800da18 <floor+0xb0>
 800da6c:	f108 0801 	add.w	r8, r8, #1
 800da70:	e7d2      	b.n	800da18 <floor+0xb0>
 800da72:	f025 4000 	bic.w	r0, r5, #2147483648	; 0x80000000
 800da76:	4330      	orrs	r0, r6
 800da78:	2300      	movs	r3, #0
 800da7a:	4298      	cmp	r0, r3
 800da7c:	f6cb 73f0 	movt	r3, #49136	; 0xbff0
 800da80:	bf18      	it	ne
 800da82:	2600      	movne	r6, #0
 800da84:	bf18      	it	ne
 800da86:	461d      	movne	r5, r3
 800da88:	e79a      	b.n	800d9c0 <floor+0x58>
 800da8a:	bf00      	nop
 800da8c:	f3af 8000 	nop.w
 800da90:	8800759c 	.word	0x8800759c
 800da94:	7e37e43c 	.word	0x7e37e43c

0800da98 <matherr>:
 800da98:	2000      	movs	r0, #0
 800da9a:	4770      	bx	lr
 800da9c:	0000      	movs	r0, r0
	...

0800daa0 <nan>:
 800daa0:	ed9f 0b01 	vldr	d0, [pc, #4]	; 800daa8 <nan+0x8>
 800daa4:	4770      	bx	lr
 800daa6:	bf00      	nop
 800daa8:	00000000 	.word	0x00000000
 800daac:	7ff80000 	.word	0x7ff80000

0800dab0 <rint>:
 800dab0:	b5f0      	push	{r4, r5, r6, r7, lr}
 800dab2:	ec53 2b10 	vmov	r2, r3, d0
 800dab6:	f3c3 540a 	ubfx	r4, r3, #20, #11
 800daba:	f2a4 31ff 	subw	r1, r4, #1023	; 0x3ff
 800dabe:	0fde      	lsrs	r6, r3, #31
 800dac0:	2913      	cmp	r1, #19
 800dac2:	b083      	sub	sp, #12
 800dac4:	4618      	mov	r0, r3
 800dac6:	dc34      	bgt.n	800db32 <rint+0x82>
 800dac8:	2900      	cmp	r1, #0
 800daca:	db52      	blt.n	800db72 <rint+0xc2>
 800dacc:	f64f 70ff 	movw	r0, #65535	; 0xffff
 800dad0:	f2c0 000f 	movt	r0, #15
 800dad4:	fa40 f001 	asr.w	r0, r0, r1
 800dad8:	ea00 0403 	and.w	r4, r0, r3
 800dadc:	4314      	orrs	r4, r2
 800dade:	d026      	beq.n	800db2e <rint+0x7e>
 800dae0:	0845      	lsrs	r5, r0, #1
 800dae2:	ea05 0703 	and.w	r7, r5, r3
 800dae6:	433a      	orrs	r2, r7
 800dae8:	d00b      	beq.n	800db02 <rint+0x52>
 800daea:	f44f 2080 	mov.w	r0, #262144	; 0x40000
 800daee:	ea23 0305 	bic.w	r3, r3, r5
 800daf2:	fa40 f001 	asr.w	r0, r0, r1
 800daf6:	2913      	cmp	r1, #19
 800daf8:	bf0c      	ite	eq
 800dafa:	f04f 4200 	moveq.w	r2, #2147483648	; 0x80000000
 800dafe:	2200      	movne	r2, #0
 800db00:	4303      	orrs	r3, r0
 800db02:	461d      	mov	r5, r3
 800db04:	4b31      	ldr	r3, [pc, #196]	; (800dbcc <rint+0x11c>)
 800db06:	eb03 06c6 	add.w	r6, r3, r6, lsl #3
 800db0a:	e9d6 6700 	ldrd	r6, r7, [r6]
 800db0e:	462b      	mov	r3, r5
 800db10:	4630      	mov	r0, r6
 800db12:	4639      	mov	r1, r7
 800db14:	4614      	mov	r4, r2
 800db16:	f7f4 f985 	bl	8001e24 <__adddf3>
 800db1a:	e9cd 0100 	strd	r0, r1, [sp]
 800db1e:	e9dd 0100 	ldrd	r0, r1, [sp]
 800db22:	4632      	mov	r2, r6
 800db24:	463b      	mov	r3, r7
 800db26:	f7f4 f97b 	bl	8001e20 <__aeabi_dsub>
 800db2a:	ec41 0b10 	vmov	d0, r0, r1
 800db2e:	b003      	add	sp, #12
 800db30:	bdf0      	pop	{r4, r5, r6, r7, pc}
 800db32:	2933      	cmp	r1, #51	; 0x33
 800db34:	dd0a      	ble.n	800db4c <rint+0x9c>
 800db36:	f5b1 6f80 	cmp.w	r1, #1024	; 0x400
 800db3a:	d1f8      	bne.n	800db2e <rint+0x7e>
 800db3c:	ec51 0b10 	vmov	r0, r1, d0
 800db40:	460b      	mov	r3, r1
 800db42:	f7f4 f96f 	bl	8001e24 <__adddf3>
 800db46:	ec41 0b10 	vmov	d0, r0, r1
 800db4a:	e7f0      	b.n	800db2e <rint+0x7e>
 800db4c:	f2a4 4413 	subw	r4, r4, #1043	; 0x413
 800db50:	f04f 30ff 	mov.w	r0, #4294967295
 800db54:	fa20 f004 	lsr.w	r0, r0, r4
 800db58:	4210      	tst	r0, r2
 800db5a:	d0e8      	beq.n	800db2e <rint+0x7e>
 800db5c:	0845      	lsrs	r5, r0, #1
 800db5e:	4215      	tst	r5, r2
 800db60:	d0cf      	beq.n	800db02 <rint+0x52>
 800db62:	f04f 4780 	mov.w	r7, #1073741824	; 0x40000000
 800db66:	ea22 0205 	bic.w	r2, r2, r5
 800db6a:	fa47 f404 	asr.w	r4, r7, r4
 800db6e:	4322      	orrs	r2, r4
 800db70:	e7c7      	b.n	800db02 <rint+0x52>
 800db72:	f023 4100 	bic.w	r1, r3, #2147483648	; 0x80000000
 800db76:	ea51 0302 	orrs.w	r3, r1, r2
 800db7a:	d0d8      	beq.n	800db2e <rint+0x7e>
 800db7c:	f020 447f 	bic.w	r4, r0, #4278190080	; 0xff000000
 800db80:	f424 0570 	bic.w	r5, r4, #15728640	; 0xf00000
 800db84:	4c11      	ldr	r4, [pc, #68]	; (800dbcc <rint+0x11c>)
 800db86:	432a      	orrs	r2, r5
 800db88:	4251      	negs	r1, r2
 800db8a:	eb04 05c6 	add.w	r5, r4, r6, lsl #3
 800db8e:	e9d5 4500 	ldrd	r4, r5, [r5]
 800db92:	4311      	orrs	r1, r2
 800db94:	ec53 2b10 	vmov	r2, r3, d0
 800db98:	0b0b      	lsrs	r3, r1, #12
 800db9a:	f403 2100 	and.w	r1, r3, #524288	; 0x80000
 800db9e:	0c40      	lsrs	r0, r0, #17
 800dba0:	ea41 4340 	orr.w	r3, r1, r0, lsl #17
 800dba4:	4620      	mov	r0, r4
 800dba6:	4629      	mov	r1, r5
 800dba8:	f7f4 f93c 	bl	8001e24 <__adddf3>
 800dbac:	e9cd 0100 	strd	r0, r1, [sp]
 800dbb0:	462b      	mov	r3, r5
 800dbb2:	e9dd 0100 	ldrd	r0, r1, [sp]
 800dbb6:	4622      	mov	r2, r4
 800dbb8:	f7f4 f932 	bl	8001e20 <__aeabi_dsub>
 800dbbc:	f021 4300 	bic.w	r3, r1, #2147483648	; 0x80000000
 800dbc0:	ea43 71c6 	orr.w	r1, r3, r6, lsl #31
 800dbc4:	ec41 0b10 	vmov	d0, r0, r1
 800dbc8:	e7b1      	b.n	800db2e <rint+0x7e>
 800dbca:	bf00      	nop
 800dbcc:	0800e588 	.word	0x0800e588

0800dbd0 <scalbn>:
 800dbd0:	ec53 2b10 	vmov	r2, r3, d0
 800dbd4:	f3c3 510a 	ubfx	r1, r3, #20, #11
 800dbd8:	b570      	push	{r4, r5, r6, lr}
 800dbda:	461c      	mov	r4, r3
 800dbdc:	4605      	mov	r5, r0
 800dbde:	2900      	cmp	r1, #0
 800dbe0:	d141      	bne.n	800dc66 <scalbn+0x96>
 800dbe2:	f023 4400 	bic.w	r4, r3, #2147483648	; 0x80000000
 800dbe6:	4314      	orrs	r4, r2
 800dbe8:	d03c      	beq.n	800dc64 <scalbn+0x94>
 800dbea:	2300      	movs	r3, #0
 800dbec:	ec51 0b10 	vmov	r0, r1, d0
 800dbf0:	2200      	movs	r2, #0
 800dbf2:	f2c4 3350 	movt	r3, #17232	; 0x4350
 800dbf6:	f7f4 fac7 	bl	8002188 <__aeabi_dmul>
 800dbfa:	f643 44b0 	movw	r4, #15536	; 0x3cb0
 800dbfe:	f6cf 74ff 	movt	r4, #65535	; 0xffff
 800dc02:	42a5      	cmp	r5, r4
 800dc04:	ec41 0b10 	vmov	d0, r0, r1
 800dc08:	460b      	mov	r3, r1
 800dc0a:	db54      	blt.n	800dcb6 <scalbn+0xe6>
 800dc0c:	f3c3 510a 	ubfx	r1, r3, #20, #11
 800dc10:	3936      	subs	r1, #54	; 0x36
 800dc12:	461e      	mov	r6, r3
 800dc14:	194c      	adds	r4, r1, r5
 800dc16:	f240 73fe 	movw	r3, #2046	; 0x7fe
 800dc1a:	429c      	cmp	r4, r3
 800dc1c:	dd2d      	ble.n	800dc7a <scalbn+0xaa>
 800dc1e:	eeb0 1a40 	vmov.f32	s2, s0
 800dc22:	eef0 1a60 	vmov.f32	s3, s1
 800dc26:	ed9f 0b2e 	vldr	d0, [pc, #184]	; 800dce0 <scalbn+0x110>
 800dc2a:	f000 f861 	bl	800dcf0 <copysign>
 800dc2e:	a32c      	add	r3, pc, #176	; (adr r3, 800dce0 <scalbn+0x110>)
 800dc30:	e9d3 2300 	ldrd	r2, r3, [r3]
 800dc34:	ec51 0b10 	vmov	r0, r1, d0
 800dc38:	f7f4 faa6 	bl	8002188 <__aeabi_dmul>
 800dc3c:	ec41 0b10 	vmov	d0, r0, r1
 800dc40:	bd70      	pop	{r4, r5, r6, pc}
 800dc42:	f026 46ff 	bic.w	r6, r6, #2139095040	; 0x7f800000
 800dc46:	3436      	adds	r4, #54	; 0x36
 800dc48:	f426 06e0 	bic.w	r6, r6, #7340032	; 0x700000
 800dc4c:	2300      	movs	r3, #0
 800dc4e:	ec51 0b10 	vmov	r0, r1, d0
 800dc52:	2200      	movs	r2, #0
 800dc54:	ea46 5104 	orr.w	r1, r6, r4, lsl #20
 800dc58:	f6c3 4390 	movt	r3, #15504	; 0x3c90
 800dc5c:	f7f4 fa94 	bl	8002188 <__aeabi_dmul>
 800dc60:	ec41 0b10 	vmov	d0, r0, r1
 800dc64:	bd70      	pop	{r4, r5, r6, pc}
 800dc66:	f240 72ff 	movw	r2, #2047	; 0x7ff
 800dc6a:	4291      	cmp	r1, r2
 800dc6c:	d02b      	beq.n	800dcc6 <scalbn+0xf6>
 800dc6e:	461e      	mov	r6, r3
 800dc70:	194c      	adds	r4, r1, r5
 800dc72:	f240 73fe 	movw	r3, #2046	; 0x7fe
 800dc76:	429c      	cmp	r4, r3
 800dc78:	dcd1      	bgt.n	800dc1e <scalbn+0x4e>
 800dc7a:	2c00      	cmp	r4, #0
 800dc7c:	dd0a      	ble.n	800dc94 <scalbn+0xc4>
 800dc7e:	f026 41ff 	bic.w	r1, r6, #2139095040	; 0x7f800000
 800dc82:	ec53 2b10 	vmov	r2, r3, d0
 800dc86:	f421 06e0 	bic.w	r6, r1, #7340032	; 0x700000
 800dc8a:	ea46 5304 	orr.w	r3, r6, r4, lsl #20
 800dc8e:	ec43 2b10 	vmov	d0, r2, r3
 800dc92:	bd70      	pop	{r4, r5, r6, pc}
 800dc94:	f114 0f35 	cmn.w	r4, #53	; 0x35
 800dc98:	dad3      	bge.n	800dc42 <scalbn+0x72>
 800dc9a:	f24c 3050 	movw	r0, #50000	; 0xc350
 800dc9e:	4285      	cmp	r5, r0
 800dca0:	eeb0 1a40 	vmov.f32	s2, s0
 800dca4:	eef0 1a60 	vmov.f32	s3, s1
 800dca8:	dcbd      	bgt.n	800dc26 <scalbn+0x56>
 800dcaa:	ed9f 0b0f 	vldr	d0, [pc, #60]	; 800dce8 <scalbn+0x118>
 800dcae:	f000 f81f 	bl	800dcf0 <copysign>
 800dcb2:	ec51 0b10 	vmov	r0, r1, d0
 800dcb6:	a30c      	add	r3, pc, #48	; (adr r3, 800dce8 <scalbn+0x118>)
 800dcb8:	e9d3 2300 	ldrd	r2, r3, [r3]
 800dcbc:	f7f4 fa64 	bl	8002188 <__aeabi_dmul>
 800dcc0:	ec41 0b10 	vmov	d0, r0, r1
 800dcc4:	bd70      	pop	{r4, r5, r6, pc}
 800dcc6:	ec51 0b10 	vmov	r0, r1, d0
 800dcca:	ee10 2a10 	vmov	r2, s0
 800dcce:	460b      	mov	r3, r1
 800dcd0:	f7f4 f8a8 	bl	8001e24 <__adddf3>
 800dcd4:	ec41 0b10 	vmov	d0, r0, r1
 800dcd8:	bd70      	pop	{r4, r5, r6, pc}
 800dcda:	bf00      	nop
 800dcdc:	f3af 8000 	nop.w
 800dce0:	8800759c 	.word	0x8800759c
 800dce4:	7e37e43c 	.word	0x7e37e43c
 800dce8:	c2f8f359 	.word	0xc2f8f359
 800dcec:	01a56e1f 	.word	0x01a56e1f

0800dcf0 <copysign>:
 800dcf0:	ec51 0b10 	vmov	r0, r1, d0
 800dcf4:	b430      	push	{r4, r5}
 800dcf6:	ec55 4b11 	vmov	r4, r5, d1
 800dcfa:	ec53 2b10 	vmov	r2, r3, d0
 800dcfe:	f005 4000 	and.w	r0, r5, #2147483648	; 0x80000000
 800dd02:	f021 4100 	bic.w	r1, r1, #2147483648	; 0x80000000
 800dd06:	ea40 0301 	orr.w	r3, r0, r1
 800dd0a:	ec43 2b10 	vmov	d0, r2, r3
 800dd0e:	bc30      	pop	{r4, r5}
 800dd10:	4770      	bx	lr
 800dd12:	bf00      	nop
 800dd14:	0800df9b 	.word	0x0800df9b
 800dd18:	0800df9b 	.word	0x0800df9b
 800dd1c:	0800df9d 	.word	0x0800df9d
 800dd20:	6e617571 	.word	0x6e617571
 800dd24:	6172745f 	.word	0x6172745f
 800dd28:	72656b63 	.word	0x72656b63
 800dd2c:	2e315620 	.word	0x2e315620
 800dd30:	74732031 	.word	0x74732031
 800dd34:	75747261 	.word	0x75747261
 800dd38:	0070      	.short	0x0070
 800dd3a:	6964      	.short	0x6964
 800dd3c:	6e617473 	.word	0x6e617473
 800dd40:	3d206563 	.word	0x3d206563
 800dd44:	20662520 	.word	0x20662520
 800dd48:	62000a6d 	.word	0x62000a6d
 800dd4c:	69726165 	.word	0x69726165
 800dd50:	3d20676e 	.word	0x3d20676e
 800dd54:	20662520 	.word	0x20662520
 800dd58:	0a676564 	.word	0x0a676564
 800dd5c:	656c6500 	.word	0x656c6500
 800dd60:	69746176 	.word	0x69746176
 800dd64:	3d206e6f 	.word	0x3d206e6f
 800dd68:	20662520 	.word	0x20662520
 800dd6c:	0a676564 	.word	0x0a676564
	...

0800dd78 <_ZTVN9FrSky2WSP8protocolIN4quan5stm3211serial_portINS2_5usart6moduleILm1073760256EEELj1000ELj1000ENS1_3mcu3pinINS2_4gpio6moduleILm1073875968EEELm8EEENS8_ISB_Lm9EEEEEvEE>:
	...
 800dd80:	08003359 08003355 08003349 08003391     Y3..U3..I3...3..
 800dd90:	0800342d 0800341d                       -4...4..

0800dd98 <_ZTVN9FrSky2WSP14basic_protocolE>:
	...
 800dda0:	08001565 08001565 0800333d 080033a5     e...e...=3...3..
 800ddb0:	08001565 08001565                       e...e...

0800ddb8 <_ZTV12input_buttonIN4quan3mcu3pinINS0_5stm324gpio6moduleILm1073872896EEELm0EEEE>:
	...
 800ddc0:	08003571 00000000 20746573 656d6f68     q5......set home
 800ddd0:	736f7020 6f697469 6166206e 64656c69      position failed
 800dde0:	6f68000a 7020656d 7320736f 6c207465     ..home pos set l
 800ddf0:	203d7461 2c206625 6e6f6c20 6625203d     at= %f , lon= %f
 800de00:	6568202c 74686769 6625203d 6573000a     , height= %f..se
 800de10:	69612074 61726372 70207466 7469736f     t aircraft posit
 800de20:	206e6f69 6c696166 000a6465 63726961     ion failed..airc
 800de30:	74666172 736f7020 74657320 74616c20     raft pos set lat
 800de40:	6625203d 67656420 6f6c202c 25203d6e     = %f deg, lon= %
 800de50:	65642066 68202c67 68676965 25203d74     f deg, height= %
 800de60:	6d6d2066 657a000a 64656f72 7a41000a     f mm..zeroed..Az
 800de70:	74756d69 6e452068 656c6261 41000a64     imuth Enabled..A
 800de80:	756d697a 44206874 62617369 0a64656c     zimuth Disabled.
 800de90:	3c205400 6425207e 4f203a20 000a214b     .T <~ %d : OK!..
 800dea0:	65707865 64657463 6e697520 20480074     expected uint.H 
 800deb0:	25207e3c 203a2064 0a214b4f 20506b00     <~ %d : OK!..kP 
 800dec0:	25207e3c 203a2066 0a214b4f 20446b00     <~ %f : OK!..kD 
 800ded0:	207e3c20 3a206625 214b4f20 6e69000a      <~ %f : OK!..in
 800dee0:	6e726574 65206c61 726f7272 6c66000a     ternal error..fl
 800def0:	2074616f 766e6f63 72726520 000a726f     oat conv error..
 800df00:	6e6b6e75 206e776f 6d6d6f63 0a646e61     unknown command.
 800df10:	70786500 65746365 506b2064 20726f20     .expected kP or 
 800df20:	2b20446b 6f6c6620 000a7461 3d207450     kD + float..Pt =
 800df30:	0a752520 20615000 7525203d 506b000a      %u..Pa = %u..kP
 800df40:	25203d20 6b000a66 203d2044 000a6625      = %f..kD = %f..
 800df50:	6e6b6e75 206e776f 20746567 61726170     unknown get para
 800df60:	65000a6d 63657078 20646574 20746567     m..expected get 
 800df70:	61726170 63000a6d 6e20646d 6620746f     param..cmd not f
 800df80:	646e756f 6f63000a 6e616d6d 6f742064     ound..command to
 800df90:	6f6c206f 000a676e 2c000a23 69003b00     o long..#..,.;.i
 800dfa0:	61206332 20726464 656d6974 0a74756f     2c addr timeout.
 800dfb0:	71657200 74736575 77656e5f 61656d5f     .request_new_mea
 800dfc0:	65727573 746e656d 61727420 6566736e     surement transfe
 800dfd0:	61662072 64656c69 6f6e000a 6c757020     r failed..no pul
 800dfe0:	66206573 656c6961 70000a64 7469736f     se failed..posit
 800dff0:	20657669 736c7570 61662065 64656c69     ive pulse failed
 800e000:	656e000a 69746167 70206576 65736c75     ..negative pulse
 800e010:	69616620 0a64656c 6e657800 20782064      failed..xend x 
 800e020:	6e617274 72656673 69616620 0a64656c     transfer failed.
 800e030:	206f6e00 69747865 6164000a 74206174     .no exti..data t
 800e040:	736e6172 20726566 6c696166 000a6465     ransfer failed..
 800e050:	756f6873 746e646c 74656720 72656820     shouldnt get her
 800e060:	00000a65 00000043                       e...C...

0800e068 <_global_impure_ptr>:
 800e068:	10000048 00464e49 00666e69 004e414e     H...INF.inf.NAN.
 800e078:	006e616e 33323130 37363534 42413938     nan.0123456789AB
 800e088:	46454443 00000000 33323130 37363534     CDEF....01234567
 800e098:	62613938 66656463 00000000 6c756e28     89abcdef....(nul
 800e0a8:	0000296c 00000030                       l)..0...

0800e0b0 <zeroes.6721>:
 800e0b0:	30303030 30303030 30303030 30303030     0000000000000000

0800e0c0 <blanks.6720>:
 800e0c0:	20202020 20202020 20202020 20202020                     

0800e0d0 <_ctype_>:
 800e0d0:	20202000 20202020 28282020 20282828     .         ((((( 
 800e0e0:	20202020 20202020 20202020 20202020                     
 800e0f0:	10108820 10101010 10101010 10101010      ...............
 800e100:	04040410 04040404 10040404 10101010     ................
 800e110:	41411010 41414141 01010101 01010101     ..AAAAAA........
 800e120:	01010101 01010101 01010101 10101010     ................
 800e130:	42421010 42424242 02020202 02020202     ..BBBBBB........
 800e140:	02020202 02020202 02020202 10101010     ................
 800e150:	00000020 00000000 00000000 00000000      ...............
	...
 800e1d4:	69666e49 7974696e 00000000 004e614e     Infinity....NaN.
 800e1e4:	49534f50 00000058 0000002e              POSIX.......

0800e1f0 <p05.5242>:
 800e1f0:	00000005 00000019 0000007d 00000000     ........}.......

0800e200 <__mprec_tens>:
 800e200:	00000000 3ff00000 00000000 40240000     .......?......$@
 800e210:	00000000 40590000 00000000 408f4000     ......Y@.....@.@
 800e220:	00000000 40c38800 00000000 40f86a00     .......@.....j.@
 800e230:	00000000 412e8480 00000000 416312d0     .......A......cA
 800e240:	00000000 4197d784 00000000 41cdcd65     .......A....e..A
 800e250:	20000000 4202a05f e8000000 42374876     ... _..B....vH7B
 800e260:	a2000000 426d1a94 e5400000 42a2309c     ......mB..@..0.B
 800e270:	1e900000 42d6bcc4 26340000 430c6bf5     .......B..4&.k.C
 800e280:	37e08000 4341c379 85d8a000 43763457     ...7y.AC....W4vC
 800e290:	674ec800 43abc16d 60913d00 43e158e4     ..Ngm..C.=.`.X.C
 800e2a0:	78b58c40 4415af1d d6e2ef50 444b1ae4     @..x...DP.....KD
 800e2b0:	064dd592 4480f0cf c7e14af6 44b52d02     ..M....D.J...-.D
 800e2c0:	79d99db4 44ea7843                       ...yCx.D

0800e2c8 <__mprec_bigtens>:
 800e2c8:	37e08000 4341c379 b5056e17 4693b8b5     ...7y.AC.n.....F
 800e2d8:	e93ff9f5 4d384f03 f9301d32 5a827748     ..?..O8M2.0.Hw.Z
 800e2e8:	7f73bf3c 75154fdd                       <.s..O.u

0800e2f0 <__mprec_tinytens>:
 800e2f0:	97d889bc 3c9cd2b2 d5a8a733 3949f623     .......<3...#.I9
 800e300:	44f4a73d 32a50ffd cf8c979d 255bba08     =..D...2......[%
 800e310:	64ac6f43 0ac80628                       Co.d(...

0800e318 <zeroes.6665>:
 800e318:	30303030 30303030 30303030 30303030     0000000000000000

0800e328 <blanks.6664>:
 800e328:	20202020 20202020 20202020 20202020                     
 800e338:	00776f70 00000000                       pow.....

0800e340 <dp_h>:
	...
 800e348:	40000000 3fe2b803                       ...@...?

0800e350 <dp_l>:
	...
 800e358:	43cfd006 3e4cfdeb                       ...C..L>

0800e360 <bp>:
 800e360:	00000000 3ff00000 00000000 3ff80000     .......?.......?

0800e370 <npio2_hw>:
 800e370:	3ff921fb 400921fb 4012d97c 401921fb     .!.?.!.@|..@.!.@
 800e380:	401f6a7a 4022d97c 4025fdbb 402921fb     zj.@|."@..%@.!)@
 800e390:	402c463a 402f6a7a 4031475c 4032d97c     :F,@zj/@\G1@|.2@
 800e3a0:	40346b9c 4035fdbb 40378fdb 403921fb     .k4@..5@..7@.!9@
 800e3b0:	403ab41b 403c463a 403dd85a 403f6a7a     ..:@:F<@Z.=@zj?@
 800e3c0:	40407e4c 4041475c 4042106c 4042d97c     L~@@\GA@l.B@|.B@
 800e3d0:	4043a28c 40446b9c 404534ac 4045fdbb     ..C@.kD@.4E@..E@
 800e3e0:	4046c6cb 40478fdb 404858eb 404921fb     ..F@..G@.XH@.!I@

0800e3f0 <two_over_pi>:
 800e3f0:	00a2f983 006e4e44 001529fc 002757d1     ....DNn..)...W'.
 800e400:	00f534dd 00c0db62 0095993c 00439041     .4..b...<...A.C.
 800e410:	00fe5163 00abdebb 00c561b7 00246e3a     cQ.......a..:n$.
 800e420:	00424dd2 00e00649 002eea09 00d1921c     .MB.I...........
 800e430:	00fe1deb 001cb129 00a73ee8 008235f5     ....)....>...5..
 800e440:	002ebb44 0084e99c 007026b4 005f7e41     D........&p.A~_.
 800e450:	003991d6 00398353 0039f49c 00845f8b     ..9.S.9...9.._..
 800e460:	00bdf928 003b1ff8 0097ffde 0005980f     (.....;.........
 800e470:	00ef2f11 008b5a0a 006d1f6d 00367ecf     ./...Z..m.m..~6.
 800e480:	0027cb09 00b74f46 003f669e 005fea2d     ..'.FO...f?.-._.
 800e490:	007527ba 00c7ebe5 00f17b3d 000739f7     .'u.....={...9..
 800e4a0:	008a5292 00ea6bfb 005fb11f 008d5d08     .R...k...._..]..
 800e4b0:	00560330 0046fc7b 006babf0 00cfbc20     0.V.{.F...k. ...
 800e4c0:	009af436 001da9e3 0091615e 00e61b08     6.......^a......
 800e4d0:	00659985 005f14a0 0068408d 00ffd880     ..e..._..@h.....
 800e4e0:	004d7327 00310606 001556ca 0073a8c9     'sM...1..V....s.
 800e4f0:	0060e27b 00c08c6b                       {.`.k...

0800e4f8 <init_jk>:
 800e4f8:	00000002 00000003 00000004 00000006     ................

0800e508 <PIo2>:
 800e508:	40000000 3ff921fb 00000000 3e74442d     ...@.!.?....-Dt>
 800e518:	80000000 3cf84698 60000000 3b78cc51     .....F.<...`Q.x;
 800e528:	80000000 39f01b83 40000000 387a2520     .......9...@ %z8
 800e538:	80000000 36e38222 00000000 3569f31d     ...."..6......i5

0800e548 <atanlo>:
 800e548:	222f65e2 3c7a2b7f 33145c07 3c81a626     .e/".+z<.\.3&..<
 800e558:	7af0cbbd 3c700788 33145c07 3c91a626     ...z..p<.\.3&..<

0800e568 <atanhi>:
 800e568:	0561bb4f 3fddac67 54442d18 3fe921fb     O.a.g..?.-DT.!.?
 800e578:	d281f69b 3fef730b 54442d18 3ff921fb     .....s.?.-DT.!.?

0800e588 <TWO52>:
 800e588:	00000000 43300000 00000000 c3300000     ......0C......0.

0800e598 <_init>:
 800e598:	b5f8      	push	{r3, r4, r5, r6, r7, lr}
 800e59a:	bf00      	nop
 800e59c:	bcf8      	pop	{r3, r4, r5, r6, r7}
 800e59e:	bc08      	pop	{r3}
 800e5a0:	469e      	mov	lr, r3
 800e5a2:	4770      	bx	lr

0800e5a4 <_fini>:
 800e5a4:	b5f8      	push	{r3, r4, r5, r6, r7, lr}
 800e5a6:	bf00      	nop
 800e5a8:	bcf8      	pop	{r3, r4, r5, r6, r7}
 800e5aa:	bc08      	pop	{r3}
 800e5ac:	469e      	mov	lr, r3
 800e5ae:	4770      	bx	lr
