
main.elf:     file format elf32-littlearm


Disassembly of section .text:

08000188 <__aeabi_drsub>:
 8000188:	f081 4100 	eor.w	r1, r1, #2147483648	; 0x80000000
 800018c:	e002      	b.n	8000194 <__adddf3>
 800018e:	bf00      	nop

08000190 <__aeabi_dsub>:
 8000190:	f083 4300 	eor.w	r3, r3, #2147483648	; 0x80000000

08000194 <__adddf3>:
 8000194:	b530      	push	{r4, r5, lr}
 8000196:	ea4f 0441 	mov.w	r4, r1, lsl #1
 800019a:	ea4f 0543 	mov.w	r5, r3, lsl #1
 800019e:	ea94 0f05 	teq	r4, r5
 80001a2:	bf08      	it	eq
 80001a4:	ea90 0f02 	teqeq	r0, r2
 80001a8:	bf1f      	itttt	ne
 80001aa:	ea54 0c00 	orrsne.w	ip, r4, r0
 80001ae:	ea55 0c02 	orrsne.w	ip, r5, r2
 80001b2:	ea7f 5c64 	mvnsne.w	ip, r4, asr #21
 80001b6:	ea7f 5c65 	mvnsne.w	ip, r5, asr #21
 80001ba:	f000 80e2 	beq.w	8000382 <__adddf3+0x1ee>
 80001be:	ea4f 5454 	mov.w	r4, r4, lsr #21
 80001c2:	ebd4 5555 	rsbs	r5, r4, r5, lsr #21
 80001c6:	bfb8      	it	lt
 80001c8:	426d      	neglt	r5, r5
 80001ca:	dd0c      	ble.n	80001e6 <__adddf3+0x52>
 80001cc:	442c      	add	r4, r5
 80001ce:	ea80 0202 	eor.w	r2, r0, r2
 80001d2:	ea81 0303 	eor.w	r3, r1, r3
 80001d6:	ea82 0000 	eor.w	r0, r2, r0
 80001da:	ea83 0101 	eor.w	r1, r3, r1
 80001de:	ea80 0202 	eor.w	r2, r0, r2
 80001e2:	ea81 0303 	eor.w	r3, r1, r3
 80001e6:	2d36      	cmp	r5, #54	; 0x36
 80001e8:	bf88      	it	hi
 80001ea:	bd30      	pophi	{r4, r5, pc}
 80001ec:	f011 4f00 	tst.w	r1, #2147483648	; 0x80000000
 80001f0:	ea4f 3101 	mov.w	r1, r1, lsl #12
 80001f4:	f44f 1c80 	mov.w	ip, #1048576	; 0x100000
 80001f8:	ea4c 3111 	orr.w	r1, ip, r1, lsr #12
 80001fc:	d002      	beq.n	8000204 <__adddf3+0x70>
 80001fe:	4240      	negs	r0, r0
 8000200:	eb61 0141 	sbc.w	r1, r1, r1, lsl #1
 8000204:	f013 4f00 	tst.w	r3, #2147483648	; 0x80000000
 8000208:	ea4f 3303 	mov.w	r3, r3, lsl #12
 800020c:	ea4c 3313 	orr.w	r3, ip, r3, lsr #12
 8000210:	d002      	beq.n	8000218 <__adddf3+0x84>
 8000212:	4252      	negs	r2, r2
 8000214:	eb63 0343 	sbc.w	r3, r3, r3, lsl #1
 8000218:	ea94 0f05 	teq	r4, r5
 800021c:	f000 80a7 	beq.w	800036e <__adddf3+0x1da>
 8000220:	f1a4 0401 	sub.w	r4, r4, #1
 8000224:	f1d5 0e20 	rsbs	lr, r5, #32
 8000228:	db0d      	blt.n	8000246 <__adddf3+0xb2>
 800022a:	fa02 fc0e 	lsl.w	ip, r2, lr
 800022e:	fa22 f205 	lsr.w	r2, r2, r5
 8000232:	1880      	adds	r0, r0, r2
 8000234:	f141 0100 	adc.w	r1, r1, #0
 8000238:	fa03 f20e 	lsl.w	r2, r3, lr
 800023c:	1880      	adds	r0, r0, r2
 800023e:	fa43 f305 	asr.w	r3, r3, r5
 8000242:	4159      	adcs	r1, r3
 8000244:	e00e      	b.n	8000264 <__adddf3+0xd0>
 8000246:	f1a5 0520 	sub.w	r5, r5, #32
 800024a:	f10e 0e20 	add.w	lr, lr, #32
 800024e:	2a01      	cmp	r2, #1
 8000250:	fa03 fc0e 	lsl.w	ip, r3, lr
 8000254:	bf28      	it	cs
 8000256:	f04c 0c02 	orrcs.w	ip, ip, #2
 800025a:	fa43 f305 	asr.w	r3, r3, r5
 800025e:	18c0      	adds	r0, r0, r3
 8000260:	eb51 71e3 	adcs.w	r1, r1, r3, asr #31
 8000264:	f001 4500 	and.w	r5, r1, #2147483648	; 0x80000000
 8000268:	d507      	bpl.n	800027a <__adddf3+0xe6>
 800026a:	f04f 0e00 	mov.w	lr, #0
 800026e:	f1dc 0c00 	rsbs	ip, ip, #0
 8000272:	eb7e 0000 	sbcs.w	r0, lr, r0
 8000276:	eb6e 0101 	sbc.w	r1, lr, r1
 800027a:	f5b1 1f80 	cmp.w	r1, #1048576	; 0x100000
 800027e:	d31b      	bcc.n	80002b8 <__adddf3+0x124>
 8000280:	f5b1 1f00 	cmp.w	r1, #2097152	; 0x200000
 8000284:	d30c      	bcc.n	80002a0 <__adddf3+0x10c>
 8000286:	0849      	lsrs	r1, r1, #1
 8000288:	ea5f 0030 	movs.w	r0, r0, rrx
 800028c:	ea4f 0c3c 	mov.w	ip, ip, rrx
 8000290:	f104 0401 	add.w	r4, r4, #1
 8000294:	ea4f 5244 	mov.w	r2, r4, lsl #21
 8000298:	f512 0f80 	cmn.w	r2, #4194304	; 0x400000
 800029c:	f080 809a 	bcs.w	80003d4 <__adddf3+0x240>
 80002a0:	f1bc 4f00 	cmp.w	ip, #2147483648	; 0x80000000
 80002a4:	bf08      	it	eq
 80002a6:	ea5f 0c50 	movseq.w	ip, r0, lsr #1
 80002aa:	f150 0000 	adcs.w	r0, r0, #0
 80002ae:	eb41 5104 	adc.w	r1, r1, r4, lsl #20
 80002b2:	ea41 0105 	orr.w	r1, r1, r5
 80002b6:	bd30      	pop	{r4, r5, pc}
 80002b8:	ea5f 0c4c 	movs.w	ip, ip, lsl #1
 80002bc:	4140      	adcs	r0, r0
 80002be:	eb41 0101 	adc.w	r1, r1, r1
 80002c2:	f411 1f80 	tst.w	r1, #1048576	; 0x100000
 80002c6:	f1a4 0401 	sub.w	r4, r4, #1
 80002ca:	d1e9      	bne.n	80002a0 <__adddf3+0x10c>
 80002cc:	f091 0f00 	teq	r1, #0
 80002d0:	bf04      	itt	eq
 80002d2:	4601      	moveq	r1, r0
 80002d4:	2000      	moveq	r0, #0
 80002d6:	fab1 f381 	clz	r3, r1
 80002da:	bf08      	it	eq
 80002dc:	3320      	addeq	r3, #32
 80002de:	f1a3 030b 	sub.w	r3, r3, #11
 80002e2:	f1b3 0220 	subs.w	r2, r3, #32
 80002e6:	da0c      	bge.n	8000302 <__adddf3+0x16e>
 80002e8:	320c      	adds	r2, #12
 80002ea:	dd08      	ble.n	80002fe <__adddf3+0x16a>
 80002ec:	f102 0c14 	add.w	ip, r2, #20
 80002f0:	f1c2 020c 	rsb	r2, r2, #12
 80002f4:	fa01 f00c 	lsl.w	r0, r1, ip
 80002f8:	fa21 f102 	lsr.w	r1, r1, r2
 80002fc:	e00c      	b.n	8000318 <__adddf3+0x184>
 80002fe:	f102 0214 	add.w	r2, r2, #20
 8000302:	bfd8      	it	le
 8000304:	f1c2 0c20 	rsble	ip, r2, #32
 8000308:	fa01 f102 	lsl.w	r1, r1, r2
 800030c:	fa20 fc0c 	lsr.w	ip, r0, ip
 8000310:	bfdc      	itt	le
 8000312:	ea41 010c 	orrle.w	r1, r1, ip
 8000316:	4090      	lslle	r0, r2
 8000318:	1ae4      	subs	r4, r4, r3
 800031a:	bfa2      	ittt	ge
 800031c:	eb01 5104 	addge.w	r1, r1, r4, lsl #20
 8000320:	4329      	orrge	r1, r5
 8000322:	bd30      	popge	{r4, r5, pc}
 8000324:	ea6f 0404 	mvn.w	r4, r4
 8000328:	3c1f      	subs	r4, #31
 800032a:	da1c      	bge.n	8000366 <__adddf3+0x1d2>
 800032c:	340c      	adds	r4, #12
 800032e:	dc0e      	bgt.n	800034e <__adddf3+0x1ba>
 8000330:	f104 0414 	add.w	r4, r4, #20
 8000334:	f1c4 0220 	rsb	r2, r4, #32
 8000338:	fa20 f004 	lsr.w	r0, r0, r4
 800033c:	fa01 f302 	lsl.w	r3, r1, r2
 8000340:	ea40 0003 	orr.w	r0, r0, r3
 8000344:	fa21 f304 	lsr.w	r3, r1, r4
 8000348:	ea45 0103 	orr.w	r1, r5, r3
 800034c:	bd30      	pop	{r4, r5, pc}
 800034e:	f1c4 040c 	rsb	r4, r4, #12
 8000352:	f1c4 0220 	rsb	r2, r4, #32
 8000356:	fa20 f002 	lsr.w	r0, r0, r2
 800035a:	fa01 f304 	lsl.w	r3, r1, r4
 800035e:	ea40 0003 	orr.w	r0, r0, r3
 8000362:	4629      	mov	r1, r5
 8000364:	bd30      	pop	{r4, r5, pc}
 8000366:	fa21 f004 	lsr.w	r0, r1, r4
 800036a:	4629      	mov	r1, r5
 800036c:	bd30      	pop	{r4, r5, pc}
 800036e:	f094 0f00 	teq	r4, #0
 8000372:	f483 1380 	eor.w	r3, r3, #1048576	; 0x100000
 8000376:	bf06      	itte	eq
 8000378:	f481 1180 	eoreq.w	r1, r1, #1048576	; 0x100000
 800037c:	3401      	addeq	r4, #1
 800037e:	3d01      	subne	r5, #1
 8000380:	e74e      	b.n	8000220 <__adddf3+0x8c>
 8000382:	ea7f 5c64 	mvns.w	ip, r4, asr #21
 8000386:	bf18      	it	ne
 8000388:	ea7f 5c65 	mvnsne.w	ip, r5, asr #21
 800038c:	d029      	beq.n	80003e2 <__adddf3+0x24e>
 800038e:	ea94 0f05 	teq	r4, r5
 8000392:	bf08      	it	eq
 8000394:	ea90 0f02 	teqeq	r0, r2
 8000398:	d005      	beq.n	80003a6 <__adddf3+0x212>
 800039a:	ea54 0c00 	orrs.w	ip, r4, r0
 800039e:	bf04      	itt	eq
 80003a0:	4619      	moveq	r1, r3
 80003a2:	4610      	moveq	r0, r2
 80003a4:	bd30      	pop	{r4, r5, pc}
 80003a6:	ea91 0f03 	teq	r1, r3
 80003aa:	bf1e      	ittt	ne
 80003ac:	2100      	movne	r1, #0
 80003ae:	2000      	movne	r0, #0
 80003b0:	bd30      	popne	{r4, r5, pc}
 80003b2:	ea5f 5c54 	movs.w	ip, r4, lsr #21
 80003b6:	d105      	bne.n	80003c4 <__adddf3+0x230>
 80003b8:	0040      	lsls	r0, r0, #1
 80003ba:	4149      	adcs	r1, r1
 80003bc:	bf28      	it	cs
 80003be:	f041 4100 	orrcs.w	r1, r1, #2147483648	; 0x80000000
 80003c2:	bd30      	pop	{r4, r5, pc}
 80003c4:	f514 0480 	adds.w	r4, r4, #4194304	; 0x400000
 80003c8:	bf3c      	itt	cc
 80003ca:	f501 1180 	addcc.w	r1, r1, #1048576	; 0x100000
 80003ce:	bd30      	popcc	{r4, r5, pc}
 80003d0:	f001 4500 	and.w	r5, r1, #2147483648	; 0x80000000
 80003d4:	f045 41fe 	orr.w	r1, r5, #2130706432	; 0x7f000000
 80003d8:	f441 0170 	orr.w	r1, r1, #15728640	; 0xf00000
 80003dc:	f04f 0000 	mov.w	r0, #0
 80003e0:	bd30      	pop	{r4, r5, pc}
 80003e2:	ea7f 5c64 	mvns.w	ip, r4, asr #21
 80003e6:	bf1a      	itte	ne
 80003e8:	4619      	movne	r1, r3
 80003ea:	4610      	movne	r0, r2
 80003ec:	ea7f 5c65 	mvnseq.w	ip, r5, asr #21
 80003f0:	bf1c      	itt	ne
 80003f2:	460b      	movne	r3, r1
 80003f4:	4602      	movne	r2, r0
 80003f6:	ea50 3401 	orrs.w	r4, r0, r1, lsl #12
 80003fa:	bf06      	itte	eq
 80003fc:	ea52 3503 	orrseq.w	r5, r2, r3, lsl #12
 8000400:	ea91 0f03 	teqeq	r1, r3
 8000404:	f441 2100 	orrne.w	r1, r1, #524288	; 0x80000
 8000408:	bd30      	pop	{r4, r5, pc}
 800040a:	bf00      	nop

0800040c <__aeabi_ui2d>:
 800040c:	f090 0f00 	teq	r0, #0
 8000410:	bf04      	itt	eq
 8000412:	2100      	moveq	r1, #0
 8000414:	4770      	bxeq	lr
 8000416:	b530      	push	{r4, r5, lr}
 8000418:	f44f 6480 	mov.w	r4, #1024	; 0x400
 800041c:	f104 0432 	add.w	r4, r4, #50	; 0x32
 8000420:	f04f 0500 	mov.w	r5, #0
 8000424:	f04f 0100 	mov.w	r1, #0
 8000428:	e750      	b.n	80002cc <__adddf3+0x138>
 800042a:	bf00      	nop

0800042c <__aeabi_i2d>:
 800042c:	f090 0f00 	teq	r0, #0
 8000430:	bf04      	itt	eq
 8000432:	2100      	moveq	r1, #0
 8000434:	4770      	bxeq	lr
 8000436:	b530      	push	{r4, r5, lr}
 8000438:	f44f 6480 	mov.w	r4, #1024	; 0x400
 800043c:	f104 0432 	add.w	r4, r4, #50	; 0x32
 8000440:	f010 4500 	ands.w	r5, r0, #2147483648	; 0x80000000
 8000444:	bf48      	it	mi
 8000446:	4240      	negmi	r0, r0
 8000448:	f04f 0100 	mov.w	r1, #0
 800044c:	e73e      	b.n	80002cc <__adddf3+0x138>
 800044e:	bf00      	nop

08000450 <__aeabi_f2d>:
 8000450:	0042      	lsls	r2, r0, #1
 8000452:	ea4f 01e2 	mov.w	r1, r2, asr #3
 8000456:	ea4f 0131 	mov.w	r1, r1, rrx
 800045a:	ea4f 7002 	mov.w	r0, r2, lsl #28
 800045e:	bf1f      	itttt	ne
 8000460:	f012 437f 	andsne.w	r3, r2, #4278190080	; 0xff000000
 8000464:	f093 4f7f 	teqne	r3, #4278190080	; 0xff000000
 8000468:	f081 5160 	eorne.w	r1, r1, #939524096	; 0x38000000
 800046c:	4770      	bxne	lr
 800046e:	f092 0f00 	teq	r2, #0
 8000472:	bf14      	ite	ne
 8000474:	f093 4f7f 	teqne	r3, #4278190080	; 0xff000000
 8000478:	4770      	bxeq	lr
 800047a:	b530      	push	{r4, r5, lr}
 800047c:	f44f 7460 	mov.w	r4, #896	; 0x380
 8000480:	f001 4500 	and.w	r5, r1, #2147483648	; 0x80000000
 8000484:	f021 4100 	bic.w	r1, r1, #2147483648	; 0x80000000
 8000488:	e720      	b.n	80002cc <__adddf3+0x138>
 800048a:	bf00      	nop

0800048c <__aeabi_ul2d>:
 800048c:	ea50 0201 	orrs.w	r2, r0, r1
 8000490:	bf08      	it	eq
 8000492:	4770      	bxeq	lr
 8000494:	b530      	push	{r4, r5, lr}
 8000496:	f04f 0500 	mov.w	r5, #0
 800049a:	e00a      	b.n	80004b2 <__aeabi_l2d+0x16>

0800049c <__aeabi_l2d>:
 800049c:	ea50 0201 	orrs.w	r2, r0, r1
 80004a0:	bf08      	it	eq
 80004a2:	4770      	bxeq	lr
 80004a4:	b530      	push	{r4, r5, lr}
 80004a6:	f011 4500 	ands.w	r5, r1, #2147483648	; 0x80000000
 80004aa:	d502      	bpl.n	80004b2 <__aeabi_l2d+0x16>
 80004ac:	4240      	negs	r0, r0
 80004ae:	eb61 0141 	sbc.w	r1, r1, r1, lsl #1
 80004b2:	f44f 6480 	mov.w	r4, #1024	; 0x400
 80004b6:	f104 0432 	add.w	r4, r4, #50	; 0x32
 80004ba:	ea5f 5c91 	movs.w	ip, r1, lsr #22
 80004be:	f43f aedc 	beq.w	800027a <__adddf3+0xe6>
 80004c2:	f04f 0203 	mov.w	r2, #3
 80004c6:	ea5f 0cdc 	movs.w	ip, ip, lsr #3
 80004ca:	bf18      	it	ne
 80004cc:	3203      	addne	r2, #3
 80004ce:	ea5f 0cdc 	movs.w	ip, ip, lsr #3
 80004d2:	bf18      	it	ne
 80004d4:	3203      	addne	r2, #3
 80004d6:	eb02 02dc 	add.w	r2, r2, ip, lsr #3
 80004da:	f1c2 0320 	rsb	r3, r2, #32
 80004de:	fa00 fc03 	lsl.w	ip, r0, r3
 80004e2:	fa20 f002 	lsr.w	r0, r0, r2
 80004e6:	fa01 fe03 	lsl.w	lr, r1, r3
 80004ea:	ea40 000e 	orr.w	r0, r0, lr
 80004ee:	fa21 f102 	lsr.w	r1, r1, r2
 80004f2:	4414      	add	r4, r2
 80004f4:	e6c1      	b.n	800027a <__adddf3+0xe6>
 80004f6:	bf00      	nop

080004f8 <__aeabi_dmul>:
 80004f8:	b570      	push	{r4, r5, r6, lr}
 80004fa:	f04f 0cff 	mov.w	ip, #255	; 0xff
 80004fe:	f44c 6ce0 	orr.w	ip, ip, #1792	; 0x700
 8000502:	ea1c 5411 	ands.w	r4, ip, r1, lsr #20
 8000506:	bf1d      	ittte	ne
 8000508:	ea1c 5513 	andsne.w	r5, ip, r3, lsr #20
 800050c:	ea94 0f0c 	teqne	r4, ip
 8000510:	ea95 0f0c 	teqne	r5, ip
 8000514:	f000 f8de 	bleq	80006d4 <__aeabi_dmul+0x1dc>
 8000518:	442c      	add	r4, r5
 800051a:	ea81 0603 	eor.w	r6, r1, r3
 800051e:	ea21 514c 	bic.w	r1, r1, ip, lsl #21
 8000522:	ea23 534c 	bic.w	r3, r3, ip, lsl #21
 8000526:	ea50 3501 	orrs.w	r5, r0, r1, lsl #12
 800052a:	bf18      	it	ne
 800052c:	ea52 3503 	orrsne.w	r5, r2, r3, lsl #12
 8000530:	f441 1180 	orr.w	r1, r1, #1048576	; 0x100000
 8000534:	f443 1380 	orr.w	r3, r3, #1048576	; 0x100000
 8000538:	d038      	beq.n	80005ac <__aeabi_dmul+0xb4>
 800053a:	fba0 ce02 	umull	ip, lr, r0, r2
 800053e:	f04f 0500 	mov.w	r5, #0
 8000542:	fbe1 e502 	umlal	lr, r5, r1, r2
 8000546:	f006 4200 	and.w	r2, r6, #2147483648	; 0x80000000
 800054a:	fbe0 e503 	umlal	lr, r5, r0, r3
 800054e:	f04f 0600 	mov.w	r6, #0
 8000552:	fbe1 5603 	umlal	r5, r6, r1, r3
 8000556:	f09c 0f00 	teq	ip, #0
 800055a:	bf18      	it	ne
 800055c:	f04e 0e01 	orrne.w	lr, lr, #1
 8000560:	f1a4 04ff 	sub.w	r4, r4, #255	; 0xff
 8000564:	f5b6 7f00 	cmp.w	r6, #512	; 0x200
 8000568:	f564 7440 	sbc.w	r4, r4, #768	; 0x300
 800056c:	d204      	bcs.n	8000578 <__aeabi_dmul+0x80>
 800056e:	ea5f 0e4e 	movs.w	lr, lr, lsl #1
 8000572:	416d      	adcs	r5, r5
 8000574:	eb46 0606 	adc.w	r6, r6, r6
 8000578:	ea42 21c6 	orr.w	r1, r2, r6, lsl #11
 800057c:	ea41 5155 	orr.w	r1, r1, r5, lsr #21
 8000580:	ea4f 20c5 	mov.w	r0, r5, lsl #11
 8000584:	ea40 505e 	orr.w	r0, r0, lr, lsr #21
 8000588:	ea4f 2ece 	mov.w	lr, lr, lsl #11
 800058c:	f1b4 0cfd 	subs.w	ip, r4, #253	; 0xfd
 8000590:	bf88      	it	hi
 8000592:	f5bc 6fe0 	cmphi.w	ip, #1792	; 0x700
 8000596:	d81e      	bhi.n	80005d6 <__aeabi_dmul+0xde>
 8000598:	f1be 4f00 	cmp.w	lr, #2147483648	; 0x80000000
 800059c:	bf08      	it	eq
 800059e:	ea5f 0e50 	movseq.w	lr, r0, lsr #1
 80005a2:	f150 0000 	adcs.w	r0, r0, #0
 80005a6:	eb41 5104 	adc.w	r1, r1, r4, lsl #20
 80005aa:	bd70      	pop	{r4, r5, r6, pc}
 80005ac:	f006 4600 	and.w	r6, r6, #2147483648	; 0x80000000
 80005b0:	ea46 0101 	orr.w	r1, r6, r1
 80005b4:	ea40 0002 	orr.w	r0, r0, r2
 80005b8:	ea81 0103 	eor.w	r1, r1, r3
 80005bc:	ebb4 045c 	subs.w	r4, r4, ip, lsr #1
 80005c0:	bfc2      	ittt	gt
 80005c2:	ebd4 050c 	rsbsgt	r5, r4, ip
 80005c6:	ea41 5104 	orrgt.w	r1, r1, r4, lsl #20
 80005ca:	bd70      	popgt	{r4, r5, r6, pc}
 80005cc:	f441 1180 	orr.w	r1, r1, #1048576	; 0x100000
 80005d0:	f04f 0e00 	mov.w	lr, #0
 80005d4:	3c01      	subs	r4, #1
 80005d6:	f300 80ab 	bgt.w	8000730 <__aeabi_dmul+0x238>
 80005da:	f114 0f36 	cmn.w	r4, #54	; 0x36
 80005de:	bfde      	ittt	le
 80005e0:	2000      	movle	r0, #0
 80005e2:	f001 4100 	andle.w	r1, r1, #2147483648	; 0x80000000
 80005e6:	bd70      	pople	{r4, r5, r6, pc}
 80005e8:	f1c4 0400 	rsb	r4, r4, #0
 80005ec:	3c20      	subs	r4, #32
 80005ee:	da35      	bge.n	800065c <__aeabi_dmul+0x164>
 80005f0:	340c      	adds	r4, #12
 80005f2:	dc1b      	bgt.n	800062c <__aeabi_dmul+0x134>
 80005f4:	f104 0414 	add.w	r4, r4, #20
 80005f8:	f1c4 0520 	rsb	r5, r4, #32
 80005fc:	fa00 f305 	lsl.w	r3, r0, r5
 8000600:	fa20 f004 	lsr.w	r0, r0, r4
 8000604:	fa01 f205 	lsl.w	r2, r1, r5
 8000608:	ea40 0002 	orr.w	r0, r0, r2
 800060c:	f001 4200 	and.w	r2, r1, #2147483648	; 0x80000000
 8000610:	f021 4100 	bic.w	r1, r1, #2147483648	; 0x80000000
 8000614:	eb10 70d3 	adds.w	r0, r0, r3, lsr #31
 8000618:	fa21 f604 	lsr.w	r6, r1, r4
 800061c:	eb42 0106 	adc.w	r1, r2, r6
 8000620:	ea5e 0e43 	orrs.w	lr, lr, r3, lsl #1
 8000624:	bf08      	it	eq
 8000626:	ea20 70d3 	biceq.w	r0, r0, r3, lsr #31
 800062a:	bd70      	pop	{r4, r5, r6, pc}
 800062c:	f1c4 040c 	rsb	r4, r4, #12
 8000630:	f1c4 0520 	rsb	r5, r4, #32
 8000634:	fa00 f304 	lsl.w	r3, r0, r4
 8000638:	fa20 f005 	lsr.w	r0, r0, r5
 800063c:	fa01 f204 	lsl.w	r2, r1, r4
 8000640:	ea40 0002 	orr.w	r0, r0, r2
 8000644:	f001 4100 	and.w	r1, r1, #2147483648	; 0x80000000
 8000648:	eb10 70d3 	adds.w	r0, r0, r3, lsr #31
 800064c:	f141 0100 	adc.w	r1, r1, #0
 8000650:	ea5e 0e43 	orrs.w	lr, lr, r3, lsl #1
 8000654:	bf08      	it	eq
 8000656:	ea20 70d3 	biceq.w	r0, r0, r3, lsr #31
 800065a:	bd70      	pop	{r4, r5, r6, pc}
 800065c:	f1c4 0520 	rsb	r5, r4, #32
 8000660:	fa00 f205 	lsl.w	r2, r0, r5
 8000664:	ea4e 0e02 	orr.w	lr, lr, r2
 8000668:	fa20 f304 	lsr.w	r3, r0, r4
 800066c:	fa01 f205 	lsl.w	r2, r1, r5
 8000670:	ea43 0302 	orr.w	r3, r3, r2
 8000674:	fa21 f004 	lsr.w	r0, r1, r4
 8000678:	f001 4100 	and.w	r1, r1, #2147483648	; 0x80000000
 800067c:	fa21 f204 	lsr.w	r2, r1, r4
 8000680:	ea20 0002 	bic.w	r0, r0, r2
 8000684:	eb00 70d3 	add.w	r0, r0, r3, lsr #31
 8000688:	ea5e 0e43 	orrs.w	lr, lr, r3, lsl #1
 800068c:	bf08      	it	eq
 800068e:	ea20 70d3 	biceq.w	r0, r0, r3, lsr #31
 8000692:	bd70      	pop	{r4, r5, r6, pc}
 8000694:	f094 0f00 	teq	r4, #0
 8000698:	d10f      	bne.n	80006ba <__aeabi_dmul+0x1c2>
 800069a:	f001 4600 	and.w	r6, r1, #2147483648	; 0x80000000
 800069e:	0040      	lsls	r0, r0, #1
 80006a0:	eb41 0101 	adc.w	r1, r1, r1
 80006a4:	f411 1f80 	tst.w	r1, #1048576	; 0x100000
 80006a8:	bf08      	it	eq
 80006aa:	3c01      	subeq	r4, #1
 80006ac:	d0f7      	beq.n	800069e <__aeabi_dmul+0x1a6>
 80006ae:	ea41 0106 	orr.w	r1, r1, r6
 80006b2:	f095 0f00 	teq	r5, #0
 80006b6:	bf18      	it	ne
 80006b8:	4770      	bxne	lr
 80006ba:	f003 4600 	and.w	r6, r3, #2147483648	; 0x80000000
 80006be:	0052      	lsls	r2, r2, #1
 80006c0:	eb43 0303 	adc.w	r3, r3, r3
 80006c4:	f413 1f80 	tst.w	r3, #1048576	; 0x100000
 80006c8:	bf08      	it	eq
 80006ca:	3d01      	subeq	r5, #1
 80006cc:	d0f7      	beq.n	80006be <__aeabi_dmul+0x1c6>
 80006ce:	ea43 0306 	orr.w	r3, r3, r6
 80006d2:	4770      	bx	lr
 80006d4:	ea94 0f0c 	teq	r4, ip
 80006d8:	ea0c 5513 	and.w	r5, ip, r3, lsr #20
 80006dc:	bf18      	it	ne
 80006de:	ea95 0f0c 	teqne	r5, ip
 80006e2:	d00c      	beq.n	80006fe <__aeabi_dmul+0x206>
 80006e4:	ea50 0641 	orrs.w	r6, r0, r1, lsl #1
 80006e8:	bf18      	it	ne
 80006ea:	ea52 0643 	orrsne.w	r6, r2, r3, lsl #1
 80006ee:	d1d1      	bne.n	8000694 <__aeabi_dmul+0x19c>
 80006f0:	ea81 0103 	eor.w	r1, r1, r3
 80006f4:	f001 4100 	and.w	r1, r1, #2147483648	; 0x80000000
 80006f8:	f04f 0000 	mov.w	r0, #0
 80006fc:	bd70      	pop	{r4, r5, r6, pc}
 80006fe:	ea50 0641 	orrs.w	r6, r0, r1, lsl #1
 8000702:	bf06      	itte	eq
 8000704:	4610      	moveq	r0, r2
 8000706:	4619      	moveq	r1, r3
 8000708:	ea52 0643 	orrsne.w	r6, r2, r3, lsl #1
 800070c:	d019      	beq.n	8000742 <__aeabi_dmul+0x24a>
 800070e:	ea94 0f0c 	teq	r4, ip
 8000712:	d102      	bne.n	800071a <__aeabi_dmul+0x222>
 8000714:	ea50 3601 	orrs.w	r6, r0, r1, lsl #12
 8000718:	d113      	bne.n	8000742 <__aeabi_dmul+0x24a>
 800071a:	ea95 0f0c 	teq	r5, ip
 800071e:	d105      	bne.n	800072c <__aeabi_dmul+0x234>
 8000720:	ea52 3603 	orrs.w	r6, r2, r3, lsl #12
 8000724:	bf1c      	itt	ne
 8000726:	4610      	movne	r0, r2
 8000728:	4619      	movne	r1, r3
 800072a:	d10a      	bne.n	8000742 <__aeabi_dmul+0x24a>
 800072c:	ea81 0103 	eor.w	r1, r1, r3
 8000730:	f001 4100 	and.w	r1, r1, #2147483648	; 0x80000000
 8000734:	f041 41fe 	orr.w	r1, r1, #2130706432	; 0x7f000000
 8000738:	f441 0170 	orr.w	r1, r1, #15728640	; 0xf00000
 800073c:	f04f 0000 	mov.w	r0, #0
 8000740:	bd70      	pop	{r4, r5, r6, pc}
 8000742:	f041 41fe 	orr.w	r1, r1, #2130706432	; 0x7f000000
 8000746:	f441 0178 	orr.w	r1, r1, #16252928	; 0xf80000
 800074a:	bd70      	pop	{r4, r5, r6, pc}

0800074c <__aeabi_ddiv>:
 800074c:	b570      	push	{r4, r5, r6, lr}
 800074e:	f04f 0cff 	mov.w	ip, #255	; 0xff
 8000752:	f44c 6ce0 	orr.w	ip, ip, #1792	; 0x700
 8000756:	ea1c 5411 	ands.w	r4, ip, r1, lsr #20
 800075a:	bf1d      	ittte	ne
 800075c:	ea1c 5513 	andsne.w	r5, ip, r3, lsr #20
 8000760:	ea94 0f0c 	teqne	r4, ip
 8000764:	ea95 0f0c 	teqne	r5, ip
 8000768:	f000 f8a7 	bleq	80008ba <__aeabi_ddiv+0x16e>
 800076c:	eba4 0405 	sub.w	r4, r4, r5
 8000770:	ea81 0e03 	eor.w	lr, r1, r3
 8000774:	ea52 3503 	orrs.w	r5, r2, r3, lsl #12
 8000778:	ea4f 3101 	mov.w	r1, r1, lsl #12
 800077c:	f000 8088 	beq.w	8000890 <__aeabi_ddiv+0x144>
 8000780:	ea4f 3303 	mov.w	r3, r3, lsl #12
 8000784:	f04f 5580 	mov.w	r5, #268435456	; 0x10000000
 8000788:	ea45 1313 	orr.w	r3, r5, r3, lsr #4
 800078c:	ea43 6312 	orr.w	r3, r3, r2, lsr #24
 8000790:	ea4f 2202 	mov.w	r2, r2, lsl #8
 8000794:	ea45 1511 	orr.w	r5, r5, r1, lsr #4
 8000798:	ea45 6510 	orr.w	r5, r5, r0, lsr #24
 800079c:	ea4f 2600 	mov.w	r6, r0, lsl #8
 80007a0:	f00e 4100 	and.w	r1, lr, #2147483648	; 0x80000000
 80007a4:	429d      	cmp	r5, r3
 80007a6:	bf08      	it	eq
 80007a8:	4296      	cmpeq	r6, r2
 80007aa:	f144 04fd 	adc.w	r4, r4, #253	; 0xfd
 80007ae:	f504 7440 	add.w	r4, r4, #768	; 0x300
 80007b2:	d202      	bcs.n	80007ba <__aeabi_ddiv+0x6e>
 80007b4:	085b      	lsrs	r3, r3, #1
 80007b6:	ea4f 0232 	mov.w	r2, r2, rrx
 80007ba:	1ab6      	subs	r6, r6, r2
 80007bc:	eb65 0503 	sbc.w	r5, r5, r3
 80007c0:	085b      	lsrs	r3, r3, #1
 80007c2:	ea4f 0232 	mov.w	r2, r2, rrx
 80007c6:	f44f 1080 	mov.w	r0, #1048576	; 0x100000
 80007ca:	f44f 2c00 	mov.w	ip, #524288	; 0x80000
 80007ce:	ebb6 0e02 	subs.w	lr, r6, r2
 80007d2:	eb75 0e03 	sbcs.w	lr, r5, r3
 80007d6:	bf22      	ittt	cs
 80007d8:	1ab6      	subcs	r6, r6, r2
 80007da:	4675      	movcs	r5, lr
 80007dc:	ea40 000c 	orrcs.w	r0, r0, ip
 80007e0:	085b      	lsrs	r3, r3, #1
 80007e2:	ea4f 0232 	mov.w	r2, r2, rrx
 80007e6:	ebb6 0e02 	subs.w	lr, r6, r2
 80007ea:	eb75 0e03 	sbcs.w	lr, r5, r3
 80007ee:	bf22      	ittt	cs
 80007f0:	1ab6      	subcs	r6, r6, r2
 80007f2:	4675      	movcs	r5, lr
 80007f4:	ea40 005c 	orrcs.w	r0, r0, ip, lsr #1
 80007f8:	085b      	lsrs	r3, r3, #1
 80007fa:	ea4f 0232 	mov.w	r2, r2, rrx
 80007fe:	ebb6 0e02 	subs.w	lr, r6, r2
 8000802:	eb75 0e03 	sbcs.w	lr, r5, r3
 8000806:	bf22      	ittt	cs
 8000808:	1ab6      	subcs	r6, r6, r2
 800080a:	4675      	movcs	r5, lr
 800080c:	ea40 009c 	orrcs.w	r0, r0, ip, lsr #2
 8000810:	085b      	lsrs	r3, r3, #1
 8000812:	ea4f 0232 	mov.w	r2, r2, rrx
 8000816:	ebb6 0e02 	subs.w	lr, r6, r2
 800081a:	eb75 0e03 	sbcs.w	lr, r5, r3
 800081e:	bf22      	ittt	cs
 8000820:	1ab6      	subcs	r6, r6, r2
 8000822:	4675      	movcs	r5, lr
 8000824:	ea40 00dc 	orrcs.w	r0, r0, ip, lsr #3
 8000828:	ea55 0e06 	orrs.w	lr, r5, r6
 800082c:	d018      	beq.n	8000860 <__aeabi_ddiv+0x114>
 800082e:	ea4f 1505 	mov.w	r5, r5, lsl #4
 8000832:	ea45 7516 	orr.w	r5, r5, r6, lsr #28
 8000836:	ea4f 1606 	mov.w	r6, r6, lsl #4
 800083a:	ea4f 03c3 	mov.w	r3, r3, lsl #3
 800083e:	ea43 7352 	orr.w	r3, r3, r2, lsr #29
 8000842:	ea4f 02c2 	mov.w	r2, r2, lsl #3
 8000846:	ea5f 1c1c 	movs.w	ip, ip, lsr #4
 800084a:	d1c0      	bne.n	80007ce <__aeabi_ddiv+0x82>
 800084c:	f411 1f80 	tst.w	r1, #1048576	; 0x100000
 8000850:	d10b      	bne.n	800086a <__aeabi_ddiv+0x11e>
 8000852:	ea41 0100 	orr.w	r1, r1, r0
 8000856:	f04f 0000 	mov.w	r0, #0
 800085a:	f04f 4c00 	mov.w	ip, #2147483648	; 0x80000000
 800085e:	e7b6      	b.n	80007ce <__aeabi_ddiv+0x82>
 8000860:	f411 1f80 	tst.w	r1, #1048576	; 0x100000
 8000864:	bf04      	itt	eq
 8000866:	4301      	orreq	r1, r0
 8000868:	2000      	moveq	r0, #0
 800086a:	f1b4 0cfd 	subs.w	ip, r4, #253	; 0xfd
 800086e:	bf88      	it	hi
 8000870:	f5bc 6fe0 	cmphi.w	ip, #1792	; 0x700
 8000874:	f63f aeaf 	bhi.w	80005d6 <__aeabi_dmul+0xde>
 8000878:	ebb5 0c03 	subs.w	ip, r5, r3
 800087c:	bf04      	itt	eq
 800087e:	ebb6 0c02 	subseq.w	ip, r6, r2
 8000882:	ea5f 0c50 	movseq.w	ip, r0, lsr #1
 8000886:	f150 0000 	adcs.w	r0, r0, #0
 800088a:	eb41 5104 	adc.w	r1, r1, r4, lsl #20
 800088e:	bd70      	pop	{r4, r5, r6, pc}
 8000890:	f00e 4e00 	and.w	lr, lr, #2147483648	; 0x80000000
 8000894:	ea4e 3111 	orr.w	r1, lr, r1, lsr #12
 8000898:	eb14 045c 	adds.w	r4, r4, ip, lsr #1
 800089c:	bfc2      	ittt	gt
 800089e:	ebd4 050c 	rsbsgt	r5, r4, ip
 80008a2:	ea41 5104 	orrgt.w	r1, r1, r4, lsl #20
 80008a6:	bd70      	popgt	{r4, r5, r6, pc}
 80008a8:	f441 1180 	orr.w	r1, r1, #1048576	; 0x100000
 80008ac:	f04f 0e00 	mov.w	lr, #0
 80008b0:	3c01      	subs	r4, #1
 80008b2:	e690      	b.n	80005d6 <__aeabi_dmul+0xde>
 80008b4:	ea45 0e06 	orr.w	lr, r5, r6
 80008b8:	e68d      	b.n	80005d6 <__aeabi_dmul+0xde>
 80008ba:	ea0c 5513 	and.w	r5, ip, r3, lsr #20
 80008be:	ea94 0f0c 	teq	r4, ip
 80008c2:	bf08      	it	eq
 80008c4:	ea95 0f0c 	teqeq	r5, ip
 80008c8:	f43f af3b 	beq.w	8000742 <__aeabi_dmul+0x24a>
 80008cc:	ea94 0f0c 	teq	r4, ip
 80008d0:	d10a      	bne.n	80008e8 <__aeabi_ddiv+0x19c>
 80008d2:	ea50 3401 	orrs.w	r4, r0, r1, lsl #12
 80008d6:	f47f af34 	bne.w	8000742 <__aeabi_dmul+0x24a>
 80008da:	ea95 0f0c 	teq	r5, ip
 80008de:	f47f af25 	bne.w	800072c <__aeabi_dmul+0x234>
 80008e2:	4610      	mov	r0, r2
 80008e4:	4619      	mov	r1, r3
 80008e6:	e72c      	b.n	8000742 <__aeabi_dmul+0x24a>
 80008e8:	ea95 0f0c 	teq	r5, ip
 80008ec:	d106      	bne.n	80008fc <__aeabi_ddiv+0x1b0>
 80008ee:	ea52 3503 	orrs.w	r5, r2, r3, lsl #12
 80008f2:	f43f aefd 	beq.w	80006f0 <__aeabi_dmul+0x1f8>
 80008f6:	4610      	mov	r0, r2
 80008f8:	4619      	mov	r1, r3
 80008fa:	e722      	b.n	8000742 <__aeabi_dmul+0x24a>
 80008fc:	ea50 0641 	orrs.w	r6, r0, r1, lsl #1
 8000900:	bf18      	it	ne
 8000902:	ea52 0643 	orrsne.w	r6, r2, r3, lsl #1
 8000906:	f47f aec5 	bne.w	8000694 <__aeabi_dmul+0x19c>
 800090a:	ea50 0441 	orrs.w	r4, r0, r1, lsl #1
 800090e:	f47f af0d 	bne.w	800072c <__aeabi_dmul+0x234>
 8000912:	ea52 0543 	orrs.w	r5, r2, r3, lsl #1
 8000916:	f47f aeeb 	bne.w	80006f0 <__aeabi_dmul+0x1f8>
 800091a:	e712      	b.n	8000742 <__aeabi_dmul+0x24a>

0800091c <__gedf2>:
 800091c:	f04f 3cff 	mov.w	ip, #4294967295
 8000920:	e006      	b.n	8000930 <__cmpdf2+0x4>
 8000922:	bf00      	nop

08000924 <__ledf2>:
 8000924:	f04f 0c01 	mov.w	ip, #1
 8000928:	e002      	b.n	8000930 <__cmpdf2+0x4>
 800092a:	bf00      	nop

0800092c <__cmpdf2>:
 800092c:	f04f 0c01 	mov.w	ip, #1
 8000930:	f84d cd04 	str.w	ip, [sp, #-4]!
 8000934:	ea4f 0c41 	mov.w	ip, r1, lsl #1
 8000938:	ea7f 5c6c 	mvns.w	ip, ip, asr #21
 800093c:	ea4f 0c43 	mov.w	ip, r3, lsl #1
 8000940:	bf18      	it	ne
 8000942:	ea7f 5c6c 	mvnsne.w	ip, ip, asr #21
 8000946:	d01b      	beq.n	8000980 <__cmpdf2+0x54>
 8000948:	b001      	add	sp, #4
 800094a:	ea50 0c41 	orrs.w	ip, r0, r1, lsl #1
 800094e:	bf0c      	ite	eq
 8000950:	ea52 0c43 	orrseq.w	ip, r2, r3, lsl #1
 8000954:	ea91 0f03 	teqne	r1, r3
 8000958:	bf02      	ittt	eq
 800095a:	ea90 0f02 	teqeq	r0, r2
 800095e:	2000      	moveq	r0, #0
 8000960:	4770      	bxeq	lr
 8000962:	f110 0f00 	cmn.w	r0, #0
 8000966:	ea91 0f03 	teq	r1, r3
 800096a:	bf58      	it	pl
 800096c:	4299      	cmppl	r1, r3
 800096e:	bf08      	it	eq
 8000970:	4290      	cmpeq	r0, r2
 8000972:	bf2c      	ite	cs
 8000974:	17d8      	asrcs	r0, r3, #31
 8000976:	ea6f 70e3 	mvncc.w	r0, r3, asr #31
 800097a:	f040 0001 	orr.w	r0, r0, #1
 800097e:	4770      	bx	lr
 8000980:	ea4f 0c41 	mov.w	ip, r1, lsl #1
 8000984:	ea7f 5c6c 	mvns.w	ip, ip, asr #21
 8000988:	d102      	bne.n	8000990 <__cmpdf2+0x64>
 800098a:	ea50 3c01 	orrs.w	ip, r0, r1, lsl #12
 800098e:	d107      	bne.n	80009a0 <__cmpdf2+0x74>
 8000990:	ea4f 0c43 	mov.w	ip, r3, lsl #1
 8000994:	ea7f 5c6c 	mvns.w	ip, ip, asr #21
 8000998:	d1d6      	bne.n	8000948 <__cmpdf2+0x1c>
 800099a:	ea52 3c03 	orrs.w	ip, r2, r3, lsl #12
 800099e:	d0d3      	beq.n	8000948 <__cmpdf2+0x1c>
 80009a0:	f85d 0b04 	ldr.w	r0, [sp], #4
 80009a4:	4770      	bx	lr
 80009a6:	bf00      	nop

080009a8 <__aeabi_cdrcmple>:
 80009a8:	4684      	mov	ip, r0
 80009aa:	4610      	mov	r0, r2
 80009ac:	4662      	mov	r2, ip
 80009ae:	468c      	mov	ip, r1
 80009b0:	4619      	mov	r1, r3
 80009b2:	4663      	mov	r3, ip
 80009b4:	e000      	b.n	80009b8 <__aeabi_cdcmpeq>
 80009b6:	bf00      	nop

080009b8 <__aeabi_cdcmpeq>:
 80009b8:	b501      	push	{r0, lr}
 80009ba:	f7ff ffb7 	bl	800092c <__cmpdf2>
 80009be:	2800      	cmp	r0, #0
 80009c0:	bf48      	it	mi
 80009c2:	f110 0f00 	cmnmi.w	r0, #0
 80009c6:	bd01      	pop	{r0, pc}

080009c8 <__aeabi_dcmpeq>:
 80009c8:	f84d ed08 	str.w	lr, [sp, #-8]!
 80009cc:	f7ff fff4 	bl	80009b8 <__aeabi_cdcmpeq>
 80009d0:	bf0c      	ite	eq
 80009d2:	2001      	moveq	r0, #1
 80009d4:	2000      	movne	r0, #0
 80009d6:	f85d fb08 	ldr.w	pc, [sp], #8
 80009da:	bf00      	nop

080009dc <__aeabi_dcmplt>:
 80009dc:	f84d ed08 	str.w	lr, [sp, #-8]!
 80009e0:	f7ff ffea 	bl	80009b8 <__aeabi_cdcmpeq>
 80009e4:	bf34      	ite	cc
 80009e6:	2001      	movcc	r0, #1
 80009e8:	2000      	movcs	r0, #0
 80009ea:	f85d fb08 	ldr.w	pc, [sp], #8
 80009ee:	bf00      	nop

080009f0 <__aeabi_dcmple>:
 80009f0:	f84d ed08 	str.w	lr, [sp, #-8]!
 80009f4:	f7ff ffe0 	bl	80009b8 <__aeabi_cdcmpeq>
 80009f8:	bf94      	ite	ls
 80009fa:	2001      	movls	r0, #1
 80009fc:	2000      	movhi	r0, #0
 80009fe:	f85d fb08 	ldr.w	pc, [sp], #8
 8000a02:	bf00      	nop

08000a04 <__aeabi_dcmpge>:
 8000a04:	f84d ed08 	str.w	lr, [sp, #-8]!
 8000a08:	f7ff ffce 	bl	80009a8 <__aeabi_cdrcmple>
 8000a0c:	bf94      	ite	ls
 8000a0e:	2001      	movls	r0, #1
 8000a10:	2000      	movhi	r0, #0
 8000a12:	f85d fb08 	ldr.w	pc, [sp], #8
 8000a16:	bf00      	nop

08000a18 <__aeabi_dcmpgt>:
 8000a18:	f84d ed08 	str.w	lr, [sp, #-8]!
 8000a1c:	f7ff ffc4 	bl	80009a8 <__aeabi_cdrcmple>
 8000a20:	bf34      	ite	cc
 8000a22:	2001      	movcc	r0, #1
 8000a24:	2000      	movcs	r0, #0
 8000a26:	f85d fb08 	ldr.w	pc, [sp], #8
 8000a2a:	bf00      	nop

08000a2c <__aeabi_d2iz>:
 8000a2c:	ea4f 0241 	mov.w	r2, r1, lsl #1
 8000a30:	f512 1200 	adds.w	r2, r2, #2097152	; 0x200000
 8000a34:	d215      	bcs.n	8000a62 <__aeabi_d2iz+0x36>
 8000a36:	d511      	bpl.n	8000a5c <__aeabi_d2iz+0x30>
 8000a38:	f46f 7378 	mvn.w	r3, #992	; 0x3e0
 8000a3c:	ebb3 5262 	subs.w	r2, r3, r2, asr #21
 8000a40:	d912      	bls.n	8000a68 <__aeabi_d2iz+0x3c>
 8000a42:	ea4f 23c1 	mov.w	r3, r1, lsl #11
 8000a46:	f043 4300 	orr.w	r3, r3, #2147483648	; 0x80000000
 8000a4a:	ea43 5350 	orr.w	r3, r3, r0, lsr #21
 8000a4e:	f011 4f00 	tst.w	r1, #2147483648	; 0x80000000
 8000a52:	fa23 f002 	lsr.w	r0, r3, r2
 8000a56:	bf18      	it	ne
 8000a58:	4240      	negne	r0, r0
 8000a5a:	4770      	bx	lr
 8000a5c:	f04f 0000 	mov.w	r0, #0
 8000a60:	4770      	bx	lr
 8000a62:	ea50 3001 	orrs.w	r0, r0, r1, lsl #12
 8000a66:	d105      	bne.n	8000a74 <__aeabi_d2iz+0x48>
 8000a68:	f011 4000 	ands.w	r0, r1, #2147483648	; 0x80000000
 8000a6c:	bf08      	it	eq
 8000a6e:	f06f 4000 	mvneq.w	r0, #2147483648	; 0x80000000
 8000a72:	4770      	bx	lr
 8000a74:	f04f 0000 	mov.w	r0, #0
 8000a78:	4770      	bx	lr
 8000a7a:	bf00      	nop

08000a7c <__aeabi_d2f>:
 8000a7c:	ea4f 0241 	mov.w	r2, r1, lsl #1
 8000a80:	f1b2 43e0 	subs.w	r3, r2, #1879048192	; 0x70000000
 8000a84:	bf24      	itt	cs
 8000a86:	f5b3 1c00 	subscs.w	ip, r3, #2097152	; 0x200000
 8000a8a:	f1dc 5cfe 	rsbscs	ip, ip, #532676608	; 0x1fc00000
 8000a8e:	d90d      	bls.n	8000aac <__aeabi_d2f+0x30>
 8000a90:	f001 4c00 	and.w	ip, r1, #2147483648	; 0x80000000
 8000a94:	ea4f 02c0 	mov.w	r2, r0, lsl #3
 8000a98:	ea4c 7050 	orr.w	r0, ip, r0, lsr #29
 8000a9c:	f1b2 4f00 	cmp.w	r2, #2147483648	; 0x80000000
 8000aa0:	eb40 0083 	adc.w	r0, r0, r3, lsl #2
 8000aa4:	bf08      	it	eq
 8000aa6:	f020 0001 	biceq.w	r0, r0, #1
 8000aaa:	4770      	bx	lr
 8000aac:	f011 4f80 	tst.w	r1, #1073741824	; 0x40000000
 8000ab0:	d121      	bne.n	8000af6 <__aeabi_d2f+0x7a>
 8000ab2:	f113 7238 	adds.w	r2, r3, #48234496	; 0x2e00000
 8000ab6:	bfbc      	itt	lt
 8000ab8:	f001 4000 	andlt.w	r0, r1, #2147483648	; 0x80000000
 8000abc:	4770      	bxlt	lr
 8000abe:	f441 1180 	orr.w	r1, r1, #1048576	; 0x100000
 8000ac2:	ea4f 5252 	mov.w	r2, r2, lsr #21
 8000ac6:	f1c2 0218 	rsb	r2, r2, #24
 8000aca:	f1c2 0c20 	rsb	ip, r2, #32
 8000ace:	fa10 f30c 	lsls.w	r3, r0, ip
 8000ad2:	fa20 f002 	lsr.w	r0, r0, r2
 8000ad6:	bf18      	it	ne
 8000ad8:	f040 0001 	orrne.w	r0, r0, #1
 8000adc:	ea4f 23c1 	mov.w	r3, r1, lsl #11
 8000ae0:	ea4f 23d3 	mov.w	r3, r3, lsr #11
 8000ae4:	fa03 fc0c 	lsl.w	ip, r3, ip
 8000ae8:	ea40 000c 	orr.w	r0, r0, ip
 8000aec:	fa23 f302 	lsr.w	r3, r3, r2
 8000af0:	ea4f 0343 	mov.w	r3, r3, lsl #1
 8000af4:	e7cc      	b.n	8000a90 <__aeabi_d2f+0x14>
 8000af6:	ea7f 5362 	mvns.w	r3, r2, asr #21
 8000afa:	d107      	bne.n	8000b0c <__aeabi_d2f+0x90>
 8000afc:	ea50 3301 	orrs.w	r3, r0, r1, lsl #12
 8000b00:	bf1e      	ittt	ne
 8000b02:	f04f 40fe 	movne.w	r0, #2130706432	; 0x7f000000
 8000b06:	f440 0040 	orrne.w	r0, r0, #12582912	; 0xc00000
 8000b0a:	4770      	bxne	lr
 8000b0c:	f001 4000 	and.w	r0, r1, #2147483648	; 0x80000000
 8000b10:	f040 40fe 	orr.w	r0, r0, #2130706432	; 0x7f000000
 8000b14:	f440 0000 	orr.w	r0, r0, #8388608	; 0x800000
 8000b18:	4770      	bx	lr
 8000b1a:	bf00      	nop

08000b1c <__aeabi_uldivmod>:
 8000b1c:	b94b      	cbnz	r3, 8000b32 <__aeabi_uldivmod+0x16>
 8000b1e:	b942      	cbnz	r2, 8000b32 <__aeabi_uldivmod+0x16>
 8000b20:	2900      	cmp	r1, #0
 8000b22:	bf08      	it	eq
 8000b24:	2800      	cmpeq	r0, #0
 8000b26:	d002      	beq.n	8000b2e <__aeabi_uldivmod+0x12>
 8000b28:	f04f 31ff 	mov.w	r1, #4294967295
 8000b2c:	4608      	mov	r0, r1
 8000b2e:	f000 b837 	b.w	8000ba0 <__aeabi_idiv0>
 8000b32:	b082      	sub	sp, #8
 8000b34:	46ec      	mov	ip, sp
 8000b36:	e92d 5000 	stmdb	sp!, {ip, lr}
 8000b3a:	f000 f81b 	bl	8000b74 <__gnu_uldivmod_helper>
 8000b3e:	f8dd e004 	ldr.w	lr, [sp, #4]
 8000b42:	b002      	add	sp, #8
 8000b44:	bc0c      	pop	{r2, r3}
 8000b46:	4770      	bx	lr

08000b48 <__gnu_ldivmod_helper>:
 8000b48:	b5f8      	push	{r3, r4, r5, r6, r7, lr}
 8000b4a:	4616      	mov	r6, r2
 8000b4c:	4604      	mov	r4, r0
 8000b4e:	460d      	mov	r5, r1
 8000b50:	461f      	mov	r7, r3
 8000b52:	f000 f827 	bl	8000ba4 <__divdi3>
 8000b56:	fb06 f301 	mul.w	r3, r6, r1
 8000b5a:	fb00 3707 	mla	r7, r0, r7, r3
 8000b5e:	fba6 2300 	umull	r2, r3, r6, r0
 8000b62:	18fb      	adds	r3, r7, r3
 8000b64:	1aa2      	subs	r2, r4, r2
 8000b66:	eb65 0303 	sbc.w	r3, r5, r3
 8000b6a:	9c06      	ldr	r4, [sp, #24]
 8000b6c:	e9c4 2300 	strd	r2, r3, [r4]
 8000b70:	bdf8      	pop	{r3, r4, r5, r6, r7, pc}
 8000b72:	bf00      	nop

08000b74 <__gnu_uldivmod_helper>:
 8000b74:	b5f8      	push	{r3, r4, r5, r6, r7, lr}
 8000b76:	4616      	mov	r6, r2
 8000b78:	4604      	mov	r4, r0
 8000b7a:	460d      	mov	r5, r1
 8000b7c:	461f      	mov	r7, r3
 8000b7e:	f000 f96f 	bl	8000e60 <__udivdi3>
 8000b82:	fb00 f707 	mul.w	r7, r0, r7
 8000b86:	fba0 2306 	umull	r2, r3, r0, r6
 8000b8a:	fb06 7701 	mla	r7, r6, r1, r7
 8000b8e:	18fb      	adds	r3, r7, r3
 8000b90:	1aa2      	subs	r2, r4, r2
 8000b92:	eb65 0303 	sbc.w	r3, r5, r3
 8000b96:	9c06      	ldr	r4, [sp, #24]
 8000b98:	e9c4 2300 	strd	r2, r3, [r4]
 8000b9c:	bdf8      	pop	{r3, r4, r5, r6, r7, pc}
 8000b9e:	bf00      	nop

08000ba0 <__aeabi_idiv0>:
 8000ba0:	4770      	bx	lr
 8000ba2:	bf00      	nop

08000ba4 <__divdi3>:
 8000ba4:	2900      	cmp	r1, #0
 8000ba6:	e92d 0ff0 	stmdb	sp!, {r4, r5, r6, r7, r8, r9, sl, fp}
 8000baa:	461d      	mov	r5, r3
 8000bac:	f2c0 809d 	blt.w	8000cea <__divdi3+0x146>
 8000bb0:	2400      	movs	r4, #0
 8000bb2:	2d00      	cmp	r5, #0
 8000bb4:	f2c0 8094 	blt.w	8000ce0 <__divdi3+0x13c>
 8000bb8:	4680      	mov	r8, r0
 8000bba:	460f      	mov	r7, r1
 8000bbc:	4694      	mov	ip, r2
 8000bbe:	461e      	mov	r6, r3
 8000bc0:	bbe3      	cbnz	r3, 8000c3c <__divdi3+0x98>
 8000bc2:	428a      	cmp	r2, r1
 8000bc4:	d955      	bls.n	8000c72 <__divdi3+0xce>
 8000bc6:	fab2 f782 	clz	r7, r2
 8000bca:	b147      	cbz	r7, 8000bde <__divdi3+0x3a>
 8000bcc:	f1c7 0520 	rsb	r5, r7, #32
 8000bd0:	fa20 f605 	lsr.w	r6, r0, r5
 8000bd4:	fa01 f107 	lsl.w	r1, r1, r7
 8000bd8:	40ba      	lsls	r2, r7
 8000bda:	4331      	orrs	r1, r6
 8000bdc:	40b8      	lsls	r0, r7
 8000bde:	0c17      	lsrs	r7, r2, #16
 8000be0:	fbb1 f6f7 	udiv	r6, r1, r7
 8000be4:	0c03      	lsrs	r3, r0, #16
 8000be6:	fa1f fc82 	uxth.w	ip, r2
 8000bea:	fb07 1116 	mls	r1, r7, r6, r1
 8000bee:	fb0c f506 	mul.w	r5, ip, r6
 8000bf2:	ea43 4301 	orr.w	r3, r3, r1, lsl #16
 8000bf6:	429d      	cmp	r5, r3
 8000bf8:	d908      	bls.n	8000c0c <__divdi3+0x68>
 8000bfa:	1e71      	subs	r1, r6, #1
 8000bfc:	189b      	adds	r3, r3, r2
 8000bfe:	f080 8113 	bcs.w	8000e28 <__divdi3+0x284>
 8000c02:	429d      	cmp	r5, r3
 8000c04:	f240 8110 	bls.w	8000e28 <__divdi3+0x284>
 8000c08:	3e02      	subs	r6, #2
 8000c0a:	189b      	adds	r3, r3, r2
 8000c0c:	1b59      	subs	r1, r3, r5
 8000c0e:	fbb1 f5f7 	udiv	r5, r1, r7
 8000c12:	fb07 1315 	mls	r3, r7, r5, r1
 8000c16:	b280      	uxth	r0, r0
 8000c18:	fb0c fc05 	mul.w	ip, ip, r5
 8000c1c:	ea40 4103 	orr.w	r1, r0, r3, lsl #16
 8000c20:	458c      	cmp	ip, r1
 8000c22:	d907      	bls.n	8000c34 <__divdi3+0x90>
 8000c24:	1e6b      	subs	r3, r5, #1
 8000c26:	188a      	adds	r2, r1, r2
 8000c28:	f080 8100 	bcs.w	8000e2c <__divdi3+0x288>
 8000c2c:	4594      	cmp	ip, r2
 8000c2e:	f240 80fd 	bls.w	8000e2c <__divdi3+0x288>
 8000c32:	3d02      	subs	r5, #2
 8000c34:	ea45 4106 	orr.w	r1, r5, r6, lsl #16
 8000c38:	2500      	movs	r5, #0
 8000c3a:	e003      	b.n	8000c44 <__divdi3+0xa0>
 8000c3c:	428b      	cmp	r3, r1
 8000c3e:	d90c      	bls.n	8000c5a <__divdi3+0xb6>
 8000c40:	2500      	movs	r5, #0
 8000c42:	4629      	mov	r1, r5
 8000c44:	460a      	mov	r2, r1
 8000c46:	462b      	mov	r3, r5
 8000c48:	b114      	cbz	r4, 8000c50 <__divdi3+0xac>
 8000c4a:	4252      	negs	r2, r2
 8000c4c:	eb63 0343 	sbc.w	r3, r3, r3, lsl #1
 8000c50:	4610      	mov	r0, r2
 8000c52:	4619      	mov	r1, r3
 8000c54:	e8bd 0ff0 	ldmia.w	sp!, {r4, r5, r6, r7, r8, r9, sl, fp}
 8000c58:	4770      	bx	lr
 8000c5a:	fab3 f583 	clz	r5, r3
 8000c5e:	2d00      	cmp	r5, #0
 8000c60:	f040 8087 	bne.w	8000d72 <__divdi3+0x1ce>
 8000c64:	428b      	cmp	r3, r1
 8000c66:	d301      	bcc.n	8000c6c <__divdi3+0xc8>
 8000c68:	4282      	cmp	r2, r0
 8000c6a:	d8ea      	bhi.n	8000c42 <__divdi3+0x9e>
 8000c6c:	2500      	movs	r5, #0
 8000c6e:	2101      	movs	r1, #1
 8000c70:	e7e8      	b.n	8000c44 <__divdi3+0xa0>
 8000c72:	b912      	cbnz	r2, 8000c7a <__divdi3+0xd6>
 8000c74:	2601      	movs	r6, #1
 8000c76:	fbb6 f2f2 	udiv	r2, r6, r2
 8000c7a:	fab2 f682 	clz	r6, r2
 8000c7e:	2e00      	cmp	r6, #0
 8000c80:	d139      	bne.n	8000cf6 <__divdi3+0x152>
 8000c82:	1a8e      	subs	r6, r1, r2
 8000c84:	0c13      	lsrs	r3, r2, #16
 8000c86:	fa1f fc82 	uxth.w	ip, r2
 8000c8a:	2501      	movs	r5, #1
 8000c8c:	fbb6 f7f3 	udiv	r7, r6, r3
 8000c90:	fb03 6117 	mls	r1, r3, r7, r6
 8000c94:	ea4f 4910 	mov.w	r9, r0, lsr #16
 8000c98:	fb0c f807 	mul.w	r8, ip, r7
 8000c9c:	ea49 4601 	orr.w	r6, r9, r1, lsl #16
 8000ca0:	45b0      	cmp	r8, r6
 8000ca2:	d906      	bls.n	8000cb2 <__divdi3+0x10e>
 8000ca4:	1e79      	subs	r1, r7, #1
 8000ca6:	18b6      	adds	r6, r6, r2
 8000ca8:	d202      	bcs.n	8000cb0 <__divdi3+0x10c>
 8000caa:	45b0      	cmp	r8, r6
 8000cac:	f200 80d3 	bhi.w	8000e56 <__divdi3+0x2b2>
 8000cb0:	460f      	mov	r7, r1
 8000cb2:	ebc8 0606 	rsb	r6, r8, r6
 8000cb6:	fbb6 f1f3 	udiv	r1, r6, r3
 8000cba:	fb03 6311 	mls	r3, r3, r1, r6
 8000cbe:	b280      	uxth	r0, r0
 8000cc0:	fb0c fc01 	mul.w	ip, ip, r1
 8000cc4:	ea40 4303 	orr.w	r3, r0, r3, lsl #16
 8000cc8:	459c      	cmp	ip, r3
 8000cca:	d906      	bls.n	8000cda <__divdi3+0x136>
 8000ccc:	1e4e      	subs	r6, r1, #1
 8000cce:	189a      	adds	r2, r3, r2
 8000cd0:	d202      	bcs.n	8000cd8 <__divdi3+0x134>
 8000cd2:	4594      	cmp	ip, r2
 8000cd4:	f200 80c2 	bhi.w	8000e5c <__divdi3+0x2b8>
 8000cd8:	4631      	mov	r1, r6
 8000cda:	ea41 4107 	orr.w	r1, r1, r7, lsl #16
 8000cde:	e7b1      	b.n	8000c44 <__divdi3+0xa0>
 8000ce0:	43e4      	mvns	r4, r4
 8000ce2:	4252      	negs	r2, r2
 8000ce4:	eb63 0343 	sbc.w	r3, r3, r3, lsl #1
 8000ce8:	e766      	b.n	8000bb8 <__divdi3+0x14>
 8000cea:	4240      	negs	r0, r0
 8000cec:	eb61 0141 	sbc.w	r1, r1, r1, lsl #1
 8000cf0:	f04f 34ff 	mov.w	r4, #4294967295
 8000cf4:	e75d      	b.n	8000bb2 <__divdi3+0xe>
 8000cf6:	40b2      	lsls	r2, r6
 8000cf8:	f1c6 0920 	rsb	r9, r6, #32
 8000cfc:	fa21 f709 	lsr.w	r7, r1, r9
 8000d00:	fa20 f509 	lsr.w	r5, r0, r9
 8000d04:	0c13      	lsrs	r3, r2, #16
 8000d06:	fa01 f106 	lsl.w	r1, r1, r6
 8000d0a:	fbb7 f8f3 	udiv	r8, r7, r3
 8000d0e:	ea45 0901 	orr.w	r9, r5, r1
 8000d12:	fa1f fc82 	uxth.w	ip, r2
 8000d16:	fb03 7718 	mls	r7, r3, r8, r7
 8000d1a:	ea4f 4119 	mov.w	r1, r9, lsr #16
 8000d1e:	fb0c f508 	mul.w	r5, ip, r8
 8000d22:	ea41 4707 	orr.w	r7, r1, r7, lsl #16
 8000d26:	40b0      	lsls	r0, r6
 8000d28:	42bd      	cmp	r5, r7
 8000d2a:	d90a      	bls.n	8000d42 <__divdi3+0x19e>
 8000d2c:	18bf      	adds	r7, r7, r2
 8000d2e:	f108 36ff 	add.w	r6, r8, #4294967295
 8000d32:	f080 808e 	bcs.w	8000e52 <__divdi3+0x2ae>
 8000d36:	42bd      	cmp	r5, r7
 8000d38:	f240 808b 	bls.w	8000e52 <__divdi3+0x2ae>
 8000d3c:	f1a8 0802 	sub.w	r8, r8, #2
 8000d40:	18bf      	adds	r7, r7, r2
 8000d42:	1b79      	subs	r1, r7, r5
 8000d44:	fbb1 f5f3 	udiv	r5, r1, r3
 8000d48:	fb03 1715 	mls	r7, r3, r5, r1
 8000d4c:	fa1f f989 	uxth.w	r9, r9
 8000d50:	fb0c f605 	mul.w	r6, ip, r5
 8000d54:	ea49 4107 	orr.w	r1, r9, r7, lsl #16
 8000d58:	428e      	cmp	r6, r1
 8000d5a:	d906      	bls.n	8000d6a <__divdi3+0x1c6>
 8000d5c:	1e6f      	subs	r7, r5, #1
 8000d5e:	1889      	adds	r1, r1, r2
 8000d60:	d271      	bcs.n	8000e46 <__divdi3+0x2a2>
 8000d62:	428e      	cmp	r6, r1
 8000d64:	d96f      	bls.n	8000e46 <__divdi3+0x2a2>
 8000d66:	3d02      	subs	r5, #2
 8000d68:	1889      	adds	r1, r1, r2
 8000d6a:	1b8e      	subs	r6, r1, r6
 8000d6c:	ea45 4508 	orr.w	r5, r5, r8, lsl #16
 8000d70:	e78c      	b.n	8000c8c <__divdi3+0xe8>
 8000d72:	f1c5 0120 	rsb	r1, r5, #32
 8000d76:	fa22 f301 	lsr.w	r3, r2, r1
 8000d7a:	fa06 f605 	lsl.w	r6, r6, r5
 8000d7e:	431e      	orrs	r6, r3
 8000d80:	fa27 f201 	lsr.w	r2, r7, r1
 8000d84:	ea4f 4916 	mov.w	r9, r6, lsr #16
 8000d88:	fa07 f705 	lsl.w	r7, r7, r5
 8000d8c:	fa20 f101 	lsr.w	r1, r0, r1
 8000d90:	fbb2 f8f9 	udiv	r8, r2, r9
 8000d94:	430f      	orrs	r7, r1
 8000d96:	0c3b      	lsrs	r3, r7, #16
 8000d98:	fa1f fa86 	uxth.w	sl, r6
 8000d9c:	fb09 2218 	mls	r2, r9, r8, r2
 8000da0:	fb0a fb08 	mul.w	fp, sl, r8
 8000da4:	ea43 4202 	orr.w	r2, r3, r2, lsl #16
 8000da8:	4593      	cmp	fp, r2
 8000daa:	fa0c fc05 	lsl.w	ip, ip, r5
 8000dae:	d908      	bls.n	8000dc2 <__divdi3+0x21e>
 8000db0:	1992      	adds	r2, r2, r6
 8000db2:	f108 31ff 	add.w	r1, r8, #4294967295
 8000db6:	d24a      	bcs.n	8000e4e <__divdi3+0x2aa>
 8000db8:	4593      	cmp	fp, r2
 8000dba:	d948      	bls.n	8000e4e <__divdi3+0x2aa>
 8000dbc:	f1a8 0802 	sub.w	r8, r8, #2
 8000dc0:	1992      	adds	r2, r2, r6
 8000dc2:	ebcb 0302 	rsb	r3, fp, r2
 8000dc6:	fbb3 f1f9 	udiv	r1, r3, r9
 8000dca:	fb09 3211 	mls	r2, r9, r1, r3
 8000dce:	b2bf      	uxth	r7, r7
 8000dd0:	fb0a fa01 	mul.w	sl, sl, r1
 8000dd4:	ea47 4302 	orr.w	r3, r7, r2, lsl #16
 8000dd8:	459a      	cmp	sl, r3
 8000dda:	d906      	bls.n	8000dea <__divdi3+0x246>
 8000ddc:	1e4a      	subs	r2, r1, #1
 8000dde:	199b      	adds	r3, r3, r6
 8000de0:	d233      	bcs.n	8000e4a <__divdi3+0x2a6>
 8000de2:	459a      	cmp	sl, r3
 8000de4:	d931      	bls.n	8000e4a <__divdi3+0x2a6>
 8000de6:	3902      	subs	r1, #2
 8000de8:	199b      	adds	r3, r3, r6
 8000dea:	ea41 4108 	orr.w	r1, r1, r8, lsl #16
 8000dee:	0c0f      	lsrs	r7, r1, #16
 8000df0:	fa1f f88c 	uxth.w	r8, ip
 8000df4:	fb08 f607 	mul.w	r6, r8, r7
 8000df8:	b28a      	uxth	r2, r1
 8000dfa:	ea4f 4c1c 	mov.w	ip, ip, lsr #16
 8000dfe:	fb08 f802 	mul.w	r8, r8, r2
 8000e02:	fb0c 6202 	mla	r2, ip, r2, r6
 8000e06:	eb02 4218 	add.w	r2, r2, r8, lsr #16
 8000e0a:	fb0c fc07 	mul.w	ip, ip, r7
 8000e0e:	4296      	cmp	r6, r2
 8000e10:	bf88      	it	hi
 8000e12:	f50c 3c80 	addhi.w	ip, ip, #65536	; 0x10000
 8000e16:	ebca 0303 	rsb	r3, sl, r3
 8000e1a:	eb0c 4c12 	add.w	ip, ip, r2, lsr #16
 8000e1e:	4563      	cmp	r3, ip
 8000e20:	d30e      	bcc.n	8000e40 <__divdi3+0x29c>
 8000e22:	d005      	beq.n	8000e30 <__divdi3+0x28c>
 8000e24:	2500      	movs	r5, #0
 8000e26:	e70d      	b.n	8000c44 <__divdi3+0xa0>
 8000e28:	460e      	mov	r6, r1
 8000e2a:	e6ef      	b.n	8000c0c <__divdi3+0x68>
 8000e2c:	461d      	mov	r5, r3
 8000e2e:	e701      	b.n	8000c34 <__divdi3+0x90>
 8000e30:	fa1f f888 	uxth.w	r8, r8
 8000e34:	fa00 f005 	lsl.w	r0, r0, r5
 8000e38:	eb08 4502 	add.w	r5, r8, r2, lsl #16
 8000e3c:	42a8      	cmp	r0, r5
 8000e3e:	d2f1      	bcs.n	8000e24 <__divdi3+0x280>
 8000e40:	3901      	subs	r1, #1
 8000e42:	2500      	movs	r5, #0
 8000e44:	e6fe      	b.n	8000c44 <__divdi3+0xa0>
 8000e46:	463d      	mov	r5, r7
 8000e48:	e78f      	b.n	8000d6a <__divdi3+0x1c6>
 8000e4a:	4611      	mov	r1, r2
 8000e4c:	e7cd      	b.n	8000dea <__divdi3+0x246>
 8000e4e:	4688      	mov	r8, r1
 8000e50:	e7b7      	b.n	8000dc2 <__divdi3+0x21e>
 8000e52:	46b0      	mov	r8, r6
 8000e54:	e775      	b.n	8000d42 <__divdi3+0x19e>
 8000e56:	3f02      	subs	r7, #2
 8000e58:	18b6      	adds	r6, r6, r2
 8000e5a:	e72a      	b.n	8000cb2 <__divdi3+0x10e>
 8000e5c:	3902      	subs	r1, #2
 8000e5e:	e73c      	b.n	8000cda <__divdi3+0x136>

08000e60 <__udivdi3>:
 8000e60:	e92d 07f0 	stmdb	sp!, {r4, r5, r6, r7, r8, r9, sl}
 8000e64:	4614      	mov	r4, r2
 8000e66:	4605      	mov	r5, r0
 8000e68:	460e      	mov	r6, r1
 8000e6a:	2b00      	cmp	r3, #0
 8000e6c:	d13d      	bne.n	8000eea <__udivdi3+0x8a>
 8000e6e:	428a      	cmp	r2, r1
 8000e70:	d949      	bls.n	8000f06 <__udivdi3+0xa6>
 8000e72:	fab2 f782 	clz	r7, r2
 8000e76:	b147      	cbz	r7, 8000e8a <__udivdi3+0x2a>
 8000e78:	f1c7 0120 	rsb	r1, r7, #32
 8000e7c:	fa20 f201 	lsr.w	r2, r0, r1
 8000e80:	fa06 f607 	lsl.w	r6, r6, r7
 8000e84:	40bc      	lsls	r4, r7
 8000e86:	4316      	orrs	r6, r2
 8000e88:	40bd      	lsls	r5, r7
 8000e8a:	0c22      	lsrs	r2, r4, #16
 8000e8c:	fbb6 f0f2 	udiv	r0, r6, r2
 8000e90:	0c2f      	lsrs	r7, r5, #16
 8000e92:	b2a1      	uxth	r1, r4
 8000e94:	fb02 6610 	mls	r6, r2, r0, r6
 8000e98:	fb01 f300 	mul.w	r3, r1, r0
 8000e9c:	ea47 4606 	orr.w	r6, r7, r6, lsl #16
 8000ea0:	42b3      	cmp	r3, r6
 8000ea2:	d908      	bls.n	8000eb6 <__udivdi3+0x56>
 8000ea4:	1e47      	subs	r7, r0, #1
 8000ea6:	1936      	adds	r6, r6, r4
 8000ea8:	f080 80f8 	bcs.w	800109c <__udivdi3+0x23c>
 8000eac:	42b3      	cmp	r3, r6
 8000eae:	f240 80f5 	bls.w	800109c <__udivdi3+0x23c>
 8000eb2:	3802      	subs	r0, #2
 8000eb4:	1936      	adds	r6, r6, r4
 8000eb6:	1af6      	subs	r6, r6, r3
 8000eb8:	fbb6 f3f2 	udiv	r3, r6, r2
 8000ebc:	fb02 6213 	mls	r2, r2, r3, r6
 8000ec0:	b2ad      	uxth	r5, r5
 8000ec2:	fb01 f103 	mul.w	r1, r1, r3
 8000ec6:	ea45 4202 	orr.w	r2, r5, r2, lsl #16
 8000eca:	4291      	cmp	r1, r2
 8000ecc:	d907      	bls.n	8000ede <__udivdi3+0x7e>
 8000ece:	1e5e      	subs	r6, r3, #1
 8000ed0:	1912      	adds	r2, r2, r4
 8000ed2:	f080 80e5 	bcs.w	80010a0 <__udivdi3+0x240>
 8000ed6:	4291      	cmp	r1, r2
 8000ed8:	f240 80e2 	bls.w	80010a0 <__udivdi3+0x240>
 8000edc:	3b02      	subs	r3, #2
 8000ede:	ea43 4000 	orr.w	r0, r3, r0, lsl #16
 8000ee2:	2100      	movs	r1, #0
 8000ee4:	e8bd 07f0 	ldmia.w	sp!, {r4, r5, r6, r7, r8, r9, sl}
 8000ee8:	4770      	bx	lr
 8000eea:	428b      	cmp	r3, r1
 8000eec:	d843      	bhi.n	8000f76 <__udivdi3+0x116>
 8000eee:	fab3 f483 	clz	r4, r3
 8000ef2:	2c00      	cmp	r4, #0
 8000ef4:	d142      	bne.n	8000f7c <__udivdi3+0x11c>
 8000ef6:	428b      	cmp	r3, r1
 8000ef8:	d302      	bcc.n	8000f00 <__udivdi3+0xa0>
 8000efa:	4282      	cmp	r2, r0
 8000efc:	f200 80df 	bhi.w	80010be <__udivdi3+0x25e>
 8000f00:	2100      	movs	r1, #0
 8000f02:	2001      	movs	r0, #1
 8000f04:	e7ee      	b.n	8000ee4 <__udivdi3+0x84>
 8000f06:	b912      	cbnz	r2, 8000f0e <__udivdi3+0xae>
 8000f08:	2701      	movs	r7, #1
 8000f0a:	fbb7 f4f2 	udiv	r4, r7, r2
 8000f0e:	fab4 f284 	clz	r2, r4
 8000f12:	2a00      	cmp	r2, #0
 8000f14:	f040 8088 	bne.w	8001028 <__udivdi3+0x1c8>
 8000f18:	1b0a      	subs	r2, r1, r4
 8000f1a:	0c23      	lsrs	r3, r4, #16
 8000f1c:	b2a7      	uxth	r7, r4
 8000f1e:	2101      	movs	r1, #1
 8000f20:	fbb2 f6f3 	udiv	r6, r2, r3
 8000f24:	fb03 2216 	mls	r2, r3, r6, r2
 8000f28:	ea4f 4c15 	mov.w	ip, r5, lsr #16
 8000f2c:	fb07 f006 	mul.w	r0, r7, r6
 8000f30:	ea4c 4202 	orr.w	r2, ip, r2, lsl #16
 8000f34:	4290      	cmp	r0, r2
 8000f36:	d907      	bls.n	8000f48 <__udivdi3+0xe8>
 8000f38:	1912      	adds	r2, r2, r4
 8000f3a:	f106 3cff 	add.w	ip, r6, #4294967295
 8000f3e:	d202      	bcs.n	8000f46 <__udivdi3+0xe6>
 8000f40:	4290      	cmp	r0, r2
 8000f42:	f200 80ce 	bhi.w	80010e2 <__udivdi3+0x282>
 8000f46:	4666      	mov	r6, ip
 8000f48:	1a12      	subs	r2, r2, r0
 8000f4a:	fbb2 f0f3 	udiv	r0, r2, r3
 8000f4e:	fb03 2310 	mls	r3, r3, r0, r2
 8000f52:	b2ad      	uxth	r5, r5
 8000f54:	fb07 f700 	mul.w	r7, r7, r0
 8000f58:	ea45 4303 	orr.w	r3, r5, r3, lsl #16
 8000f5c:	429f      	cmp	r7, r3
 8000f5e:	d907      	bls.n	8000f70 <__udivdi3+0x110>
 8000f60:	1e42      	subs	r2, r0, #1
 8000f62:	191b      	adds	r3, r3, r4
 8000f64:	f080 809e 	bcs.w	80010a4 <__udivdi3+0x244>
 8000f68:	429f      	cmp	r7, r3
 8000f6a:	f240 809b 	bls.w	80010a4 <__udivdi3+0x244>
 8000f6e:	3802      	subs	r0, #2
 8000f70:	ea40 4006 	orr.w	r0, r0, r6, lsl #16
 8000f74:	e7b6      	b.n	8000ee4 <__udivdi3+0x84>
 8000f76:	2100      	movs	r1, #0
 8000f78:	4608      	mov	r0, r1
 8000f7a:	e7b3      	b.n	8000ee4 <__udivdi3+0x84>
 8000f7c:	f1c4 0620 	rsb	r6, r4, #32
 8000f80:	fa22 f506 	lsr.w	r5, r2, r6
 8000f84:	fa03 f304 	lsl.w	r3, r3, r4
 8000f88:	432b      	orrs	r3, r5
 8000f8a:	ea4f 4c13 	mov.w	ip, r3, lsr #16
 8000f8e:	fa21 f506 	lsr.w	r5, r1, r6
 8000f92:	fa01 f104 	lsl.w	r1, r1, r4
 8000f96:	fa20 f606 	lsr.w	r6, r0, r6
 8000f9a:	fbb5 f7fc 	udiv	r7, r5, ip
 8000f9e:	ea46 0a01 	orr.w	sl, r6, r1
 8000fa2:	fa1f f883 	uxth.w	r8, r3
 8000fa6:	fb0c 5517 	mls	r5, ip, r7, r5
 8000faa:	ea4f 411a 	mov.w	r1, sl, lsr #16
 8000fae:	fb08 f907 	mul.w	r9, r8, r7
 8000fb2:	ea41 4505 	orr.w	r5, r1, r5, lsl #16
 8000fb6:	45a9      	cmp	r9, r5
 8000fb8:	fa02 f204 	lsl.w	r2, r2, r4
 8000fbc:	d903      	bls.n	8000fc6 <__udivdi3+0x166>
 8000fbe:	1e7e      	subs	r6, r7, #1
 8000fc0:	18ed      	adds	r5, r5, r3
 8000fc2:	d37f      	bcc.n	80010c4 <__udivdi3+0x264>
 8000fc4:	4637      	mov	r7, r6
 8000fc6:	ebc9 0105 	rsb	r1, r9, r5
 8000fca:	fbb1 f6fc 	udiv	r6, r1, ip
 8000fce:	fb0c 1516 	mls	r5, ip, r6, r1
 8000fd2:	fa1f fa8a 	uxth.w	sl, sl
 8000fd6:	fb08 f806 	mul.w	r8, r8, r6
 8000fda:	ea4a 4105 	orr.w	r1, sl, r5, lsl #16
 8000fde:	4588      	cmp	r8, r1
 8000fe0:	d903      	bls.n	8000fea <__udivdi3+0x18a>
 8000fe2:	1e75      	subs	r5, r6, #1
 8000fe4:	18c9      	adds	r1, r1, r3
 8000fe6:	d373      	bcc.n	80010d0 <__udivdi3+0x270>
 8000fe8:	462e      	mov	r6, r5
 8000fea:	ea46 4607 	orr.w	r6, r6, r7, lsl #16
 8000fee:	0c37      	lsrs	r7, r6, #16
 8000ff0:	fa1f fc82 	uxth.w	ip, r2
 8000ff4:	fb0c f507 	mul.w	r5, ip, r7
 8000ff8:	0c12      	lsrs	r2, r2, #16
 8000ffa:	b2b3      	uxth	r3, r6
 8000ffc:	fb0c fc03 	mul.w	ip, ip, r3
 8001000:	fb02 5303 	mla	r3, r2, r3, r5
 8001004:	eb03 431c 	add.w	r3, r3, ip, lsr #16
 8001008:	fb02 f207 	mul.w	r2, r2, r7
 800100c:	429d      	cmp	r5, r3
 800100e:	bf88      	it	hi
 8001010:	f502 3280 	addhi.w	r2, r2, #65536	; 0x10000
 8001014:	ebc8 0101 	rsb	r1, r8, r1
 8001018:	eb02 4213 	add.w	r2, r2, r3, lsr #16
 800101c:	4291      	cmp	r1, r2
 800101e:	d34b      	bcc.n	80010b8 <__udivdi3+0x258>
 8001020:	d042      	beq.n	80010a8 <__udivdi3+0x248>
 8001022:	4630      	mov	r0, r6
 8001024:	2100      	movs	r1, #0
 8001026:	e75d      	b.n	8000ee4 <__udivdi3+0x84>
 8001028:	4094      	lsls	r4, r2
 800102a:	f1c2 0520 	rsb	r5, r2, #32
 800102e:	fa21 f605 	lsr.w	r6, r1, r5
 8001032:	0c23      	lsrs	r3, r4, #16
 8001034:	fa20 f705 	lsr.w	r7, r0, r5
 8001038:	fa01 f102 	lsl.w	r1, r1, r2
 800103c:	fbb6 fcf3 	udiv	ip, r6, r3
 8001040:	4339      	orrs	r1, r7
 8001042:	0c0d      	lsrs	r5, r1, #16
 8001044:	b2a7      	uxth	r7, r4
 8001046:	fb03 661c 	mls	r6, r3, ip, r6
 800104a:	ea45 4606 	orr.w	r6, r5, r6, lsl #16
 800104e:	fb07 f80c 	mul.w	r8, r7, ip
 8001052:	45b0      	cmp	r8, r6
 8001054:	fa00 f502 	lsl.w	r5, r0, r2
 8001058:	d908      	bls.n	800106c <__udivdi3+0x20c>
 800105a:	1936      	adds	r6, r6, r4
 800105c:	f10c 30ff 	add.w	r0, ip, #4294967295
 8001060:	d23d      	bcs.n	80010de <__udivdi3+0x27e>
 8001062:	45b0      	cmp	r8, r6
 8001064:	d93b      	bls.n	80010de <__udivdi3+0x27e>
 8001066:	f1ac 0c02 	sub.w	ip, ip, #2
 800106a:	1936      	adds	r6, r6, r4
 800106c:	ebc8 0206 	rsb	r2, r8, r6
 8001070:	fbb2 f0f3 	udiv	r0, r2, r3
 8001074:	fb03 2610 	mls	r6, r3, r0, r2
 8001078:	b28a      	uxth	r2, r1
 800107a:	ea42 4206 	orr.w	r2, r2, r6, lsl #16
 800107e:	fb07 f100 	mul.w	r1, r7, r0
 8001082:	4291      	cmp	r1, r2
 8001084:	d906      	bls.n	8001094 <__udivdi3+0x234>
 8001086:	1e46      	subs	r6, r0, #1
 8001088:	1912      	adds	r2, r2, r4
 800108a:	d226      	bcs.n	80010da <__udivdi3+0x27a>
 800108c:	4291      	cmp	r1, r2
 800108e:	d924      	bls.n	80010da <__udivdi3+0x27a>
 8001090:	3802      	subs	r0, #2
 8001092:	1912      	adds	r2, r2, r4
 8001094:	1a52      	subs	r2, r2, r1
 8001096:	ea40 410c 	orr.w	r1, r0, ip, lsl #16
 800109a:	e741      	b.n	8000f20 <__udivdi3+0xc0>
 800109c:	4638      	mov	r0, r7
 800109e:	e70a      	b.n	8000eb6 <__udivdi3+0x56>
 80010a0:	4633      	mov	r3, r6
 80010a2:	e71c      	b.n	8000ede <__udivdi3+0x7e>
 80010a4:	4610      	mov	r0, r2
 80010a6:	e763      	b.n	8000f70 <__udivdi3+0x110>
 80010a8:	fa1f fc8c 	uxth.w	ip, ip
 80010ac:	fa00 f004 	lsl.w	r0, r0, r4
 80010b0:	eb0c 4303 	add.w	r3, ip, r3, lsl #16
 80010b4:	4298      	cmp	r0, r3
 80010b6:	d2b4      	bcs.n	8001022 <__udivdi3+0x1c2>
 80010b8:	1e70      	subs	r0, r6, #1
 80010ba:	2100      	movs	r1, #0
 80010bc:	e712      	b.n	8000ee4 <__udivdi3+0x84>
 80010be:	4621      	mov	r1, r4
 80010c0:	4620      	mov	r0, r4
 80010c2:	e70f      	b.n	8000ee4 <__udivdi3+0x84>
 80010c4:	45a9      	cmp	r9, r5
 80010c6:	f67f af7d 	bls.w	8000fc4 <__udivdi3+0x164>
 80010ca:	3f02      	subs	r7, #2
 80010cc:	18ed      	adds	r5, r5, r3
 80010ce:	e77a      	b.n	8000fc6 <__udivdi3+0x166>
 80010d0:	4588      	cmp	r8, r1
 80010d2:	d989      	bls.n	8000fe8 <__udivdi3+0x188>
 80010d4:	3e02      	subs	r6, #2
 80010d6:	18c9      	adds	r1, r1, r3
 80010d8:	e787      	b.n	8000fea <__udivdi3+0x18a>
 80010da:	4630      	mov	r0, r6
 80010dc:	e7da      	b.n	8001094 <__udivdi3+0x234>
 80010de:	4684      	mov	ip, r0
 80010e0:	e7c4      	b.n	800106c <__udivdi3+0x20c>
 80010e2:	3e02      	subs	r6, #2
 80010e4:	1912      	adds	r2, r2, r4
 80010e6:	e72f      	b.n	8000f48 <__udivdi3+0xe8>

080010e8 <_Z9draw_loopv>:
 80010e8:	b5f8      	push	{r3, r4, r5, r6, r7, lr}
 80010ea:	4b46      	ldr	r3, [pc, #280]	; (8001204 <_Z9draw_loopv+0x11c>)
 80010ec:	781a      	ldrb	r2, [r3, #0]
 80010ee:	2a00      	cmp	r2, #0
 80010f0:	d17e      	bne.n	80011f0 <_Z9draw_loopv+0x108>
 80010f2:	4e45      	ldr	r6, [pc, #276]	; (8001208 <_Z9draw_loopv+0x120>)
 80010f4:	7830      	ldrb	r0, [r6, #0]
 80010f6:	2800      	cmp	r0, #0
 80010f8:	d175      	bne.n	80011e6 <_Z9draw_loopv+0xfe>
 80010fa:	4d44      	ldr	r5, [pc, #272]	; (800120c <_Z9draw_loopv+0x124>)
 80010fc:	f002 fc0e 	bl	800391c <_Z7on_drawv>
 8001100:	e895 0006 	ldmia.w	r5, {r1, r2}
 8001104:	f64c 44cd 	movw	r4, #52429	; 0xcccd
 8001108:	f1a1 0708 	sub.w	r7, r1, #8
 800110c:	f6cc 44cc 	movt	r4, #52428	; 0xcccc
 8001110:	fba4 1307 	umull	r1, r3, r4, r7
 8001114:	08df      	lsrs	r7, r3, #3
 8001116:	fb02 f707 	mul.w	r7, r2, r7
 800111a:	4638      	mov	r0, r7
 800111c:	f006 f950 	bl	80073c0 <pvPortMalloc>
 8001120:	4604      	mov	r4, r0
 8001122:	2800      	cmp	r0, #0
 8001124:	d06a      	beq.n	80011fc <_Z9draw_loopv+0x114>
 8001126:	e895 0006 	ldmia.w	r5, {r1, r2}
 800112a:	f64c 40cd 	movw	r0, #52429	; 0xcccd
 800112e:	f1a1 0608 	sub.w	r6, r1, #8
 8001132:	f6cc 40cc 	movt	r0, #52428	; 0xcccc
 8001136:	fba0 1306 	umull	r1, r3, r0, r6
 800113a:	08de      	lsrs	r6, r3, #3
 800113c:	fb02 f606 	mul.w	r6, r2, r6
 8001140:	b156      	cbz	r6, 8001158 <_Z9draw_loopv+0x70>
 8001142:	42be      	cmp	r6, r7
 8001144:	d008      	beq.n	8001158 <_Z9draw_loopv+0x70>
 8001146:	4630      	mov	r0, r6
 8001148:	f006 f93a 	bl	80073c0 <pvPortMalloc>
 800114c:	4607      	mov	r7, r0
 800114e:	b118      	cbz	r0, 8001158 <_Z9draw_loopv+0x70>
 8001150:	4620      	mov	r0, r4
 8001152:	f006 f947 	bl	80073e4 <vPortFree>
 8001156:	463c      	mov	r4, r7
 8001158:	230a      	movs	r3, #10
 800115a:	492d      	ldr	r1, [pc, #180]	; (8001210 <_Z9draw_loopv+0x128>)
 800115c:	2200      	movs	r2, #0
 800115e:	4620      	mov	r0, r4
 8001160:	f006 fe16 	bl	8007d90 <sprintf>
 8001164:	4620      	mov	r0, r4
 8001166:	f006 fe99 	bl	8007e9c <strlen>
 800116a:	3001      	adds	r0, #1
 800116c:	1a32      	subs	r2, r6, r0
 800116e:	2100      	movs	r1, #0
 8001170:	1820      	adds	r0, r4, r0
 8001172:	f006 fd61 	bl	8007c38 <memset>
 8001176:	4620      	mov	r0, r4
 8001178:	f000 f942 	bl	8001400 <_ZN13video_buffers5telem2tx10write_dataEPh>
 800117c:	4620      	mov	r0, r4
 800117e:	f006 f931 	bl	80073e4 <vPortFree>
 8001182:	4a24      	ldr	r2, [pc, #144]	; (8001214 <_Z9draw_loopv+0x12c>)
 8001184:	4924      	ldr	r1, [pc, #144]	; (8001218 <_Z9draw_loopv+0x130>)
 8001186:	2301      	movs	r3, #1
 8001188:	7313      	strb	r3, [r2, #12]
 800118a:	730b      	strb	r3, [r1, #12]
 800118c:	7b16      	ldrb	r6, [r2, #12]
 800118e:	4c21      	ldr	r4, [pc, #132]	; (8001214 <_Z9draw_loopv+0x12c>)
 8001190:	2e00      	cmp	r6, #0
 8001192:	d1fb      	bne.n	800118c <_Z9draw_loopv+0xa4>
 8001194:	7b08      	ldrb	r0, [r1, #12]
 8001196:	2800      	cmp	r0, #0
 8001198:	d1f8      	bne.n	800118c <_Z9draw_loopv+0xa4>
 800119a:	4a20      	ldr	r2, [pc, #128]	; (800121c <_Z9draw_loopv+0x134>)
 800119c:	6860      	ldr	r0, [r4, #4]
 800119e:	ca44      	ldmia	r2, {r2, r6}
 80011a0:	1c73      	adds	r3, r6, #1
 80011a2:	08d1      	lsrs	r1, r2, #3
 80011a4:	fb01 3603 	mla	r6, r1, r3, r3
 80011a8:	4632      	mov	r2, r6
 80011aa:	21ff      	movs	r1, #255	; 0xff
 80011ac:	3004      	adds	r0, #4
 80011ae:	f006 fd43 	bl	8007c38 <memset>
 80011b2:	6862      	ldr	r2, [r4, #4]
 80011b4:	f502 40f8 	add.w	r0, r2, #31744	; 0x7c00
 80011b8:	21ff      	movs	r1, #255	; 0xff
 80011ba:	4632      	mov	r2, r6
 80011bc:	3004      	adds	r0, #4
 80011be:	f006 fd3b 	bl	8007c38 <memset>
 80011c2:	6829      	ldr	r1, [r5, #0]
 80011c4:	4b14      	ldr	r3, [pc, #80]	; (8001218 <_Z9draw_loopv+0x130>)
 80011c6:	686a      	ldr	r2, [r5, #4]
 80011c8:	6858      	ldr	r0, [r3, #4]
 80011ca:	f011 0307 	ands.w	r3, r1, #7
 80011ce:	bf18      	it	ne
 80011d0:	2301      	movne	r3, #1
 80011d2:	eb03 03d1 	add.w	r3, r3, r1, lsr #3
 80011d6:	3004      	adds	r0, #4
 80011d8:	21ff      	movs	r1, #255	; 0xff
 80011da:	fb02 f203 	mul.w	r2, r2, r3
 80011de:	e8bd 40f8 	ldmia.w	sp!, {r3, r4, r5, r6, r7, lr}
 80011e2:	f006 bd29 	b.w	8007c38 <memset>
 80011e6:	480e      	ldr	r0, [pc, #56]	; (8001220 <_Z9draw_loopv+0x138>)
 80011e8:	e8bd 40f8 	ldmia.w	sp!, {r3, r4, r5, r6, r7, lr}
 80011ec:	f002 bb8e 	b.w	800390c <_Z13set_text_dataPKc>
 80011f0:	2100      	movs	r1, #0
 80011f2:	480c      	ldr	r0, [pc, #48]	; (8001224 <_Z9draw_loopv+0x13c>)
 80011f4:	7019      	strb	r1, [r3, #0]
 80011f6:	f002 fb89 	bl	800390c <_Z13set_text_dataPKc>
 80011fa:	e77a      	b.n	80010f2 <_Z9draw_loopv+0xa>
 80011fc:	2201      	movs	r2, #1
 80011fe:	7032      	strb	r2, [r6, #0]
 8001200:	4607      	mov	r7, r0
 8001202:	e790      	b.n	8001126 <_Z9draw_loopv+0x3e>
 8001204:	10000000 	.word	0x10000000
 8001208:	10000a28 	.word	0x10000a28
 800120c:	10000a3c 	.word	0x10000a3c
 8001210:	0800d590 	.word	0x0800d590
 8001214:	10000a44 	.word	0x10000a44
 8001218:	10000a54 	.word	0x10000a54
 800121c:	10000a64 	.word	0x10000a64
 8001220:	0800d5b8 	.word	0x0800d5b8
 8001224:	0800d5ac 	.word	0x0800d5ac

08001228 <_ZN13video_buffers4initEv>:
 8001228:	b5f8      	push	{r3, r4, r5, r6, r7, lr}
 800122a:	4b58      	ldr	r3, [pc, #352]	; (800138c <_ZN13video_buffers4initEv+0x164>)
 800122c:	f5b3 1f80 	cmp.w	r3, #1048576	; 0x100000
 8001230:	f080 80a1 	bcs.w	8001376 <_ZN13video_buffers4initEv+0x14e>
 8001234:	4856      	ldr	r0, [pc, #344]	; (8001390 <_ZN13video_buffers4initEv+0x168>)
 8001236:	0142      	lsls	r2, r0, #5
 8001238:	4c56      	ldr	r4, [pc, #344]	; (8001394 <_ZN13video_buffers4initEv+0x16c>)
 800123a:	4957      	ldr	r1, [pc, #348]	; (8001398 <_ZN13video_buffers4initEv+0x170>)
 800123c:	f5b4 1f80 	cmp.w	r4, #1048576	; 0x100000
 8001240:	600a      	str	r2, [r1, #0]
 8001242:	f080 809c 	bcs.w	800137e <_ZN13video_buffers4initEv+0x156>
 8001246:	4e55      	ldr	r6, [pc, #340]	; (800139c <_ZN13video_buffers4initEv+0x174>)
 8001248:	0175      	lsls	r5, r6, #5
 800124a:	4b55      	ldr	r3, [pc, #340]	; (80013a0 <_ZN13video_buffers4initEv+0x178>)
 800124c:	4f55      	ldr	r7, [pc, #340]	; (80013a4 <_ZN13video_buffers4initEv+0x17c>)
 800124e:	f5b3 1f80 	cmp.w	r3, #1048576	; 0x100000
 8001252:	603d      	str	r5, [r7, #0]
 8001254:	f080 8091 	bcs.w	800137a <_ZN13video_buffers4initEv+0x152>
 8001258:	4853      	ldr	r0, [pc, #332]	; (80013a8 <_ZN13video_buffers4initEv+0x180>)
 800125a:	0142      	lsls	r2, r0, #5
 800125c:	4c53      	ldr	r4, [pc, #332]	; (80013ac <_ZN13video_buffers4initEv+0x184>)
 800125e:	4954      	ldr	r1, [pc, #336]	; (80013b0 <_ZN13video_buffers4initEv+0x188>)
 8001260:	4d54      	ldr	r5, [pc, #336]	; (80013b4 <_ZN13video_buffers4initEv+0x18c>)
 8001262:	4e55      	ldr	r6, [pc, #340]	; (80013b8 <_ZN13video_buffers4initEv+0x190>)
 8001264:	4f55      	ldr	r7, [pc, #340]	; (80013bc <_ZN13video_buffers4initEv+0x194>)
 8001266:	4b56      	ldr	r3, [pc, #344]	; (80013c0 <_ZN13video_buffers4initEv+0x198>)
 8001268:	f8b7 e000 	ldrh.w	lr, [r7]
 800126c:	600a      	str	r2, [r1, #0]
 800126e:	f5b4 1f80 	cmp.w	r4, #1048576	; 0x100000
 8001272:	bf38      	it	cc
 8001274:	4c53      	ldrcc	r4, [pc, #332]	; (80013c4 <_ZN13video_buffers4initEv+0x19c>)
 8001276:	8832      	ldrh	r2, [r6, #0]
 8001278:	8829      	ldrh	r1, [r5, #0]
 800127a:	881b      	ldrh	r3, [r3, #0]
 800127c:	4f52      	ldr	r7, [pc, #328]	; (80013c8 <_ZN13video_buffers4initEv+0x1a0>)
 800127e:	4e53      	ldr	r6, [pc, #332]	; (80013cc <_ZN13video_buffers4initEv+0x1a4>)
 8001280:	4d53      	ldr	r5, [pc, #332]	; (80013d0 <_ZN13video_buffers4initEv+0x1a8>)
 8001282:	bf38      	it	cc
 8001284:	ea4f 1c44 	movcc.w	ip, r4, lsl #5
 8001288:	ebc2 0101 	rsb	r1, r2, r1
 800128c:	4c51      	ldr	r4, [pc, #324]	; (80013d4 <_ZN13video_buffers4initEv+0x1ac>)
 800128e:	ebc3 020e 	rsb	r2, r3, lr
 8001292:	f64f 73f8 	movw	r3, #65528	; 0xfff8
 8001296:	bf28      	it	cs
 8001298:	f04f 0c00 	movcs.w	ip, #0
 800129c:	fa1f fe82 	uxth.w	lr, r2
 80012a0:	400b      	ands	r3, r1
 80012a2:	f8c7 c000 	str.w	ip, [r7]
 80012a6:	08d9      	lsrs	r1, r3, #3
 80012a8:	f10e 0701 	add.w	r7, lr, #1
 80012ac:	6820      	ldr	r0, [r4, #0]
 80012ae:	fb01 7707 	mla	r7, r1, r7, r7
 80012b2:	463a      	mov	r2, r7
 80012b4:	21ff      	movs	r1, #255	; 0xff
 80012b6:	3004      	adds	r0, #4
 80012b8:	e886 4008 	stmia.w	r6, {r3, lr}
 80012bc:	f006 fcbc 	bl	8007c38 <memset>
 80012c0:	6823      	ldr	r3, [r4, #0]
 80012c2:	f503 40f8 	add.w	r0, r3, #31744	; 0x7c00
 80012c6:	21ff      	movs	r1, #255	; 0xff
 80012c8:	463a      	mov	r2, r7
 80012ca:	3004      	adds	r0, #4
 80012cc:	f006 fcb4 	bl	8007c38 <memset>
 80012d0:	ce48      	ldmia	r6, {r3, r6}
 80012d2:	6860      	ldr	r0, [r4, #4]
 80012d4:	08da      	lsrs	r2, r3, #3
 80012d6:	3601      	adds	r6, #1
 80012d8:	fb02 6606 	mla	r6, r2, r6, r6
 80012dc:	21ff      	movs	r1, #255	; 0xff
 80012de:	4632      	mov	r2, r6
 80012e0:	3004      	adds	r0, #4
 80012e2:	f006 fca9 	bl	8007c38 <memset>
 80012e6:	6861      	ldr	r1, [r4, #4]
 80012e8:	f501 43f8 	add.w	r3, r1, #31744	; 0x7c00
 80012ec:	1d18      	adds	r0, r3, #4
 80012ee:	21ff      	movs	r1, #255	; 0xff
 80012f0:	4632      	mov	r2, r6
 80012f2:	f006 fca1 	bl	8007c38 <memset>
 80012f6:	4a38      	ldr	r2, [pc, #224]	; (80013d8 <_ZN13video_buffers4initEv+0x1b0>)
 80012f8:	4938      	ldr	r1, [pc, #224]	; (80013dc <_ZN13video_buffers4initEv+0x1b4>)
 80012fa:	8813      	ldrh	r3, [r2, #0]
 80012fc:	4a38      	ldr	r2, [pc, #224]	; (80013e0 <_ZN13video_buffers4initEv+0x1b8>)
 80012fe:	8809      	ldrh	r1, [r1, #0]
 8001300:	4838      	ldr	r0, [pc, #224]	; (80013e4 <_ZN13video_buffers4initEv+0x1bc>)
 8001302:	8812      	ldrh	r2, [r2, #0]
 8001304:	8800      	ldrh	r0, [r0, #0]
 8001306:	1a8a      	subs	r2, r1, r2
 8001308:	2100      	movs	r1, #0
 800130a:	60a1      	str	r1, [r4, #8]
 800130c:	4c36      	ldr	r4, [pc, #216]	; (80013e8 <_ZN13video_buffers4initEv+0x1c0>)
 800130e:	1ac0      	subs	r0, r0, r3
 8001310:	b283      	uxth	r3, r0
 8001312:	b292      	uxth	r2, r2
 8001314:	f5b4 1f80 	cmp.w	r4, #1048576	; 0x100000
 8001318:	602b      	str	r3, [r5, #0]
 800131a:	606a      	str	r2, [r5, #4]
 800131c:	d233      	bcs.n	8001386 <_ZN13video_buffers4initEv+0x15e>
 800131e:	4933      	ldr	r1, [pc, #204]	; (80013ec <_ZN13video_buffers4initEv+0x1c4>)
 8001320:	0148      	lsls	r0, r1, #5
 8001322:	4c33      	ldr	r4, [pc, #204]	; (80013f0 <_ZN13video_buffers4initEv+0x1c8>)
 8001324:	4933      	ldr	r1, [pc, #204]	; (80013f4 <_ZN13video_buffers4initEv+0x1cc>)
 8001326:	f5b4 1f80 	cmp.w	r4, #1048576	; 0x100000
 800132a:	6008      	str	r0, [r1, #0]
 800132c:	d229      	bcs.n	8001382 <_ZN13video_buffers4initEv+0x15a>
 800132e:	4c32      	ldr	r4, [pc, #200]	; (80013f8 <_ZN13video_buffers4initEv+0x1d0>)
 8001330:	0160      	lsls	r0, r4, #5
 8001332:	4c32      	ldr	r4, [pc, #200]	; (80013fc <_ZN13video_buffers4initEv+0x1d4>)
 8001334:	f8c1 0100 	str.w	r0, [r1, #256]	; 0x100
 8001338:	f013 0107 	ands.w	r1, r3, #7
 800133c:	bf18      	it	ne
 800133e:	2101      	movne	r1, #1
 8001340:	6860      	ldr	r0, [r4, #4]
 8001342:	eb01 03d3 	add.w	r3, r1, r3, lsr #3
 8001346:	fb02 f203 	mul.w	r2, r2, r3
 800134a:	21ff      	movs	r1, #255	; 0xff
 800134c:	3004      	adds	r0, #4
 800134e:	f006 fc73 	bl	8007c38 <memset>
 8001352:	6829      	ldr	r1, [r5, #0]
 8001354:	6860      	ldr	r0, [r4, #4]
 8001356:	686a      	ldr	r2, [r5, #4]
 8001358:	f011 0307 	ands.w	r3, r1, #7
 800135c:	bf18      	it	ne
 800135e:	2301      	movne	r3, #1
 8001360:	eb03 03d1 	add.w	r3, r3, r1, lsr #3
 8001364:	3004      	adds	r0, #4
 8001366:	21ff      	movs	r1, #255	; 0xff
 8001368:	fb02 f203 	mul.w	r2, r2, r3
 800136c:	f006 fc64 	bl	8007c38 <memset>
 8001370:	2100      	movs	r1, #0
 8001372:	60a1      	str	r1, [r4, #8]
 8001374:	bdf8      	pop	{r3, r4, r5, r6, r7, pc}
 8001376:	2200      	movs	r2, #0
 8001378:	e75e      	b.n	8001238 <_ZN13video_buffers4initEv+0x10>
 800137a:	2200      	movs	r2, #0
 800137c:	e76e      	b.n	800125c <_ZN13video_buffers4initEv+0x34>
 800137e:	2500      	movs	r5, #0
 8001380:	e763      	b.n	800124a <_ZN13video_buffers4initEv+0x22>
 8001382:	2000      	movs	r0, #0
 8001384:	e7d5      	b.n	8001332 <_ZN13video_buffers4initEv+0x10a>
 8001386:	4608      	mov	r0, r1
 8001388:	e7cb      	b.n	8001322 <_ZN13video_buffers4initEv+0xfa>
 800138a:	bf00      	nop
 800138c:	00000004 	.word	0x00000004
 8001390:	21100004 	.word	0x21100004
 8001394:	00007c04 	.word	0x00007c04
 8001398:	20000000 	.word	0x20000000
 800139c:	21107c04 	.word	0x21107c04
 80013a0:	0000f804 	.word	0x0000f804
 80013a4:	20007c00 	.word	0x20007c00
 80013a8:	2110f804 	.word	0x2110f804
 80013ac:	00017404 	.word	0x00017404
 80013b0:	2000f800 	.word	0x2000f800
 80013b4:	10000008 	.word	0x10000008
 80013b8:	10000004 	.word	0x10000004
 80013bc:	10000012 	.word	0x10000012
 80013c0:	10000010 	.word	0x10000010
 80013c4:	21117404 	.word	0x21117404
 80013c8:	20017400 	.word	0x20017400
 80013cc:	10000a64 	.word	0x10000a64
 80013d0:	10000a3c 	.word	0x10000a3c
 80013d4:	10000a44 	.word	0x10000a44
 80013d8:	10000002 	.word	0x10000002
 80013dc:	1000000e 	.word	0x1000000e
 80013e0:	1000000a 	.word	0x1000000a
 80013e4:	10000006 	.word	0x10000006
 80013e8:	0001f004 	.word	0x0001f004
 80013ec:	2111f004 	.word	0x2111f004
 80013f0:	0001f104 	.word	0x0001f104
 80013f4:	2001f000 	.word	0x2001f000
 80013f8:	2111f104 	.word	0x2111f104
 80013fc:	10000a54 	.word	0x10000a54

08001400 <_ZN13video_buffers5telem2tx10write_dataEPh>:
 8001400:	f8df c10c 	ldr.w	ip, [pc, #268]	; 8001510 <_ZN13video_buffers5telem2tx10write_dataEPh+0x110>
 8001404:	e92d 07f0 	stmdb	sp!, {r4, r5, r6, r7, r8, r9, sl}
 8001408:	f8dc 8004 	ldr.w	r8, [ip, #4]
 800140c:	f1b8 0f00 	cmp.w	r8, #0
 8001410:	d079      	beq.n	8001506 <_ZN13video_buffers5telem2tx10write_dataEPh+0x106>
 8001412:	2700      	movs	r7, #0
 8001414:	f64c 49cd 	movw	r9, #52429	; 0xcccd
 8001418:	f8dc 3000 	ldr.w	r3, [ip]
 800141c:	493b      	ldr	r1, [pc, #236]	; (800150c <_ZN13video_buffers5telem2tx10write_dataEPh+0x10c>)
 800141e:	f6cc 49cc 	movt	r9, #52428	; 0xcccc
 8001422:	463e      	mov	r6, r7
 8001424:	f013 0207 	ands.w	r2, r3, #7
 8001428:	bf18      	it	ne
 800142a:	2201      	movne	r2, #1
 800142c:	eb02 02d3 	add.w	r2, r2, r3, lsr #3
 8001430:	00fc      	lsls	r4, r7, #3
 8001432:	3b08      	subs	r3, #8
 8001434:	fb02 f204 	mul.w	r2, r2, r4
 8001438:	fba9 4303 	umull	r4, r3, r9, r3
 800143c:	3204      	adds	r2, #4
 800143e:	08db      	lsrs	r3, r3, #3
 8001440:	d05b      	beq.n	80014fa <_ZN13video_buffers5telem2tx10write_dataEPh+0xfa>
 8001442:	0092      	lsls	r2, r2, #2
 8001444:	18c5      	adds	r5, r0, r3
 8001446:	684c      	ldr	r4, [r1, #4]
 8001448:	6823      	ldr	r3, [r4, #0]
 800144a:	509e      	str	r6, [r3, r2]
 800144c:	f810 3b01 	ldrb.w	r3, [r0], #1
 8001450:	f013 0401 	ands.w	r4, r3, #1
 8001454:	d106      	bne.n	8001464 <_ZN13video_buffers5telem2tx10write_dataEPh+0x64>
 8001456:	f8d1 a004 	ldr.w	sl, [r1, #4]
 800145a:	f8da a000 	ldr.w	sl, [sl]
 800145e:	4492      	add	sl, r2
 8001460:	f8ca 4004 	str.w	r4, [sl, #4]
 8001464:	f003 0402 	and.w	r4, r3, #2
 8001468:	b2e4      	uxtb	r4, r4
 800146a:	b934      	cbnz	r4, 800147a <_ZN13video_buffers5telem2tx10write_dataEPh+0x7a>
 800146c:	f8d1 a004 	ldr.w	sl, [r1, #4]
 8001470:	f8da a000 	ldr.w	sl, [sl]
 8001474:	4492      	add	sl, r2
 8001476:	f8ca 4008 	str.w	r4, [sl, #8]
 800147a:	f003 0404 	and.w	r4, r3, #4
 800147e:	b2e4      	uxtb	r4, r4
 8001480:	b934      	cbnz	r4, 8001490 <_ZN13video_buffers5telem2tx10write_dataEPh+0x90>
 8001482:	f8d1 a004 	ldr.w	sl, [r1, #4]
 8001486:	f8da a000 	ldr.w	sl, [sl]
 800148a:	4492      	add	sl, r2
 800148c:	f8ca 400c 	str.w	r4, [sl, #12]
 8001490:	f003 0408 	and.w	r4, r3, #8
 8001494:	b2e4      	uxtb	r4, r4
 8001496:	b934      	cbnz	r4, 80014a6 <_ZN13video_buffers5telem2tx10write_dataEPh+0xa6>
 8001498:	f8d1 a004 	ldr.w	sl, [r1, #4]
 800149c:	f8da a000 	ldr.w	sl, [sl]
 80014a0:	4492      	add	sl, r2
 80014a2:	f8ca 4010 	str.w	r4, [sl, #16]
 80014a6:	f003 0410 	and.w	r4, r3, #16
 80014aa:	b2e4      	uxtb	r4, r4
 80014ac:	b934      	cbnz	r4, 80014bc <_ZN13video_buffers5telem2tx10write_dataEPh+0xbc>
 80014ae:	f8d1 a004 	ldr.w	sl, [r1, #4]
 80014b2:	f8da a000 	ldr.w	sl, [sl]
 80014b6:	4492      	add	sl, r2
 80014b8:	f8ca 4014 	str.w	r4, [sl, #20]
 80014bc:	f003 0420 	and.w	r4, r3, #32
 80014c0:	b2e4      	uxtb	r4, r4
 80014c2:	b934      	cbnz	r4, 80014d2 <_ZN13video_buffers5telem2tx10write_dataEPh+0xd2>
 80014c4:	f8d1 a004 	ldr.w	sl, [r1, #4]
 80014c8:	f8da a000 	ldr.w	sl, [sl]
 80014cc:	4492      	add	sl, r2
 80014ce:	f8ca 4018 	str.w	r4, [sl, #24]
 80014d2:	f003 0440 	and.w	r4, r3, #64	; 0x40
 80014d6:	b2e4      	uxtb	r4, r4
 80014d8:	b934      	cbnz	r4, 80014e8 <_ZN13video_buffers5telem2tx10write_dataEPh+0xe8>
 80014da:	f8d1 a004 	ldr.w	sl, [r1, #4]
 80014de:	f8da a000 	ldr.w	sl, [sl]
 80014e2:	4492      	add	sl, r2
 80014e4:	f8ca 401c 	str.w	r4, [sl, #28]
 80014e8:	09db      	lsrs	r3, r3, #7
 80014ea:	d103      	bne.n	80014f4 <_ZN13video_buffers5telem2tx10write_dataEPh+0xf4>
 80014ec:	684c      	ldr	r4, [r1, #4]
 80014ee:	6824      	ldr	r4, [r4, #0]
 80014f0:	18a4      	adds	r4, r4, r2
 80014f2:	6223      	str	r3, [r4, #32]
 80014f4:	3228      	adds	r2, #40	; 0x28
 80014f6:	42a8      	cmp	r0, r5
 80014f8:	d1a5      	bne.n	8001446 <_ZN13video_buffers5telem2tx10write_dataEPh+0x46>
 80014fa:	3701      	adds	r7, #1
 80014fc:	4547      	cmp	r7, r8
 80014fe:	d002      	beq.n	8001506 <_ZN13video_buffers5telem2tx10write_dataEPh+0x106>
 8001500:	f8dc 3000 	ldr.w	r3, [ip]
 8001504:	e78e      	b.n	8001424 <_ZN13video_buffers5telem2tx10write_dataEPh+0x24>
 8001506:	e8bd 07f0 	ldmia.w	sp!, {r4, r5, r6, r7, r8, r9, sl}
 800150a:	4770      	bx	lr
 800150c:	10000a54 	.word	0x10000a54
 8001510:	10000a3c 	.word	0x10000a3c

08001514 <_GLOBAL__sub_I__ZN13video_buffers3osd9m_buffersE>:
 8001514:	e92d 01f0 	stmdb	sp!, {r4, r5, r6, r7, r8}
 8001518:	f640 2154 	movw	r1, #2644	; 0xa54
 800151c:	f640 2444 	movw	r4, #2628	; 0xa44
 8001520:	f240 0500 	movw	r5, #0
 8001524:	f24f 0000 	movw	r0, #61440	; 0xf000
 8001528:	f640 232c 	movw	r3, #2604	; 0xa2c
 800152c:	f2c1 0400 	movt	r4, #4096	; 0x1000
 8001530:	f2c1 0100 	movt	r1, #4096	; 0x1000
 8001534:	f2c2 0001 	movt	r0, #8193	; 0x2001
 8001538:	f2c1 0300 	movt	r3, #4096	; 0x1000
 800153c:	f2c2 0500 	movt	r5, #8192	; 0x2000
 8001540:	2200      	movs	r2, #0
 8001542:	f505 4878 	add.w	r8, r5, #63488	; 0xf800
 8001546:	f500 7c80 	add.w	ip, r0, #256	; 0x100
 800154a:	f500 7700 	add.w	r7, r0, #512	; 0x200
 800154e:	f500 6600 	add.w	r6, r0, #2048	; 0x800
 8001552:	6025      	str	r5, [r4, #0]
 8001554:	60a2      	str	r2, [r4, #8]
 8001556:	f8c4 8004 	str.w	r8, [r4, #4]
 800155a:	608a      	str	r2, [r1, #8]
 800155c:	7322      	strb	r2, [r4, #12]
 800155e:	609a      	str	r2, [r3, #8]
 8001560:	6008      	str	r0, [r1, #0]
 8001562:	f8c1 c004 	str.w	ip, [r1, #4]
 8001566:	730a      	strb	r2, [r1, #12]
 8001568:	601f      	str	r7, [r3, #0]
 800156a:	605e      	str	r6, [r3, #4]
 800156c:	731a      	strb	r2, [r3, #12]
 800156e:	e8bd 01f0 	ldmia.w	sp!, {r4, r5, r6, r7, r8}
 8001572:	4770      	bx	lr

08001574 <_ZN9video_cfg7columns3osd6enableEv>:
 8001574:	4b25      	ldr	r3, [pc, #148]	; (800160c <_ZN9video_cfg7columns3osd6enableEv+0x98>)
 8001576:	4a26      	ldr	r2, [pc, #152]	; (8001610 <_ZN9video_cfg7columns3osd6enableEv+0x9c>)
 8001578:	8818      	ldrh	r0, [r3, #0]
 800157a:	4926      	ldr	r1, [pc, #152]	; (8001614 <_ZN9video_cfg7columns3osd6enableEv+0xa0>)
 800157c:	b4f0      	push	{r4, r5, r6, r7}
 800157e:	8815      	ldrh	r5, [r2, #0]
 8001580:	880c      	ldrh	r4, [r1, #0]
 8001582:	0446      	lsls	r6, r0, #17
 8001584:	0c73      	lsrs	r3, r6, #17
 8001586:	2100      	movs	r1, #0
 8001588:	1dee      	adds	r6, r5, #7
 800158a:	f04f 4280 	mov.w	r2, #1073741824	; 0x40000000
 800158e:	f2c4 0101 	movt	r1, #16385	; 0x4001
 8001592:	fb03 f704 	mul.w	r7, r3, r4
 8001596:	ea4f 0c43 	mov.w	ip, r3, lsl #1
 800159a:	fb03 f606 	mul.w	r6, r3, r6
 800159e:	2000      	movs	r0, #0
 80015a0:	3b01      	subs	r3, #1
 80015a2:	f10c 3cff 	add.w	ip, ip, #4294967295
 80015a6:	3f01      	subs	r7, #1
 80015a8:	3e01      	subs	r6, #1
 80015aa:	6248      	str	r0, [r1, #36]	; 0x24
 80015ac:	f8c1 c02c 	str.w	ip, [r1, #44]	; 0x2c
 80015b0:	634b      	str	r3, [r1, #52]	; 0x34
 80015b2:	6250      	str	r0, [r2, #36]	; 0x24
 80015b4:	6397      	str	r7, [r2, #56]	; 0x38
 80015b6:	62d6      	str	r6, [r2, #44]	; 0x2c
 80015b8:	6891      	ldr	r1, [r2, #8]
 80015ba:	f44f 7306 	mov.w	r3, #536	; 0x218
 80015be:	f2c4 2300 	movt	r3, #16896	; 0x4200
 80015c2:	f041 0106 	orr.w	r1, r1, #6
 80015c6:	6091      	str	r1, [r2, #8]
 80015c8:	b082      	sub	sp, #8
 80015ca:	6018      	str	r0, [r3, #0]
 80015cc:	bf00      	nop
 80015ce:	f44f 72cc 	mov.w	r2, #408	; 0x198
 80015d2:	f2c4 2200 	movt	r2, #16896	; 0x4200
 80015d6:	4810      	ldr	r0, [pc, #64]	; (8001618 <_ZN9video_cfg7columns3osd6enableEv+0xa4>)
 80015d8:	2301      	movs	r3, #1
 80015da:	6013      	str	r3, [r2, #0]
 80015dc:	7b01      	ldrb	r1, [r0, #12]
 80015de:	b139      	cbz	r1, 80015f0 <_ZN9video_cfg7columns3osd6enableEv+0x7c>
 80015e0:	6802      	ldr	r2, [r0, #0]
 80015e2:	9201      	str	r2, [sp, #4]
 80015e4:	6843      	ldr	r3, [r0, #4]
 80015e6:	6003      	str	r3, [r0, #0]
 80015e8:	9901      	ldr	r1, [sp, #4]
 80015ea:	2200      	movs	r2, #0
 80015ec:	6041      	str	r1, [r0, #4]
 80015ee:	7302      	strb	r2, [r0, #12]
 80015f0:	4b0a      	ldr	r3, [pc, #40]	; (800161c <_ZN9video_cfg7columns3osd6enableEv+0xa8>)
 80015f2:	781a      	ldrb	r2, [r3, #0]
 80015f4:	2100      	movs	r1, #0
 80015f6:	6081      	str	r1, [r0, #8]
 80015f8:	b92a      	cbnz	r2, 8001606 <_ZN9video_cfg7columns3osd6enableEv+0x92>
 80015fa:	1b2c      	subs	r4, r5, r4
 80015fc:	f3c4 00cc 	ubfx	r0, r4, #3, #13
 8001600:	4b05      	ldr	r3, [pc, #20]	; (8001618 <_ZN9video_cfg7columns3osd6enableEv+0xa4>)
 8001602:	1c44      	adds	r4, r0, #1
 8001604:	609c      	str	r4, [r3, #8]
 8001606:	b002      	add	sp, #8
 8001608:	bcf0      	pop	{r4, r5, r6, r7}
 800160a:	4770      	bx	lr
 800160c:	10000014 	.word	0x10000014
 8001610:	10000008 	.word	0x10000008
 8001614:	10000004 	.word	0x10000004
 8001618:	10000a44 	.word	0x10000a44
 800161c:	1000000c 	.word	0x1000000c

08001620 <_ZN9video_cfg7columns3osd7disableEv>:
 8001620:	f04f 4080 	mov.w	r0, #1073741824	; 0x40000000
 8001624:	b410      	push	{r4}
 8001626:	f44f 7106 	mov.w	r1, #536	; 0x218
 800162a:	6884      	ldr	r4, [r0, #8]
 800162c:	f44f 73cc 	mov.w	r3, #408	; 0x198
 8001630:	f2c4 2100 	movt	r1, #16896	; 0x4200
 8001634:	f2c4 2300 	movt	r3, #16896	; 0x4200
 8001638:	2200      	movs	r2, #0
 800163a:	f024 0407 	bic.w	r4, r4, #7
 800163e:	6084      	str	r4, [r0, #8]
 8001640:	600a      	str	r2, [r1, #0]
 8001642:	601a      	str	r2, [r3, #0]
 8001644:	bc10      	pop	{r4}
 8001646:	4770      	bx	lr

08001648 <_ZN9video_cfg7columns5telem6enableEv>:
 8001648:	b470      	push	{r4, r5, r6}
 800164a:	4b20      	ldr	r3, [pc, #128]	; (80016cc <_ZN9video_cfg7columns5telem6enableEv+0x84>)
 800164c:	4a20      	ldr	r2, [pc, #128]	; (80016d0 <_ZN9video_cfg7columns5telem6enableEv+0x88>)
 800164e:	8818      	ldrh	r0, [r3, #0]
 8001650:	7b11      	ldrb	r1, [r2, #12]
 8001652:	0444      	lsls	r4, r0, #17
 8001654:	b083      	sub	sp, #12
 8001656:	0c63      	lsrs	r3, r4, #17
 8001658:	b189      	cbz	r1, 800167e <_ZN9video_cfg7columns5telem6enableEv+0x36>
 800165a:	6815      	ldr	r5, [r2, #0]
 800165c:	9501      	str	r5, [sp, #4]
 800165e:	6856      	ldr	r6, [r2, #4]
 8001660:	2100      	movs	r1, #0
 8001662:	6016      	str	r6, [r2, #0]
 8001664:	9e01      	ldr	r6, [sp, #4]
 8001666:	f2c4 0101 	movt	r1, #16385	; 0x4001
 800166a:	005c      	lsls	r4, r3, #1
 800166c:	2000      	movs	r0, #0
 800166e:	1e65      	subs	r5, r4, #1
 8001670:	1e5c      	subs	r4, r3, #1
 8001672:	6056      	str	r6, [r2, #4]
 8001674:	6090      	str	r0, [r2, #8]
 8001676:	7310      	strb	r0, [r2, #12]
 8001678:	6248      	str	r0, [r1, #36]	; 0x24
 800167a:	62cd      	str	r5, [r1, #44]	; 0x2c
 800167c:	634c      	str	r4, [r1, #52]	; 0x34
 800167e:	4a15      	ldr	r2, [pc, #84]	; (80016d4 <_ZN9video_cfg7columns5telem6enableEv+0x8c>)
 8001680:	4815      	ldr	r0, [pc, #84]	; (80016d8 <_ZN9video_cfg7columns5telem6enableEv+0x90>)
 8001682:	8811      	ldrh	r1, [r2, #0]
 8001684:	8804      	ldrh	r4, [r0, #0]
 8001686:	1e48      	subs	r0, r1, #1
 8001688:	f44f 7106 	mov.w	r1, #536	; 0x218
 800168c:	f04f 4280 	mov.w	r2, #1073741824	; 0x40000000
 8001690:	fb03 f404 	mul.w	r4, r3, r4
 8001694:	f2c4 2100 	movt	r1, #16896	; 0x4200
 8001698:	fb03 f300 	mul.w	r3, r3, r0
 800169c:	3c01      	subs	r4, #1
 800169e:	2000      	movs	r0, #0
 80016a0:	3b01      	subs	r3, #1
 80016a2:	6250      	str	r0, [r2, #36]	; 0x24
 80016a4:	6394      	str	r4, [r2, #56]	; 0x38
 80016a6:	62d3      	str	r3, [r2, #44]	; 0x2c
 80016a8:	6008      	str	r0, [r1, #0]
 80016aa:	bf00      	nop
 80016ac:	f44f 72cc 	mov.w	r2, #408	; 0x198
 80016b0:	f2c4 2200 	movt	r2, #16896	; 0x4200
 80016b4:	f04f 4080 	mov.w	r0, #1073741824	; 0x40000000
 80016b8:	2101      	movs	r1, #1
 80016ba:	6011      	str	r1, [r2, #0]
 80016bc:	6883      	ldr	r3, [r0, #8]
 80016be:	f043 0206 	orr.w	r2, r3, #6
 80016c2:	6082      	str	r2, [r0, #8]
 80016c4:	b003      	add	sp, #12
 80016c6:	bc70      	pop	{r4, r5, r6}
 80016c8:	4770      	bx	lr
 80016ca:	bf00      	nop
 80016cc:	10000016 	.word	0x10000016
 80016d0:	10000a54 	.word	0x10000a54
 80016d4:	10000006 	.word	0x10000006
 80016d8:	10000002 	.word	0x10000002

080016dc <_ZN9video_cfg7columns5telem7disableEv>:
 80016dc:	f04f 4080 	mov.w	r0, #1073741824	; 0x40000000
 80016e0:	b410      	push	{r4}
 80016e2:	f44f 7106 	mov.w	r1, #536	; 0x218
 80016e6:	6884      	ldr	r4, [r0, #8]
 80016e8:	f44f 73cc 	mov.w	r3, #408	; 0x198
 80016ec:	f2c4 2100 	movt	r1, #16896	; 0x4200
 80016f0:	f2c4 2300 	movt	r3, #16896	; 0x4200
 80016f4:	2200      	movs	r2, #0
 80016f6:	f024 0407 	bic.w	r4, r4, #7
 80016fa:	6084      	str	r4, [r0, #8]
 80016fc:	600a      	str	r2, [r1, #0]
 80016fe:	601a      	str	r2, [r3, #0]
 8001700:	bc10      	pop	{r4}
 8001702:	4770      	bx	lr

08001704 <_ZN9video_cfg7columns3osd5beginEv>:
 8001704:	f240 0108 	movw	r1, #8
 8001708:	f240 0204 	movw	r2, #4
 800170c:	f2c1 0100 	movt	r1, #4096	; 0x1000
 8001710:	f2c1 0200 	movt	r2, #4096	; 0x1000
 8001714:	f640 2344 	movw	r3, #2628	; 0xa44
 8001718:	f2c1 0300 	movt	r3, #4096	; 0x1000
 800171c:	e92d 07f0 	stmdb	sp!, {r4, r5, r6, r7, r8, r9, sl}
 8001720:	8816      	ldrh	r6, [r2, #0]
 8001722:	880d      	ldrh	r5, [r1, #0]
 8001724:	681c      	ldr	r4, [r3, #0]
 8001726:	6898      	ldr	r0, [r3, #8]
 8001728:	681f      	ldr	r7, [r3, #0]
 800172a:	1ba9      	subs	r1, r5, r6
 800172c:	1824      	adds	r4, r4, r0
 800172e:	f3c1 05cc 	ubfx	r5, r1, #3, #13
 8001732:	1c6b      	adds	r3, r5, #1
 8001734:	1d22      	adds	r2, r4, #4
 8001736:	f500 4cf8 	add.w	ip, r0, #31744	; 0x7c00
 800173a:	5cd6      	ldrb	r6, [r2, r3]
 800173c:	eb07 0a0c 	add.w	sl, r7, ip
 8001740:	f046 010f 	orr.w	r1, r6, #15
 8001744:	54d1      	strb	r1, [r2, r3]
 8001746:	f10a 0804 	add.w	r8, sl, #4
 800174a:	f246 0670 	movw	r6, #24688	; 0x6070
 800174e:	f818 9003 	ldrb.w	r9, [r8, r3]
 8001752:	f246 0188 	movw	r1, #24712	; 0x6088
 8001756:	f2c4 0602 	movt	r6, #16386	; 0x4002
 800175a:	f2c4 0102 	movt	r1, #16386	; 0x4002
 800175e:	f049 0c0f 	orr.w	ip, r9, #15
 8001762:	f44f 42c0 	mov.w	r2, #24576	; 0x6000
 8001766:	f808 c003 	strb.w	ip, [r8, r3]
 800176a:	f2c4 0202 	movt	r2, #16386	; 0x4002
 800176e:	f104 0805 	add.w	r8, r4, #5
 8001772:	f10a 0305 	add.w	r3, sl, #5
 8001776:	f8c6 800c 	str.w	r8, [r6, #12]
 800177a:	60cb      	str	r3, [r1, #12]
 800177c:	6075      	str	r5, [r6, #4]
 800177e:	604d      	str	r5, [r1, #4]
 8001780:	68d5      	ldr	r5, [r2, #12]
 8001782:	f445 6677 	orr.w	r6, r5, #3952	; 0xf70
 8001786:	f046 010d 	orr.w	r1, r6, #13
 800178a:	60d1      	str	r1, [r2, #12]
 800178c:	68d5      	ldr	r5, [r2, #12]
 800178e:	f44f 5360 	mov.w	r3, #14336	; 0x3800
 8001792:	f425 6677 	bic.w	r6, r5, #3952	; 0xf70
 8001796:	f2c4 0302 	movt	r3, #16386	; 0x4002
 800179a:	f026 010d 	bic.w	r1, r6, #13
 800179e:	60d1      	str	r1, [r2, #12]
 80017a0:	6c1a      	ldr	r2, [r3, #64]	; 0x40
 80017a2:	f442 4540 	orr.w	r5, r2, #49152	; 0xc000
 80017a6:	641d      	str	r5, [r3, #64]	; 0x40
 80017a8:	6a1e      	ldr	r6, [r3, #32]
 80017aa:	f446 4140 	orr.w	r1, r6, #49152	; 0xc000
 80017ae:	6219      	str	r1, [r3, #32]
 80017b0:	f8d3 a020 	ldr.w	sl, [r3, #32]
 80017b4:	f44f 5160 	mov.w	r1, #14336	; 0x3800
 80017b8:	f44f 5270 	mov.w	r2, #15360	; 0x3c00
 80017bc:	f04f 0c20 	mov.w	ip, #32
 80017c0:	f248 0520 	movw	r5, #32800	; 0x8020
 80017c4:	f2c4 0100 	movt	r1, #16384	; 0x4000
 80017c8:	f2c4 0200 	movt	r2, #16384	; 0x4000
 80017cc:	f2c4 2c07 	movt	ip, #16903	; 0x4207
 80017d0:	f2c4 2507 	movt	r5, #16903	; 0x4207
 80017d4:	f24c 3980 	movw	r9, #50048	; 0xc380
 80017d8:	f04f 0802 	mov.w	r8, #2
 80017dc:	2600      	movs	r6, #0
 80017de:	f42a 4a40 	bic.w	sl, sl, #49152	; 0xc000
 80017e2:	f8c3 a020 	str.w	sl, [r3, #32]
 80017e6:	f8c1 9000 	str.w	r9, [r1]
 80017ea:	f8c1 8004 	str.w	r8, [r1, #4]
 80017ee:	f8c2 9000 	str.w	r9, [r2]
 80017f2:	f8c2 8004 	str.w	r8, [r2, #4]
 80017f6:	f8cc 6000 	str.w	r6, [ip]
 80017fa:	602e      	str	r6, [r5, #0]
 80017fc:	7923      	ldrb	r3, [r4, #4]
 80017fe:	1838      	adds	r0, r7, r0
 8001800:	f043 0301 	orr.w	r3, r3, #1
 8001804:	f500 40f8 	add.w	r0, r0, #31744	; 0x7c00
 8001808:	818b      	strh	r3, [r1, #12]
 800180a:	7901      	ldrb	r1, [r0, #4]
 800180c:	f041 0301 	orr.w	r3, r1, #1
 8001810:	8193      	strh	r3, [r2, #12]
 8001812:	bf00      	nop
 8001814:	2018      	movs	r0, #24
 8001816:	f2c4 2007 	movt	r0, #16903	; 0x4207
 800181a:	2201      	movs	r2, #1
 800181c:	6002      	str	r2, [r0, #0]
 800181e:	bf00      	nop
 8001820:	f248 0318 	movw	r3, #32792	; 0x8018
 8001824:	f2c4 2307 	movt	r3, #16903	; 0x4207
 8001828:	f246 0070 	movw	r0, #24688	; 0x6070
 800182c:	f2c4 0002 	movt	r0, #16386	; 0x4002
 8001830:	2101      	movs	r1, #1
 8001832:	6019      	str	r1, [r3, #0]
 8001834:	6802      	ldr	r2, [r0, #0]
 8001836:	f246 0388 	movw	r3, #24712	; 0x6088
 800183a:	f2c4 0302 	movt	r3, #16386	; 0x4002
 800183e:	f042 0101 	orr.w	r1, r2, #1
 8001842:	6001      	str	r1, [r0, #0]
 8001844:	6818      	ldr	r0, [r3, #0]
 8001846:	f040 0201 	orr.w	r2, r0, #1
 800184a:	601a      	str	r2, [r3, #0]
 800184c:	e8bd 07f0 	ldmia.w	sp!, {r4, r5, r6, r7, r8, r9, sl}
 8001850:	4770      	bx	lr
 8001852:	bf00      	nop

08001854 <_ZN9video_cfg7columns5setupEv>:
 8001854:	f44f 5160 	mov.w	r1, #14336	; 0x3800
 8001858:	f2c4 0102 	movt	r1, #16386	; 0x4002
 800185c:	2300      	movs	r3, #0
 800185e:	6c0a      	ldr	r2, [r1, #64]	; 0x40
 8001860:	f042 0001 	orr.w	r0, r2, #1
 8001864:	b410      	push	{r4}
 8001866:	6408      	str	r0, [r1, #64]	; 0x40
 8001868:	6a0c      	ldr	r4, [r1, #32]
 800186a:	4618      	mov	r0, r3
 800186c:	f363 0000 	bfi	r0, r3, #0, #1
 8001870:	f044 0201 	orr.w	r2, r4, #1
 8001874:	f363 0041 	bfi	r0, r3, #1, #1
 8001878:	620a      	str	r2, [r1, #32]
 800187a:	f040 000c 	orr.w	r0, r0, #12
 800187e:	6a0c      	ldr	r4, [r1, #32]
 8001880:	f420 707c 	bic.w	r0, r0, #1008	; 0x3f0
 8001884:	f04f 4280 	mov.w	r2, #1073741824	; 0x40000000
 8001888:	0400      	lsls	r0, r0, #16
 800188a:	0c00      	lsrs	r0, r0, #16
 800188c:	f024 0401 	bic.w	r4, r4, #1
 8001890:	620c      	str	r4, [r1, #32]
 8001892:	6010      	str	r0, [r2, #0]
 8001894:	6851      	ldr	r1, [r2, #4]
 8001896:	2005      	movs	r0, #5
 8001898:	f363 11c7 	bfi	r1, r3, #7, #1
 800189c:	f360 1106 	bfi	r1, r0, #4, #3
 80018a0:	b289      	uxth	r1, r1
 80018a2:	6051      	str	r1, [r2, #4]
 80018a4:	6891      	ldr	r1, [r2, #8]
 80018a6:	f363 11c7 	bfi	r1, r3, #7, #1
 80018aa:	f360 1106 	bfi	r1, r0, #4, #3
 80018ae:	f021 0007 	bic.w	r0, r1, #7
 80018b2:	0401      	lsls	r1, r0, #16
 80018b4:	0c08      	lsrs	r0, r1, #16
 80018b6:	6090      	str	r0, [r2, #8]
 80018b8:	6991      	ldr	r1, [r2, #24]
 80018ba:	2001      	movs	r0, #1
 80018bc:	f360 0101 	bfi	r1, r0, #0, #2
 80018c0:	f363 0183 	bfi	r1, r3, #2, #2
 80018c4:	f363 1107 	bfi	r1, r3, #4, #4
 80018c8:	f363 2109 	bfi	r1, r3, #8, #2
 80018cc:	f363 218a 	bfi	r1, r3, #10, #1
 80018d0:	f363 21cb 	bfi	r1, r3, #11, #1
 80018d4:	f441 41e0 	orr.w	r1, r1, #28672	; 0x7000
 80018d8:	b288      	uxth	r0, r1
 80018da:	6190      	str	r0, [r2, #24]
 80018dc:	6a11      	ldr	r1, [r2, #32]
 80018de:	f363 01c3 	bfi	r1, r3, #3, #1
 80018e2:	f363 0141 	bfi	r1, r3, #1, #1
 80018e6:	f041 0030 	orr.w	r0, r1, #48	; 0x30
 80018ea:	b281      	uxth	r1, r0
 80018ec:	6211      	str	r1, [r2, #32]
 80018ee:	6293      	str	r3, [r2, #40]	; 0x28
 80018f0:	68d0      	ldr	r0, [r2, #12]
 80018f2:	f44f 4161 	mov.w	r1, #57600	; 0xe100
 80018f6:	f040 0041 	orr.w	r0, r0, #65	; 0x41
 80018fa:	f2ce 0100 	movt	r1, #57344	; 0xe000
 80018fe:	b280      	uxth	r0, r0
 8001900:	60d0      	str	r0, [r2, #12]
 8001902:	6113      	str	r3, [r2, #16]
 8001904:	23b0      	movs	r3, #176	; 0xb0
 8001906:	f04f 5280 	mov.w	r2, #268435456	; 0x10000000
 800190a:	f881 331c 	strb.w	r3, [r1, #796]	; 0x31c
 800190e:	600a      	str	r2, [r1, #0]
 8001910:	bc10      	pop	{r4}
 8001912:	4770      	bx	lr

08001914 <TIM2_IRQHandler>:
 8001914:	f44f 7306 	mov.w	r3, #536	; 0x218
 8001918:	4668      	mov	r0, sp
 800191a:	f2c4 2300 	movt	r3, #16896	; 0x4200
 800191e:	f020 0107 	bic.w	r1, r0, #7
 8001922:	468d      	mov	sp, r1
 8001924:	6819      	ldr	r1, [r3, #0]
 8001926:	b531      	push	{r0, r4, r5, lr}
 8001928:	2900      	cmp	r1, #0
 800192a:	d148      	bne.n	80019be <TIM2_IRQHandler+0xaa>
 800192c:	f44f 7200 	mov.w	r2, #512	; 0x200
 8001930:	f2c4 2200 	movt	r2, #16896	; 0x4200
 8001934:	6810      	ldr	r0, [r2, #0]
 8001936:	b918      	cbnz	r0, 8001940 <TIM2_IRQHandler+0x2c>
 8001938:	e8bd 4031 	ldmia.w	sp!, {r0, r4, r5, lr}
 800193c:	4685      	mov	sp, r0
 800193e:	4770      	bx	lr
 8001940:	4c67      	ldr	r4, [pc, #412]	; (8001ae0 <TIM2_IRQHandler+0x1cc>)
 8001942:	6011      	str	r1, [r2, #0]
 8001944:	6825      	ldr	r5, [r4, #0]
 8001946:	2d01      	cmp	r5, #1
 8001948:	d047      	beq.n	80019da <TIM2_IRQHandler+0xc6>
 800194a:	6019      	str	r1, [r3, #0]
 800194c:	bf00      	nop
 800194e:	4b65      	ldr	r3, [pc, #404]	; (8001ae4 <TIM2_IRQHandler+0x1d0>)
 8001950:	4965      	ldr	r1, [pc, #404]	; (8001ae8 <TIM2_IRQHandler+0x1d4>)
 8001952:	881c      	ldrh	r4, [r3, #0]
 8001954:	880a      	ldrh	r2, [r1, #0]
 8001956:	4865      	ldr	r0, [pc, #404]	; (8001aec <TIM2_IRQHandler+0x1d8>)
 8001958:	f44f 75cc 	mov.w	r5, #408	; 0x198
 800195c:	f2c4 2500 	movt	r5, #16896	; 0x4200
 8001960:	2301      	movs	r3, #1
 8001962:	602b      	str	r3, [r5, #0]
 8001964:	1aa1      	subs	r1, r4, r2
 8001966:	f3c1 05cc 	ubfx	r5, r1, #3, #13
 800196a:	6884      	ldr	r4, [r0, #8]
 800196c:	18ed      	adds	r5, r5, r3
 800196e:	2200      	movs	r2, #0
 8001970:	eb04 0445 	add.w	r4, r4, r5, lsl #1
 8001974:	6084      	str	r4, [r0, #8]
 8001976:	f2c4 0201 	movt	r2, #16385	; 0x4001
 800197a:	f04f 4080 	mov.w	r0, #1073741824	; 0x40000000
 800197e:	f44f 5360 	mov.w	r3, #14336	; 0x3800
 8001982:	f2c4 0302 	movt	r3, #16386	; 0x4002
 8001986:	2100      	movs	r1, #0
 8001988:	6241      	str	r1, [r0, #36]	; 0x24
 800198a:	6251      	str	r1, [r2, #36]	; 0x24
 800198c:	6c1a      	ldr	r2, [r3, #64]	; 0x40
 800198e:	f422 4140 	bic.w	r1, r2, #49152	; 0xc000
 8001992:	6419      	str	r1, [r3, #64]	; 0x40
 8001994:	6a18      	ldr	r0, [r3, #32]
 8001996:	f246 0270 	movw	r2, #24688	; 0x6070
 800199a:	f2c4 0202 	movt	r2, #16386	; 0x4002
 800199e:	f440 4140 	orr.w	r1, r0, #49152	; 0xc000
 80019a2:	6219      	str	r1, [r3, #32]
 80019a4:	6810      	ldr	r0, [r2, #0]
 80019a6:	f246 0388 	movw	r3, #24712	; 0x6088
 80019aa:	f2c4 0302 	movt	r3, #16386	; 0x4002
 80019ae:	f020 0101 	bic.w	r1, r0, #1
 80019b2:	6011      	str	r1, [r2, #0]
 80019b4:	681a      	ldr	r2, [r3, #0]
 80019b6:	f022 0001 	bic.w	r0, r2, #1
 80019ba:	6018      	str	r0, [r3, #0]
 80019bc:	e7bc      	b.n	8001938 <TIM2_IRQHandler+0x24>
 80019be:	4a48      	ldr	r2, [pc, #288]	; (8001ae0 <TIM2_IRQHandler+0x1cc>)
 80019c0:	f44f 71cc 	mov.w	r1, #408	; 0x198
 80019c4:	6810      	ldr	r0, [r2, #0]
 80019c6:	f2c4 2100 	movt	r1, #16896	; 0x4200
 80019ca:	2200      	movs	r2, #0
 80019cc:	2801      	cmp	r0, #1
 80019ce:	601a      	str	r2, [r3, #0]
 80019d0:	600a      	str	r2, [r1, #0]
 80019d2:	d032      	beq.n	8001a3a <TIM2_IRQHandler+0x126>
 80019d4:	f7ff fe96 	bl	8001704 <_ZN9video_cfg7columns3osd5beginEv>
 80019d8:	e7ae      	b.n	8001938 <TIM2_IRQHandler+0x24>
 80019da:	bf00      	nop
 80019dc:	f44f 74cc 	mov.w	r4, #408	; 0x198
 80019e0:	f2c4 2400 	movt	r4, #16896	; 0x4200
 80019e4:	f04f 0100 	mov.w	r1, #0
 80019e8:	6025      	str	r5, [r4, #0]
 80019ea:	4d41      	ldr	r5, [pc, #260]	; (8001af0 <TIM2_IRQHandler+0x1dc>)
 80019ec:	4c41      	ldr	r4, [pc, #260]	; (8001af4 <TIM2_IRQHandler+0x1e0>)
 80019ee:	682b      	ldr	r3, [r5, #0]
 80019f0:	68a0      	ldr	r0, [r4, #8]
 80019f2:	f013 0207 	ands.w	r2, r3, #7
 80019f6:	eb00 05d3 	add.w	r5, r0, r3, lsr #3
 80019fa:	bf18      	it	ne
 80019fc:	2201      	movne	r2, #1
 80019fe:	18aa      	adds	r2, r5, r2
 8001a00:	60a2      	str	r2, [r4, #8]
 8001a02:	f2c4 0101 	movt	r1, #16385	; 0x4001
 8001a06:	f04f 4280 	mov.w	r2, #1073741824	; 0x40000000
 8001a0a:	f44f 5360 	mov.w	r3, #14336	; 0x3800
 8001a0e:	f2c4 0302 	movt	r3, #16386	; 0x4002
 8001a12:	2000      	movs	r0, #0
 8001a14:	6250      	str	r0, [r2, #36]	; 0x24
 8001a16:	6248      	str	r0, [r1, #36]	; 0x24
 8001a18:	6c19      	ldr	r1, [r3, #64]	; 0x40
 8001a1a:	f421 4000 	bic.w	r0, r1, #32768	; 0x8000
 8001a1e:	6418      	str	r0, [r3, #64]	; 0x40
 8001a20:	6a19      	ldr	r1, [r3, #32]
 8001a22:	f246 0288 	movw	r2, #24712	; 0x6088
 8001a26:	f2c4 0202 	movt	r2, #16386	; 0x4002
 8001a2a:	f441 4000 	orr.w	r0, r1, #32768	; 0x8000
 8001a2e:	6218      	str	r0, [r3, #32]
 8001a30:	6813      	ldr	r3, [r2, #0]
 8001a32:	f023 0101 	bic.w	r1, r3, #1
 8001a36:	6011      	str	r1, [r2, #0]
 8001a38:	e77e      	b.n	8001938 <TIM2_IRQHandler+0x24>
 8001a3a:	4d2d      	ldr	r5, [pc, #180]	; (8001af0 <TIM2_IRQHandler+0x1dc>)
 8001a3c:	4c2d      	ldr	r4, [pc, #180]	; (8001af4 <TIM2_IRQHandler+0x1e0>)
 8001a3e:	6829      	ldr	r1, [r5, #0]
 8001a40:	68a0      	ldr	r0, [r4, #8]
 8001a42:	6825      	ldr	r5, [r4, #0]
 8001a44:	f011 0307 	ands.w	r3, r1, #7
 8001a48:	bf18      	it	ne
 8001a4a:	2301      	movne	r3, #1
 8001a4c:	eb03 04d1 	add.w	r4, r3, r1, lsr #3
 8001a50:	f246 0388 	movw	r3, #24712	; 0x6088
 8001a54:	1828      	adds	r0, r5, r0
 8001a56:	f2c4 0302 	movt	r3, #16386	; 0x4002
 8001a5a:	3c01      	subs	r4, #1
 8001a5c:	f44f 41c0 	mov.w	r1, #24576	; 0x6000
 8001a60:	f2c4 0102 	movt	r1, #16386	; 0x4002
 8001a64:	1d45      	adds	r5, r0, #5
 8001a66:	b2a4      	uxth	r4, r4
 8001a68:	60dd      	str	r5, [r3, #12]
 8001a6a:	605c      	str	r4, [r3, #4]
 8001a6c:	68cb      	ldr	r3, [r1, #12]
 8001a6e:	f443 6574 	orr.w	r5, r3, #3904	; 0xf40
 8001a72:	60cd      	str	r5, [r1, #12]
 8001a74:	68cc      	ldr	r4, [r1, #12]
 8001a76:	f44f 5360 	mov.w	r3, #14336	; 0x3800
 8001a7a:	f2c4 0302 	movt	r3, #16386	; 0x4002
 8001a7e:	f424 6574 	bic.w	r5, r4, #3904	; 0xf40
 8001a82:	60cd      	str	r5, [r1, #12]
 8001a84:	6c19      	ldr	r1, [r3, #64]	; 0x40
 8001a86:	f441 4400 	orr.w	r4, r1, #32768	; 0x8000
 8001a8a:	641c      	str	r4, [r3, #64]	; 0x40
 8001a8c:	6a1d      	ldr	r5, [r3, #32]
 8001a8e:	f445 4100 	orr.w	r1, r5, #32768	; 0x8000
 8001a92:	6219      	str	r1, [r3, #32]
 8001a94:	6a1d      	ldr	r5, [r3, #32]
 8001a96:	f44f 5170 	mov.w	r1, #15360	; 0x3c00
 8001a9a:	f2c4 0100 	movt	r1, #16384	; 0x4000
 8001a9e:	f425 4500 	bic.w	r5, r5, #32768	; 0x8000
 8001aa2:	f248 0420 	movw	r4, #32800	; 0x8020
 8001aa6:	621d      	str	r5, [r3, #32]
 8001aa8:	f2c4 2407 	movt	r4, #16903	; 0x4207
 8001aac:	f24c 3380 	movw	r3, #50048	; 0xc380
 8001ab0:	600b      	str	r3, [r1, #0]
 8001ab2:	2302      	movs	r3, #2
 8001ab4:	604b      	str	r3, [r1, #4]
 8001ab6:	6022      	str	r2, [r4, #0]
 8001ab8:	7902      	ldrb	r2, [r0, #4]
 8001aba:	f042 000f 	orr.w	r0, r2, #15
 8001abe:	8188      	strh	r0, [r1, #12]
 8001ac0:	bf00      	nop
 8001ac2:	f248 0218 	movw	r2, #32792	; 0x8018
 8001ac6:	f2c4 2207 	movt	r2, #16903	; 0x4207
 8001aca:	f246 0388 	movw	r3, #24712	; 0x6088
 8001ace:	f2c4 0302 	movt	r3, #16386	; 0x4002
 8001ad2:	2101      	movs	r1, #1
 8001ad4:	6011      	str	r1, [r2, #0]
 8001ad6:	6818      	ldr	r0, [r3, #0]
 8001ad8:	4308      	orrs	r0, r1
 8001ada:	6018      	str	r0, [r3, #0]
 8001adc:	e72c      	b.n	8001938 <TIM2_IRQHandler+0x24>
 8001ade:	bf00      	nop
 8001ae0:	10000a6c 	.word	0x10000a6c
 8001ae4:	10000008 	.word	0x10000008
 8001ae8:	10000004 	.word	0x10000004
 8001aec:	10000a44 	.word	0x10000a44
 8001af0:	10000a3c 	.word	0x10000a3c
 8001af4:	10000a54 	.word	0x10000a54

08001af8 <_ZN9video_cfg4rows5setupEv>:
 8001af8:	f44f 5260 	mov.w	r2, #14336	; 0x3800
 8001afc:	f2c4 0202 	movt	r2, #16386	; 0x4002
 8001b00:	b4f0      	push	{r4, r5, r6, r7}
 8001b02:	6c11      	ldr	r1, [r2, #64]	; 0x40
 8001b04:	f041 0002 	orr.w	r0, r1, #2
 8001b08:	6410      	str	r0, [r2, #64]	; 0x40
 8001b0a:	6a14      	ldr	r4, [r2, #32]
 8001b0c:	f044 0502 	orr.w	r5, r4, #2
 8001b10:	6215      	str	r5, [r2, #32]
 8001b12:	6a16      	ldr	r6, [r2, #32]
 8001b14:	f44f 6380 	mov.w	r3, #1024	; 0x400
 8001b18:	f2c4 0300 	movt	r3, #16384	; 0x4000
 8001b1c:	f026 0702 	bic.w	r7, r6, #2
 8001b20:	6217      	str	r7, [r2, #32]
 8001b22:	681a      	ldr	r2, [r3, #0]
 8001b24:	f042 0108 	orr.w	r1, r2, #8
 8001b28:	b288      	uxth	r0, r1
 8001b2a:	6018      	str	r0, [r3, #0]
 8001b2c:	685c      	ldr	r4, [r3, #4]
 8001b2e:	f64f 757f 	movw	r5, #65407	; 0xff7f
 8001b32:	4025      	ands	r5, r4
 8001b34:	605d      	str	r5, [r3, #4]
 8001b36:	689e      	ldr	r6, [r3, #8]
 8001b38:	f24c 07ff 	movw	r7, #49407	; 0xc0ff
 8001b3c:	f446 4240 	orr.w	r2, r6, #49152	; 0xc000
 8001b40:	4017      	ands	r7, r2
 8001b42:	609f      	str	r7, [r3, #8]
 8001b44:	6998      	ldr	r0, [r3, #24]
 8001b46:	2101      	movs	r1, #1
 8001b48:	f361 0001 	bfi	r0, r1, #0, #2
 8001b4c:	f420 44f7 	bic.w	r4, r0, #31616	; 0x7b80
 8001b50:	f024 0570 	bic.w	r5, r4, #112	; 0x70
 8001b54:	042e      	lsls	r6, r5, #16
 8001b56:	0c37      	lsrs	r7, r6, #16
 8001b58:	619f      	str	r7, [r3, #24]
 8001b5a:	6a1a      	ldr	r2, [r3, #32]
 8001b5c:	f240 0410 	movw	r4, #16
 8001b60:	f240 0012 	movw	r0, #18
 8001b64:	f042 0510 	orr.w	r5, r2, #16
 8001b68:	f2c1 0400 	movt	r4, #4096	; 0x1000
 8001b6c:	f2c1 0000 	movt	r0, #4096	; 0x1000
 8001b70:	f240 010a 	movw	r1, #10
 8001b74:	f240 020e 	movw	r2, #14
 8001b78:	b2ae      	uxth	r6, r5
 8001b7a:	f2c1 0100 	movt	r1, #4096	; 0x1000
 8001b7e:	f2c1 0200 	movt	r2, #4096	; 0x1000
 8001b82:	621e      	str	r6, [r3, #32]
 8001b84:	f8b4 c000 	ldrh.w	ip, [r4]
 8001b88:	8807      	ldrh	r7, [r0, #0]
 8001b8a:	69de      	ldr	r6, [r3, #28]
 8001b8c:	880d      	ldrh	r5, [r1, #0]
 8001b8e:	8814      	ldrh	r4, [r2, #0]
 8001b90:	ea4f 005c 	mov.w	r0, ip, lsr #1
 8001b94:	f248 4284 	movw	r2, #33924	; 0x8484
 8001b98:	0879      	lsrs	r1, r7, #1
 8001b9a:	4032      	ands	r2, r6
 8001b9c:	3801      	subs	r0, #1
 8001b9e:	3902      	subs	r1, #2
 8001ba0:	3d01      	subs	r5, #1
 8001ba2:	3c01      	subs	r4, #1
 8001ba4:	61da      	str	r2, [r3, #28]
 8001ba6:	639d      	str	r5, [r3, #56]	; 0x38
 8001ba8:	63dc      	str	r4, [r3, #60]	; 0x3c
 8001baa:	6418      	str	r0, [r3, #64]	; 0x40
 8001bac:	62d9      	str	r1, [r3, #44]	; 0x2c
 8001bae:	68d8      	ldr	r0, [r3, #12]
 8001bb0:	f44f 4261 	mov.w	r2, #57600	; 0xe100
 8001bb4:	f040 011d 	orr.w	r1, r0, #29
 8001bb8:	b288      	uxth	r0, r1
 8001bba:	f2ce 0200 	movt	r2, #57344	; 0xe000
 8001bbe:	2100      	movs	r1, #0
 8001bc0:	60d8      	str	r0, [r3, #12]
 8001bc2:	6259      	str	r1, [r3, #36]	; 0x24
 8001bc4:	f04f 5000 	mov.w	r0, #536870912	; 0x20000000
 8001bc8:	23b0      	movs	r3, #176	; 0xb0
 8001bca:	f882 331d 	strb.w	r3, [r2, #797]	; 0x31d
 8001bce:	6010      	str	r0, [r2, #0]
 8001bd0:	bcf0      	pop	{r4, r5, r6, r7}
 8001bd2:	4770      	bx	lr

08001bd4 <TIM3_IRQHandler>:
 8001bd4:	4668      	mov	r0, sp
 8001bd6:	f020 0107 	bic.w	r1, r0, #7
 8001bda:	468d      	mov	sp, r1
 8001bdc:	b531      	push	{r0, r4, r5, lr}
 8001bde:	f44f 6480 	mov.w	r4, #1024	; 0x400
 8001be2:	f2c4 0400 	movt	r4, #16384	; 0x4000
 8001be6:	6923      	ldr	r3, [r4, #16]
 8001be8:	f013 0504 	ands.w	r5, r3, #4
 8001bec:	d120      	bne.n	8001c30 <TIM3_IRQHandler+0x5c>
 8001bee:	f013 0208 	ands.w	r2, r3, #8
 8001bf2:	d129      	bne.n	8001c48 <TIM3_IRQHandler+0x74>
 8001bf4:	f013 0510 	ands.w	r5, r3, #16
 8001bf8:	d10f      	bne.n	8001c1a <TIM3_IRQHandler+0x46>
 8001bfa:	f44f 4002 	mov.w	r0, #33280	; 0x8200
 8001bfe:	f2c4 2000 	movt	r0, #16896	; 0x4200
 8001c02:	6005      	str	r5, [r0, #0]
 8001c04:	f7ff fd0c 	bl	8001620 <_ZN9video_cfg7columns3osd7disableEv>
 8001c08:	4914      	ldr	r1, [pc, #80]	; (8001c5c <TIM3_IRQHandler+0x88>)
 8001c0a:	600d      	str	r5, [r1, #0]
 8001c0c:	6265      	str	r5, [r4, #36]	; 0x24
 8001c0e:	f002 ffbb 	bl	8004b88 <_Z15sync_sep_enablev>
 8001c12:	e8bd 4031 	ldmia.w	sp!, {r0, r4, r5, lr}
 8001c16:	4685      	mov	sp, r0
 8001c18:	4770      	bx	lr
 8001c1a:	f248 2310 	movw	r3, #33296	; 0x8210
 8001c1e:	f2c4 2300 	movt	r3, #16896	; 0x4200
 8001c22:	480e      	ldr	r0, [pc, #56]	; (8001c5c <TIM3_IRQHandler+0x88>)
 8001c24:	601a      	str	r2, [r3, #0]
 8001c26:	2202      	movs	r2, #2
 8001c28:	6002      	str	r2, [r0, #0]
 8001c2a:	f7ff fca3 	bl	8001574 <_ZN9video_cfg7columns3osd6enableEv>
 8001c2e:	e7f0      	b.n	8001c12 <TIM3_IRQHandler+0x3e>
 8001c30:	f248 2008 	movw	r0, #33288	; 0x8208
 8001c34:	f2c4 2000 	movt	r0, #16896	; 0x4200
 8001c38:	2200      	movs	r2, #0
 8001c3a:	4b08      	ldr	r3, [pc, #32]	; (8001c5c <TIM3_IRQHandler+0x88>)
 8001c3c:	6002      	str	r2, [r0, #0]
 8001c3e:	2101      	movs	r1, #1
 8001c40:	6019      	str	r1, [r3, #0]
 8001c42:	f7ff fd01 	bl	8001648 <_ZN9video_cfg7columns5telem6enableEv>
 8001c46:	e7e4      	b.n	8001c12 <TIM3_IRQHandler+0x3e>
 8001c48:	f248 210c 	movw	r1, #33292	; 0x820c
 8001c4c:	f2c4 2100 	movt	r1, #16896	; 0x4200
 8001c50:	600d      	str	r5, [r1, #0]
 8001c52:	f7ff fd43 	bl	80016dc <_ZN9video_cfg7columns5telem7disableEv>
 8001c56:	4b01      	ldr	r3, [pc, #4]	; (8001c5c <TIM3_IRQHandler+0x88>)
 8001c58:	601d      	str	r5, [r3, #0]
 8001c5a:	e7da      	b.n	8001c12 <TIM3_IRQHandler+0x3e>
 8001c5c:	10000a6c 	.word	0x10000a6c

08001c60 <_ZN9video_cfg9spi_clock5setupEv>:
 8001c60:	f44f 5260 	mov.w	r2, #14336	; 0x3800
 8001c64:	f2c4 0202 	movt	r2, #16386	; 0x4002
 8001c68:	2300      	movs	r3, #0
 8001c6a:	6b11      	ldr	r1, [r2, #48]	; 0x30
 8001c6c:	f2c4 0302 	movt	r3, #16386	; 0x4002
 8001c70:	f041 0001 	orr.w	r0, r1, #1
 8001c74:	b410      	push	{r4}
 8001c76:	6310      	str	r0, [r2, #48]	; 0x30
 8001c78:	681c      	ldr	r4, [r3, #0]
 8001c7a:	f424 3140 	bic.w	r1, r4, #196608	; 0x30000
 8001c7e:	f441 3000 	orr.w	r0, r1, #131072	; 0x20000
 8001c82:	6018      	str	r0, [r3, #0]
 8001c84:	689c      	ldr	r4, [r3, #8]
 8001c86:	f444 3140 	orr.w	r1, r4, #196608	; 0x30000
 8001c8a:	6099      	str	r1, [r3, #8]
 8001c8c:	6958      	ldr	r0, [r3, #20]
 8001c8e:	f420 7480 	bic.w	r4, r0, #256	; 0x100
 8001c92:	615c      	str	r4, [r3, #20]
 8001c94:	6a59      	ldr	r1, [r3, #36]	; 0x24
 8001c96:	f021 000f 	bic.w	r0, r1, #15
 8001c9a:	f040 0401 	orr.w	r4, r0, #1
 8001c9e:	625c      	str	r4, [r3, #36]	; 0x24
 8001ca0:	6c53      	ldr	r3, [r2, #68]	; 0x44
 8001ca2:	f043 0101 	orr.w	r1, r3, #1
 8001ca6:	6451      	str	r1, [r2, #68]	; 0x44
 8001ca8:	6a50      	ldr	r0, [r2, #36]	; 0x24
 8001caa:	f040 0401 	orr.w	r4, r0, #1
 8001cae:	6254      	str	r4, [r2, #36]	; 0x24
 8001cb0:	6a51      	ldr	r1, [r2, #36]	; 0x24
 8001cb2:	2300      	movs	r3, #0
 8001cb4:	f2c4 0301 	movt	r3, #16385	; 0x4001
 8001cb8:	f021 0001 	bic.w	r0, r1, #1
 8001cbc:	6250      	str	r0, [r2, #36]	; 0x24
 8001cbe:	681a      	ldr	r2, [r3, #0]
 8001cc0:	f36f 2209 	bfc	r2, #8, #2
 8001cc4:	f36f 12c7 	bfc	r2, #7, #1
 8001cc8:	f36f 1246 	bfc	r2, #5, #2
 8001ccc:	f36f 1204 	bfc	r2, #4, #1
 8001cd0:	f042 0404 	orr.w	r4, r2, #4
 8001cd4:	f024 010b 	bic.w	r1, r4, #11
 8001cd8:	0408      	lsls	r0, r1, #16
 8001cda:	0c02      	lsrs	r2, r0, #16
 8001cdc:	601a      	str	r2, [r3, #0]
 8001cde:	685c      	ldr	r4, [r3, #4]
 8001ce0:	f64f 6107 	movw	r1, #65031	; 0xfe07
 8001ce4:	4021      	ands	r1, r4
 8001ce6:	6059      	str	r1, [r3, #4]
 8001ce8:	6898      	ldr	r0, [r3, #8]
 8001cea:	f36f 30cf 	bfc	r0, #15, #1
 8001cee:	f36f 308e 	bfc	r0, #14, #1
 8001cf2:	f36f 300d 	bfc	r0, #12, #2
 8001cf6:	2201      	movs	r2, #1
 8001cf8:	f36f 200b 	bfc	r0, #8, #4
 8001cfc:	f362 1006 	bfi	r0, r2, #4, #3
 8001d00:	2405      	movs	r4, #5
 8001d02:	f364 0002 	bfi	r0, r4, #0, #3
 8001d06:	b281      	uxth	r1, r0
 8001d08:	6099      	str	r1, [r3, #8]
 8001d0a:	6998      	ldr	r0, [r3, #24]
 8001d0c:	f36f 0001 	bfc	r0, #0, #2
 8001d10:	f040 0270 	orr.w	r2, r0, #112	; 0x70
 8001d14:	f022 040c 	bic.w	r4, r2, #12
 8001d18:	0420      	lsls	r0, r4, #16
 8001d1a:	f240 0114 	movw	r1, #20
 8001d1e:	0c02      	lsrs	r2, r0, #16
 8001d20:	f2c1 0100 	movt	r1, #4096	; 0x1000
 8001d24:	619a      	str	r2, [r3, #24]
 8001d26:	8808      	ldrh	r0, [r1, #0]
 8001d28:	6a1c      	ldr	r4, [r3, #32]
 8001d2a:	0042      	lsls	r2, r0, #1
 8001d2c:	f044 0101 	orr.w	r1, r4, #1
 8001d30:	b290      	uxth	r0, r2
 8001d32:	f021 0402 	bic.w	r4, r1, #2
 8001d36:	0422      	lsls	r2, r4, #16
 8001d38:	0844      	lsrs	r4, r0, #1
 8001d3a:	2100      	movs	r1, #0
 8001d3c:	0c12      	lsrs	r2, r2, #16
 8001d3e:	3801      	subs	r0, #1
 8001d40:	3c01      	subs	r4, #1
 8001d42:	621a      	str	r2, [r3, #32]
 8001d44:	6319      	str	r1, [r3, #48]	; 0x30
 8001d46:	62d8      	str	r0, [r3, #44]	; 0x2c
 8001d48:	635c      	str	r4, [r3, #52]	; 0x34
 8001d4a:	6259      	str	r1, [r3, #36]	; 0x24
 8001d4c:	6119      	str	r1, [r3, #16]
 8001d4e:	60d9      	str	r1, [r3, #12]
 8001d50:	6c59      	ldr	r1, [r3, #68]	; 0x44
 8001d52:	f401 6280 	and.w	r2, r1, #1024	; 0x400
 8001d56:	f442 4008 	orr.w	r0, r2, #34816	; 0x8800
 8001d5a:	6458      	str	r0, [r3, #68]	; 0x44
 8001d5c:	6819      	ldr	r1, [r3, #0]
 8001d5e:	f041 0201 	orr.w	r2, r1, #1
 8001d62:	601a      	str	r2, [r3, #0]
 8001d64:	bc10      	pop	{r4}
 8001d66:	4770      	bx	lr

08001d68 <_Z9spi_setupv>:
 8001d68:	f44f 5260 	mov.w	r2, #14336	; 0x3800
 8001d6c:	f2c4 0202 	movt	r2, #16386	; 0x4002
 8001d70:	f44f 6380 	mov.w	r3, #1024	; 0x400
 8001d74:	6b11      	ldr	r1, [r2, #48]	; 0x30
 8001d76:	f2c4 0302 	movt	r3, #16386	; 0x4002
 8001d7a:	f041 0002 	orr.w	r0, r1, #2
 8001d7e:	6310      	str	r0, [r2, #48]	; 0x30
 8001d80:	6819      	ldr	r1, [r3, #0]
 8001d82:	f021 6040 	bic.w	r0, r1, #201326592	; 0xc000000
 8001d86:	f040 6100 	orr.w	r1, r0, #134217728	; 0x8000000
 8001d8a:	6019      	str	r1, [r3, #0]
 8001d8c:	68d8      	ldr	r0, [r3, #12]
 8001d8e:	f020 6140 	bic.w	r1, r0, #201326592	; 0xc000000
 8001d92:	f041 6000 	orr.w	r0, r1, #134217728	; 0x8000000
 8001d96:	60d8      	str	r0, [r3, #12]
 8001d98:	6a59      	ldr	r1, [r3, #36]	; 0x24
 8001d9a:	f421 0070 	bic.w	r0, r1, #15728640	; 0xf00000
 8001d9e:	f440 01a0 	orr.w	r1, r0, #5242880	; 0x500000
 8001da2:	6259      	str	r1, [r3, #36]	; 0x24
 8001da4:	6b10      	ldr	r0, [r2, #48]	; 0x30
 8001da6:	f040 0102 	orr.w	r1, r0, #2
 8001daa:	6311      	str	r1, [r2, #48]	; 0x30
 8001dac:	6818      	ldr	r0, [r3, #0]
 8001dae:	f020 5140 	bic.w	r1, r0, #805306368	; 0x30000000
 8001db2:	f041 5000 	orr.w	r0, r1, #536870912	; 0x20000000
 8001db6:	6018      	str	r0, [r3, #0]
 8001db8:	6859      	ldr	r1, [r3, #4]
 8001dba:	f421 4080 	bic.w	r0, r1, #16384	; 0x4000
 8001dbe:	6058      	str	r0, [r3, #4]
 8001dc0:	6899      	ldr	r1, [r3, #8]
 8001dc2:	f041 5040 	orr.w	r0, r1, #805306368	; 0x30000000
 8001dc6:	6098      	str	r0, [r3, #8]
 8001dc8:	68d9      	ldr	r1, [r3, #12]
 8001dca:	f021 5040 	bic.w	r0, r1, #805306368	; 0x30000000
 8001dce:	60d8      	str	r0, [r3, #12]
 8001dd0:	6959      	ldr	r1, [r3, #20]
 8001dd2:	f441 4080 	orr.w	r0, r1, #16384	; 0x4000
 8001dd6:	6158      	str	r0, [r3, #20]
 8001dd8:	6a59      	ldr	r1, [r3, #36]	; 0x24
 8001dda:	f021 6070 	bic.w	r0, r1, #251658240	; 0xf000000
 8001dde:	f040 61a0 	orr.w	r1, r0, #83886080	; 0x5000000
 8001de2:	6259      	str	r1, [r3, #36]	; 0x24
 8001de4:	6b10      	ldr	r0, [r2, #48]	; 0x30
 8001de6:	f040 0102 	orr.w	r1, r0, #2
 8001dea:	6311      	str	r1, [r2, #48]	; 0x30
 8001dec:	6818      	ldr	r0, [r3, #0]
 8001dee:	f020 01c0 	bic.w	r1, r0, #192	; 0xc0
 8001df2:	f041 0080 	orr.w	r0, r1, #128	; 0x80
 8001df6:	6018      	str	r0, [r3, #0]
 8001df8:	68d9      	ldr	r1, [r3, #12]
 8001dfa:	f021 00c0 	bic.w	r0, r1, #192	; 0xc0
 8001dfe:	f040 0180 	orr.w	r1, r0, #128	; 0x80
 8001e02:	60d9      	str	r1, [r3, #12]
 8001e04:	6a18      	ldr	r0, [r3, #32]
 8001e06:	f420 4170 	bic.w	r1, r0, #61440	; 0xf000
 8001e0a:	f441 40c0 	orr.w	r0, r1, #24576	; 0x6000
 8001e0e:	6218      	str	r0, [r3, #32]
 8001e10:	6b11      	ldr	r1, [r2, #48]	; 0x30
 8001e12:	f041 0002 	orr.w	r0, r1, #2
 8001e16:	6310      	str	r0, [r2, #48]	; 0x30
 8001e18:	681a      	ldr	r2, [r3, #0]
 8001e1a:	f422 7140 	bic.w	r1, r2, #768	; 0x300
 8001e1e:	f441 7000 	orr.w	r0, r1, #512	; 0x200
 8001e22:	6018      	str	r0, [r3, #0]
 8001e24:	685a      	ldr	r2, [r3, #4]
 8001e26:	f022 0110 	bic.w	r1, r2, #16
 8001e2a:	6059      	str	r1, [r3, #4]
 8001e2c:	6898      	ldr	r0, [r3, #8]
 8001e2e:	f440 7240 	orr.w	r2, r0, #768	; 0x300
 8001e32:	609a      	str	r2, [r3, #8]
 8001e34:	68d9      	ldr	r1, [r3, #12]
 8001e36:	f421 7040 	bic.w	r0, r1, #768	; 0x300
 8001e3a:	60d8      	str	r0, [r3, #12]
 8001e3c:	695a      	ldr	r2, [r3, #20]
 8001e3e:	f042 0110 	orr.w	r1, r2, #16
 8001e42:	6159      	str	r1, [r3, #20]
 8001e44:	6a18      	ldr	r0, [r3, #32]
 8001e46:	f420 2270 	bic.w	r2, r0, #983040	; 0xf0000
 8001e4a:	f442 21c0 	orr.w	r1, r2, #393216	; 0x60000
 8001e4e:	6219      	str	r1, [r3, #32]
 8001e50:	4770      	bx	lr
 8001e52:	bf00      	nop

08001e54 <_Z15pixel_dma_setupv>:
 8001e54:	f44f 5260 	mov.w	r2, #14336	; 0x3800
 8001e58:	f2c4 0202 	movt	r2, #16386	; 0x4002
 8001e5c:	2314      	movs	r3, #20
 8001e5e:	6b11      	ldr	r1, [r2, #48]	; 0x30
 8001e60:	f441 1000 	orr.w	r0, r1, #2097152	; 0x200000
 8001e64:	6310      	str	r0, [r2, #48]	; 0x30
 8001e66:	bf00      	nop
 8001e68:	3b01      	subs	r3, #1
 8001e6a:	b2da      	uxtb	r2, r3
 8001e6c:	bf00      	nop
 8001e6e:	1e51      	subs	r1, r2, #1
 8001e70:	f011 03ff 	ands.w	r3, r1, #255	; 0xff
 8001e74:	d1f7      	bne.n	8001e66 <_Z15pixel_dma_setupv+0x12>
 8001e76:	f44f 5060 	mov.w	r0, #14336	; 0x3800
 8001e7a:	f2c4 0002 	movt	r0, #16386	; 0x4002
 8001e7e:	f246 0270 	movw	r2, #24688	; 0x6070
 8001e82:	6901      	ldr	r1, [r0, #16]
 8001e84:	f441 1300 	orr.w	r3, r1, #2097152	; 0x200000
 8001e88:	6103      	str	r3, [r0, #16]
 8001e8a:	6901      	ldr	r1, [r0, #16]
 8001e8c:	f2c4 0202 	movt	r2, #16386	; 0x4002
 8001e90:	f421 1300 	bic.w	r3, r1, #2097152	; 0x200000
 8001e94:	6103      	str	r3, [r0, #16]
 8001e96:	6810      	ldr	r0, [r2, #0]
 8001e98:	07c3      	lsls	r3, r0, #31
 8001e9a:	d506      	bpl.n	8001eaa <_Z15pixel_dma_setupv+0x56>
 8001e9c:	6811      	ldr	r1, [r2, #0]
 8001e9e:	f021 0301 	bic.w	r3, r1, #1
 8001ea2:	6013      	str	r3, [r2, #0]
 8001ea4:	6810      	ldr	r0, [r2, #0]
 8001ea6:	07c1      	lsls	r1, r0, #31
 8001ea8:	d4fc      	bmi.n	8001ea4 <_Z15pixel_dma_setupv+0x50>
 8001eaa:	f246 0370 	movw	r3, #24688	; 0x6070
 8001eae:	f2c4 0302 	movt	r3, #16386	; 0x4002
 8001eb2:	f44f 6288 	mov.w	r2, #1088	; 0x440
 8001eb6:	f2c0 0203 	movt	r2, #3
 8001eba:	601a      	str	r2, [r3, #0]
 8001ebc:	6959      	ldr	r1, [r3, #20]
 8001ebe:	f041 0004 	orr.w	r0, r1, #4
 8001ec2:	6158      	str	r0, [r3, #20]
 8001ec4:	6958      	ldr	r0, [r3, #20]
 8001ec6:	f643 010c 	movw	r1, #14348	; 0x380c
 8001eca:	f246 0288 	movw	r2, #24712	; 0x6088
 8001ece:	f040 0003 	orr.w	r0, r0, #3
 8001ed2:	f2c4 0100 	movt	r1, #16384	; 0x4000
 8001ed6:	f2c4 0202 	movt	r2, #16386	; 0x4002
 8001eda:	6158      	str	r0, [r3, #20]
 8001edc:	6099      	str	r1, [r3, #8]
 8001ede:	6813      	ldr	r3, [r2, #0]
 8001ee0:	07d8      	lsls	r0, r3, #31
 8001ee2:	d506      	bpl.n	8001ef2 <_Z15pixel_dma_setupv+0x9e>
 8001ee4:	6811      	ldr	r1, [r2, #0]
 8001ee6:	f021 0001 	bic.w	r0, r1, #1
 8001eea:	6010      	str	r0, [r2, #0]
 8001eec:	6813      	ldr	r3, [r2, #0]
 8001eee:	07db      	lsls	r3, r3, #31
 8001ef0:	d4fc      	bmi.n	8001eec <_Z15pixel_dma_setupv+0x98>
 8001ef2:	f246 0088 	movw	r0, #24712	; 0x6088
 8001ef6:	f2c4 0002 	movt	r0, #16386	; 0x4002
 8001efa:	f44f 6288 	mov.w	r2, #1088	; 0x440
 8001efe:	f2c0 0203 	movt	r2, #3
 8001f02:	6002      	str	r2, [r0, #0]
 8001f04:	6941      	ldr	r1, [r0, #20]
 8001f06:	f041 0304 	orr.w	r3, r1, #4
 8001f0a:	6143      	str	r3, [r0, #20]
 8001f0c:	6941      	ldr	r1, [r0, #20]
 8001f0e:	f643 420c 	movw	r2, #15372	; 0x3c0c
 8001f12:	f041 0303 	orr.w	r3, r1, #3
 8001f16:	f2c4 0200 	movt	r2, #16384	; 0x4000
 8001f1a:	6143      	str	r3, [r0, #20]
 8001f1c:	6082      	str	r2, [r0, #8]
 8001f1e:	4770      	bx	lr

08001f20 <_Z18av_telem_dma_setupv>:
 8001f20:	f44f 5260 	mov.w	r2, #14336	; 0x3800
 8001f24:	f2c4 0202 	movt	r2, #16386	; 0x4002
 8001f28:	2314      	movs	r3, #20
 8001f2a:	6b11      	ldr	r1, [r2, #48]	; 0x30
 8001f2c:	f441 0080 	orr.w	r0, r1, #4194304	; 0x400000
 8001f30:	6310      	str	r0, [r2, #48]	; 0x30
 8001f32:	bf00      	nop
 8001f34:	3b01      	subs	r3, #1
 8001f36:	b2da      	uxtb	r2, r3
 8001f38:	bf00      	nop
 8001f3a:	1e51      	subs	r1, r2, #1
 8001f3c:	f011 03ff 	ands.w	r3, r1, #255	; 0xff
 8001f40:	d1f7      	bne.n	8001f32 <_Z18av_telem_dma_setupv+0x12>
 8001f42:	f44f 5060 	mov.w	r0, #14336	; 0x3800
 8001f46:	f2c4 0002 	movt	r0, #16386	; 0x4002
 8001f4a:	f246 4288 	movw	r2, #25736	; 0x6488
 8001f4e:	6901      	ldr	r1, [r0, #16]
 8001f50:	f441 0380 	orr.w	r3, r1, #4194304	; 0x400000
 8001f54:	6103      	str	r3, [r0, #16]
 8001f56:	6901      	ldr	r1, [r0, #16]
 8001f58:	f2c4 0202 	movt	r2, #16386	; 0x4002
 8001f5c:	f421 0380 	bic.w	r3, r1, #4194304	; 0x400000
 8001f60:	6103      	str	r3, [r0, #16]
 8001f62:	6810      	ldr	r0, [r2, #0]
 8001f64:	07c0      	lsls	r0, r0, #31
 8001f66:	d506      	bpl.n	8001f76 <_Z18av_telem_dma_setupv+0x56>
 8001f68:	6811      	ldr	r1, [r2, #0]
 8001f6a:	f021 0301 	bic.w	r3, r1, #1
 8001f6e:	6013      	str	r3, [r2, #0]
 8001f70:	6810      	ldr	r0, [r2, #0]
 8001f72:	07c1      	lsls	r1, r0, #31
 8001f74:	d4fc      	bmi.n	8001f70 <_Z18av_telem_dma_setupv+0x50>
 8001f76:	f246 4388 	movw	r3, #25736	; 0x6488
 8001f7a:	f2c4 0302 	movt	r3, #16386	; 0x4002
 8001f7e:	f44f 6280 	mov.w	r2, #1024	; 0x400
 8001f82:	f6c0 0202 	movt	r2, #2050	; 0x802
 8001f86:	601a      	str	r2, [r3, #0]
 8001f88:	6959      	ldr	r1, [r3, #20]
 8001f8a:	f041 0004 	orr.w	r0, r1, #4
 8001f8e:	6158      	str	r0, [r3, #20]
 8001f90:	6958      	ldr	r0, [r3, #20]
 8001f92:	f44f 4261 	mov.w	r2, #57600	; 0xe100
 8001f96:	f241 0104 	movw	r1, #4100	; 0x1004
 8001f9a:	f2ce 0200 	movt	r2, #57344	; 0xe000
 8001f9e:	f2c4 0101 	movt	r1, #16385	; 0x4001
 8001fa2:	f040 0003 	orr.w	r0, r0, #3
 8001fa6:	6158      	str	r0, [r3, #20]
 8001fa8:	6099      	str	r1, [r3, #8]
 8001faa:	23b0      	movs	r3, #176	; 0xb0
 8001fac:	2110      	movs	r1, #16
 8001fae:	f882 3344 	strb.w	r3, [r2, #836]	; 0x344
 8001fb2:	6091      	str	r1, [r2, #8]
 8001fb4:	4770      	bx	lr
 8001fb6:	bf00      	nop

08001fb8 <_ZNK12_GLOBAL__N_112fontchar_A_t8get_dataEv>:
 8001fb8:	f64d 7028 	movw	r0, #57128	; 0xdf28
 8001fbc:	f6c0 0000 	movt	r0, #2048	; 0x800
 8001fc0:	4770      	bx	lr
 8001fc2:	bf00      	nop

08001fc4 <_ZNK12_GLOBAL__N_112fontchar_B_t8get_dataEv>:
 8001fc4:	f24e 40c0 	movw	r0, #58560	; 0xe4c0
 8001fc8:	f6c0 0000 	movt	r0, #2048	; 0x800
 8001fcc:	4770      	bx	lr
 8001fce:	bf00      	nop

08001fd0 <_ZNK12_GLOBAL__N_112fontchar_C_t8get_dataEv>:
 8001fd0:	f64e 2078 	movw	r0, #60024	; 0xea78
 8001fd4:	f6c0 0000 	movt	r0, #2048	; 0x800
 8001fd8:	4770      	bx	lr
 8001fda:	bf00      	nop

08001fdc <_ZNK12_GLOBAL__N_112fontchar_D_t8get_dataEv>:
 8001fdc:	f64e 7068 	movw	r0, #61288	; 0xef68
 8001fe0:	f6c0 0000 	movt	r0, #2048	; 0x800
 8001fe4:	4770      	bx	lr
 8001fe6:	bf00      	nop

08001fe8 <_ZNK12_GLOBAL__N_112fontchar_E_t8get_dataEv>:
 8001fe8:	f24f 30e8 	movw	r0, #62440	; 0xf3e8
 8001fec:	f6c0 0000 	movt	r0, #2048	; 0x800
 8001ff0:	4770      	bx	lr
 8001ff2:	bf00      	nop

08001ff4 <_ZNK12_GLOBAL__N_112fontchar_F_t8get_dataEv>:
 8001ff4:	f64d 00c0 	movw	r0, #55488	; 0xd8c0
 8001ff8:	f6c0 0000 	movt	r0, #2048	; 0x800
 8001ffc:	4770      	bx	lr
 8001ffe:	bf00      	nop

08002000 <_ZNK12_GLOBAL__N_112fontchar_G_t8get_dataEv>:
 8002000:	f64d 2098 	movw	r0, #55960	; 0xda98
 8002004:	f6c0 0000 	movt	r0, #2048	; 0x800
 8002008:	4770      	bx	lr
 800200a:	bf00      	nop

0800200c <_ZNK12_GLOBAL__N_112fontchar_H_t8get_dataEv>:
 800200c:	f24e 00a8 	movw	r0, #57512	; 0xe0a8
 8002010:	f6c0 0000 	movt	r0, #2048	; 0x800
 8002014:	4770      	bx	lr
 8002016:	bf00      	nop

08002018 <_ZNK12_GLOBAL__N_112fontchar_I_t8get_dataEv>:
 8002018:	f24e 6048 	movw	r0, #58952	; 0xe648
 800201c:	f6c0 0000 	movt	r0, #2048	; 0x800
 8002020:	4770      	bx	lr
 8002022:	bf00      	nop

08002024 <_ZNK12_GLOBAL__N_112fontchar_J_t8get_dataEv>:
 8002024:	f64e 30c0 	movw	r0, #60352	; 0xebc0
 8002028:	f6c0 0000 	movt	r0, #2048	; 0x800
 800202c:	4770      	bx	lr
 800202e:	bf00      	nop

08002030 <_ZNK12_GLOBAL__N_112fontchar_K_t8get_dataEv>:
 8002030:	f24f 0058 	movw	r0, #61528	; 0xf058
 8002034:	f6c0 0000 	movt	r0, #2048	; 0x800
 8002038:	4770      	bx	lr
 800203a:	bf00      	nop

0800203c <_ZNK12_GLOBAL__N_112fontchar_L_t8get_dataEv>:
 800203c:	f24f 5080 	movw	r0, #62848	; 0xf580
 8002040:	f6c0 0000 	movt	r0, #2048	; 0x800
 8002044:	4770      	bx	lr
 8002046:	bf00      	nop

08002048 <_ZNK12_GLOBAL__N_112fontchar_M_t8get_dataEv>:
 8002048:	f24d 7048 	movw	r0, #55112	; 0xd748
 800204c:	f6c0 0000 	movt	r0, #2048	; 0x800
 8002050:	4770      	bx	lr
 8002052:	bf00      	nop

08002054 <_ZNK12_GLOBAL__N_112fontchar_N_t8get_dataEv>:
 8002054:	f64d 4010 	movw	r0, #56336	; 0xdc10
 8002058:	f6c0 0000 	movt	r0, #2048	; 0x800
 800205c:	4770      	bx	lr
 800205e:	bf00      	nop

08002060 <_ZNK12_GLOBAL__N_112fontchar_O_t8get_dataEv>:
 8002060:	f24e 2070 	movw	r0, #57968	; 0xe270
 8002064:	f6c0 0000 	movt	r0, #2048	; 0x800
 8002068:	4770      	bx	lr
 800206a:	bf00      	nop

0800206c <_ZNK12_GLOBAL__N_112fontchar_P_t8get_dataEv>:
 800206c:	f24e 70d8 	movw	r0, #59352	; 0xe7d8
 8002070:	f6c0 0000 	movt	r0, #2048	; 0x800
 8002074:	4770      	bx	lr
 8002076:	bf00      	nop

08002078 <_ZNK12_GLOBAL__N_112fontchar_Q_t8get_dataEv>:
 8002078:	f64e 5028 	movw	r0, #60712	; 0xed28
 800207c:	f6c0 0000 	movt	r0, #2048	; 0x800
 8002080:	4770      	bx	lr
 8002082:	bf00      	nop

08002084 <_ZNK12_GLOBAL__N_112fontchar_R_t8get_dataEv>:
 8002084:	f24f 10c0 	movw	r0, #61888	; 0xf1c0
 8002088:	f6c0 0000 	movt	r0, #2048	; 0x800
 800208c:	4770      	bx	lr
 800208e:	bf00      	nop

08002090 <_ZNK12_GLOBAL__N_112fontchar_S_t8get_dataEv>:
 8002090:	f24f 6088 	movw	r0, #63112	; 0xf688
 8002094:	f6c0 0000 	movt	r0, #2048	; 0x800
 8002098:	4770      	bx	lr
 800209a:	bf00      	nop

0800209c <_ZNK12_GLOBAL__N_112fontchar_T_t8get_dataEv>:
 800209c:	f64d 00f8 	movw	r0, #55544	; 0xd8f8
 80020a0:	f6c0 0000 	movt	r0, #2048	; 0x800
 80020a4:	4770      	bx	lr
 80020a6:	bf00      	nop

080020a8 <_ZNK12_GLOBAL__N_112fontchar_U_t8get_dataEv>:
 80020a8:	f64d 60b0 	movw	r0, #57008	; 0xdeb0
 80020ac:	f6c0 0000 	movt	r0, #2048	; 0x800
 80020b0:	4770      	bx	lr
 80020b2:	bf00      	nop

080020b4 <_ZNK12_GLOBAL__N_112fontchar_V_t8get_dataEv>:
 80020b4:	f24f 3058 	movw	r0, #62296	; 0xf358
 80020b8:	f6c0 0000 	movt	r0, #2048	; 0x800
 80020bc:	4770      	bx	lr
 80020be:	bf00      	nop

080020c0 <_ZNK12_GLOBAL__N_112fontchar_W_t8get_dataEv>:
 80020c0:	f64e 2000 	movw	r0, #59904	; 0xea00
 80020c4:	f6c0 0000 	movt	r0, #2048	; 0x800
 80020c8:	4770      	bx	lr
 80020ca:	bf00      	nop

080020cc <_ZNK12_GLOBAL__N_112fontchar_X_t8get_dataEv>:
 80020cc:	f64e 60b8 	movw	r0, #61112	; 0xeeb8
 80020d0:	f6c0 0000 	movt	r0, #2048	; 0x800
 80020d4:	4770      	bx	lr
 80020d6:	bf00      	nop

080020d8 <_ZNK12_GLOBAL__N_112fontchar_Y_t8get_dataEv>:
 80020d8:	f24f 3000 	movw	r0, #62208	; 0xf300
 80020dc:	f6c0 0000 	movt	r0, #2048	; 0x800
 80020e0:	4770      	bx	lr
 80020e2:	bf00      	nop

080020e4 <_ZNK12_GLOBAL__N_112fontchar_Z_t8get_dataEv>:
 80020e4:	f64d 70f8 	movw	r0, #57336	; 0xdff8
 80020e8:	f6c0 0000 	movt	r0, #2048	; 0x800
 80020ec:	4770      	bx	lr
 80020ee:	bf00      	nop

080020f0 <_ZNK12_GLOBAL__N_112fontchar_a_t8get_dataEv>:
 80020f0:	f24d 70a0 	movw	r0, #55200	; 0xd7a0
 80020f4:	f6c0 0000 	movt	r0, #2048	; 0x800
 80020f8:	4770      	bx	lr
 80020fa:	bf00      	nop

080020fc <_ZNK12_GLOBAL__N_112fontchar_b_t8get_dataEv>:
 80020fc:	f64d 30b8 	movw	r0, #56248	; 0xdbb8
 8002100:	f6c0 0000 	movt	r0, #2048	; 0x800
 8002104:	4770      	bx	lr
 8002106:	bf00      	nop

08002108 <_ZNK12_GLOBAL__N_112fontchar_c_t8get_dataEv>:
 8002108:	f24e 2018 	movw	r0, #57880	; 0xe218
 800210c:	f6c0 0000 	movt	r0, #2048	; 0x800
 8002110:	4770      	bx	lr
 8002112:	bf00      	nop

08002114 <_ZNK12_GLOBAL__N_112fontchar_d_t8get_dataEv>:
 8002114:	f24e 7068 	movw	r0, #59240	; 0xe768
 8002118:	f6c0 0000 	movt	r0, #2048	; 0x800
 800211c:	4770      	bx	lr
 800211e:	bf00      	nop

08002120 <_ZNK12_GLOBAL__N_112fontchar_e_t8get_dataEv>:
 8002120:	f24e 70a0 	movw	r0, #59296	; 0xe7a0
 8002124:	f6c0 0000 	movt	r0, #2048	; 0x800
 8002128:	4770      	bx	lr
 800212a:	bf00      	nop

0800212c <_ZNK12_GLOBAL__N_112fontchar_f_t8get_dataEv>:
 800212c:	f24f 1030 	movw	r0, #61744	; 0xf130
 8002130:	f6c0 0000 	movt	r0, #2048	; 0x800
 8002134:	4770      	bx	lr
 8002136:	bf00      	nop

08002138 <_ZNK12_GLOBAL__N_112fontchar_g_t8get_dataEv>:
 8002138:	f24f 6030 	movw	r0, #63024	; 0xf630
 800213c:	f6c0 0000 	movt	r0, #2048	; 0x800
 8002140:	4770      	bx	lr
 8002142:	bf00      	nop

08002144 <_ZNK12_GLOBAL__N_112fontchar_h_t8get_dataEv>:
 8002144:	f64d 0030 	movw	r0, #55344	; 0xd830
 8002148:	f6c0 0000 	movt	r0, #2048	; 0x800
 800214c:	4770      	bx	lr
 800214e:	bf00      	nop

08002150 <_ZNK12_GLOBAL__N_112fontchar_i_t8get_dataEv>:
 8002150:	f64d 40a0 	movw	r0, #56480	; 0xdca0
 8002154:	f6c0 0000 	movt	r0, #2048	; 0x800
 8002158:	4770      	bx	lr
 800215a:	bf00      	nop

0800215c <_ZNK12_GLOBAL__N_112fontchar_j_t8get_dataEv>:
 800215c:	f24e 4010 	movw	r0, #58384	; 0xe410
 8002160:	f6c0 0000 	movt	r0, #2048	; 0x800
 8002164:	4770      	bx	lr
 8002166:	bf00      	nop

08002168 <_ZNK12_GLOBAL__N_112fontchar_k_t8get_dataEv>:
 8002168:	f64e 1070 	movw	r0, #59760	; 0xe970
 800216c:	f6c0 0000 	movt	r0, #2048	; 0x800
 8002170:	4770      	bx	lr
 8002172:	bf00      	nop

08002174 <_ZNK12_GLOBAL__N_112fontchar_l_t8get_dataEv>:
 8002174:	f64e 6080 	movw	r0, #61056	; 0xee80
 8002178:	f6c0 0000 	movt	r0, #2048	; 0x800
 800217c:	4770      	bx	lr
 800217e:	bf00      	nop

08002180 <_ZNK12_GLOBAL__N_112fontchar_m_t8get_dataEv>:
 8002180:	f24e 3098 	movw	r0, #58264	; 0xe398
 8002184:	f6c0 0000 	movt	r0, #2048	; 0x800
 8002188:	4770      	bx	lr
 800218a:	bf00      	nop

0800218c <_ZNK12_GLOBAL__N_112fontchar_n_t8get_dataEv>:
 800218c:	f24f 7020 	movw	r0, #63264	; 0xf720
 8002190:	f6c0 0000 	movt	r0, #2048	; 0x800
 8002194:	4770      	bx	lr
 8002196:	bf00      	nop

08002198 <_ZNK12_GLOBAL__N_112fontchar_o_t8get_dataEv>:
 8002198:	f64d 10c8 	movw	r0, #55752	; 0xd9c8
 800219c:	f6c0 0000 	movt	r0, #2048	; 0x800
 80021a0:	4770      	bx	lr
 80021a2:	bf00      	nop

080021a4 <_ZNK12_GLOBAL__N_112fontchar_p_t8get_dataEv>:
 80021a4:	f64d 7080 	movw	r0, #57216	; 0xdf80
 80021a8:	f6c0 0000 	movt	r0, #2048	; 0x800
 80021ac:	4770      	bx	lr
 80021ae:	bf00      	nop

080021b0 <_ZNK12_GLOBAL__N_112fontchar_q_t8get_dataEv>:
 80021b0:	f64d 4048 	movw	r0, #56392	; 0xdc48
 80021b4:	f6c0 0000 	movt	r0, #2048	; 0x800
 80021b8:	4770      	bx	lr
 80021ba:	bf00      	nop

080021bc <_ZNK12_GLOBAL__N_112fontchar_r_t8get_dataEv>:
 80021bc:	f64e 3008 	movw	r0, #60168	; 0xeb08
 80021c0:	f6c0 0000 	movt	r0, #2048	; 0x800
 80021c4:	4770      	bx	lr
 80021c6:	bf00      	nop

080021c8 <_ZNK12_GLOBAL__N_112fontchar_s_t8get_dataEv>:
 80021c8:	f64e 5060 	movw	r0, #60768	; 0xed60
 80021cc:	f6c0 0000 	movt	r0, #2048	; 0x800
 80021d0:	4770      	bx	lr
 80021d2:	bf00      	nop

080021d4 <_ZNK12_GLOBAL__N_112fontchar_t_t8get_dataEv>:
 80021d4:	f24f 5008 	movw	r0, #62728	; 0xf508
 80021d8:	f6c0 0000 	movt	r0, #2048	; 0x800
 80021dc:	4770      	bx	lr
 80021de:	bf00      	nop

080021e0 <_ZNK12_GLOBAL__N_112fontchar_u_t8get_dataEv>:
 80021e0:	f24d 6020 	movw	r0, #54816	; 0xd620
 80021e4:	f6c0 0000 	movt	r0, #2048	; 0x800
 80021e8:	4770      	bx	lr
 80021ea:	bf00      	nop

080021ec <_ZNK12_GLOBAL__N_112fontchar_v_t8get_dataEv>:
 80021ec:	f64d 3028 	movw	r0, #56104	; 0xdb28
 80021f0:	f6c0 0000 	movt	r0, #2048	; 0x800
 80021f4:	4770      	bx	lr
 80021f6:	bf00      	nop

080021f8 <_ZNK12_GLOBAL__N_112fontchar_w_t8get_dataEv>:
 80021f8:	f24e 10a8 	movw	r0, #57768	; 0xe1a8
 80021fc:	f6c0 0000 	movt	r0, #2048	; 0x800
 8002200:	4770      	bx	lr
 8002202:	bf00      	nop

08002204 <_ZNK12_GLOBAL__N_112fontchar_x_t8get_dataEv>:
 8002204:	f24e 60d8 	movw	r0, #59096	; 0xe6d8
 8002208:	f6c0 0000 	movt	r0, #2048	; 0x800
 800220c:	4770      	bx	lr
 800220e:	bf00      	nop

08002210 <_ZNK12_GLOBAL__N_112fontchar_y_t8get_dataEv>:
 8002210:	f64e 4070 	movw	r0, #60528	; 0xec70
 8002214:	f6c0 0000 	movt	r0, #2048	; 0x800
 8002218:	4770      	bx	lr
 800221a:	bf00      	nop

0800221c <_ZNK12_GLOBAL__N_112fontchar_z_t8get_dataEv>:
 800221c:	f24f 20c8 	movw	r0, #62152	; 0xf2c8
 8002220:	f6c0 0000 	movt	r0, #2048	; 0x800
 8002224:	4770      	bx	lr
 8002226:	bf00      	nop

08002228 <_ZNK12_GLOBAL__N_112fontchar_1_t8get_dataEv>:
 8002228:	f24f 40b0 	movw	r0, #62640	; 0xf4b0
 800222c:	f6c0 0000 	movt	r0, #2048	; 0x800
 8002230:	4770      	bx	lr
 8002232:	bf00      	nop

08002234 <_ZNK12_GLOBAL__N_112fontchar_2_t8get_dataEv>:
 8002234:	f24d 50e8 	movw	r0, #54760	; 0xd5e8
 8002238:	f6c0 0000 	movt	r0, #2048	; 0x800
 800223c:	4770      	bx	lr
 800223e:	bf00      	nop

08002240 <_ZNK12_GLOBAL__N_112fontchar_3_t8get_dataEv>:
 8002240:	f64d 20f0 	movw	r0, #56048	; 0xdaf0
 8002244:	f6c0 0000 	movt	r0, #2048	; 0x800
 8002248:	4770      	bx	lr
 800224a:	bf00      	nop

0800224c <_ZNK12_GLOBAL__N_112fontchar_4_t8get_dataEv>:
 800224c:	f24e 1050 	movw	r0, #57680	; 0xe150
 8002250:	f6c0 0000 	movt	r0, #2048	; 0x800
 8002254:	4770      	bx	lr
 8002256:	bf00      	nop

08002258 <_ZNK12_GLOBAL__N_112fontchar_5_t8get_dataEv>:
 8002258:	f24e 60a0 	movw	r0, #59040	; 0xe6a0
 800225c:	f6c0 0000 	movt	r0, #2048	; 0x800
 8002260:	4770      	bx	lr
 8002262:	bf00      	nop

08002264 <_ZNK12_GLOBAL__N_112fontchar_6_t8get_dataEv>:
 8002264:	f64e 4038 	movw	r0, #60472	; 0xec38
 8002268:	f6c0 0000 	movt	r0, #2048	; 0x800
 800226c:	4770      	bx	lr
 800226e:	bf00      	nop

08002270 <_ZNK12_GLOBAL__N_112fontchar_7_t8get_dataEv>:
 8002270:	f24e 6010 	movw	r0, #58896	; 0xe610
 8002274:	f6c0 0000 	movt	r0, #2048	; 0x800
 8002278:	4770      	bx	lr
 800227a:	bf00      	nop

0800227c <_ZNK12_GLOBAL__N_112fontchar_8_t8get_dataEv>:
 800227c:	f24f 50b8 	movw	r0, #62904	; 0xf5b8
 8002280:	f6c0 0000 	movt	r0, #2048	; 0x800
 8002284:	4770      	bx	lr
 8002286:	bf00      	nop

08002288 <_ZNK12_GLOBAL__N_112fontchar_9_t8get_dataEv>:
 8002288:	f64e 50b8 	movw	r0, #60856	; 0xedb8
 800228c:	f6c0 0000 	movt	r0, #2048	; 0x800
 8002290:	4770      	bx	lr
 8002292:	bf00      	nop

08002294 <_ZNK12_GLOBAL__N_112fontchar_0_t8get_dataEv>:
 8002294:	f64e 50f0 	movw	r0, #60912	; 0xedf0
 8002298:	f6c0 0000 	movt	r0, #2048	; 0x800
 800229c:	4770      	bx	lr
 800229e:	bf00      	nop

080022a0 <_ZNK12_GLOBAL__N_114fontchar_not_t8get_dataEv>:
 80022a0:	f24f 1088 	movw	r0, #61832	; 0xf188
 80022a4:	f6c0 0000 	movt	r0, #2048	; 0x800
 80022a8:	4770      	bx	lr
 80022aa:	bf00      	nop

080022ac <_ZNK12_GLOBAL__N_116fontchar_dquot_t8get_dataEv>:
 80022ac:	f24f 4078 	movw	r0, #62584	; 0xf478
 80022b0:	f6c0 0000 	movt	r0, #2048	; 0x800
 80022b4:	4770      	bx	lr
 80022b6:	bf00      	nop

080022b8 <_ZNK12_GLOBAL__N_117fontchar_dollar_t8get_dataEv>:
 80022b8:	f24e 0070 	movw	r0, #57456	; 0xe070
 80022bc:	f6c0 0000 	movt	r0, #2048	; 0x800
 80022c0:	4770      	bx	lr
 80022c2:	bf00      	nop

080022c4 <_ZNK12_GLOBAL__N_116fontchar_space_t8get_dataEv>:
 80022c4:	f24f 70d8 	movw	r0, #63448	; 0xf7d8
 80022c8:	f6c0 0000 	movt	r0, #2048	; 0x800
 80022cc:	4770      	bx	lr
 80022ce:	bf00      	nop

080022d0 <_ZNK12_GLOBAL__N_118fontchar_percent_t8get_dataEv>:
 80022d0:	f64e 70c0 	movw	r0, #61376	; 0xefc0
 80022d4:	f6c0 0000 	movt	r0, #2048	; 0x800
 80022d8:	4770      	bx	lr
 80022da:	bf00      	nop

080022dc <_ZNK12_GLOBAL__N_113fontchar_up_t8get_dataEv>:
 80022dc:	f24d 60f0 	movw	r0, #55024	; 0xd6f0
 80022e0:	f6c0 0000 	movt	r0, #2048	; 0x800
 80022e4:	4770      	bx	lr
 80022e6:	bf00      	nop

080022e8 <_ZNK12_GLOBAL__N_114fontchar_and_t8get_dataEv>:
 80022e8:	f24e 3000 	movw	r0, #58112	; 0xe300
 80022ec:	f6c0 0000 	movt	r0, #2048	; 0x800
 80022f0:	4770      	bx	lr
 80022f2:	bf00      	nop

080022f4 <_ZNK12_GLOBAL__N_115fontchar_star_t8get_dataEv>:
 80022f4:	f24d 6098 	movw	r0, #54936	; 0xd698
 80022f8:	f6c0 0000 	movt	r0, #2048	; 0x800
 80022fc:	4770      	bx	lr
 80022fe:	bf00      	nop

08002300 <_ZNK12_GLOBAL__N_117fontchar_lbrace_t8get_dataEv>:
 8002300:	f24f 4040 	movw	r0, #62528	; 0xf440
 8002304:	f6c0 0000 	movt	r0, #2048	; 0x800
 8002308:	4770      	bx	lr
 800230a:	bf00      	nop

0800230c <_ZNK12_GLOBAL__N_117fontchar_rbrace_t8get_dataEv>:
 800230c:	f64e 7010 	movw	r0, #61200	; 0xef10
 8002310:	f6c0 0000 	movt	r0, #2048	; 0x800
 8002314:	4770      	bx	lr
 8002316:	bf00      	nop

08002318 <_ZNK12_GLOBAL__N_119fontchar_underbar_t8get_dataEv>:
 8002318:	f24e 1018 	movw	r0, #57624	; 0xe118
 800231c:	f6c0 0000 	movt	r0, #2048	; 0x800
 8002320:	4770      	bx	lr
 8002322:	bf00      	nop

08002324 <_ZNK12_GLOBAL__N_116fontchar_minus_t8get_dataEv>:
 8002324:	f64e 0068 	movw	r0, #59496	; 0xe868
 8002328:	f6c0 0000 	movt	r0, #2048	; 0x800
 800232c:	4770      	bx	lr
 800232e:	bf00      	nop

08002330 <_ZNK12_GLOBAL__N_115fontchar_plus_t8get_dataEv>:
 8002330:	f64e 6048 	movw	r0, #61000	; 0xee48
 8002334:	f6c0 0000 	movt	r0, #2048	; 0x800
 8002338:	4770      	bx	lr
 800233a:	bf00      	nop

0800233c <_ZNK12_GLOBAL__N_117fontchar_equals_t8get_dataEv>:
 800233c:	f64e 1000 	movw	r0, #59648	; 0xe900
 8002340:	f6c0 0000 	movt	r0, #2048	; 0x800
 8002344:	4770      	bx	lr
 8002346:	bf00      	nop

08002348 <_ZNK12_GLOBAL__N_117fontchar_lcurly_t8get_dataEv>:
 8002348:	f64e 10c8 	movw	r0, #59848	; 0xe9c8
 800234c:	f6c0 0000 	movt	r0, #2048	; 0x800
 8002350:	4770      	bx	lr
 8002352:	bf00      	nop

08002354 <_ZNK12_GLOBAL__N_117fontchar_rcurly_t8get_dataEv>:
 8002354:	f24f 2090 	movw	r0, #62096	; 0xf290
 8002358:	f6c0 0000 	movt	r0, #2048	; 0x800
 800235c:	4770      	bx	lr
 800235e:	bf00      	nop

08002360 <_ZNK12_GLOBAL__N_120fontchar_lsqbacket_t8get_dataEv>:
 8002360:	f64e 0010 	movw	r0, #59408	; 0xe810
 8002364:	f6c0 0000 	movt	r0, #2048	; 0x800
 8002368:	4770      	bx	lr
 800236a:	bf00      	nop

0800236c <_ZNK12_GLOBAL__N_121fontchar_rsqbracket_t8get_dataEv>:
 800236c:	f64d 2000 	movw	r0, #55808	; 0xda00
 8002370:	f6c0 0000 	movt	r0, #2048	; 0x800
 8002374:	4770      	bx	lr
 8002376:	bf00      	nop

08002378 <_ZNK12_GLOBAL__N_116fontchar_colon_t8get_dataEv>:
 8002378:	f64e 1038 	movw	r0, #59704	; 0xe938
 800237c:	f6c0 0000 	movt	r0, #2048	; 0x800
 8002380:	4770      	bx	lr
 8002382:	bf00      	nop

08002384 <_ZNK12_GLOBAL__N_120fontchar_semicolon_t8get_dataEv>:
 8002384:	f24e 7030 	movw	r0, #59184	; 0xe730
 8002388:	f6c0 0000 	movt	r0, #2048	; 0x800
 800238c:	4770      	bx	lr
 800238e:	bf00      	nop

08002390 <_ZNK12_GLOBAL__N_116fontchar_squot_t8get_dataEv>:
 8002390:	f64d 0088 	movw	r0, #55432	; 0xd888
 8002394:	f6c0 0000 	movt	r0, #2048	; 0x800
 8002398:	4770      	bx	lr
 800239a:	bf00      	nop

0800239c <_ZNK12_GLOBAL__N_113fontchar_at_t8get_dataEv>:
 800239c:	f24e 00e0 	movw	r0, #57568	; 0xe0e0
 80023a0:	f6c0 0000 	movt	r0, #2048	; 0x800
 80023a4:	4770      	bx	lr
 80023a6:	bf00      	nop

080023a8 <_ZNK12_GLOBAL__N_115fontchar_hash_t8get_dataEv>:
 80023a8:	f64e 20d0 	movw	r0, #60112	; 0xead0
 80023ac:	f6c0 0000 	movt	r0, #2048	; 0x800
 80023b0:	4770      	bx	lr
 80023b2:	bf00      	nop

080023b4 <_ZNK12_GLOBAL__N_116fontchar_tilde_t8get_dataEv>:
 80023b4:	f64d 1030 	movw	r0, #55600	; 0xd930
 80023b8:	f6c0 0000 	movt	r0, #2048	; 0x800
 80023bc:	4770      	bx	lr
 80023be:	bf00      	nop

080023c0 <_ZNK12_GLOBAL__N_115fontchar_vbar_t8get_dataEv>:
 80023c0:	f24f 2038 	movw	r0, #62008	; 0xf238
 80023c4:	f6c0 0000 	movt	r0, #2048	; 0x800
 80023c8:	4770      	bx	lr
 80023ca:	bf00      	nop

080023cc <_ZNK12_GLOBAL__N_120fontchar_backslash_t8get_dataEv>:
 80023cc:	f64d 3060 	movw	r0, #56160	; 0xdb60
 80023d0:	f6c0 0000 	movt	r0, #2048	; 0x800
 80023d4:	4770      	bx	lr
 80023d6:	bf00      	nop

080023d8 <_ZNK12_GLOBAL__N_116fontchar_comma_t8get_dataEv>:
 80023d8:	f24f 3090 	movw	r0, #62352	; 0xf390
 80023dc:	f6c0 0000 	movt	r0, #2048	; 0x800
 80023e0:	4770      	bx	lr
 80023e2:	bf00      	nop

080023e4 <_ZNK12_GLOBAL__N_113fontchar_lt_t8get_dataEv>:
 80023e4:	f64d 6078 	movw	r0, #56952	; 0xde78
 80023e8:	f6c0 0000 	movt	r0, #2048	; 0x800
 80023ec:	4770      	bx	lr
 80023ee:	bf00      	nop

080023f0 <_ZNK12_GLOBAL__N_113fontchar_gt_t8get_dataEv>:
 80023f0:	f24e 10e0 	movw	r0, #57824	; 0xe1e0
 80023f4:	f6c0 0000 	movt	r0, #2048	; 0x800
 80023f8:	4770      	bx	lr
 80023fa:	bf00      	nop

080023fc <_ZNK12_GLOBAL__N_114fontchar_dot_t8get_dataEv>:
 80023fc:	f24e 4068 	movw	r0, #58472	; 0xe468
 8002400:	f6c0 0000 	movt	r0, #2048	; 0x800
 8002404:	4770      	bx	lr
 8002406:	bf00      	nop

08002408 <_ZNK12_GLOBAL__N_119fontchar_question_t8get_dataEv>:
 8002408:	f24e 20a8 	movw	r0, #58024	; 0xe2a8
 800240c:	f6c0 0000 	movt	r0, #2048	; 0x800
 8002410:	4770      	bx	lr
 8002412:	bf00      	nop

08002414 <_ZNK12_GLOBAL__N_124fontchar_forward_slash_t8get_dataEv>:
 8002414:	f24e 5038 	movw	r0, #58680	; 0xe538
 8002418:	f6c0 0000 	movt	r0, #2048	; 0x800
 800241c:	4770      	bx	lr
 800241e:	bf00      	nop

08002420 <_ZNK12_GLOBAL__N_116fontchar_bquot_t8get_dataEv>:
 8002420:	f24d 70d8 	movw	r0, #55256	; 0xd7d8
 8002424:	f6c0 0000 	movt	r0, #2048	; 0x800
 8002428:	4770      	bx	lr
 800242a:	bf00      	nop

0800242c <_ZN10abc_bitmapIhED1Ev>:
 800242c:	4b01      	ldr	r3, [pc, #4]	; (8002434 <_ZN10abc_bitmapIhED1Ev+0x8>)
 800242e:	6003      	str	r3, [r0, #0]
 8002430:	4770      	bx	lr
 8002432:	bf00      	nop
 8002434:	0800d5d0 	.word	0x0800d5d0

08002438 <_ZN12_GLOBAL__N_116fontchar_bquot_tD1Ev>:
 8002438:	4b01      	ldr	r3, [pc, #4]	; (8002440 <_ZN12_GLOBAL__N_116fontchar_bquot_tD1Ev+0x8>)
 800243a:	6003      	str	r3, [r0, #0]
 800243c:	4770      	bx	lr
 800243e:	bf00      	nop
 8002440:	0800d5d0 	.word	0x0800d5d0

08002444 <_ZN12_GLOBAL__N_124fontchar_forward_slash_tD1Ev>:
 8002444:	4b01      	ldr	r3, [pc, #4]	; (800244c <_ZN12_GLOBAL__N_124fontchar_forward_slash_tD1Ev+0x8>)
 8002446:	6003      	str	r3, [r0, #0]
 8002448:	4770      	bx	lr
 800244a:	bf00      	nop
 800244c:	0800d5d0 	.word	0x0800d5d0

08002450 <_ZN12_GLOBAL__N_119fontchar_question_tD1Ev>:
 8002450:	4b01      	ldr	r3, [pc, #4]	; (8002458 <_ZN12_GLOBAL__N_119fontchar_question_tD1Ev+0x8>)
 8002452:	6003      	str	r3, [r0, #0]
 8002454:	4770      	bx	lr
 8002456:	bf00      	nop
 8002458:	0800d5d0 	.word	0x0800d5d0

0800245c <_ZN12_GLOBAL__N_114fontchar_dot_tD1Ev>:
 800245c:	4b01      	ldr	r3, [pc, #4]	; (8002464 <_ZN12_GLOBAL__N_114fontchar_dot_tD1Ev+0x8>)
 800245e:	6003      	str	r3, [r0, #0]
 8002460:	4770      	bx	lr
 8002462:	bf00      	nop
 8002464:	0800d5d0 	.word	0x0800d5d0

08002468 <_ZN12_GLOBAL__N_113fontchar_gt_tD1Ev>:
 8002468:	4b01      	ldr	r3, [pc, #4]	; (8002470 <_ZN12_GLOBAL__N_113fontchar_gt_tD1Ev+0x8>)
 800246a:	6003      	str	r3, [r0, #0]
 800246c:	4770      	bx	lr
 800246e:	bf00      	nop
 8002470:	0800d5d0 	.word	0x0800d5d0

08002474 <_ZN12_GLOBAL__N_113fontchar_lt_tD1Ev>:
 8002474:	4b01      	ldr	r3, [pc, #4]	; (800247c <_ZN12_GLOBAL__N_113fontchar_lt_tD1Ev+0x8>)
 8002476:	6003      	str	r3, [r0, #0]
 8002478:	4770      	bx	lr
 800247a:	bf00      	nop
 800247c:	0800d5d0 	.word	0x0800d5d0

08002480 <_ZN12_GLOBAL__N_116fontchar_comma_tD1Ev>:
 8002480:	4b01      	ldr	r3, [pc, #4]	; (8002488 <_ZN12_GLOBAL__N_116fontchar_comma_tD1Ev+0x8>)
 8002482:	6003      	str	r3, [r0, #0]
 8002484:	4770      	bx	lr
 8002486:	bf00      	nop
 8002488:	0800d5d0 	.word	0x0800d5d0

0800248c <_ZN12_GLOBAL__N_120fontchar_backslash_tD1Ev>:
 800248c:	4b01      	ldr	r3, [pc, #4]	; (8002494 <_ZN12_GLOBAL__N_120fontchar_backslash_tD1Ev+0x8>)
 800248e:	6003      	str	r3, [r0, #0]
 8002490:	4770      	bx	lr
 8002492:	bf00      	nop
 8002494:	0800d5d0 	.word	0x0800d5d0

08002498 <_ZN12_GLOBAL__N_115fontchar_vbar_tD1Ev>:
 8002498:	4b01      	ldr	r3, [pc, #4]	; (80024a0 <_ZN12_GLOBAL__N_115fontchar_vbar_tD1Ev+0x8>)
 800249a:	6003      	str	r3, [r0, #0]
 800249c:	4770      	bx	lr
 800249e:	bf00      	nop
 80024a0:	0800d5d0 	.word	0x0800d5d0

080024a4 <_ZN12_GLOBAL__N_116fontchar_tilde_tD1Ev>:
 80024a4:	4b01      	ldr	r3, [pc, #4]	; (80024ac <_ZN12_GLOBAL__N_116fontchar_tilde_tD1Ev+0x8>)
 80024a6:	6003      	str	r3, [r0, #0]
 80024a8:	4770      	bx	lr
 80024aa:	bf00      	nop
 80024ac:	0800d5d0 	.word	0x0800d5d0

080024b0 <_ZN12_GLOBAL__N_115fontchar_hash_tD1Ev>:
 80024b0:	4b01      	ldr	r3, [pc, #4]	; (80024b8 <_ZN12_GLOBAL__N_115fontchar_hash_tD1Ev+0x8>)
 80024b2:	6003      	str	r3, [r0, #0]
 80024b4:	4770      	bx	lr
 80024b6:	bf00      	nop
 80024b8:	0800d5d0 	.word	0x0800d5d0

080024bc <_ZN12_GLOBAL__N_113fontchar_at_tD1Ev>:
 80024bc:	4b01      	ldr	r3, [pc, #4]	; (80024c4 <_ZN12_GLOBAL__N_113fontchar_at_tD1Ev+0x8>)
 80024be:	6003      	str	r3, [r0, #0]
 80024c0:	4770      	bx	lr
 80024c2:	bf00      	nop
 80024c4:	0800d5d0 	.word	0x0800d5d0

080024c8 <_ZN12_GLOBAL__N_116fontchar_squot_tD1Ev>:
 80024c8:	4b01      	ldr	r3, [pc, #4]	; (80024d0 <_ZN12_GLOBAL__N_116fontchar_squot_tD1Ev+0x8>)
 80024ca:	6003      	str	r3, [r0, #0]
 80024cc:	4770      	bx	lr
 80024ce:	bf00      	nop
 80024d0:	0800d5d0 	.word	0x0800d5d0

080024d4 <_ZN12_GLOBAL__N_120fontchar_semicolon_tD1Ev>:
 80024d4:	4b01      	ldr	r3, [pc, #4]	; (80024dc <_ZN12_GLOBAL__N_120fontchar_semicolon_tD1Ev+0x8>)
 80024d6:	6003      	str	r3, [r0, #0]
 80024d8:	4770      	bx	lr
 80024da:	bf00      	nop
 80024dc:	0800d5d0 	.word	0x0800d5d0

080024e0 <_ZN12_GLOBAL__N_116fontchar_colon_tD1Ev>:
 80024e0:	4b01      	ldr	r3, [pc, #4]	; (80024e8 <_ZN12_GLOBAL__N_116fontchar_colon_tD1Ev+0x8>)
 80024e2:	6003      	str	r3, [r0, #0]
 80024e4:	4770      	bx	lr
 80024e6:	bf00      	nop
 80024e8:	0800d5d0 	.word	0x0800d5d0

080024ec <_ZN12_GLOBAL__N_121fontchar_rsqbracket_tD1Ev>:
 80024ec:	4b01      	ldr	r3, [pc, #4]	; (80024f4 <_ZN12_GLOBAL__N_121fontchar_rsqbracket_tD1Ev+0x8>)
 80024ee:	6003      	str	r3, [r0, #0]
 80024f0:	4770      	bx	lr
 80024f2:	bf00      	nop
 80024f4:	0800d5d0 	.word	0x0800d5d0

080024f8 <_ZN12_GLOBAL__N_120fontchar_lsqbacket_tD1Ev>:
 80024f8:	4b01      	ldr	r3, [pc, #4]	; (8002500 <_ZN12_GLOBAL__N_120fontchar_lsqbacket_tD1Ev+0x8>)
 80024fa:	6003      	str	r3, [r0, #0]
 80024fc:	4770      	bx	lr
 80024fe:	bf00      	nop
 8002500:	0800d5d0 	.word	0x0800d5d0

08002504 <_ZN12_GLOBAL__N_117fontchar_rcurly_tD1Ev>:
 8002504:	4b01      	ldr	r3, [pc, #4]	; (800250c <_ZN12_GLOBAL__N_117fontchar_rcurly_tD1Ev+0x8>)
 8002506:	6003      	str	r3, [r0, #0]
 8002508:	4770      	bx	lr
 800250a:	bf00      	nop
 800250c:	0800d5d0 	.word	0x0800d5d0

08002510 <_ZN12_GLOBAL__N_117fontchar_lcurly_tD1Ev>:
 8002510:	4b01      	ldr	r3, [pc, #4]	; (8002518 <_ZN12_GLOBAL__N_117fontchar_lcurly_tD1Ev+0x8>)
 8002512:	6003      	str	r3, [r0, #0]
 8002514:	4770      	bx	lr
 8002516:	bf00      	nop
 8002518:	0800d5d0 	.word	0x0800d5d0

0800251c <_ZN12_GLOBAL__N_117fontchar_equals_tD1Ev>:
 800251c:	4b01      	ldr	r3, [pc, #4]	; (8002524 <_ZN12_GLOBAL__N_117fontchar_equals_tD1Ev+0x8>)
 800251e:	6003      	str	r3, [r0, #0]
 8002520:	4770      	bx	lr
 8002522:	bf00      	nop
 8002524:	0800d5d0 	.word	0x0800d5d0

08002528 <_ZN12_GLOBAL__N_115fontchar_plus_tD1Ev>:
 8002528:	4b01      	ldr	r3, [pc, #4]	; (8002530 <_ZN12_GLOBAL__N_115fontchar_plus_tD1Ev+0x8>)
 800252a:	6003      	str	r3, [r0, #0]
 800252c:	4770      	bx	lr
 800252e:	bf00      	nop
 8002530:	0800d5d0 	.word	0x0800d5d0

08002534 <_ZN12_GLOBAL__N_116fontchar_minus_tD1Ev>:
 8002534:	4b01      	ldr	r3, [pc, #4]	; (800253c <_ZN12_GLOBAL__N_116fontchar_minus_tD1Ev+0x8>)
 8002536:	6003      	str	r3, [r0, #0]
 8002538:	4770      	bx	lr
 800253a:	bf00      	nop
 800253c:	0800d5d0 	.word	0x0800d5d0

08002540 <_ZN12_GLOBAL__N_119fontchar_underbar_tD1Ev>:
 8002540:	4b01      	ldr	r3, [pc, #4]	; (8002548 <_ZN12_GLOBAL__N_119fontchar_underbar_tD1Ev+0x8>)
 8002542:	6003      	str	r3, [r0, #0]
 8002544:	4770      	bx	lr
 8002546:	bf00      	nop
 8002548:	0800d5d0 	.word	0x0800d5d0

0800254c <_ZN12_GLOBAL__N_117fontchar_rbrace_tD1Ev>:
 800254c:	4b01      	ldr	r3, [pc, #4]	; (8002554 <_ZN12_GLOBAL__N_117fontchar_rbrace_tD1Ev+0x8>)
 800254e:	6003      	str	r3, [r0, #0]
 8002550:	4770      	bx	lr
 8002552:	bf00      	nop
 8002554:	0800d5d0 	.word	0x0800d5d0

08002558 <_ZN12_GLOBAL__N_117fontchar_lbrace_tD1Ev>:
 8002558:	4b01      	ldr	r3, [pc, #4]	; (8002560 <_ZN12_GLOBAL__N_117fontchar_lbrace_tD1Ev+0x8>)
 800255a:	6003      	str	r3, [r0, #0]
 800255c:	4770      	bx	lr
 800255e:	bf00      	nop
 8002560:	0800d5d0 	.word	0x0800d5d0

08002564 <_ZN12_GLOBAL__N_115fontchar_star_tD1Ev>:
 8002564:	4b01      	ldr	r3, [pc, #4]	; (800256c <_ZN12_GLOBAL__N_115fontchar_star_tD1Ev+0x8>)
 8002566:	6003      	str	r3, [r0, #0]
 8002568:	4770      	bx	lr
 800256a:	bf00      	nop
 800256c:	0800d5d0 	.word	0x0800d5d0

08002570 <_ZN12_GLOBAL__N_114fontchar_and_tD1Ev>:
 8002570:	4b01      	ldr	r3, [pc, #4]	; (8002578 <_ZN12_GLOBAL__N_114fontchar_and_tD1Ev+0x8>)
 8002572:	6003      	str	r3, [r0, #0]
 8002574:	4770      	bx	lr
 8002576:	bf00      	nop
 8002578:	0800d5d0 	.word	0x0800d5d0

0800257c <_ZN12_GLOBAL__N_113fontchar_up_tD1Ev>:
 800257c:	4b01      	ldr	r3, [pc, #4]	; (8002584 <_ZN12_GLOBAL__N_113fontchar_up_tD1Ev+0x8>)
 800257e:	6003      	str	r3, [r0, #0]
 8002580:	4770      	bx	lr
 8002582:	bf00      	nop
 8002584:	0800d5d0 	.word	0x0800d5d0

08002588 <_ZN12_GLOBAL__N_118fontchar_percent_tD1Ev>:
 8002588:	4b01      	ldr	r3, [pc, #4]	; (8002590 <_ZN12_GLOBAL__N_118fontchar_percent_tD1Ev+0x8>)
 800258a:	6003      	str	r3, [r0, #0]
 800258c:	4770      	bx	lr
 800258e:	bf00      	nop
 8002590:	0800d5d0 	.word	0x0800d5d0

08002594 <_ZN12_GLOBAL__N_116fontchar_space_tD1Ev>:
 8002594:	4b01      	ldr	r3, [pc, #4]	; (800259c <_ZN12_GLOBAL__N_116fontchar_space_tD1Ev+0x8>)
 8002596:	6003      	str	r3, [r0, #0]
 8002598:	4770      	bx	lr
 800259a:	bf00      	nop
 800259c:	0800d5d0 	.word	0x0800d5d0

080025a0 <_ZN12_GLOBAL__N_117fontchar_dollar_tD1Ev>:
 80025a0:	4b01      	ldr	r3, [pc, #4]	; (80025a8 <_ZN12_GLOBAL__N_117fontchar_dollar_tD1Ev+0x8>)
 80025a2:	6003      	str	r3, [r0, #0]
 80025a4:	4770      	bx	lr
 80025a6:	bf00      	nop
 80025a8:	0800d5d0 	.word	0x0800d5d0

080025ac <_ZN12_GLOBAL__N_116fontchar_dquot_tD1Ev>:
 80025ac:	4b01      	ldr	r3, [pc, #4]	; (80025b4 <_ZN12_GLOBAL__N_116fontchar_dquot_tD1Ev+0x8>)
 80025ae:	6003      	str	r3, [r0, #0]
 80025b0:	4770      	bx	lr
 80025b2:	bf00      	nop
 80025b4:	0800d5d0 	.word	0x0800d5d0

080025b8 <_ZN12_GLOBAL__N_114fontchar_not_tD1Ev>:
 80025b8:	4b01      	ldr	r3, [pc, #4]	; (80025c0 <_ZN12_GLOBAL__N_114fontchar_not_tD1Ev+0x8>)
 80025ba:	6003      	str	r3, [r0, #0]
 80025bc:	4770      	bx	lr
 80025be:	bf00      	nop
 80025c0:	0800d5d0 	.word	0x0800d5d0

080025c4 <_ZN12_GLOBAL__N_112fontchar_0_tD1Ev>:
 80025c4:	4b01      	ldr	r3, [pc, #4]	; (80025cc <_ZN12_GLOBAL__N_112fontchar_0_tD1Ev+0x8>)
 80025c6:	6003      	str	r3, [r0, #0]
 80025c8:	4770      	bx	lr
 80025ca:	bf00      	nop
 80025cc:	0800d5d0 	.word	0x0800d5d0

080025d0 <_ZN12_GLOBAL__N_112fontchar_9_tD1Ev>:
 80025d0:	4b01      	ldr	r3, [pc, #4]	; (80025d8 <_ZN12_GLOBAL__N_112fontchar_9_tD1Ev+0x8>)
 80025d2:	6003      	str	r3, [r0, #0]
 80025d4:	4770      	bx	lr
 80025d6:	bf00      	nop
 80025d8:	0800d5d0 	.word	0x0800d5d0

080025dc <_ZN12_GLOBAL__N_112fontchar_8_tD1Ev>:
 80025dc:	4b01      	ldr	r3, [pc, #4]	; (80025e4 <_ZN12_GLOBAL__N_112fontchar_8_tD1Ev+0x8>)
 80025de:	6003      	str	r3, [r0, #0]
 80025e0:	4770      	bx	lr
 80025e2:	bf00      	nop
 80025e4:	0800d5d0 	.word	0x0800d5d0

080025e8 <_ZN12_GLOBAL__N_112fontchar_7_tD1Ev>:
 80025e8:	4b01      	ldr	r3, [pc, #4]	; (80025f0 <_ZN12_GLOBAL__N_112fontchar_7_tD1Ev+0x8>)
 80025ea:	6003      	str	r3, [r0, #0]
 80025ec:	4770      	bx	lr
 80025ee:	bf00      	nop
 80025f0:	0800d5d0 	.word	0x0800d5d0

080025f4 <_ZN12_GLOBAL__N_112fontchar_6_tD1Ev>:
 80025f4:	4b01      	ldr	r3, [pc, #4]	; (80025fc <_ZN12_GLOBAL__N_112fontchar_6_tD1Ev+0x8>)
 80025f6:	6003      	str	r3, [r0, #0]
 80025f8:	4770      	bx	lr
 80025fa:	bf00      	nop
 80025fc:	0800d5d0 	.word	0x0800d5d0

08002600 <_ZN12_GLOBAL__N_112fontchar_5_tD1Ev>:
 8002600:	4b01      	ldr	r3, [pc, #4]	; (8002608 <_ZN12_GLOBAL__N_112fontchar_5_tD1Ev+0x8>)
 8002602:	6003      	str	r3, [r0, #0]
 8002604:	4770      	bx	lr
 8002606:	bf00      	nop
 8002608:	0800d5d0 	.word	0x0800d5d0

0800260c <_ZN12_GLOBAL__N_112fontchar_4_tD1Ev>:
 800260c:	4b01      	ldr	r3, [pc, #4]	; (8002614 <_ZN12_GLOBAL__N_112fontchar_4_tD1Ev+0x8>)
 800260e:	6003      	str	r3, [r0, #0]
 8002610:	4770      	bx	lr
 8002612:	bf00      	nop
 8002614:	0800d5d0 	.word	0x0800d5d0

08002618 <_ZN12_GLOBAL__N_112fontchar_3_tD1Ev>:
 8002618:	4b01      	ldr	r3, [pc, #4]	; (8002620 <_ZN12_GLOBAL__N_112fontchar_3_tD1Ev+0x8>)
 800261a:	6003      	str	r3, [r0, #0]
 800261c:	4770      	bx	lr
 800261e:	bf00      	nop
 8002620:	0800d5d0 	.word	0x0800d5d0

08002624 <_ZN12_GLOBAL__N_112fontchar_2_tD1Ev>:
 8002624:	4b01      	ldr	r3, [pc, #4]	; (800262c <_ZN12_GLOBAL__N_112fontchar_2_tD1Ev+0x8>)
 8002626:	6003      	str	r3, [r0, #0]
 8002628:	4770      	bx	lr
 800262a:	bf00      	nop
 800262c:	0800d5d0 	.word	0x0800d5d0

08002630 <_ZN12_GLOBAL__N_112fontchar_1_tD1Ev>:
 8002630:	4b01      	ldr	r3, [pc, #4]	; (8002638 <_ZN12_GLOBAL__N_112fontchar_1_tD1Ev+0x8>)
 8002632:	6003      	str	r3, [r0, #0]
 8002634:	4770      	bx	lr
 8002636:	bf00      	nop
 8002638:	0800d5d0 	.word	0x0800d5d0

0800263c <_ZN12_GLOBAL__N_112fontchar_z_tD1Ev>:
 800263c:	4b01      	ldr	r3, [pc, #4]	; (8002644 <_ZN12_GLOBAL__N_112fontchar_z_tD1Ev+0x8>)
 800263e:	6003      	str	r3, [r0, #0]
 8002640:	4770      	bx	lr
 8002642:	bf00      	nop
 8002644:	0800d5d0 	.word	0x0800d5d0

08002648 <_ZN12_GLOBAL__N_112fontchar_y_tD1Ev>:
 8002648:	4b01      	ldr	r3, [pc, #4]	; (8002650 <_ZN12_GLOBAL__N_112fontchar_y_tD1Ev+0x8>)
 800264a:	6003      	str	r3, [r0, #0]
 800264c:	4770      	bx	lr
 800264e:	bf00      	nop
 8002650:	0800d5d0 	.word	0x0800d5d0

08002654 <_ZN12_GLOBAL__N_112fontchar_x_tD1Ev>:
 8002654:	4b01      	ldr	r3, [pc, #4]	; (800265c <_ZN12_GLOBAL__N_112fontchar_x_tD1Ev+0x8>)
 8002656:	6003      	str	r3, [r0, #0]
 8002658:	4770      	bx	lr
 800265a:	bf00      	nop
 800265c:	0800d5d0 	.word	0x0800d5d0

08002660 <_ZN12_GLOBAL__N_112fontchar_w_tD1Ev>:
 8002660:	4b01      	ldr	r3, [pc, #4]	; (8002668 <_ZN12_GLOBAL__N_112fontchar_w_tD1Ev+0x8>)
 8002662:	6003      	str	r3, [r0, #0]
 8002664:	4770      	bx	lr
 8002666:	bf00      	nop
 8002668:	0800d5d0 	.word	0x0800d5d0

0800266c <_ZN12_GLOBAL__N_112fontchar_v_tD1Ev>:
 800266c:	4b01      	ldr	r3, [pc, #4]	; (8002674 <_ZN12_GLOBAL__N_112fontchar_v_tD1Ev+0x8>)
 800266e:	6003      	str	r3, [r0, #0]
 8002670:	4770      	bx	lr
 8002672:	bf00      	nop
 8002674:	0800d5d0 	.word	0x0800d5d0

08002678 <_ZN12_GLOBAL__N_112fontchar_u_tD1Ev>:
 8002678:	4b01      	ldr	r3, [pc, #4]	; (8002680 <_ZN12_GLOBAL__N_112fontchar_u_tD1Ev+0x8>)
 800267a:	6003      	str	r3, [r0, #0]
 800267c:	4770      	bx	lr
 800267e:	bf00      	nop
 8002680:	0800d5d0 	.word	0x0800d5d0

08002684 <_ZN12_GLOBAL__N_112fontchar_t_tD1Ev>:
 8002684:	4b01      	ldr	r3, [pc, #4]	; (800268c <_ZN12_GLOBAL__N_112fontchar_t_tD1Ev+0x8>)
 8002686:	6003      	str	r3, [r0, #0]
 8002688:	4770      	bx	lr
 800268a:	bf00      	nop
 800268c:	0800d5d0 	.word	0x0800d5d0

08002690 <_ZN12_GLOBAL__N_112fontchar_s_tD1Ev>:
 8002690:	4b01      	ldr	r3, [pc, #4]	; (8002698 <_ZN12_GLOBAL__N_112fontchar_s_tD1Ev+0x8>)
 8002692:	6003      	str	r3, [r0, #0]
 8002694:	4770      	bx	lr
 8002696:	bf00      	nop
 8002698:	0800d5d0 	.word	0x0800d5d0

0800269c <_ZN12_GLOBAL__N_112fontchar_r_tD1Ev>:
 800269c:	4b01      	ldr	r3, [pc, #4]	; (80026a4 <_ZN12_GLOBAL__N_112fontchar_r_tD1Ev+0x8>)
 800269e:	6003      	str	r3, [r0, #0]
 80026a0:	4770      	bx	lr
 80026a2:	bf00      	nop
 80026a4:	0800d5d0 	.word	0x0800d5d0

080026a8 <_ZN12_GLOBAL__N_112fontchar_q_tD1Ev>:
 80026a8:	4b01      	ldr	r3, [pc, #4]	; (80026b0 <_ZN12_GLOBAL__N_112fontchar_q_tD1Ev+0x8>)
 80026aa:	6003      	str	r3, [r0, #0]
 80026ac:	4770      	bx	lr
 80026ae:	bf00      	nop
 80026b0:	0800d5d0 	.word	0x0800d5d0

080026b4 <_ZN12_GLOBAL__N_112fontchar_p_tD1Ev>:
 80026b4:	4b01      	ldr	r3, [pc, #4]	; (80026bc <_ZN12_GLOBAL__N_112fontchar_p_tD1Ev+0x8>)
 80026b6:	6003      	str	r3, [r0, #0]
 80026b8:	4770      	bx	lr
 80026ba:	bf00      	nop
 80026bc:	0800d5d0 	.word	0x0800d5d0

080026c0 <_ZN12_GLOBAL__N_112fontchar_o_tD1Ev>:
 80026c0:	4b01      	ldr	r3, [pc, #4]	; (80026c8 <_ZN12_GLOBAL__N_112fontchar_o_tD1Ev+0x8>)
 80026c2:	6003      	str	r3, [r0, #0]
 80026c4:	4770      	bx	lr
 80026c6:	bf00      	nop
 80026c8:	0800d5d0 	.word	0x0800d5d0

080026cc <_ZN12_GLOBAL__N_112fontchar_n_tD1Ev>:
 80026cc:	4b01      	ldr	r3, [pc, #4]	; (80026d4 <_ZN12_GLOBAL__N_112fontchar_n_tD1Ev+0x8>)
 80026ce:	6003      	str	r3, [r0, #0]
 80026d0:	4770      	bx	lr
 80026d2:	bf00      	nop
 80026d4:	0800d5d0 	.word	0x0800d5d0

080026d8 <_ZN12_GLOBAL__N_112fontchar_m_tD1Ev>:
 80026d8:	4b01      	ldr	r3, [pc, #4]	; (80026e0 <_ZN12_GLOBAL__N_112fontchar_m_tD1Ev+0x8>)
 80026da:	6003      	str	r3, [r0, #0]
 80026dc:	4770      	bx	lr
 80026de:	bf00      	nop
 80026e0:	0800d5d0 	.word	0x0800d5d0

080026e4 <_ZN12_GLOBAL__N_112fontchar_l_tD1Ev>:
 80026e4:	4b01      	ldr	r3, [pc, #4]	; (80026ec <_ZN12_GLOBAL__N_112fontchar_l_tD1Ev+0x8>)
 80026e6:	6003      	str	r3, [r0, #0]
 80026e8:	4770      	bx	lr
 80026ea:	bf00      	nop
 80026ec:	0800d5d0 	.word	0x0800d5d0

080026f0 <_ZN12_GLOBAL__N_112fontchar_k_tD1Ev>:
 80026f0:	4b01      	ldr	r3, [pc, #4]	; (80026f8 <_ZN12_GLOBAL__N_112fontchar_k_tD1Ev+0x8>)
 80026f2:	6003      	str	r3, [r0, #0]
 80026f4:	4770      	bx	lr
 80026f6:	bf00      	nop
 80026f8:	0800d5d0 	.word	0x0800d5d0

080026fc <_ZN12_GLOBAL__N_112fontchar_j_tD1Ev>:
 80026fc:	4b01      	ldr	r3, [pc, #4]	; (8002704 <_ZN12_GLOBAL__N_112fontchar_j_tD1Ev+0x8>)
 80026fe:	6003      	str	r3, [r0, #0]
 8002700:	4770      	bx	lr
 8002702:	bf00      	nop
 8002704:	0800d5d0 	.word	0x0800d5d0

08002708 <_ZN12_GLOBAL__N_112fontchar_i_tD1Ev>:
 8002708:	4b01      	ldr	r3, [pc, #4]	; (8002710 <_ZN12_GLOBAL__N_112fontchar_i_tD1Ev+0x8>)
 800270a:	6003      	str	r3, [r0, #0]
 800270c:	4770      	bx	lr
 800270e:	bf00      	nop
 8002710:	0800d5d0 	.word	0x0800d5d0

08002714 <_ZN12_GLOBAL__N_112fontchar_h_tD1Ev>:
 8002714:	4b01      	ldr	r3, [pc, #4]	; (800271c <_ZN12_GLOBAL__N_112fontchar_h_tD1Ev+0x8>)
 8002716:	6003      	str	r3, [r0, #0]
 8002718:	4770      	bx	lr
 800271a:	bf00      	nop
 800271c:	0800d5d0 	.word	0x0800d5d0

08002720 <_ZN12_GLOBAL__N_112fontchar_g_tD1Ev>:
 8002720:	4b01      	ldr	r3, [pc, #4]	; (8002728 <_ZN12_GLOBAL__N_112fontchar_g_tD1Ev+0x8>)
 8002722:	6003      	str	r3, [r0, #0]
 8002724:	4770      	bx	lr
 8002726:	bf00      	nop
 8002728:	0800d5d0 	.word	0x0800d5d0

0800272c <_ZN12_GLOBAL__N_112fontchar_f_tD1Ev>:
 800272c:	4b01      	ldr	r3, [pc, #4]	; (8002734 <_ZN12_GLOBAL__N_112fontchar_f_tD1Ev+0x8>)
 800272e:	6003      	str	r3, [r0, #0]
 8002730:	4770      	bx	lr
 8002732:	bf00      	nop
 8002734:	0800d5d0 	.word	0x0800d5d0

08002738 <_ZN12_GLOBAL__N_112fontchar_e_tD1Ev>:
 8002738:	4b01      	ldr	r3, [pc, #4]	; (8002740 <_ZN12_GLOBAL__N_112fontchar_e_tD1Ev+0x8>)
 800273a:	6003      	str	r3, [r0, #0]
 800273c:	4770      	bx	lr
 800273e:	bf00      	nop
 8002740:	0800d5d0 	.word	0x0800d5d0

08002744 <_ZN12_GLOBAL__N_112fontchar_d_tD1Ev>:
 8002744:	4b01      	ldr	r3, [pc, #4]	; (800274c <_ZN12_GLOBAL__N_112fontchar_d_tD1Ev+0x8>)
 8002746:	6003      	str	r3, [r0, #0]
 8002748:	4770      	bx	lr
 800274a:	bf00      	nop
 800274c:	0800d5d0 	.word	0x0800d5d0

08002750 <_ZN12_GLOBAL__N_112fontchar_c_tD1Ev>:
 8002750:	4b01      	ldr	r3, [pc, #4]	; (8002758 <_ZN12_GLOBAL__N_112fontchar_c_tD1Ev+0x8>)
 8002752:	6003      	str	r3, [r0, #0]
 8002754:	4770      	bx	lr
 8002756:	bf00      	nop
 8002758:	0800d5d0 	.word	0x0800d5d0

0800275c <_ZN12_GLOBAL__N_112fontchar_b_tD1Ev>:
 800275c:	4b01      	ldr	r3, [pc, #4]	; (8002764 <_ZN12_GLOBAL__N_112fontchar_b_tD1Ev+0x8>)
 800275e:	6003      	str	r3, [r0, #0]
 8002760:	4770      	bx	lr
 8002762:	bf00      	nop
 8002764:	0800d5d0 	.word	0x0800d5d0

08002768 <_ZN12_GLOBAL__N_112fontchar_a_tD1Ev>:
 8002768:	4b01      	ldr	r3, [pc, #4]	; (8002770 <_ZN12_GLOBAL__N_112fontchar_a_tD1Ev+0x8>)
 800276a:	6003      	str	r3, [r0, #0]
 800276c:	4770      	bx	lr
 800276e:	bf00      	nop
 8002770:	0800d5d0 	.word	0x0800d5d0

08002774 <_ZN12_GLOBAL__N_112fontchar_Z_tD1Ev>:
 8002774:	4b01      	ldr	r3, [pc, #4]	; (800277c <_ZN12_GLOBAL__N_112fontchar_Z_tD1Ev+0x8>)
 8002776:	6003      	str	r3, [r0, #0]
 8002778:	4770      	bx	lr
 800277a:	bf00      	nop
 800277c:	0800d5d0 	.word	0x0800d5d0

08002780 <_ZN12_GLOBAL__N_112fontchar_Y_tD1Ev>:
 8002780:	4b01      	ldr	r3, [pc, #4]	; (8002788 <_ZN12_GLOBAL__N_112fontchar_Y_tD1Ev+0x8>)
 8002782:	6003      	str	r3, [r0, #0]
 8002784:	4770      	bx	lr
 8002786:	bf00      	nop
 8002788:	0800d5d0 	.word	0x0800d5d0

0800278c <_ZN12_GLOBAL__N_112fontchar_X_tD1Ev>:
 800278c:	4b01      	ldr	r3, [pc, #4]	; (8002794 <_ZN12_GLOBAL__N_112fontchar_X_tD1Ev+0x8>)
 800278e:	6003      	str	r3, [r0, #0]
 8002790:	4770      	bx	lr
 8002792:	bf00      	nop
 8002794:	0800d5d0 	.word	0x0800d5d0

08002798 <_ZN12_GLOBAL__N_112fontchar_W_tD1Ev>:
 8002798:	4b01      	ldr	r3, [pc, #4]	; (80027a0 <_ZN12_GLOBAL__N_112fontchar_W_tD1Ev+0x8>)
 800279a:	6003      	str	r3, [r0, #0]
 800279c:	4770      	bx	lr
 800279e:	bf00      	nop
 80027a0:	0800d5d0 	.word	0x0800d5d0

080027a4 <_ZN12_GLOBAL__N_112fontchar_V_tD1Ev>:
 80027a4:	4b01      	ldr	r3, [pc, #4]	; (80027ac <_ZN12_GLOBAL__N_112fontchar_V_tD1Ev+0x8>)
 80027a6:	6003      	str	r3, [r0, #0]
 80027a8:	4770      	bx	lr
 80027aa:	bf00      	nop
 80027ac:	0800d5d0 	.word	0x0800d5d0

080027b0 <_ZN12_GLOBAL__N_112fontchar_U_tD1Ev>:
 80027b0:	4b01      	ldr	r3, [pc, #4]	; (80027b8 <_ZN12_GLOBAL__N_112fontchar_U_tD1Ev+0x8>)
 80027b2:	6003      	str	r3, [r0, #0]
 80027b4:	4770      	bx	lr
 80027b6:	bf00      	nop
 80027b8:	0800d5d0 	.word	0x0800d5d0

080027bc <_ZN12_GLOBAL__N_112fontchar_T_tD1Ev>:
 80027bc:	4b01      	ldr	r3, [pc, #4]	; (80027c4 <_ZN12_GLOBAL__N_112fontchar_T_tD1Ev+0x8>)
 80027be:	6003      	str	r3, [r0, #0]
 80027c0:	4770      	bx	lr
 80027c2:	bf00      	nop
 80027c4:	0800d5d0 	.word	0x0800d5d0

080027c8 <_ZN12_GLOBAL__N_112fontchar_S_tD1Ev>:
 80027c8:	4b01      	ldr	r3, [pc, #4]	; (80027d0 <_ZN12_GLOBAL__N_112fontchar_S_tD1Ev+0x8>)
 80027ca:	6003      	str	r3, [r0, #0]
 80027cc:	4770      	bx	lr
 80027ce:	bf00      	nop
 80027d0:	0800d5d0 	.word	0x0800d5d0

080027d4 <_ZN12_GLOBAL__N_112fontchar_R_tD1Ev>:
 80027d4:	4b01      	ldr	r3, [pc, #4]	; (80027dc <_ZN12_GLOBAL__N_112fontchar_R_tD1Ev+0x8>)
 80027d6:	6003      	str	r3, [r0, #0]
 80027d8:	4770      	bx	lr
 80027da:	bf00      	nop
 80027dc:	0800d5d0 	.word	0x0800d5d0

080027e0 <_ZN12_GLOBAL__N_112fontchar_Q_tD1Ev>:
 80027e0:	4b01      	ldr	r3, [pc, #4]	; (80027e8 <_ZN12_GLOBAL__N_112fontchar_Q_tD1Ev+0x8>)
 80027e2:	6003      	str	r3, [r0, #0]
 80027e4:	4770      	bx	lr
 80027e6:	bf00      	nop
 80027e8:	0800d5d0 	.word	0x0800d5d0

080027ec <_ZN12_GLOBAL__N_112fontchar_P_tD1Ev>:
 80027ec:	4b01      	ldr	r3, [pc, #4]	; (80027f4 <_ZN12_GLOBAL__N_112fontchar_P_tD1Ev+0x8>)
 80027ee:	6003      	str	r3, [r0, #0]
 80027f0:	4770      	bx	lr
 80027f2:	bf00      	nop
 80027f4:	0800d5d0 	.word	0x0800d5d0

080027f8 <_ZN12_GLOBAL__N_112fontchar_O_tD1Ev>:
 80027f8:	4b01      	ldr	r3, [pc, #4]	; (8002800 <_ZN12_GLOBAL__N_112fontchar_O_tD1Ev+0x8>)
 80027fa:	6003      	str	r3, [r0, #0]
 80027fc:	4770      	bx	lr
 80027fe:	bf00      	nop
 8002800:	0800d5d0 	.word	0x0800d5d0

08002804 <_ZN12_GLOBAL__N_112fontchar_N_tD1Ev>:
 8002804:	4b01      	ldr	r3, [pc, #4]	; (800280c <_ZN12_GLOBAL__N_112fontchar_N_tD1Ev+0x8>)
 8002806:	6003      	str	r3, [r0, #0]
 8002808:	4770      	bx	lr
 800280a:	bf00      	nop
 800280c:	0800d5d0 	.word	0x0800d5d0

08002810 <_ZN12_GLOBAL__N_112fontchar_M_tD1Ev>:
 8002810:	4b01      	ldr	r3, [pc, #4]	; (8002818 <_ZN12_GLOBAL__N_112fontchar_M_tD1Ev+0x8>)
 8002812:	6003      	str	r3, [r0, #0]
 8002814:	4770      	bx	lr
 8002816:	bf00      	nop
 8002818:	0800d5d0 	.word	0x0800d5d0

0800281c <_ZN12_GLOBAL__N_112fontchar_L_tD1Ev>:
 800281c:	4b01      	ldr	r3, [pc, #4]	; (8002824 <_ZN12_GLOBAL__N_112fontchar_L_tD1Ev+0x8>)
 800281e:	6003      	str	r3, [r0, #0]
 8002820:	4770      	bx	lr
 8002822:	bf00      	nop
 8002824:	0800d5d0 	.word	0x0800d5d0

08002828 <_ZN12_GLOBAL__N_112fontchar_K_tD1Ev>:
 8002828:	4b01      	ldr	r3, [pc, #4]	; (8002830 <_ZN12_GLOBAL__N_112fontchar_K_tD1Ev+0x8>)
 800282a:	6003      	str	r3, [r0, #0]
 800282c:	4770      	bx	lr
 800282e:	bf00      	nop
 8002830:	0800d5d0 	.word	0x0800d5d0

08002834 <_ZN12_GLOBAL__N_112fontchar_J_tD1Ev>:
 8002834:	4b01      	ldr	r3, [pc, #4]	; (800283c <_ZN12_GLOBAL__N_112fontchar_J_tD1Ev+0x8>)
 8002836:	6003      	str	r3, [r0, #0]
 8002838:	4770      	bx	lr
 800283a:	bf00      	nop
 800283c:	0800d5d0 	.word	0x0800d5d0

08002840 <_ZN12_GLOBAL__N_112fontchar_I_tD1Ev>:
 8002840:	4b01      	ldr	r3, [pc, #4]	; (8002848 <_ZN12_GLOBAL__N_112fontchar_I_tD1Ev+0x8>)
 8002842:	6003      	str	r3, [r0, #0]
 8002844:	4770      	bx	lr
 8002846:	bf00      	nop
 8002848:	0800d5d0 	.word	0x0800d5d0

0800284c <_ZN12_GLOBAL__N_112fontchar_H_tD1Ev>:
 800284c:	4b01      	ldr	r3, [pc, #4]	; (8002854 <_ZN12_GLOBAL__N_112fontchar_H_tD1Ev+0x8>)
 800284e:	6003      	str	r3, [r0, #0]
 8002850:	4770      	bx	lr
 8002852:	bf00      	nop
 8002854:	0800d5d0 	.word	0x0800d5d0

08002858 <_ZN12_GLOBAL__N_112fontchar_G_tD1Ev>:
 8002858:	4b01      	ldr	r3, [pc, #4]	; (8002860 <_ZN12_GLOBAL__N_112fontchar_G_tD1Ev+0x8>)
 800285a:	6003      	str	r3, [r0, #0]
 800285c:	4770      	bx	lr
 800285e:	bf00      	nop
 8002860:	0800d5d0 	.word	0x0800d5d0

08002864 <_ZN12_GLOBAL__N_112fontchar_F_tD1Ev>:
 8002864:	4b01      	ldr	r3, [pc, #4]	; (800286c <_ZN12_GLOBAL__N_112fontchar_F_tD1Ev+0x8>)
 8002866:	6003      	str	r3, [r0, #0]
 8002868:	4770      	bx	lr
 800286a:	bf00      	nop
 800286c:	0800d5d0 	.word	0x0800d5d0

08002870 <_ZN12_GLOBAL__N_112fontchar_E_tD1Ev>:
 8002870:	4b01      	ldr	r3, [pc, #4]	; (8002878 <_ZN12_GLOBAL__N_112fontchar_E_tD1Ev+0x8>)
 8002872:	6003      	str	r3, [r0, #0]
 8002874:	4770      	bx	lr
 8002876:	bf00      	nop
 8002878:	0800d5d0 	.word	0x0800d5d0

0800287c <_ZN12_GLOBAL__N_112fontchar_D_tD1Ev>:
 800287c:	4b01      	ldr	r3, [pc, #4]	; (8002884 <_ZN12_GLOBAL__N_112fontchar_D_tD1Ev+0x8>)
 800287e:	6003      	str	r3, [r0, #0]
 8002880:	4770      	bx	lr
 8002882:	bf00      	nop
 8002884:	0800d5d0 	.word	0x0800d5d0

08002888 <_ZN12_GLOBAL__N_112fontchar_C_tD1Ev>:
 8002888:	4b01      	ldr	r3, [pc, #4]	; (8002890 <_ZN12_GLOBAL__N_112fontchar_C_tD1Ev+0x8>)
 800288a:	6003      	str	r3, [r0, #0]
 800288c:	4770      	bx	lr
 800288e:	bf00      	nop
 8002890:	0800d5d0 	.word	0x0800d5d0

08002894 <_ZN12_GLOBAL__N_112fontchar_B_tD1Ev>:
 8002894:	4b01      	ldr	r3, [pc, #4]	; (800289c <_ZN12_GLOBAL__N_112fontchar_B_tD1Ev+0x8>)
 8002896:	6003      	str	r3, [r0, #0]
 8002898:	4770      	bx	lr
 800289a:	bf00      	nop
 800289c:	0800d5d0 	.word	0x0800d5d0

080028a0 <_ZN12_GLOBAL__N_112fontchar_A_tD1Ev>:
 80028a0:	4b01      	ldr	r3, [pc, #4]	; (80028a8 <_ZN12_GLOBAL__N_112fontchar_A_tD1Ev+0x8>)
 80028a2:	6003      	str	r3, [r0, #0]
 80028a4:	4770      	bx	lr
 80028a6:	bf00      	nop
 80028a8:	0800d5d0 	.word	0x0800d5d0

080028ac <_ZNK12static_imageIhLm12ELm18ELm2EE11get_size_pxEv>:
 80028ac:	210c      	movs	r1, #12
 80028ae:	2212      	movs	r2, #18
 80028b0:	e880 0006 	stmia.w	r0, {r1, r2}
 80028b4:	4770      	bx	lr
 80028b6:	bf00      	nop

080028b8 <_ZNK12static_imageIhLm12ELm18ELm2EE11get_bits_pxEv>:
 80028b8:	2002      	movs	r0, #2
 80028ba:	4770      	bx	lr

080028bc <_ZN12_GLOBAL__N_116fontchar_bquot_tD0Ev>:
 80028bc:	4b03      	ldr	r3, [pc, #12]	; (80028cc <_ZN12_GLOBAL__N_116fontchar_bquot_tD0Ev+0x10>)
 80028be:	b510      	push	{r4, lr}
 80028c0:	4604      	mov	r4, r0
 80028c2:	6003      	str	r3, [r0, #0]
 80028c4:	f002 fd30 	bl	8005328 <_ZdlPv>
 80028c8:	4620      	mov	r0, r4
 80028ca:	bd10      	pop	{r4, pc}
 80028cc:	0800d5d0 	.word	0x0800d5d0

080028d0 <_ZN12_GLOBAL__N_124fontchar_forward_slash_tD0Ev>:
 80028d0:	4b03      	ldr	r3, [pc, #12]	; (80028e0 <_ZN12_GLOBAL__N_124fontchar_forward_slash_tD0Ev+0x10>)
 80028d2:	b510      	push	{r4, lr}
 80028d4:	4604      	mov	r4, r0
 80028d6:	6003      	str	r3, [r0, #0]
 80028d8:	f002 fd26 	bl	8005328 <_ZdlPv>
 80028dc:	4620      	mov	r0, r4
 80028de:	bd10      	pop	{r4, pc}
 80028e0:	0800d5d0 	.word	0x0800d5d0

080028e4 <_ZN12_GLOBAL__N_119fontchar_question_tD0Ev>:
 80028e4:	4b03      	ldr	r3, [pc, #12]	; (80028f4 <_ZN12_GLOBAL__N_119fontchar_question_tD0Ev+0x10>)
 80028e6:	b510      	push	{r4, lr}
 80028e8:	4604      	mov	r4, r0
 80028ea:	6003      	str	r3, [r0, #0]
 80028ec:	f002 fd1c 	bl	8005328 <_ZdlPv>
 80028f0:	4620      	mov	r0, r4
 80028f2:	bd10      	pop	{r4, pc}
 80028f4:	0800d5d0 	.word	0x0800d5d0

080028f8 <_ZN12_GLOBAL__N_114fontchar_dot_tD0Ev>:
 80028f8:	4b03      	ldr	r3, [pc, #12]	; (8002908 <_ZN12_GLOBAL__N_114fontchar_dot_tD0Ev+0x10>)
 80028fa:	b510      	push	{r4, lr}
 80028fc:	4604      	mov	r4, r0
 80028fe:	6003      	str	r3, [r0, #0]
 8002900:	f002 fd12 	bl	8005328 <_ZdlPv>
 8002904:	4620      	mov	r0, r4
 8002906:	bd10      	pop	{r4, pc}
 8002908:	0800d5d0 	.word	0x0800d5d0

0800290c <_ZN12_GLOBAL__N_113fontchar_gt_tD0Ev>:
 800290c:	4b03      	ldr	r3, [pc, #12]	; (800291c <_ZN12_GLOBAL__N_113fontchar_gt_tD0Ev+0x10>)
 800290e:	b510      	push	{r4, lr}
 8002910:	4604      	mov	r4, r0
 8002912:	6003      	str	r3, [r0, #0]
 8002914:	f002 fd08 	bl	8005328 <_ZdlPv>
 8002918:	4620      	mov	r0, r4
 800291a:	bd10      	pop	{r4, pc}
 800291c:	0800d5d0 	.word	0x0800d5d0

08002920 <_ZN12_GLOBAL__N_113fontchar_lt_tD0Ev>:
 8002920:	4b03      	ldr	r3, [pc, #12]	; (8002930 <_ZN12_GLOBAL__N_113fontchar_lt_tD0Ev+0x10>)
 8002922:	b510      	push	{r4, lr}
 8002924:	4604      	mov	r4, r0
 8002926:	6003      	str	r3, [r0, #0]
 8002928:	f002 fcfe 	bl	8005328 <_ZdlPv>
 800292c:	4620      	mov	r0, r4
 800292e:	bd10      	pop	{r4, pc}
 8002930:	0800d5d0 	.word	0x0800d5d0

08002934 <_ZN12_GLOBAL__N_116fontchar_comma_tD0Ev>:
 8002934:	4b03      	ldr	r3, [pc, #12]	; (8002944 <_ZN12_GLOBAL__N_116fontchar_comma_tD0Ev+0x10>)
 8002936:	b510      	push	{r4, lr}
 8002938:	4604      	mov	r4, r0
 800293a:	6003      	str	r3, [r0, #0]
 800293c:	f002 fcf4 	bl	8005328 <_ZdlPv>
 8002940:	4620      	mov	r0, r4
 8002942:	bd10      	pop	{r4, pc}
 8002944:	0800d5d0 	.word	0x0800d5d0

08002948 <_ZN12_GLOBAL__N_120fontchar_backslash_tD0Ev>:
 8002948:	4b03      	ldr	r3, [pc, #12]	; (8002958 <_ZN12_GLOBAL__N_120fontchar_backslash_tD0Ev+0x10>)
 800294a:	b510      	push	{r4, lr}
 800294c:	4604      	mov	r4, r0
 800294e:	6003      	str	r3, [r0, #0]
 8002950:	f002 fcea 	bl	8005328 <_ZdlPv>
 8002954:	4620      	mov	r0, r4
 8002956:	bd10      	pop	{r4, pc}
 8002958:	0800d5d0 	.word	0x0800d5d0

0800295c <_ZN12_GLOBAL__N_115fontchar_vbar_tD0Ev>:
 800295c:	4b03      	ldr	r3, [pc, #12]	; (800296c <_ZN12_GLOBAL__N_115fontchar_vbar_tD0Ev+0x10>)
 800295e:	b510      	push	{r4, lr}
 8002960:	4604      	mov	r4, r0
 8002962:	6003      	str	r3, [r0, #0]
 8002964:	f002 fce0 	bl	8005328 <_ZdlPv>
 8002968:	4620      	mov	r0, r4
 800296a:	bd10      	pop	{r4, pc}
 800296c:	0800d5d0 	.word	0x0800d5d0

08002970 <_ZN12_GLOBAL__N_116fontchar_tilde_tD0Ev>:
 8002970:	4b03      	ldr	r3, [pc, #12]	; (8002980 <_ZN12_GLOBAL__N_116fontchar_tilde_tD0Ev+0x10>)
 8002972:	b510      	push	{r4, lr}
 8002974:	4604      	mov	r4, r0
 8002976:	6003      	str	r3, [r0, #0]
 8002978:	f002 fcd6 	bl	8005328 <_ZdlPv>
 800297c:	4620      	mov	r0, r4
 800297e:	bd10      	pop	{r4, pc}
 8002980:	0800d5d0 	.word	0x0800d5d0

08002984 <_ZN12_GLOBAL__N_115fontchar_hash_tD0Ev>:
 8002984:	4b03      	ldr	r3, [pc, #12]	; (8002994 <_ZN12_GLOBAL__N_115fontchar_hash_tD0Ev+0x10>)
 8002986:	b510      	push	{r4, lr}
 8002988:	4604      	mov	r4, r0
 800298a:	6003      	str	r3, [r0, #0]
 800298c:	f002 fccc 	bl	8005328 <_ZdlPv>
 8002990:	4620      	mov	r0, r4
 8002992:	bd10      	pop	{r4, pc}
 8002994:	0800d5d0 	.word	0x0800d5d0

08002998 <_ZN12_GLOBAL__N_113fontchar_at_tD0Ev>:
 8002998:	4b03      	ldr	r3, [pc, #12]	; (80029a8 <_ZN12_GLOBAL__N_113fontchar_at_tD0Ev+0x10>)
 800299a:	b510      	push	{r4, lr}
 800299c:	4604      	mov	r4, r0
 800299e:	6003      	str	r3, [r0, #0]
 80029a0:	f002 fcc2 	bl	8005328 <_ZdlPv>
 80029a4:	4620      	mov	r0, r4
 80029a6:	bd10      	pop	{r4, pc}
 80029a8:	0800d5d0 	.word	0x0800d5d0

080029ac <_ZN12_GLOBAL__N_116fontchar_squot_tD0Ev>:
 80029ac:	4b03      	ldr	r3, [pc, #12]	; (80029bc <_ZN12_GLOBAL__N_116fontchar_squot_tD0Ev+0x10>)
 80029ae:	b510      	push	{r4, lr}
 80029b0:	4604      	mov	r4, r0
 80029b2:	6003      	str	r3, [r0, #0]
 80029b4:	f002 fcb8 	bl	8005328 <_ZdlPv>
 80029b8:	4620      	mov	r0, r4
 80029ba:	bd10      	pop	{r4, pc}
 80029bc:	0800d5d0 	.word	0x0800d5d0

080029c0 <_ZN12_GLOBAL__N_120fontchar_semicolon_tD0Ev>:
 80029c0:	4b03      	ldr	r3, [pc, #12]	; (80029d0 <_ZN12_GLOBAL__N_120fontchar_semicolon_tD0Ev+0x10>)
 80029c2:	b510      	push	{r4, lr}
 80029c4:	4604      	mov	r4, r0
 80029c6:	6003      	str	r3, [r0, #0]
 80029c8:	f002 fcae 	bl	8005328 <_ZdlPv>
 80029cc:	4620      	mov	r0, r4
 80029ce:	bd10      	pop	{r4, pc}
 80029d0:	0800d5d0 	.word	0x0800d5d0

080029d4 <_ZN12_GLOBAL__N_116fontchar_colon_tD0Ev>:
 80029d4:	4b03      	ldr	r3, [pc, #12]	; (80029e4 <_ZN12_GLOBAL__N_116fontchar_colon_tD0Ev+0x10>)
 80029d6:	b510      	push	{r4, lr}
 80029d8:	4604      	mov	r4, r0
 80029da:	6003      	str	r3, [r0, #0]
 80029dc:	f002 fca4 	bl	8005328 <_ZdlPv>
 80029e0:	4620      	mov	r0, r4
 80029e2:	bd10      	pop	{r4, pc}
 80029e4:	0800d5d0 	.word	0x0800d5d0

080029e8 <_ZN12_GLOBAL__N_121fontchar_rsqbracket_tD0Ev>:
 80029e8:	4b03      	ldr	r3, [pc, #12]	; (80029f8 <_ZN12_GLOBAL__N_121fontchar_rsqbracket_tD0Ev+0x10>)
 80029ea:	b510      	push	{r4, lr}
 80029ec:	4604      	mov	r4, r0
 80029ee:	6003      	str	r3, [r0, #0]
 80029f0:	f002 fc9a 	bl	8005328 <_ZdlPv>
 80029f4:	4620      	mov	r0, r4
 80029f6:	bd10      	pop	{r4, pc}
 80029f8:	0800d5d0 	.word	0x0800d5d0

080029fc <_ZN12_GLOBAL__N_120fontchar_lsqbacket_tD0Ev>:
 80029fc:	4b03      	ldr	r3, [pc, #12]	; (8002a0c <_ZN12_GLOBAL__N_120fontchar_lsqbacket_tD0Ev+0x10>)
 80029fe:	b510      	push	{r4, lr}
 8002a00:	4604      	mov	r4, r0
 8002a02:	6003      	str	r3, [r0, #0]
 8002a04:	f002 fc90 	bl	8005328 <_ZdlPv>
 8002a08:	4620      	mov	r0, r4
 8002a0a:	bd10      	pop	{r4, pc}
 8002a0c:	0800d5d0 	.word	0x0800d5d0

08002a10 <_ZN12_GLOBAL__N_117fontchar_rcurly_tD0Ev>:
 8002a10:	4b03      	ldr	r3, [pc, #12]	; (8002a20 <_ZN12_GLOBAL__N_117fontchar_rcurly_tD0Ev+0x10>)
 8002a12:	b510      	push	{r4, lr}
 8002a14:	4604      	mov	r4, r0
 8002a16:	6003      	str	r3, [r0, #0]
 8002a18:	f002 fc86 	bl	8005328 <_ZdlPv>
 8002a1c:	4620      	mov	r0, r4
 8002a1e:	bd10      	pop	{r4, pc}
 8002a20:	0800d5d0 	.word	0x0800d5d0

08002a24 <_ZN12_GLOBAL__N_117fontchar_lcurly_tD0Ev>:
 8002a24:	4b03      	ldr	r3, [pc, #12]	; (8002a34 <_ZN12_GLOBAL__N_117fontchar_lcurly_tD0Ev+0x10>)
 8002a26:	b510      	push	{r4, lr}
 8002a28:	4604      	mov	r4, r0
 8002a2a:	6003      	str	r3, [r0, #0]
 8002a2c:	f002 fc7c 	bl	8005328 <_ZdlPv>
 8002a30:	4620      	mov	r0, r4
 8002a32:	bd10      	pop	{r4, pc}
 8002a34:	0800d5d0 	.word	0x0800d5d0

08002a38 <_ZN12_GLOBAL__N_117fontchar_equals_tD0Ev>:
 8002a38:	4b03      	ldr	r3, [pc, #12]	; (8002a48 <_ZN12_GLOBAL__N_117fontchar_equals_tD0Ev+0x10>)
 8002a3a:	b510      	push	{r4, lr}
 8002a3c:	4604      	mov	r4, r0
 8002a3e:	6003      	str	r3, [r0, #0]
 8002a40:	f002 fc72 	bl	8005328 <_ZdlPv>
 8002a44:	4620      	mov	r0, r4
 8002a46:	bd10      	pop	{r4, pc}
 8002a48:	0800d5d0 	.word	0x0800d5d0

08002a4c <_ZN12_GLOBAL__N_115fontchar_plus_tD0Ev>:
 8002a4c:	4b03      	ldr	r3, [pc, #12]	; (8002a5c <_ZN12_GLOBAL__N_115fontchar_plus_tD0Ev+0x10>)
 8002a4e:	b510      	push	{r4, lr}
 8002a50:	4604      	mov	r4, r0
 8002a52:	6003      	str	r3, [r0, #0]
 8002a54:	f002 fc68 	bl	8005328 <_ZdlPv>
 8002a58:	4620      	mov	r0, r4
 8002a5a:	bd10      	pop	{r4, pc}
 8002a5c:	0800d5d0 	.word	0x0800d5d0

08002a60 <_ZN12_GLOBAL__N_116fontchar_minus_tD0Ev>:
 8002a60:	4b03      	ldr	r3, [pc, #12]	; (8002a70 <_ZN12_GLOBAL__N_116fontchar_minus_tD0Ev+0x10>)
 8002a62:	b510      	push	{r4, lr}
 8002a64:	4604      	mov	r4, r0
 8002a66:	6003      	str	r3, [r0, #0]
 8002a68:	f002 fc5e 	bl	8005328 <_ZdlPv>
 8002a6c:	4620      	mov	r0, r4
 8002a6e:	bd10      	pop	{r4, pc}
 8002a70:	0800d5d0 	.word	0x0800d5d0

08002a74 <_ZN12_GLOBAL__N_119fontchar_underbar_tD0Ev>:
 8002a74:	4b03      	ldr	r3, [pc, #12]	; (8002a84 <_ZN12_GLOBAL__N_119fontchar_underbar_tD0Ev+0x10>)
 8002a76:	b510      	push	{r4, lr}
 8002a78:	4604      	mov	r4, r0
 8002a7a:	6003      	str	r3, [r0, #0]
 8002a7c:	f002 fc54 	bl	8005328 <_ZdlPv>
 8002a80:	4620      	mov	r0, r4
 8002a82:	bd10      	pop	{r4, pc}
 8002a84:	0800d5d0 	.word	0x0800d5d0

08002a88 <_ZN12_GLOBAL__N_117fontchar_rbrace_tD0Ev>:
 8002a88:	4b03      	ldr	r3, [pc, #12]	; (8002a98 <_ZN12_GLOBAL__N_117fontchar_rbrace_tD0Ev+0x10>)
 8002a8a:	b510      	push	{r4, lr}
 8002a8c:	4604      	mov	r4, r0
 8002a8e:	6003      	str	r3, [r0, #0]
 8002a90:	f002 fc4a 	bl	8005328 <_ZdlPv>
 8002a94:	4620      	mov	r0, r4
 8002a96:	bd10      	pop	{r4, pc}
 8002a98:	0800d5d0 	.word	0x0800d5d0

08002a9c <_ZN12_GLOBAL__N_117fontchar_lbrace_tD0Ev>:
 8002a9c:	4b03      	ldr	r3, [pc, #12]	; (8002aac <_ZN12_GLOBAL__N_117fontchar_lbrace_tD0Ev+0x10>)
 8002a9e:	b510      	push	{r4, lr}
 8002aa0:	4604      	mov	r4, r0
 8002aa2:	6003      	str	r3, [r0, #0]
 8002aa4:	f002 fc40 	bl	8005328 <_ZdlPv>
 8002aa8:	4620      	mov	r0, r4
 8002aaa:	bd10      	pop	{r4, pc}
 8002aac:	0800d5d0 	.word	0x0800d5d0

08002ab0 <_ZN12_GLOBAL__N_115fontchar_star_tD0Ev>:
 8002ab0:	4b03      	ldr	r3, [pc, #12]	; (8002ac0 <_ZN12_GLOBAL__N_115fontchar_star_tD0Ev+0x10>)
 8002ab2:	b510      	push	{r4, lr}
 8002ab4:	4604      	mov	r4, r0
 8002ab6:	6003      	str	r3, [r0, #0]
 8002ab8:	f002 fc36 	bl	8005328 <_ZdlPv>
 8002abc:	4620      	mov	r0, r4
 8002abe:	bd10      	pop	{r4, pc}
 8002ac0:	0800d5d0 	.word	0x0800d5d0

08002ac4 <_ZN12_GLOBAL__N_114fontchar_and_tD0Ev>:
 8002ac4:	4b03      	ldr	r3, [pc, #12]	; (8002ad4 <_ZN12_GLOBAL__N_114fontchar_and_tD0Ev+0x10>)
 8002ac6:	b510      	push	{r4, lr}
 8002ac8:	4604      	mov	r4, r0
 8002aca:	6003      	str	r3, [r0, #0]
 8002acc:	f002 fc2c 	bl	8005328 <_ZdlPv>
 8002ad0:	4620      	mov	r0, r4
 8002ad2:	bd10      	pop	{r4, pc}
 8002ad4:	0800d5d0 	.word	0x0800d5d0

08002ad8 <_ZN12_GLOBAL__N_113fontchar_up_tD0Ev>:
 8002ad8:	4b03      	ldr	r3, [pc, #12]	; (8002ae8 <_ZN12_GLOBAL__N_113fontchar_up_tD0Ev+0x10>)
 8002ada:	b510      	push	{r4, lr}
 8002adc:	4604      	mov	r4, r0
 8002ade:	6003      	str	r3, [r0, #0]
 8002ae0:	f002 fc22 	bl	8005328 <_ZdlPv>
 8002ae4:	4620      	mov	r0, r4
 8002ae6:	bd10      	pop	{r4, pc}
 8002ae8:	0800d5d0 	.word	0x0800d5d0

08002aec <_ZN12_GLOBAL__N_118fontchar_percent_tD0Ev>:
 8002aec:	4b03      	ldr	r3, [pc, #12]	; (8002afc <_ZN12_GLOBAL__N_118fontchar_percent_tD0Ev+0x10>)
 8002aee:	b510      	push	{r4, lr}
 8002af0:	4604      	mov	r4, r0
 8002af2:	6003      	str	r3, [r0, #0]
 8002af4:	f002 fc18 	bl	8005328 <_ZdlPv>
 8002af8:	4620      	mov	r0, r4
 8002afa:	bd10      	pop	{r4, pc}
 8002afc:	0800d5d0 	.word	0x0800d5d0

08002b00 <_ZN12_GLOBAL__N_116fontchar_space_tD0Ev>:
 8002b00:	4b03      	ldr	r3, [pc, #12]	; (8002b10 <_ZN12_GLOBAL__N_116fontchar_space_tD0Ev+0x10>)
 8002b02:	b510      	push	{r4, lr}
 8002b04:	4604      	mov	r4, r0
 8002b06:	6003      	str	r3, [r0, #0]
 8002b08:	f002 fc0e 	bl	8005328 <_ZdlPv>
 8002b0c:	4620      	mov	r0, r4
 8002b0e:	bd10      	pop	{r4, pc}
 8002b10:	0800d5d0 	.word	0x0800d5d0

08002b14 <_ZN12_GLOBAL__N_117fontchar_dollar_tD0Ev>:
 8002b14:	4b03      	ldr	r3, [pc, #12]	; (8002b24 <_ZN12_GLOBAL__N_117fontchar_dollar_tD0Ev+0x10>)
 8002b16:	b510      	push	{r4, lr}
 8002b18:	4604      	mov	r4, r0
 8002b1a:	6003      	str	r3, [r0, #0]
 8002b1c:	f002 fc04 	bl	8005328 <_ZdlPv>
 8002b20:	4620      	mov	r0, r4
 8002b22:	bd10      	pop	{r4, pc}
 8002b24:	0800d5d0 	.word	0x0800d5d0

08002b28 <_ZN12_GLOBAL__N_116fontchar_dquot_tD0Ev>:
 8002b28:	4b03      	ldr	r3, [pc, #12]	; (8002b38 <_ZN12_GLOBAL__N_116fontchar_dquot_tD0Ev+0x10>)
 8002b2a:	b510      	push	{r4, lr}
 8002b2c:	4604      	mov	r4, r0
 8002b2e:	6003      	str	r3, [r0, #0]
 8002b30:	f002 fbfa 	bl	8005328 <_ZdlPv>
 8002b34:	4620      	mov	r0, r4
 8002b36:	bd10      	pop	{r4, pc}
 8002b38:	0800d5d0 	.word	0x0800d5d0

08002b3c <_ZN12_GLOBAL__N_114fontchar_not_tD0Ev>:
 8002b3c:	4b03      	ldr	r3, [pc, #12]	; (8002b4c <_ZN12_GLOBAL__N_114fontchar_not_tD0Ev+0x10>)
 8002b3e:	b510      	push	{r4, lr}
 8002b40:	4604      	mov	r4, r0
 8002b42:	6003      	str	r3, [r0, #0]
 8002b44:	f002 fbf0 	bl	8005328 <_ZdlPv>
 8002b48:	4620      	mov	r0, r4
 8002b4a:	bd10      	pop	{r4, pc}
 8002b4c:	0800d5d0 	.word	0x0800d5d0

08002b50 <_ZN12_GLOBAL__N_112fontchar_0_tD0Ev>:
 8002b50:	4b03      	ldr	r3, [pc, #12]	; (8002b60 <_ZN12_GLOBAL__N_112fontchar_0_tD0Ev+0x10>)
 8002b52:	b510      	push	{r4, lr}
 8002b54:	4604      	mov	r4, r0
 8002b56:	6003      	str	r3, [r0, #0]
 8002b58:	f002 fbe6 	bl	8005328 <_ZdlPv>
 8002b5c:	4620      	mov	r0, r4
 8002b5e:	bd10      	pop	{r4, pc}
 8002b60:	0800d5d0 	.word	0x0800d5d0

08002b64 <_ZN12_GLOBAL__N_112fontchar_9_tD0Ev>:
 8002b64:	4b03      	ldr	r3, [pc, #12]	; (8002b74 <_ZN12_GLOBAL__N_112fontchar_9_tD0Ev+0x10>)
 8002b66:	b510      	push	{r4, lr}
 8002b68:	4604      	mov	r4, r0
 8002b6a:	6003      	str	r3, [r0, #0]
 8002b6c:	f002 fbdc 	bl	8005328 <_ZdlPv>
 8002b70:	4620      	mov	r0, r4
 8002b72:	bd10      	pop	{r4, pc}
 8002b74:	0800d5d0 	.word	0x0800d5d0

08002b78 <_ZN12_GLOBAL__N_112fontchar_8_tD0Ev>:
 8002b78:	4b03      	ldr	r3, [pc, #12]	; (8002b88 <_ZN12_GLOBAL__N_112fontchar_8_tD0Ev+0x10>)
 8002b7a:	b510      	push	{r4, lr}
 8002b7c:	4604      	mov	r4, r0
 8002b7e:	6003      	str	r3, [r0, #0]
 8002b80:	f002 fbd2 	bl	8005328 <_ZdlPv>
 8002b84:	4620      	mov	r0, r4
 8002b86:	bd10      	pop	{r4, pc}
 8002b88:	0800d5d0 	.word	0x0800d5d0

08002b8c <_ZN12_GLOBAL__N_112fontchar_7_tD0Ev>:
 8002b8c:	4b03      	ldr	r3, [pc, #12]	; (8002b9c <_ZN12_GLOBAL__N_112fontchar_7_tD0Ev+0x10>)
 8002b8e:	b510      	push	{r4, lr}
 8002b90:	4604      	mov	r4, r0
 8002b92:	6003      	str	r3, [r0, #0]
 8002b94:	f002 fbc8 	bl	8005328 <_ZdlPv>
 8002b98:	4620      	mov	r0, r4
 8002b9a:	bd10      	pop	{r4, pc}
 8002b9c:	0800d5d0 	.word	0x0800d5d0

08002ba0 <_ZN12_GLOBAL__N_112fontchar_6_tD0Ev>:
 8002ba0:	4b03      	ldr	r3, [pc, #12]	; (8002bb0 <_ZN12_GLOBAL__N_112fontchar_6_tD0Ev+0x10>)
 8002ba2:	b510      	push	{r4, lr}
 8002ba4:	4604      	mov	r4, r0
 8002ba6:	6003      	str	r3, [r0, #0]
 8002ba8:	f002 fbbe 	bl	8005328 <_ZdlPv>
 8002bac:	4620      	mov	r0, r4
 8002bae:	bd10      	pop	{r4, pc}
 8002bb0:	0800d5d0 	.word	0x0800d5d0

08002bb4 <_ZN12_GLOBAL__N_112fontchar_5_tD0Ev>:
 8002bb4:	4b03      	ldr	r3, [pc, #12]	; (8002bc4 <_ZN12_GLOBAL__N_112fontchar_5_tD0Ev+0x10>)
 8002bb6:	b510      	push	{r4, lr}
 8002bb8:	4604      	mov	r4, r0
 8002bba:	6003      	str	r3, [r0, #0]
 8002bbc:	f002 fbb4 	bl	8005328 <_ZdlPv>
 8002bc0:	4620      	mov	r0, r4
 8002bc2:	bd10      	pop	{r4, pc}
 8002bc4:	0800d5d0 	.word	0x0800d5d0

08002bc8 <_ZN12_GLOBAL__N_112fontchar_4_tD0Ev>:
 8002bc8:	4b03      	ldr	r3, [pc, #12]	; (8002bd8 <_ZN12_GLOBAL__N_112fontchar_4_tD0Ev+0x10>)
 8002bca:	b510      	push	{r4, lr}
 8002bcc:	4604      	mov	r4, r0
 8002bce:	6003      	str	r3, [r0, #0]
 8002bd0:	f002 fbaa 	bl	8005328 <_ZdlPv>
 8002bd4:	4620      	mov	r0, r4
 8002bd6:	bd10      	pop	{r4, pc}
 8002bd8:	0800d5d0 	.word	0x0800d5d0

08002bdc <_ZN12_GLOBAL__N_112fontchar_3_tD0Ev>:
 8002bdc:	4b03      	ldr	r3, [pc, #12]	; (8002bec <_ZN12_GLOBAL__N_112fontchar_3_tD0Ev+0x10>)
 8002bde:	b510      	push	{r4, lr}
 8002be0:	4604      	mov	r4, r0
 8002be2:	6003      	str	r3, [r0, #0]
 8002be4:	f002 fba0 	bl	8005328 <_ZdlPv>
 8002be8:	4620      	mov	r0, r4
 8002bea:	bd10      	pop	{r4, pc}
 8002bec:	0800d5d0 	.word	0x0800d5d0

08002bf0 <_ZN12_GLOBAL__N_112fontchar_2_tD0Ev>:
 8002bf0:	4b03      	ldr	r3, [pc, #12]	; (8002c00 <_ZN12_GLOBAL__N_112fontchar_2_tD0Ev+0x10>)
 8002bf2:	b510      	push	{r4, lr}
 8002bf4:	4604      	mov	r4, r0
 8002bf6:	6003      	str	r3, [r0, #0]
 8002bf8:	f002 fb96 	bl	8005328 <_ZdlPv>
 8002bfc:	4620      	mov	r0, r4
 8002bfe:	bd10      	pop	{r4, pc}
 8002c00:	0800d5d0 	.word	0x0800d5d0

08002c04 <_ZN12_GLOBAL__N_112fontchar_1_tD0Ev>:
 8002c04:	4b03      	ldr	r3, [pc, #12]	; (8002c14 <_ZN12_GLOBAL__N_112fontchar_1_tD0Ev+0x10>)
 8002c06:	b510      	push	{r4, lr}
 8002c08:	4604      	mov	r4, r0
 8002c0a:	6003      	str	r3, [r0, #0]
 8002c0c:	f002 fb8c 	bl	8005328 <_ZdlPv>
 8002c10:	4620      	mov	r0, r4
 8002c12:	bd10      	pop	{r4, pc}
 8002c14:	0800d5d0 	.word	0x0800d5d0

08002c18 <_ZN12_GLOBAL__N_112fontchar_z_tD0Ev>:
 8002c18:	4b03      	ldr	r3, [pc, #12]	; (8002c28 <_ZN12_GLOBAL__N_112fontchar_z_tD0Ev+0x10>)
 8002c1a:	b510      	push	{r4, lr}
 8002c1c:	4604      	mov	r4, r0
 8002c1e:	6003      	str	r3, [r0, #0]
 8002c20:	f002 fb82 	bl	8005328 <_ZdlPv>
 8002c24:	4620      	mov	r0, r4
 8002c26:	bd10      	pop	{r4, pc}
 8002c28:	0800d5d0 	.word	0x0800d5d0

08002c2c <_ZN12_GLOBAL__N_112fontchar_y_tD0Ev>:
 8002c2c:	4b03      	ldr	r3, [pc, #12]	; (8002c3c <_ZN12_GLOBAL__N_112fontchar_y_tD0Ev+0x10>)
 8002c2e:	b510      	push	{r4, lr}
 8002c30:	4604      	mov	r4, r0
 8002c32:	6003      	str	r3, [r0, #0]
 8002c34:	f002 fb78 	bl	8005328 <_ZdlPv>
 8002c38:	4620      	mov	r0, r4
 8002c3a:	bd10      	pop	{r4, pc}
 8002c3c:	0800d5d0 	.word	0x0800d5d0

08002c40 <_ZN12_GLOBAL__N_112fontchar_x_tD0Ev>:
 8002c40:	4b03      	ldr	r3, [pc, #12]	; (8002c50 <_ZN12_GLOBAL__N_112fontchar_x_tD0Ev+0x10>)
 8002c42:	b510      	push	{r4, lr}
 8002c44:	4604      	mov	r4, r0
 8002c46:	6003      	str	r3, [r0, #0]
 8002c48:	f002 fb6e 	bl	8005328 <_ZdlPv>
 8002c4c:	4620      	mov	r0, r4
 8002c4e:	bd10      	pop	{r4, pc}
 8002c50:	0800d5d0 	.word	0x0800d5d0

08002c54 <_ZN12_GLOBAL__N_112fontchar_w_tD0Ev>:
 8002c54:	4b03      	ldr	r3, [pc, #12]	; (8002c64 <_ZN12_GLOBAL__N_112fontchar_w_tD0Ev+0x10>)
 8002c56:	b510      	push	{r4, lr}
 8002c58:	4604      	mov	r4, r0
 8002c5a:	6003      	str	r3, [r0, #0]
 8002c5c:	f002 fb64 	bl	8005328 <_ZdlPv>
 8002c60:	4620      	mov	r0, r4
 8002c62:	bd10      	pop	{r4, pc}
 8002c64:	0800d5d0 	.word	0x0800d5d0

08002c68 <_ZN12_GLOBAL__N_112fontchar_v_tD0Ev>:
 8002c68:	4b03      	ldr	r3, [pc, #12]	; (8002c78 <_ZN12_GLOBAL__N_112fontchar_v_tD0Ev+0x10>)
 8002c6a:	b510      	push	{r4, lr}
 8002c6c:	4604      	mov	r4, r0
 8002c6e:	6003      	str	r3, [r0, #0]
 8002c70:	f002 fb5a 	bl	8005328 <_ZdlPv>
 8002c74:	4620      	mov	r0, r4
 8002c76:	bd10      	pop	{r4, pc}
 8002c78:	0800d5d0 	.word	0x0800d5d0

08002c7c <_ZN12_GLOBAL__N_112fontchar_u_tD0Ev>:
 8002c7c:	4b03      	ldr	r3, [pc, #12]	; (8002c8c <_ZN12_GLOBAL__N_112fontchar_u_tD0Ev+0x10>)
 8002c7e:	b510      	push	{r4, lr}
 8002c80:	4604      	mov	r4, r0
 8002c82:	6003      	str	r3, [r0, #0]
 8002c84:	f002 fb50 	bl	8005328 <_ZdlPv>
 8002c88:	4620      	mov	r0, r4
 8002c8a:	bd10      	pop	{r4, pc}
 8002c8c:	0800d5d0 	.word	0x0800d5d0

08002c90 <_ZN12_GLOBAL__N_112fontchar_t_tD0Ev>:
 8002c90:	4b03      	ldr	r3, [pc, #12]	; (8002ca0 <_ZN12_GLOBAL__N_112fontchar_t_tD0Ev+0x10>)
 8002c92:	b510      	push	{r4, lr}
 8002c94:	4604      	mov	r4, r0
 8002c96:	6003      	str	r3, [r0, #0]
 8002c98:	f002 fb46 	bl	8005328 <_ZdlPv>
 8002c9c:	4620      	mov	r0, r4
 8002c9e:	bd10      	pop	{r4, pc}
 8002ca0:	0800d5d0 	.word	0x0800d5d0

08002ca4 <_ZN12_GLOBAL__N_112fontchar_s_tD0Ev>:
 8002ca4:	4b03      	ldr	r3, [pc, #12]	; (8002cb4 <_ZN12_GLOBAL__N_112fontchar_s_tD0Ev+0x10>)
 8002ca6:	b510      	push	{r4, lr}
 8002ca8:	4604      	mov	r4, r0
 8002caa:	6003      	str	r3, [r0, #0]
 8002cac:	f002 fb3c 	bl	8005328 <_ZdlPv>
 8002cb0:	4620      	mov	r0, r4
 8002cb2:	bd10      	pop	{r4, pc}
 8002cb4:	0800d5d0 	.word	0x0800d5d0

08002cb8 <_ZN12_GLOBAL__N_112fontchar_r_tD0Ev>:
 8002cb8:	4b03      	ldr	r3, [pc, #12]	; (8002cc8 <_ZN12_GLOBAL__N_112fontchar_r_tD0Ev+0x10>)
 8002cba:	b510      	push	{r4, lr}
 8002cbc:	4604      	mov	r4, r0
 8002cbe:	6003      	str	r3, [r0, #0]
 8002cc0:	f002 fb32 	bl	8005328 <_ZdlPv>
 8002cc4:	4620      	mov	r0, r4
 8002cc6:	bd10      	pop	{r4, pc}
 8002cc8:	0800d5d0 	.word	0x0800d5d0

08002ccc <_ZN12_GLOBAL__N_112fontchar_q_tD0Ev>:
 8002ccc:	4b03      	ldr	r3, [pc, #12]	; (8002cdc <_ZN12_GLOBAL__N_112fontchar_q_tD0Ev+0x10>)
 8002cce:	b510      	push	{r4, lr}
 8002cd0:	4604      	mov	r4, r0
 8002cd2:	6003      	str	r3, [r0, #0]
 8002cd4:	f002 fb28 	bl	8005328 <_ZdlPv>
 8002cd8:	4620      	mov	r0, r4
 8002cda:	bd10      	pop	{r4, pc}
 8002cdc:	0800d5d0 	.word	0x0800d5d0

08002ce0 <_ZN12_GLOBAL__N_112fontchar_p_tD0Ev>:
 8002ce0:	4b03      	ldr	r3, [pc, #12]	; (8002cf0 <_ZN12_GLOBAL__N_112fontchar_p_tD0Ev+0x10>)
 8002ce2:	b510      	push	{r4, lr}
 8002ce4:	4604      	mov	r4, r0
 8002ce6:	6003      	str	r3, [r0, #0]
 8002ce8:	f002 fb1e 	bl	8005328 <_ZdlPv>
 8002cec:	4620      	mov	r0, r4
 8002cee:	bd10      	pop	{r4, pc}
 8002cf0:	0800d5d0 	.word	0x0800d5d0

08002cf4 <_ZN12_GLOBAL__N_112fontchar_o_tD0Ev>:
 8002cf4:	4b03      	ldr	r3, [pc, #12]	; (8002d04 <_ZN12_GLOBAL__N_112fontchar_o_tD0Ev+0x10>)
 8002cf6:	b510      	push	{r4, lr}
 8002cf8:	4604      	mov	r4, r0
 8002cfa:	6003      	str	r3, [r0, #0]
 8002cfc:	f002 fb14 	bl	8005328 <_ZdlPv>
 8002d00:	4620      	mov	r0, r4
 8002d02:	bd10      	pop	{r4, pc}
 8002d04:	0800d5d0 	.word	0x0800d5d0

08002d08 <_ZN12_GLOBAL__N_112fontchar_n_tD0Ev>:
 8002d08:	4b03      	ldr	r3, [pc, #12]	; (8002d18 <_ZN12_GLOBAL__N_112fontchar_n_tD0Ev+0x10>)
 8002d0a:	b510      	push	{r4, lr}
 8002d0c:	4604      	mov	r4, r0
 8002d0e:	6003      	str	r3, [r0, #0]
 8002d10:	f002 fb0a 	bl	8005328 <_ZdlPv>
 8002d14:	4620      	mov	r0, r4
 8002d16:	bd10      	pop	{r4, pc}
 8002d18:	0800d5d0 	.word	0x0800d5d0

08002d1c <_ZN12_GLOBAL__N_112fontchar_m_tD0Ev>:
 8002d1c:	4b03      	ldr	r3, [pc, #12]	; (8002d2c <_ZN12_GLOBAL__N_112fontchar_m_tD0Ev+0x10>)
 8002d1e:	b510      	push	{r4, lr}
 8002d20:	4604      	mov	r4, r0
 8002d22:	6003      	str	r3, [r0, #0]
 8002d24:	f002 fb00 	bl	8005328 <_ZdlPv>
 8002d28:	4620      	mov	r0, r4
 8002d2a:	bd10      	pop	{r4, pc}
 8002d2c:	0800d5d0 	.word	0x0800d5d0

08002d30 <_ZN12_GLOBAL__N_112fontchar_l_tD0Ev>:
 8002d30:	4b03      	ldr	r3, [pc, #12]	; (8002d40 <_ZN12_GLOBAL__N_112fontchar_l_tD0Ev+0x10>)
 8002d32:	b510      	push	{r4, lr}
 8002d34:	4604      	mov	r4, r0
 8002d36:	6003      	str	r3, [r0, #0]
 8002d38:	f002 faf6 	bl	8005328 <_ZdlPv>
 8002d3c:	4620      	mov	r0, r4
 8002d3e:	bd10      	pop	{r4, pc}
 8002d40:	0800d5d0 	.word	0x0800d5d0

08002d44 <_ZN12_GLOBAL__N_112fontchar_k_tD0Ev>:
 8002d44:	4b03      	ldr	r3, [pc, #12]	; (8002d54 <_ZN12_GLOBAL__N_112fontchar_k_tD0Ev+0x10>)
 8002d46:	b510      	push	{r4, lr}
 8002d48:	4604      	mov	r4, r0
 8002d4a:	6003      	str	r3, [r0, #0]
 8002d4c:	f002 faec 	bl	8005328 <_ZdlPv>
 8002d50:	4620      	mov	r0, r4
 8002d52:	bd10      	pop	{r4, pc}
 8002d54:	0800d5d0 	.word	0x0800d5d0

08002d58 <_ZN12_GLOBAL__N_112fontchar_j_tD0Ev>:
 8002d58:	4b03      	ldr	r3, [pc, #12]	; (8002d68 <_ZN12_GLOBAL__N_112fontchar_j_tD0Ev+0x10>)
 8002d5a:	b510      	push	{r4, lr}
 8002d5c:	4604      	mov	r4, r0
 8002d5e:	6003      	str	r3, [r0, #0]
 8002d60:	f002 fae2 	bl	8005328 <_ZdlPv>
 8002d64:	4620      	mov	r0, r4
 8002d66:	bd10      	pop	{r4, pc}
 8002d68:	0800d5d0 	.word	0x0800d5d0

08002d6c <_ZN12_GLOBAL__N_112fontchar_i_tD0Ev>:
 8002d6c:	4b03      	ldr	r3, [pc, #12]	; (8002d7c <_ZN12_GLOBAL__N_112fontchar_i_tD0Ev+0x10>)
 8002d6e:	b510      	push	{r4, lr}
 8002d70:	4604      	mov	r4, r0
 8002d72:	6003      	str	r3, [r0, #0]
 8002d74:	f002 fad8 	bl	8005328 <_ZdlPv>
 8002d78:	4620      	mov	r0, r4
 8002d7a:	bd10      	pop	{r4, pc}
 8002d7c:	0800d5d0 	.word	0x0800d5d0

08002d80 <_ZN12_GLOBAL__N_112fontchar_h_tD0Ev>:
 8002d80:	4b03      	ldr	r3, [pc, #12]	; (8002d90 <_ZN12_GLOBAL__N_112fontchar_h_tD0Ev+0x10>)
 8002d82:	b510      	push	{r4, lr}
 8002d84:	4604      	mov	r4, r0
 8002d86:	6003      	str	r3, [r0, #0]
 8002d88:	f002 face 	bl	8005328 <_ZdlPv>
 8002d8c:	4620      	mov	r0, r4
 8002d8e:	bd10      	pop	{r4, pc}
 8002d90:	0800d5d0 	.word	0x0800d5d0

08002d94 <_ZN12_GLOBAL__N_112fontchar_g_tD0Ev>:
 8002d94:	4b03      	ldr	r3, [pc, #12]	; (8002da4 <_ZN12_GLOBAL__N_112fontchar_g_tD0Ev+0x10>)
 8002d96:	b510      	push	{r4, lr}
 8002d98:	4604      	mov	r4, r0
 8002d9a:	6003      	str	r3, [r0, #0]
 8002d9c:	f002 fac4 	bl	8005328 <_ZdlPv>
 8002da0:	4620      	mov	r0, r4
 8002da2:	bd10      	pop	{r4, pc}
 8002da4:	0800d5d0 	.word	0x0800d5d0

08002da8 <_ZN12_GLOBAL__N_112fontchar_f_tD0Ev>:
 8002da8:	4b03      	ldr	r3, [pc, #12]	; (8002db8 <_ZN12_GLOBAL__N_112fontchar_f_tD0Ev+0x10>)
 8002daa:	b510      	push	{r4, lr}
 8002dac:	4604      	mov	r4, r0
 8002dae:	6003      	str	r3, [r0, #0]
 8002db0:	f002 faba 	bl	8005328 <_ZdlPv>
 8002db4:	4620      	mov	r0, r4
 8002db6:	bd10      	pop	{r4, pc}
 8002db8:	0800d5d0 	.word	0x0800d5d0

08002dbc <_ZN12_GLOBAL__N_112fontchar_e_tD0Ev>:
 8002dbc:	4b03      	ldr	r3, [pc, #12]	; (8002dcc <_ZN12_GLOBAL__N_112fontchar_e_tD0Ev+0x10>)
 8002dbe:	b510      	push	{r4, lr}
 8002dc0:	4604      	mov	r4, r0
 8002dc2:	6003      	str	r3, [r0, #0]
 8002dc4:	f002 fab0 	bl	8005328 <_ZdlPv>
 8002dc8:	4620      	mov	r0, r4
 8002dca:	bd10      	pop	{r4, pc}
 8002dcc:	0800d5d0 	.word	0x0800d5d0

08002dd0 <_ZN12_GLOBAL__N_112fontchar_d_tD0Ev>:
 8002dd0:	4b03      	ldr	r3, [pc, #12]	; (8002de0 <_ZN12_GLOBAL__N_112fontchar_d_tD0Ev+0x10>)
 8002dd2:	b510      	push	{r4, lr}
 8002dd4:	4604      	mov	r4, r0
 8002dd6:	6003      	str	r3, [r0, #0]
 8002dd8:	f002 faa6 	bl	8005328 <_ZdlPv>
 8002ddc:	4620      	mov	r0, r4
 8002dde:	bd10      	pop	{r4, pc}
 8002de0:	0800d5d0 	.word	0x0800d5d0

08002de4 <_ZN12_GLOBAL__N_112fontchar_c_tD0Ev>:
 8002de4:	4b03      	ldr	r3, [pc, #12]	; (8002df4 <_ZN12_GLOBAL__N_112fontchar_c_tD0Ev+0x10>)
 8002de6:	b510      	push	{r4, lr}
 8002de8:	4604      	mov	r4, r0
 8002dea:	6003      	str	r3, [r0, #0]
 8002dec:	f002 fa9c 	bl	8005328 <_ZdlPv>
 8002df0:	4620      	mov	r0, r4
 8002df2:	bd10      	pop	{r4, pc}
 8002df4:	0800d5d0 	.word	0x0800d5d0

08002df8 <_ZN12_GLOBAL__N_112fontchar_b_tD0Ev>:
 8002df8:	4b03      	ldr	r3, [pc, #12]	; (8002e08 <_ZN12_GLOBAL__N_112fontchar_b_tD0Ev+0x10>)
 8002dfa:	b510      	push	{r4, lr}
 8002dfc:	4604      	mov	r4, r0
 8002dfe:	6003      	str	r3, [r0, #0]
 8002e00:	f002 fa92 	bl	8005328 <_ZdlPv>
 8002e04:	4620      	mov	r0, r4
 8002e06:	bd10      	pop	{r4, pc}
 8002e08:	0800d5d0 	.word	0x0800d5d0

08002e0c <_ZN12_GLOBAL__N_112fontchar_a_tD0Ev>:
 8002e0c:	4b03      	ldr	r3, [pc, #12]	; (8002e1c <_ZN12_GLOBAL__N_112fontchar_a_tD0Ev+0x10>)
 8002e0e:	b510      	push	{r4, lr}
 8002e10:	4604      	mov	r4, r0
 8002e12:	6003      	str	r3, [r0, #0]
 8002e14:	f002 fa88 	bl	8005328 <_ZdlPv>
 8002e18:	4620      	mov	r0, r4
 8002e1a:	bd10      	pop	{r4, pc}
 8002e1c:	0800d5d0 	.word	0x0800d5d0

08002e20 <_ZN12_GLOBAL__N_112fontchar_Z_tD0Ev>:
 8002e20:	4b03      	ldr	r3, [pc, #12]	; (8002e30 <_ZN12_GLOBAL__N_112fontchar_Z_tD0Ev+0x10>)
 8002e22:	b510      	push	{r4, lr}
 8002e24:	4604      	mov	r4, r0
 8002e26:	6003      	str	r3, [r0, #0]
 8002e28:	f002 fa7e 	bl	8005328 <_ZdlPv>
 8002e2c:	4620      	mov	r0, r4
 8002e2e:	bd10      	pop	{r4, pc}
 8002e30:	0800d5d0 	.word	0x0800d5d0

08002e34 <_ZN12_GLOBAL__N_112fontchar_Y_tD0Ev>:
 8002e34:	4b03      	ldr	r3, [pc, #12]	; (8002e44 <_ZN12_GLOBAL__N_112fontchar_Y_tD0Ev+0x10>)
 8002e36:	b510      	push	{r4, lr}
 8002e38:	4604      	mov	r4, r0
 8002e3a:	6003      	str	r3, [r0, #0]
 8002e3c:	f002 fa74 	bl	8005328 <_ZdlPv>
 8002e40:	4620      	mov	r0, r4
 8002e42:	bd10      	pop	{r4, pc}
 8002e44:	0800d5d0 	.word	0x0800d5d0

08002e48 <_ZN12_GLOBAL__N_112fontchar_X_tD0Ev>:
 8002e48:	4b03      	ldr	r3, [pc, #12]	; (8002e58 <_ZN12_GLOBAL__N_112fontchar_X_tD0Ev+0x10>)
 8002e4a:	b510      	push	{r4, lr}
 8002e4c:	4604      	mov	r4, r0
 8002e4e:	6003      	str	r3, [r0, #0]
 8002e50:	f002 fa6a 	bl	8005328 <_ZdlPv>
 8002e54:	4620      	mov	r0, r4
 8002e56:	bd10      	pop	{r4, pc}
 8002e58:	0800d5d0 	.word	0x0800d5d0

08002e5c <_ZN12_GLOBAL__N_112fontchar_W_tD0Ev>:
 8002e5c:	4b03      	ldr	r3, [pc, #12]	; (8002e6c <_ZN12_GLOBAL__N_112fontchar_W_tD0Ev+0x10>)
 8002e5e:	b510      	push	{r4, lr}
 8002e60:	4604      	mov	r4, r0
 8002e62:	6003      	str	r3, [r0, #0]
 8002e64:	f002 fa60 	bl	8005328 <_ZdlPv>
 8002e68:	4620      	mov	r0, r4
 8002e6a:	bd10      	pop	{r4, pc}
 8002e6c:	0800d5d0 	.word	0x0800d5d0

08002e70 <_ZN12_GLOBAL__N_112fontchar_V_tD0Ev>:
 8002e70:	4b03      	ldr	r3, [pc, #12]	; (8002e80 <_ZN12_GLOBAL__N_112fontchar_V_tD0Ev+0x10>)
 8002e72:	b510      	push	{r4, lr}
 8002e74:	4604      	mov	r4, r0
 8002e76:	6003      	str	r3, [r0, #0]
 8002e78:	f002 fa56 	bl	8005328 <_ZdlPv>
 8002e7c:	4620      	mov	r0, r4
 8002e7e:	bd10      	pop	{r4, pc}
 8002e80:	0800d5d0 	.word	0x0800d5d0

08002e84 <_ZN12_GLOBAL__N_112fontchar_U_tD0Ev>:
 8002e84:	4b03      	ldr	r3, [pc, #12]	; (8002e94 <_ZN12_GLOBAL__N_112fontchar_U_tD0Ev+0x10>)
 8002e86:	b510      	push	{r4, lr}
 8002e88:	4604      	mov	r4, r0
 8002e8a:	6003      	str	r3, [r0, #0]
 8002e8c:	f002 fa4c 	bl	8005328 <_ZdlPv>
 8002e90:	4620      	mov	r0, r4
 8002e92:	bd10      	pop	{r4, pc}
 8002e94:	0800d5d0 	.word	0x0800d5d0

08002e98 <_ZN12_GLOBAL__N_112fontchar_T_tD0Ev>:
 8002e98:	4b03      	ldr	r3, [pc, #12]	; (8002ea8 <_ZN12_GLOBAL__N_112fontchar_T_tD0Ev+0x10>)
 8002e9a:	b510      	push	{r4, lr}
 8002e9c:	4604      	mov	r4, r0
 8002e9e:	6003      	str	r3, [r0, #0]
 8002ea0:	f002 fa42 	bl	8005328 <_ZdlPv>
 8002ea4:	4620      	mov	r0, r4
 8002ea6:	bd10      	pop	{r4, pc}
 8002ea8:	0800d5d0 	.word	0x0800d5d0

08002eac <_ZN12_GLOBAL__N_112fontchar_S_tD0Ev>:
 8002eac:	4b03      	ldr	r3, [pc, #12]	; (8002ebc <_ZN12_GLOBAL__N_112fontchar_S_tD0Ev+0x10>)
 8002eae:	b510      	push	{r4, lr}
 8002eb0:	4604      	mov	r4, r0
 8002eb2:	6003      	str	r3, [r0, #0]
 8002eb4:	f002 fa38 	bl	8005328 <_ZdlPv>
 8002eb8:	4620      	mov	r0, r4
 8002eba:	bd10      	pop	{r4, pc}
 8002ebc:	0800d5d0 	.word	0x0800d5d0

08002ec0 <_ZN12_GLOBAL__N_112fontchar_R_tD0Ev>:
 8002ec0:	4b03      	ldr	r3, [pc, #12]	; (8002ed0 <_ZN12_GLOBAL__N_112fontchar_R_tD0Ev+0x10>)
 8002ec2:	b510      	push	{r4, lr}
 8002ec4:	4604      	mov	r4, r0
 8002ec6:	6003      	str	r3, [r0, #0]
 8002ec8:	f002 fa2e 	bl	8005328 <_ZdlPv>
 8002ecc:	4620      	mov	r0, r4
 8002ece:	bd10      	pop	{r4, pc}
 8002ed0:	0800d5d0 	.word	0x0800d5d0

08002ed4 <_ZN12_GLOBAL__N_112fontchar_Q_tD0Ev>:
 8002ed4:	4b03      	ldr	r3, [pc, #12]	; (8002ee4 <_ZN12_GLOBAL__N_112fontchar_Q_tD0Ev+0x10>)
 8002ed6:	b510      	push	{r4, lr}
 8002ed8:	4604      	mov	r4, r0
 8002eda:	6003      	str	r3, [r0, #0]
 8002edc:	f002 fa24 	bl	8005328 <_ZdlPv>
 8002ee0:	4620      	mov	r0, r4
 8002ee2:	bd10      	pop	{r4, pc}
 8002ee4:	0800d5d0 	.word	0x0800d5d0

08002ee8 <_ZN12_GLOBAL__N_112fontchar_P_tD0Ev>:
 8002ee8:	4b03      	ldr	r3, [pc, #12]	; (8002ef8 <_ZN12_GLOBAL__N_112fontchar_P_tD0Ev+0x10>)
 8002eea:	b510      	push	{r4, lr}
 8002eec:	4604      	mov	r4, r0
 8002eee:	6003      	str	r3, [r0, #0]
 8002ef0:	f002 fa1a 	bl	8005328 <_ZdlPv>
 8002ef4:	4620      	mov	r0, r4
 8002ef6:	bd10      	pop	{r4, pc}
 8002ef8:	0800d5d0 	.word	0x0800d5d0

08002efc <_ZN12_GLOBAL__N_112fontchar_O_tD0Ev>:
 8002efc:	4b03      	ldr	r3, [pc, #12]	; (8002f0c <_ZN12_GLOBAL__N_112fontchar_O_tD0Ev+0x10>)
 8002efe:	b510      	push	{r4, lr}
 8002f00:	4604      	mov	r4, r0
 8002f02:	6003      	str	r3, [r0, #0]
 8002f04:	f002 fa10 	bl	8005328 <_ZdlPv>
 8002f08:	4620      	mov	r0, r4
 8002f0a:	bd10      	pop	{r4, pc}
 8002f0c:	0800d5d0 	.word	0x0800d5d0

08002f10 <_ZN12_GLOBAL__N_112fontchar_N_tD0Ev>:
 8002f10:	4b03      	ldr	r3, [pc, #12]	; (8002f20 <_ZN12_GLOBAL__N_112fontchar_N_tD0Ev+0x10>)
 8002f12:	b510      	push	{r4, lr}
 8002f14:	4604      	mov	r4, r0
 8002f16:	6003      	str	r3, [r0, #0]
 8002f18:	f002 fa06 	bl	8005328 <_ZdlPv>
 8002f1c:	4620      	mov	r0, r4
 8002f1e:	bd10      	pop	{r4, pc}
 8002f20:	0800d5d0 	.word	0x0800d5d0

08002f24 <_ZN12_GLOBAL__N_112fontchar_M_tD0Ev>:
 8002f24:	4b03      	ldr	r3, [pc, #12]	; (8002f34 <_ZN12_GLOBAL__N_112fontchar_M_tD0Ev+0x10>)
 8002f26:	b510      	push	{r4, lr}
 8002f28:	4604      	mov	r4, r0
 8002f2a:	6003      	str	r3, [r0, #0]
 8002f2c:	f002 f9fc 	bl	8005328 <_ZdlPv>
 8002f30:	4620      	mov	r0, r4
 8002f32:	bd10      	pop	{r4, pc}
 8002f34:	0800d5d0 	.word	0x0800d5d0

08002f38 <_ZN12_GLOBAL__N_112fontchar_L_tD0Ev>:
 8002f38:	4b03      	ldr	r3, [pc, #12]	; (8002f48 <_ZN12_GLOBAL__N_112fontchar_L_tD0Ev+0x10>)
 8002f3a:	b510      	push	{r4, lr}
 8002f3c:	4604      	mov	r4, r0
 8002f3e:	6003      	str	r3, [r0, #0]
 8002f40:	f002 f9f2 	bl	8005328 <_ZdlPv>
 8002f44:	4620      	mov	r0, r4
 8002f46:	bd10      	pop	{r4, pc}
 8002f48:	0800d5d0 	.word	0x0800d5d0

08002f4c <_ZN12_GLOBAL__N_112fontchar_K_tD0Ev>:
 8002f4c:	4b03      	ldr	r3, [pc, #12]	; (8002f5c <_ZN12_GLOBAL__N_112fontchar_K_tD0Ev+0x10>)
 8002f4e:	b510      	push	{r4, lr}
 8002f50:	4604      	mov	r4, r0
 8002f52:	6003      	str	r3, [r0, #0]
 8002f54:	f002 f9e8 	bl	8005328 <_ZdlPv>
 8002f58:	4620      	mov	r0, r4
 8002f5a:	bd10      	pop	{r4, pc}
 8002f5c:	0800d5d0 	.word	0x0800d5d0

08002f60 <_ZN12_GLOBAL__N_112fontchar_J_tD0Ev>:
 8002f60:	4b03      	ldr	r3, [pc, #12]	; (8002f70 <_ZN12_GLOBAL__N_112fontchar_J_tD0Ev+0x10>)
 8002f62:	b510      	push	{r4, lr}
 8002f64:	4604      	mov	r4, r0
 8002f66:	6003      	str	r3, [r0, #0]
 8002f68:	f002 f9de 	bl	8005328 <_ZdlPv>
 8002f6c:	4620      	mov	r0, r4
 8002f6e:	bd10      	pop	{r4, pc}
 8002f70:	0800d5d0 	.word	0x0800d5d0

08002f74 <_ZN12_GLOBAL__N_112fontchar_I_tD0Ev>:
 8002f74:	4b03      	ldr	r3, [pc, #12]	; (8002f84 <_ZN12_GLOBAL__N_112fontchar_I_tD0Ev+0x10>)
 8002f76:	b510      	push	{r4, lr}
 8002f78:	4604      	mov	r4, r0
 8002f7a:	6003      	str	r3, [r0, #0]
 8002f7c:	f002 f9d4 	bl	8005328 <_ZdlPv>
 8002f80:	4620      	mov	r0, r4
 8002f82:	bd10      	pop	{r4, pc}
 8002f84:	0800d5d0 	.word	0x0800d5d0

08002f88 <_ZN12_GLOBAL__N_112fontchar_H_tD0Ev>:
 8002f88:	4b03      	ldr	r3, [pc, #12]	; (8002f98 <_ZN12_GLOBAL__N_112fontchar_H_tD0Ev+0x10>)
 8002f8a:	b510      	push	{r4, lr}
 8002f8c:	4604      	mov	r4, r0
 8002f8e:	6003      	str	r3, [r0, #0]
 8002f90:	f002 f9ca 	bl	8005328 <_ZdlPv>
 8002f94:	4620      	mov	r0, r4
 8002f96:	bd10      	pop	{r4, pc}
 8002f98:	0800d5d0 	.word	0x0800d5d0

08002f9c <_ZN12_GLOBAL__N_112fontchar_G_tD0Ev>:
 8002f9c:	4b03      	ldr	r3, [pc, #12]	; (8002fac <_ZN12_GLOBAL__N_112fontchar_G_tD0Ev+0x10>)
 8002f9e:	b510      	push	{r4, lr}
 8002fa0:	4604      	mov	r4, r0
 8002fa2:	6003      	str	r3, [r0, #0]
 8002fa4:	f002 f9c0 	bl	8005328 <_ZdlPv>
 8002fa8:	4620      	mov	r0, r4
 8002faa:	bd10      	pop	{r4, pc}
 8002fac:	0800d5d0 	.word	0x0800d5d0

08002fb0 <_ZN12_GLOBAL__N_112fontchar_F_tD0Ev>:
 8002fb0:	4b03      	ldr	r3, [pc, #12]	; (8002fc0 <_ZN12_GLOBAL__N_112fontchar_F_tD0Ev+0x10>)
 8002fb2:	b510      	push	{r4, lr}
 8002fb4:	4604      	mov	r4, r0
 8002fb6:	6003      	str	r3, [r0, #0]
 8002fb8:	f002 f9b6 	bl	8005328 <_ZdlPv>
 8002fbc:	4620      	mov	r0, r4
 8002fbe:	bd10      	pop	{r4, pc}
 8002fc0:	0800d5d0 	.word	0x0800d5d0

08002fc4 <_ZN12_GLOBAL__N_112fontchar_E_tD0Ev>:
 8002fc4:	4b03      	ldr	r3, [pc, #12]	; (8002fd4 <_ZN12_GLOBAL__N_112fontchar_E_tD0Ev+0x10>)
 8002fc6:	b510      	push	{r4, lr}
 8002fc8:	4604      	mov	r4, r0
 8002fca:	6003      	str	r3, [r0, #0]
 8002fcc:	f002 f9ac 	bl	8005328 <_ZdlPv>
 8002fd0:	4620      	mov	r0, r4
 8002fd2:	bd10      	pop	{r4, pc}
 8002fd4:	0800d5d0 	.word	0x0800d5d0

08002fd8 <_ZN12_GLOBAL__N_112fontchar_D_tD0Ev>:
 8002fd8:	4b03      	ldr	r3, [pc, #12]	; (8002fe8 <_ZN12_GLOBAL__N_112fontchar_D_tD0Ev+0x10>)
 8002fda:	b510      	push	{r4, lr}
 8002fdc:	4604      	mov	r4, r0
 8002fde:	6003      	str	r3, [r0, #0]
 8002fe0:	f002 f9a2 	bl	8005328 <_ZdlPv>
 8002fe4:	4620      	mov	r0, r4
 8002fe6:	bd10      	pop	{r4, pc}
 8002fe8:	0800d5d0 	.word	0x0800d5d0

08002fec <_ZN12_GLOBAL__N_112fontchar_C_tD0Ev>:
 8002fec:	4b03      	ldr	r3, [pc, #12]	; (8002ffc <_ZN12_GLOBAL__N_112fontchar_C_tD0Ev+0x10>)
 8002fee:	b510      	push	{r4, lr}
 8002ff0:	4604      	mov	r4, r0
 8002ff2:	6003      	str	r3, [r0, #0]
 8002ff4:	f002 f998 	bl	8005328 <_ZdlPv>
 8002ff8:	4620      	mov	r0, r4
 8002ffa:	bd10      	pop	{r4, pc}
 8002ffc:	0800d5d0 	.word	0x0800d5d0

08003000 <_ZN12_GLOBAL__N_112fontchar_B_tD0Ev>:
 8003000:	4b03      	ldr	r3, [pc, #12]	; (8003010 <_ZN12_GLOBAL__N_112fontchar_B_tD0Ev+0x10>)
 8003002:	b510      	push	{r4, lr}
 8003004:	4604      	mov	r4, r0
 8003006:	6003      	str	r3, [r0, #0]
 8003008:	f002 f98e 	bl	8005328 <_ZdlPv>
 800300c:	4620      	mov	r0, r4
 800300e:	bd10      	pop	{r4, pc}
 8003010:	0800d5d0 	.word	0x0800d5d0

08003014 <_ZN12_GLOBAL__N_112fontchar_A_tD0Ev>:
 8003014:	4b03      	ldr	r3, [pc, #12]	; (8003024 <_ZN12_GLOBAL__N_112fontchar_A_tD0Ev+0x10>)
 8003016:	b510      	push	{r4, lr}
 8003018:	4604      	mov	r4, r0
 800301a:	6003      	str	r3, [r0, #0]
 800301c:	f002 f984 	bl	8005328 <_ZdlPv>
 8003020:	4620      	mov	r0, r4
 8003022:	bd10      	pop	{r4, pc}
 8003024:	0800d5d0 	.word	0x0800d5d0

08003028 <_ZN10abc_bitmapIhED0Ev>:
 8003028:	4b03      	ldr	r3, [pc, #12]	; (8003038 <_ZN10abc_bitmapIhED0Ev+0x10>)
 800302a:	b510      	push	{r4, lr}
 800302c:	4604      	mov	r4, r0
 800302e:	6003      	str	r3, [r0, #0]
 8003030:	f002 f97a 	bl	8005328 <_ZdlPv>
 8003034:	4620      	mov	r0, r4
 8003036:	bd10      	pop	{r4, pc}
 8003038:	0800d5d0 	.word	0x0800d5d0

0800303c <_Z13get_font_charc>:
 800303c:	3820      	subs	r0, #32
 800303e:	285d      	cmp	r0, #93	; 0x5d
 8003040:	d803      	bhi.n	800304a <_Z13get_font_charc+0xe>
 8003042:	4b03      	ldr	r3, [pc, #12]	; (8003050 <_Z13get_font_charc+0x14>)
 8003044:	f853 0020 	ldr.w	r0, [r3, r0, lsl #2]
 8003048:	4770      	bx	lr
 800304a:	2000      	movs	r0, #0
 800304c:	4770      	bx	lr
 800304e:	bf00      	nop
 8003050:	0800dcd8 	.word	0x0800dcd8

08003054 <_GLOBAL__sub_I__Z13get_font_charc>:
 8003054:	b510      	push	{r4, lr}
 8003056:	f640 349c 	movw	r4, #2972	; 0xb9c
 800305a:	f2c1 0400 	movt	r4, #4096	; 0x1000
 800305e:	f642 01a1 	movw	r1, #10401	; 0x28a1
 8003062:	f240 1070 	movw	r0, #368	; 0x170
 8003066:	4622      	mov	r2, r4
 8003068:	f6c0 0100 	movt	r1, #2048	; 0x800
 800306c:	f2c1 0000 	movt	r0, #4096	; 0x1000
 8003070:	f004 f9c6 	bl	8007400 <__aeabi_atexit>
 8003074:	f642 0195 	movw	r1, #10389	; 0x2895
 8003078:	f240 0028 	movw	r0, #40	; 0x28
 800307c:	4622      	mov	r2, r4
 800307e:	f6c0 0100 	movt	r1, #2048	; 0x800
 8003082:	f2c1 0000 	movt	r0, #4096	; 0x1000
 8003086:	f004 f9bb 	bl	8007400 <__aeabi_atexit>
 800308a:	f642 0189 	movw	r1, #10377	; 0x2889
 800308e:	f240 005c 	movw	r0, #92	; 0x5c
 8003092:	4622      	mov	r2, r4
 8003094:	f6c0 0100 	movt	r1, #2048	; 0x800
 8003098:	f2c1 0000 	movt	r0, #4096	; 0x1000
 800309c:	f004 f9b0 	bl	8007400 <__aeabi_atexit>
 80030a0:	f642 017d 	movw	r1, #10365	; 0x287d
 80030a4:	f240 0094 	movw	r0, #148	; 0x94
 80030a8:	4622      	mov	r2, r4
 80030aa:	f6c0 0100 	movt	r1, #2048	; 0x800
 80030ae:	f2c1 0000 	movt	r0, #4096	; 0x1000
 80030b2:	f004 f9a5 	bl	8007400 <__aeabi_atexit>
 80030b6:	f642 0171 	movw	r1, #10353	; 0x2871
 80030ba:	f240 00e8 	movw	r0, #232	; 0xe8
 80030be:	4622      	mov	r2, r4
 80030c0:	f6c0 0100 	movt	r1, #2048	; 0x800
 80030c4:	f2c1 0000 	movt	r0, #4096	; 0x1000
 80030c8:	f004 f99a 	bl	8007400 <__aeabi_atexit>
 80030cc:	f642 0165 	movw	r1, #10341	; 0x2865
 80030d0:	f240 00ec 	movw	r0, #236	; 0xec
 80030d4:	4622      	mov	r2, r4
 80030d6:	f6c0 0100 	movt	r1, #2048	; 0x800
 80030da:	f2c1 0000 	movt	r0, #4096	; 0x1000
 80030de:	f004 f98f 	bl	8007400 <__aeabi_atexit>
 80030e2:	f642 0159 	movw	r1, #10329	; 0x2859
 80030e6:	f240 101c 	movw	r0, #284	; 0x11c
 80030ea:	4622      	mov	r2, r4
 80030ec:	f6c0 0100 	movt	r1, #2048	; 0x800
 80030f0:	f2c1 0000 	movt	r0, #4096	; 0x1000
 80030f4:	f004 f984 	bl	8007400 <__aeabi_atexit>
 80030f8:	f642 014d 	movw	r1, #10317	; 0x284d
 80030fc:	f240 1024 	movw	r0, #292	; 0x124
 8003100:	4622      	mov	r2, r4
 8003102:	f6c0 0100 	movt	r1, #2048	; 0x800
 8003106:	f2c1 0000 	movt	r0, #4096	; 0x1000
 800310a:	f004 f979 	bl	8007400 <__aeabi_atexit>
 800310e:	f642 0141 	movw	r1, #10305	; 0x2841
 8003112:	f240 108c 	movw	r0, #396	; 0x18c
 8003116:	4622      	mov	r2, r4
 8003118:	f6c0 0100 	movt	r1, #2048	; 0x800
 800311c:	f2c1 0000 	movt	r0, #4096	; 0x1000
 8003120:	f004 f96e 	bl	8007400 <__aeabi_atexit>
 8003124:	f642 0135 	movw	r1, #10293	; 0x2835
 8003128:	f240 003c 	movw	r0, #60	; 0x3c
 800312c:	4622      	mov	r2, r4
 800312e:	f6c0 0100 	movt	r1, #2048	; 0x800
 8003132:	f2c1 0000 	movt	r0, #4096	; 0x1000
 8003136:	f004 f963 	bl	8007400 <__aeabi_atexit>
 800313a:	f642 0129 	movw	r1, #10281	; 0x2829
 800313e:	f240 1060 	movw	r0, #352	; 0x160
 8003142:	4622      	mov	r2, r4
 8003144:	f6c0 0100 	movt	r1, #2048	; 0x800
 8003148:	f2c1 0000 	movt	r0, #4096	; 0x1000
 800314c:	f004 f958 	bl	8007400 <__aeabi_atexit>
 8003150:	f642 011d 	movw	r1, #10269	; 0x281d
 8003154:	f240 009c 	movw	r0, #156	; 0x9c
 8003158:	4622      	mov	r2, r4
 800315a:	f6c0 0100 	movt	r1, #2048	; 0x800
 800315e:	f2c1 0000 	movt	r0, #4096	; 0x1000
 8003162:	f004 f94d 	bl	8007400 <__aeabi_atexit>
 8003166:	f642 0111 	movw	r1, #10257	; 0x2811
 800316a:	f240 00f4 	movw	r0, #244	; 0xf4
 800316e:	4622      	mov	r2, r4
 8003170:	f6c0 0100 	movt	r1, #2048	; 0x800
 8003174:	f2c1 0000 	movt	r0, #4096	; 0x1000
 8003178:	f004 f942 	bl	8007400 <__aeabi_atexit>
 800317c:	f642 0105 	movw	r1, #10245	; 0x2805
 8003180:	f240 1054 	movw	r0, #340	; 0x154
 8003184:	4622      	mov	r2, r4
 8003186:	f6c0 0100 	movt	r1, #2048	; 0x800
 800318a:	f2c1 0000 	movt	r0, #4096	; 0x1000
 800318e:	f004 f937 	bl	8007400 <__aeabi_atexit>
 8003192:	f242 71f9 	movw	r1, #10233	; 0x27f9
 8003196:	f240 1030 	movw	r0, #304	; 0x130
 800319a:	4622      	mov	r2, r4
 800319c:	f6c0 0100 	movt	r1, #2048	; 0x800
 80031a0:	f2c1 0000 	movt	r0, #4096	; 0x1000
 80031a4:	f004 f92c 	bl	8007400 <__aeabi_atexit>
 80031a8:	f242 71ed 	movw	r1, #10221	; 0x27ed
 80031ac:	f240 105c 	movw	r0, #348	; 0x15c
 80031b0:	4622      	mov	r2, r4
 80031b2:	f6c0 0100 	movt	r1, #2048	; 0x800
 80031b6:	f2c1 0000 	movt	r0, #4096	; 0x1000
 80031ba:	f004 f921 	bl	8007400 <__aeabi_atexit>
 80031be:	f242 71e1 	movw	r1, #10209	; 0x27e1
 80031c2:	f240 1064 	movw	r0, #356	; 0x164
 80031c6:	4622      	mov	r2, r4
 80031c8:	f6c0 0100 	movt	r1, #2048	; 0x800
 80031cc:	f2c1 0000 	movt	r0, #4096	; 0x1000
 80031d0:	f004 f916 	bl	8007400 <__aeabi_atexit>
 80031d4:	f242 71d5 	movw	r1, #10197	; 0x27d5
 80031d8:	f240 106c 	movw	r0, #364	; 0x16c
 80031dc:	4622      	mov	r2, r4
 80031de:	f6c0 0100 	movt	r1, #2048	; 0x800
 80031e2:	f2c1 0000 	movt	r0, #4096	; 0x1000
 80031e6:	f004 f90b 	bl	8007400 <__aeabi_atexit>
 80031ea:	f242 71c9 	movw	r1, #10185	; 0x27c9
 80031ee:	f240 0058 	movw	r0, #88	; 0x58
 80031f2:	4622      	mov	r2, r4
 80031f4:	f6c0 0100 	movt	r1, #2048	; 0x800
 80031f8:	f2c1 0000 	movt	r0, #4096	; 0x1000
 80031fc:	f004 f900 	bl	8007400 <__aeabi_atexit>
 8003200:	f242 71bd 	movw	r1, #10173	; 0x27bd
 8003204:	f240 00b8 	movw	r0, #184	; 0xb8
 8003208:	4622      	mov	r2, r4
 800320a:	f6c0 0100 	movt	r1, #2048	; 0x800
 800320e:	f2c1 0000 	movt	r0, #4096	; 0x1000
 8003212:	f004 f8f5 	bl	8007400 <__aeabi_atexit>
 8003216:	f242 71b1 	movw	r1, #10161	; 0x27b1
 800321a:	f240 00e0 	movw	r0, #224	; 0xe0
 800321e:	4622      	mov	r2, r4
 8003220:	f6c0 0100 	movt	r1, #2048	; 0x800
 8003224:	f2c1 0000 	movt	r0, #4096	; 0x1000
 8003228:	f004 f8ea 	bl	8007400 <__aeabi_atexit>
 800322c:	f242 71a5 	movw	r1, #10149	; 0x27a5
 8003230:	f240 1018 	movw	r0, #280	; 0x118
 8003234:	4622      	mov	r2, r4
 8003236:	f6c0 0100 	movt	r1, #2048	; 0x800
 800323a:	f2c1 0000 	movt	r0, #4096	; 0x1000
 800323e:	f004 f8df 	bl	8007400 <__aeabi_atexit>
 8003242:	f242 7199 	movw	r1, #10137	; 0x2799
 8003246:	f240 0070 	movw	r0, #112	; 0x70
 800324a:	4622      	mov	r2, r4
 800324c:	f6c0 0100 	movt	r1, #2048	; 0x800
 8003250:	f2c1 0000 	movt	r0, #4096	; 0x1000
 8003254:	f004 f8d4 	bl	8007400 <__aeabi_atexit>
 8003258:	f242 718d 	movw	r1, #10125	; 0x278d
 800325c:	f240 1080 	movw	r0, #384	; 0x180
 8003260:	4622      	mov	r2, r4
 8003262:	f6c0 0100 	movt	r1, #2048	; 0x800
 8003266:	f2c1 0000 	movt	r0, #4096	; 0x1000
 800326a:	f004 f8c9 	bl	8007400 <__aeabi_atexit>
 800326e:	f242 7181 	movw	r1, #10113	; 0x2781
 8003272:	f240 0038 	movw	r0, #56	; 0x38
 8003276:	4622      	mov	r2, r4
 8003278:	f6c0 0100 	movt	r1, #2048	; 0x800
 800327c:	f2c1 0000 	movt	r0, #4096	; 0x1000
 8003280:	f004 f8be 	bl	8007400 <__aeabi_atexit>
 8003284:	f242 7175 	movw	r1, #10101	; 0x2775
 8003288:	f240 0018 	movw	r0, #24
 800328c:	4622      	mov	r2, r4
 800328e:	f6c0 0100 	movt	r1, #2048	; 0x800
 8003292:	f2c1 0000 	movt	r0, #4096	; 0x1000
 8003296:	f004 f8b3 	bl	8007400 <__aeabi_atexit>
 800329a:	f242 7169 	movw	r1, #10089	; 0x2769
 800329e:	f240 0048 	movw	r0, #72	; 0x48
 80032a2:	4622      	mov	r2, r4
 80032a4:	f6c0 0100 	movt	r1, #2048	; 0x800
 80032a8:	f2c1 0000 	movt	r0, #4096	; 0x1000
 80032ac:	f004 f8a8 	bl	8007400 <__aeabi_atexit>
 80032b0:	f242 715d 	movw	r1, #10077	; 0x275d
 80032b4:	f240 0088 	movw	r0, #136	; 0x88
 80032b8:	4622      	mov	r2, r4
 80032ba:	f6c0 0100 	movt	r1, #2048	; 0x800
 80032be:	f2c1 0000 	movt	r0, #4096	; 0x1000
 80032c2:	f004 f89d 	bl	8007400 <__aeabi_atexit>
 80032c6:	f242 7151 	movw	r1, #10065	; 0x2751
 80032ca:	f240 00a8 	movw	r0, #168	; 0xa8
 80032ce:	4622      	mov	r2, r4
 80032d0:	f6c0 0100 	movt	r1, #2048	; 0x800
 80032d4:	f2c1 0000 	movt	r0, #4096	; 0x1000
 80032d8:	f004 f892 	bl	8007400 <__aeabi_atexit>
 80032dc:	f242 7145 	movw	r1, #10053	; 0x2745
 80032e0:	f240 00d0 	movw	r0, #208	; 0xd0
 80032e4:	4622      	mov	r2, r4
 80032e6:	f6c0 0100 	movt	r1, #2048	; 0x800
 80032ea:	f2c1 0000 	movt	r0, #4096	; 0x1000
 80032ee:	f004 f887 	bl	8007400 <__aeabi_atexit>
 80032f2:	f242 7139 	movw	r1, #10041	; 0x2739
 80032f6:	f240 1008 	movw	r0, #264	; 0x108
 80032fa:	4622      	mov	r2, r4
 80032fc:	f6c0 0100 	movt	r1, #2048	; 0x800
 8003300:	f2c1 0000 	movt	r0, #4096	; 0x1000
 8003304:	f004 f87c 	bl	8007400 <__aeabi_atexit>
 8003308:	f242 712d 	movw	r1, #10029	; 0x272d
 800330c:	f240 1040 	movw	r0, #320	; 0x140
 8003310:	4622      	mov	r2, r4
 8003312:	f6c0 0100 	movt	r1, #2048	; 0x800
 8003316:	f2c1 0000 	movt	r0, #4096	; 0x1000
 800331a:	f004 f871 	bl	8007400 <__aeabi_atexit>
 800331e:	f242 7121 	movw	r1, #10017	; 0x2721
 8003322:	f240 1074 	movw	r0, #372	; 0x174
 8003326:	4622      	mov	r2, r4
 8003328:	f6c0 0100 	movt	r1, #2048	; 0x800
 800332c:	f2c1 0000 	movt	r0, #4096	; 0x1000
 8003330:	f004 f866 	bl	8007400 <__aeabi_atexit>
 8003334:	f242 7115 	movw	r1, #10005	; 0x2715
 8003338:	f240 1028 	movw	r0, #296	; 0x128
 800333c:	4622      	mov	r2, r4
 800333e:	f6c0 0100 	movt	r1, #2048	; 0x800
 8003342:	f2c1 0000 	movt	r0, #4096	; 0x1000
 8003346:	f004 f85b 	bl	8007400 <__aeabi_atexit>
 800334a:	f242 7109 	movw	r1, #9993	; 0x2709
 800334e:	f240 0060 	movw	r0, #96	; 0x60
 8003352:	4622      	mov	r2, r4
 8003354:	f6c0 0100 	movt	r1, #2048	; 0x800
 8003358:	f2c1 0000 	movt	r0, #4096	; 0x1000
 800335c:	f004 f850 	bl	8007400 <__aeabi_atexit>
 8003360:	f242 61fd 	movw	r1, #9981	; 0x26fd
 8003364:	f240 007c 	movw	r0, #124	; 0x7c
 8003368:	4622      	mov	r2, r4
 800336a:	f6c0 0100 	movt	r1, #2048	; 0x800
 800336e:	f2c1 0000 	movt	r0, #4096	; 0x1000
 8003372:	f004 f845 	bl	8007400 <__aeabi_atexit>
 8003376:	f242 61f1 	movw	r1, #9969	; 0x26f1
 800337a:	f240 00c4 	movw	r0, #196	; 0xc4
 800337e:	4622      	mov	r2, r4
 8003380:	f6c0 0100 	movt	r1, #2048	; 0x800
 8003384:	f2c1 0000 	movt	r0, #4096	; 0x1000
 8003388:	f004 f83a 	bl	8007400 <__aeabi_atexit>
 800338c:	f242 61e5 	movw	r1, #9957	; 0x26e5
 8003390:	f240 00f0 	movw	r0, #240	; 0xf0
 8003394:	4622      	mov	r2, r4
 8003396:	f6c0 0100 	movt	r1, #2048	; 0x800
 800339a:	f2c1 0000 	movt	r0, #4096	; 0x1000
 800339e:	f004 f82f 	bl	8007400 <__aeabi_atexit>
 80033a2:	f242 61d9 	movw	r1, #9945	; 0x26d9
 80033a6:	f240 1020 	movw	r0, #288	; 0x120
 80033aa:	4622      	mov	r2, r4
 80033ac:	f6c0 0100 	movt	r1, #2048	; 0x800
 80033b0:	f2c1 0000 	movt	r0, #4096	; 0x1000
 80033b4:	f004 f824 	bl	8007400 <__aeabi_atexit>
 80033b8:	f242 61cd 	movw	r1, #9933	; 0x26cd
 80033bc:	f240 1010 	movw	r0, #272	; 0x110
 80033c0:	4622      	mov	r2, r4
 80033c2:	f6c0 0100 	movt	r1, #2048	; 0x800
 80033c6:	f2c1 0000 	movt	r0, #4096	; 0x1000
 80033ca:	f004 f819 	bl	8007400 <__aeabi_atexit>
 80033ce:	f242 61c1 	movw	r1, #9921	; 0x26c1
 80033d2:	f240 1090 	movw	r0, #400	; 0x190
 80033d6:	4622      	mov	r2, r4
 80033d8:	f6c0 0100 	movt	r1, #2048	; 0x800
 80033dc:	f2c1 0000 	movt	r0, #4096	; 0x1000
 80033e0:	f004 f80e 	bl	8007400 <__aeabi_atexit>
 80033e4:	f242 61b5 	movw	r1, #9909	; 0x26b5
 80033e8:	f240 00dc 	movw	r0, #220	; 0xdc
 80033ec:	4622      	mov	r2, r4
 80033ee:	f6c0 0100 	movt	r1, #2048	; 0x800
 80033f2:	f2c1 0000 	movt	r0, #4096	; 0x1000
 80033f6:	f004 f803 	bl	8007400 <__aeabi_atexit>
 80033fa:	f242 61a9 	movw	r1, #9897	; 0x26a9
 80033fe:	f240 0074 	movw	r0, #116	; 0x74
 8003402:	4622      	mov	r2, r4
 8003404:	f6c0 0100 	movt	r1, #2048	; 0x800
 8003408:	f2c1 0000 	movt	r0, #4096	; 0x1000
 800340c:	f003 fff8 	bl	8007400 <__aeabi_atexit>
 8003410:	f242 619d 	movw	r1, #9885	; 0x269d
 8003414:	f240 00a0 	movw	r0, #160	; 0xa0
 8003418:	4622      	mov	r2, r4
 800341a:	f6c0 0100 	movt	r1, #2048	; 0x800
 800341e:	f2c1 0000 	movt	r0, #4096	; 0x1000
 8003422:	f003 ffed 	bl	8007400 <__aeabi_atexit>
 8003426:	f242 6191 	movw	r1, #9873	; 0x2691
 800342a:	f240 1000 	movw	r0, #256	; 0x100
 800342e:	4622      	mov	r2, r4
 8003430:	f6c0 0100 	movt	r1, #2048	; 0x800
 8003434:	f2c1 0000 	movt	r0, #4096	; 0x1000
 8003438:	f003 ffe2 	bl	8007400 <__aeabi_atexit>
 800343c:	f242 6185 	movw	r1, #9861	; 0x2685
 8003440:	f240 1058 	movw	r0, #344	; 0x158
 8003444:	4622      	mov	r2, r4
 8003446:	f6c0 0100 	movt	r1, #2048	; 0x800
 800344a:	f2c1 0000 	movt	r0, #4096	; 0x1000
 800344e:	f003 ffd7 	bl	8007400 <__aeabi_atexit>
 8003452:	f242 6179 	movw	r1, #9849	; 0x2679
 8003456:	f240 1034 	movw	r0, #308	; 0x134
 800345a:	4622      	mov	r2, r4
 800345c:	f6c0 0100 	movt	r1, #2048	; 0x800
 8003460:	f2c1 0000 	movt	r0, #4096	; 0x1000
 8003464:	f003 ffcc 	bl	8007400 <__aeabi_atexit>
 8003468:	f242 616d 	movw	r1, #9837	; 0x266d
 800346c:	f240 00b0 	movw	r0, #176	; 0xb0
 8003470:	4622      	mov	r2, r4
 8003472:	f6c0 0100 	movt	r1, #2048	; 0x800
 8003476:	f2c1 0000 	movt	r0, #4096	; 0x1000
 800347a:	f003 ffc1 	bl	8007400 <__aeabi_atexit>
 800347e:	f242 6161 	movw	r1, #9825	; 0x2661
 8003482:	f240 001c 	movw	r0, #28
 8003486:	4622      	mov	r2, r4
 8003488:	f6c0 0100 	movt	r1, #2048	; 0x800
 800348c:	f2c1 0000 	movt	r0, #4096	; 0x1000
 8003490:	f003 ffb6 	bl	8007400 <__aeabi_atexit>
 8003494:	f242 6155 	movw	r1, #9813	; 0x2655
 8003498:	f240 0050 	movw	r0, #80	; 0x50
 800349c:	4622      	mov	r2, r4
 800349e:	f6c0 0100 	movt	r1, #2048	; 0x800
 80034a2:	f2c1 0000 	movt	r0, #4096	; 0x1000
 80034a6:	f003 ffab 	bl	8007400 <__aeabi_atexit>
 80034aa:	f242 6149 	movw	r1, #9801	; 0x2649
 80034ae:	f240 0068 	movw	r0, #104	; 0x68
 80034b2:	4622      	mov	r2, r4
 80034b4:	f6c0 0100 	movt	r1, #2048	; 0x800
 80034b8:	f2c1 0000 	movt	r0, #4096	; 0x1000
 80034bc:	f003 ffa0 	bl	8007400 <__aeabi_atexit>
 80034c0:	f242 613d 	movw	r1, #9789	; 0x263d
 80034c4:	f240 00bc 	movw	r0, #188	; 0xbc
 80034c8:	4622      	mov	r2, r4
 80034ca:	f6c0 0100 	movt	r1, #2048	; 0x800
 80034ce:	f2c1 0000 	movt	r0, #4096	; 0x1000
 80034d2:	f003 ff95 	bl	8007400 <__aeabi_atexit>
 80034d6:	f242 6131 	movw	r1, #9777	; 0x2631
 80034da:	f240 00f8 	movw	r0, #248	; 0xf8
 80034de:	4622      	mov	r2, r4
 80034e0:	f6c0 0100 	movt	r1, #2048	; 0x800
 80034e4:	f2c1 0000 	movt	r0, #4096	; 0x1000
 80034e8:	f003 ff8a 	bl	8007400 <__aeabi_atexit>
 80034ec:	f242 6125 	movw	r1, #9765	; 0x2625
 80034f0:	f240 00cc 	movw	r0, #204	; 0xcc
 80034f4:	4622      	mov	r2, r4
 80034f6:	f6c0 0100 	movt	r1, #2048	; 0x800
 80034fa:	f2c1 0000 	movt	r0, #4096	; 0x1000
 80034fe:	f003 ff7f 	bl	8007400 <__aeabi_atexit>
 8003502:	f242 6119 	movw	r1, #9753	; 0x2619
 8003506:	f240 0034 	movw	r0, #52	; 0x34
 800350a:	4622      	mov	r2, r4
 800350c:	f6c0 0100 	movt	r1, #2048	; 0x800
 8003510:	f2c1 0000 	movt	r0, #4096	; 0x1000
 8003514:	f003 ff74 	bl	8007400 <__aeabi_atexit>
 8003518:	f242 610d 	movw	r1, #9741	; 0x260d
 800351c:	f240 006c 	movw	r0, #108	; 0x6c
 8003520:	4622      	mov	r2, r4
 8003522:	f6c0 0100 	movt	r1, #2048	; 0x800
 8003526:	f2c1 0000 	movt	r0, #4096	; 0x1000
 800352a:	f003 ff69 	bl	8007400 <__aeabi_atexit>
 800352e:	f242 6101 	movw	r1, #9729	; 0x2601
 8003532:	f240 0098 	movw	r0, #152	; 0x98
 8003536:	4622      	mov	r2, r4
 8003538:	f6c0 0100 	movt	r1, #2048	; 0x800
 800353c:	f2c1 0000 	movt	r0, #4096	; 0x1000
 8003540:	f003 ff5e 	bl	8007400 <__aeabi_atexit>
 8003544:	f242 51f5 	movw	r1, #9717	; 0x25f5
 8003548:	f240 00c8 	movw	r0, #200	; 0xc8
 800354c:	4622      	mov	r2, r4
 800354e:	f6c0 0100 	movt	r1, #2048	; 0x800
 8003552:	f2c1 0000 	movt	r0, #4096	; 0x1000
 8003556:	f003 ff53 	bl	8007400 <__aeabi_atexit>
 800355a:	f242 51e9 	movw	r1, #9705	; 0x25e9
 800355e:	f240 1044 	movw	r0, #324	; 0x144
 8003562:	4622      	mov	r2, r4
 8003564:	f6c0 0100 	movt	r1, #2048	; 0x800
 8003568:	f2c1 0000 	movt	r0, #4096	; 0x1000
 800356c:	f003 ff48 	bl	8007400 <__aeabi_atexit>
 8003570:	f242 51dd 	movw	r1, #9693	; 0x25dd
 8003574:	f240 102c 	movw	r0, #300	; 0x12c
 8003578:	4622      	mov	r2, r4
 800357a:	f6c0 0100 	movt	r1, #2048	; 0x800
 800357e:	f2c1 0000 	movt	r0, #4096	; 0x1000
 8003582:	f003 ff3d 	bl	8007400 <__aeabi_atexit>
 8003586:	f242 51d1 	movw	r1, #9681	; 0x25d1
 800358a:	f240 1038 	movw	r0, #312	; 0x138
 800358e:	4622      	mov	r2, r4
 8003590:	f6c0 0100 	movt	r1, #2048	; 0x800
 8003594:	f2c1 0000 	movt	r0, #4096	; 0x1000
 8003598:	f003 ff32 	bl	8007400 <__aeabi_atexit>
 800359c:	f242 51c5 	movw	r1, #9669	; 0x25c5
 80035a0:	f240 1014 	movw	r0, #276	; 0x114
 80035a4:	4622      	mov	r2, r4
 80035a6:	f6c0 0100 	movt	r1, #2048	; 0x800
 80035aa:	f2c1 0000 	movt	r0, #4096	; 0x1000
 80035ae:	f003 ff27 	bl	8007400 <__aeabi_atexit>
 80035b2:	f242 51b9 	movw	r1, #9657	; 0x25b9
 80035b6:	f240 008c 	movw	r0, #140	; 0x8c
 80035ba:	4622      	mov	r2, r4
 80035bc:	f6c0 0100 	movt	r1, #2048	; 0x800
 80035c0:	f2c1 0000 	movt	r0, #4096	; 0x1000
 80035c4:	f003 ff1c 	bl	8007400 <__aeabi_atexit>
 80035c8:	f242 51ad 	movw	r1, #9645	; 0x25ad
 80035cc:	f240 104c 	movw	r0, #332	; 0x14c
 80035d0:	4622      	mov	r2, r4
 80035d2:	f6c0 0100 	movt	r1, #2048	; 0x800
 80035d6:	f2c1 0000 	movt	r0, #4096	; 0x1000
 80035da:	f003 ff11 	bl	8007400 <__aeabi_atexit>
 80035de:	f242 51a1 	movw	r1, #9633	; 0x25a1
 80035e2:	f240 1088 	movw	r0, #392	; 0x188
 80035e6:	4622      	mov	r2, r4
 80035e8:	f6c0 0100 	movt	r1, #2048	; 0x800
 80035ec:	f2c1 0000 	movt	r0, #4096	; 0x1000
 80035f0:	f003 ff06 	bl	8007400 <__aeabi_atexit>
 80035f4:	f242 5195 	movw	r1, #9621	; 0x2595
 80035f8:	f240 00fc 	movw	r0, #252	; 0xfc
 80035fc:	4622      	mov	r2, r4
 80035fe:	f6c0 0100 	movt	r1, #2048	; 0x800
 8003602:	f2c1 0000 	movt	r0, #4096	; 0x1000
 8003606:	f003 fefb 	bl	8007400 <__aeabi_atexit>
 800360a:	f242 5189 	movw	r1, #9609	; 0x2589
 800360e:	f240 1078 	movw	r0, #376	; 0x178
 8003612:	4622      	mov	r2, r4
 8003614:	f6c0 0100 	movt	r1, #2048	; 0x800
 8003618:	f2c1 0000 	movt	r0, #4096	; 0x1000
 800361c:	f003 fef0 	bl	8007400 <__aeabi_atexit>
 8003620:	f242 517d 	movw	r1, #9597	; 0x257d
 8003624:	f240 0080 	movw	r0, #128	; 0x80
 8003628:	4622      	mov	r2, r4
 800362a:	f6c0 0100 	movt	r1, #2048	; 0x800
 800362e:	f2c1 0000 	movt	r0, #4096	; 0x1000
 8003632:	f003 fee5 	bl	8007400 <__aeabi_atexit>
 8003636:	f242 5171 	movw	r1, #9585	; 0x2571
 800363a:	f240 0024 	movw	r0, #36	; 0x24
 800363e:	4622      	mov	r2, r4
 8003640:	f6c0 0100 	movt	r1, #2048	; 0x800
 8003644:	f2c1 0000 	movt	r0, #4096	; 0x1000
 8003648:	f003 feda 	bl	8007400 <__aeabi_atexit>
 800364c:	f242 5165 	movw	r1, #9573	; 0x2565
 8003650:	f240 107c 	movw	r0, #380	; 0x17c
 8003654:	4622      	mov	r2, r4
 8003656:	f6c0 0100 	movt	r1, #2048	; 0x800
 800365a:	f2c1 0000 	movt	r0, #4096	; 0x1000
 800365e:	f003 fecf 	bl	8007400 <__aeabi_atexit>
 8003662:	f242 5159 	movw	r1, #9561	; 0x2559
 8003666:	f240 0030 	movw	r0, #48	; 0x30
 800366a:	4622      	mov	r2, r4
 800366c:	f6c0 0100 	movt	r1, #2048	; 0x800
 8003670:	f2c1 0000 	movt	r0, #4096	; 0x1000
 8003674:	f003 fec4 	bl	8007400 <__aeabi_atexit>
 8003678:	f242 514d 	movw	r1, #9549	; 0x254d
 800367c:	f240 004c 	movw	r0, #76	; 0x4c
 8003680:	4622      	mov	r2, r4
 8003682:	f6c0 0100 	movt	r1, #2048	; 0x800
 8003686:	f2c1 0000 	movt	r0, #4096	; 0x1000
 800368a:	f003 feb9 	bl	8007400 <__aeabi_atexit>
 800368e:	f242 5141 	movw	r1, #9537	; 0x2541
 8003692:	f240 00e4 	movw	r0, #228	; 0xe4
 8003696:	4622      	mov	r2, r4
 8003698:	f6c0 0100 	movt	r1, #2048	; 0x800
 800369c:	f2c1 0000 	movt	r0, #4096	; 0x1000
 80036a0:	f003 feae 	bl	8007400 <__aeabi_atexit>
 80036a4:	f242 5135 	movw	r1, #9525	; 0x2535
 80036a8:	f240 0020 	movw	r0, #32
 80036ac:	4622      	mov	r2, r4
 80036ae:	f6c0 0100 	movt	r1, #2048	; 0x800
 80036b2:	f2c1 0000 	movt	r0, #4096	; 0x1000
 80036b6:	f003 fea3 	bl	8007400 <__aeabi_atexit>
 80036ba:	f242 5129 	movw	r1, #9513	; 0x2529
 80036be:	f240 00c0 	movw	r0, #192	; 0xc0
 80036c2:	4622      	mov	r2, r4
 80036c4:	f6c0 0100 	movt	r1, #2048	; 0x800
 80036c8:	f2c1 0000 	movt	r0, #4096	; 0x1000
 80036cc:	f003 fe98 	bl	8007400 <__aeabi_atexit>
 80036d0:	f242 511d 	movw	r1, #9501	; 0x251d
 80036d4:	f240 0078 	movw	r0, #120	; 0x78
 80036d8:	4622      	mov	r2, r4
 80036da:	f6c0 0100 	movt	r1, #2048	; 0x800
 80036de:	f2c1 0000 	movt	r0, #4096	; 0x1000
 80036e2:	f003 fe8d 	bl	8007400 <__aeabi_atexit>
 80036e6:	f242 5111 	movw	r1, #9489	; 0x2511
 80036ea:	f240 00b4 	movw	r0, #180	; 0xb4
 80036ee:	4622      	mov	r2, r4
 80036f0:	f6c0 0100 	movt	r1, #2048	; 0x800
 80036f4:	f2c1 0000 	movt	r0, #4096	; 0x1000
 80036f8:	f003 fe82 	bl	8007400 <__aeabi_atexit>
 80036fc:	f242 5105 	movw	r1, #9477	; 0x2505
 8003700:	f240 0044 	movw	r0, #68	; 0x44
 8003704:	4622      	mov	r2, r4
 8003706:	f6c0 0100 	movt	r1, #2048	; 0x800
 800370a:	f2c1 0000 	movt	r0, #4096	; 0x1000
 800370e:	f003 fe77 	bl	8007400 <__aeabi_atexit>
 8003712:	f242 41f9 	movw	r1, #9465	; 0x24f9
 8003716:	f240 1048 	movw	r0, #328	; 0x148
 800371a:	4622      	mov	r2, r4
 800371c:	f6c0 0100 	movt	r1, #2048	; 0x800
 8003720:	f2c1 0000 	movt	r0, #4096	; 0x1000
 8003724:	f003 fe6c 	bl	8007400 <__aeabi_atexit>
 8003728:	f242 41ed 	movw	r1, #9453	; 0x24ed
 800372c:	f240 0040 	movw	r0, #64	; 0x40
 8003730:	4622      	mov	r2, r4
 8003732:	f6c0 0100 	movt	r1, #2048	; 0x800
 8003736:	f2c1 0000 	movt	r0, #4096	; 0x1000
 800373a:	f003 fe61 	bl	8007400 <__aeabi_atexit>
 800373e:	f242 41e1 	movw	r1, #9441	; 0x24e1
 8003742:	f240 002c 	movw	r0, #44	; 0x2c
 8003746:	4622      	mov	r2, r4
 8003748:	f6c0 0100 	movt	r1, #2048	; 0x800
 800374c:	f2c1 0000 	movt	r0, #4096	; 0x1000
 8003750:	f003 fe56 	bl	8007400 <__aeabi_atexit>
 8003754:	f242 41d5 	movw	r1, #9429	; 0x24d5
 8003758:	f240 1068 	movw	r0, #360	; 0x168
 800375c:	4622      	mov	r2, r4
 800375e:	f6c0 0100 	movt	r1, #2048	; 0x800
 8003762:	f2c1 0000 	movt	r0, #4096	; 0x1000
 8003766:	f003 fe4b 	bl	8007400 <__aeabi_atexit>
 800376a:	f242 41c9 	movw	r1, #9417	; 0x24c9
 800376e:	f240 1050 	movw	r0, #336	; 0x150
 8003772:	4622      	mov	r2, r4
 8003774:	f6c0 0100 	movt	r1, #2048	; 0x800
 8003778:	f2c1 0000 	movt	r0, #4096	; 0x1000
 800377c:	f003 fe40 	bl	8007400 <__aeabi_atexit>
 8003780:	f242 41bd 	movw	r1, #9405	; 0x24bd
 8003784:	f240 00a4 	movw	r0, #164	; 0xa4
 8003788:	4622      	mov	r2, r4
 800378a:	f6c0 0100 	movt	r1, #2048	; 0x800
 800378e:	f2c1 0000 	movt	r0, #4096	; 0x1000
 8003792:	f003 fe35 	bl	8007400 <__aeabi_atexit>
 8003796:	f242 41b1 	movw	r1, #9393	; 0x24b1
 800379a:	f240 00d8 	movw	r0, #216	; 0xd8
 800379e:	4622      	mov	r2, r4
 80037a0:	f6c0 0100 	movt	r1, #2048	; 0x800
 80037a4:	f2c1 0000 	movt	r0, #4096	; 0x1000
 80037a8:	f003 fe2a 	bl	8007400 <__aeabi_atexit>
 80037ac:	f242 41a5 	movw	r1, #9381	; 0x24a5
 80037b0:	f240 0064 	movw	r0, #100	; 0x64
 80037b4:	4622      	mov	r2, r4
 80037b6:	f6c0 0100 	movt	r1, #2048	; 0x800
 80037ba:	f2c1 0000 	movt	r0, #4096	; 0x1000
 80037be:	f003 fe1f 	bl	8007400 <__aeabi_atexit>
 80037c2:	f242 4199 	movw	r1, #9369	; 0x2499
 80037c6:	f240 0054 	movw	r0, #84	; 0x54
 80037ca:	4622      	mov	r2, r4
 80037cc:	f6c0 0100 	movt	r1, #2048	; 0x800
 80037d0:	f2c1 0000 	movt	r0, #4096	; 0x1000
 80037d4:	f003 fe14 	bl	8007400 <__aeabi_atexit>
 80037d8:	f242 418d 	movw	r1, #9357	; 0x248d
 80037dc:	f240 100c 	movw	r0, #268	; 0x10c
 80037e0:	4622      	mov	r2, r4
 80037e2:	f6c0 0100 	movt	r1, #2048	; 0x800
 80037e6:	f2c1 0000 	movt	r0, #4096	; 0x1000
 80037ea:	f003 fe09 	bl	8007400 <__aeabi_atexit>
 80037ee:	f242 4181 	movw	r1, #9345	; 0x2481
 80037f2:	f240 103c 	movw	r0, #316	; 0x13c
 80037f6:	4622      	mov	r2, r4
 80037f8:	f6c0 0100 	movt	r1, #2048	; 0x800
 80037fc:	f2c1 0000 	movt	r0, #4096	; 0x1000
 8003800:	f003 fdfe 	bl	8007400 <__aeabi_atexit>
 8003804:	f242 4175 	movw	r1, #9333	; 0x2475
 8003808:	f240 00ac 	movw	r0, #172	; 0xac
 800380c:	4622      	mov	r2, r4
 800380e:	f6c0 0100 	movt	r1, #2048	; 0x800
 8003812:	f2c1 0000 	movt	r0, #4096	; 0x1000
 8003816:	f003 fdf3 	bl	8007400 <__aeabi_atexit>
 800381a:	f242 4169 	movw	r1, #9321	; 0x2469
 800381e:	f240 0090 	movw	r0, #144	; 0x90
 8003822:	4622      	mov	r2, r4
 8003824:	f6c0 0100 	movt	r1, #2048	; 0x800
 8003828:	f2c1 0000 	movt	r0, #4096	; 0x1000
 800382c:	f003 fde8 	bl	8007400 <__aeabi_atexit>
 8003830:	f242 415d 	movw	r1, #9309	; 0x245d
 8003834:	f240 1004 	movw	r0, #260	; 0x104
 8003838:	4622      	mov	r2, r4
 800383a:	f6c0 0100 	movt	r1, #2048	; 0x800
 800383e:	f2c1 0000 	movt	r0, #4096	; 0x1000
 8003842:	f003 fddd 	bl	8007400 <__aeabi_atexit>
 8003846:	f242 4151 	movw	r1, #9297	; 0x2451
 800384a:	f240 00d4 	movw	r0, #212	; 0xd4
 800384e:	4622      	mov	r2, r4
 8003850:	f6c0 0100 	movt	r1, #2048	; 0x800
 8003854:	f2c1 0000 	movt	r0, #4096	; 0x1000
 8003858:	f003 fdd2 	bl	8007400 <__aeabi_atexit>
 800385c:	f242 4145 	movw	r1, #9285	; 0x2445
 8003860:	f240 1084 	movw	r0, #388	; 0x184
 8003864:	4622      	mov	r2, r4
 8003866:	f6c0 0100 	movt	r1, #2048	; 0x800
 800386a:	f2c1 0000 	movt	r0, #4096	; 0x1000
 800386e:	f003 fdc7 	bl	8007400 <__aeabi_atexit>
 8003872:	f240 0084 	movw	r0, #132	; 0x84
 8003876:	f242 4139 	movw	r1, #9273	; 0x2439
 800387a:	f2c1 0000 	movt	r0, #4096	; 0x1000
 800387e:	f6c0 0100 	movt	r1, #2048	; 0x800
 8003882:	4622      	mov	r2, r4
 8003884:	e8bd 4010 	ldmia.w	sp!, {r4, lr}
 8003888:	f003 bdba 	b.w	8007400 <__aeabi_atexit>

0800388c <_Z11video_setupv>:
 800388c:	b508      	push	{r3, lr}
 800388e:	f7fe fa6b 	bl	8001d68 <_Z9spi_setupv>
 8003892:	f7fe fadf 	bl	8001e54 <_Z15pixel_dma_setupv>
 8003896:	f44f 5260 	mov.w	r2, #14336	; 0x3800
 800389a:	f2c4 0202 	movt	r2, #16386	; 0x4002
 800389e:	2300      	movs	r3, #0
 80038a0:	6b11      	ldr	r1, [r2, #48]	; 0x30
 80038a2:	f2c4 0302 	movt	r3, #16386	; 0x4002
 80038a6:	f041 0001 	orr.w	r0, r1, #1
 80038aa:	6310      	str	r0, [r2, #48]	; 0x30
 80038ac:	6819      	ldr	r1, [r3, #0]
 80038ae:	f021 4040 	bic.w	r0, r1, #3221225472	; 0xc0000000
 80038b2:	f040 4100 	orr.w	r1, r0, #2147483648	; 0x80000000
 80038b6:	6019      	str	r1, [r3, #0]
 80038b8:	6a58      	ldr	r0, [r3, #36]	; 0x24
 80038ba:	f020 4170 	bic.w	r1, r0, #4026531840	; 0xf0000000
 80038be:	f041 5080 	orr.w	r0, r1, #268435456	; 0x10000000
 80038c2:	6258      	str	r0, [r3, #36]	; 0x24
 80038c4:	6b11      	ldr	r1, [r2, #48]	; 0x30
 80038c6:	f44f 6340 	mov.w	r3, #3072	; 0xc00
 80038ca:	f2c4 0302 	movt	r3, #16386	; 0x4002
 80038ce:	f041 0008 	orr.w	r0, r1, #8
 80038d2:	6310      	str	r0, [r2, #48]	; 0x30
 80038d4:	681a      	ldr	r2, [r3, #0]
 80038d6:	f022 0130 	bic.w	r1, r2, #48	; 0x30
 80038da:	f041 0020 	orr.w	r0, r1, #32
 80038de:	6018      	str	r0, [r3, #0]
 80038e0:	6a1a      	ldr	r2, [r3, #32]
 80038e2:	f422 6170 	bic.w	r1, r2, #3840	; 0xf00
 80038e6:	f441 7000 	orr.w	r0, r1, #512	; 0x200
 80038ea:	6218      	str	r0, [r3, #32]
 80038ec:	f001 f8c4 	bl	8004a78 <_Z14av_telem_setupv>
 80038f0:	f7fe f9b6 	bl	8001c60 <_ZN9video_cfg9spi_clock5setupEv>
 80038f4:	f7fd ffae 	bl	8001854 <_ZN9video_cfg7columns5setupEv>
 80038f8:	f7fe f8fe 	bl	8001af8 <_ZN9video_cfg4rows5setupEv>
 80038fc:	f7fd fc94 	bl	8001228 <_ZN13video_buffers4initEv>
 8003900:	f001 f974 	bl	8004bec <_Z14sync_sep_setupv>
 8003904:	e8bd 4008 	ldmia.w	sp!, {r3, lr}
 8003908:	f001 b93e 	b.w	8004b88 <_Z15sync_sep_enablev>

0800390c <_Z13set_text_dataPKc>:
 800390c:	4601      	mov	r1, r0
 800390e:	f640 209c 	movw	r0, #2716	; 0xa9c
 8003912:	f2c1 0000 	movt	r0, #4096	; 0x1000
 8003916:	f004 ba63 	b.w	8007de0 <strcpy>
 800391a:	bf00      	nop

0800391c <_Z7on_drawv>:
 800391c:	e92d 4ff0 	stmdb	sp!, {r4, r5, r6, r7, r8, r9, sl, fp, lr}
 8003920:	4b28      	ldr	r3, [pc, #160]	; (80039c4 <_Z7on_drawv+0xa8>)
 8003922:	4929      	ldr	r1, [pc, #164]	; (80039c8 <_Z7on_drawv+0xac>)
 8003924:	8818      	ldrh	r0, [r3, #0]
 8003926:	4a29      	ldr	r2, [pc, #164]	; (80039cc <_Z7on_drawv+0xb0>)
 8003928:	4c29      	ldr	r4, [pc, #164]	; (80039d0 <_Z7on_drawv+0xb4>)
 800392a:	880d      	ldrh	r5, [r1, #0]
 800392c:	8816      	ldrh	r6, [r2, #0]
 800392e:	8827      	ldrh	r7, [r4, #0]
 8003930:	f8df c0a8 	ldr.w	ip, [pc, #168]	; 80039dc <_Z7on_drawv+0xc0>
 8003934:	f640 2380 	movw	r3, #2688	; 0xa80
 8003938:	f2c1 0300 	movt	r3, #4096	; 0x1000
 800393c:	ed2d 8b08 	vpush	{d8-d11}
 8003940:	ed93 8a00 	vldr	s16, [r3]
 8003944:	eddf 7a23 	vldr	s15, [pc, #140]	; 80039d4 <_Z7on_drawv+0xb8>
 8003948:	ee38 0a08 	vadd.f32	s0, s16, s16
 800394c:	ed9f 1a22 	vldr	s2, [pc, #136]	; 80039d8 <_Z7on_drawv+0xbc>
 8003950:	ee60 0a27 	vmul.f32	s1, s0, s15
 8003954:	1bf1      	subs	r1, r6, r7
 8003956:	eec0 8a81 	vdiv.f32	s17, s1, s2
 800395a:	1b40      	subs	r0, r0, r5
 800395c:	f64f 75f8 	movw	r5, #65528	; 0xfff8
 8003960:	b28a      	uxth	r2, r1
 8003962:	4005      	ands	r5, r0
 8003964:	b093      	sub	sp, #76	; 0x4c
 8003966:	2600      	movs	r6, #0
 8003968:	2402      	movs	r4, #2
 800396a:	f8cd c004 	str.w	ip, [sp, #4]
 800396e:	9606      	str	r6, [sp, #24]
 8003970:	9407      	str	r4, [sp, #28]
 8003972:	ee07 5a10 	vmov	s14, r5
 8003976:	ee01 2a90 	vmov	s3, r2
 800397a:	eeb0 0a68 	vmov.f32	s0, s17
 800397e:	eef8 aac7 	vcvt.f32.s32	s21, s14
 8003982:	eeb8 ba61 	vcvt.f32.u32	s22, s3
 8003986:	f008 fda3 	bl	800c4d0 <cosf>
 800398a:	ee10 0a10 	vmov	r0, s0
 800398e:	f7fc fd5f 	bl	8000450 <__aeabi_f2d>
 8003992:	eeb0 0a68 	vmov.f32	s0, s17
 8003996:	4606      	mov	r6, r0
 8003998:	460f      	mov	r7, r1
 800399a:	f008 fdd3 	bl	800c544 <sinf>
 800399e:	ee10 0a10 	vmov	r0, s0
 80039a2:	f7fc fd55 	bl	8000450 <__aeabi_f2d>
 80039a6:	eeb0 aa00 	vmov.f32	s20, #0
 80039aa:	4603      	mov	r3, r0
 80039ac:	eeca 9a8a 	vdiv.f32	s19, s21, s20
 80039b0:	46b0      	mov	r8, r6
 80039b2:	46b9      	mov	r9, r7
 80039b4:	469a      	mov	sl, r3
 80039b6:	468b      	mov	fp, r1
 80039b8:	f8dd c004 	ldr.w	ip, [sp, #4]
 80039bc:	ee8b aa0a 	vdiv.f32	s20, s22, s20
 80039c0:	e015      	b.n	80039ee <_Z7on_drawv+0xd2>
 80039c2:	bf00      	nop
 80039c4:	10000008 	.word	0x10000008
 80039c8:	10000004 	.word	0x10000004
 80039cc:	10000012 	.word	0x10000012
 80039d0:	10000010 	.word	0x10000010
 80039d4:	40490fdb 	.word	0x40490fdb
 80039d8:	43b40000 	.word	0x43b40000
 80039dc:	10000a70 	.word	0x10000a70
 80039e0:	9f06      	ldr	r7, [sp, #24]
 80039e2:	1efc      	subs	r4, r7, #3
 80039e4:	2c04      	cmp	r4, #4
 80039e6:	bf94      	ite	ls
 80039e8:	2601      	movls	r6, #1
 80039ea:	2602      	movhi	r6, #2
 80039ec:	9607      	str	r6, [sp, #28]
 80039ee:	9906      	ldr	r1, [sp, #24]
 80039f0:	424d      	negs	r5, r1
 80039f2:	ee02 5a10 	vmov	s4, r5
 80039f6:	eddc 2a00 	vldr	s5, [ip]
 80039fa:	eeb8 8ac2 	vcvt.f32.s32	s16, s4
 80039fe:	ed9d 3a06 	vldr	s6, [sp, #24]
 8003a02:	ee78 3a22 	vadd.f32	s7, s16, s5
 8003a06:	eef8 8ac3 	vcvt.f32.s32	s17, s6
 8003a0a:	ee13 0a90 	vmov	r0, s7
 8003a0e:	ed9c 9a01 	vldr	s18, [ip, #4]
 8003a12:	f8cd c004 	str.w	ip, [sp, #4]
 8003a16:	f7fc fd1b 	bl	8000450 <__aeabi_f2d>
 8003a1a:	4604      	mov	r4, r0
 8003a1c:	ee19 0a90 	vmov	r0, s19
 8003a20:	460d      	mov	r5, r1
 8003a22:	f7fc fd15 	bl	8000450 <__aeabi_f2d>
 8003a26:	e9cd 0102 	strd	r0, r1, [sp, #8]
 8003a2a:	ee1a 0a10 	vmov	r0, s20
 8003a2e:	f7fc fd0f 	bl	8000450 <__aeabi_f2d>
 8003a32:	4642      	mov	r2, r8
 8003a34:	e9cd 0104 	strd	r0, r1, [sp, #16]
 8003a38:	464b      	mov	r3, r9
 8003a3a:	4620      	mov	r0, r4
 8003a3c:	4629      	mov	r1, r5
 8003a3e:	f7fc fd5b 	bl	80004f8 <__aeabi_dmul>
 8003a42:	ee38 9a89 	vadd.f32	s18, s17, s18
 8003a46:	4606      	mov	r6, r0
 8003a48:	eeb1 4a49 	vneg.f32	s8, s18
 8003a4c:	ee14 0a10 	vmov	r0, s8
 8003a50:	460f      	mov	r7, r1
 8003a52:	f7fc fcfd 	bl	8000450 <__aeabi_f2d>
 8003a56:	4652      	mov	r2, sl
 8003a58:	465b      	mov	r3, fp
 8003a5a:	f7fc fd4d 	bl	80004f8 <__aeabi_dmul>
 8003a5e:	4602      	mov	r2, r0
 8003a60:	460b      	mov	r3, r1
 8003a62:	4630      	mov	r0, r6
 8003a64:	4639      	mov	r1, r7
 8003a66:	f7fc fb95 	bl	8000194 <__adddf3>
 8003a6a:	e9dd 2302 	ldrd	r2, r3, [sp, #8]
 8003a6e:	f7fc fb91 	bl	8000194 <__adddf3>
 8003a72:	f7fd f803 	bl	8000a7c <__aeabi_d2f>
 8003a76:	900e      	str	r0, [sp, #56]	; 0x38
 8003a78:	ee19 0a10 	vmov	r0, s18
 8003a7c:	f7fc fce8 	bl	8000450 <__aeabi_f2d>
 8003a80:	4642      	mov	r2, r8
 8003a82:	464b      	mov	r3, r9
 8003a84:	f7fc fd38 	bl	80004f8 <__aeabi_dmul>
 8003a88:	4652      	mov	r2, sl
 8003a8a:	4606      	mov	r6, r0
 8003a8c:	460f      	mov	r7, r1
 8003a8e:	4620      	mov	r0, r4
 8003a90:	4629      	mov	r1, r5
 8003a92:	465b      	mov	r3, fp
 8003a94:	f7fc fd30 	bl	80004f8 <__aeabi_dmul>
 8003a98:	4602      	mov	r2, r0
 8003a9a:	460b      	mov	r3, r1
 8003a9c:	4630      	mov	r0, r6
 8003a9e:	4639      	mov	r1, r7
 8003aa0:	f7fc fb78 	bl	8000194 <__adddf3>
 8003aa4:	e9dd 2304 	ldrd	r2, r3, [sp, #16]
 8003aa8:	f7fc fb74 	bl	8000194 <__adddf3>
 8003aac:	f7fc ffe6 	bl	8000a7c <__aeabi_d2f>
 8003ab0:	f640 228c 	movw	r2, #2700	; 0xa8c
 8003ab4:	f2c1 0200 	movt	r2, #4096	; 0x1000
 8003ab8:	ed92 5a00 	vldr	s10, [r2]
 8003abc:	ee78 5a85 	vadd.f32	s11, s17, s10
 8003ac0:	edd2 4a01 	vldr	s9, [r2, #4]
 8003ac4:	900f      	str	r0, [sp, #60]	; 0x3c
 8003ac6:	ee15 0a90 	vmov	r0, s11
 8003aca:	ee38 9aa4 	vadd.f32	s18, s17, s9
 8003ace:	f7fc fcbf 	bl	8000450 <__aeabi_f2d>
 8003ad2:	4642      	mov	r2, r8
 8003ad4:	464b      	mov	r3, r9
 8003ad6:	4606      	mov	r6, r0
 8003ad8:	460f      	mov	r7, r1
 8003ada:	f7fc fd0d 	bl	80004f8 <__aeabi_dmul>
 8003ade:	eeb1 6a49 	vneg.f32	s12, s18
 8003ae2:	4604      	mov	r4, r0
 8003ae4:	ee16 0a10 	vmov	r0, s12
 8003ae8:	460d      	mov	r5, r1
 8003aea:	f7fc fcb1 	bl	8000450 <__aeabi_f2d>
 8003aee:	4652      	mov	r2, sl
 8003af0:	465b      	mov	r3, fp
 8003af2:	f7fc fd01 	bl	80004f8 <__aeabi_dmul>
 8003af6:	4602      	mov	r2, r0
 8003af8:	460b      	mov	r3, r1
 8003afa:	4620      	mov	r0, r4
 8003afc:	4629      	mov	r1, r5
 8003afe:	f7fc fb49 	bl	8000194 <__adddf3>
 8003b02:	4602      	mov	r2, r0
 8003b04:	460b      	mov	r3, r1
 8003b06:	e9dd 0102 	ldrd	r0, r1, [sp, #8]
 8003b0a:	f7fc fb43 	bl	8000194 <__adddf3>
 8003b0e:	f7fc ffb5 	bl	8000a7c <__aeabi_d2f>
 8003b12:	9010      	str	r0, [sp, #64]	; 0x40
 8003b14:	ee19 0a10 	vmov	r0, s18
 8003b18:	f7fc fc9a 	bl	8000450 <__aeabi_f2d>
 8003b1c:	4642      	mov	r2, r8
 8003b1e:	464b      	mov	r3, r9
 8003b20:	f7fc fcea 	bl	80004f8 <__aeabi_dmul>
 8003b24:	4652      	mov	r2, sl
 8003b26:	4604      	mov	r4, r0
 8003b28:	460d      	mov	r5, r1
 8003b2a:	4630      	mov	r0, r6
 8003b2c:	4639      	mov	r1, r7
 8003b2e:	465b      	mov	r3, fp
 8003b30:	f7fc fce2 	bl	80004f8 <__aeabi_dmul>
 8003b34:	4602      	mov	r2, r0
 8003b36:	460b      	mov	r3, r1
 8003b38:	4620      	mov	r0, r4
 8003b3a:	4629      	mov	r1, r5
 8003b3c:	f7fc fb2a 	bl	8000194 <__adddf3>
 8003b40:	460b      	mov	r3, r1
 8003b42:	4602      	mov	r2, r0
 8003b44:	e9dd 0104 	ldrd	r0, r1, [sp, #16]
 8003b48:	f7fc fb24 	bl	8000194 <__adddf3>
 8003b4c:	f7fc ff96 	bl	8000a7c <__aeabi_d2f>
 8003b50:	a910      	add	r1, sp, #64	; 0x40
 8003b52:	9011      	str	r0, [sp, #68]	; 0x44
 8003b54:	9a07      	ldr	r2, [sp, #28]
 8003b56:	a80e      	add	r0, sp, #56	; 0x38
 8003b58:	f000 fd9e 	bl	8004698 <_Z14draw_line_bresRKN4quan5two_d4vectIfEES4_5color>
 8003b5c:	f640 238c 	movw	r3, #2700	; 0xa8c
 8003b60:	f2c1 0300 	movt	r3, #4096	; 0x1000
 8003b64:	ed93 0a00 	vldr	s0, [r3]
 8003b68:	ee78 7a80 	vadd.f32	s15, s17, s0
 8003b6c:	edd3 6a01 	vldr	s13, [r3, #4]
 8003b70:	ee17 0a90 	vmov	r0, s15
 8003b74:	ee38 9aa6 	vadd.f32	s18, s17, s13
 8003b78:	f7fc fc6a 	bl	8000450 <__aeabi_f2d>
 8003b7c:	4642      	mov	r2, r8
 8003b7e:	464b      	mov	r3, r9
 8003b80:	4606      	mov	r6, r0
 8003b82:	460f      	mov	r7, r1
 8003b84:	f7fc fcb8 	bl	80004f8 <__aeabi_dmul>
 8003b88:	eef1 0a49 	vneg.f32	s1, s18
 8003b8c:	4604      	mov	r4, r0
 8003b8e:	ee10 0a90 	vmov	r0, s1
 8003b92:	460d      	mov	r5, r1
 8003b94:	f7fc fc5c 	bl	8000450 <__aeabi_f2d>
 8003b98:	4652      	mov	r2, sl
 8003b9a:	465b      	mov	r3, fp
 8003b9c:	f7fc fcac 	bl	80004f8 <__aeabi_dmul>
 8003ba0:	4602      	mov	r2, r0
 8003ba2:	460b      	mov	r3, r1
 8003ba4:	4620      	mov	r0, r4
 8003ba6:	4629      	mov	r1, r5
 8003ba8:	f7fc faf4 	bl	8000194 <__adddf3>
 8003bac:	4602      	mov	r2, r0
 8003bae:	460b      	mov	r3, r1
 8003bb0:	e9dd 0102 	ldrd	r0, r1, [sp, #8]
 8003bb4:	f7fc faee 	bl	8000194 <__adddf3>
 8003bb8:	f7fc ff60 	bl	8000a7c <__aeabi_d2f>
 8003bbc:	900e      	str	r0, [sp, #56]	; 0x38
 8003bbe:	ee19 0a10 	vmov	r0, s18
 8003bc2:	f7fc fc45 	bl	8000450 <__aeabi_f2d>
 8003bc6:	4642      	mov	r2, r8
 8003bc8:	464b      	mov	r3, r9
 8003bca:	f7fc fc95 	bl	80004f8 <__aeabi_dmul>
 8003bce:	4652      	mov	r2, sl
 8003bd0:	4604      	mov	r4, r0
 8003bd2:	460d      	mov	r5, r1
 8003bd4:	4630      	mov	r0, r6
 8003bd6:	4639      	mov	r1, r7
 8003bd8:	465b      	mov	r3, fp
 8003bda:	f7fc fc8d 	bl	80004f8 <__aeabi_dmul>
 8003bde:	4602      	mov	r2, r0
 8003be0:	460b      	mov	r3, r1
 8003be2:	4620      	mov	r0, r4
 8003be4:	4629      	mov	r1, r5
 8003be6:	f7fc fad5 	bl	8000194 <__adddf3>
 8003bea:	4602      	mov	r2, r0
 8003bec:	460b      	mov	r3, r1
 8003bee:	e9dd 0104 	ldrd	r0, r1, [sp, #16]
 8003bf2:	f7fc facf 	bl	8000194 <__adddf3>
 8003bf6:	f7fc ff41 	bl	8000a7c <__aeabi_d2f>
 8003bfa:	f640 2178 	movw	r1, #2680	; 0xa78
 8003bfe:	f2c1 0100 	movt	r1, #4096	; 0x1000
 8003c02:	ed91 7a00 	vldr	s14, [r1]
 8003c06:	ee78 1a87 	vadd.f32	s3, s17, s14
 8003c0a:	ed91 1a01 	vldr	s2, [r1, #4]
 8003c0e:	900f      	str	r0, [sp, #60]	; 0x3c
 8003c10:	ee11 0a90 	vmov	r0, s3
 8003c14:	ee38 9a01 	vadd.f32	s18, s16, s2
 8003c18:	f7fc fc1a 	bl	8000450 <__aeabi_f2d>
 8003c1c:	4642      	mov	r2, r8
 8003c1e:	464b      	mov	r3, r9
 8003c20:	4606      	mov	r6, r0
 8003c22:	460f      	mov	r7, r1
 8003c24:	f7fc fc68 	bl	80004f8 <__aeabi_dmul>
 8003c28:	eeb1 2a49 	vneg.f32	s4, s18
 8003c2c:	4604      	mov	r4, r0
 8003c2e:	ee12 0a10 	vmov	r0, s4
 8003c32:	460d      	mov	r5, r1
 8003c34:	f7fc fc0c 	bl	8000450 <__aeabi_f2d>
 8003c38:	4652      	mov	r2, sl
 8003c3a:	465b      	mov	r3, fp
 8003c3c:	f7fc fc5c 	bl	80004f8 <__aeabi_dmul>
 8003c40:	4602      	mov	r2, r0
 8003c42:	460b      	mov	r3, r1
 8003c44:	4620      	mov	r0, r4
 8003c46:	4629      	mov	r1, r5
 8003c48:	f7fc faa4 	bl	8000194 <__adddf3>
 8003c4c:	4602      	mov	r2, r0
 8003c4e:	460b      	mov	r3, r1
 8003c50:	e9dd 0102 	ldrd	r0, r1, [sp, #8]
 8003c54:	f7fc fa9e 	bl	8000194 <__adddf3>
 8003c58:	f7fc ff10 	bl	8000a7c <__aeabi_d2f>
 8003c5c:	9010      	str	r0, [sp, #64]	; 0x40
 8003c5e:	ee19 0a10 	vmov	r0, s18
 8003c62:	f7fc fbf5 	bl	8000450 <__aeabi_f2d>
 8003c66:	4642      	mov	r2, r8
 8003c68:	464b      	mov	r3, r9
 8003c6a:	f7fc fc45 	bl	80004f8 <__aeabi_dmul>
 8003c6e:	4652      	mov	r2, sl
 8003c70:	4604      	mov	r4, r0
 8003c72:	460d      	mov	r5, r1
 8003c74:	4630      	mov	r0, r6
 8003c76:	4639      	mov	r1, r7
 8003c78:	465b      	mov	r3, fp
 8003c7a:	f7fc fc3d 	bl	80004f8 <__aeabi_dmul>
 8003c7e:	4602      	mov	r2, r0
 8003c80:	460b      	mov	r3, r1
 8003c82:	4620      	mov	r0, r4
 8003c84:	4629      	mov	r1, r5
 8003c86:	f7fc fa85 	bl	8000194 <__adddf3>
 8003c8a:	460b      	mov	r3, r1
 8003c8c:	4602      	mov	r2, r0
 8003c8e:	e9dd 0104 	ldrd	r0, r1, [sp, #16]
 8003c92:	f7fc fa7f 	bl	8000194 <__adddf3>
 8003c96:	f7fc fef1 	bl	8000a7c <__aeabi_d2f>
 8003c9a:	a910      	add	r1, sp, #64	; 0x40
 8003c9c:	9011      	str	r0, [sp, #68]	; 0x44
 8003c9e:	9a07      	ldr	r2, [sp, #28]
 8003ca0:	a80e      	add	r0, sp, #56	; 0x38
 8003ca2:	f000 fcf9 	bl	8004698 <_Z14draw_line_bresRKN4quan5two_d4vectIfEES4_5color>
 8003ca6:	f640 2078 	movw	r0, #2680	; 0xa78
 8003caa:	f2c1 0000 	movt	r0, #4096	; 0x1000
 8003cae:	ed90 3a00 	vldr	s6, [r0]
 8003cb2:	ee78 3a83 	vadd.f32	s7, s17, s6
 8003cb6:	edd0 2a01 	vldr	s5, [r0, #4]
 8003cba:	ee13 0a90 	vmov	r0, s7
 8003cbe:	ee38 9a22 	vadd.f32	s18, s16, s5
 8003cc2:	f7fc fbc5 	bl	8000450 <__aeabi_f2d>
 8003cc6:	4642      	mov	r2, r8
 8003cc8:	464b      	mov	r3, r9
 8003cca:	4606      	mov	r6, r0
 8003ccc:	460f      	mov	r7, r1
 8003cce:	f7fc fc13 	bl	80004f8 <__aeabi_dmul>
 8003cd2:	eeb1 4a49 	vneg.f32	s8, s18
 8003cd6:	4604      	mov	r4, r0
 8003cd8:	ee14 0a10 	vmov	r0, s8
 8003cdc:	460d      	mov	r5, r1
 8003cde:	f7fc fbb7 	bl	8000450 <__aeabi_f2d>
 8003ce2:	4652      	mov	r2, sl
 8003ce4:	465b      	mov	r3, fp
 8003ce6:	f7fc fc07 	bl	80004f8 <__aeabi_dmul>
 8003cea:	4602      	mov	r2, r0
 8003cec:	460b      	mov	r3, r1
 8003cee:	4620      	mov	r0, r4
 8003cf0:	4629      	mov	r1, r5
 8003cf2:	f7fc fa4f 	bl	8000194 <__adddf3>
 8003cf6:	4602      	mov	r2, r0
 8003cf8:	460b      	mov	r3, r1
 8003cfa:	e9dd 0102 	ldrd	r0, r1, [sp, #8]
 8003cfe:	f7fc fa49 	bl	8000194 <__adddf3>
 8003d02:	f7fc febb 	bl	8000a7c <__aeabi_d2f>
 8003d06:	900e      	str	r0, [sp, #56]	; 0x38
 8003d08:	ee19 0a10 	vmov	r0, s18
 8003d0c:	f7fc fba0 	bl	8000450 <__aeabi_f2d>
 8003d10:	4642      	mov	r2, r8
 8003d12:	464b      	mov	r3, r9
 8003d14:	f7fc fbf0 	bl	80004f8 <__aeabi_dmul>
 8003d18:	4652      	mov	r2, sl
 8003d1a:	4604      	mov	r4, r0
 8003d1c:	460d      	mov	r5, r1
 8003d1e:	4630      	mov	r0, r6
 8003d20:	4639      	mov	r1, r7
 8003d22:	465b      	mov	r3, fp
 8003d24:	f7fc fbe8 	bl	80004f8 <__aeabi_dmul>
 8003d28:	4602      	mov	r2, r0
 8003d2a:	460b      	mov	r3, r1
 8003d2c:	4620      	mov	r0, r4
 8003d2e:	4629      	mov	r1, r5
 8003d30:	f7fc fa30 	bl	8000194 <__adddf3>
 8003d34:	460b      	mov	r3, r1
 8003d36:	4602      	mov	r2, r0
 8003d38:	e9dd 0104 	ldrd	r0, r1, [sp, #16]
 8003d3c:	f7fc fa2a 	bl	8000194 <__adddf3>
 8003d40:	f7fc fe9c 	bl	8000a7c <__aeabi_d2f>
 8003d44:	f640 2284 	movw	r2, #2692	; 0xa84
 8003d48:	f2c1 0200 	movt	r2, #4096	; 0x1000
 8003d4c:	ed92 5a00 	vldr	s10, [r2]
 8003d50:	ee78 5a05 	vadd.f32	s11, s16, s10
 8003d54:	edd2 4a01 	vldr	s9, [r2, #4]
 8003d58:	900f      	str	r0, [sp, #60]	; 0x3c
 8003d5a:	ee15 0a90 	vmov	r0, s11
 8003d5e:	ee38 9a24 	vadd.f32	s18, s16, s9
 8003d62:	f7fc fb75 	bl	8000450 <__aeabi_f2d>
 8003d66:	4642      	mov	r2, r8
 8003d68:	464b      	mov	r3, r9
 8003d6a:	4606      	mov	r6, r0
 8003d6c:	460f      	mov	r7, r1
 8003d6e:	f7fc fbc3 	bl	80004f8 <__aeabi_dmul>
 8003d72:	eeb1 6a49 	vneg.f32	s12, s18
 8003d76:	4604      	mov	r4, r0
 8003d78:	ee16 0a10 	vmov	r0, s12
 8003d7c:	460d      	mov	r5, r1
 8003d7e:	f7fc fb67 	bl	8000450 <__aeabi_f2d>
 8003d82:	4652      	mov	r2, sl
 8003d84:	465b      	mov	r3, fp
 8003d86:	f7fc fbb7 	bl	80004f8 <__aeabi_dmul>
 8003d8a:	4602      	mov	r2, r0
 8003d8c:	460b      	mov	r3, r1
 8003d8e:	4620      	mov	r0, r4
 8003d90:	4629      	mov	r1, r5
 8003d92:	f7fc f9ff 	bl	8000194 <__adddf3>
 8003d96:	4602      	mov	r2, r0
 8003d98:	460b      	mov	r3, r1
 8003d9a:	e9dd 0102 	ldrd	r0, r1, [sp, #8]
 8003d9e:	f7fc f9f9 	bl	8000194 <__adddf3>
 8003da2:	f7fc fe6b 	bl	8000a7c <__aeabi_d2f>
 8003da6:	9010      	str	r0, [sp, #64]	; 0x40
 8003da8:	ee19 0a10 	vmov	r0, s18
 8003dac:	f7fc fb50 	bl	8000450 <__aeabi_f2d>
 8003db0:	4642      	mov	r2, r8
 8003db2:	464b      	mov	r3, r9
 8003db4:	f7fc fba0 	bl	80004f8 <__aeabi_dmul>
 8003db8:	4652      	mov	r2, sl
 8003dba:	4604      	mov	r4, r0
 8003dbc:	460d      	mov	r5, r1
 8003dbe:	4630      	mov	r0, r6
 8003dc0:	4639      	mov	r1, r7
 8003dc2:	465b      	mov	r3, fp
 8003dc4:	f7fc fb98 	bl	80004f8 <__aeabi_dmul>
 8003dc8:	4602      	mov	r2, r0
 8003dca:	460b      	mov	r3, r1
 8003dcc:	4620      	mov	r0, r4
 8003dce:	4629      	mov	r1, r5
 8003dd0:	f7fc f9e0 	bl	8000194 <__adddf3>
 8003dd4:	460b      	mov	r3, r1
 8003dd6:	4602      	mov	r2, r0
 8003dd8:	e9dd 0104 	ldrd	r0, r1, [sp, #16]
 8003ddc:	f7fc f9da 	bl	8000194 <__adddf3>
 8003de0:	f7fc fe4c 	bl	8000a7c <__aeabi_d2f>
 8003de4:	a910      	add	r1, sp, #64	; 0x40
 8003de6:	9011      	str	r0, [sp, #68]	; 0x44
 8003de8:	9a07      	ldr	r2, [sp, #28]
 8003dea:	a80e      	add	r0, sp, #56	; 0x38
 8003dec:	f000 fc54 	bl	8004698 <_Z14draw_line_bresRKN4quan5two_d4vectIfEES4_5color>
 8003df0:	f640 2384 	movw	r3, #2692	; 0xa84
 8003df4:	f2c1 0300 	movt	r3, #4096	; 0x1000
 8003df8:	ed93 0a00 	vldr	s0, [r3]
 8003dfc:	ee78 7a00 	vadd.f32	s15, s16, s0
 8003e00:	edd3 6a01 	vldr	s13, [r3, #4]
 8003e04:	ee17 0a90 	vmov	r0, s15
 8003e08:	ee38 9a26 	vadd.f32	s18, s16, s13
 8003e0c:	f7fc fb20 	bl	8000450 <__aeabi_f2d>
 8003e10:	4642      	mov	r2, r8
 8003e12:	464b      	mov	r3, r9
 8003e14:	4606      	mov	r6, r0
 8003e16:	460f      	mov	r7, r1
 8003e18:	f7fc fb6e 	bl	80004f8 <__aeabi_dmul>
 8003e1c:	eef1 0a49 	vneg.f32	s1, s18
 8003e20:	4604      	mov	r4, r0
 8003e22:	ee10 0a90 	vmov	r0, s1
 8003e26:	460d      	mov	r5, r1
 8003e28:	f7fc fb12 	bl	8000450 <__aeabi_f2d>
 8003e2c:	4652      	mov	r2, sl
 8003e2e:	465b      	mov	r3, fp
 8003e30:	f7fc fb62 	bl	80004f8 <__aeabi_dmul>
 8003e34:	4602      	mov	r2, r0
 8003e36:	460b      	mov	r3, r1
 8003e38:	4620      	mov	r0, r4
 8003e3a:	4629      	mov	r1, r5
 8003e3c:	f7fc f9aa 	bl	8000194 <__adddf3>
 8003e40:	4602      	mov	r2, r0
 8003e42:	460b      	mov	r3, r1
 8003e44:	e9dd 0102 	ldrd	r0, r1, [sp, #8]
 8003e48:	f7fc f9a4 	bl	8000194 <__adddf3>
 8003e4c:	f7fc fe16 	bl	8000a7c <__aeabi_d2f>
 8003e50:	900e      	str	r0, [sp, #56]	; 0x38
 8003e52:	ee19 0a10 	vmov	r0, s18
 8003e56:	f7fc fafb 	bl	8000450 <__aeabi_f2d>
 8003e5a:	4642      	mov	r2, r8
 8003e5c:	464b      	mov	r3, r9
 8003e5e:	f7fc fb4b 	bl	80004f8 <__aeabi_dmul>
 8003e62:	4652      	mov	r2, sl
 8003e64:	4604      	mov	r4, r0
 8003e66:	460d      	mov	r5, r1
 8003e68:	4630      	mov	r0, r6
 8003e6a:	4639      	mov	r1, r7
 8003e6c:	465b      	mov	r3, fp
 8003e6e:	f7fc fb43 	bl	80004f8 <__aeabi_dmul>
 8003e72:	4602      	mov	r2, r0
 8003e74:	460b      	mov	r3, r1
 8003e76:	4620      	mov	r0, r4
 8003e78:	4629      	mov	r1, r5
 8003e7a:	f7fc f98b 	bl	8000194 <__adddf3>
 8003e7e:	4602      	mov	r2, r0
 8003e80:	460b      	mov	r3, r1
 8003e82:	e9dd 0104 	ldrd	r0, r1, [sp, #16]
 8003e86:	f7fc f985 	bl	8000194 <__adddf3>
 8003e8a:	f7fc fdf7 	bl	8000a7c <__aeabi_d2f>
 8003e8e:	f8dd c004 	ldr.w	ip, [sp, #4]
 8003e92:	900f      	str	r0, [sp, #60]	; 0x3c
 8003e94:	ed9c 7a00 	vldr	s14, [ip]
 8003e98:	ee38 8a07 	vadd.f32	s16, s16, s14
 8003e9c:	ed9c 1a01 	vldr	s2, [ip, #4]
 8003ea0:	ee18 0a10 	vmov	r0, s16
 8003ea4:	ee78 8a81 	vadd.f32	s17, s17, s2
 8003ea8:	f7fc fad2 	bl	8000450 <__aeabi_f2d>
 8003eac:	4642      	mov	r2, r8
 8003eae:	464b      	mov	r3, r9
 8003eb0:	4606      	mov	r6, r0
 8003eb2:	460f      	mov	r7, r1
 8003eb4:	f7fc fb20 	bl	80004f8 <__aeabi_dmul>
 8003eb8:	eef1 1a68 	vneg.f32	s3, s17
 8003ebc:	4604      	mov	r4, r0
 8003ebe:	ee11 0a90 	vmov	r0, s3
 8003ec2:	460d      	mov	r5, r1
 8003ec4:	f7fc fac4 	bl	8000450 <__aeabi_f2d>
 8003ec8:	4652      	mov	r2, sl
 8003eca:	465b      	mov	r3, fp
 8003ecc:	f7fc fb14 	bl	80004f8 <__aeabi_dmul>
 8003ed0:	4602      	mov	r2, r0
 8003ed2:	460b      	mov	r3, r1
 8003ed4:	4620      	mov	r0, r4
 8003ed6:	4629      	mov	r1, r5
 8003ed8:	f7fc f95c 	bl	8000194 <__adddf3>
 8003edc:	4602      	mov	r2, r0
 8003ede:	460b      	mov	r3, r1
 8003ee0:	e9dd 0102 	ldrd	r0, r1, [sp, #8]
 8003ee4:	f7fc f956 	bl	8000194 <__adddf3>
 8003ee8:	f7fc fdc8 	bl	8000a7c <__aeabi_d2f>
 8003eec:	9010      	str	r0, [sp, #64]	; 0x40
 8003eee:	ee18 0a90 	vmov	r0, s17
 8003ef2:	f7fc faad 	bl	8000450 <__aeabi_f2d>
 8003ef6:	4642      	mov	r2, r8
 8003ef8:	464b      	mov	r3, r9
 8003efa:	f7fc fafd 	bl	80004f8 <__aeabi_dmul>
 8003efe:	4652      	mov	r2, sl
 8003f00:	4604      	mov	r4, r0
 8003f02:	460d      	mov	r5, r1
 8003f04:	4630      	mov	r0, r6
 8003f06:	465b      	mov	r3, fp
 8003f08:	4639      	mov	r1, r7
 8003f0a:	f7fc faf5 	bl	80004f8 <__aeabi_dmul>
 8003f0e:	4602      	mov	r2, r0
 8003f10:	460b      	mov	r3, r1
 8003f12:	4620      	mov	r0, r4
 8003f14:	4629      	mov	r1, r5
 8003f16:	f7fc f93d 	bl	8000194 <__adddf3>
 8003f1a:	4602      	mov	r2, r0
 8003f1c:	460b      	mov	r3, r1
 8003f1e:	e9dd 0104 	ldrd	r0, r1, [sp, #16]
 8003f22:	f7fc f937 	bl	8000194 <__adddf3>
 8003f26:	f7fc fda9 	bl	8000a7c <__aeabi_d2f>
 8003f2a:	9906      	ldr	r1, [sp, #24]
 8003f2c:	1c4e      	adds	r6, r1, #1
 8003f2e:	9606      	str	r6, [sp, #24]
 8003f30:	a910      	add	r1, sp, #64	; 0x40
 8003f32:	9011      	str	r0, [sp, #68]	; 0x44
 8003f34:	9a07      	ldr	r2, [sp, #28]
 8003f36:	a80e      	add	r0, sp, #56	; 0x38
 8003f38:	f000 fbae 	bl	8004698 <_Z14draw_line_bresRKN4quan5two_d4vectIfEES4_5color>
 8003f3c:	2e0a      	cmp	r6, #10
 8003f3e:	f8dd c004 	ldr.w	ip, [sp, #4]
 8003f42:	f47f ad4d 	bne.w	80039e0 <_Z7on_drawv+0xc4>
 8003f46:	f640 2080 	movw	r0, #2688	; 0xa80
 8003f4a:	f2c1 0000 	movt	r0, #4096	; 0x1000
 8003f4e:	ed90 2a00 	vldr	s4, [r0]
 8003f52:	eddf 2adb 	vldr	s5, [pc, #876]	; 80042c0 <_Z7on_drawv+0x9a4>
 8003f56:	eddf 3adb 	vldr	s7, [pc, #876]	; 80042c4 <_Z7on_drawv+0x9a8>
 8003f5a:	ee32 3a22 	vadd.f32	s6, s4, s5
 8003f5e:	ee33 4a63 	vsub.f32	s8, s6, s7
 8003f62:	eeb5 4ac0 	vcmpe.f32	s8, #0.0
 8003f66:	eef1 fa10 	vmrs	APSR_nzcv, fpscr
 8003f6a:	f100 81e2 	bmi.w	8004332 <_Z7on_drawv+0xa16>
 8003f6e:	d901      	bls.n	8003f74 <_Z7on_drawv+0x658>
 8003f70:	f100 81e1 	bmi.w	8004336 <_Z7on_drawv+0xa1a>
 8003f74:	f640 2380 	movw	r3, #2688	; 0xa80
 8003f78:	f2c1 0300 	movt	r3, #4096	; 0x1000
 8003f7c:	ed83 4a00 	vstr	s8, [r3]
 8003f80:	eeb7 9a00 	vmov.f32	s18, #112	; 0x70
 8003f84:	ee7a 8ac9 	vsub.f32	s17, s21, s18
 8003f88:	2400      	movs	r4, #0
 8003f8a:	2202      	movs	r2, #2
 8003f8c:	a80e      	add	r0, sp, #56	; 0x38
 8003f8e:	a910      	add	r1, sp, #64	; 0x40
 8003f90:	940e      	str	r4, [sp, #56]	; 0x38
 8003f92:	940f      	str	r4, [sp, #60]	; 0x3c
 8003f94:	edcd 8a10 	vstr	s17, [sp, #64]	; 0x40
 8003f98:	9411      	str	r4, [sp, #68]	; 0x44
 8003f9a:	f000 fb7d 	bl	8004698 <_Z14draw_line_bresRKN4quan5two_d4vectIfEES4_5color>
 8003f9e:	ee3b 8a49 	vsub.f32	s16, s22, s18
 8003fa2:	2202      	movs	r2, #2
 8003fa4:	a80e      	add	r0, sp, #56	; 0x38
 8003fa6:	a910      	add	r1, sp, #64	; 0x40
 8003fa8:	4ec7      	ldr	r6, [pc, #796]	; (80042c8 <_Z7on_drawv+0x9ac>)
 8003faa:	4dc8      	ldr	r5, [pc, #800]	; (80042cc <_Z7on_drawv+0x9b0>)
 8003fac:	940f      	str	r4, [sp, #60]	; 0x3c
 8003fae:	edcd 8a0e 	vstr	s17, [sp, #56]	; 0x38
 8003fb2:	edcd 8a10 	vstr	s17, [sp, #64]	; 0x40
 8003fb6:	ed8d 8a11 	vstr	s16, [sp, #68]	; 0x44
 8003fba:	f000 fb6d 	bl	8004698 <_Z14draw_line_bresRKN4quan5two_d4vectIfEES4_5color>
 8003fbe:	2202      	movs	r2, #2
 8003fc0:	a80e      	add	r0, sp, #56	; 0x38
 8003fc2:	a910      	add	r1, sp, #64	; 0x40
 8003fc4:	940e      	str	r4, [sp, #56]	; 0x38
 8003fc6:	ed8d 8a0f 	vstr	s16, [sp, #60]	; 0x3c
 8003fca:	edcd 8a10 	vstr	s17, [sp, #64]	; 0x40
 8003fce:	ed8d 8a11 	vstr	s16, [sp, #68]	; 0x44
 8003fd2:	f000 fb61 	bl	8004698 <_Z14draw_line_bresRKN4quan5two_d4vectIfEES4_5color>
 8003fd6:	2202      	movs	r2, #2
 8003fd8:	a80e      	add	r0, sp, #56	; 0x38
 8003fda:	a910      	add	r1, sp, #64	; 0x40
 8003fdc:	940e      	str	r4, [sp, #56]	; 0x38
 8003fde:	940f      	str	r4, [sp, #60]	; 0x3c
 8003fe0:	9410      	str	r4, [sp, #64]	; 0x40
 8003fe2:	ed8d 8a11 	vstr	s16, [sp, #68]	; 0x44
 8003fe6:	f000 fb57 	bl	8004698 <_Z14draw_line_bresRKN4quan5two_d4vectIfEES4_5color>
 8003fea:	edd6 4a00 	vldr	s9, [r6]
 8003fee:	edd5 5a00 	vldr	s11, [r5]
 8003ff2:	eef6 6a00 	vmov.f32	s13, #96	; 0x60
 8003ff6:	ed96 5a01 	vldr	s10, [r6, #4]
 8003ffa:	ee74 3aa5 	vadd.f32	s7, s9, s11
 8003ffe:	ed95 6a01 	vldr	s12, [r5, #4]
 8004002:	ee2a 0aa6 	vmul.f32	s0, s21, s13
 8004006:	ee35 4a06 	vadd.f32	s8, s10, s12
 800400a:	eeb4 0ae3 	vcmpe.f32	s0, s7
 800400e:	eef1 fa10 	vmrs	APSR_nzcv, fpscr
 8004012:	edc6 3a00 	vstr	s7, [r6]
 8004016:	ed86 4a01 	vstr	s8, [r6, #4]
 800401a:	f140 8180 	bpl.w	800431e <_Z7on_drawv+0xa02>
 800401e:	2200      	movs	r2, #0
 8004020:	f6cb 7280 	movt	r2, #49024	; 0xbf80
 8004024:	602a      	str	r2, [r5, #0]
 8004026:	eeb6 1a00 	vmov.f32	s2, #96	; 0x60
 800402a:	ee6b 1a01 	vmul.f32	s3, s22, s2
 800402e:	eef4 1ac4 	vcmpe.f32	s3, s8
 8004032:	eef1 fa10 	vmrs	APSR_nzcv, fpscr
 8004036:	f140 8167 	bpl.w	8004308 <_Z7on_drawv+0x9ec>
 800403a:	2100      	movs	r1, #0
 800403c:	f6cb 7180 	movt	r1, #49024	; 0xbf80
 8004040:	6069      	str	r1, [r5, #4]
 8004042:	4da3      	ldr	r5, [pc, #652]	; (80042d0 <_Z7on_drawv+0x9b4>)
 8004044:	eddf 8aa3 	vldr	s17, [pc, #652]	; 80042d4 <_Z7on_drawv+0x9b8>
 8004048:	7828      	ldrb	r0, [r5, #0]
 800404a:	eeb0 8a68 	vmov.f32	s16, s17
 800404e:	b330      	cbz	r0, 800409e <_Z7on_drawv+0x782>
 8004050:	f7fe fff4 	bl	800303c <_Z13get_font_charc>
 8004054:	4604      	mov	r4, r0
 8004056:	4601      	mov	r1, r0
 8004058:	a808      	add	r0, sp, #32
 800405a:	b1c4      	cbz	r4, 800408e <_Z7on_drawv+0x772>
 800405c:	6822      	ldr	r2, [r4, #0]
 800405e:	6813      	ldr	r3, [r2, #0]
 8004060:	4798      	blx	r3
 8004062:	eddd 7a08 	vldr	s15, [sp, #32]
 8004066:	6820      	ldr	r0, [r4, #0]
 8004068:	eeb8 7a67 	vcvt.f32.u32	s14, s15
 800406c:	6802      	ldr	r2, [r0, #0]
 800406e:	4621      	mov	r1, r4
 8004070:	a808      	add	r0, sp, #32
 8004072:	ee78 8a87 	vadd.f32	s17, s17, s14
 8004076:	4790      	blx	r2
 8004078:	eddd 2a09 	vldr	s5, [sp, #36]	; 0x24
 800407c:	eeb8 3ae2 	vcvt.f32.s32	s6, s5
 8004080:	eeb4 3a48 	vcmp.f32	s6, s16
 8004084:	eef1 fa10 	vmrs	APSR_nzcv, fpscr
 8004088:	bfc8      	it	gt
 800408a:	eeb0 8a43 	vmovgt.f32	s16, s6
 800408e:	f815 0f01 	ldrb.w	r0, [r5, #1]!
 8004092:	2800      	cmp	r0, #0
 8004094:	d1dc      	bne.n	8004050 <_Z7on_drawv+0x734>
 8004096:	edd6 3a00 	vldr	s7, [r6]
 800409a:	ed96 4a01 	vldr	s8, [r6, #4]
 800409e:	eef0 4a00 	vmov.f32	s9, #0
 80040a2:	ee88 5aa4 	vdiv.f32	s10, s17, s9
 80040a6:	a810      	add	r0, sp, #64	; 0x40
 80040a8:	4989      	ldr	r1, [pc, #548]	; (80042d0 <_Z7on_drawv+0x9b4>)
 80040aa:	eec8 5a24 	vdiv.f32	s11, s16, s9
 80040ae:	ee39 6ac5 	vsub.f32	s12, s19, s10
 80040b2:	ee7a 6a65 	vsub.f32	s13, s20, s11
 80040b6:	ee36 0a23 	vadd.f32	s0, s12, s7
 80040ba:	ee76 0a84 	vadd.f32	s1, s13, s8
 80040be:	ed8d 0a10 	vstr	s0, [sp, #64]	; 0x40
 80040c2:	edcd 0a11 	vstr	s1, [sp, #68]	; 0x44
 80040c6:	f000 fab9 	bl	800463c <_Z9draw_textRKN4quan5two_d4vectIfEEPKc>
 80040ca:	eef1 1a04 	vmov.f32	s3, #20
 80040ce:	eeb6 1a00 	vmov.f32	s2, #96	; 0x60
 80040d2:	eeb0 2a61 	vmov.f32	s4, s3
 80040d6:	ee08 2a81 	vmla.f32	s4, s17, s2
 80040da:	ee48 1a01 	vmla.f32	s3, s16, s2
 80040de:	edd6 7a01 	vldr	s15, [r6, #4]
 80040e2:	ed96 8a00 	vldr	s16, [r6]
 80040e6:	ee3a aa27 	vadd.f32	s20, s20, s15
 80040ea:	ee79 9a88 	vadd.f32	s19, s19, s16
 80040ee:	ee3a 7a61 	vsub.f32	s14, s20, s3
 80040f2:	ee79 2ac2 	vsub.f32	s5, s19, s4
 80040f6:	ee31 aa8a 	vadd.f32	s20, s3, s20
 80040fa:	ee72 9a29 	vadd.f32	s19, s4, s19
 80040fe:	a80a      	add	r0, sp, #40	; 0x28
 8004100:	a90c      	add	r1, sp, #48	; 0x30
 8004102:	2202      	movs	r2, #2
 8004104:	edcd 2a0a 	vstr	s5, [sp, #40]	; 0x28
 8004108:	ed8d 7a0b 	vstr	s14, [sp, #44]	; 0x2c
 800410c:	ed8d 7a0d 	vstr	s14, [sp, #52]	; 0x34
 8004110:	edcd 2a10 	vstr	s5, [sp, #64]	; 0x40
 8004114:	edcd 9a0c 	vstr	s19, [sp, #48]	; 0x30
 8004118:	edcd 9a0e 	vstr	s19, [sp, #56]	; 0x38
 800411c:	ed8d aa0f 	vstr	s20, [sp, #60]	; 0x3c
 8004120:	ed8d aa11 	vstr	s20, [sp, #68]	; 0x44
 8004124:	f000 fab8 	bl	8004698 <_Z14draw_line_bresRKN4quan5two_d4vectIfEES4_5color>
 8004128:	a80c      	add	r0, sp, #48	; 0x30
 800412a:	a90e      	add	r1, sp, #56	; 0x38
 800412c:	2202      	movs	r2, #2
 800412e:	f000 fab3 	bl	8004698 <_Z14draw_line_bresRKN4quan5two_d4vectIfEES4_5color>
 8004132:	a810      	add	r0, sp, #64	; 0x40
 8004134:	a90e      	add	r1, sp, #56	; 0x38
 8004136:	2202      	movs	r2, #2
 8004138:	f000 faae 	bl	8004698 <_Z14draw_line_bresRKN4quan5two_d4vectIfEES4_5color>
 800413c:	a80a      	add	r0, sp, #40	; 0x28
 800413e:	a910      	add	r1, sp, #64	; 0x40
 8004140:	2202      	movs	r2, #2
 8004142:	f000 faa9 	bl	8004698 <_Z14draw_line_bresRKN4quan5two_d4vectIfEES4_5color>
 8004146:	ed9d 3a0a 	vldr	s6, [sp, #40]	; 0x28
 800414a:	ed9d 4a0b 	vldr	s8, [sp, #44]	; 0x2c
 800414e:	ed9d 5a0c 	vldr	s10, [sp, #48]	; 0x30
 8004152:	eddd 5a0d 	vldr	s11, [sp, #52]	; 0x34
 8004156:	ed9d 6a0e 	vldr	s12, [sp, #56]	; 0x38
 800415a:	eddd 6a0f 	vldr	s13, [sp, #60]	; 0x3c
 800415e:	ed9d 2a10 	vldr	s4, [sp, #64]	; 0x40
 8004162:	eddd 7a11 	vldr	s15, [sp, #68]	; 0x44
 8004166:	eeb7 8a00 	vmov.f32	s16, #112	; 0x70
 800416a:	ee73 3a48 	vsub.f32	s7, s6, s16
 800416e:	ee74 4a48 	vsub.f32	s9, s8, s16
 8004172:	ee35 0a08 	vadd.f32	s0, s10, s16
 8004176:	ee75 0ac8 	vsub.f32	s1, s11, s16
 800417a:	ee36 1a08 	vadd.f32	s2, s12, s16
 800417e:	ee76 1a88 	vadd.f32	s3, s13, s16
 8004182:	ee72 2a48 	vsub.f32	s5, s4, s16
 8004186:	ee37 7a88 	vadd.f32	s14, s15, s16
 800418a:	a80a      	add	r0, sp, #40	; 0x28
 800418c:	a90c      	add	r1, sp, #48	; 0x30
 800418e:	2202      	movs	r2, #2
 8004190:	edcd 3a0a 	vstr	s7, [sp, #40]	; 0x28
 8004194:	edcd 4a0b 	vstr	s9, [sp, #44]	; 0x2c
 8004198:	ed8d 0a0c 	vstr	s0, [sp, #48]	; 0x30
 800419c:	edcd 0a0d 	vstr	s1, [sp, #52]	; 0x34
 80041a0:	ed8d 1a0e 	vstr	s2, [sp, #56]	; 0x38
 80041a4:	edcd 1a0f 	vstr	s3, [sp, #60]	; 0x3c
 80041a8:	edcd 2a10 	vstr	s5, [sp, #64]	; 0x40
 80041ac:	ed8d 7a11 	vstr	s14, [sp, #68]	; 0x44
 80041b0:	f000 fa72 	bl	8004698 <_Z14draw_line_bresRKN4quan5two_d4vectIfEES4_5color>
 80041b4:	a80c      	add	r0, sp, #48	; 0x30
 80041b6:	a90e      	add	r1, sp, #56	; 0x38
 80041b8:	2202      	movs	r2, #2
 80041ba:	f000 fa6d 	bl	8004698 <_Z14draw_line_bresRKN4quan5two_d4vectIfEES4_5color>
 80041be:	a810      	add	r0, sp, #64	; 0x40
 80041c0:	a90e      	add	r1, sp, #56	; 0x38
 80041c2:	2202      	movs	r2, #2
 80041c4:	f000 fa68 	bl	8004698 <_Z14draw_line_bresRKN4quan5two_d4vectIfEES4_5color>
 80041c8:	a80a      	add	r0, sp, #40	; 0x28
 80041ca:	a910      	add	r1, sp, #64	; 0x40
 80041cc:	2202      	movs	r2, #2
 80041ce:	f000 fa63 	bl	8004698 <_Z14draw_line_bresRKN4quan5two_d4vectIfEES4_5color>
 80041d2:	ed9d 3a0a 	vldr	s6, [sp, #40]	; 0x28
 80041d6:	ed9d 4a0b 	vldr	s8, [sp, #44]	; 0x2c
 80041da:	ed9d 5a0c 	vldr	s10, [sp, #48]	; 0x30
 80041de:	eddd 5a0d 	vldr	s11, [sp, #52]	; 0x34
 80041e2:	ed9d 6a0e 	vldr	s12, [sp, #56]	; 0x38
 80041e6:	eddd 6a0f 	vldr	s13, [sp, #60]	; 0x3c
 80041ea:	ed9d 2a10 	vldr	s4, [sp, #64]	; 0x40
 80041ee:	eddd 7a11 	vldr	s15, [sp, #68]	; 0x44
 80041f2:	ee73 3a48 	vsub.f32	s7, s6, s16
 80041f6:	ee37 7a88 	vadd.f32	s14, s15, s16
 80041fa:	ee74 4a48 	vsub.f32	s9, s8, s16
 80041fe:	ee35 0a08 	vadd.f32	s0, s10, s16
 8004202:	ee75 0ac8 	vsub.f32	s1, s11, s16
 8004206:	ee36 1a08 	vadd.f32	s2, s12, s16
 800420a:	ee76 1a88 	vadd.f32	s3, s13, s16
 800420e:	ee72 2a48 	vsub.f32	s5, s4, s16
 8004212:	a80a      	add	r0, sp, #40	; 0x28
 8004214:	a90c      	add	r1, sp, #48	; 0x30
 8004216:	2201      	movs	r2, #1
 8004218:	ed8d 7a11 	vstr	s14, [sp, #68]	; 0x44
 800421c:	edcd 3a0a 	vstr	s7, [sp, #40]	; 0x28
 8004220:	edcd 4a0b 	vstr	s9, [sp, #44]	; 0x2c
 8004224:	ed8d 0a0c 	vstr	s0, [sp, #48]	; 0x30
 8004228:	edcd 0a0d 	vstr	s1, [sp, #52]	; 0x34
 800422c:	ed8d 1a0e 	vstr	s2, [sp, #56]	; 0x38
 8004230:	edcd 1a0f 	vstr	s3, [sp, #60]	; 0x3c
 8004234:	edcd 2a10 	vstr	s5, [sp, #64]	; 0x40
 8004238:	f000 fa2e 	bl	8004698 <_Z14draw_line_bresRKN4quan5two_d4vectIfEES4_5color>
 800423c:	a80c      	add	r0, sp, #48	; 0x30
 800423e:	a90e      	add	r1, sp, #56	; 0x38
 8004240:	2201      	movs	r2, #1
 8004242:	f000 fa29 	bl	8004698 <_Z14draw_line_bresRKN4quan5two_d4vectIfEES4_5color>
 8004246:	a810      	add	r0, sp, #64	; 0x40
 8004248:	a90e      	add	r1, sp, #56	; 0x38
 800424a:	2201      	movs	r2, #1
 800424c:	f000 fa24 	bl	8004698 <_Z14draw_line_bresRKN4quan5two_d4vectIfEES4_5color>
 8004250:	a80a      	add	r0, sp, #40	; 0x28
 8004252:	a910      	add	r1, sp, #64	; 0x40
 8004254:	2201      	movs	r2, #1
 8004256:	f000 fa1f 	bl	8004698 <_Z14draw_line_bresRKN4quan5two_d4vectIfEES4_5color>
 800425a:	ed9d 3a0a 	vldr	s6, [sp, #40]	; 0x28
 800425e:	ed9d 4a0b 	vldr	s8, [sp, #44]	; 0x2c
 8004262:	ed9d 5a0c 	vldr	s10, [sp, #48]	; 0x30
 8004266:	eddd 5a0d 	vldr	s11, [sp, #52]	; 0x34
 800426a:	ed9d 6a0e 	vldr	s12, [sp, #56]	; 0x38
 800426e:	eddd 6a0f 	vldr	s13, [sp, #60]	; 0x3c
 8004272:	ed9d 2a10 	vldr	s4, [sp, #64]	; 0x40
 8004276:	eddd 7a11 	vldr	s15, [sp, #68]	; 0x44
 800427a:	ee73 3a48 	vsub.f32	s7, s6, s16
 800427e:	ee74 4a48 	vsub.f32	s9, s8, s16
 8004282:	ee35 0a08 	vadd.f32	s0, s10, s16
 8004286:	ee75 0ac8 	vsub.f32	s1, s11, s16
 800428a:	ee36 1a08 	vadd.f32	s2, s12, s16
 800428e:	ee76 1a88 	vadd.f32	s3, s13, s16
 8004292:	ee72 2a48 	vsub.f32	s5, s4, s16
 8004296:	ee37 8a88 	vadd.f32	s16, s15, s16
 800429a:	a80a      	add	r0, sp, #40	; 0x28
 800429c:	a90c      	add	r1, sp, #48	; 0x30
 800429e:	2201      	movs	r2, #1
 80042a0:	edcd 3a0a 	vstr	s7, [sp, #40]	; 0x28
 80042a4:	edcd 4a0b 	vstr	s9, [sp, #44]	; 0x2c
 80042a8:	ed8d 0a0c 	vstr	s0, [sp, #48]	; 0x30
 80042ac:	edcd 0a0d 	vstr	s1, [sp, #52]	; 0x34
 80042b0:	ed8d 1a0e 	vstr	s2, [sp, #56]	; 0x38
 80042b4:	edcd 1a0f 	vstr	s3, [sp, #60]	; 0x3c
 80042b8:	edcd 2a10 	vstr	s5, [sp, #64]	; 0x40
 80042bc:	e00c      	b.n	80042d8 <_Z7on_drawv+0x9bc>
 80042be:	bf00      	nop
 80042c0:	3f99999a 	.word	0x3f99999a
 80042c4:	43b40000 	.word	0x43b40000
 80042c8:	10000a94 	.word	0x10000a94
 80042cc:	10000194 	.word	0x10000194
 80042d0:	10000a9c 	.word	0x10000a9c
 80042d4:	00000000 	.word	0x00000000
 80042d8:	ed8d 8a11 	vstr	s16, [sp, #68]	; 0x44
 80042dc:	f000 f9dc 	bl	8004698 <_Z14draw_line_bresRKN4quan5two_d4vectIfEES4_5color>
 80042e0:	a80c      	add	r0, sp, #48	; 0x30
 80042e2:	a90e      	add	r1, sp, #56	; 0x38
 80042e4:	2201      	movs	r2, #1
 80042e6:	f000 f9d7 	bl	8004698 <_Z14draw_line_bresRKN4quan5two_d4vectIfEES4_5color>
 80042ea:	a810      	add	r0, sp, #64	; 0x40
 80042ec:	a90e      	add	r1, sp, #56	; 0x38
 80042ee:	2201      	movs	r2, #1
 80042f0:	f000 f9d2 	bl	8004698 <_Z14draw_line_bresRKN4quan5two_d4vectIfEES4_5color>
 80042f4:	a80a      	add	r0, sp, #40	; 0x28
 80042f6:	a910      	add	r1, sp, #64	; 0x40
 80042f8:	2201      	movs	r2, #1
 80042fa:	f000 f9cd 	bl	8004698 <_Z14draw_line_bresRKN4quan5two_d4vectIfEES4_5color>
 80042fe:	b013      	add	sp, #76	; 0x4c
 8004300:	ecbd 8b08 	vpop	{d8-d11}
 8004304:	e8bd 8ff0 	ldmia.w	sp!, {r4, r5, r6, r7, r8, r9, sl, fp, pc}
 8004308:	ee2b 2a41 	vnmul.f32	s4, s22, s2
 800430c:	eeb4 2ac4 	vcmpe.f32	s4, s8
 8004310:	eef1 fa10 	vmrs	APSR_nzcv, fpscr
 8004314:	bfc4      	itt	gt
 8004316:	f04f 527e 	movgt.w	r2, #1065353216	; 0x3f800000
 800431a:	606a      	strgt	r2, [r5, #4]
 800431c:	e691      	b.n	8004042 <_Z7on_drawv+0x726>
 800431e:	ee6a 0ae6 	vnmul.f32	s1, s21, s13
 8004322:	eef4 0ae3 	vcmpe.f32	s1, s7
 8004326:	eef1 fa10 	vmrs	APSR_nzcv, fpscr
 800432a:	bfc8      	it	gt
 800432c:	ed85 9a00 	vstrgt	s18, [r5]
 8004330:	e679      	b.n	8004026 <_Z7on_drawv+0x70a>
 8004332:	f6bf ae1f 	bge.w	8003f74 <_Z7on_drawv+0x658>
 8004336:	f640 2280 	movw	r2, #2688	; 0xa80
 800433a:	f2c1 0200 	movt	r2, #4096	; 0x1000
 800433e:	ed82 3a00 	vstr	s6, [r2]
 8004342:	e61d      	b.n	8003f80 <_Z7on_drawv+0x664>

08004344 <_GLOBAL__sub_I__Z13set_text_dataPKc>:
 8004344:	f640 2070 	movw	r0, #2672	; 0xa70
 8004348:	f640 218c 	movw	r1, #2700	; 0xa8c
 800434c:	f640 2278 	movw	r2, #2680	; 0xa78
 8004350:	f640 2384 	movw	r3, #2692	; 0xa84
 8004354:	b430      	push	{r4, r5}
 8004356:	f2c1 0000 	movt	r0, #4096	; 0x1000
 800435a:	f2c1 0100 	movt	r1, #4096	; 0x1000
 800435e:	f2c1 0200 	movt	r2, #4096	; 0x1000
 8004362:	f2c1 0300 	movt	r3, #4096	; 0x1000
 8004366:	2400      	movs	r4, #0
 8004368:	2500      	movs	r5, #0
 800436a:	f2cc 3416 	movt	r4, #49942	; 0xc316
 800436e:	f2c4 3516 	movt	r5, #17174	; 0x4316
 8004372:	6004      	str	r4, [r0, #0]
 8004374:	6045      	str	r5, [r0, #4]
 8004376:	600d      	str	r5, [r1, #0]
 8004378:	604d      	str	r5, [r1, #4]
 800437a:	6015      	str	r5, [r2, #0]
 800437c:	6054      	str	r4, [r2, #4]
 800437e:	601c      	str	r4, [r3, #0]
 8004380:	605c      	str	r4, [r3, #4]
 8004382:	bc30      	pop	{r4, r5}
 8004384:	4770      	bx	lr
 8004386:	bf00      	nop

08004388 <_Z13output_bitmapP10abc_bitmapIhERKN4quan5two_d4vectIlEE>:
 8004388:	e92d 4ff0 	stmdb	sp!, {r4, r5, r6, r7, r8, r9, sl, fp, lr}
 800438c:	4606      	mov	r6, r0
 800438e:	b089      	sub	sp, #36	; 0x24
 8004390:	460c      	mov	r4, r1
 8004392:	2800      	cmp	r0, #0
 8004394:	f000 814c 	beq.w	8004630 <_Z13output_bitmapP10abc_bitmapIhERKN4quan5two_d4vectIlEE+0x2a8>
 8004398:	6803      	ldr	r3, [r0, #0]
 800439a:	4601      	mov	r1, r0
 800439c:	681a      	ldr	r2, [r3, #0]
 800439e:	a806      	add	r0, sp, #24
 80043a0:	4790      	blx	r2
 80043a2:	9907      	ldr	r1, [sp, #28]
 80043a4:	6830      	ldr	r0, [r6, #0]
 80043a6:	9104      	str	r1, [sp, #16]
 80043a8:	6845      	ldr	r5, [r0, #4]
 80043aa:	f8dd b018 	ldr.w	fp, [sp, #24]
 80043ae:	4630      	mov	r0, r6
 80043b0:	47a8      	blx	r5
 80043b2:	6833      	ldr	r3, [r6, #0]
 80043b4:	4605      	mov	r5, r0
 80043b6:	689a      	ldr	r2, [r3, #8]
 80043b8:	4630      	mov	r0, r6
 80043ba:	4790      	blx	r2
 80043bc:	9904      	ldr	r1, [sp, #16]
 80043be:	2900      	cmp	r1, #0
 80043c0:	f000 8136 	beq.w	8004630 <_Z13output_bitmapP10abc_bitmapIhERKN4quan5two_d4vectIlEE+0x2a8>
 80043c4:	2600      	movs	r6, #0
 80043c6:	fb0b f705 	mul.w	r7, fp, r5
 80043ca:	f8df c26c 	ldr.w	ip, [pc, #620]	; 8004638 <_Z13output_bitmapP10abc_bitmapIhERKN4quan5two_d4vectIlEE+0x2b0>
 80043ce:	9602      	str	r6, [sp, #8]
 80043d0:	9705      	str	r7, [sp, #20]
 80043d2:	4631      	mov	r1, r6
 80043d4:	f1bb 0f00 	cmp.w	fp, #0
 80043d8:	f000 811e 	beq.w	8004618 <_Z13output_bitmapP10abc_bitmapIhERKN4quan5two_d4vectIlEE+0x290>
 80043dc:	9e02      	ldr	r6, [sp, #8]
 80043de:	08f2      	lsrs	r2, r6, #3
 80043e0:	f006 0307 	and.w	r3, r6, #7
 80043e4:	5c86      	ldrb	r6, [r0, r2]
 80043e6:	fa46 f203 	asr.w	r2, r6, r3
 80043ea:	f002 0303 	and.w	r3, r2, #3
 80043ee:	f10b 36ff 	add.w	r6, fp, #4294967295
 80043f2:	2b03      	cmp	r3, #3
 80043f4:	f006 0601 	and.w	r6, r6, #1
 80043f8:	d033      	beq.n	8004462 <_Z13output_bitmapP10abc_bitmapIhERKN4quan5two_d4vectIlEE+0xda>
 80043fa:	f8d4 8000 	ldr.w	r8, [r4]
 80043fe:	6867      	ldr	r7, [r4, #4]
 8004400:	f1b8 0f00 	cmp.w	r8, #0
 8004404:	440f      	add	r7, r1
 8004406:	db2c      	blt.n	8004462 <_Z13output_bitmapP10abc_bitmapIhERKN4quan5two_d4vectIlEE+0xda>
 8004408:	2f00      	cmp	r7, #0
 800440a:	db2a      	blt.n	8004462 <_Z13output_bitmapP10abc_bitmapIhERKN4quan5two_d4vectIlEE+0xda>
 800440c:	f8dc 2004 	ldr.w	r2, [ip, #4]
 8004410:	3a01      	subs	r2, #1
 8004412:	4297      	cmp	r7, r2
 8004414:	d825      	bhi.n	8004462 <_Z13output_bitmapP10abc_bitmapIhERKN4quan5two_d4vectIlEE+0xda>
 8004416:	f8dc 2000 	ldr.w	r2, [ip]
 800441a:	f102 39ff 	add.w	r9, r2, #4294967295
 800441e:	45c8      	cmp	r8, r9
 8004420:	9203      	str	r2, [sp, #12]
 8004422:	d81e      	bhi.n	8004462 <_Z13output_bitmapP10abc_bitmapIhERKN4quan5two_d4vectIlEE+0xda>
 8004424:	f640 2244 	movw	r2, #2628	; 0xa44
 8004428:	f2c1 0200 	movt	r2, #4096	; 0x1000
 800442c:	f8d2 a004 	ldr.w	sl, [r2, #4]
 8004430:	6852      	ldr	r2, [r2, #4]
 8004432:	9201      	str	r2, [sp, #4]
 8004434:	f8da 2000 	ldr.w	r2, [sl]
 8004438:	9200      	str	r2, [sp, #0]
 800443a:	9a03      	ldr	r2, [sp, #12]
 800443c:	3208      	adds	r2, #8
 800443e:	9203      	str	r2, [sp, #12]
 8004440:	f8dd a00c 	ldr.w	sl, [sp, #12]
 8004444:	9a01      	ldr	r2, [sp, #4]
 8004446:	fb0a 8707 	mla	r7, sl, r7, r8
 800444a:	f502 4ef8 	add.w	lr, r2, #31744	; 0x7c00
 800444e:	f8dd 8000 	ldr.w	r8, [sp]
 8004452:	1c7a      	adds	r2, r7, #1
 8004454:	f8de 7000 	ldr.w	r7, [lr]
 8004458:	f848 3022 	str.w	r3, [r8, r2, lsl #2]
 800445c:	105b      	asrs	r3, r3, #1
 800445e:	f847 3022 	str.w	r3, [r7, r2, lsl #2]
 8004462:	2301      	movs	r3, #1
 8004464:	f8dd 9008 	ldr.w	r9, [sp, #8]
 8004468:	455b      	cmp	r3, fp
 800446a:	eb09 0205 	add.w	r2, r9, r5
 800446e:	f000 80d3 	beq.w	8004618 <_Z13output_bitmapP10abc_bitmapIhERKN4quan5two_d4vectIlEE+0x290>
 8004472:	2e00      	cmp	r6, #0
 8004474:	d044      	beq.n	8004500 <_Z13output_bitmapP10abc_bitmapIhERKN4quan5two_d4vectIlEE+0x178>
 8004476:	08d7      	lsrs	r7, r2, #3
 8004478:	f002 0607 	and.w	r6, r2, #7
 800447c:	f810 e007 	ldrb.w	lr, [r0, r7]
 8004480:	fa4e f806 	asr.w	r8, lr, r6
 8004484:	f008 0e03 	and.w	lr, r8, #3
 8004488:	f1be 0f03 	cmp.w	lr, #3
 800448c:	d033      	beq.n	80044f6 <_Z13output_bitmapP10abc_bitmapIhERKN4quan5two_d4vectIlEE+0x16e>
 800448e:	e894 00c0 	ldmia.w	r4, {r6, r7}
 8004492:	eb13 0a06 	adds.w	sl, r3, r6
 8004496:	440f      	add	r7, r1
 8004498:	d42d      	bmi.n	80044f6 <_Z13output_bitmapP10abc_bitmapIhERKN4quan5two_d4vectIlEE+0x16e>
 800449a:	2f00      	cmp	r7, #0
 800449c:	db2b      	blt.n	80044f6 <_Z13output_bitmapP10abc_bitmapIhERKN4quan5two_d4vectIlEE+0x16e>
 800449e:	f8dc 6004 	ldr.w	r6, [ip, #4]
 80044a2:	3e01      	subs	r6, #1
 80044a4:	42b7      	cmp	r7, r6
 80044a6:	d826      	bhi.n	80044f6 <_Z13output_bitmapP10abc_bitmapIhERKN4quan5two_d4vectIlEE+0x16e>
 80044a8:	f8dc 6000 	ldr.w	r6, [ip]
 80044ac:	f106 39ff 	add.w	r9, r6, #4294967295
 80044b0:	45ca      	cmp	sl, r9
 80044b2:	9603      	str	r6, [sp, #12]
 80044b4:	d81f      	bhi.n	80044f6 <_Z13output_bitmapP10abc_bitmapIhERKN4quan5two_d4vectIlEE+0x16e>
 80044b6:	f640 2644 	movw	r6, #2628	; 0xa44
 80044ba:	f2c1 0600 	movt	r6, #4096	; 0x1000
 80044be:	6876      	ldr	r6, [r6, #4]
 80044c0:	9601      	str	r6, [sp, #4]
 80044c2:	f640 2644 	movw	r6, #2628	; 0xa44
 80044c6:	f2c1 0600 	movt	r6, #4096	; 0x1000
 80044ca:	f8d6 8004 	ldr.w	r8, [r6, #4]
 80044ce:	9e01      	ldr	r6, [sp, #4]
 80044d0:	6836      	ldr	r6, [r6, #0]
 80044d2:	9601      	str	r6, [sp, #4]
 80044d4:	9e03      	ldr	r6, [sp, #12]
 80044d6:	3608      	adds	r6, #8
 80044d8:	f508 49f8 	add.w	r9, r8, #31744	; 0x7c00
 80044dc:	fb06 a707 	mla	r7, r6, r7, sl
 80044e0:	18fe      	adds	r6, r7, r3
 80044e2:	f8dd 8004 	ldr.w	r8, [sp, #4]
 80044e6:	f8d9 7000 	ldr.w	r7, [r9]
 80044ea:	f848 e026 	str.w	lr, [r8, r6, lsl #2]
 80044ee:	fa4e fe03 	asr.w	lr, lr, r3
 80044f2:	f847 e026 	str.w	lr, [r7, r6, lsl #2]
 80044f6:	3301      	adds	r3, #1
 80044f8:	455b      	cmp	r3, fp
 80044fa:	442a      	add	r2, r5
 80044fc:	f000 808c 	beq.w	8004618 <_Z13output_bitmapP10abc_bitmapIhERKN4quan5two_d4vectIlEE+0x290>
 8004500:	08d7      	lsrs	r7, r2, #3
 8004502:	f002 0607 	and.w	r6, r2, #7
 8004506:	f810 9007 	ldrb.w	r9, [r0, r7]
 800450a:	fa49 fe06 	asr.w	lr, r9, r6
 800450e:	f00e 0803 	and.w	r8, lr, #3
 8004512:	f1b8 0f03 	cmp.w	r8, #3
 8004516:	d036      	beq.n	8004586 <_Z13output_bitmapP10abc_bitmapIhERKN4quan5two_d4vectIlEE+0x1fe>
 8004518:	e894 00c0 	ldmia.w	r4, {r6, r7}
 800451c:	199e      	adds	r6, r3, r6
 800451e:	440f      	add	r7, r1
 8004520:	9600      	str	r6, [sp, #0]
 8004522:	d430      	bmi.n	8004586 <_Z13output_bitmapP10abc_bitmapIhERKN4quan5two_d4vectIlEE+0x1fe>
 8004524:	2f00      	cmp	r7, #0
 8004526:	db2e      	blt.n	8004586 <_Z13output_bitmapP10abc_bitmapIhERKN4quan5two_d4vectIlEE+0x1fe>
 8004528:	f8dc 6004 	ldr.w	r6, [ip, #4]
 800452c:	f106 39ff 	add.w	r9, r6, #4294967295
 8004530:	454f      	cmp	r7, r9
 8004532:	d828      	bhi.n	8004586 <_Z13output_bitmapP10abc_bitmapIhERKN4quan5two_d4vectIlEE+0x1fe>
 8004534:	f8dc e000 	ldr.w	lr, [ip]
 8004538:	9e00      	ldr	r6, [sp, #0]
 800453a:	f10e 3aff 	add.w	sl, lr, #4294967295
 800453e:	4556      	cmp	r6, sl
 8004540:	d821      	bhi.n	8004586 <_Z13output_bitmapP10abc_bitmapIhERKN4quan5two_d4vectIlEE+0x1fe>
 8004542:	f640 2644 	movw	r6, #2628	; 0xa44
 8004546:	f2c1 0600 	movt	r6, #4096	; 0x1000
 800454a:	f10e 0908 	add.w	r9, lr, #8
 800454e:	f8d6 a004 	ldr.w	sl, [r6, #4]
 8004552:	6876      	ldr	r6, [r6, #4]
 8004554:	f8dd e000 	ldr.w	lr, [sp]
 8004558:	9601      	str	r6, [sp, #4]
 800455a:	f8da 6000 	ldr.w	r6, [sl]
 800455e:	9603      	str	r6, [sp, #12]
 8004560:	9e01      	ldr	r6, [sp, #4]
 8004562:	f506 46f8 	add.w	r6, r6, #31744	; 0x7c00
 8004566:	9601      	str	r6, [sp, #4]
 8004568:	f8dd a004 	ldr.w	sl, [sp, #4]
 800456c:	fb09 e707 	mla	r7, r9, r7, lr
 8004570:	1c7e      	adds	r6, r7, #1
 8004572:	f8da 7000 	ldr.w	r7, [sl]
 8004576:	f8dd a00c 	ldr.w	sl, [sp, #12]
 800457a:	f84a 8026 	str.w	r8, [sl, r6, lsl #2]
 800457e:	ea4f 0868 	mov.w	r8, r8, asr #1
 8004582:	f847 8026 	str.w	r8, [r7, r6, lsl #2]
 8004586:	1952      	adds	r2, r2, r5
 8004588:	08d7      	lsrs	r7, r2, #3
 800458a:	f002 0607 	and.w	r6, r2, #7
 800458e:	5dc7      	ldrb	r7, [r0, r7]
 8004590:	fa47 f606 	asr.w	r6, r7, r6
 8004594:	f006 0603 	and.w	r6, r6, #3
 8004598:	3301      	adds	r3, #1
 800459a:	2e03      	cmp	r6, #3
 800459c:	d0ab      	beq.n	80044f6 <_Z13output_bitmapP10abc_bitmapIhERKN4quan5two_d4vectIlEE+0x16e>
 800459e:	6867      	ldr	r7, [r4, #4]
 80045a0:	eb01 0e07 	add.w	lr, r1, r7
 80045a4:	6827      	ldr	r7, [r4, #0]
 80045a6:	19df      	adds	r7, r3, r7
 80045a8:	9700      	str	r7, [sp, #0]
 80045aa:	d4a4      	bmi.n	80044f6 <_Z13output_bitmapP10abc_bitmapIhERKN4quan5two_d4vectIlEE+0x16e>
 80045ac:	f1be 0f00 	cmp.w	lr, #0
 80045b0:	dba1      	blt.n	80044f6 <_Z13output_bitmapP10abc_bitmapIhERKN4quan5two_d4vectIlEE+0x16e>
 80045b2:	f8dc 7004 	ldr.w	r7, [ip, #4]
 80045b6:	f107 39ff 	add.w	r9, r7, #4294967295
 80045ba:	45ce      	cmp	lr, r9
 80045bc:	d89b      	bhi.n	80044f6 <_Z13output_bitmapP10abc_bitmapIhERKN4quan5two_d4vectIlEE+0x16e>
 80045be:	f8dc 8000 	ldr.w	r8, [ip]
 80045c2:	9f00      	ldr	r7, [sp, #0]
 80045c4:	f108 3aff 	add.w	sl, r8, #4294967295
 80045c8:	4557      	cmp	r7, sl
 80045ca:	d894      	bhi.n	80044f6 <_Z13output_bitmapP10abc_bitmapIhERKN4quan5two_d4vectIlEE+0x16e>
 80045cc:	f640 2744 	movw	r7, #2628	; 0xa44
 80045d0:	f2c1 0700 	movt	r7, #4096	; 0x1000
 80045d4:	f108 0908 	add.w	r9, r8, #8
 80045d8:	f8d7 a004 	ldr.w	sl, [r7, #4]
 80045dc:	687f      	ldr	r7, [r7, #4]
 80045de:	f8dd 8000 	ldr.w	r8, [sp]
 80045e2:	9703      	str	r7, [sp, #12]
 80045e4:	f8da 7000 	ldr.w	r7, [sl]
 80045e8:	9701      	str	r7, [sp, #4]
 80045ea:	9f03      	ldr	r7, [sp, #12]
 80045ec:	f8dd a004 	ldr.w	sl, [sp, #4]
 80045f0:	f507 47f8 	add.w	r7, r7, #31744	; 0x7c00
 80045f4:	9703      	str	r7, [sp, #12]
 80045f6:	fb09 870e 	mla	r7, r9, lr, r8
 80045fa:	f8dd e00c 	ldr.w	lr, [sp, #12]
 80045fe:	3701      	adds	r7, #1
 8004600:	f8de 9000 	ldr.w	r9, [lr]
 8004604:	f84a 6027 	str.w	r6, [sl, r7, lsl #2]
 8004608:	3301      	adds	r3, #1
 800460a:	1076      	asrs	r6, r6, #1
 800460c:	455b      	cmp	r3, fp
 800460e:	f849 6027 	str.w	r6, [r9, r7, lsl #2]
 8004612:	442a      	add	r2, r5
 8004614:	f47f af74 	bne.w	8004500 <_Z13output_bitmapP10abc_bitmapIhERKN4quan5two_d4vectIlEE+0x178>
 8004618:	f8dd 8008 	ldr.w	r8, [sp, #8]
 800461c:	f8dd 9014 	ldr.w	r9, [sp, #20]
 8004620:	9b04      	ldr	r3, [sp, #16]
 8004622:	3101      	adds	r1, #1
 8004624:	44c8      	add	r8, r9
 8004626:	4299      	cmp	r1, r3
 8004628:	f8cd 8008 	str.w	r8, [sp, #8]
 800462c:	f47f aed2 	bne.w	80043d4 <_Z13output_bitmapP10abc_bitmapIhERKN4quan5two_d4vectIlEE+0x4c>
 8004630:	b009      	add	sp, #36	; 0x24
 8004632:	e8bd 8ff0 	ldmia.w	sp!, {r4, r5, r6, r7, r8, r9, sl, fp, pc}
 8004636:	bf00      	nop
 8004638:	10000a64 	.word	0x10000a64

0800463c <_Z9draw_textRKN4quan5two_d4vectIfEEPKc>:
 800463c:	b530      	push	{r4, r5, lr}
 800463e:	ed90 7a01 	vldr	s14, [r0, #4]
 8004642:	edd0 6a00 	vldr	s13, [r0]
 8004646:	eef6 7a00 	vmov.f32	s15, #96	; 0x60
 800464a:	ee37 0a27 	vadd.f32	s0, s14, s15
 800464e:	ee76 0aa7 	vadd.f32	s1, s13, s15
 8004652:	eebd 1ac0 	vcvt.s32.f32	s2, s0
 8004656:	eefd 1ae0 	vcvt.s32.f32	s3, s1
 800465a:	7808      	ldrb	r0, [r1, #0]
 800465c:	b085      	sub	sp, #20
 800465e:	edcd 1a00 	vstr	s3, [sp]
 8004662:	ed8d 1a01 	vstr	s2, [sp, #4]
 8004666:	b1a0      	cbz	r0, 8004692 <_Z9draw_textRKN4quan5two_d4vectIfEEPKc+0x56>
 8004668:	460d      	mov	r5, r1
 800466a:	f7fe fce7 	bl	800303c <_Z13get_font_charc>
 800466e:	4669      	mov	r1, sp
 8004670:	4604      	mov	r4, r0
 8004672:	b150      	cbz	r0, 800468a <_Z9draw_textRKN4quan5two_d4vectIfEEPKc+0x4e>
 8004674:	f7ff fe88 	bl	8004388 <_Z13output_bitmapP10abc_bitmapIhERKN4quan5two_d4vectIlEE>
 8004678:	6823      	ldr	r3, [r4, #0]
 800467a:	a802      	add	r0, sp, #8
 800467c:	681a      	ldr	r2, [r3, #0]
 800467e:	4621      	mov	r1, r4
 8004680:	4790      	blx	r2
 8004682:	9900      	ldr	r1, [sp, #0]
 8004684:	9802      	ldr	r0, [sp, #8]
 8004686:	180b      	adds	r3, r1, r0
 8004688:	9300      	str	r3, [sp, #0]
 800468a:	f815 0f01 	ldrb.w	r0, [r5, #1]!
 800468e:	2800      	cmp	r0, #0
 8004690:	d1eb      	bne.n	800466a <_Z9draw_textRKN4quan5two_d4vectIfEEPKc+0x2e>
 8004692:	b005      	add	sp, #20
 8004694:	bd30      	pop	{r4, r5, pc}
 8004696:	bf00      	nop

08004698 <_Z14draw_line_bresRKN4quan5two_d4vectIfEES4_5color>:
 8004698:	ed91 6a01 	vldr	s12, [r1, #4]
 800469c:	ed91 4a00 	vldr	s8, [r1]
 80046a0:	edd0 5a01 	vldr	s11, [r0, #4]
 80046a4:	edd0 7a00 	vldr	s15, [r0]
 80046a8:	ee76 6a65 	vsub.f32	s13, s12, s11
 80046ac:	ee74 3a67 	vsub.f32	s7, s8, s15
 80046b0:	e92d 0ff0 	stmdb	sp!, {r4, r5, r6, r7, r8, r9, sl, fp}
 80046b4:	eeb0 3ae6 	vabs.f32	s6, s13
 80046b8:	eeb0 0ae3 	vabs.f32	s0, s7
 80046bc:	eeb4 3ac0 	vcmpe.f32	s6, s0
 80046c0:	eef1 fa10 	vmrs	APSR_nzcv, fpscr
 80046c4:	bfd4      	ite	le
 80046c6:	2100      	movle	r1, #0
 80046c8:	2101      	movgt	r1, #1
 80046ca:	b082      	sub	sp, #8
 80046cc:	2900      	cmp	r1, #0
 80046ce:	f040 80e7 	bne.w	80048a0 <_Z14draw_line_bresRKN4quan5two_d4vectIfEES4_5color+0x208>
 80046d2:	eef0 4a46 	vmov.f32	s9, s12
 80046d6:	eeb0 5a65 	vmov.f32	s10, s11
 80046da:	eeb0 0a43 	vmov.f32	s0, s6
 80046de:	eef0 6a63 	vmov.f32	s13, s7
 80046e2:	eeb0 6a44 	vmov.f32	s12, s8
 80046e6:	eef0 5a67 	vmov.f32	s11, s15
 80046ea:	eeb4 6ae5 	vcmpe.f32	s12, s11
 80046ee:	eef1 fa10 	vmrs	APSR_nzcv, fpscr
 80046f2:	d511      	bpl.n	8004718 <_Z14draw_line_bresRKN4quan5two_d4vectIfEES4_5color+0x80>
 80046f4:	ee35 7a64 	vsub.f32	s14, s10, s9
 80046f8:	eeb0 0a45 	vmov.f32	s0, s10
 80046fc:	eef0 0a65 	vmov.f32	s1, s11
 8004700:	ee75 6ac6 	vsub.f32	s13, s11, s12
 8004704:	eeb0 5a64 	vmov.f32	s10, s9
 8004708:	eef0 5a46 	vmov.f32	s11, s12
 800470c:	eef0 4a40 	vmov.f32	s9, s0
 8004710:	eeb0 6a60 	vmov.f32	s12, s1
 8004714:	eeb0 0ac7 	vabs.f32	s0, s14
 8004718:	eeb6 1a00 	vmov.f32	s2, #96	; 0x60
 800471c:	ee75 1a81 	vadd.f32	s3, s11, s2
 8004720:	ee36 2a01 	vadd.f32	s4, s12, s2
 8004724:	eebd 4ae1 	vcvt.s32.f32	s8, s3
 8004728:	eefd 7ac2 	vcvt.s32.f32	s15, s4
 800472c:	ee75 2a01 	vadd.f32	s5, s10, s2
 8004730:	eef4 4ac5 	vcmpe.f32	s9, s10
 8004734:	ee14 8a10 	vmov	r8, s8
 8004738:	ee17 4a90 	vmov	r4, s15
 800473c:	eef1 fa10 	vmrs	APSR_nzcv, fpscr
 8004740:	eefd 3ae2 	vcvt.s32.f32	s7, s5
 8004744:	bfcc      	ite	gt
 8004746:	2601      	movgt	r6, #1
 8004748:	f04f 36ff 	movle.w	r6, #4294967295
 800474c:	45a0      	cmp	r8, r4
 800474e:	ee26 3a81 	vmul.f32	s6, s13, s2
 8004752:	ee13 3a90 	vmov	r3, s7
 8004756:	f280 809f 	bge.w	8004898 <_Z14draw_line_bresRKN4quan5two_d4vectIfEES4_5color+0x200>
 800475a:	ea6f 0908 	mvn.w	r9, r8
 800475e:	b2d2      	uxtb	r2, r2
 8004760:	eb09 0a04 	add.w	sl, r9, r4
 8004764:	ea4f 0c62 	mov.w	ip, r2, asr #1
 8004768:	48c1      	ldr	r0, [pc, #772]	; (8004a70 <_Z14draw_line_bresRKN4quan5two_d4vectIfEES4_5color+0x3d8>)
 800476a:	4dc2      	ldr	r5, [pc, #776]	; (8004a74 <_Z14draw_line_bresRKN4quan5two_d4vectIfEES4_5color+0x3dc>)
 800476c:	f00a 0901 	and.w	r9, sl, #1
 8004770:	bb31      	cbnz	r1, 80047c0 <_Z14draw_line_bresRKN4quan5two_d4vectIfEES4_5color+0x128>
 8004772:	f1b8 0f00 	cmp.w	r8, #0
 8004776:	f2c0 8098 	blt.w	80048aa <_Z14draw_line_bresRKN4quan5two_d4vectIfEES4_5color+0x212>
 800477a:	2b00      	cmp	r3, #0
 800477c:	f2c0 8095 	blt.w	80048aa <_Z14draw_line_bresRKN4quan5two_d4vectIfEES4_5color+0x212>
 8004780:	6847      	ldr	r7, [r0, #4]
 8004782:	3f01      	subs	r7, #1
 8004784:	42bb      	cmp	r3, r7
 8004786:	f200 8090 	bhi.w	80048aa <_Z14draw_line_bresRKN4quan5two_d4vectIfEES4_5color+0x212>
 800478a:	6807      	ldr	r7, [r0, #0]
 800478c:	f107 3aff 	add.w	sl, r7, #4294967295
 8004790:	45d0      	cmp	r8, sl
 8004792:	f200 808a 	bhi.w	80048aa <_Z14draw_line_bresRKN4quan5two_d4vectIfEES4_5color+0x212>
 8004796:	f8d5 b004 	ldr.w	fp, [r5, #4]
 800479a:	f8d5 a004 	ldr.w	sl, [r5, #4]
 800479e:	f8db b000 	ldr.w	fp, [fp]
 80047a2:	3708      	adds	r7, #8
 80047a4:	f108 0801 	add.w	r8, r8, #1
 80047a8:	f50a 4af8 	add.w	sl, sl, #31744	; 0x7c00
 80047ac:	fb07 8703 	mla	r7, r7, r3, r8
 80047b0:	00bf      	lsls	r7, r7, #2
 80047b2:	f8da a000 	ldr.w	sl, [sl]
 80047b6:	f84b 2007 	str.w	r2, [fp, r7]
 80047ba:	f84a c007 	str.w	ip, [sl, r7]
 80047be:	e076      	b.n	80048ae <_Z14draw_line_bresRKN4quan5two_d4vectIfEES4_5color+0x216>
 80047c0:	2b00      	cmp	r3, #0
 80047c2:	db24      	blt.n	800480e <_Z14draw_line_bresRKN4quan5two_d4vectIfEES4_5color+0x176>
 80047c4:	f1b8 0f00 	cmp.w	r8, #0
 80047c8:	db21      	blt.n	800480e <_Z14draw_line_bresRKN4quan5two_d4vectIfEES4_5color+0x176>
 80047ca:	6847      	ldr	r7, [r0, #4]
 80047cc:	3f01      	subs	r7, #1
 80047ce:	45b8      	cmp	r8, r7
 80047d0:	d81d      	bhi.n	800480e <_Z14draw_line_bresRKN4quan5two_d4vectIfEES4_5color+0x176>
 80047d2:	6807      	ldr	r7, [r0, #0]
 80047d4:	f107 3aff 	add.w	sl, r7, #4294967295
 80047d8:	4553      	cmp	r3, sl
 80047da:	9700      	str	r7, [sp, #0]
 80047dc:	d817      	bhi.n	800480e <_Z14draw_line_bresRKN4quan5two_d4vectIfEES4_5color+0x176>
 80047de:	f8d5 a004 	ldr.w	sl, [r5, #4]
 80047e2:	f8d5 b004 	ldr.w	fp, [r5, #4]
 80047e6:	f8da 7000 	ldr.w	r7, [sl]
 80047ea:	9701      	str	r7, [sp, #4]
 80047ec:	9f00      	ldr	r7, [sp, #0]
 80047ee:	f103 0a01 	add.w	sl, r3, #1
 80047f2:	f50b 4bf8 	add.w	fp, fp, #31744	; 0x7c00
 80047f6:	3708      	adds	r7, #8
 80047f8:	fb07 a708 	mla	r7, r7, r8, sl
 80047fc:	00bf      	lsls	r7, r7, #2
 80047fe:	f8db a000 	ldr.w	sl, [fp]
 8004802:	f8dd b004 	ldr.w	fp, [sp, #4]
 8004806:	f84b 2007 	str.w	r2, [fp, r7]
 800480a:	f84a c007 	str.w	ip, [sl, r7]
 800480e:	bf00      	nop
 8004810:	f108 0801 	add.w	r8, r8, #1
 8004814:	ee33 7a40 	vsub.f32	s14, s6, s0
 8004818:	46c2      	mov	sl, r8
 800481a:	eeb5 7ac0 	vcmpe.f32	s14, #0.0
 800481e:	eef1 fa10 	vmrs	APSR_nzcv, fpscr
 8004822:	bf44      	itt	mi
 8004824:	ee37 7a26 	vaddmi.f32	s14, s14, s13
 8004828:	199b      	addmi	r3, r3, r6
 800482a:	45a0      	cmp	r8, r4
 800482c:	d034      	beq.n	8004898 <_Z14draw_line_bresRKN4quan5two_d4vectIfEES4_5color+0x200>
 800482e:	f1b9 0f00 	cmp.w	r9, #0
 8004832:	d03e      	beq.n	80048b2 <_Z14draw_line_bresRKN4quan5two_d4vectIfEES4_5color+0x21a>
 8004834:	2900      	cmp	r1, #0
 8004836:	f000 80e9 	beq.w	8004a0c <_Z14draw_line_bresRKN4quan5two_d4vectIfEES4_5color+0x374>
 800483a:	2b00      	cmp	r3, #0
 800483c:	db1f      	blt.n	800487e <_Z14draw_line_bresRKN4quan5two_d4vectIfEES4_5color+0x1e6>
 800483e:	f1b8 0f00 	cmp.w	r8, #0
 8004842:	db1c      	blt.n	800487e <_Z14draw_line_bresRKN4quan5two_d4vectIfEES4_5color+0x1e6>
 8004844:	6847      	ldr	r7, [r0, #4]
 8004846:	3f01      	subs	r7, #1
 8004848:	45b8      	cmp	r8, r7
 800484a:	d818      	bhi.n	800487e <_Z14draw_line_bresRKN4quan5two_d4vectIfEES4_5color+0x1e6>
 800484c:	6807      	ldr	r7, [r0, #0]
 800484e:	f107 39ff 	add.w	r9, r7, #4294967295
 8004852:	454b      	cmp	r3, r9
 8004854:	d813      	bhi.n	800487e <_Z14draw_line_bresRKN4quan5two_d4vectIfEES4_5color+0x1e6>
 8004856:	f8d5 9004 	ldr.w	r9, [r5, #4]
 800485a:	f8d5 b004 	ldr.w	fp, [r5, #4]
 800485e:	f8d9 9000 	ldr.w	r9, [r9]
 8004862:	f103 0a01 	add.w	sl, r3, #1
 8004866:	3708      	adds	r7, #8
 8004868:	f50b 4bf8 	add.w	fp, fp, #31744	; 0x7c00
 800486c:	fb07 a708 	mla	r7, r7, r8, sl
 8004870:	00bf      	lsls	r7, r7, #2
 8004872:	f8db a000 	ldr.w	sl, [fp]
 8004876:	f849 2007 	str.w	r2, [r9, r7]
 800487a:	f84a c007 	str.w	ip, [sl, r7]
 800487e:	bf00      	nop
 8004880:	ee37 7a40 	vsub.f32	s14, s14, s0
 8004884:	f108 0a01 	add.w	sl, r8, #1
 8004888:	eeb5 7ac0 	vcmpe.f32	s14, #0.0
 800488c:	eef1 fa10 	vmrs	APSR_nzcv, fpscr
 8004890:	f100 80ea 	bmi.w	8004a68 <_Z14draw_line_bresRKN4quan5two_d4vectIfEES4_5color+0x3d0>
 8004894:	45a2      	cmp	sl, r4
 8004896:	d10c      	bne.n	80048b2 <_Z14draw_line_bresRKN4quan5two_d4vectIfEES4_5color+0x21a>
 8004898:	b002      	add	sp, #8
 800489a:	e8bd 0ff0 	ldmia.w	sp!, {r4, r5, r6, r7, r8, r9, sl, fp}
 800489e:	4770      	bx	lr
 80048a0:	eef0 4a44 	vmov.f32	s9, s8
 80048a4:	eeb0 5a67 	vmov.f32	s10, s15
 80048a8:	e71f      	b.n	80046ea <_Z14draw_line_bresRKN4quan5two_d4vectIfEES4_5color+0x52>
 80048aa:	f108 0801 	add.w	r8, r8, #1
 80048ae:	bf00      	nop
 80048b0:	e7b0      	b.n	8004814 <_Z14draw_line_bresRKN4quan5two_d4vectIfEES4_5color+0x17c>
 80048b2:	2900      	cmp	r1, #0
 80048b4:	f040 8082 	bne.w	80049bc <_Z14draw_line_bresRKN4quan5two_d4vectIfEES4_5color+0x324>
 80048b8:	f1ba 0f00 	cmp.w	sl, #0
 80048bc:	f2c0 80a3 	blt.w	8004a06 <_Z14draw_line_bresRKN4quan5two_d4vectIfEES4_5color+0x36e>
 80048c0:	2b00      	cmp	r3, #0
 80048c2:	f2c0 80a0 	blt.w	8004a06 <_Z14draw_line_bresRKN4quan5two_d4vectIfEES4_5color+0x36e>
 80048c6:	6847      	ldr	r7, [r0, #4]
 80048c8:	3f01      	subs	r7, #1
 80048ca:	42bb      	cmp	r3, r7
 80048cc:	f200 809b 	bhi.w	8004a06 <_Z14draw_line_bresRKN4quan5two_d4vectIfEES4_5color+0x36e>
 80048d0:	6807      	ldr	r7, [r0, #0]
 80048d2:	f107 38ff 	add.w	r8, r7, #4294967295
 80048d6:	45c2      	cmp	sl, r8
 80048d8:	f200 8095 	bhi.w	8004a06 <_Z14draw_line_bresRKN4quan5two_d4vectIfEES4_5color+0x36e>
 80048dc:	f8d5 8004 	ldr.w	r8, [r5, #4]
 80048e0:	f8d5 9004 	ldr.w	r9, [r5, #4]
 80048e4:	f8d8 8000 	ldr.w	r8, [r8]
 80048e8:	f509 49f8 	add.w	r9, r9, #31744	; 0x7c00
 80048ec:	3708      	adds	r7, #8
 80048ee:	f10a 0a01 	add.w	sl, sl, #1
 80048f2:	fb07 a703 	mla	r7, r7, r3, sl
 80048f6:	f8d9 9000 	ldr.w	r9, [r9]
 80048fa:	f848 2027 	str.w	r2, [r8, r7, lsl #2]
 80048fe:	f849 c027 	str.w	ip, [r9, r7, lsl #2]
 8004902:	bf00      	nop
 8004904:	ee77 0a40 	vsub.f32	s1, s14, s0
 8004908:	eef5 0ac0 	vcmpe.f32	s1, #0.0
 800490c:	eef1 fa10 	vmrs	APSR_nzcv, fpscr
 8004910:	bf44      	itt	mi
 8004912:	ee70 0aa6 	vaddmi.f32	s1, s1, s13
 8004916:	199b      	addmi	r3, r3, r6
 8004918:	bb71      	cbnz	r1, 8004978 <_Z14draw_line_bresRKN4quan5two_d4vectIfEES4_5color+0x2e0>
 800491a:	f1ba 0f00 	cmp.w	sl, #0
 800491e:	db1d      	blt.n	800495c <_Z14draw_line_bresRKN4quan5two_d4vectIfEES4_5color+0x2c4>
 8004920:	2b00      	cmp	r3, #0
 8004922:	db1b      	blt.n	800495c <_Z14draw_line_bresRKN4quan5two_d4vectIfEES4_5color+0x2c4>
 8004924:	6847      	ldr	r7, [r0, #4]
 8004926:	3f01      	subs	r7, #1
 8004928:	42bb      	cmp	r3, r7
 800492a:	d817      	bhi.n	800495c <_Z14draw_line_bresRKN4quan5two_d4vectIfEES4_5color+0x2c4>
 800492c:	6807      	ldr	r7, [r0, #0]
 800492e:	f107 38ff 	add.w	r8, r7, #4294967295
 8004932:	45c2      	cmp	sl, r8
 8004934:	d812      	bhi.n	800495c <_Z14draw_line_bresRKN4quan5two_d4vectIfEES4_5color+0x2c4>
 8004936:	f8d5 9004 	ldr.w	r9, [r5, #4]
 800493a:	f8d5 b004 	ldr.w	fp, [r5, #4]
 800493e:	f8d9 9000 	ldr.w	r9, [r9]
 8004942:	f50b 48f8 	add.w	r8, fp, #31744	; 0x7c00
 8004946:	3708      	adds	r7, #8
 8004948:	f10a 0b01 	add.w	fp, sl, #1
 800494c:	fb07 b703 	mla	r7, r7, r3, fp
 8004950:	f8d8 8000 	ldr.w	r8, [r8]
 8004954:	f849 2027 	str.w	r2, [r9, r7, lsl #2]
 8004958:	f848 c027 	str.w	ip, [r8, r7, lsl #2]
 800495c:	bf00      	nop
 800495e:	ee30 7ac0 	vsub.f32	s14, s1, s0
 8004962:	f10a 0a01 	add.w	sl, sl, #1
 8004966:	eeb5 7ac0 	vcmpe.f32	s14, #0.0
 800496a:	eef1 fa10 	vmrs	APSR_nzcv, fpscr
 800496e:	bf44      	itt	mi
 8004970:	ee37 7a26 	vaddmi.f32	s14, s14, s13
 8004974:	199b      	addmi	r3, r3, r6
 8004976:	e78d      	b.n	8004894 <_Z14draw_line_bresRKN4quan5two_d4vectIfEES4_5color+0x1fc>
 8004978:	2b00      	cmp	r3, #0
 800497a:	dbef      	blt.n	800495c <_Z14draw_line_bresRKN4quan5two_d4vectIfEES4_5color+0x2c4>
 800497c:	f1ba 0f00 	cmp.w	sl, #0
 8004980:	dbec      	blt.n	800495c <_Z14draw_line_bresRKN4quan5two_d4vectIfEES4_5color+0x2c4>
 8004982:	6847      	ldr	r7, [r0, #4]
 8004984:	3f01      	subs	r7, #1
 8004986:	45ba      	cmp	sl, r7
 8004988:	d8e8      	bhi.n	800495c <_Z14draw_line_bresRKN4quan5two_d4vectIfEES4_5color+0x2c4>
 800498a:	6807      	ldr	r7, [r0, #0]
 800498c:	f107 38ff 	add.w	r8, r7, #4294967295
 8004990:	4543      	cmp	r3, r8
 8004992:	d8e3      	bhi.n	800495c <_Z14draw_line_bresRKN4quan5two_d4vectIfEES4_5color+0x2c4>
 8004994:	f8d5 b004 	ldr.w	fp, [r5, #4]
 8004998:	f8d5 8004 	ldr.w	r8, [r5, #4]
 800499c:	f8db 9000 	ldr.w	r9, [fp]
 80049a0:	f508 48f8 	add.w	r8, r8, #31744	; 0x7c00
 80049a4:	f103 0b01 	add.w	fp, r3, #1
 80049a8:	3708      	adds	r7, #8
 80049aa:	fb07 b70a 	mla	r7, r7, sl, fp
 80049ae:	f8d8 8000 	ldr.w	r8, [r8]
 80049b2:	f849 2027 	str.w	r2, [r9, r7, lsl #2]
 80049b6:	f848 c027 	str.w	ip, [r8, r7, lsl #2]
 80049ba:	e7cf      	b.n	800495c <_Z14draw_line_bresRKN4quan5two_d4vectIfEES4_5color+0x2c4>
 80049bc:	2b00      	cmp	r3, #0
 80049be:	db1e      	blt.n	80049fe <_Z14draw_line_bresRKN4quan5two_d4vectIfEES4_5color+0x366>
 80049c0:	f1ba 0f00 	cmp.w	sl, #0
 80049c4:	db1b      	blt.n	80049fe <_Z14draw_line_bresRKN4quan5two_d4vectIfEES4_5color+0x366>
 80049c6:	6847      	ldr	r7, [r0, #4]
 80049c8:	3f01      	subs	r7, #1
 80049ca:	45ba      	cmp	sl, r7
 80049cc:	d817      	bhi.n	80049fe <_Z14draw_line_bresRKN4quan5two_d4vectIfEES4_5color+0x366>
 80049ce:	6807      	ldr	r7, [r0, #0]
 80049d0:	f107 38ff 	add.w	r8, r7, #4294967295
 80049d4:	4543      	cmp	r3, r8
 80049d6:	d812      	bhi.n	80049fe <_Z14draw_line_bresRKN4quan5two_d4vectIfEES4_5color+0x366>
 80049d8:	f8d5 9004 	ldr.w	r9, [r5, #4]
 80049dc:	f8d5 8004 	ldr.w	r8, [r5, #4]
 80049e0:	f8d9 9000 	ldr.w	r9, [r9]
 80049e4:	f508 48f8 	add.w	r8, r8, #31744	; 0x7c00
 80049e8:	f103 0b01 	add.w	fp, r3, #1
 80049ec:	3708      	adds	r7, #8
 80049ee:	fb07 b70a 	mla	r7, r7, sl, fp
 80049f2:	f8d8 8000 	ldr.w	r8, [r8]
 80049f6:	f849 2027 	str.w	r2, [r9, r7, lsl #2]
 80049fa:	f848 c027 	str.w	ip, [r8, r7, lsl #2]
 80049fe:	bf00      	nop
 8004a00:	f10a 0a01 	add.w	sl, sl, #1
 8004a04:	e77e      	b.n	8004904 <_Z14draw_line_bresRKN4quan5two_d4vectIfEES4_5color+0x26c>
 8004a06:	f10a 0a01 	add.w	sl, sl, #1
 8004a0a:	e77a      	b.n	8004902 <_Z14draw_line_bresRKN4quan5two_d4vectIfEES4_5color+0x26a>
 8004a0c:	f1b8 0f00 	cmp.w	r8, #0
 8004a10:	db1f      	blt.n	8004a52 <_Z14draw_line_bresRKN4quan5two_d4vectIfEES4_5color+0x3ba>
 8004a12:	2b00      	cmp	r3, #0
 8004a14:	db1d      	blt.n	8004a52 <_Z14draw_line_bresRKN4quan5two_d4vectIfEES4_5color+0x3ba>
 8004a16:	6847      	ldr	r7, [r0, #4]
 8004a18:	3f01      	subs	r7, #1
 8004a1a:	42bb      	cmp	r3, r7
 8004a1c:	d819      	bhi.n	8004a52 <_Z14draw_line_bresRKN4quan5two_d4vectIfEES4_5color+0x3ba>
 8004a1e:	6807      	ldr	r7, [r0, #0]
 8004a20:	f107 39ff 	add.w	r9, r7, #4294967295
 8004a24:	45c8      	cmp	r8, r9
 8004a26:	d814      	bhi.n	8004a52 <_Z14draw_line_bresRKN4quan5two_d4vectIfEES4_5color+0x3ba>
 8004a28:	f8d5 9004 	ldr.w	r9, [r5, #4]
 8004a2c:	f8d5 b004 	ldr.w	fp, [r5, #4]
 8004a30:	f8d9 9000 	ldr.w	r9, [r9]
 8004a34:	f108 0a01 	add.w	sl, r8, #1
 8004a38:	3708      	adds	r7, #8
 8004a3a:	f50b 4bf8 	add.w	fp, fp, #31744	; 0x7c00
 8004a3e:	fb07 a703 	mla	r7, r7, r3, sl
 8004a42:	00bf      	lsls	r7, r7, #2
 8004a44:	f8db 8000 	ldr.w	r8, [fp]
 8004a48:	f849 2007 	str.w	r2, [r9, r7]
 8004a4c:	f848 c007 	str.w	ip, [r8, r7]
 8004a50:	e001      	b.n	8004a56 <_Z14draw_line_bresRKN4quan5two_d4vectIfEES4_5color+0x3be>
 8004a52:	f108 0a01 	add.w	sl, r8, #1
 8004a56:	bf00      	nop
 8004a58:	ee37 7a40 	vsub.f32	s14, s14, s0
 8004a5c:	eeb5 7ac0 	vcmpe.f32	s14, #0.0
 8004a60:	eef1 fa10 	vmrs	APSR_nzcv, fpscr
 8004a64:	f57f af16 	bpl.w	8004894 <_Z14draw_line_bresRKN4quan5two_d4vectIfEES4_5color+0x1fc>
 8004a68:	ee37 7a26 	vadd.f32	s14, s14, s13
 8004a6c:	199b      	adds	r3, r3, r6
 8004a6e:	e711      	b.n	8004894 <_Z14draw_line_bresRKN4quan5two_d4vectIfEES4_5color+0x1fc>
 8004a70:	10000a64 	.word	0x10000a64
 8004a74:	10000a44 	.word	0x10000a44

08004a78 <_Z14av_telem_setupv>:
 8004a78:	f44f 5360 	mov.w	r3, #14336	; 0x3800
 8004a7c:	f2c4 0302 	movt	r3, #16386	; 0x4002
 8004a80:	2200      	movs	r2, #0
 8004a82:	6b19      	ldr	r1, [r3, #48]	; 0x30
 8004a84:	f2c4 0202 	movt	r2, #16386	; 0x4002
 8004a88:	f041 0001 	orr.w	r0, r1, #1
 8004a8c:	6318      	str	r0, [r3, #48]	; 0x30
 8004a8e:	6811      	ldr	r1, [r2, #0]
 8004a90:	f021 000c 	bic.w	r0, r1, #12
 8004a94:	f040 0108 	orr.w	r1, r0, #8
 8004a98:	6011      	str	r1, [r2, #0]
 8004a9a:	68d0      	ldr	r0, [r2, #12]
 8004a9c:	f020 010c 	bic.w	r1, r0, #12
 8004aa0:	f041 0004 	orr.w	r0, r1, #4
 8004aa4:	60d0      	str	r0, [r2, #12]
 8004aa6:	6a11      	ldr	r1, [r2, #32]
 8004aa8:	f021 00f0 	bic.w	r0, r1, #240	; 0xf0
 8004aac:	f040 0110 	orr.w	r1, r0, #16
 8004ab0:	6211      	str	r1, [r2, #32]
 8004ab2:	6b18      	ldr	r0, [r3, #48]	; 0x30
 8004ab4:	f44f 6280 	mov.w	r2, #1024	; 0x400
 8004ab8:	f2c4 0202 	movt	r2, #16386	; 0x4002
 8004abc:	f040 0102 	orr.w	r1, r0, #2
 8004ac0:	6319      	str	r1, [r3, #48]	; 0x30
 8004ac2:	6810      	ldr	r0, [r2, #0]
 8004ac4:	f420 4140 	bic.w	r1, r0, #49152	; 0xc000
 8004ac8:	f441 4000 	orr.w	r0, r1, #32768	; 0x8000
 8004acc:	6010      	str	r0, [r2, #0]
 8004ace:	68d1      	ldr	r1, [r2, #12]
 8004ad0:	f421 4040 	bic.w	r0, r1, #49152	; 0xc000
 8004ad4:	f440 4180 	orr.w	r1, r0, #16384	; 0x4000
 8004ad8:	60d1      	str	r1, [r2, #12]
 8004ada:	6a10      	ldr	r0, [r2, #32]
 8004adc:	f020 4170 	bic.w	r1, r0, #4026531840	; 0xf0000000
 8004ae0:	f041 40e0 	orr.w	r0, r1, #1879048192	; 0x70000000
 8004ae4:	6210      	str	r0, [r2, #32]
 8004ae6:	6a5a      	ldr	r2, [r3, #36]	; 0x24
 8004ae8:	f042 0110 	orr.w	r1, r2, #16
 8004aec:	6259      	str	r1, [r3, #36]	; 0x24
 8004aee:	6a58      	ldr	r0, [r3, #36]	; 0x24
 8004af0:	f020 0210 	bic.w	r2, r0, #16
 8004af4:	625a      	str	r2, [r3, #36]	; 0x24
 8004af6:	6c59      	ldr	r1, [r3, #68]	; 0x44
 8004af8:	f44f 5080 	mov.w	r0, #4096	; 0x1000
 8004afc:	f2c4 0001 	movt	r0, #16385	; 0x4001
 8004b00:	f041 0210 	orr.w	r2, r1, #16
 8004b04:	645a      	str	r2, [r3, #68]	; 0x44
 8004b06:	232a      	movs	r3, #42	; 0x2a
 8004b08:	6083      	str	r3, [r0, #8]
 8004b0a:	68c1      	ldr	r1, [r0, #12]
 8004b0c:	f421 4215 	bic.w	r2, r1, #38144	; 0x9500
 8004b10:	f022 03fc 	bic.w	r3, r2, #252	; 0xfc
 8004b14:	f043 0104 	orr.w	r1, r3, #4
 8004b18:	60c1      	str	r1, [r0, #12]
 8004b1a:	6902      	ldr	r2, [r0, #16]
 8004b1c:	f422 5361 	bic.w	r3, r2, #14400	; 0x3840
 8004b20:	6103      	str	r3, [r0, #16]
 8004b22:	6941      	ldr	r1, [r0, #20]
 8004b24:	f421 62e0 	bic.w	r2, r1, #1792	; 0x700
 8004b28:	f022 0301 	bic.w	r3, r2, #1
 8004b2c:	6143      	str	r3, [r0, #20]
 8004b2e:	68c1      	ldr	r1, [r0, #12]
 8004b30:	f041 0204 	orr.w	r2, r1, #4
 8004b34:	60c2      	str	r2, [r0, #12]
 8004b36:	f7fd b9f3 	b.w	8001f20 <_Z18av_telem_dma_setupv>
 8004b3a:	bf00      	nop

08004b3c <_ZN12_GLOBAL__N_19draw_taskEPv>:
 8004b3c:	b508      	push	{r3, lr}
 8004b3e:	f7fc fad3 	bl	80010e8 <_Z9draw_loopv>
 8004b42:	2002      	movs	r0, #2
 8004b44:	f001 f96e 	bl	8005e24 <vTaskDelay>
 8004b48:	e7f9      	b.n	8004b3e <_ZN12_GLOBAL__N_19draw_taskEPv+0x2>
 8004b4a:	bf00      	nop

08004b4c <_Z16create_draw_taskv>:
 8004b4c:	b500      	push	{lr}
 8004b4e:	f640 3068 	movw	r0, #2920	; 0xb68
 8004b52:	b085      	sub	sp, #20
 8004b54:	2300      	movs	r3, #0
 8004b56:	f2c1 0000 	movt	r0, #4096	; 0x1000
 8004b5a:	2202      	movs	r2, #2
 8004b5c:	9001      	str	r0, [sp, #4]
 8004b5e:	9302      	str	r3, [sp, #8]
 8004b60:	9303      	str	r3, [sp, #12]
 8004b62:	f644 303d 	movw	r0, #19261	; 0x4b3d
 8004b66:	f64f 0110 	movw	r1, #63504	; 0xf810
 8004b6a:	f640 3364 	movw	r3, #2916	; 0xb64
 8004b6e:	9200      	str	r2, [sp, #0]
 8004b70:	f6c0 0100 	movt	r1, #2048	; 0x800
 8004b74:	f640 32b8 	movw	r2, #3000	; 0xbb8
 8004b78:	f2c1 0300 	movt	r3, #4096	; 0x1000
 8004b7c:	f6c0 0000 	movt	r0, #2048	; 0x800
 8004b80:	f000 fe86 	bl	8005890 <xTaskGenericCreate>
 8004b84:	b005      	add	sp, #20
 8004b86:	bd00      	pop	{pc}

08004b88 <_Z15sync_sep_enablev>:
 8004b88:	b4f0      	push	{r4, r5, r6, r7}
 8004b8a:	f640 3070 	movw	r0, #2928	; 0xb70
 8004b8e:	f640 3678 	movw	r6, #2936	; 0xb78
 8004b92:	f640 356c 	movw	r5, #2924	; 0xb6c
 8004b96:	f640 347c 	movw	r4, #2940	; 0xb7c
 8004b9a:	f640 3772 	movw	r7, #2930	; 0xb72
 8004b9e:	f640 3174 	movw	r1, #2932	; 0xb74
 8004ba2:	f44f 4280 	mov.w	r2, #16384	; 0x4000
 8004ba6:	f2c4 0201 	movt	r2, #16385	; 0x4001
 8004baa:	f2c1 0600 	movt	r6, #4096	; 0x1000
 8004bae:	f2c1 0500 	movt	r5, #4096	; 0x1000
 8004bb2:	f2c1 0400 	movt	r4, #4096	; 0x1000
 8004bb6:	f2c1 0000 	movt	r0, #4096	; 0x1000
 8004bba:	f2c1 0700 	movt	r7, #4096	; 0x1000
 8004bbe:	f2c1 0100 	movt	r1, #4096	; 0x1000
 8004bc2:	2300      	movs	r3, #0
 8004bc4:	703b      	strb	r3, [r7, #0]
 8004bc6:	8003      	strh	r3, [r0, #0]
 8004bc8:	600b      	str	r3, [r1, #0]
 8004bca:	7033      	strb	r3, [r6, #0]
 8004bcc:	602b      	str	r3, [r5, #0]
 8004bce:	6023      	str	r3, [r4, #0]
 8004bd0:	6113      	str	r3, [r2, #16]
 8004bd2:	68d0      	ldr	r0, [r2, #12]
 8004bd4:	f040 0106 	orr.w	r1, r0, #6
 8004bd8:	60d1      	str	r1, [r2, #12]
 8004bda:	bf00      	nop
 8004bdc:	2300      	movs	r3, #0
 8004bde:	f2c4 2328 	movt	r3, #16936	; 0x4228
 8004be2:	2201      	movs	r2, #1
 8004be4:	601a      	str	r2, [r3, #0]
 8004be6:	bcf0      	pop	{r4, r5, r6, r7}
 8004be8:	4770      	bx	lr
 8004bea:	bf00      	nop

08004bec <_Z14sync_sep_setupv>:
 8004bec:	f44f 5260 	mov.w	r2, #14336	; 0x3800
 8004bf0:	f2c4 0202 	movt	r2, #16386	; 0x4002
 8004bf4:	b470      	push	{r4, r5, r6}
 8004bf6:	6b11      	ldr	r1, [r2, #48]	; 0x30
 8004bf8:	f041 0010 	orr.w	r0, r1, #16
 8004bfc:	6310      	str	r0, [r2, #48]	; 0x30
 8004bfe:	6b14      	ldr	r4, [r2, #48]	; 0x30
 8004c00:	f44f 5380 	mov.w	r3, #4096	; 0x1000
 8004c04:	f2c4 0302 	movt	r3, #16386	; 0x4002
 8004c08:	f044 0510 	orr.w	r5, r4, #16
 8004c0c:	6315      	str	r5, [r2, #48]	; 0x30
 8004c0e:	681e      	ldr	r6, [r3, #0]
 8004c10:	f426 6140 	bic.w	r1, r6, #3072	; 0xc00
 8004c14:	f441 6000 	orr.w	r0, r1, #2048	; 0x800
 8004c18:	6018      	str	r0, [r3, #0]
 8004c1a:	68dc      	ldr	r4, [r3, #12]
 8004c1c:	f424 6540 	bic.w	r5, r4, #3072	; 0xc00
 8004c20:	f445 6680 	orr.w	r6, r5, #1024	; 0x400
 8004c24:	60de      	str	r6, [r3, #12]
 8004c26:	6a19      	ldr	r1, [r3, #32]
 8004c28:	f421 0070 	bic.w	r0, r1, #15728640	; 0xf00000
 8004c2c:	f440 1440 	orr.w	r4, r0, #3145728	; 0x300000
 8004c30:	621c      	str	r4, [r3, #32]
 8004c32:	681d      	ldr	r5, [r3, #0]
 8004c34:	f425 5640 	bic.w	r6, r5, #12288	; 0x3000
 8004c38:	f446 5100 	orr.w	r1, r6, #8192	; 0x2000
 8004c3c:	6019      	str	r1, [r3, #0]
 8004c3e:	68d8      	ldr	r0, [r3, #12]
 8004c40:	f420 5440 	bic.w	r4, r0, #12288	; 0x3000
 8004c44:	f444 5580 	orr.w	r5, r4, #4096	; 0x1000
 8004c48:	60dd      	str	r5, [r3, #12]
 8004c4a:	6a1e      	ldr	r6, [r3, #32]
 8004c4c:	f026 6170 	bic.w	r1, r6, #251658240	; 0xf000000
 8004c50:	f041 7040 	orr.w	r0, r1, #50331648	; 0x3000000
 8004c54:	6218      	str	r0, [r3, #32]
 8004c56:	6c53      	ldr	r3, [r2, #68]	; 0x44
 8004c58:	f443 3480 	orr.w	r4, r3, #65536	; 0x10000
 8004c5c:	6454      	str	r4, [r2, #68]	; 0x44
 8004c5e:	6a55      	ldr	r5, [r2, #36]	; 0x24
 8004c60:	2000      	movs	r0, #0
 8004c62:	f445 3680 	orr.w	r6, r5, #65536	; 0x10000
 8004c66:	2102      	movs	r1, #2
 8004c68:	6256      	str	r6, [r2, #36]	; 0x24
 8004c6a:	f360 01c3 	bfi	r1, r0, #3, #1
 8004c6e:	6a56      	ldr	r6, [r2, #36]	; 0x24
 8004c70:	2501      	movs	r5, #1
 8004c72:	4604      	mov	r4, r0
 8004c74:	f360 1145 	bfi	r1, r0, #5, #1
 8004c78:	f365 0401 	bfi	r4, r5, #0, #2
 8004c7c:	f360 11c7 	bfi	r1, r0, #7, #1
 8004c80:	f44f 4380 	mov.w	r3, #16384	; 0x4000
 8004c84:	f2c4 0301 	movt	r3, #16385	; 0x4001
 8004c88:	f365 2409 	bfi	r4, r5, #8, #2
 8004c8c:	f44f 4061 	mov.w	r0, #57600	; 0xe100
 8004c90:	f041 0111 	orr.w	r1, r1, #17
 8004c94:	f426 3580 	bic.w	r5, r6, #65536	; 0x10000
 8004c98:	6255      	str	r5, [r2, #36]	; 0x24
 8004c9a:	f2ce 0000 	movt	r0, #57344	; 0xe000
 8004c9e:	b289      	uxth	r1, r1
 8004ca0:	b2a4      	uxth	r4, r4
 8004ca2:	f64f 72ff 	movw	r2, #65535	; 0xffff
 8004ca6:	62da      	str	r2, [r3, #44]	; 0x2c
 8004ca8:	619c      	str	r4, [r3, #24]
 8004caa:	6219      	str	r1, [r3, #32]
 8004cac:	23b0      	movs	r3, #176	; 0xb0
 8004cae:	f04f 7180 	mov.w	r1, #16777216	; 0x1000000
 8004cb2:	f880 3318 	strb.w	r3, [r0, #792]	; 0x318
 8004cb6:	6001      	str	r1, [r0, #0]
 8004cb8:	bc70      	pop	{r4, r5, r6}
 8004cba:	4770      	bx	lr

08004cbc <TIM1_BRK_TIM9_IRQHandler>:
 8004cbc:	f44f 4280 	mov.w	r2, #16384	; 0x4000
 8004cc0:	f2c4 0201 	movt	r2, #16385	; 0x4001
 8004cc4:	4668      	mov	r0, sp
 8004cc6:	6913      	ldr	r3, [r2, #16]
 8004cc8:	f020 0107 	bic.w	r1, r0, #7
 8004ccc:	468d      	mov	sp, r1
 8004cce:	f013 0102 	ands.w	r1, r3, #2
 8004cd2:	b4f1      	push	{r0, r4, r5, r6, r7}
 8004cd4:	d129      	bne.n	8004d2a <TIM1_BRK_TIM9_IRQHandler+0x6e>
 8004cd6:	075b      	lsls	r3, r3, #29
 8004cd8:	d402      	bmi.n	8004ce0 <TIM1_BRK_TIM9_IRQHandler+0x24>
 8004cda:	bcf1      	pop	{r0, r4, r5, r6, r7}
 8004cdc:	4685      	mov	sp, r0
 8004cde:	4770      	bx	lr
 8004ce0:	4893      	ldr	r0, [pc, #588]	; (8004f30 <TIM1_BRK_TIM9_IRQHandler+0x274>)
 8004ce2:	f44f 7302 	mov.w	r3, #520	; 0x208
 8004ce6:	f2c4 2328 	movt	r3, #16936	; 0x4228
 8004cea:	7804      	ldrb	r4, [r0, #0]
 8004cec:	6019      	str	r1, [r3, #0]
 8004cee:	2c00      	cmp	r4, #0
 8004cf0:	d03e      	beq.n	8004d70 <TIM1_BRK_TIM9_IRQHandler+0xb4>
 8004cf2:	4c90      	ldr	r4, [pc, #576]	; (8004f34 <TIM1_BRK_TIM9_IRQHandler+0x278>)
 8004cf4:	6b95      	ldr	r5, [r2, #56]	; 0x38
 8004cf6:	8822      	ldrh	r2, [r4, #0]
 8004cf8:	1aab      	subs	r3, r5, r2
 8004cfa:	b29b      	uxth	r3, r3
 8004cfc:	f5a3 6552 	sub.w	r5, r3, #3360	; 0xd20
 8004d00:	b2ad      	uxth	r5, r5
 8004d02:	f640 12d8 	movw	r2, #2520	; 0x9d8
 8004d06:	4295      	cmp	r5, r2
 8004d08:	d949      	bls.n	8004d9e <TIM1_BRK_TIM9_IRQHandler+0xe2>
 8004d0a:	3ba8      	subs	r3, #168	; 0xa8
 8004d0c:	f5b3 6fbd 	cmp.w	r3, #1512	; 0x5e8
 8004d10:	f240 80a2 	bls.w	8004e58 <TIM1_BRK_TIM9_IRQHandler+0x19c>
 8004d14:	7001      	strb	r1, [r0, #0]
 8004d16:	4888      	ldr	r0, [pc, #544]	; (8004f38 <TIM1_BRK_TIM9_IRQHandler+0x27c>)
 8004d18:	4b88      	ldr	r3, [pc, #544]	; (8004f3c <TIM1_BRK_TIM9_IRQHandler+0x280>)
 8004d1a:	6001      	str	r1, [r0, #0]
 8004d1c:	4a88      	ldr	r2, [pc, #544]	; (8004f40 <TIM1_BRK_TIM9_IRQHandler+0x284>)
 8004d1e:	4889      	ldr	r0, [pc, #548]	; (8004f44 <TIM1_BRK_TIM9_IRQHandler+0x288>)
 8004d20:	6019      	str	r1, [r3, #0]
 8004d22:	8021      	strh	r1, [r4, #0]
 8004d24:	7011      	strb	r1, [r2, #0]
 8004d26:	6001      	str	r1, [r0, #0]
 8004d28:	e7d7      	b.n	8004cda <TIM1_BRK_TIM9_IRQHandler+0x1e>
 8004d2a:	4881      	ldr	r0, [pc, #516]	; (8004f30 <TIM1_BRK_TIM9_IRQHandler+0x274>)
 8004d2c:	f44f 7301 	mov.w	r3, #516	; 0x204
 8004d30:	f2c4 2328 	movt	r3, #16936	; 0x4228
 8004d34:	7804      	ldrb	r4, [r0, #0]
 8004d36:	2100      	movs	r1, #0
 8004d38:	6019      	str	r1, [r3, #0]
 8004d3a:	2c00      	cmp	r4, #0
 8004d3c:	d029      	beq.n	8004d92 <TIM1_BRK_TIM9_IRQHandler+0xd6>
 8004d3e:	4b7d      	ldr	r3, [pc, #500]	; (8004f34 <TIM1_BRK_TIM9_IRQHandler+0x278>)
 8004d40:	6b55      	ldr	r5, [r2, #52]	; 0x34
 8004d42:	881c      	ldrh	r4, [r3, #0]
 8004d44:	b2aa      	uxth	r2, r5
 8004d46:	1b15      	subs	r5, r2, r4
 8004d48:	b2ac      	uxth	r4, r5
 8004d4a:	f46f 6528 	mvn.w	r5, #2688	; 0xa80
 8004d4e:	1965      	adds	r5, r4, r5
 8004d50:	b2ad      	uxth	r5, r5
 8004d52:	801a      	strh	r2, [r3, #0]
 8004d54:	f241 42fe 	movw	r2, #5374	; 0x14fe
 8004d58:	4295      	cmp	r5, r2
 8004d5a:	f240 8081 	bls.w	8004e60 <TIM1_BRK_TIM9_IRQHandler+0x1a4>
 8004d5e:	f5a4 54fc 	sub.w	r4, r4, #8064	; 0x1f80
 8004d62:	f5b4 5fa8 	cmp.w	r4, #5376	; 0x1500
 8004d66:	d21e      	bcs.n	8004da6 <TIM1_BRK_TIM9_IRQHandler+0xea>
 8004d68:	4a74      	ldr	r2, [pc, #464]	; (8004f3c <TIM1_BRK_TIM9_IRQHandler+0x280>)
 8004d6a:	2102      	movs	r1, #2
 8004d6c:	6011      	str	r1, [r2, #0]
 8004d6e:	e7b4      	b.n	8004cda <TIM1_BRK_TIM9_IRQHandler+0x1e>
 8004d70:	4b71      	ldr	r3, [pc, #452]	; (8004f38 <TIM1_BRK_TIM9_IRQHandler+0x27c>)
 8004d72:	681c      	ldr	r4, [r3, #0]
 8004d74:	2c00      	cmp	r4, #0
 8004d76:	d0b0      	beq.n	8004cda <TIM1_BRK_TIM9_IRQHandler+0x1e>
 8004d78:	4970      	ldr	r1, [pc, #448]	; (8004f3c <TIM1_BRK_TIM9_IRQHandler+0x280>)
 8004d7a:	680a      	ldr	r2, [r1, #0]
 8004d7c:	2a00      	cmp	r2, #0
 8004d7e:	d0ac      	beq.n	8004cda <TIM1_BRK_TIM9_IRQHandler+0x1e>
 8004d80:	4e70      	ldr	r6, [pc, #448]	; (8004f44 <TIM1_BRK_TIM9_IRQHandler+0x288>)
 8004d82:	6835      	ldr	r5, [r6, #0]
 8004d84:	2d04      	cmp	r5, #4
 8004d86:	d8a8      	bhi.n	8004cda <TIM1_BRK_TIM9_IRQHandler+0x1e>
 8004d88:	e8df f005 	tbb	[pc, r5]
 8004d8c:	2b475c54 	.word	0x2b475c54
 8004d90:	18          	.byte	0x18
 8004d91:	00          	.byte	0x00
 8004d92:	6b52      	ldr	r2, [r2, #52]	; 0x34
 8004d94:	4b67      	ldr	r3, [pc, #412]	; (8004f34 <TIM1_BRK_TIM9_IRQHandler+0x278>)
 8004d96:	2101      	movs	r1, #1
 8004d98:	801a      	strh	r2, [r3, #0]
 8004d9a:	7001      	strb	r1, [r0, #0]
 8004d9c:	e79d      	b.n	8004cda <TIM1_BRK_TIM9_IRQHandler+0x1e>
 8004d9e:	4b66      	ldr	r3, [pc, #408]	; (8004f38 <TIM1_BRK_TIM9_IRQHandler+0x27c>)
 8004da0:	2402      	movs	r4, #2
 8004da2:	601c      	str	r4, [r3, #0]
 8004da4:	e7e8      	b.n	8004d78 <TIM1_BRK_TIM9_IRQHandler+0xbc>
 8004da6:	7001      	strb	r1, [r0, #0]
 8004da8:	4863      	ldr	r0, [pc, #396]	; (8004f38 <TIM1_BRK_TIM9_IRQHandler+0x27c>)
 8004daa:	8019      	strh	r1, [r3, #0]
 8004dac:	6001      	str	r1, [r0, #0]
 8004dae:	4a63      	ldr	r2, [pc, #396]	; (8004f3c <TIM1_BRK_TIM9_IRQHandler+0x280>)
 8004db0:	4b63      	ldr	r3, [pc, #396]	; (8004f40 <TIM1_BRK_TIM9_IRQHandler+0x284>)
 8004db2:	4864      	ldr	r0, [pc, #400]	; (8004f44 <TIM1_BRK_TIM9_IRQHandler+0x288>)
 8004db4:	6011      	str	r1, [r2, #0]
 8004db6:	7019      	strb	r1, [r3, #0]
 8004db8:	6001      	str	r1, [r0, #0]
 8004dba:	e78e      	b.n	8004cda <TIM1_BRK_TIM9_IRQHandler+0x1e>
 8004dbc:	2a01      	cmp	r2, #1
 8004dbe:	d053      	beq.n	8004e68 <TIM1_BRK_TIM9_IRQHandler+0x1ac>
 8004dc0:	bf00      	nop
 8004dc2:	f248 24bc 	movw	r4, #33468	; 0x82bc
 8004dc6:	f2c4 2441 	movt	r4, #16961	; 0x4241
 8004dca:	2700      	movs	r7, #0
 8004dcc:	2501      	movs	r5, #1
 8004dce:	6025      	str	r5, [r4, #0]
 8004dd0:	4a58      	ldr	r2, [pc, #352]	; (8004f34 <TIM1_BRK_TIM9_IRQHandler+0x278>)
 8004dd2:	600f      	str	r7, [r1, #0]
 8004dd4:	495a      	ldr	r1, [pc, #360]	; (8004f40 <TIM1_BRK_TIM9_IRQHandler+0x284>)
 8004dd6:	7007      	strb	r7, [r0, #0]
 8004dd8:	601f      	str	r7, [r3, #0]
 8004dda:	8017      	strh	r7, [r2, #0]
 8004ddc:	700f      	strb	r7, [r1, #0]
 8004dde:	6037      	str	r7, [r6, #0]
 8004de0:	e77b      	b.n	8004cda <TIM1_BRK_TIM9_IRQHandler+0x1e>
 8004de2:	2a01      	cmp	r2, #1
 8004de4:	d1ec      	bne.n	8004dc0 <TIM1_BRK_TIM9_IRQHandler+0x104>
 8004de6:	2c01      	cmp	r4, #1
 8004de8:	d062      	beq.n	8004eb0 <TIM1_BRK_TIM9_IRQHandler+0x1f4>
 8004dea:	4a55      	ldr	r2, [pc, #340]	; (8004f40 <TIM1_BRK_TIM9_IRQHandler+0x284>)
 8004dec:	7814      	ldrb	r4, [r2, #0]
 8004dee:	1c67      	adds	r7, r4, #1
 8004df0:	b2fc      	uxtb	r4, r7
 8004df2:	2c07      	cmp	r4, #7
 8004df4:	7014      	strb	r4, [r2, #0]
 8004df6:	f67f af70 	bls.w	8004cda <TIM1_BRK_TIM9_IRQHandler+0x1e>
 8004dfa:	bf00      	nop
 8004dfc:	f248 25bc 	movw	r5, #33468	; 0x82bc
 8004e00:	f2c4 2541 	movt	r5, #16961	; 0x4241
 8004e04:	2400      	movs	r4, #0
 8004e06:	2701      	movs	r7, #1
 8004e08:	602f      	str	r7, [r5, #0]
 8004e0a:	7004      	strb	r4, [r0, #0]
 8004e0c:	4849      	ldr	r0, [pc, #292]	; (8004f34 <TIM1_BRK_TIM9_IRQHandler+0x278>)
 8004e0e:	601c      	str	r4, [r3, #0]
 8004e10:	600c      	str	r4, [r1, #0]
 8004e12:	8004      	strh	r4, [r0, #0]
 8004e14:	7014      	strb	r4, [r2, #0]
 8004e16:	6034      	str	r4, [r6, #0]
 8004e18:	e75f      	b.n	8004cda <TIM1_BRK_TIM9_IRQHandler+0x1e>
 8004e1a:	2a01      	cmp	r2, #1
 8004e1c:	d1d0      	bne.n	8004dc0 <TIM1_BRK_TIM9_IRQHandler+0x104>
 8004e1e:	2c02      	cmp	r4, #2
 8004e20:	d05a      	beq.n	8004ed8 <TIM1_BRK_TIM9_IRQHandler+0x21c>
 8004e22:	4a47      	ldr	r2, [pc, #284]	; (8004f40 <TIM1_BRK_TIM9_IRQHandler+0x284>)
 8004e24:	7814      	ldrb	r4, [r2, #0]
 8004e26:	1c67      	adds	r7, r4, #1
 8004e28:	b2fc      	uxtb	r4, r7
 8004e2a:	2c05      	cmp	r4, #5
 8004e2c:	7014      	strb	r4, [r2, #0]
 8004e2e:	f67f af54 	bls.w	8004cda <TIM1_BRK_TIM9_IRQHandler+0x1e>
 8004e32:	e7e2      	b.n	8004dfa <TIM1_BRK_TIM9_IRQHandler+0x13e>
 8004e34:	2c01      	cmp	r4, #1
 8004e36:	f47f af50 	bne.w	8004cda <TIM1_BRK_TIM9_IRQHandler+0x1e>
 8004e3a:	2a02      	cmp	r2, #2
 8004e3c:	f47f af4d 	bne.w	8004cda <TIM1_BRK_TIM9_IRQHandler+0x1e>
 8004e40:	6034      	str	r4, [r6, #0]
 8004e42:	e74a      	b.n	8004cda <TIM1_BRK_TIM9_IRQHandler+0x1e>
 8004e44:	2c01      	cmp	r4, #1
 8004e46:	d1bb      	bne.n	8004dc0 <TIM1_BRK_TIM9_IRQHandler+0x104>
 8004e48:	2a01      	cmp	r2, #1
 8004e4a:	f47f af46 	bne.w	8004cda <TIM1_BRK_TIM9_IRQHandler+0x1e>
 8004e4e:	4b3c      	ldr	r3, [pc, #240]	; (8004f40 <TIM1_BRK_TIM9_IRQHandler+0x284>)
 8004e50:	2002      	movs	r0, #2
 8004e52:	6030      	str	r0, [r6, #0]
 8004e54:	701a      	strb	r2, [r3, #0]
 8004e56:	e740      	b.n	8004cda <TIM1_BRK_TIM9_IRQHandler+0x1e>
 8004e58:	4b37      	ldr	r3, [pc, #220]	; (8004f38 <TIM1_BRK_TIM9_IRQHandler+0x27c>)
 8004e5a:	2401      	movs	r4, #1
 8004e5c:	601c      	str	r4, [r3, #0]
 8004e5e:	e78b      	b.n	8004d78 <TIM1_BRK_TIM9_IRQHandler+0xbc>
 8004e60:	4b36      	ldr	r3, [pc, #216]	; (8004f3c <TIM1_BRK_TIM9_IRQHandler+0x280>)
 8004e62:	2001      	movs	r0, #1
 8004e64:	6018      	str	r0, [r3, #0]
 8004e66:	e738      	b.n	8004cda <TIM1_BRK_TIM9_IRQHandler+0x1e>
 8004e68:	2c01      	cmp	r4, #1
 8004e6a:	d1a9      	bne.n	8004dc0 <TIM1_BRK_TIM9_IRQHandler+0x104>
 8004e6c:	4f34      	ldr	r7, [pc, #208]	; (8004f40 <TIM1_BRK_TIM9_IRQHandler+0x284>)
 8004e6e:	783a      	ldrb	r2, [r7, #0]
 8004e70:	1c50      	adds	r0, r2, #1
 8004e72:	b2c3      	uxtb	r3, r0
 8004e74:	2b03      	cmp	r3, #3
 8004e76:	703b      	strb	r3, [r7, #0]
 8004e78:	f47f af2f 	bne.w	8004cda <TIM1_BRK_TIM9_IRQHandler+0x1e>
 8004e7c:	2700      	movs	r7, #0
 8004e7e:	f2c4 2728 	movt	r7, #16936	; 0x4228
 8004e82:	f44f 4380 	mov.w	r3, #16384	; 0x4000
 8004e86:	2100      	movs	r1, #0
 8004e88:	f2c4 0301 	movt	r3, #16385	; 0x4001
 8004e8c:	6039      	str	r1, [r7, #0]
 8004e8e:	68d8      	ldr	r0, [r3, #12]
 8004e90:	f44f 6280 	mov.w	r2, #1024	; 0x400
 8004e94:	f2c4 0200 	movt	r2, #16384	; 0x4000
 8004e98:	f020 0706 	bic.w	r7, r0, #6
 8004e9c:	60df      	str	r7, [r3, #12]
 8004e9e:	6251      	str	r1, [r2, #36]	; 0x24
 8004ea0:	bf00      	nop
 8004ea2:	f44f 4300 	mov.w	r3, #32768	; 0x8000
 8004ea6:	f2c4 2300 	movt	r3, #16896	; 0x4200
 8004eaa:	2101      	movs	r1, #1
 8004eac:	6019      	str	r1, [r3, #0]
 8004eae:	e714      	b.n	8004cda <TIM1_BRK_TIM9_IRQHandler+0x1e>
 8004eb0:	4c23      	ldr	r4, [pc, #140]	; (8004f40 <TIM1_BRK_TIM9_IRQHandler+0x284>)
 8004eb2:	7822      	ldrb	r2, [r4, #0]
 8004eb4:	2a05      	cmp	r2, #5
 8004eb6:	d035      	beq.n	8004f24 <TIM1_BRK_TIM9_IRQHandler+0x268>
 8004eb8:	bf00      	nop
 8004eba:	f248 25bc 	movw	r5, #33468	; 0x82bc
 8004ebe:	f2c4 2541 	movt	r5, #16961	; 0x4241
 8004ec2:	2200      	movs	r2, #0
 8004ec4:	2701      	movs	r7, #1
 8004ec6:	602f      	str	r7, [r5, #0]
 8004ec8:	7002      	strb	r2, [r0, #0]
 8004eca:	481a      	ldr	r0, [pc, #104]	; (8004f34 <TIM1_BRK_TIM9_IRQHandler+0x278>)
 8004ecc:	601a      	str	r2, [r3, #0]
 8004ece:	600a      	str	r2, [r1, #0]
 8004ed0:	8002      	strh	r2, [r0, #0]
 8004ed2:	7022      	strb	r2, [r4, #0]
 8004ed4:	6032      	str	r2, [r6, #0]
 8004ed6:	e700      	b.n	8004cda <TIM1_BRK_TIM9_IRQHandler+0x1e>
 8004ed8:	f44f 6480 	mov.w	r4, #1024	; 0x400
 8004edc:	f2c4 0402 	movt	r4, #16386	; 0x4002
 8004ee0:	4d17      	ldr	r5, [pc, #92]	; (8004f40 <TIM1_BRK_TIM9_IRQHandler+0x284>)
 8004ee2:	6967      	ldr	r7, [r4, #20]
 8004ee4:	f087 0704 	eor.w	r7, r7, #4
 8004ee8:	6167      	str	r7, [r4, #20]
 8004eea:	782c      	ldrb	r4, [r5, #0]
 8004eec:	2c05      	cmp	r4, #5
 8004eee:	d012      	beq.n	8004f16 <TIM1_BRK_TIM9_IRQHandler+0x25a>
 8004ef0:	2c04      	cmp	r4, #4
 8004ef2:	d00f      	beq.n	8004f14 <TIM1_BRK_TIM9_IRQHandler+0x258>
 8004ef4:	bf00      	nop
 8004ef6:	f248 24bc 	movw	r4, #33468	; 0x82bc
 8004efa:	f2c4 2441 	movt	r4, #16961	; 0x4241
 8004efe:	2200      	movs	r2, #0
 8004f00:	2701      	movs	r7, #1
 8004f02:	6027      	str	r7, [r4, #0]
 8004f04:	601a      	str	r2, [r3, #0]
 8004f06:	4b0b      	ldr	r3, [pc, #44]	; (8004f34 <TIM1_BRK_TIM9_IRQHandler+0x278>)
 8004f08:	7002      	strb	r2, [r0, #0]
 8004f0a:	600a      	str	r2, [r1, #0]
 8004f0c:	801a      	strh	r2, [r3, #0]
 8004f0e:	702a      	strb	r2, [r5, #0]
 8004f10:	6032      	str	r2, [r6, #0]
 8004f12:	e6e2      	b.n	8004cda <TIM1_BRK_TIM9_IRQHandler+0x1e>
 8004f14:	2200      	movs	r2, #0
 8004f16:	490c      	ldr	r1, [pc, #48]	; (8004f48 <TIM1_BRK_TIM9_IRQHandler+0x28c>)
 8004f18:	2003      	movs	r0, #3
 8004f1a:	2301      	movs	r3, #1
 8004f1c:	700a      	strb	r2, [r1, #0]
 8004f1e:	6030      	str	r0, [r6, #0]
 8004f20:	702b      	strb	r3, [r5, #0]
 8004f22:	e6da      	b.n	8004cda <TIM1_BRK_TIM9_IRQHandler+0x1e>
 8004f24:	2304      	movs	r3, #4
 8004f26:	2100      	movs	r1, #0
 8004f28:	6033      	str	r3, [r6, #0]
 8004f2a:	7021      	strb	r1, [r4, #0]
 8004f2c:	e6d5      	b.n	8004cda <TIM1_BRK_TIM9_IRQHandler+0x1e>
 8004f2e:	bf00      	nop
 8004f30:	10000b78 	.word	0x10000b78
 8004f34:	10000b70 	.word	0x10000b70
 8004f38:	10000b6c 	.word	0x10000b6c
 8004f3c:	10000b7c 	.word	0x10000b7c
 8004f40:	10000b72 	.word	0x10000b72
 8004f44:	10000b74 	.word	0x10000b74
 8004f48:	1000000c 	.word	0x1000000c

08004f4c <_Z10setup_ledsv>:
 8004f4c:	f44f 5260 	mov.w	r2, #14336	; 0x3800
 8004f50:	f2c4 0202 	movt	r2, #16386	; 0x4002
 8004f54:	f44f 6340 	mov.w	r3, #3072	; 0xc00
 8004f58:	6b11      	ldr	r1, [r2, #48]	; 0x30
 8004f5a:	f2c4 0302 	movt	r3, #16386	; 0x4002
 8004f5e:	f041 0008 	orr.w	r0, r1, #8
 8004f62:	6310      	str	r0, [r2, #48]	; 0x30
 8004f64:	6819      	ldr	r1, [r3, #0]
 8004f66:	f021 4040 	bic.w	r0, r1, #3221225472	; 0xc0000000
 8004f6a:	f040 4180 	orr.w	r1, r0, #1073741824	; 0x40000000
 8004f6e:	6019      	str	r1, [r3, #0]
 8004f70:	6858      	ldr	r0, [r3, #4]
 8004f72:	f420 4100 	bic.w	r1, r0, #32768	; 0x8000
 8004f76:	6059      	str	r1, [r3, #4]
 8004f78:	6898      	ldr	r0, [r3, #8]
 8004f7a:	f020 4140 	bic.w	r1, r0, #3221225472	; 0xc0000000
 8004f7e:	6099      	str	r1, [r3, #8]
 8004f80:	68d8      	ldr	r0, [r3, #12]
 8004f82:	f020 4140 	bic.w	r1, r0, #3221225472	; 0xc0000000
 8004f86:	60d9      	str	r1, [r3, #12]
 8004f88:	6958      	ldr	r0, [r3, #20]
 8004f8a:	f420 4100 	bic.w	r1, r0, #32768	; 0x8000
 8004f8e:	6159      	str	r1, [r3, #20]
 8004f90:	6b10      	ldr	r0, [r2, #48]	; 0x30
 8004f92:	f040 0108 	orr.w	r1, r0, #8
 8004f96:	6311      	str	r1, [r2, #48]	; 0x30
 8004f98:	6818      	ldr	r0, [r3, #0]
 8004f9a:	f020 7140 	bic.w	r1, r0, #50331648	; 0x3000000
 8004f9e:	f041 7080 	orr.w	r0, r1, #16777216	; 0x1000000
 8004fa2:	6018      	str	r0, [r3, #0]
 8004fa4:	6859      	ldr	r1, [r3, #4]
 8004fa6:	f421 5080 	bic.w	r0, r1, #4096	; 0x1000
 8004faa:	6058      	str	r0, [r3, #4]
 8004fac:	6899      	ldr	r1, [r3, #8]
 8004fae:	f021 7040 	bic.w	r0, r1, #50331648	; 0x3000000
 8004fb2:	6098      	str	r0, [r3, #8]
 8004fb4:	68d9      	ldr	r1, [r3, #12]
 8004fb6:	f021 7040 	bic.w	r0, r1, #50331648	; 0x3000000
 8004fba:	60d8      	str	r0, [r3, #12]
 8004fbc:	6959      	ldr	r1, [r3, #20]
 8004fbe:	f421 5080 	bic.w	r0, r1, #4096	; 0x1000
 8004fc2:	6158      	str	r0, [r3, #20]
 8004fc4:	6b11      	ldr	r1, [r2, #48]	; 0x30
 8004fc6:	f041 0008 	orr.w	r0, r1, #8
 8004fca:	6310      	str	r0, [r2, #48]	; 0x30
 8004fcc:	681a      	ldr	r2, [r3, #0]
 8004fce:	f022 6140 	bic.w	r1, r2, #201326592	; 0xc000000
 8004fd2:	f041 6080 	orr.w	r0, r1, #67108864	; 0x4000000
 8004fd6:	6018      	str	r0, [r3, #0]
 8004fd8:	685a      	ldr	r2, [r3, #4]
 8004fda:	f422 5100 	bic.w	r1, r2, #8192	; 0x2000
 8004fde:	6059      	str	r1, [r3, #4]
 8004fe0:	6898      	ldr	r0, [r3, #8]
 8004fe2:	f020 6240 	bic.w	r2, r0, #201326592	; 0xc000000
 8004fe6:	609a      	str	r2, [r3, #8]
 8004fe8:	68d9      	ldr	r1, [r3, #12]
 8004fea:	f021 6040 	bic.w	r0, r1, #201326592	; 0xc000000
 8004fee:	60d8      	str	r0, [r3, #12]
 8004ff0:	695a      	ldr	r2, [r3, #20]
 8004ff2:	f422 5100 	bic.w	r1, r2, #8192	; 0x2000
 8004ff6:	6159      	str	r1, [r3, #20]
 8004ff8:	4770      	bx	lr
 8004ffa:	bf00      	nop

08004ffc <TIM1_UP_TIM10_IRQHandler>:
 8004ffc:	4668      	mov	r0, sp
 8004ffe:	f020 0107 	bic.w	r1, r0, #7
 8005002:	468d      	mov	sp, r1
 8005004:	b4f1      	push	{r0, r4, r5, r6, r7}
 8005006:	f44f 4388 	mov.w	r3, #17408	; 0x4400
 800500a:	f2c4 0301 	movt	r3, #16385	; 0x4001
 800500e:	4931      	ldr	r1, [pc, #196]	; (80050d4 <TIM1_UP_TIM10_IRQHandler+0xd8>)
 8005010:	2200      	movs	r2, #0
 8005012:	611a      	str	r2, [r3, #16]
 8005014:	780b      	ldrb	r3, [r1, #0]
 8005016:	b923      	cbnz	r3, 8005022 <TIM1_UP_TIM10_IRQHandler+0x26>
 8005018:	f248 2084 	movw	r0, #33412	; 0x8284
 800501c:	f2c4 2041 	movt	r0, #16961	; 0x4241
 8005020:	6003      	str	r3, [r0, #0]
 8005022:	482d      	ldr	r0, [pc, #180]	; (80050d8 <TIM1_UP_TIM10_IRQHandler+0xdc>)
 8005024:	8804      	ldrh	r4, [r0, #0]
 8005026:	f404 4500 	and.w	r5, r4, #32768	; 0x8000
 800502a:	b2aa      	uxth	r2, r5
 800502c:	b1ea      	cbz	r2, 800506a <TIM1_UP_TIM10_IRQHandler+0x6e>
 800502e:	bf00      	nop
 8005030:	f248 228c 	movw	r2, #33420	; 0x828c
 8005034:	f2c4 2241 	movt	r2, #16961	; 0x4241
 8005038:	2501      	movs	r5, #1
 800503a:	6015      	str	r5, [r2, #0]
 800503c:	bf00      	nop
 800503e:	f248 229c 	movw	r2, #33436	; 0x829c
 8005042:	f2c4 2241 	movt	r2, #16961	; 0x4241
 8005046:	2500      	movs	r5, #0
 8005048:	2b0f      	cmp	r3, #15
 800504a:	6015      	str	r5, [r2, #0]
 800504c:	d013      	beq.n	8005076 <TIM1_UP_TIM10_IRQHandler+0x7a>
 800504e:	0064      	lsls	r4, r4, #1
 8005050:	3301      	adds	r3, #1
 8005052:	8004      	strh	r4, [r0, #0]
 8005054:	700b      	strb	r3, [r1, #0]
 8005056:	bf00      	nop
 8005058:	f248 209c 	movw	r0, #33436	; 0x829c
 800505c:	f2c4 2041 	movt	r0, #16961	; 0x4241
 8005060:	2101      	movs	r1, #1
 8005062:	6001      	str	r1, [r0, #0]
 8005064:	bcf1      	pop	{r0, r4, r5, r6, r7}
 8005066:	4685      	mov	sp, r0
 8005068:	4770      	bx	lr
 800506a:	f248 258c 	movw	r5, #33420	; 0x828c
 800506e:	f2c4 2541 	movt	r5, #16961	; 0x4241
 8005072:	602a      	str	r2, [r5, #0]
 8005074:	e7e2      	b.n	800503c <TIM1_UP_TIM10_IRQHandler+0x40>
 8005076:	4a19      	ldr	r2, [pc, #100]	; (80050dc <TIM1_UP_TIM10_IRQHandler+0xe0>)
 8005078:	6853      	ldr	r3, [r2, #4]
 800507a:	b1cb      	cbz	r3, 80050b0 <TIM1_UP_TIM10_IRQHandler+0xb4>
 800507c:	6814      	ldr	r4, [r2, #0]
 800507e:	881e      	ldrh	r6, [r3, #0]
 8005080:	b324      	cbz	r4, 80050cc <TIM1_UP_TIM10_IRQHandler+0xd0>
 8005082:	4d16      	ldr	r5, [pc, #88]	; (80050dc <TIM1_UP_TIM10_IRQHandler+0xe0>)
 8005084:	3302      	adds	r3, #2
 8005086:	f105 0718 	add.w	r7, r5, #24
 800508a:	42bb      	cmp	r3, r7
 800508c:	6053      	str	r3, [r2, #4]
 800508e:	bf04      	itt	eq
 8005090:	f105 0308 	addeq.w	r3, r5, #8
 8005094:	606b      	streq	r3, [r5, #4]
 8005096:	42a3      	cmp	r3, r4
 8005098:	d015      	beq.n	80050c6 <TIM1_UP_TIM10_IRQHandler+0xca>
 800509a:	8006      	strh	r6, [r0, #0]
 800509c:	2000      	movs	r0, #0
 800509e:	7008      	strb	r0, [r1, #0]
 80050a0:	bf00      	nop
 80050a2:	f248 2184 	movw	r1, #33412	; 0x8284
 80050a6:	f2c4 2141 	movt	r1, #16961	; 0x4241
 80050aa:	2201      	movs	r2, #1
 80050ac:	600a      	str	r2, [r1, #0]
 80050ae:	e7d2      	b.n	8005056 <TIM1_UP_TIM10_IRQHandler+0x5a>
 80050b0:	f44f 4000 	mov.w	r0, #32768	; 0x8000
 80050b4:	f44f 4288 	mov.w	r2, #17408	; 0x4400
 80050b8:	f2c4 2028 	movt	r0, #16936	; 0x4228
 80050bc:	f2c4 0201 	movt	r2, #16385	; 0x4001
 80050c0:	6003      	str	r3, [r0, #0]
 80050c2:	6253      	str	r3, [r2, #36]	; 0x24
 80050c4:	e7ea      	b.n	800509c <TIM1_UP_TIM10_IRQHandler+0xa0>
 80050c6:	2300      	movs	r3, #0
 80050c8:	6053      	str	r3, [r2, #4]
 80050ca:	e7e6      	b.n	800509a <TIM1_UP_TIM10_IRQHandler+0x9e>
 80050cc:	6013      	str	r3, [r2, #0]
 80050ce:	461c      	mov	r4, r3
 80050d0:	e7d7      	b.n	8005082 <TIM1_UP_TIM10_IRQHandler+0x86>
 80050d2:	bf00      	nop
 80050d4:	10000b9a 	.word	0x10000b9a
 80050d8:	10000b98 	.word	0x10000b98
 80050dc:	10000b80 	.word	0x10000b80

080050e0 <_Z9Dac_setupv>:
 80050e0:	f44f 5260 	mov.w	r2, #14336	; 0x3800
 80050e4:	f2c4 0202 	movt	r2, #16386	; 0x4002
 80050e8:	f44f 6340 	mov.w	r3, #3072	; 0xc00
 80050ec:	6b10      	ldr	r0, [r2, #48]	; 0x30
 80050ee:	4978      	ldr	r1, [pc, #480]	; (80052d0 <_Z9Dac_setupv+0x1f0>)
 80050f0:	f2c4 0302 	movt	r3, #16386	; 0x4002
 80050f4:	b430      	push	{r4, r5}
 80050f6:	f040 0408 	orr.w	r4, r0, #8
 80050fa:	6314      	str	r4, [r2, #48]	; 0x30
 80050fc:	681d      	ldr	r5, [r3, #0]
 80050fe:	f025 000c 	bic.w	r0, r5, #12
 8005102:	f040 0404 	orr.w	r4, r0, #4
 8005106:	601c      	str	r4, [r3, #0]
 8005108:	685d      	ldr	r5, [r3, #4]
 800510a:	f025 0002 	bic.w	r0, r5, #2
 800510e:	6058      	str	r0, [r3, #4]
 8005110:	689c      	ldr	r4, [r3, #8]
 8005112:	f024 050c 	bic.w	r5, r4, #12
 8005116:	f045 0008 	orr.w	r0, r5, #8
 800511a:	6098      	str	r0, [r3, #8]
 800511c:	68dc      	ldr	r4, [r3, #12]
 800511e:	f024 050c 	bic.w	r5, r4, #12
 8005122:	60dd      	str	r5, [r3, #12]
 8005124:	6958      	ldr	r0, [r3, #20]
 8005126:	f040 0402 	orr.w	r4, r0, #2
 800512a:	615c      	str	r4, [r3, #20]
 800512c:	6b15      	ldr	r5, [r2, #48]	; 0x30
 800512e:	f045 0008 	orr.w	r0, r5, #8
 8005132:	6310      	str	r0, [r2, #48]	; 0x30
 8005134:	681c      	ldr	r4, [r3, #0]
 8005136:	f024 05c0 	bic.w	r5, r4, #192	; 0xc0
 800513a:	f045 0040 	orr.w	r0, r5, #64	; 0x40
 800513e:	6018      	str	r0, [r3, #0]
 8005140:	685c      	ldr	r4, [r3, #4]
 8005142:	f024 0508 	bic.w	r5, r4, #8
 8005146:	605d      	str	r5, [r3, #4]
 8005148:	6898      	ldr	r0, [r3, #8]
 800514a:	f020 04c0 	bic.w	r4, r0, #192	; 0xc0
 800514e:	f044 0580 	orr.w	r5, r4, #128	; 0x80
 8005152:	609d      	str	r5, [r3, #8]
 8005154:	68d8      	ldr	r0, [r3, #12]
 8005156:	f020 04c0 	bic.w	r4, r0, #192	; 0xc0
 800515a:	60dc      	str	r4, [r3, #12]
 800515c:	695d      	ldr	r5, [r3, #20]
 800515e:	f025 0008 	bic.w	r0, r5, #8
 8005162:	6158      	str	r0, [r3, #20]
 8005164:	6b14      	ldr	r4, [r2, #48]	; 0x30
 8005166:	f044 0508 	orr.w	r5, r4, #8
 800516a:	6315      	str	r5, [r2, #48]	; 0x30
 800516c:	6818      	ldr	r0, [r3, #0]
 800516e:	f420 4440 	bic.w	r4, r0, #49152	; 0xc000
 8005172:	f444 4580 	orr.w	r5, r4, #16384	; 0x4000
 8005176:	601d      	str	r5, [r3, #0]
 8005178:	6858      	ldr	r0, [r3, #4]
 800517a:	f020 0480 	bic.w	r4, r0, #128	; 0x80
 800517e:	605c      	str	r4, [r3, #4]
 8005180:	689d      	ldr	r5, [r3, #8]
 8005182:	f425 4040 	bic.w	r0, r5, #49152	; 0xc000
 8005186:	f440 4400 	orr.w	r4, r0, #32768	; 0x8000
 800518a:	609c      	str	r4, [r3, #8]
 800518c:	68dd      	ldr	r5, [r3, #12]
 800518e:	f425 4040 	bic.w	r0, r5, #49152	; 0xc000
 8005192:	60d8      	str	r0, [r3, #12]
 8005194:	695c      	ldr	r4, [r3, #20]
 8005196:	f044 0580 	orr.w	r5, r4, #128	; 0x80
 800519a:	615d      	str	r5, [r3, #20]
 800519c:	6c55      	ldr	r5, [r2, #68]	; 0x44
 800519e:	f44f 4388 	mov.w	r3, #17408	; 0x4400
 80051a2:	f2c4 0301 	movt	r3, #16385	; 0x4001
 80051a6:	f445 3500 	orr.w	r5, r5, #131072	; 0x20000
 80051aa:	6455      	str	r5, [r2, #68]	; 0x44
 80051ac:	f44f 4461 	mov.w	r4, #57600	; 0xe100
 80051b0:	2504      	movs	r5, #4
 80051b2:	601d      	str	r5, [r3, #0]
 80051b4:	2000      	movs	r0, #0
 80051b6:	f2ce 0400 	movt	r4, #57344	; 0xe000
 80051ba:	f44f 65d2 	mov.w	r5, #1680	; 0x690
 80051be:	62dd      	str	r5, [r3, #44]	; 0x2c
 80051c0:	6258      	str	r0, [r3, #36]	; 0x24
 80051c2:	6118      	str	r0, [r3, #16]
 80051c4:	23f0      	movs	r3, #240	; 0xf0
 80051c6:	f884 3319 	strb.w	r3, [r4, #793]	; 0x319
 80051ca:	f248 1280 	movw	r2, #33152	; 0x8180
 80051ce:	680b      	ldr	r3, [r1, #0]
 80051d0:	f2c4 2228 	movt	r2, #16936	; 0x4228
 80051d4:	f04f 7500 	mov.w	r5, #33554432	; 0x2000000
 80051d8:	6025      	str	r5, [r4, #0]
 80051da:	6010      	str	r0, [r2, #0]
 80051dc:	b18b      	cbz	r3, 8005202 <_Z9Dac_setupv+0x122>
 80051de:	684a      	ldr	r2, [r1, #4]
 80051e0:	f244 3420 	movw	r4, #17184	; 0x4320
 80051e4:	801c      	strh	r4, [r3, #0]
 80051e6:	2a00      	cmp	r2, #0
 80051e8:	d06b      	beq.n	80052c2 <_Z9Dac_setupv+0x1e2>
 80051ea:	4839      	ldr	r0, [pc, #228]	; (80052d0 <_Z9Dac_setupv+0x1f0>)
 80051ec:	3302      	adds	r3, #2
 80051ee:	f100 0418 	add.w	r4, r0, #24
 80051f2:	42a3      	cmp	r3, r4
 80051f4:	600b      	str	r3, [r1, #0]
 80051f6:	bf04      	itt	eq
 80051f8:	f100 0308 	addeq.w	r3, r0, #8
 80051fc:	6003      	streq	r3, [r0, #0]
 80051fe:	429a      	cmp	r2, r3
 8005200:	d052      	beq.n	80052a8 <_Z9Dac_setupv+0x1c8>
 8005202:	bf00      	nop
 8005204:	f44f 4200 	mov.w	r2, #32768	; 0x8000
 8005208:	f2c4 2228 	movt	r2, #16936	; 0x4228
 800520c:	2001      	movs	r0, #1
 800520e:	6010      	str	r0, [r2, #0]
 8005210:	bf00      	nop
 8005212:	f248 1280 	movw	r2, #33152	; 0x8180
 8005216:	f2c4 2228 	movt	r2, #16936	; 0x4228
 800521a:	6010      	str	r0, [r2, #0]
 800521c:	2000      	movs	r0, #0
 800521e:	6010      	str	r0, [r2, #0]
 8005220:	b18b      	cbz	r3, 8005246 <_Z9Dac_setupv+0x166>
 8005222:	684a      	ldr	r2, [r1, #4]
 8005224:	f44f 440a 	mov.w	r4, #35328	; 0x8a00
 8005228:	801c      	strh	r4, [r3, #0]
 800522a:	2a00      	cmp	r2, #0
 800522c:	d04c      	beq.n	80052c8 <_Z9Dac_setupv+0x1e8>
 800522e:	4828      	ldr	r0, [pc, #160]	; (80052d0 <_Z9Dac_setupv+0x1f0>)
 8005230:	3302      	adds	r3, #2
 8005232:	f100 0418 	add.w	r4, r0, #24
 8005236:	42a3      	cmp	r3, r4
 8005238:	600b      	str	r3, [r1, #0]
 800523a:	bf04      	itt	eq
 800523c:	f100 0308 	addeq.w	r3, r0, #8
 8005240:	6003      	streq	r3, [r0, #0]
 8005242:	429a      	cmp	r2, r3
 8005244:	d033      	beq.n	80052ae <_Z9Dac_setupv+0x1ce>
 8005246:	bf00      	nop
 8005248:	f44f 4200 	mov.w	r2, #32768	; 0x8000
 800524c:	f2c4 2228 	movt	r2, #16936	; 0x4228
 8005250:	2001      	movs	r0, #1
 8005252:	6010      	str	r0, [r2, #0]
 8005254:	bf00      	nop
 8005256:	f248 1280 	movw	r2, #33152	; 0x8180
 800525a:	f2c4 2228 	movt	r2, #16936	; 0x4228
 800525e:	6010      	str	r0, [r2, #0]
 8005260:	2000      	movs	r0, #0
 8005262:	6010      	str	r0, [r2, #0]
 8005264:	b18b      	cbz	r3, 800528a <_Z9Dac_setupv+0x1aa>
 8005266:	684a      	ldr	r2, [r1, #4]
 8005268:	f24d 54e0 	movw	r4, #54752	; 0xd5e0
 800526c:	801c      	strh	r4, [r3, #0]
 800526e:	2a00      	cmp	r2, #0
 8005270:	d023      	beq.n	80052ba <_Z9Dac_setupv+0x1da>
 8005272:	4817      	ldr	r0, [pc, #92]	; (80052d0 <_Z9Dac_setupv+0x1f0>)
 8005274:	3302      	adds	r3, #2
 8005276:	f100 0418 	add.w	r4, r0, #24
 800527a:	42a3      	cmp	r3, r4
 800527c:	600b      	str	r3, [r1, #0]
 800527e:	bf04      	itt	eq
 8005280:	f100 0308 	addeq.w	r3, r0, #8
 8005284:	6003      	streq	r3, [r0, #0]
 8005286:	429a      	cmp	r2, r3
 8005288:	d014      	beq.n	80052b4 <_Z9Dac_setupv+0x1d4>
 800528a:	bf00      	nop
 800528c:	f44f 4100 	mov.w	r1, #32768	; 0x8000
 8005290:	f2c4 2128 	movt	r1, #16936	; 0x4228
 8005294:	2001      	movs	r0, #1
 8005296:	6008      	str	r0, [r1, #0]
 8005298:	bf00      	nop
 800529a:	f248 1380 	movw	r3, #33152	; 0x8180
 800529e:	f2c4 2328 	movt	r3, #16936	; 0x4228
 80052a2:	6018      	str	r0, [r3, #0]
 80052a4:	bc30      	pop	{r4, r5}
 80052a6:	4770      	bx	lr
 80052a8:	2300      	movs	r3, #0
 80052aa:	600b      	str	r3, [r1, #0]
 80052ac:	e7a9      	b.n	8005202 <_Z9Dac_setupv+0x122>
 80052ae:	2300      	movs	r3, #0
 80052b0:	600b      	str	r3, [r1, #0]
 80052b2:	e7c8      	b.n	8005246 <_Z9Dac_setupv+0x166>
 80052b4:	2200      	movs	r2, #0
 80052b6:	600a      	str	r2, [r1, #0]
 80052b8:	e7e7      	b.n	800528a <_Z9Dac_setupv+0x1aa>
 80052ba:	4a05      	ldr	r2, [pc, #20]	; (80052d0 <_Z9Dac_setupv+0x1f0>)
 80052bc:	6053      	str	r3, [r2, #4]
 80052be:	461a      	mov	r2, r3
 80052c0:	e7d7      	b.n	8005272 <_Z9Dac_setupv+0x192>
 80052c2:	604b      	str	r3, [r1, #4]
 80052c4:	461a      	mov	r2, r3
 80052c6:	e790      	b.n	80051ea <_Z9Dac_setupv+0x10a>
 80052c8:	4a01      	ldr	r2, [pc, #4]	; (80052d0 <_Z9Dac_setupv+0x1f0>)
 80052ca:	6053      	str	r3, [r2, #4]
 80052cc:	461a      	mov	r2, r3
 80052ce:	e7ae      	b.n	800522e <_Z9Dac_setupv+0x14e>
 80052d0:	10000b80 	.word	0x10000b80

080052d4 <_GLOBAL__sub_I__Z15dac_timer_setupv>:
 80052d4:	f640 3380 	movw	r3, #2944	; 0xb80
 80052d8:	f2c1 0300 	movt	r3, #4096	; 0x1000
 80052dc:	f103 0208 	add.w	r2, r3, #8
 80052e0:	2000      	movs	r0, #0
 80052e2:	601a      	str	r2, [r3, #0]
 80052e4:	6058      	str	r0, [r3, #4]
 80052e6:	4770      	bx	lr

080052e8 <main>:
 80052e8:	b508      	push	{r3, lr}
 80052ea:	f000 f81f 	bl	800532c <setup>
 80052ee:	f7ff fc2d 	bl	8004b4c <_Z16create_draw_taskv>
 80052f2:	f000 fbe7 	bl	8005ac4 <vTaskStartScheduler>
 80052f6:	e7fe      	b.n	80052f6 <main+0xe>

080052f8 <_sbrk>:
 80052f8:	4a08      	ldr	r2, [pc, #32]	; (800531c <_sbrk+0x24>)
 80052fa:	4909      	ldr	r1, [pc, #36]	; (8005320 <_sbrk+0x28>)
 80052fc:	b508      	push	{r3, lr}
 80052fe:	6813      	ldr	r3, [r2, #0]
 8005300:	1818      	adds	r0, r3, r0
 8005302:	4288      	cmp	r0, r1
 8005304:	d802      	bhi.n	800530c <_sbrk+0x14>
 8005306:	6010      	str	r0, [r2, #0]
 8005308:	4618      	mov	r0, r3
 800530a:	bd08      	pop	{r3, pc}
 800530c:	f002 f888 	bl	8007420 <__errno>
 8005310:	220c      	movs	r2, #12
 8005312:	f04f 33ff 	mov.w	r3, #4294967295
 8005316:	6002      	str	r2, [r0, #0]
 8005318:	4618      	mov	r0, r3
 800531a:	bd08      	pop	{r3, pc}
 800531c:	1000019c 	.word	0x1000019c
 8005320:	10008e64 	.word	0x10008e64

08005324 <__cxa_pure_virtual>:
 8005324:	e7fe      	b.n	8005324 <__cxa_pure_virtual>
 8005326:	bf00      	nop

08005328 <_ZdlPv>:
 8005328:	f002 b85c 	b.w	80073e4 <vPortFree>

0800532c <setup>:
 800532c:	f44f 5260 	mov.w	r2, #14336	; 0x3800
 8005330:	f2c4 0202 	movt	r2, #16386	; 0x4002
 8005334:	b508      	push	{r3, lr}
 8005336:	6b11      	ldr	r1, [r2, #48]	; 0x30
 8005338:	f44f 6380 	mov.w	r3, #1024	; 0x400
 800533c:	f2c4 0302 	movt	r3, #16386	; 0x4002
 8005340:	f041 0002 	orr.w	r0, r1, #2
 8005344:	6310      	str	r0, [r2, #48]	; 0x30
 8005346:	681a      	ldr	r2, [r3, #0]
 8005348:	f022 0130 	bic.w	r1, r2, #48	; 0x30
 800534c:	f041 0010 	orr.w	r0, r1, #16
 8005350:	6018      	str	r0, [r3, #0]
 8005352:	685a      	ldr	r2, [r3, #4]
 8005354:	f022 0104 	bic.w	r1, r2, #4
 8005358:	6059      	str	r1, [r3, #4]
 800535a:	6898      	ldr	r0, [r3, #8]
 800535c:	f020 0230 	bic.w	r2, r0, #48	; 0x30
 8005360:	609a      	str	r2, [r3, #8]
 8005362:	68d9      	ldr	r1, [r3, #12]
 8005364:	f021 0030 	bic.w	r0, r1, #48	; 0x30
 8005368:	60d8      	str	r0, [r3, #12]
 800536a:	695a      	ldr	r2, [r3, #20]
 800536c:	f022 0104 	bic.w	r1, r2, #4
 8005370:	6159      	str	r1, [r3, #20]
 8005372:	f7ff fdeb 	bl	8004f4c <_Z10setup_ledsv>
 8005376:	f7fe fa89 	bl	800388c <_Z11video_setupv>
 800537a:	e8bd 4008 	ldmia.w	sp!, {r3, lr}
 800537e:	f7ff beaf 	b.w	80050e0 <_Z9Dac_setupv>
 8005382:	bf00      	nop

08005384 <USART2_IRQHandler>:
 8005384:	4668      	mov	r0, sp
 8005386:	f020 0107 	bic.w	r1, r0, #7
 800538a:	468d      	mov	sp, r1
 800538c:	b511      	push	{r0, r4, lr}
 800538e:	f248 0214 	movw	r2, #32788	; 0x8014
 8005392:	b083      	sub	sp, #12
 8005394:	2300      	movs	r3, #0
 8005396:	f2c4 2208 	movt	r2, #16904	; 0x4208
 800539a:	9301      	str	r3, [sp, #4]
 800539c:	6810      	ldr	r0, [r2, #0]
 800539e:	b1d0      	cbz	r0, 80053d6 <USART2_IRQHandler+0x52>
 80053a0:	f44f 4088 	mov.w	r0, #17408	; 0x4400
 80053a4:	f2c4 0000 	movt	r0, #16384	; 0x4000
 80053a8:	a902      	add	r1, sp, #8
 80053aa:	8882      	ldrh	r2, [r0, #4]
 80053ac:	481c      	ldr	r0, [pc, #112]	; (8005420 <USART2_IRQHandler+0x9c>)
 80053ae:	f801 2d05 	strb.w	r2, [r1, #-5]!
 80053b2:	6800      	ldr	r0, [r0, #0]
 80053b4:	aa01      	add	r2, sp, #4
 80053b6:	f001 f979 	bl	80066ac <xQueueGenericSendFromISR>
 80053ba:	9b01      	ldr	r3, [sp, #4]
 80053bc:	b133      	cbz	r3, 80053cc <USART2_IRQHandler+0x48>
 80053be:	f64e 5104 	movw	r1, #60676	; 0xed04
 80053c2:	f2ce 0100 	movt	r1, #57344	; 0xe000
 80053c6:	f04f 5280 	mov.w	r2, #268435456	; 0x10000000
 80053ca:	600a      	str	r2, [r1, #0]
 80053cc:	b003      	add	sp, #12
 80053ce:	e8bd 4011 	ldmia.w	sp!, {r0, r4, lr}
 80053d2:	4685      	mov	sp, r0
 80053d4:	4770      	bx	lr
 80053d6:	4c13      	ldr	r4, [pc, #76]	; (8005424 <USART2_IRQHandler+0xa0>)
 80053d8:	6820      	ldr	r0, [r4, #0]
 80053da:	f001 fb45 	bl	8006a68 <xQueueIsQueueEmptyFromISR>
 80053de:	b158      	cbz	r0, 80053f8 <USART2_IRQHandler+0x74>
 80053e0:	6820      	ldr	r0, [r4, #0]
 80053e2:	f001 fb41 	bl	8006a68 <xQueueIsQueueEmptyFromISR>
 80053e6:	2800      	cmp	r0, #0
 80053e8:	d0e7      	beq.n	80053ba <USART2_IRQHandler+0x36>
 80053ea:	f248 109c 	movw	r0, #33180	; 0x819c
 80053ee:	f2c4 2008 	movt	r0, #16904	; 0x4208
 80053f2:	2200      	movs	r2, #0
 80053f4:	6002      	str	r2, [r0, #0]
 80053f6:	e7e0      	b.n	80053ba <USART2_IRQHandler+0x36>
 80053f8:	f10d 0103 	add.w	r1, sp, #3
 80053fc:	6820      	ldr	r0, [r4, #0]
 80053fe:	aa01      	add	r2, sp, #4
 8005400:	f001 faf8 	bl	80069f4 <xQueueReceiveFromISR>
 8005404:	f44f 4388 	mov.w	r3, #17408	; 0x4400
 8005408:	f89d 1003 	ldrb.w	r1, [sp, #3]
 800540c:	6820      	ldr	r0, [r4, #0]
 800540e:	f2c4 0300 	movt	r3, #16384	; 0x4000
 8005412:	8099      	strh	r1, [r3, #4]
 8005414:	f001 fb28 	bl	8006a68 <xQueueIsQueueEmptyFromISR>
 8005418:	2800      	cmp	r0, #0
 800541a:	d0ce      	beq.n	80053ba <USART2_IRQHandler+0x36>
 800541c:	e7e5      	b.n	80053ea <USART2_IRQHandler+0x66>
 800541e:	bf00      	nop
 8005420:	10000ba0 	.word	0x10000ba0
 8005424:	10000ba4 	.word	0x10000ba4

08005428 <USART3_IRQHandler>:
 8005428:	4668      	mov	r0, sp
 800542a:	f020 0107 	bic.w	r1, r0, #7
 800542e:	468d      	mov	sp, r1
 8005430:	b511      	push	{r0, r4, lr}
 8005432:	2214      	movs	r2, #20
 8005434:	b083      	sub	sp, #12
 8005436:	2300      	movs	r3, #0
 8005438:	f2c4 2209 	movt	r2, #16905	; 0x4209
 800543c:	9301      	str	r3, [sp, #4]
 800543e:	6810      	ldr	r0, [r2, #0]
 8005440:	b1d0      	cbz	r0, 8005478 <USART3_IRQHandler+0x50>
 8005442:	f44f 4090 	mov.w	r0, #18432	; 0x4800
 8005446:	f2c4 0000 	movt	r0, #16384	; 0x4000
 800544a:	a902      	add	r1, sp, #8
 800544c:	8882      	ldrh	r2, [r0, #4]
 800544e:	481c      	ldr	r0, [pc, #112]	; (80054c0 <USART3_IRQHandler+0x98>)
 8005450:	f801 2d05 	strb.w	r2, [r1, #-5]!
 8005454:	6800      	ldr	r0, [r0, #0]
 8005456:	aa01      	add	r2, sp, #4
 8005458:	f001 f928 	bl	80066ac <xQueueGenericSendFromISR>
 800545c:	9b01      	ldr	r3, [sp, #4]
 800545e:	b133      	cbz	r3, 800546e <USART3_IRQHandler+0x46>
 8005460:	f64e 5104 	movw	r1, #60676	; 0xed04
 8005464:	f2ce 0100 	movt	r1, #57344	; 0xe000
 8005468:	f04f 5280 	mov.w	r2, #268435456	; 0x10000000
 800546c:	600a      	str	r2, [r1, #0]
 800546e:	b003      	add	sp, #12
 8005470:	e8bd 4011 	ldmia.w	sp!, {r0, r4, lr}
 8005474:	4685      	mov	sp, r0
 8005476:	4770      	bx	lr
 8005478:	4c12      	ldr	r4, [pc, #72]	; (80054c4 <USART3_IRQHandler+0x9c>)
 800547a:	6820      	ldr	r0, [r4, #0]
 800547c:	f001 faf4 	bl	8006a68 <xQueueIsQueueEmptyFromISR>
 8005480:	b158      	cbz	r0, 800549a <USART3_IRQHandler+0x72>
 8005482:	6820      	ldr	r0, [r4, #0]
 8005484:	f001 faf0 	bl	8006a68 <xQueueIsQueueEmptyFromISR>
 8005488:	2800      	cmp	r0, #0
 800548a:	d0e7      	beq.n	800545c <USART3_IRQHandler+0x34>
 800548c:	f44f 70ce 	mov.w	r0, #412	; 0x19c
 8005490:	f2c4 2009 	movt	r0, #16905	; 0x4209
 8005494:	2200      	movs	r2, #0
 8005496:	6002      	str	r2, [r0, #0]
 8005498:	e7e0      	b.n	800545c <USART3_IRQHandler+0x34>
 800549a:	f10d 0103 	add.w	r1, sp, #3
 800549e:	6820      	ldr	r0, [r4, #0]
 80054a0:	aa01      	add	r2, sp, #4
 80054a2:	f001 faa7 	bl	80069f4 <xQueueReceiveFromISR>
 80054a6:	f44f 4390 	mov.w	r3, #18432	; 0x4800
 80054aa:	f89d 1003 	ldrb.w	r1, [sp, #3]
 80054ae:	6820      	ldr	r0, [r4, #0]
 80054b0:	f2c4 0300 	movt	r3, #16384	; 0x4000
 80054b4:	8099      	strh	r1, [r3, #4]
 80054b6:	f001 fad7 	bl	8006a68 <xQueueIsQueueEmptyFromISR>
 80054ba:	2800      	cmp	r0, #0
 80054bc:	d0ce      	beq.n	800545c <USART3_IRQHandler+0x34>
 80054be:	e7e5      	b.n	800548c <USART3_IRQHandler+0x64>
 80054c0:	10000ba8 	.word	0x10000ba8
 80054c4:	10000bac 	.word	0x10000bac

080054c8 <TIM6_DAC_IRQHandler>:
 80054c8:	4668      	mov	r0, sp
 80054ca:	f020 0107 	bic.w	r1, r0, #7
 80054ce:	468d      	mov	sp, r1
 80054d0:	4998      	ldr	r1, [pc, #608]	; (8005734 <TIM6_DAC_IRQHandler+0x26c>)
 80054d2:	f44f 7200 	mov.w	r2, #512	; 0x200
 80054d6:	f2c4 2202 	movt	r2, #16898	; 0x4202
 80054da:	780b      	ldrb	r3, [r1, #0]
 80054dc:	b4f1      	push	{r0, r4, r5, r6, r7}
 80054de:	2000      	movs	r0, #0
 80054e0:	6010      	str	r0, [r2, #0]
 80054e2:	2b03      	cmp	r3, #3
 80054e4:	d83f      	bhi.n	8005566 <TIM6_DAC_IRQHandler+0x9e>
 80054e6:	e8df f003 	tbb	[pc, r3]
 80054ea:	6e02      	.short	0x6e02
 80054ec:	4161      	.short	0x4161
 80054ee:	4b92      	ldr	r3, [pc, #584]	; (8005738 <TIM6_DAC_IRQHandler+0x270>)
 80054f0:	881a      	ldrh	r2, [r3, #0]
 80054f2:	1c50      	adds	r0, r2, #1
 80054f4:	b284      	uxth	r4, r0
 80054f6:	2c15      	cmp	r4, #21
 80054f8:	801c      	strh	r4, [r3, #0]
 80054fa:	d95e      	bls.n	80055ba <TIM6_DAC_IRQHandler+0xf2>
 80054fc:	4f8f      	ldr	r7, [pc, #572]	; (800573c <TIM6_DAC_IRQHandler+0x274>)
 80054fe:	687a      	ldr	r2, [r7, #4]
 8005500:	2a00      	cmp	r2, #0
 8005502:	f000 80df 	beq.w	80056c4 <TIM6_DAC_IRQHandler+0x1fc>
 8005506:	7816      	ldrb	r6, [r2, #0]
 8005508:	4d8d      	ldr	r5, [pc, #564]	; (8005740 <TIM6_DAC_IRQHandler+0x278>)
 800550a:	683c      	ldr	r4, [r7, #0]
 800550c:	702e      	strb	r6, [r5, #0]
 800550e:	2c00      	cmp	r4, #0
 8005510:	f000 810d 	beq.w	800572e <TIM6_DAC_IRQHandler+0x266>
 8005514:	4d89      	ldr	r5, [pc, #548]	; (800573c <TIM6_DAC_IRQHandler+0x274>)
 8005516:	1c50      	adds	r0, r2, #1
 8005518:	f105 0280 	add.w	r2, r5, #128	; 0x80
 800551c:	4290      	cmp	r0, r2
 800551e:	6078      	str	r0, [r7, #4]
 8005520:	bf04      	itt	eq
 8005522:	f105 0008 	addeq.w	r0, r5, #8
 8005526:	6068      	streq	r0, [r5, #4]
 8005528:	4284      	cmp	r4, r0
 800552a:	f000 80fd 	beq.w	8005728 <TIM6_DAC_IRQHandler+0x260>
 800552e:	4a85      	ldr	r2, [pc, #532]	; (8005744 <TIM6_DAC_IRQHandler+0x27c>)
 8005530:	6816      	ldr	r6, [r2, #0]
 8005532:	f248 37e1 	movw	r7, #33761	; 0x83e1
 8005536:	f106 040b 	add.w	r4, r6, #11
 800553a:	f6c3 670f 	movt	r7, #15887	; 0x3e0f
 800553e:	fba7 0504 	umull	r0, r5, r7, r4
 8005542:	4f81      	ldr	r7, [pc, #516]	; (8005748 <TIM6_DAC_IRQHandler+0x280>)
 8005544:	f44f 40e8 	mov.w	r0, #29696	; 0x7400
 8005548:	096d      	lsrs	r5, r5, #5
 800554a:	f837 6016 	ldrh.w	r6, [r7, r6, lsl #1]
 800554e:	f2c4 0000 	movt	r0, #16384	; 0x4000
 8005552:	eb05 1545 	add.w	r5, r5, r5, lsl #5
 8005556:	eba4 0485 	sub.w	r4, r4, r5, lsl #2
 800555a:	6206      	str	r6, [r0, #32]
 800555c:	6014      	str	r4, [r2, #0]
 800555e:	2201      	movs	r2, #1
 8005560:	700a      	strb	r2, [r1, #0]
 8005562:	2201      	movs	r2, #1
 8005564:	801a      	strh	r2, [r3, #0]
 8005566:	bcf1      	pop	{r0, r4, r5, r6, r7}
 8005568:	4685      	mov	sp, r0
 800556a:	4770      	bx	lr
 800556c:	4b72      	ldr	r3, [pc, #456]	; (8005738 <TIM6_DAC_IRQHandler+0x270>)
 800556e:	881c      	ldrh	r4, [r3, #0]
 8005570:	1c65      	adds	r5, r4, #1
 8005572:	b2aa      	uxth	r2, r5
 8005574:	2a15      	cmp	r2, #21
 8005576:	801a      	strh	r2, [r3, #0]
 8005578:	d850      	bhi.n	800561c <TIM6_DAC_IRQHandler+0x154>
 800557a:	4b72      	ldr	r3, [pc, #456]	; (8005744 <TIM6_DAC_IRQHandler+0x27c>)
 800557c:	681c      	ldr	r4, [r3, #0]
 800557e:	f248 35e1 	movw	r5, #33761	; 0x83e1
 8005582:	f104 010b 	add.w	r1, r4, #11
 8005586:	f6c3 650f 	movt	r5, #15887	; 0x3e0f
 800558a:	fba5 2501 	umull	r2, r5, r5, r1
 800558e:	0968      	lsrs	r0, r5, #5
 8005590:	4d6d      	ldr	r5, [pc, #436]	; (8005748 <TIM6_DAC_IRQHandler+0x280>)
 8005592:	f44f 42e8 	mov.w	r2, #29696	; 0x7400
 8005596:	f835 4014 	ldrh.w	r4, [r5, r4, lsl #1]
 800559a:	f2c4 0200 	movt	r2, #16384	; 0x4000
 800559e:	eb00 1040 	add.w	r0, r0, r0, lsl #5
 80055a2:	eba1 0180 	sub.w	r1, r1, r0, lsl #2
 80055a6:	6214      	str	r4, [r2, #32]
 80055a8:	6019      	str	r1, [r3, #0]
 80055aa:	e7dc      	b.n	8005566 <TIM6_DAC_IRQHandler+0x9e>
 80055ac:	4b62      	ldr	r3, [pc, #392]	; (8005738 <TIM6_DAC_IRQHandler+0x270>)
 80055ae:	8818      	ldrh	r0, [r3, #0]
 80055b0:	1c44      	adds	r4, r0, #1
 80055b2:	b2a5      	uxth	r5, r4
 80055b4:	2d15      	cmp	r5, #21
 80055b6:	801d      	strh	r5, [r3, #0]
 80055b8:	d830      	bhi.n	800561c <TIM6_DAC_IRQHandler+0x154>
 80055ba:	4b62      	ldr	r3, [pc, #392]	; (8005744 <TIM6_DAC_IRQHandler+0x27c>)
 80055bc:	681c      	ldr	r4, [r3, #0]
 80055be:	f248 35e1 	movw	r5, #33761	; 0x83e1
 80055c2:	1da1      	adds	r1, r4, #6
 80055c4:	e7df      	b.n	8005586 <TIM6_DAC_IRQHandler+0xbe>
 80055c6:	4b5c      	ldr	r3, [pc, #368]	; (8005738 <TIM6_DAC_IRQHandler+0x270>)
 80055c8:	881c      	ldrh	r4, [r3, #0]
 80055ca:	1c60      	adds	r0, r4, #1
 80055cc:	b285      	uxth	r5, r0
 80055ce:	2d15      	cmp	r5, #21
 80055d0:	801d      	strh	r5, [r3, #0]
 80055d2:	d9d2      	bls.n	800557a <TIM6_DAC_IRQHandler+0xb2>
 80055d4:	4e5a      	ldr	r6, [pc, #360]	; (8005740 <TIM6_DAC_IRQHandler+0x278>)
 80055d6:	4a5b      	ldr	r2, [pc, #364]	; (8005744 <TIM6_DAC_IRQHandler+0x27c>)
 80055d8:	7837      	ldrb	r7, [r6, #0]
 80055da:	6816      	ldr	r6, [r2, #0]
 80055dc:	f017 0f01 	tst.w	r7, #1
 80055e0:	f248 30e1 	movw	r0, #33761	; 0x83e1
 80055e4:	d043      	beq.n	800566e <TIM6_DAC_IRQHandler+0x1a6>
 80055e6:	1db4      	adds	r4, r6, #6
 80055e8:	f6c3 600f 	movt	r0, #15887	; 0x3e0f
 80055ec:	fba0 7004 	umull	r7, r0, r0, r4
 80055f0:	4f55      	ldr	r7, [pc, #340]	; (8005748 <TIM6_DAC_IRQHandler+0x280>)
 80055f2:	f44f 45e8 	mov.w	r5, #29696	; 0x7400
 80055f6:	f837 6016 	ldrh.w	r6, [r7, r6, lsl #1]
 80055fa:	f2c4 0500 	movt	r5, #16384	; 0x4000
 80055fe:	0940      	lsrs	r0, r0, #5
 8005600:	eb00 1040 	add.w	r0, r0, r0, lsl #5
 8005604:	eba4 0080 	sub.w	r0, r4, r0, lsl #2
 8005608:	622e      	str	r6, [r5, #32]
 800560a:	2402      	movs	r4, #2
 800560c:	6010      	str	r0, [r2, #0]
 800560e:	4a4f      	ldr	r2, [pc, #316]	; (800574c <TIM6_DAC_IRQHandler+0x284>)
 8005610:	700c      	strb	r4, [r1, #0]
 8005612:	2001      	movs	r0, #1
 8005614:	2100      	movs	r1, #0
 8005616:	7011      	strb	r1, [r2, #0]
 8005618:	8018      	strh	r0, [r3, #0]
 800561a:	e7a4      	b.n	8005566 <TIM6_DAC_IRQHandler+0x9e>
 800561c:	4e4b      	ldr	r6, [pc, #300]	; (800574c <TIM6_DAC_IRQHandler+0x284>)
 800561e:	7837      	ldrb	r7, [r6, #0]
 8005620:	1c7a      	adds	r2, r7, #1
 8005622:	b2d4      	uxtb	r4, r2
 8005624:	2c08      	cmp	r4, #8
 8005626:	7034      	strb	r4, [r6, #0]
 8005628:	d064      	beq.n	80056f4 <TIM6_DAC_IRQHandler+0x22c>
 800562a:	4845      	ldr	r0, [pc, #276]	; (8005740 <TIM6_DAC_IRQHandler+0x278>)
 800562c:	4a45      	ldr	r2, [pc, #276]	; (8005744 <TIM6_DAC_IRQHandler+0x27c>)
 800562e:	7805      	ldrb	r5, [r0, #0]
 8005630:	fa45 f604 	asr.w	r6, r5, r4
 8005634:	f016 0f01 	tst.w	r6, #1
 8005638:	f248 37e1 	movw	r7, #33761	; 0x83e1
 800563c:	6816      	ldr	r6, [r2, #0]
 800563e:	d12b      	bne.n	8005698 <TIM6_DAC_IRQHandler+0x1d0>
 8005640:	f106 040b 	add.w	r4, r6, #11
 8005644:	f6c3 670f 	movt	r7, #15887	; 0x3e0f
 8005648:	fba7 7504 	umull	r7, r5, r7, r4
 800564c:	4f3e      	ldr	r7, [pc, #248]	; (8005748 <TIM6_DAC_IRQHandler+0x280>)
 800564e:	f44f 40e8 	mov.w	r0, #29696	; 0x7400
 8005652:	096d      	lsrs	r5, r5, #5
 8005654:	f837 6016 	ldrh.w	r6, [r7, r6, lsl #1]
 8005658:	f2c4 0000 	movt	r0, #16384	; 0x4000
 800565c:	eb05 1545 	add.w	r5, r5, r5, lsl #5
 8005660:	eba4 0485 	sub.w	r4, r4, r5, lsl #2
 8005664:	6206      	str	r6, [r0, #32]
 8005666:	6014      	str	r4, [r2, #0]
 8005668:	2203      	movs	r2, #3
 800566a:	700a      	strb	r2, [r1, #0]
 800566c:	e779      	b.n	8005562 <TIM6_DAC_IRQHandler+0x9a>
 800566e:	f106 040b 	add.w	r4, r6, #11
 8005672:	f6c3 600f 	movt	r0, #15887	; 0x3e0f
 8005676:	fba0 7004 	umull	r7, r0, r0, r4
 800567a:	4f33      	ldr	r7, [pc, #204]	; (8005748 <TIM6_DAC_IRQHandler+0x280>)
 800567c:	f44f 45e8 	mov.w	r5, #29696	; 0x7400
 8005680:	f837 6016 	ldrh.w	r6, [r7, r6, lsl #1]
 8005684:	f2c4 0500 	movt	r5, #16384	; 0x4000
 8005688:	0940      	lsrs	r0, r0, #5
 800568a:	eb00 1040 	add.w	r0, r0, r0, lsl #5
 800568e:	eba4 0080 	sub.w	r0, r4, r0, lsl #2
 8005692:	622e      	str	r6, [r5, #32]
 8005694:	2403      	movs	r4, #3
 8005696:	e7b9      	b.n	800560c <TIM6_DAC_IRQHandler+0x144>
 8005698:	1db4      	adds	r4, r6, #6
 800569a:	f6c3 670f 	movt	r7, #15887	; 0x3e0f
 800569e:	fba7 0704 	umull	r0, r7, r7, r4
 80056a2:	097d      	lsrs	r5, r7, #5
 80056a4:	4f28      	ldr	r7, [pc, #160]	; (8005748 <TIM6_DAC_IRQHandler+0x280>)
 80056a6:	f44f 40e8 	mov.w	r0, #29696	; 0x7400
 80056aa:	f837 6016 	ldrh.w	r6, [r7, r6, lsl #1]
 80056ae:	f2c4 0000 	movt	r0, #16384	; 0x4000
 80056b2:	eb05 1545 	add.w	r5, r5, r5, lsl #5
 80056b6:	eba4 0485 	sub.w	r4, r4, r5, lsl #2
 80056ba:	6206      	str	r6, [r0, #32]
 80056bc:	6014      	str	r4, [r2, #0]
 80056be:	2202      	movs	r2, #2
 80056c0:	700a      	strb	r2, [r1, #0]
 80056c2:	e74e      	b.n	8005562 <TIM6_DAC_IRQHandler+0x9a>
 80056c4:	4a1f      	ldr	r2, [pc, #124]	; (8005744 <TIM6_DAC_IRQHandler+0x27c>)
 80056c6:	6815      	ldr	r5, [r2, #0]
 80056c8:	f248 31e1 	movw	r1, #33761	; 0x83e1
 80056cc:	1da8      	adds	r0, r5, #6
 80056ce:	f6c3 610f 	movt	r1, #15887	; 0x3e0f
 80056d2:	fba1 7600 	umull	r7, r6, r1, r0
 80056d6:	0974      	lsrs	r4, r6, #5
 80056d8:	4e1b      	ldr	r6, [pc, #108]	; (8005748 <TIM6_DAC_IRQHandler+0x280>)
 80056da:	f44f 47e8 	mov.w	r7, #29696	; 0x7400
 80056de:	f836 5015 	ldrh.w	r5, [r6, r5, lsl #1]
 80056e2:	f2c4 0700 	movt	r7, #16384	; 0x4000
 80056e6:	eb04 1444 	add.w	r4, r4, r4, lsl #5
 80056ea:	eba0 0184 	sub.w	r1, r0, r4, lsl #2
 80056ee:	623d      	str	r5, [r7, #32]
 80056f0:	6011      	str	r1, [r2, #0]
 80056f2:	e736      	b.n	8005562 <TIM6_DAC_IRQHandler+0x9a>
 80056f4:	4a13      	ldr	r2, [pc, #76]	; (8005744 <TIM6_DAC_IRQHandler+0x27c>)
 80056f6:	6816      	ldr	r6, [r2, #0]
 80056f8:	f248 37e1 	movw	r7, #33761	; 0x83e1
 80056fc:	1db4      	adds	r4, r6, #6
 80056fe:	f6c3 670f 	movt	r7, #15887	; 0x3e0f
 8005702:	fba7 7504 	umull	r7, r5, r7, r4
 8005706:	4f10      	ldr	r7, [pc, #64]	; (8005748 <TIM6_DAC_IRQHandler+0x280>)
 8005708:	f44f 40e8 	mov.w	r0, #29696	; 0x7400
 800570c:	096d      	lsrs	r5, r5, #5
 800570e:	f837 6016 	ldrh.w	r6, [r7, r6, lsl #1]
 8005712:	f2c4 0000 	movt	r0, #16384	; 0x4000
 8005716:	eb05 1545 	add.w	r5, r5, r5, lsl #5
 800571a:	eba4 0485 	sub.w	r4, r4, r5, lsl #2
 800571e:	6206      	str	r6, [r0, #32]
 8005720:	6014      	str	r4, [r2, #0]
 8005722:	2200      	movs	r2, #0
 8005724:	700a      	strb	r2, [r1, #0]
 8005726:	e71c      	b.n	8005562 <TIM6_DAC_IRQHandler+0x9a>
 8005728:	2600      	movs	r6, #0
 800572a:	607e      	str	r6, [r7, #4]
 800572c:	e6ff      	b.n	800552e <TIM6_DAC_IRQHandler+0x66>
 800572e:	603a      	str	r2, [r7, #0]
 8005730:	4614      	mov	r4, r2
 8005732:	e6ef      	b.n	8005514 <TIM6_DAC_IRQHandler+0x4c>
 8005734:	10000bb6 	.word	0x10000bb6
 8005738:	10000c38 	.word	0x10000c38
 800573c:	10000bb8 	.word	0x10000bb8
 8005740:	10000bb4 	.word	0x10000bb4
 8005744:	10000bb0 	.word	0x10000bb0
 8005748:	0800f81c 	.word	0x0800f81c
 800574c:	10000bb5 	.word	0x10000bb5

08005750 <_GLOBAL__sub_I__ZN3fsk3putEc>:
 8005750:	f640 33b8 	movw	r3, #3000	; 0xbb8
 8005754:	f2c1 0300 	movt	r3, #4096	; 0x1000
 8005758:	f103 0208 	add.w	r2, r3, #8
 800575c:	2000      	movs	r0, #0
 800575e:	601a      	str	r2, [r3, #0]
 8005760:	6058      	str	r0, [r3, #4]
 8005762:	4770      	bx	lr

08005764 <_ZN12_GLOBAL__N_110zapp1_impl14create_messageIlE6assignERKl.isra.0>:
 8005764:	7802      	ldrb	r2, [r0, #0]
 8005766:	7843      	ldrb	r3, [r0, #1]
 8005768:	7081      	strb	r1, [r0, #2]
 800576a:	b430      	push	{r4, r5}
 800576c:	18d4      	adds	r4, r2, r3
 800576e:	1915      	adds	r5, r2, r4
 8005770:	eb05 2214 	add.w	r2, r5, r4, lsr #8
 8005774:	f002 04ff 	and.w	r4, r2, #255	; 0xff
 8005778:	fa54 f381 	uxtab	r3, r4, r1
 800577c:	18e5      	adds	r5, r4, r3
 800577e:	eb05 2413 	add.w	r4, r5, r3, lsr #8
 8005782:	f3c1 2207 	ubfx	r2, r1, #8, #8
 8005786:	f004 05ff 	and.w	r5, r4, #255	; 0xff
 800578a:	18ab      	adds	r3, r5, r2
 800578c:	18ec      	adds	r4, r5, r3
 800578e:	eb04 2513 	add.w	r5, r4, r3, lsr #8
 8005792:	f005 05ff 	and.w	r5, r5, #255	; 0xff
 8005796:	f3c1 4307 	ubfx	r3, r1, #16, #8
 800579a:	18ec      	adds	r4, r5, r3
 800579c:	192d      	adds	r5, r5, r4
 800579e:	eb05 2414 	add.w	r4, r5, r4, lsr #8
 80057a2:	f3c1 6107 	ubfx	r1, r1, #24, #8
 80057a6:	f004 05ff 	and.w	r5, r4, #255	; 0xff
 80057aa:	186c      	adds	r4, r5, r1
 80057ac:	192d      	adds	r5, r5, r4
 80057ae:	1224      	asrs	r4, r4, #8
 80057b0:	fa54 f485 	uxtab	r4, r4, r5
 80057b4:	70c2      	strb	r2, [r0, #3]
 80057b6:	7103      	strb	r3, [r0, #4]
 80057b8:	7141      	strb	r1, [r0, #5]
 80057ba:	7184      	strb	r4, [r0, #6]
 80057bc:	bc30      	pop	{r4, r5}
 80057be:	4770      	bx	lr

080057c0 <_GLOBAL__sub_I__ZN5zapp118frsky_send_messageEv>:
 80057c0:	f640 433c 	movw	r3, #3132	; 0xc3c
 80057c4:	f2c1 0300 	movt	r3, #4096	; 0x1000
 80057c8:	b570      	push	{r4, r5, r6, lr}
 80057ca:	f640 424c 	movw	r2, #3148	; 0xc4c
 80057ce:	2601      	movs	r6, #1
 80057d0:	2400      	movs	r4, #0
 80057d2:	f2c1 0200 	movt	r2, #4096	; 0x1000
 80057d6:	255e      	movs	r5, #94	; 0x5e
 80057d8:	705e      	strb	r6, [r3, #1]
 80057da:	26d0      	movs	r6, #208	; 0xd0
 80057dc:	4610      	mov	r0, r2
 80057de:	4621      	mov	r1, r4
 80057e0:	701d      	strb	r5, [r3, #0]
 80057e2:	709c      	strb	r4, [r3, #2]
 80057e4:	70dc      	strb	r4, [r3, #3]
 80057e6:	711c      	strb	r4, [r3, #4]
 80057e8:	715c      	strb	r4, [r3, #5]
 80057ea:	719e      	strb	r6, [r3, #6]
 80057ec:	2302      	movs	r3, #2
 80057ee:	7015      	strb	r5, [r2, #0]
 80057f0:	7053      	strb	r3, [r2, #1]
 80057f2:	f7ff ffb7 	bl	8005764 <_ZN12_GLOBAL__N_110zapp1_impl14create_messageIlE6assignERKl.isra.0>
 80057f6:	f640 4344 	movw	r3, #3140	; 0xc44
 80057fa:	f2c1 0300 	movt	r3, #4096	; 0x1000
 80057fe:	2208      	movs	r2, #8
 8005800:	4618      	mov	r0, r3
 8005802:	4621      	mov	r1, r4
 8005804:	701d      	strb	r5, [r3, #0]
 8005806:	705a      	strb	r2, [r3, #1]
 8005808:	e8bd 4070 	ldmia.w	sp!, {r4, r5, r6, lr}
 800580c:	f7ff bfaa 	b.w	8005764 <_ZN12_GLOBAL__N_110zapp1_impl14create_messageIlE6assignERKl.isra.0>

08005810 <_GLOBAL__sub_I_the_aircraft>:
 8005810:	f640 4158 	movw	r1, #3160	; 0xc58
 8005814:	f2c1 0100 	movt	r1, #4096	; 0x1000
 8005818:	b410      	push	{r4}
 800581a:	2000      	movs	r0, #0
 800581c:	2400      	movs	r4, #0
 800581e:	2200      	movs	r2, #0
 8005820:	2300      	movs	r3, #0
 8005822:	e9c1 2300 	strd	r2, r3, [r1]
 8005826:	6208      	str	r0, [r1, #32]
 8005828:	6248      	str	r0, [r1, #36]	; 0x24
 800582a:	6288      	str	r0, [r1, #40]	; 0x28
 800582c:	62c8      	str	r0, [r1, #44]	; 0x2c
 800582e:	6308      	str	r0, [r1, #48]	; 0x30
 8005830:	6348      	str	r0, [r1, #52]	; 0x34
 8005832:	6388      	str	r0, [r1, #56]	; 0x38
 8005834:	63c8      	str	r0, [r1, #60]	; 0x3c
 8005836:	6408      	str	r0, [r1, #64]	; 0x40
 8005838:	6448      	str	r0, [r1, #68]	; 0x44
 800583a:	6488      	str	r0, [r1, #72]	; 0x48
 800583c:	608c      	str	r4, [r1, #8]
 800583e:	60cc      	str	r4, [r1, #12]
 8005840:	820c      	strh	r4, [r1, #16]
 8005842:	824c      	strh	r4, [r1, #18]
 8005844:	614c      	str	r4, [r1, #20]
 8005846:	830c      	strh	r4, [r1, #24]
 8005848:	834c      	strh	r4, [r1, #26]
 800584a:	f8a1 404c 	strh.w	r4, [r1, #76]	; 0x4c
 800584e:	f881 404e 	strb.w	r4, [r1, #78]	; 0x4e
 8005852:	654c      	str	r4, [r1, #84]	; 0x54
 8005854:	bc10      	pop	{r4}
 8005856:	4770      	bx	lr

08005858 <vApplicationIdleHook>:
 8005858:	4770      	bx	lr
 800585a:	bf00      	nop

0800585c <vApplicationTickHook>:
 800585c:	4770      	bx	lr
 800585e:	bf00      	nop

08005860 <vApplicationMallocFailedHook>:
 8005860:	b508      	push	{r3, lr}
 8005862:	f001 fc93 	bl	800718c <ulPortSetInterruptMask>
 8005866:	bf00      	nop
 8005868:	f248 23bc 	movw	r3, #33468	; 0x82bc
 800586c:	f2c4 2341 	movt	r3, #16961	; 0x4241
 8005870:	2201      	movs	r2, #1
 8005872:	601a      	str	r2, [r3, #0]
 8005874:	e7fe      	b.n	8005874 <vApplicationMallocFailedHook+0x14>
 8005876:	bf00      	nop

08005878 <vApplicationStackOverflowHook>:
 8005878:	b508      	push	{r3, lr}
 800587a:	f001 fc87 	bl	800718c <ulPortSetInterruptMask>
 800587e:	bf00      	nop
 8005880:	f248 23b8 	movw	r3, #33464	; 0x82b8
 8005884:	f2c4 2341 	movt	r3, #16961	; 0x4241
 8005888:	2201      	movs	r2, #1
 800588a:	601a      	str	r2, [r3, #0]
 800588c:	e7fe      	b.n	800588c <vApplicationStackOverflowHook+0x14>
 800588e:	bf00      	nop

08005890 <xTaskGenericCreate>:
 8005890:	e92d 4ff8 	stmdb	sp!, {r3, r4, r5, r6, r7, r8, r9, sl, fp, lr}
 8005894:	9e0a      	ldr	r6, [sp, #40]	; 0x28
 8005896:	f8dd b030 	ldr.w	fp, [sp, #48]	; 0x30
 800589a:	4607      	mov	r7, r0
 800589c:	460d      	mov	r5, r1
 800589e:	4691      	mov	r9, r2
 80058a0:	469a      	mov	sl, r3
 80058a2:	2800      	cmp	r0, #0
 80058a4:	f000 80a4 	beq.w	80059f0 <xTaskGenericCreate+0x160>
 80058a8:	2e04      	cmp	r6, #4
 80058aa:	d902      	bls.n	80058b2 <xTaskGenericCreate+0x22>
 80058ac:	f001 fc6e 	bl	800718c <ulPortSetInterruptMask>
 80058b0:	e7fe      	b.n	80058b0 <xTaskGenericCreate+0x20>
 80058b2:	2050      	movs	r0, #80	; 0x50
 80058b4:	f001 fd84 	bl	80073c0 <pvPortMalloc>
 80058b8:	4604      	mov	r4, r0
 80058ba:	2800      	cmp	r0, #0
 80058bc:	f000 80dc 	beq.w	8005a78 <xTaskGenericCreate+0x1e8>
 80058c0:	f1bb 0f00 	cmp.w	fp, #0
 80058c4:	f000 80cc 	beq.w	8005a60 <xTaskGenericCreate+0x1d0>
 80058c8:	f8c0 b030 	str.w	fp, [r0, #48]	; 0x30
 80058cc:	ea4f 0889 	mov.w	r8, r9, lsl #2
 80058d0:	4658      	mov	r0, fp
 80058d2:	21a5      	movs	r1, #165	; 0xa5
 80058d4:	4642      	mov	r2, r8
 80058d6:	f002 f9af 	bl	8007c38 <memset>
 80058da:	782a      	ldrb	r2, [r5, #0]
 80058dc:	6b23      	ldr	r3, [r4, #48]	; 0x30
 80058de:	f884 2034 	strb.w	r2, [r4, #52]	; 0x34
 80058e2:	f109 39ff 	add.w	r9, r9, #4294967295
 80058e6:	7828      	ldrb	r0, [r5, #0]
 80058e8:	eb03 0189 	add.w	r1, r3, r9, lsl #2
 80058ec:	f021 0b07 	bic.w	fp, r1, #7
 80058f0:	b328      	cbz	r0, 800593e <xTaskGenericCreate+0xae>
 80058f2:	786a      	ldrb	r2, [r5, #1]
 80058f4:	f884 2035 	strb.w	r2, [r4, #53]	; 0x35
 80058f8:	786b      	ldrb	r3, [r5, #1]
 80058fa:	b303      	cbz	r3, 800593e <xTaskGenericCreate+0xae>
 80058fc:	78a8      	ldrb	r0, [r5, #2]
 80058fe:	f884 0036 	strb.w	r0, [r4, #54]	; 0x36
 8005902:	78a9      	ldrb	r1, [r5, #2]
 8005904:	b1d9      	cbz	r1, 800593e <xTaskGenericCreate+0xae>
 8005906:	78ea      	ldrb	r2, [r5, #3]
 8005908:	f884 2037 	strb.w	r2, [r4, #55]	; 0x37
 800590c:	78eb      	ldrb	r3, [r5, #3]
 800590e:	b1b3      	cbz	r3, 800593e <xTaskGenericCreate+0xae>
 8005910:	7928      	ldrb	r0, [r5, #4]
 8005912:	f884 0038 	strb.w	r0, [r4, #56]	; 0x38
 8005916:	7929      	ldrb	r1, [r5, #4]
 8005918:	b189      	cbz	r1, 800593e <xTaskGenericCreate+0xae>
 800591a:	796a      	ldrb	r2, [r5, #5]
 800591c:	f884 2039 	strb.w	r2, [r4, #57]	; 0x39
 8005920:	796b      	ldrb	r3, [r5, #5]
 8005922:	b163      	cbz	r3, 800593e <xTaskGenericCreate+0xae>
 8005924:	79a8      	ldrb	r0, [r5, #6]
 8005926:	f884 003a 	strb.w	r0, [r4, #58]	; 0x3a
 800592a:	79a9      	ldrb	r1, [r5, #6]
 800592c:	b139      	cbz	r1, 800593e <xTaskGenericCreate+0xae>
 800592e:	79ea      	ldrb	r2, [r5, #7]
 8005930:	f884 203b 	strb.w	r2, [r4, #59]	; 0x3b
 8005934:	79eb      	ldrb	r3, [r5, #7]
 8005936:	b113      	cbz	r3, 800593e <xTaskGenericCreate+0xae>
 8005938:	7a2d      	ldrb	r5, [r5, #8]
 800593a:	f884 503c 	strb.w	r5, [r4, #60]	; 0x3c
 800593e:	2100      	movs	r1, #0
 8005940:	f104 0904 	add.w	r9, r4, #4
 8005944:	f884 103d 	strb.w	r1, [r4, #61]	; 0x3d
 8005948:	64e1      	str	r1, [r4, #76]	; 0x4c
 800594a:	4648      	mov	r0, r9
 800594c:	62e6      	str	r6, [r4, #44]	; 0x2c
 800594e:	64a6      	str	r6, [r4, #72]	; 0x48
 8005950:	f001 f926 	bl	8006ba0 <vListInitialiseItem>
 8005954:	f104 0018 	add.w	r0, r4, #24
 8005958:	f001 f922 	bl	8006ba0 <vListInitialiseItem>
 800595c:	f1c6 0005 	rsb	r0, r6, #5
 8005960:	61a0      	str	r0, [r4, #24]
 8005962:	4639      	mov	r1, r7
 8005964:	6124      	str	r4, [r4, #16]
 8005966:	6264      	str	r4, [r4, #36]	; 0x24
 8005968:	4658      	mov	r0, fp
 800596a:	4652      	mov	r2, sl
 800596c:	f001 fbe0 	bl	8007130 <pxPortInitialiseStack>
 8005970:	9f0b      	ldr	r7, [sp, #44]	; 0x2c
 8005972:	6020      	str	r0, [r4, #0]
 8005974:	b107      	cbz	r7, 8005978 <xTaskGenericCreate+0xe8>
 8005976:	603c      	str	r4, [r7, #0]
 8005978:	f001 fc10 	bl	800719c <vPortEnterCritical>
 800597c:	4b40      	ldr	r3, [pc, #256]	; (8005a80 <xTaskGenericCreate+0x1f0>)
 800597e:	4d41      	ldr	r5, [pc, #260]	; (8005a84 <xTaskGenericCreate+0x1f4>)
 8005980:	681a      	ldr	r2, [r3, #0]
 8005982:	1c51      	adds	r1, r2, #1
 8005984:	6019      	str	r1, [r3, #0]
 8005986:	6828      	ldr	r0, [r5, #0]
 8005988:	2800      	cmp	r0, #0
 800598a:	d039      	beq.n	8005a00 <xTaskGenericCreate+0x170>
 800598c:	f8df 8128 	ldr.w	r8, [pc, #296]	; 8005ab8 <xTaskGenericCreate+0x228>
 8005990:	f8d8 7000 	ldr.w	r7, [r8]
 8005994:	b927      	cbnz	r7, 80059a0 <xTaskGenericCreate+0x110>
 8005996:	682b      	ldr	r3, [r5, #0]
 8005998:	6ada      	ldr	r2, [r3, #44]	; 0x2c
 800599a:	4296      	cmp	r6, r2
 800599c:	bf28      	it	cs
 800599e:	602c      	strcs	r4, [r5, #0]
 80059a0:	f8df e118 	ldr.w	lr, [pc, #280]	; 8005abc <xTaskGenericCreate+0x22c>
 80059a4:	4a38      	ldr	r2, [pc, #224]	; (8005a88 <xTaskGenericCreate+0x1f8>)
 80059a6:	f8de 1000 	ldr.w	r1, [lr]
 80059aa:	6ae3      	ldr	r3, [r4, #44]	; 0x2c
 80059ac:	6810      	ldr	r0, [r2, #0]
 80059ae:	2701      	movs	r7, #1
 80059b0:	eb01 0c07 	add.w	ip, r1, r7
 80059b4:	fa07 fa03 	lsl.w	sl, r7, r3
 80059b8:	eb03 0183 	add.w	r1, r3, r3, lsl #2
 80059bc:	4b33      	ldr	r3, [pc, #204]	; (8005a8c <xTaskGenericCreate+0x1fc>)
 80059be:	f8c4 c040 	str.w	ip, [r4, #64]	; 0x40
 80059c2:	ea4a 0a00 	orr.w	sl, sl, r0
 80059c6:	eb03 0081 	add.w	r0, r3, r1, lsl #2
 80059ca:	4649      	mov	r1, r9
 80059cc:	f8c2 a000 	str.w	sl, [r2]
 80059d0:	f8ce c000 	str.w	ip, [lr]
 80059d4:	f001 f8e8 	bl	8006ba8 <vListInsertEnd>
 80059d8:	f001 fc0c 	bl	80071f4 <vPortExitCritical>
 80059dc:	f8d8 2000 	ldr.w	r2, [r8]
 80059e0:	b11a      	cbz	r2, 80059ea <xTaskGenericCreate+0x15a>
 80059e2:	6828      	ldr	r0, [r5, #0]
 80059e4:	6ac1      	ldr	r1, [r0, #44]	; 0x2c
 80059e6:	428e      	cmp	r6, r1
 80059e8:	d805      	bhi.n	80059f6 <xTaskGenericCreate+0x166>
 80059ea:	4638      	mov	r0, r7
 80059ec:	e8bd 8ff8 	ldmia.w	sp!, {r3, r4, r5, r6, r7, r8, r9, sl, fp, pc}
 80059f0:	f001 fbcc 	bl	800718c <ulPortSetInterruptMask>
 80059f4:	e7fe      	b.n	80059f4 <xTaskGenericCreate+0x164>
 80059f6:	f001 fbbd 	bl	8007174 <vPortYield>
 80059fa:	4638      	mov	r0, r7
 80059fc:	e8bd 8ff8 	ldmia.w	sp!, {r3, r4, r5, r6, r7, r8, r9, sl, fp, pc}
 8005a00:	602c      	str	r4, [r5, #0]
 8005a02:	6819      	ldr	r1, [r3, #0]
 8005a04:	2901      	cmp	r1, #1
 8005a06:	d002      	beq.n	8005a0e <xTaskGenericCreate+0x17e>
 8005a08:	f8df 80ac 	ldr.w	r8, [pc, #172]	; 8005ab8 <xTaskGenericCreate+0x228>
 8005a0c:	e7c8      	b.n	80059a0 <xTaskGenericCreate+0x110>
 8005a0e:	481f      	ldr	r0, [pc, #124]	; (8005a8c <xTaskGenericCreate+0x1fc>)
 8005a10:	f8df a0ac 	ldr.w	sl, [pc, #172]	; 8005ac0 <xTaskGenericCreate+0x230>
 8005a14:	4f1e      	ldr	r7, [pc, #120]	; (8005a90 <xTaskGenericCreate+0x200>)
 8005a16:	f8df 80a0 	ldr.w	r8, [pc, #160]	; 8005ab8 <xTaskGenericCreate+0x228>
 8005a1a:	f001 f8b5 	bl	8006b88 <vListInitialise>
 8005a1e:	481d      	ldr	r0, [pc, #116]	; (8005a94 <xTaskGenericCreate+0x204>)
 8005a20:	f001 f8b2 	bl	8006b88 <vListInitialise>
 8005a24:	481c      	ldr	r0, [pc, #112]	; (8005a98 <xTaskGenericCreate+0x208>)
 8005a26:	f001 f8af 	bl	8006b88 <vListInitialise>
 8005a2a:	481c      	ldr	r0, [pc, #112]	; (8005a9c <xTaskGenericCreate+0x20c>)
 8005a2c:	f001 f8ac 	bl	8006b88 <vListInitialise>
 8005a30:	481b      	ldr	r0, [pc, #108]	; (8005aa0 <xTaskGenericCreate+0x210>)
 8005a32:	f001 f8a9 	bl	8006b88 <vListInitialise>
 8005a36:	4650      	mov	r0, sl
 8005a38:	f001 f8a6 	bl	8006b88 <vListInitialise>
 8005a3c:	4638      	mov	r0, r7
 8005a3e:	f001 f8a3 	bl	8006b88 <vListInitialise>
 8005a42:	4818      	ldr	r0, [pc, #96]	; (8005aa4 <xTaskGenericCreate+0x214>)
 8005a44:	f001 f8a0 	bl	8006b88 <vListInitialise>
 8005a48:	4817      	ldr	r0, [pc, #92]	; (8005aa8 <xTaskGenericCreate+0x218>)
 8005a4a:	f001 f89d 	bl	8006b88 <vListInitialise>
 8005a4e:	4817      	ldr	r0, [pc, #92]	; (8005aac <xTaskGenericCreate+0x21c>)
 8005a50:	f001 f89a 	bl	8006b88 <vListInitialise>
 8005a54:	4816      	ldr	r0, [pc, #88]	; (8005ab0 <xTaskGenericCreate+0x220>)
 8005a56:	4b17      	ldr	r3, [pc, #92]	; (8005ab4 <xTaskGenericCreate+0x224>)
 8005a58:	f8c0 a000 	str.w	sl, [r0]
 8005a5c:	601f      	str	r7, [r3, #0]
 8005a5e:	e79f      	b.n	80059a0 <xTaskGenericCreate+0x110>
 8005a60:	ea4f 0889 	mov.w	r8, r9, lsl #2
 8005a64:	4640      	mov	r0, r8
 8005a66:	f001 fcab 	bl	80073c0 <pvPortMalloc>
 8005a6a:	6320      	str	r0, [r4, #48]	; 0x30
 8005a6c:	2800      	cmp	r0, #0
 8005a6e:	f47f af30 	bne.w	80058d2 <xTaskGenericCreate+0x42>
 8005a72:	4620      	mov	r0, r4
 8005a74:	f001 fcb6 	bl	80073e4 <vPortFree>
 8005a78:	f04f 30ff 	mov.w	r0, #4294967295
 8005a7c:	e8bd 8ff8 	ldmia.w	sp!, {r3, r4, r5, r6, r7, r8, r9, sl, fp, pc}
 8005a80:	10000da0 	.word	0x10000da0
 8005a84:	10000d4c 	.word	0x10000d4c
 8005a88:	10000da4 	.word	0x10000da4
 8005a8c:	10000ce4 	.word	0x10000ce4
 8005a90:	10000d88 	.word	0x10000d88
 8005a94:	10000cf8 	.word	0x10000cf8
 8005a98:	10000d0c 	.word	0x10000d0c
 8005a9c:	10000d20 	.word	0x10000d20
 8005aa0:	10000d34 	.word	0x10000d34
 8005aa4:	10000d50 	.word	0x10000d50
 8005aa8:	10000cbc 	.word	0x10000cbc
 8005aac:	10000cd0 	.word	0x10000cd0
 8005ab0:	10000cb0 	.word	0x10000cb0
 8005ab4:	10000d6c 	.word	0x10000d6c
 8005ab8:	10000cb4 	.word	0x10000cb4
 8005abc:	10000d70 	.word	0x10000d70
 8005ac0:	10000d74 	.word	0x10000d74

08005ac4 <vTaskStartScheduler>:
 8005ac4:	b530      	push	{r4, r5, lr}
 8005ac6:	b085      	sub	sp, #20
 8005ac8:	2400      	movs	r4, #0
 8005aca:	2282      	movs	r2, #130	; 0x82
 8005acc:	9400      	str	r4, [sp, #0]
 8005ace:	9401      	str	r4, [sp, #4]
 8005ad0:	9402      	str	r4, [sp, #8]
 8005ad2:	9403      	str	r4, [sp, #12]
 8005ad4:	480e      	ldr	r0, [pc, #56]	; (8005b10 <vTaskStartScheduler+0x4c>)
 8005ad6:	490f      	ldr	r1, [pc, #60]	; (8005b14 <vTaskStartScheduler+0x50>)
 8005ad8:	4623      	mov	r3, r4
 8005ada:	f7ff fed9 	bl	8005890 <xTaskGenericCreate>
 8005ade:	2801      	cmp	r0, #1
 8005ae0:	4605      	mov	r5, r0
 8005ae2:	d005      	beq.n	8005af0 <vTaskStartScheduler+0x2c>
 8005ae4:	b10d      	cbz	r5, 8005aea <vTaskStartScheduler+0x26>
 8005ae6:	b005      	add	sp, #20
 8005ae8:	bd30      	pop	{r4, r5, pc}
 8005aea:	f001 fb4f 	bl	800718c <ulPortSetInterruptMask>
 8005aee:	e7fe      	b.n	8005aee <vTaskStartScheduler+0x2a>
 8005af0:	f001 f9ee 	bl	8006ed0 <xTimerCreateTimerTask>
 8005af4:	2801      	cmp	r0, #1
 8005af6:	4605      	mov	r5, r0
 8005af8:	d1f4      	bne.n	8005ae4 <vTaskStartScheduler+0x20>
 8005afa:	f001 fb47 	bl	800718c <ulPortSetInterruptMask>
 8005afe:	4b06      	ldr	r3, [pc, #24]	; (8005b18 <vTaskStartScheduler+0x54>)
 8005b00:	4806      	ldr	r0, [pc, #24]	; (8005b1c <vTaskStartScheduler+0x58>)
 8005b02:	601d      	str	r5, [r3, #0]
 8005b04:	6004      	str	r4, [r0, #0]
 8005b06:	b005      	add	sp, #20
 8005b08:	e8bd 4030 	ldmia.w	sp!, {r4, r5, lr}
 8005b0c:	f001 bbdc 	b.w	80072c8 <xPortStartScheduler>
 8005b10:	08005d95 	.word	0x08005d95
 8005b14:	0800f938 	.word	0x0800f938
 8005b18:	10000cb4 	.word	0x10000cb4
 8005b1c:	10000d68 	.word	0x10000d68

08005b20 <vTaskSuspendAll>:
 8005b20:	f640 5348 	movw	r3, #3400	; 0xd48
 8005b24:	f2c1 0300 	movt	r3, #4096	; 0x1000
 8005b28:	681a      	ldr	r2, [r3, #0]
 8005b2a:	1c50      	adds	r0, r2, #1
 8005b2c:	6018      	str	r0, [r3, #0]
 8005b2e:	4770      	bx	lr

08005b30 <xTaskGetTickCount>:
 8005b30:	b510      	push	{r4, lr}
 8005b32:	f001 fb33 	bl	800719c <vPortEnterCritical>
 8005b36:	f640 5368 	movw	r3, #3432	; 0xd68
 8005b3a:	f2c1 0300 	movt	r3, #4096	; 0x1000
 8005b3e:	681c      	ldr	r4, [r3, #0]
 8005b40:	f001 fb58 	bl	80071f4 <vPortExitCritical>
 8005b44:	4620      	mov	r0, r4
 8005b46:	bd10      	pop	{r4, pc}

08005b48 <xTaskIncrementTick>:
 8005b48:	e92d 4ff8 	stmdb	sp!, {r3, r4, r5, r6, r7, r8, r9, sl, fp, lr}
 8005b4c:	4b4d      	ldr	r3, [pc, #308]	; (8005c84 <xTaskIncrementTick+0x13c>)
 8005b4e:	6818      	ldr	r0, [r3, #0]
 8005b50:	2800      	cmp	r0, #0
 8005b52:	d16f      	bne.n	8005c34 <xTaskIncrementTick+0xec>
 8005b54:	4d4c      	ldr	r5, [pc, #304]	; (8005c88 <xTaskIncrementTick+0x140>)
 8005b56:	682e      	ldr	r6, [r5, #0]
 8005b58:	1c77      	adds	r7, r6, #1
 8005b5a:	602f      	str	r7, [r5, #0]
 8005b5c:	682f      	ldr	r7, [r5, #0]
 8005b5e:	b1f7      	cbz	r7, 8005b9e <xTaskIncrementTick+0x56>
 8005b60:	f8df b144 	ldr.w	fp, [pc, #324]	; 8005ca8 <xTaskIncrementTick+0x160>
 8005b64:	f8db 5000 	ldr.w	r5, [fp]
 8005b68:	42af      	cmp	r7, r5
 8005b6a:	d220      	bcs.n	8005bae <xTaskIncrementTick+0x66>
 8005b6c:	4e47      	ldr	r6, [pc, #284]	; (8005c8c <xTaskIncrementTick+0x144>)
 8005b6e:	4d48      	ldr	r5, [pc, #288]	; (8005c90 <xTaskIncrementTick+0x148>)
 8005b70:	2400      	movs	r4, #0
 8005b72:	6828      	ldr	r0, [r5, #0]
 8005b74:	4a47      	ldr	r2, [pc, #284]	; (8005c94 <xTaskIncrementTick+0x14c>)
 8005b76:	6ac1      	ldr	r1, [r0, #44]	; 0x2c
 8005b78:	6810      	ldr	r0, [r2, #0]
 8005b7a:	eb01 0381 	add.w	r3, r1, r1, lsl #2
 8005b7e:	f856 1023 	ldr.w	r1, [r6, r3, lsl #2]
 8005b82:	2901      	cmp	r1, #1
 8005b84:	bf88      	it	hi
 8005b86:	2401      	movhi	r4, #1
 8005b88:	b908      	cbnz	r0, 8005b8e <xTaskIncrementTick+0x46>
 8005b8a:	f7ff fe67 	bl	800585c <vApplicationTickHook>
 8005b8e:	4a42      	ldr	r2, [pc, #264]	; (8005c98 <xTaskIncrementTick+0x150>)
 8005b90:	6810      	ldr	r0, [r2, #0]
 8005b92:	2800      	cmp	r0, #0
 8005b94:	bf0c      	ite	eq
 8005b96:	4620      	moveq	r0, r4
 8005b98:	2001      	movne	r0, #1
 8005b9a:	e8bd 8ff8 	ldmia.w	sp!, {r3, r4, r5, r6, r7, r8, r9, sl, fp, pc}
 8005b9e:	4b3f      	ldr	r3, [pc, #252]	; (8005c9c <xTaskIncrementTick+0x154>)
 8005ba0:	6818      	ldr	r0, [r3, #0]
 8005ba2:	6801      	ldr	r1, [r0, #0]
 8005ba4:	2900      	cmp	r1, #0
 8005ba6:	d050      	beq.n	8005c4a <xTaskIncrementTick+0x102>
 8005ba8:	f001 faf0 	bl	800718c <ulPortSetInterruptMask>
 8005bac:	e7fe      	b.n	8005bac <xTaskIncrementTick+0x64>
 8005bae:	4e37      	ldr	r6, [pc, #220]	; (8005c8c <xTaskIncrementTick+0x144>)
 8005bb0:	4d37      	ldr	r5, [pc, #220]	; (8005c90 <xTaskIncrementTick+0x148>)
 8005bb2:	f8df 90f8 	ldr.w	r9, [pc, #248]	; 8005cac <xTaskIncrementTick+0x164>
 8005bb6:	2400      	movs	r4, #0
 8005bb8:	f640 43b0 	movw	r3, #3248	; 0xcb0
 8005bbc:	f2c1 0300 	movt	r3, #4096	; 0x1000
 8005bc0:	681a      	ldr	r2, [r3, #0]
 8005bc2:	6810      	ldr	r0, [r2, #0]
 8005bc4:	b920      	cbnz	r0, 8005bd0 <xTaskIncrementTick+0x88>
 8005bc6:	f04f 33ff 	mov.w	r3, #4294967295
 8005bca:	f8cb 3000 	str.w	r3, [fp]
 8005bce:	e7d0      	b.n	8005b72 <xTaskIncrementTick+0x2a>
 8005bd0:	f640 41b0 	movw	r1, #3248	; 0xcb0
 8005bd4:	f2c1 0100 	movt	r1, #4096	; 0x1000
 8005bd8:	680b      	ldr	r3, [r1, #0]
 8005bda:	68da      	ldr	r2, [r3, #12]
 8005bdc:	f8d2 800c 	ldr.w	r8, [r2, #12]
 8005be0:	f8d8 1004 	ldr.w	r1, [r8, #4]
 8005be4:	f108 0a04 	add.w	sl, r8, #4
 8005be8:	428f      	cmp	r7, r1
 8005bea:	4650      	mov	r0, sl
 8005bec:	d32a      	bcc.n	8005c44 <xTaskIncrementTick+0xfc>
 8005bee:	f001 f803 	bl	8006bf8 <uxListRemove>
 8005bf2:	f8d8 3028 	ldr.w	r3, [r8, #40]	; 0x28
 8005bf6:	f108 0018 	add.w	r0, r8, #24
 8005bfa:	b10b      	cbz	r3, 8005c00 <xTaskIncrementTick+0xb8>
 8005bfc:	f000 fffc 	bl	8006bf8 <uxListRemove>
 8005c00:	f8d8 202c 	ldr.w	r2, [r8, #44]	; 0x2c
 8005c04:	f8d9 0000 	ldr.w	r0, [r9]
 8005c08:	2101      	movs	r1, #1
 8005c0a:	fa01 fe02 	lsl.w	lr, r1, r2
 8005c0e:	eb02 0282 	add.w	r2, r2, r2, lsl #2
 8005c12:	ea4e 0300 	orr.w	r3, lr, r0
 8005c16:	4651      	mov	r1, sl
 8005c18:	eb06 0082 	add.w	r0, r6, r2, lsl #2
 8005c1c:	f8c9 3000 	str.w	r3, [r9]
 8005c20:	f000 ffc2 	bl	8006ba8 <vListInsertEnd>
 8005c24:	6828      	ldr	r0, [r5, #0]
 8005c26:	f8d8 102c 	ldr.w	r1, [r8, #44]	; 0x2c
 8005c2a:	6ac2      	ldr	r2, [r0, #44]	; 0x2c
 8005c2c:	4291      	cmp	r1, r2
 8005c2e:	bf28      	it	cs
 8005c30:	2401      	movcs	r4, #1
 8005c32:	e7c1      	b.n	8005bb8 <xTaskIncrementTick+0x70>
 8005c34:	4917      	ldr	r1, [pc, #92]	; (8005c94 <xTaskIncrementTick+0x14c>)
 8005c36:	680a      	ldr	r2, [r1, #0]
 8005c38:	1c54      	adds	r4, r2, #1
 8005c3a:	600c      	str	r4, [r1, #0]
 8005c3c:	f7ff fe0e 	bl	800585c <vApplicationTickHook>
 8005c40:	2400      	movs	r4, #0
 8005c42:	e7a4      	b.n	8005b8e <xTaskIncrementTick+0x46>
 8005c44:	f8cb 1000 	str.w	r1, [fp]
 8005c48:	e793      	b.n	8005b72 <xTaskIncrementTick+0x2a>
 8005c4a:	4d15      	ldr	r5, [pc, #84]	; (8005ca0 <xTaskIncrementTick+0x158>)
 8005c4c:	681e      	ldr	r6, [r3, #0]
 8005c4e:	682c      	ldr	r4, [r5, #0]
 8005c50:	4a14      	ldr	r2, [pc, #80]	; (8005ca4 <xTaskIncrementTick+0x15c>)
 8005c52:	601c      	str	r4, [r3, #0]
 8005c54:	602e      	str	r6, [r5, #0]
 8005c56:	6810      	ldr	r0, [r2, #0]
 8005c58:	1c41      	adds	r1, r0, #1
 8005c5a:	6011      	str	r1, [r2, #0]
 8005c5c:	681d      	ldr	r5, [r3, #0]
 8005c5e:	682e      	ldr	r6, [r5, #0]
 8005c60:	b146      	cbz	r6, 8005c74 <xTaskIncrementTick+0x12c>
 8005c62:	681b      	ldr	r3, [r3, #0]
 8005c64:	f8df b040 	ldr.w	fp, [pc, #64]	; 8005ca8 <xTaskIncrementTick+0x160>
 8005c68:	68dc      	ldr	r4, [r3, #12]
 8005c6a:	68e2      	ldr	r2, [r4, #12]
 8005c6c:	6850      	ldr	r0, [r2, #4]
 8005c6e:	f8cb 0000 	str.w	r0, [fp]
 8005c72:	e777      	b.n	8005b64 <xTaskIncrementTick+0x1c>
 8005c74:	f8df b030 	ldr.w	fp, [pc, #48]	; 8005ca8 <xTaskIncrementTick+0x160>
 8005c78:	f04f 31ff 	mov.w	r1, #4294967295
 8005c7c:	f8cb 1000 	str.w	r1, [fp]
 8005c80:	e770      	b.n	8005b64 <xTaskIncrementTick+0x1c>
 8005c82:	bf00      	nop
 8005c84:	10000d48 	.word	0x10000d48
 8005c88:	10000d68 	.word	0x10000d68
 8005c8c:	10000ce4 	.word	0x10000ce4
 8005c90:	10000d4c 	.word	0x10000d4c
 8005c94:	10000d9c 	.word	0x10000d9c
 8005c98:	10000da8 	.word	0x10000da8
 8005c9c:	10000cb0 	.word	0x10000cb0
 8005ca0:	10000d6c 	.word	0x10000d6c
 8005ca4:	10000d64 	.word	0x10000d64
 8005ca8:	100001a0 	.word	0x100001a0
 8005cac:	10000da4 	.word	0x10000da4

08005cb0 <xTaskResumeAll>:
 8005cb0:	e92d 4ff8 	stmdb	sp!, {r3, r4, r5, r6, r7, r8, r9, sl, fp, lr}
 8005cb4:	4c30      	ldr	r4, [pc, #192]	; (8005d78 <xTaskResumeAll+0xc8>)
 8005cb6:	6823      	ldr	r3, [r4, #0]
 8005cb8:	b913      	cbnz	r3, 8005cc0 <xTaskResumeAll+0x10>
 8005cba:	f001 fa67 	bl	800718c <ulPortSetInterruptMask>
 8005cbe:	e7fe      	b.n	8005cbe <xTaskResumeAll+0xe>
 8005cc0:	f001 fa6c 	bl	800719c <vPortEnterCritical>
 8005cc4:	6820      	ldr	r0, [r4, #0]
 8005cc6:	1e41      	subs	r1, r0, #1
 8005cc8:	6021      	str	r1, [r4, #0]
 8005cca:	6822      	ldr	r2, [r4, #0]
 8005ccc:	2a00      	cmp	r2, #0
 8005cce:	d13b      	bne.n	8005d48 <xTaskResumeAll+0x98>
 8005cd0:	4c2a      	ldr	r4, [pc, #168]	; (8005d7c <xTaskResumeAll+0xcc>)
 8005cd2:	6823      	ldr	r3, [r4, #0]
 8005cd4:	2b00      	cmp	r3, #0
 8005cd6:	d037      	beq.n	8005d48 <xTaskResumeAll+0x98>
 8005cd8:	f8df 90b0 	ldr.w	r9, [pc, #176]	; 8005d8c <xTaskResumeAll+0xdc>
 8005cdc:	4d28      	ldr	r5, [pc, #160]	; (8005d80 <xTaskResumeAll+0xd0>)
 8005cde:	4f29      	ldr	r7, [pc, #164]	; (8005d84 <xTaskResumeAll+0xd4>)
 8005ce0:	f8df b0ac 	ldr.w	fp, [pc, #172]	; 8005d90 <xTaskResumeAll+0xe0>
 8005ce4:	46ca      	mov	sl, r9
 8005ce6:	2601      	movs	r6, #1
 8005ce8:	e024      	b.n	8005d34 <xTaskResumeAll+0x84>
 8005cea:	f8da 400c 	ldr.w	r4, [sl, #12]
 8005cee:	68e4      	ldr	r4, [r4, #12]
 8005cf0:	f104 0804 	add.w	r8, r4, #4
 8005cf4:	f104 0018 	add.w	r0, r4, #24
 8005cf8:	f000 ff7e 	bl	8006bf8 <uxListRemove>
 8005cfc:	4640      	mov	r0, r8
 8005cfe:	f000 ff7b 	bl	8006bf8 <uxListRemove>
 8005d02:	6ae2      	ldr	r2, [r4, #44]	; 0x2c
 8005d04:	683b      	ldr	r3, [r7, #0]
 8005d06:	f640 41e4 	movw	r1, #3300	; 0xce4
 8005d0a:	fa06 fe02 	lsl.w	lr, r6, r2
 8005d0e:	eb02 0082 	add.w	r0, r2, r2, lsl #2
 8005d12:	f2c1 0100 	movt	r1, #4096	; 0x1000
 8005d16:	ea4e 0203 	orr.w	r2, lr, r3
 8005d1a:	eb01 0080 	add.w	r0, r1, r0, lsl #2
 8005d1e:	4641      	mov	r1, r8
 8005d20:	603a      	str	r2, [r7, #0]
 8005d22:	f000 ff41 	bl	8006ba8 <vListInsertEnd>
 8005d26:	f8db 3000 	ldr.w	r3, [fp]
 8005d2a:	6ae4      	ldr	r4, [r4, #44]	; 0x2c
 8005d2c:	6ad8      	ldr	r0, [r3, #44]	; 0x2c
 8005d2e:	4284      	cmp	r4, r0
 8005d30:	bf28      	it	cs
 8005d32:	602e      	strcs	r6, [r5, #0]
 8005d34:	f8d9 0000 	ldr.w	r0, [r9]
 8005d38:	2800      	cmp	r0, #0
 8005d3a:	d1d6      	bne.n	8005cea <xTaskResumeAll+0x3a>
 8005d3c:	4c12      	ldr	r4, [pc, #72]	; (8005d88 <xTaskResumeAll+0xd8>)
 8005d3e:	6821      	ldr	r1, [r4, #0]
 8005d40:	b941      	cbnz	r1, 8005d54 <xTaskResumeAll+0xa4>
 8005d42:	682c      	ldr	r4, [r5, #0]
 8005d44:	2c01      	cmp	r4, #1
 8005d46:	d014      	beq.n	8005d72 <xTaskResumeAll+0xc2>
 8005d48:	2400      	movs	r4, #0
 8005d4a:	f001 fa53 	bl	80071f4 <vPortExitCritical>
 8005d4e:	4620      	mov	r0, r4
 8005d50:	e8bd 8ff8 	ldmia.w	sp!, {r3, r4, r5, r6, r7, r8, r9, sl, fp, pc}
 8005d54:	6822      	ldr	r2, [r4, #0]
 8005d56:	2a00      	cmp	r2, #0
 8005d58:	d0f3      	beq.n	8005d42 <xTaskResumeAll+0x92>
 8005d5a:	2601      	movs	r6, #1
 8005d5c:	f7ff fef4 	bl	8005b48 <xTaskIncrementTick>
 8005d60:	b100      	cbz	r0, 8005d64 <xTaskResumeAll+0xb4>
 8005d62:	602e      	str	r6, [r5, #0]
 8005d64:	6823      	ldr	r3, [r4, #0]
 8005d66:	1e58      	subs	r0, r3, #1
 8005d68:	6020      	str	r0, [r4, #0]
 8005d6a:	6821      	ldr	r1, [r4, #0]
 8005d6c:	2900      	cmp	r1, #0
 8005d6e:	d1f5      	bne.n	8005d5c <xTaskResumeAll+0xac>
 8005d70:	e7e7      	b.n	8005d42 <xTaskResumeAll+0x92>
 8005d72:	f001 f9ff 	bl	8007174 <vPortYield>
 8005d76:	e7e8      	b.n	8005d4a <xTaskResumeAll+0x9a>
 8005d78:	10000d48 	.word	0x10000d48
 8005d7c:	10000da0 	.word	0x10000da0
 8005d80:	10000da8 	.word	0x10000da8
 8005d84:	10000da4 	.word	0x10000da4
 8005d88:	10000d9c 	.word	0x10000d9c
 8005d8c:	10000d50 	.word	0x10000d50
 8005d90:	10000d4c 	.word	0x10000d4c

08005d94 <prvIdleTask>:
 8005d94:	e92d 4ff8 	stmdb	sp!, {r3, r4, r5, r6, r7, r8, r9, sl, fp, lr}
 8005d98:	4e1d      	ldr	r6, [pc, #116]	; (8005e10 <prvIdleTask+0x7c>)
 8005d9a:	4d1e      	ldr	r5, [pc, #120]	; (8005e14 <prvIdleTask+0x80>)
 8005d9c:	4c1e      	ldr	r4, [pc, #120]	; (8005e18 <prvIdleTask+0x84>)
 8005d9e:	f8df 807c 	ldr.w	r8, [pc, #124]	; 8005e1c <prvIdleTask+0x88>
 8005da2:	f8df 907c 	ldr.w	r9, [pc, #124]	; 8005e20 <prvIdleTask+0x8c>
 8005da6:	46b2      	mov	sl, r6
 8005da8:	e006      	b.n	8005db8 <prvIdleTask+0x24>
 8005daa:	6821      	ldr	r1, [r4, #0]
 8005dac:	6837      	ldr	r7, [r6, #0]
 8005dae:	1c4a      	adds	r2, r1, #1
 8005db0:	6022      	str	r2, [r4, #0]
 8005db2:	f7ff ff7d 	bl	8005cb0 <xTaskResumeAll>
 8005db6:	b95f      	cbnz	r7, 8005dd0 <prvIdleTask+0x3c>
 8005db8:	682b      	ldr	r3, [r5, #0]
 8005dba:	2b00      	cmp	r3, #0
 8005dbc:	d1f5      	bne.n	8005daa <prvIdleTask+0x16>
 8005dbe:	f8d9 0000 	ldr.w	r0, [r9]
 8005dc2:	2801      	cmp	r0, #1
 8005dc4:	d901      	bls.n	8005dca <prvIdleTask+0x36>
 8005dc6:	f001 f9d5 	bl	8007174 <vPortYield>
 8005dca:	f7ff fd45 	bl	8005858 <vApplicationIdleHook>
 8005dce:	e7f3      	b.n	8005db8 <prvIdleTask+0x24>
 8005dd0:	f001 f9e4 	bl	800719c <vPortEnterCritical>
 8005dd4:	f8da 300c 	ldr.w	r3, [sl, #12]
 8005dd8:	f8d3 b00c 	ldr.w	fp, [r3, #12]
 8005ddc:	f10b 0004 	add.w	r0, fp, #4
 8005de0:	f000 ff0a 	bl	8006bf8 <uxListRemove>
 8005de4:	f8d8 0000 	ldr.w	r0, [r8]
 8005de8:	f640 47b8 	movw	r7, #3256	; 0xcb8
 8005dec:	1e41      	subs	r1, r0, #1
 8005dee:	f2c1 0700 	movt	r7, #4096	; 0x1000
 8005df2:	f8c8 1000 	str.w	r1, [r8]
 8005df6:	683a      	ldr	r2, [r7, #0]
 8005df8:	1e53      	subs	r3, r2, #1
 8005dfa:	603b      	str	r3, [r7, #0]
 8005dfc:	f001 f9fa 	bl	80071f4 <vPortExitCritical>
 8005e00:	f8db 0030 	ldr.w	r0, [fp, #48]	; 0x30
 8005e04:	f001 faee 	bl	80073e4 <vPortFree>
 8005e08:	4658      	mov	r0, fp
 8005e0a:	f001 faeb 	bl	80073e4 <vPortFree>
 8005e0e:	e7d3      	b.n	8005db8 <prvIdleTask+0x24>
 8005e10:	10000cbc 	.word	0x10000cbc
 8005e14:	10000cb8 	.word	0x10000cb8
 8005e18:	10000d48 	.word	0x10000d48
 8005e1c:	10000da0 	.word	0x10000da0
 8005e20:	10000ce4 	.word	0x10000ce4

08005e24 <vTaskDelay>:
 8005e24:	b570      	push	{r4, r5, r6, lr}
 8005e26:	4602      	mov	r2, r0
 8005e28:	b918      	cbnz	r0, 8005e32 <vTaskDelay+0xe>
 8005e2a:	e8bd 4070 	ldmia.w	sp!, {r4, r5, r6, lr}
 8005e2e:	f001 b9a1 	b.w	8007174 <vPortYield>
 8005e32:	4b1d      	ldr	r3, [pc, #116]	; (8005ea8 <vTaskDelay+0x84>)
 8005e34:	6819      	ldr	r1, [r3, #0]
 8005e36:	2900      	cmp	r1, #0
 8005e38:	d12b      	bne.n	8005e92 <vTaskDelay+0x6e>
 8005e3a:	6818      	ldr	r0, [r3, #0]
 8005e3c:	4e1b      	ldr	r6, [pc, #108]	; (8005eac <vTaskDelay+0x88>)
 8005e3e:	4d1c      	ldr	r5, [pc, #112]	; (8005eb0 <vTaskDelay+0x8c>)
 8005e40:	1c44      	adds	r4, r0, #1
 8005e42:	601c      	str	r4, [r3, #0]
 8005e44:	6833      	ldr	r3, [r6, #0]
 8005e46:	6829      	ldr	r1, [r5, #0]
 8005e48:	1d08      	adds	r0, r1, #4
 8005e4a:	18d4      	adds	r4, r2, r3
 8005e4c:	f000 fed4 	bl	8006bf8 <uxListRemove>
 8005e50:	b948      	cbnz	r0, 8005e66 <vTaskDelay+0x42>
 8005e52:	682a      	ldr	r2, [r5, #0]
 8005e54:	4b17      	ldr	r3, [pc, #92]	; (8005eb4 <vTaskDelay+0x90>)
 8005e56:	6ad1      	ldr	r1, [r2, #44]	; 0x2c
 8005e58:	681a      	ldr	r2, [r3, #0]
 8005e5a:	2001      	movs	r0, #1
 8005e5c:	fa00 f101 	lsl.w	r1, r0, r1
 8005e60:	ea22 0201 	bic.w	r2, r2, r1
 8005e64:	601a      	str	r2, [r3, #0]
 8005e66:	682b      	ldr	r3, [r5, #0]
 8005e68:	6832      	ldr	r2, [r6, #0]
 8005e6a:	605c      	str	r4, [r3, #4]
 8005e6c:	4294      	cmp	r4, r2
 8005e6e:	4910      	ldr	r1, [pc, #64]	; (8005eb0 <vTaskDelay+0x8c>)
 8005e70:	d312      	bcc.n	8005e98 <vTaskDelay+0x74>
 8005e72:	4811      	ldr	r0, [pc, #68]	; (8005eb8 <vTaskDelay+0x94>)
 8005e74:	6800      	ldr	r0, [r0, #0]
 8005e76:	680b      	ldr	r3, [r1, #0]
 8005e78:	1d19      	adds	r1, r3, #4
 8005e7a:	f000 fea3 	bl	8006bc4 <vListInsert>
 8005e7e:	490f      	ldr	r1, [pc, #60]	; (8005ebc <vTaskDelay+0x98>)
 8005e80:	680a      	ldr	r2, [r1, #0]
 8005e82:	4294      	cmp	r4, r2
 8005e84:	bf38      	it	cc
 8005e86:	600c      	strcc	r4, [r1, #0]
 8005e88:	f7ff ff12 	bl	8005cb0 <xTaskResumeAll>
 8005e8c:	2800      	cmp	r0, #0
 8005e8e:	d0cc      	beq.n	8005e2a <vTaskDelay+0x6>
 8005e90:	bd70      	pop	{r4, r5, r6, pc}
 8005e92:	f001 f97b 	bl	800718c <ulPortSetInterruptMask>
 8005e96:	e7fe      	b.n	8005e96 <vTaskDelay+0x72>
 8005e98:	4809      	ldr	r0, [pc, #36]	; (8005ec0 <vTaskDelay+0x9c>)
 8005e9a:	6800      	ldr	r0, [r0, #0]
 8005e9c:	680b      	ldr	r3, [r1, #0]
 8005e9e:	1d19      	adds	r1, r3, #4
 8005ea0:	f000 fe90 	bl	8006bc4 <vListInsert>
 8005ea4:	e7f0      	b.n	8005e88 <vTaskDelay+0x64>
 8005ea6:	bf00      	nop
 8005ea8:	10000d48 	.word	0x10000d48
 8005eac:	10000d68 	.word	0x10000d68
 8005eb0:	10000d4c 	.word	0x10000d4c
 8005eb4:	10000da4 	.word	0x10000da4
 8005eb8:	10000cb0 	.word	0x10000cb0
 8005ebc:	100001a0 	.word	0x100001a0
 8005ec0:	10000d6c 	.word	0x10000d6c

08005ec4 <vTaskSwitchContext>:
 8005ec4:	b538      	push	{r3, r4, r5, lr}
 8005ec6:	4b21      	ldr	r3, [pc, #132]	; (8005f4c <vTaskSwitchContext+0x88>)
 8005ec8:	6818      	ldr	r0, [r3, #0]
 8005eca:	2800      	cmp	r0, #0
 8005ecc:	d139      	bne.n	8005f42 <vTaskSwitchContext+0x7e>
 8005ece:	4a20      	ldr	r2, [pc, #128]	; (8005f50 <vTaskSwitchContext+0x8c>)
 8005ed0:	4c20      	ldr	r4, [pc, #128]	; (8005f54 <vTaskSwitchContext+0x90>)
 8005ed2:	6010      	str	r0, [r2, #0]
 8005ed4:	6821      	ldr	r1, [r4, #0]
 8005ed6:	6825      	ldr	r5, [r4, #0]
 8005ed8:	6808      	ldr	r0, [r1, #0]
 8005eda:	6b2b      	ldr	r3, [r5, #48]	; 0x30
 8005edc:	4298      	cmp	r0, r3
 8005ede:	d92a      	bls.n	8005f36 <vTaskSwitchContext+0x72>
 8005ee0:	6822      	ldr	r2, [r4, #0]
 8005ee2:	491d      	ldr	r1, [pc, #116]	; (8005f58 <vTaskSwitchContext+0x94>)
 8005ee4:	6b10      	ldr	r0, [r2, #48]	; 0x30
 8005ee6:	4d1b      	ldr	r5, [pc, #108]	; (8005f54 <vTaskSwitchContext+0x90>)
 8005ee8:	2214      	movs	r2, #20
 8005eea:	f001 fda7 	bl	8007a3c <memcmp>
 8005eee:	b9e0      	cbnz	r0, 8005f2a <vTaskSwitchContext+0x66>
 8005ef0:	491a      	ldr	r1, [pc, #104]	; (8005f5c <vTaskSwitchContext+0x98>)
 8005ef2:	6808      	ldr	r0, [r1, #0]
 8005ef4:	fab0 f380 	clz	r3, r0
 8005ef8:	b2da      	uxtb	r2, r3
 8005efa:	f1c2 011f 	rsb	r1, r2, #31
 8005efe:	eb01 0081 	add.w	r0, r1, r1, lsl #2
 8005f02:	0083      	lsls	r3, r0, #2
 8005f04:	4916      	ldr	r1, [pc, #88]	; (8005f60 <vTaskSwitchContext+0x9c>)
 8005f06:	58c8      	ldr	r0, [r1, r3]
 8005f08:	18ca      	adds	r2, r1, r3
 8005f0a:	b158      	cbz	r0, 8005f24 <vTaskSwitchContext+0x60>
 8005f0c:	6851      	ldr	r1, [r2, #4]
 8005f0e:	684b      	ldr	r3, [r1, #4]
 8005f10:	f102 0008 	add.w	r0, r2, #8
 8005f14:	4283      	cmp	r3, r0
 8005f16:	6053      	str	r3, [r2, #4]
 8005f18:	bf04      	itt	eq
 8005f1a:	685b      	ldreq	r3, [r3, #4]
 8005f1c:	6053      	streq	r3, [r2, #4]
 8005f1e:	68da      	ldr	r2, [r3, #12]
 8005f20:	6022      	str	r2, [r4, #0]
 8005f22:	bd38      	pop	{r3, r4, r5, pc}
 8005f24:	f001 f932 	bl	800718c <ulPortSetInterruptMask>
 8005f28:	e7fe      	b.n	8005f28 <vTaskSwitchContext+0x64>
 8005f2a:	6828      	ldr	r0, [r5, #0]
 8005f2c:	6829      	ldr	r1, [r5, #0]
 8005f2e:	3134      	adds	r1, #52	; 0x34
 8005f30:	f7ff fca2 	bl	8005878 <vApplicationStackOverflowHook>
 8005f34:	e7dc      	b.n	8005ef0 <vTaskSwitchContext+0x2c>
 8005f36:	6820      	ldr	r0, [r4, #0]
 8005f38:	6821      	ldr	r1, [r4, #0]
 8005f3a:	3134      	adds	r1, #52	; 0x34
 8005f3c:	f7ff fc9c 	bl	8005878 <vApplicationStackOverflowHook>
 8005f40:	e7ce      	b.n	8005ee0 <vTaskSwitchContext+0x1c>
 8005f42:	4b03      	ldr	r3, [pc, #12]	; (8005f50 <vTaskSwitchContext+0x8c>)
 8005f44:	2101      	movs	r1, #1
 8005f46:	6019      	str	r1, [r3, #0]
 8005f48:	bd38      	pop	{r3, r4, r5, pc}
 8005f4a:	bf00      	nop
 8005f4c:	10000d48 	.word	0x10000d48
 8005f50:	10000da8 	.word	0x10000da8
 8005f54:	10000d4c 	.word	0x10000d4c
 8005f58:	0800f924 	.word	0x0800f924
 8005f5c:	10000da4 	.word	0x10000da4
 8005f60:	10000ce4 	.word	0x10000ce4

08005f64 <vTaskPlaceOnEventList>:
 8005f64:	b538      	push	{r3, r4, r5, lr}
 8005f66:	460d      	mov	r5, r1
 8005f68:	2800      	cmp	r0, #0
 8005f6a:	d039      	beq.n	8005fe0 <vTaskPlaceOnEventList+0x7c>
 8005f6c:	4c1e      	ldr	r4, [pc, #120]	; (8005fe8 <vTaskPlaceOnEventList+0x84>)
 8005f6e:	6821      	ldr	r1, [r4, #0]
 8005f70:	3118      	adds	r1, #24
 8005f72:	f000 fe27 	bl	8006bc4 <vListInsert>
 8005f76:	6820      	ldr	r0, [r4, #0]
 8005f78:	3004      	adds	r0, #4
 8005f7a:	f000 fe3d 	bl	8006bf8 <uxListRemove>
 8005f7e:	b948      	cbnz	r0, 8005f94 <vTaskPlaceOnEventList+0x30>
 8005f80:	6822      	ldr	r2, [r4, #0]
 8005f82:	4b1a      	ldr	r3, [pc, #104]	; (8005fec <vTaskPlaceOnEventList+0x88>)
 8005f84:	6ad1      	ldr	r1, [r2, #44]	; 0x2c
 8005f86:	681a      	ldr	r2, [r3, #0]
 8005f88:	2001      	movs	r0, #1
 8005f8a:	fa00 f101 	lsl.w	r1, r0, r1
 8005f8e:	ea22 0201 	bic.w	r2, r2, r1
 8005f92:	601a      	str	r2, [r3, #0]
 8005f94:	1c69      	adds	r1, r5, #1
 8005f96:	d01c      	beq.n	8005fd2 <vTaskPlaceOnEventList+0x6e>
 8005f98:	4a15      	ldr	r2, [pc, #84]	; (8005ff0 <vTaskPlaceOnEventList+0x8c>)
 8005f9a:	4b13      	ldr	r3, [pc, #76]	; (8005fe8 <vTaskPlaceOnEventList+0x84>)
 8005f9c:	6810      	ldr	r0, [r2, #0]
 8005f9e:	6821      	ldr	r1, [r4, #0]
 8005fa0:	6812      	ldr	r2, [r2, #0]
 8005fa2:	182c      	adds	r4, r5, r0
 8005fa4:	4294      	cmp	r4, r2
 8005fa6:	604c      	str	r4, [r1, #4]
 8005fa8:	d30b      	bcc.n	8005fc2 <vTaskPlaceOnEventList+0x5e>
 8005faa:	4812      	ldr	r0, [pc, #72]	; (8005ff4 <vTaskPlaceOnEventList+0x90>)
 8005fac:	6800      	ldr	r0, [r0, #0]
 8005fae:	681b      	ldr	r3, [r3, #0]
 8005fb0:	1d19      	adds	r1, r3, #4
 8005fb2:	f000 fe07 	bl	8006bc4 <vListInsert>
 8005fb6:	4910      	ldr	r1, [pc, #64]	; (8005ff8 <vTaskPlaceOnEventList+0x94>)
 8005fb8:	680a      	ldr	r2, [r1, #0]
 8005fba:	4294      	cmp	r4, r2
 8005fbc:	bf38      	it	cc
 8005fbe:	600c      	strcc	r4, [r1, #0]
 8005fc0:	bd38      	pop	{r3, r4, r5, pc}
 8005fc2:	480e      	ldr	r0, [pc, #56]	; (8005ffc <vTaskPlaceOnEventList+0x98>)
 8005fc4:	6800      	ldr	r0, [r0, #0]
 8005fc6:	681b      	ldr	r3, [r3, #0]
 8005fc8:	1d19      	adds	r1, r3, #4
 8005fca:	e8bd 4038 	ldmia.w	sp!, {r3, r4, r5, lr}
 8005fce:	f000 bdf9 	b.w	8006bc4 <vListInsert>
 8005fd2:	6821      	ldr	r1, [r4, #0]
 8005fd4:	480a      	ldr	r0, [pc, #40]	; (8006000 <vTaskPlaceOnEventList+0x9c>)
 8005fd6:	3104      	adds	r1, #4
 8005fd8:	e8bd 4038 	ldmia.w	sp!, {r3, r4, r5, lr}
 8005fdc:	f000 bde4 	b.w	8006ba8 <vListInsertEnd>
 8005fe0:	f001 f8d4 	bl	800718c <ulPortSetInterruptMask>
 8005fe4:	e7fe      	b.n	8005fe4 <vTaskPlaceOnEventList+0x80>
 8005fe6:	bf00      	nop
 8005fe8:	10000d4c 	.word	0x10000d4c
 8005fec:	10000da4 	.word	0x10000da4
 8005ff0:	10000d68 	.word	0x10000d68
 8005ff4:	10000cb0 	.word	0x10000cb0
 8005ff8:	100001a0 	.word	0x100001a0
 8005ffc:	10000d6c 	.word	0x10000d6c
 8006000:	10000cd0 	.word	0x10000cd0

08006004 <vTaskPlaceOnEventListRestricted>:
 8006004:	b538      	push	{r3, r4, r5, lr}
 8006006:	460c      	mov	r4, r1
 8006008:	2800      	cmp	r0, #0
 800600a:	d030      	beq.n	800606e <vTaskPlaceOnEventListRestricted+0x6a>
 800600c:	4d19      	ldr	r5, [pc, #100]	; (8006074 <vTaskPlaceOnEventListRestricted+0x70>)
 800600e:	6829      	ldr	r1, [r5, #0]
 8006010:	3118      	adds	r1, #24
 8006012:	f000 fdc9 	bl	8006ba8 <vListInsertEnd>
 8006016:	6828      	ldr	r0, [r5, #0]
 8006018:	3004      	adds	r0, #4
 800601a:	f000 fded 	bl	8006bf8 <uxListRemove>
 800601e:	b948      	cbnz	r0, 8006034 <vTaskPlaceOnEventListRestricted+0x30>
 8006020:	682a      	ldr	r2, [r5, #0]
 8006022:	4b15      	ldr	r3, [pc, #84]	; (8006078 <vTaskPlaceOnEventListRestricted+0x74>)
 8006024:	6ad1      	ldr	r1, [r2, #44]	; 0x2c
 8006026:	681a      	ldr	r2, [r3, #0]
 8006028:	2001      	movs	r0, #1
 800602a:	fa00 f101 	lsl.w	r1, r0, r1
 800602e:	ea22 0201 	bic.w	r2, r2, r1
 8006032:	601a      	str	r2, [r3, #0]
 8006034:	4a11      	ldr	r2, [pc, #68]	; (800607c <vTaskPlaceOnEventListRestricted+0x78>)
 8006036:	4b0f      	ldr	r3, [pc, #60]	; (8006074 <vTaskPlaceOnEventListRestricted+0x70>)
 8006038:	6810      	ldr	r0, [r2, #0]
 800603a:	6829      	ldr	r1, [r5, #0]
 800603c:	6812      	ldr	r2, [r2, #0]
 800603e:	1824      	adds	r4, r4, r0
 8006040:	4294      	cmp	r4, r2
 8006042:	604c      	str	r4, [r1, #4]
 8006044:	d30b      	bcc.n	800605e <vTaskPlaceOnEventListRestricted+0x5a>
 8006046:	480e      	ldr	r0, [pc, #56]	; (8006080 <vTaskPlaceOnEventListRestricted+0x7c>)
 8006048:	6800      	ldr	r0, [r0, #0]
 800604a:	681b      	ldr	r3, [r3, #0]
 800604c:	1d19      	adds	r1, r3, #4
 800604e:	f000 fdb9 	bl	8006bc4 <vListInsert>
 8006052:	490c      	ldr	r1, [pc, #48]	; (8006084 <vTaskPlaceOnEventListRestricted+0x80>)
 8006054:	680a      	ldr	r2, [r1, #0]
 8006056:	4294      	cmp	r4, r2
 8006058:	bf38      	it	cc
 800605a:	600c      	strcc	r4, [r1, #0]
 800605c:	bd38      	pop	{r3, r4, r5, pc}
 800605e:	480a      	ldr	r0, [pc, #40]	; (8006088 <vTaskPlaceOnEventListRestricted+0x84>)
 8006060:	6800      	ldr	r0, [r0, #0]
 8006062:	681b      	ldr	r3, [r3, #0]
 8006064:	1d19      	adds	r1, r3, #4
 8006066:	e8bd 4038 	ldmia.w	sp!, {r3, r4, r5, lr}
 800606a:	f000 bdab 	b.w	8006bc4 <vListInsert>
 800606e:	f001 f88d 	bl	800718c <ulPortSetInterruptMask>
 8006072:	e7fe      	b.n	8006072 <vTaskPlaceOnEventListRestricted+0x6e>
 8006074:	10000d4c 	.word	0x10000d4c
 8006078:	10000da4 	.word	0x10000da4
 800607c:	10000d68 	.word	0x10000d68
 8006080:	10000cb0 	.word	0x10000cb0
 8006084:	100001a0 	.word	0x100001a0
 8006088:	10000d6c 	.word	0x10000d6c

0800608c <xTaskRemoveFromEventList>:
 800608c:	68c3      	ldr	r3, [r0, #12]
 800608e:	b570      	push	{r4, r5, r6, lr}
 8006090:	68dc      	ldr	r4, [r3, #12]
 8006092:	2c00      	cmp	r4, #0
 8006094:	d02c      	beq.n	80060f0 <xTaskRemoveFromEventList+0x64>
 8006096:	f104 0518 	add.w	r5, r4, #24
 800609a:	4628      	mov	r0, r5
 800609c:	f000 fdac 	bl	8006bf8 <uxListRemove>
 80060a0:	4815      	ldr	r0, [pc, #84]	; (80060f8 <xTaskRemoveFromEventList+0x6c>)
 80060a2:	6801      	ldr	r1, [r0, #0]
 80060a4:	b9e9      	cbnz	r1, 80060e2 <xTaskRemoveFromEventList+0x56>
 80060a6:	1d25      	adds	r5, r4, #4
 80060a8:	4628      	mov	r0, r5
 80060aa:	f000 fda5 	bl	8006bf8 <uxListRemove>
 80060ae:	6ae3      	ldr	r3, [r4, #44]	; 0x2c
 80060b0:	4a12      	ldr	r2, [pc, #72]	; (80060fc <xTaskRemoveFromEventList+0x70>)
 80060b2:	2601      	movs	r6, #1
 80060b4:	6810      	ldr	r0, [r2, #0]
 80060b6:	eb03 0183 	add.w	r1, r3, r3, lsl #2
 80060ba:	fa06 f603 	lsl.w	r6, r6, r3
 80060be:	4b10      	ldr	r3, [pc, #64]	; (8006100 <xTaskRemoveFromEventList+0x74>)
 80060c0:	4306      	orrs	r6, r0
 80060c2:	eb03 0081 	add.w	r0, r3, r1, lsl #2
 80060c6:	4629      	mov	r1, r5
 80060c8:	6016      	str	r6, [r2, #0]
 80060ca:	f000 fd6d 	bl	8006ba8 <vListInsertEnd>
 80060ce:	480d      	ldr	r0, [pc, #52]	; (8006104 <xTaskRemoveFromEventList+0x78>)
 80060d0:	6ae2      	ldr	r2, [r4, #44]	; 0x2c
 80060d2:	6801      	ldr	r1, [r0, #0]
 80060d4:	6acb      	ldr	r3, [r1, #44]	; 0x2c
 80060d6:	429a      	cmp	r2, r3
 80060d8:	d908      	bls.n	80060ec <xTaskRemoveFromEventList+0x60>
 80060da:	4a0b      	ldr	r2, [pc, #44]	; (8006108 <xTaskRemoveFromEventList+0x7c>)
 80060dc:	2001      	movs	r0, #1
 80060de:	6010      	str	r0, [r2, #0]
 80060e0:	bd70      	pop	{r4, r5, r6, pc}
 80060e2:	480a      	ldr	r0, [pc, #40]	; (800610c <xTaskRemoveFromEventList+0x80>)
 80060e4:	4629      	mov	r1, r5
 80060e6:	f000 fd5f 	bl	8006ba8 <vListInsertEnd>
 80060ea:	e7f0      	b.n	80060ce <xTaskRemoveFromEventList+0x42>
 80060ec:	2000      	movs	r0, #0
 80060ee:	bd70      	pop	{r4, r5, r6, pc}
 80060f0:	f001 f84c 	bl	800718c <ulPortSetInterruptMask>
 80060f4:	e7fe      	b.n	80060f4 <xTaskRemoveFromEventList+0x68>
 80060f6:	bf00      	nop
 80060f8:	10000d48 	.word	0x10000d48
 80060fc:	10000da4 	.word	0x10000da4
 8006100:	10000ce4 	.word	0x10000ce4
 8006104:	10000d4c 	.word	0x10000d4c
 8006108:	10000da8 	.word	0x10000da8
 800610c:	10000d50 	.word	0x10000d50

08006110 <vTaskSetTimeOutState>:
 8006110:	b508      	push	{r3, lr}
 8006112:	b130      	cbz	r0, 8006122 <vTaskSetTimeOutState+0x12>
 8006114:	4b04      	ldr	r3, [pc, #16]	; (8006128 <vTaskSetTimeOutState+0x18>)
 8006116:	4905      	ldr	r1, [pc, #20]	; (800612c <vTaskSetTimeOutState+0x1c>)
 8006118:	681a      	ldr	r2, [r3, #0]
 800611a:	680b      	ldr	r3, [r1, #0]
 800611c:	e880 000c 	stmia.w	r0, {r2, r3}
 8006120:	bd08      	pop	{r3, pc}
 8006122:	f001 f833 	bl	800718c <ulPortSetInterruptMask>
 8006126:	e7fe      	b.n	8006126 <vTaskSetTimeOutState+0x16>
 8006128:	10000d64 	.word	0x10000d64
 800612c:	10000d68 	.word	0x10000d68

08006130 <xTaskCheckForTimeOut>:
 8006130:	b5f8      	push	{r3, r4, r5, r6, r7, lr}
 8006132:	4604      	mov	r4, r0
 8006134:	460d      	mov	r5, r1
 8006136:	b328      	cbz	r0, 8006184 <xTaskCheckForTimeOut+0x54>
 8006138:	b309      	cbz	r1, 800617e <xTaskCheckForTimeOut+0x4e>
 800613a:	f001 f82f 	bl	800719c <vPortEnterCritical>
 800613e:	6829      	ldr	r1, [r5, #0]
 8006140:	4812      	ldr	r0, [pc, #72]	; (800618c <xTaskCheckForTimeOut+0x5c>)
 8006142:	1c4b      	adds	r3, r1, #1
 8006144:	6802      	ldr	r2, [r0, #0]
 8006146:	d018      	beq.n	800617a <xTaskCheckForTimeOut+0x4a>
 8006148:	4e11      	ldr	r6, [pc, #68]	; (8006190 <xTaskCheckForTimeOut+0x60>)
 800614a:	6823      	ldr	r3, [r4, #0]
 800614c:	6837      	ldr	r7, [r6, #0]
 800614e:	42bb      	cmp	r3, r7
 8006150:	6863      	ldr	r3, [r4, #4]
 8006152:	d001      	beq.n	8006158 <xTaskCheckForTimeOut+0x28>
 8006154:	429a      	cmp	r2, r3
 8006156:	d202      	bcs.n	800615e <xTaskCheckForTimeOut+0x2e>
 8006158:	1ad7      	subs	r7, r2, r3
 800615a:	42b9      	cmp	r1, r7
 800615c:	d804      	bhi.n	8006168 <xTaskCheckForTimeOut+0x38>
 800615e:	2501      	movs	r5, #1
 8006160:	f001 f848 	bl	80071f4 <vPortExitCritical>
 8006164:	4628      	mov	r0, r5
 8006166:	bdf8      	pop	{r3, r4, r5, r6, r7, pc}
 8006168:	6836      	ldr	r6, [r6, #0]
 800616a:	6800      	ldr	r0, [r0, #0]
 800616c:	1a89      	subs	r1, r1, r2
 800616e:	18ca      	adds	r2, r1, r3
 8006170:	602a      	str	r2, [r5, #0]
 8006172:	2500      	movs	r5, #0
 8006174:	6026      	str	r6, [r4, #0]
 8006176:	6060      	str	r0, [r4, #4]
 8006178:	e7f2      	b.n	8006160 <xTaskCheckForTimeOut+0x30>
 800617a:	2500      	movs	r5, #0
 800617c:	e7f0      	b.n	8006160 <xTaskCheckForTimeOut+0x30>
 800617e:	f001 f805 	bl	800718c <ulPortSetInterruptMask>
 8006182:	e7fe      	b.n	8006182 <xTaskCheckForTimeOut+0x52>
 8006184:	f001 f802 	bl	800718c <ulPortSetInterruptMask>
 8006188:	e7fe      	b.n	8006188 <xTaskCheckForTimeOut+0x58>
 800618a:	bf00      	nop
 800618c:	10000d68 	.word	0x10000d68
 8006190:	10000d64 	.word	0x10000d64

08006194 <vTaskMissedYield>:
 8006194:	f640 53a8 	movw	r3, #3496	; 0xda8
 8006198:	f2c1 0300 	movt	r3, #4096	; 0x1000
 800619c:	2201      	movs	r2, #1
 800619e:	601a      	str	r2, [r3, #0]
 80061a0:	4770      	bx	lr
 80061a2:	bf00      	nop

080061a4 <xTaskGetSchedulerState>:
 80061a4:	4b05      	ldr	r3, [pc, #20]	; (80061bc <xTaskGetSchedulerState+0x18>)
 80061a6:	6818      	ldr	r0, [r3, #0]
 80061a8:	b130      	cbz	r0, 80061b8 <xTaskGetSchedulerState+0x14>
 80061aa:	4905      	ldr	r1, [pc, #20]	; (80061c0 <xTaskGetSchedulerState+0x1c>)
 80061ac:	680a      	ldr	r2, [r1, #0]
 80061ae:	2a00      	cmp	r2, #0
 80061b0:	bf0c      	ite	eq
 80061b2:	2002      	moveq	r0, #2
 80061b4:	2000      	movne	r0, #0
 80061b6:	4770      	bx	lr
 80061b8:	2001      	movs	r0, #1
 80061ba:	4770      	bx	lr
 80061bc:	10000cb4 	.word	0x10000cb4
 80061c0:	10000d48 	.word	0x10000d48

080061c4 <vTaskPriorityInherit>:
 80061c4:	b5f8      	push	{r3, r4, r5, r6, r7, lr}
 80061c6:	4604      	mov	r4, r0
 80061c8:	b1c0      	cbz	r0, 80061fc <vTaskPriorityInherit+0x38>
 80061ca:	4d20      	ldr	r5, [pc, #128]	; (800624c <vTaskPriorityInherit+0x88>)
 80061cc:	6ac3      	ldr	r3, [r0, #44]	; 0x2c
 80061ce:	682a      	ldr	r2, [r5, #0]
 80061d0:	6ad0      	ldr	r0, [r2, #44]	; 0x2c
 80061d2:	4283      	cmp	r3, r0
 80061d4:	d212      	bcs.n	80061fc <vTaskPriorityInherit+0x38>
 80061d6:	69a1      	ldr	r1, [r4, #24]
 80061d8:	2900      	cmp	r1, #0
 80061da:	db04      	blt.n	80061e6 <vTaskPriorityInherit+0x22>
 80061dc:	682e      	ldr	r6, [r5, #0]
 80061de:	6af2      	ldr	r2, [r6, #44]	; 0x2c
 80061e0:	f1c2 0005 	rsb	r0, r2, #5
 80061e4:	61a0      	str	r0, [r4, #24]
 80061e6:	4e1a      	ldr	r6, [pc, #104]	; (8006250 <vTaskPriorityInherit+0x8c>)
 80061e8:	6961      	ldr	r1, [r4, #20]
 80061ea:	eb03 0383 	add.w	r3, r3, r3, lsl #2
 80061ee:	eb06 0283 	add.w	r2, r6, r3, lsl #2
 80061f2:	4291      	cmp	r1, r2
 80061f4:	d003      	beq.n	80061fe <vTaskPriorityInherit+0x3a>
 80061f6:	6828      	ldr	r0, [r5, #0]
 80061f8:	6ac1      	ldr	r1, [r0, #44]	; 0x2c
 80061fa:	62e1      	str	r1, [r4, #44]	; 0x2c
 80061fc:	bdf8      	pop	{r3, r4, r5, r6, r7, pc}
 80061fe:	1d27      	adds	r7, r4, #4
 8006200:	4638      	mov	r0, r7
 8006202:	f000 fcf9 	bl	8006bf8 <uxListRemove>
 8006206:	b9f8      	cbnz	r0, 8006248 <vTaskPriorityInherit+0x84>
 8006208:	6ae3      	ldr	r3, [r4, #44]	; 0x2c
 800620a:	eb03 0283 	add.w	r2, r3, r3, lsl #2
 800620e:	f856 0022 	ldr.w	r0, [r6, r2, lsl #2]
 8006212:	b9c8      	cbnz	r0, 8006248 <vTaskPriorityInherit+0x84>
 8006214:	4a0f      	ldr	r2, [pc, #60]	; (8006254 <vTaskPriorityInherit+0x90>)
 8006216:	2001      	movs	r0, #1
 8006218:	6811      	ldr	r1, [r2, #0]
 800621a:	fa00 f303 	lsl.w	r3, r0, r3
 800621e:	ea21 0103 	bic.w	r1, r1, r3
 8006222:	6011      	str	r1, [r2, #0]
 8006224:	682d      	ldr	r5, [r5, #0]
 8006226:	6811      	ldr	r1, [r2, #0]
 8006228:	6aeb      	ldr	r3, [r5, #44]	; 0x2c
 800622a:	2501      	movs	r5, #1
 800622c:	fa05 f503 	lsl.w	r5, r5, r3
 8006230:	eb03 0083 	add.w	r0, r3, r3, lsl #2
 8006234:	430d      	orrs	r5, r1
 8006236:	eb06 0080 	add.w	r0, r6, r0, lsl #2
 800623a:	4639      	mov	r1, r7
 800623c:	62e3      	str	r3, [r4, #44]	; 0x2c
 800623e:	6015      	str	r5, [r2, #0]
 8006240:	e8bd 40f8 	ldmia.w	sp!, {r3, r4, r5, r6, r7, lr}
 8006244:	f000 bcb0 	b.w	8006ba8 <vListInsertEnd>
 8006248:	4a02      	ldr	r2, [pc, #8]	; (8006254 <vTaskPriorityInherit+0x90>)
 800624a:	e7eb      	b.n	8006224 <vTaskPriorityInherit+0x60>
 800624c:	10000d4c 	.word	0x10000d4c
 8006250:	10000ce4 	.word	0x10000ce4
 8006254:	10000da4 	.word	0x10000da4

08006258 <xTaskPriorityDisinherit>:
 8006258:	b5f8      	push	{r3, r4, r5, r6, r7, lr}
 800625a:	4604      	mov	r4, r0
 800625c:	b148      	cbz	r0, 8006272 <xTaskPriorityDisinherit+0x1a>
 800625e:	6cc3      	ldr	r3, [r0, #76]	; 0x4c
 8006260:	2b00      	cmp	r3, #0
 8006262:	d02b      	beq.n	80062bc <xTaskPriorityDisinherit+0x64>
 8006264:	6ac1      	ldr	r1, [r0, #44]	; 0x2c
 8006266:	6c82      	ldr	r2, [r0, #72]	; 0x48
 8006268:	1e58      	subs	r0, r3, #1
 800626a:	4291      	cmp	r1, r2
 800626c:	64e0      	str	r0, [r4, #76]	; 0x4c
 800626e:	d000      	beq.n	8006272 <xTaskPriorityDisinherit+0x1a>
 8006270:	b108      	cbz	r0, 8006276 <xTaskPriorityDisinherit+0x1e>
 8006272:	2000      	movs	r0, #0
 8006274:	bdf8      	pop	{r3, r4, r5, r6, r7, pc}
 8006276:	1d27      	adds	r7, r4, #4
 8006278:	4638      	mov	r0, r7
 800627a:	f000 fcbd 	bl	8006bf8 <uxListRemove>
 800627e:	bb00      	cbnz	r0, 80062c2 <xTaskPriorityDisinherit+0x6a>
 8006280:	6ae6      	ldr	r6, [r4, #44]	; 0x2c
 8006282:	4d16      	ldr	r5, [pc, #88]	; (80062dc <xTaskPriorityDisinherit+0x84>)
 8006284:	eb06 0386 	add.w	r3, r6, r6, lsl #2
 8006288:	f855 1023 	ldr.w	r1, [r5, r3, lsl #2]
 800628c:	b1e1      	cbz	r1, 80062c8 <xTaskPriorityDisinherit+0x70>
 800628e:	4b14      	ldr	r3, [pc, #80]	; (80062e0 <xTaskPriorityDisinherit+0x88>)
 8006290:	6ca2      	ldr	r2, [r4, #72]	; 0x48
 8006292:	6818      	ldr	r0, [r3, #0]
 8006294:	62e2      	str	r2, [r4, #44]	; 0x2c
 8006296:	2601      	movs	r6, #1
 8006298:	fa06 fe02 	lsl.w	lr, r6, r2
 800629c:	f1c2 0105 	rsb	r1, r2, #5
 80062a0:	eb02 0282 	add.w	r2, r2, r2, lsl #2
 80062a4:	ea4e 0c00 	orr.w	ip, lr, r0
 80062a8:	61a1      	str	r1, [r4, #24]
 80062aa:	eb05 0082 	add.w	r0, r5, r2, lsl #2
 80062ae:	4639      	mov	r1, r7
 80062b0:	f8c3 c000 	str.w	ip, [r3]
 80062b4:	f000 fc78 	bl	8006ba8 <vListInsertEnd>
 80062b8:	4630      	mov	r0, r6
 80062ba:	bdf8      	pop	{r3, r4, r5, r6, r7, pc}
 80062bc:	f000 ff66 	bl	800718c <ulPortSetInterruptMask>
 80062c0:	e7fe      	b.n	80062c0 <xTaskPriorityDisinherit+0x68>
 80062c2:	4d06      	ldr	r5, [pc, #24]	; (80062dc <xTaskPriorityDisinherit+0x84>)
 80062c4:	4b06      	ldr	r3, [pc, #24]	; (80062e0 <xTaskPriorityDisinherit+0x88>)
 80062c6:	e7e3      	b.n	8006290 <xTaskPriorityDisinherit+0x38>
 80062c8:	4b05      	ldr	r3, [pc, #20]	; (80062e0 <xTaskPriorityDisinherit+0x88>)
 80062ca:	2201      	movs	r2, #1
 80062cc:	6819      	ldr	r1, [r3, #0]
 80062ce:	fa02 f006 	lsl.w	r0, r2, r6
 80062d2:	ea21 0600 	bic.w	r6, r1, r0
 80062d6:	601e      	str	r6, [r3, #0]
 80062d8:	e7da      	b.n	8006290 <xTaskPriorityDisinherit+0x38>
 80062da:	bf00      	nop
 80062dc:	10000ce4 	.word	0x10000ce4
 80062e0:	10000da4 	.word	0x10000da4

080062e4 <pvTaskIncrementMutexHeldCount>:
 80062e4:	4b04      	ldr	r3, [pc, #16]	; (80062f8 <pvTaskIncrementMutexHeldCount+0x14>)
 80062e6:	681a      	ldr	r2, [r3, #0]
 80062e8:	b11a      	cbz	r2, 80062f2 <pvTaskIncrementMutexHeldCount+0xe>
 80062ea:	6818      	ldr	r0, [r3, #0]
 80062ec:	6cc1      	ldr	r1, [r0, #76]	; 0x4c
 80062ee:	1c4a      	adds	r2, r1, #1
 80062f0:	64c2      	str	r2, [r0, #76]	; 0x4c
 80062f2:	6818      	ldr	r0, [r3, #0]
 80062f4:	4770      	bx	lr
 80062f6:	bf00      	nop
 80062f8:	10000d4c 	.word	0x10000d4c

080062fc <prvUnlockQueue>:
 80062fc:	b538      	push	{r3, r4, r5, lr}
 80062fe:	4604      	mov	r4, r0
 8006300:	f000 ff4c 	bl	800719c <vPortEnterCritical>
 8006304:	6ca3      	ldr	r3, [r4, #72]	; 0x48
 8006306:	2b00      	cmp	r3, #0
 8006308:	dd14      	ble.n	8006334 <prvUnlockQueue+0x38>
 800630a:	6a60      	ldr	r0, [r4, #36]	; 0x24
 800630c:	b190      	cbz	r0, 8006334 <prvUnlockQueue+0x38>
 800630e:	f104 0524 	add.w	r5, r4, #36	; 0x24
 8006312:	e007      	b.n	8006324 <prvUnlockQueue+0x28>
 8006314:	6ca1      	ldr	r1, [r4, #72]	; 0x48
 8006316:	1e4a      	subs	r2, r1, #1
 8006318:	64a2      	str	r2, [r4, #72]	; 0x48
 800631a:	6ca3      	ldr	r3, [r4, #72]	; 0x48
 800631c:	2b00      	cmp	r3, #0
 800631e:	dd09      	ble.n	8006334 <prvUnlockQueue+0x38>
 8006320:	6a60      	ldr	r0, [r4, #36]	; 0x24
 8006322:	b138      	cbz	r0, 8006334 <prvUnlockQueue+0x38>
 8006324:	4628      	mov	r0, r5
 8006326:	f7ff feb1 	bl	800608c <xTaskRemoveFromEventList>
 800632a:	2800      	cmp	r0, #0
 800632c:	d0f2      	beq.n	8006314 <prvUnlockQueue+0x18>
 800632e:	f7ff ff31 	bl	8006194 <vTaskMissedYield>
 8006332:	e7ef      	b.n	8006314 <prvUnlockQueue+0x18>
 8006334:	f04f 31ff 	mov.w	r1, #4294967295
 8006338:	64a1      	str	r1, [r4, #72]	; 0x48
 800633a:	f000 ff5b 	bl	80071f4 <vPortExitCritical>
 800633e:	f000 ff2d 	bl	800719c <vPortEnterCritical>
 8006342:	6c62      	ldr	r2, [r4, #68]	; 0x44
 8006344:	2a00      	cmp	r2, #0
 8006346:	dd14      	ble.n	8006372 <prvUnlockQueue+0x76>
 8006348:	6923      	ldr	r3, [r4, #16]
 800634a:	b193      	cbz	r3, 8006372 <prvUnlockQueue+0x76>
 800634c:	f104 0510 	add.w	r5, r4, #16
 8006350:	e007      	b.n	8006362 <prvUnlockQueue+0x66>
 8006352:	6c60      	ldr	r0, [r4, #68]	; 0x44
 8006354:	1e41      	subs	r1, r0, #1
 8006356:	6461      	str	r1, [r4, #68]	; 0x44
 8006358:	6c62      	ldr	r2, [r4, #68]	; 0x44
 800635a:	2a00      	cmp	r2, #0
 800635c:	dd09      	ble.n	8006372 <prvUnlockQueue+0x76>
 800635e:	6923      	ldr	r3, [r4, #16]
 8006360:	b13b      	cbz	r3, 8006372 <prvUnlockQueue+0x76>
 8006362:	4628      	mov	r0, r5
 8006364:	f7ff fe92 	bl	800608c <xTaskRemoveFromEventList>
 8006368:	2800      	cmp	r0, #0
 800636a:	d0f2      	beq.n	8006352 <prvUnlockQueue+0x56>
 800636c:	f7ff ff12 	bl	8006194 <vTaskMissedYield>
 8006370:	e7ef      	b.n	8006352 <prvUnlockQueue+0x56>
 8006372:	f04f 30ff 	mov.w	r0, #4294967295
 8006376:	6460      	str	r0, [r4, #68]	; 0x44
 8006378:	e8bd 4038 	ldmia.w	sp!, {r3, r4, r5, lr}
 800637c:	f000 bf3a 	b.w	80071f4 <vPortExitCritical>

08006380 <prvCopyDataFromQueue>:
 8006380:	6c02      	ldr	r2, [r0, #64]	; 0x40
 8006382:	b410      	push	{r4}
 8006384:	4603      	mov	r3, r0
 8006386:	b16a      	cbz	r2, 80063a4 <prvCopyDataFromQueue+0x24>
 8006388:	68c4      	ldr	r4, [r0, #12]
 800638a:	6840      	ldr	r0, [r0, #4]
 800638c:	18a4      	adds	r4, r4, r2
 800638e:	4284      	cmp	r4, r0
 8006390:	bf28      	it	cs
 8006392:	6818      	ldrcs	r0, [r3, #0]
 8006394:	60dc      	str	r4, [r3, #12]
 8006396:	bf28      	it	cs
 8006398:	60d8      	strcs	r0, [r3, #12]
 800639a:	4608      	mov	r0, r1
 800639c:	68d9      	ldr	r1, [r3, #12]
 800639e:	bc10      	pop	{r4}
 80063a0:	f001 bba8 	b.w	8007af4 <memcpy>
 80063a4:	bc10      	pop	{r4}
 80063a6:	4770      	bx	lr

080063a8 <xQueueGenericCreate>:
 80063a8:	b5f8      	push	{r3, r4, r5, r6, r7, lr}
 80063aa:	4605      	mov	r5, r0
 80063ac:	460e      	mov	r6, r1
 80063ae:	4617      	mov	r7, r2
 80063b0:	2800      	cmp	r0, #0
 80063b2:	d031      	beq.n	8006418 <xQueueGenericCreate+0x70>
 80063b4:	2054      	movs	r0, #84	; 0x54
 80063b6:	f001 f803 	bl	80073c0 <pvPortMalloc>
 80063ba:	4604      	mov	r4, r0
 80063bc:	b360      	cbz	r0, 8006418 <xQueueGenericCreate+0x70>
 80063be:	fb05 f006 	mul.w	r0, r5, r6
 80063c2:	3001      	adds	r0, #1
 80063c4:	f000 fffc 	bl	80073c0 <pvPortMalloc>
 80063c8:	6020      	str	r0, [r4, #0]
 80063ca:	b310      	cbz	r0, 8006412 <xQueueGenericCreate+0x6a>
 80063cc:	63e5      	str	r5, [r4, #60]	; 0x3c
 80063ce:	6426      	str	r6, [r4, #64]	; 0x40
 80063d0:	f000 fee4 	bl	800719c <vPortEnterCritical>
 80063d4:	6be2      	ldr	r2, [r4, #60]	; 0x3c
 80063d6:	6823      	ldr	r3, [r4, #0]
 80063d8:	6c21      	ldr	r1, [r4, #64]	; 0x40
 80063da:	60a3      	str	r3, [r4, #8]
 80063dc:	1e55      	subs	r5, r2, #1
 80063de:	2000      	movs	r0, #0
 80063e0:	fb02 3201 	mla	r2, r2, r1, r3
 80063e4:	fb01 3305 	mla	r3, r1, r5, r3
 80063e8:	f04f 31ff 	mov.w	r1, #4294967295
 80063ec:	63a0      	str	r0, [r4, #56]	; 0x38
 80063ee:	6062      	str	r2, [r4, #4]
 80063f0:	6461      	str	r1, [r4, #68]	; 0x44
 80063f2:	60e3      	str	r3, [r4, #12]
 80063f4:	64a1      	str	r1, [r4, #72]	; 0x48
 80063f6:	f104 0010 	add.w	r0, r4, #16
 80063fa:	f000 fbc5 	bl	8006b88 <vListInitialise>
 80063fe:	f104 0024 	add.w	r0, r4, #36	; 0x24
 8006402:	f000 fbc1 	bl	8006b88 <vListInitialise>
 8006406:	f000 fef5 	bl	80071f4 <vPortExitCritical>
 800640a:	f884 7050 	strb.w	r7, [r4, #80]	; 0x50
 800640e:	4620      	mov	r0, r4
 8006410:	bdf8      	pop	{r3, r4, r5, r6, r7, pc}
 8006412:	4620      	mov	r0, r4
 8006414:	f000 ffe6 	bl	80073e4 <vPortFree>
 8006418:	f000 feb8 	bl	800718c <ulPortSetInterruptMask>
 800641c:	e7fe      	b.n	800641c <xQueueGenericCreate+0x74>
 800641e:	bf00      	nop

08006420 <xQueueGenericSend>:
 8006420:	e92d 4ff0 	stmdb	sp!, {r4, r5, r6, r7, r8, r9, sl, fp, lr}
 8006424:	b085      	sub	sp, #20
 8006426:	4604      	mov	r4, r0
 8006428:	4689      	mov	r9, r1
 800642a:	9201      	str	r2, [sp, #4]
 800642c:	461f      	mov	r7, r3
 800642e:	2800      	cmp	r0, #0
 8006430:	f000 80e6 	beq.w	8006600 <xQueueGenericSend+0x1e0>
 8006434:	2900      	cmp	r1, #0
 8006436:	f000 8132 	beq.w	800669e <xQueueGenericSend+0x27e>
 800643a:	2f02      	cmp	r7, #2
 800643c:	d057      	beq.n	80064ee <xQueueGenericSend+0xce>
 800643e:	f7ff feb1 	bl	80061a4 <xTaskGetSchedulerState>
 8006442:	b918      	cbnz	r0, 800644c <xQueueGenericSend+0x2c>
 8006444:	9901      	ldr	r1, [sp, #4]
 8006446:	2900      	cmp	r1, #0
 8006448:	f040 810e 	bne.w	8006668 <xQueueGenericSend+0x248>
 800644c:	f000 fea6 	bl	800719c <vPortEnterCritical>
 8006450:	6ba2      	ldr	r2, [r4, #56]	; 0x38
 8006452:	6be3      	ldr	r3, [r4, #60]	; 0x3c
 8006454:	429a      	cmp	r2, r3
 8006456:	f04f 0b00 	mov.w	fp, #0
 800645a:	f04f 0a00 	mov.w	sl, #0
 800645e:	f104 0510 	add.w	r5, r4, #16
 8006462:	f104 0624 	add.w	r6, r4, #36	; 0x24
 8006466:	f04f 38ff 	mov.w	r8, #4294967295
 800646a:	d370      	bcc.n	800654e <xQueueGenericSend+0x12e>
 800646c:	2f02      	cmp	r7, #2
 800646e:	f000 80d8 	beq.w	8006622 <xQueueGenericSend+0x202>
 8006472:	9801      	ldr	r0, [sp, #4]
 8006474:	2800      	cmp	r0, #0
 8006476:	f000 80cf 	beq.w	8006618 <xQueueGenericSend+0x1f8>
 800647a:	f1bb 0f00 	cmp.w	fp, #0
 800647e:	d07a      	beq.n	8006576 <xQueueGenericSend+0x156>
 8006480:	f000 feb8 	bl	80071f4 <vPortExitCritical>
 8006484:	f7ff fb4c 	bl	8005b20 <vTaskSuspendAll>
 8006488:	f000 fe88 	bl	800719c <vPortEnterCritical>
 800648c:	6c61      	ldr	r1, [r4, #68]	; 0x44
 800648e:	1c4b      	adds	r3, r1, #1
 8006490:	bf08      	it	eq
 8006492:	f8c4 a044 	streq.w	sl, [r4, #68]	; 0x44
 8006496:	6ca2      	ldr	r2, [r4, #72]	; 0x48
 8006498:	1c53      	adds	r3, r2, #1
 800649a:	bf08      	it	eq
 800649c:	f8c4 a048 	streq.w	sl, [r4, #72]	; 0x48
 80064a0:	f000 fea8 	bl	80071f4 <vPortExitCritical>
 80064a4:	a802      	add	r0, sp, #8
 80064a6:	a901      	add	r1, sp, #4
 80064a8:	f7ff fe42 	bl	8006130 <xTaskCheckForTimeOut>
 80064ac:	2800      	cmp	r0, #0
 80064ae:	f040 80aa 	bne.w	8006606 <xQueueGenericSend+0x1e6>
 80064b2:	f000 fe73 	bl	800719c <vPortEnterCritical>
 80064b6:	6ba0      	ldr	r0, [r4, #56]	; 0x38
 80064b8:	6be3      	ldr	r3, [r4, #60]	; 0x3c
 80064ba:	4298      	cmp	r0, r3
 80064bc:	d05f      	beq.n	800657e <xQueueGenericSend+0x15e>
 80064be:	f000 fe99 	bl	80071f4 <vPortExitCritical>
 80064c2:	f000 fe6b 	bl	800719c <vPortEnterCritical>
 80064c6:	6ca1      	ldr	r1, [r4, #72]	; 0x48
 80064c8:	2900      	cmp	r1, #0
 80064ca:	dc06      	bgt.n	80064da <xQueueGenericSend+0xba>
 80064cc:	e015      	b.n	80064fa <xQueueGenericSend+0xda>
 80064ce:	6ca0      	ldr	r0, [r4, #72]	; 0x48
 80064d0:	1e43      	subs	r3, r0, #1
 80064d2:	64a3      	str	r3, [r4, #72]	; 0x48
 80064d4:	6ca1      	ldr	r1, [r4, #72]	; 0x48
 80064d6:	2900      	cmp	r1, #0
 80064d8:	dd0f      	ble.n	80064fa <xQueueGenericSend+0xda>
 80064da:	6a62      	ldr	r2, [r4, #36]	; 0x24
 80064dc:	b16a      	cbz	r2, 80064fa <xQueueGenericSend+0xda>
 80064de:	4630      	mov	r0, r6
 80064e0:	f7ff fdd4 	bl	800608c <xTaskRemoveFromEventList>
 80064e4:	2800      	cmp	r0, #0
 80064e6:	d0f2      	beq.n	80064ce <xQueueGenericSend+0xae>
 80064e8:	f7ff fe54 	bl	8006194 <vTaskMissedYield>
 80064ec:	e7ef      	b.n	80064ce <xQueueGenericSend+0xae>
 80064ee:	6be0      	ldr	r0, [r4, #60]	; 0x3c
 80064f0:	2801      	cmp	r0, #1
 80064f2:	d0a4      	beq.n	800643e <xQueueGenericSend+0x1e>
 80064f4:	f000 fe4a 	bl	800718c <ulPortSetInterruptMask>
 80064f8:	e7fe      	b.n	80064f8 <xQueueGenericSend+0xd8>
 80064fa:	f8c4 8048 	str.w	r8, [r4, #72]	; 0x48
 80064fe:	f000 fe79 	bl	80071f4 <vPortExitCritical>
 8006502:	f000 fe4b 	bl	800719c <vPortEnterCritical>
 8006506:	6c62      	ldr	r2, [r4, #68]	; 0x44
 8006508:	2a00      	cmp	r2, #0
 800650a:	dd12      	ble.n	8006532 <xQueueGenericSend+0x112>
 800650c:	6920      	ldr	r0, [r4, #16]
 800650e:	b940      	cbnz	r0, 8006522 <xQueueGenericSend+0x102>
 8006510:	e00f      	b.n	8006532 <xQueueGenericSend+0x112>
 8006512:	6c63      	ldr	r3, [r4, #68]	; 0x44
 8006514:	1e59      	subs	r1, r3, #1
 8006516:	6461      	str	r1, [r4, #68]	; 0x44
 8006518:	6c62      	ldr	r2, [r4, #68]	; 0x44
 800651a:	2a00      	cmp	r2, #0
 800651c:	dd09      	ble.n	8006532 <xQueueGenericSend+0x112>
 800651e:	6920      	ldr	r0, [r4, #16]
 8006520:	b138      	cbz	r0, 8006532 <xQueueGenericSend+0x112>
 8006522:	4628      	mov	r0, r5
 8006524:	f7ff fdb2 	bl	800608c <xTaskRemoveFromEventList>
 8006528:	2800      	cmp	r0, #0
 800652a:	d0f2      	beq.n	8006512 <xQueueGenericSend+0xf2>
 800652c:	f7ff fe32 	bl	8006194 <vTaskMissedYield>
 8006530:	e7ef      	b.n	8006512 <xQueueGenericSend+0xf2>
 8006532:	f8c4 8044 	str.w	r8, [r4, #68]	; 0x44
 8006536:	f000 fe5d 	bl	80071f4 <vPortExitCritical>
 800653a:	f7ff fbb9 	bl	8005cb0 <xTaskResumeAll>
 800653e:	f000 fe2d 	bl	800719c <vPortEnterCritical>
 8006542:	6ba2      	ldr	r2, [r4, #56]	; 0x38
 8006544:	6be3      	ldr	r3, [r4, #60]	; 0x3c
 8006546:	429a      	cmp	r2, r3
 8006548:	f04f 0b01 	mov.w	fp, #1
 800654c:	d28e      	bcs.n	800646c <xQueueGenericSend+0x4c>
 800654e:	6c22      	ldr	r2, [r4, #64]	; 0x40
 8006550:	2a00      	cmp	r2, #0
 8006552:	d068      	beq.n	8006626 <xQueueGenericSend+0x206>
 8006554:	2f00      	cmp	r7, #0
 8006556:	f040 808a 	bne.w	800666e <xQueueGenericSend+0x24e>
 800655a:	4649      	mov	r1, r9
 800655c:	68a0      	ldr	r0, [r4, #8]
 800655e:	f001 fac9 	bl	8007af4 <memcpy>
 8006562:	68a1      	ldr	r1, [r4, #8]
 8006564:	6c23      	ldr	r3, [r4, #64]	; 0x40
 8006566:	6860      	ldr	r0, [r4, #4]
 8006568:	18ca      	adds	r2, r1, r3
 800656a:	4282      	cmp	r2, r0
 800656c:	60a2      	str	r2, [r4, #8]
 800656e:	d35c      	bcc.n	800662a <xQueueGenericSend+0x20a>
 8006570:	6821      	ldr	r1, [r4, #0]
 8006572:	60a1      	str	r1, [r4, #8]
 8006574:	e059      	b.n	800662a <xQueueGenericSend+0x20a>
 8006576:	a802      	add	r0, sp, #8
 8006578:	f7ff fdca 	bl	8006110 <vTaskSetTimeOutState>
 800657c:	e780      	b.n	8006480 <xQueueGenericSend+0x60>
 800657e:	f000 fe39 	bl	80071f4 <vPortExitCritical>
 8006582:	4628      	mov	r0, r5
 8006584:	9901      	ldr	r1, [sp, #4]
 8006586:	f7ff fced 	bl	8005f64 <vTaskPlaceOnEventList>
 800658a:	f000 fe07 	bl	800719c <vPortEnterCritical>
 800658e:	6ca3      	ldr	r3, [r4, #72]	; 0x48
 8006590:	2b00      	cmp	r3, #0
 8006592:	dc06      	bgt.n	80065a2 <xQueueGenericSend+0x182>
 8006594:	e00f      	b.n	80065b6 <xQueueGenericSend+0x196>
 8006596:	6ca2      	ldr	r2, [r4, #72]	; 0x48
 8006598:	1e50      	subs	r0, r2, #1
 800659a:	64a0      	str	r0, [r4, #72]	; 0x48
 800659c:	6ca3      	ldr	r3, [r4, #72]	; 0x48
 800659e:	2b00      	cmp	r3, #0
 80065a0:	dd09      	ble.n	80065b6 <xQueueGenericSend+0x196>
 80065a2:	6a61      	ldr	r1, [r4, #36]	; 0x24
 80065a4:	b139      	cbz	r1, 80065b6 <xQueueGenericSend+0x196>
 80065a6:	4630      	mov	r0, r6
 80065a8:	f7ff fd70 	bl	800608c <xTaskRemoveFromEventList>
 80065ac:	2800      	cmp	r0, #0
 80065ae:	d0f2      	beq.n	8006596 <xQueueGenericSend+0x176>
 80065b0:	f7ff fdf0 	bl	8006194 <vTaskMissedYield>
 80065b4:	e7ef      	b.n	8006596 <xQueueGenericSend+0x176>
 80065b6:	f8c4 8048 	str.w	r8, [r4, #72]	; 0x48
 80065ba:	f000 fe1b 	bl	80071f4 <vPortExitCritical>
 80065be:	f000 fded 	bl	800719c <vPortEnterCritical>
 80065c2:	6c61      	ldr	r1, [r4, #68]	; 0x44
 80065c4:	2900      	cmp	r1, #0
 80065c6:	dc06      	bgt.n	80065d6 <xQueueGenericSend+0x1b6>
 80065c8:	e00f      	b.n	80065ea <xQueueGenericSend+0x1ca>
 80065ca:	6c60      	ldr	r0, [r4, #68]	; 0x44
 80065cc:	1e43      	subs	r3, r0, #1
 80065ce:	6463      	str	r3, [r4, #68]	; 0x44
 80065d0:	6c61      	ldr	r1, [r4, #68]	; 0x44
 80065d2:	2900      	cmp	r1, #0
 80065d4:	dd09      	ble.n	80065ea <xQueueGenericSend+0x1ca>
 80065d6:	6922      	ldr	r2, [r4, #16]
 80065d8:	b13a      	cbz	r2, 80065ea <xQueueGenericSend+0x1ca>
 80065da:	4628      	mov	r0, r5
 80065dc:	f7ff fd56 	bl	800608c <xTaskRemoveFromEventList>
 80065e0:	2800      	cmp	r0, #0
 80065e2:	d0f2      	beq.n	80065ca <xQueueGenericSend+0x1aa>
 80065e4:	f7ff fdd6 	bl	8006194 <vTaskMissedYield>
 80065e8:	e7ef      	b.n	80065ca <xQueueGenericSend+0x1aa>
 80065ea:	f8c4 8044 	str.w	r8, [r4, #68]	; 0x44
 80065ee:	f000 fe01 	bl	80071f4 <vPortExitCritical>
 80065f2:	f7ff fb5d 	bl	8005cb0 <xTaskResumeAll>
 80065f6:	2800      	cmp	r0, #0
 80065f8:	d1a1      	bne.n	800653e <xQueueGenericSend+0x11e>
 80065fa:	f000 fdbb 	bl	8007174 <vPortYield>
 80065fe:	e79e      	b.n	800653e <xQueueGenericSend+0x11e>
 8006600:	f000 fdc4 	bl	800718c <ulPortSetInterruptMask>
 8006604:	e7fe      	b.n	8006604 <xQueueGenericSend+0x1e4>
 8006606:	4620      	mov	r0, r4
 8006608:	f7ff fe78 	bl	80062fc <prvUnlockQueue>
 800660c:	f7ff fb50 	bl	8005cb0 <xTaskResumeAll>
 8006610:	2000      	movs	r0, #0
 8006612:	b005      	add	sp, #20
 8006614:	e8bd 8ff0 	ldmia.w	sp!, {r4, r5, r6, r7, r8, r9, sl, fp, pc}
 8006618:	9000      	str	r0, [sp, #0]
 800661a:	f000 fdeb 	bl	80071f4 <vPortExitCritical>
 800661e:	9800      	ldr	r0, [sp, #0]
 8006620:	e7f7      	b.n	8006612 <xQueueGenericSend+0x1f2>
 8006622:	6c22      	ldr	r2, [r4, #64]	; 0x40
 8006624:	bb1a      	cbnz	r2, 800666e <xQueueGenericSend+0x24e>
 8006626:	6825      	ldr	r5, [r4, #0]
 8006628:	b17d      	cbz	r5, 800664a <xQueueGenericSend+0x22a>
 800662a:	6ba0      	ldr	r0, [r4, #56]	; 0x38
 800662c:	6a63      	ldr	r3, [r4, #36]	; 0x24
 800662e:	1c42      	adds	r2, r0, #1
 8006630:	63a2      	str	r2, [r4, #56]	; 0x38
 8006632:	b91b      	cbnz	r3, 800663c <xQueueGenericSend+0x21c>
 8006634:	f000 fdde 	bl	80071f4 <vPortExitCritical>
 8006638:	2001      	movs	r0, #1
 800663a:	e7ea      	b.n	8006612 <xQueueGenericSend+0x1f2>
 800663c:	f104 0024 	add.w	r0, r4, #36	; 0x24
 8006640:	f7ff fd24 	bl	800608c <xTaskRemoveFromEventList>
 8006644:	2801      	cmp	r0, #1
 8006646:	d1f5      	bne.n	8006634 <xQueueGenericSend+0x214>
 8006648:	e00b      	b.n	8006662 <xQueueGenericSend+0x242>
 800664a:	6860      	ldr	r0, [r4, #4]
 800664c:	f7ff fe04 	bl	8006258 <xTaskPriorityDisinherit>
 8006650:	6ba1      	ldr	r1, [r4, #56]	; 0x38
 8006652:	6a63      	ldr	r3, [r4, #36]	; 0x24
 8006654:	6065      	str	r5, [r4, #4]
 8006656:	1c4a      	adds	r2, r1, #1
 8006658:	63a2      	str	r2, [r4, #56]	; 0x38
 800665a:	2b00      	cmp	r3, #0
 800665c:	d1ee      	bne.n	800663c <xQueueGenericSend+0x21c>
 800665e:	2800      	cmp	r0, #0
 8006660:	d0e8      	beq.n	8006634 <xQueueGenericSend+0x214>
 8006662:	f000 fd87 	bl	8007174 <vPortYield>
 8006666:	e7e5      	b.n	8006634 <xQueueGenericSend+0x214>
 8006668:	f000 fd90 	bl	800718c <ulPortSetInterruptMask>
 800666c:	e7fe      	b.n	800666c <xQueueGenericSend+0x24c>
 800666e:	4649      	mov	r1, r9
 8006670:	68e0      	ldr	r0, [r4, #12]
 8006672:	f001 fa3f 	bl	8007af4 <memcpy>
 8006676:	6c20      	ldr	r0, [r4, #64]	; 0x40
 8006678:	68e2      	ldr	r2, [r4, #12]
 800667a:	6821      	ldr	r1, [r4, #0]
 800667c:	4243      	negs	r3, r0
 800667e:	18d0      	adds	r0, r2, r3
 8006680:	4288      	cmp	r0, r1
 8006682:	60e0      	str	r0, [r4, #12]
 8006684:	d202      	bcs.n	800668c <xQueueGenericSend+0x26c>
 8006686:	6862      	ldr	r2, [r4, #4]
 8006688:	18d1      	adds	r1, r2, r3
 800668a:	60e1      	str	r1, [r4, #12]
 800668c:	2f02      	cmp	r7, #2
 800668e:	d1cc      	bne.n	800662a <xQueueGenericSend+0x20a>
 8006690:	6ba3      	ldr	r3, [r4, #56]	; 0x38
 8006692:	2b00      	cmp	r3, #0
 8006694:	d0c9      	beq.n	800662a <xQueueGenericSend+0x20a>
 8006696:	6ba0      	ldr	r0, [r4, #56]	; 0x38
 8006698:	1e42      	subs	r2, r0, #1
 800669a:	63a2      	str	r2, [r4, #56]	; 0x38
 800669c:	e7c5      	b.n	800662a <xQueueGenericSend+0x20a>
 800669e:	6c03      	ldr	r3, [r0, #64]	; 0x40
 80066a0:	2b00      	cmp	r3, #0
 80066a2:	f43f aeca 	beq.w	800643a <xQueueGenericSend+0x1a>
 80066a6:	f000 fd71 	bl	800718c <ulPortSetInterruptMask>
 80066aa:	e7fe      	b.n	80066aa <xQueueGenericSend+0x28a>

080066ac <xQueueGenericSendFromISR>:
 80066ac:	e92d 41f0 	stmdb	sp!, {r4, r5, r6, r7, r8, lr}
 80066b0:	4604      	mov	r4, r0
 80066b2:	460f      	mov	r7, r1
 80066b4:	4615      	mov	r5, r2
 80066b6:	461e      	mov	r6, r3
 80066b8:	b358      	cbz	r0, 8006712 <xQueueGenericSendFromISR+0x66>
 80066ba:	2900      	cmp	r1, #0
 80066bc:	d06b      	beq.n	8006796 <xQueueGenericSendFromISR+0xea>
 80066be:	2e02      	cmp	r6, #2
 80066c0:	d00a      	beq.n	80066d8 <xQueueGenericSendFromISR+0x2c>
 80066c2:	f000 fe59 	bl	8007378 <vPortValidateInterruptPriority>
 80066c6:	f000 fd61 	bl	800718c <ulPortSetInterruptMask>
 80066ca:	6ba2      	ldr	r2, [r4, #56]	; 0x38
 80066cc:	6be1      	ldr	r1, [r4, #60]	; 0x3c
 80066ce:	4291      	cmp	r1, r2
 80066d0:	4680      	mov	r8, r0
 80066d2:	d807      	bhi.n	80066e4 <xQueueGenericSendFromISR+0x38>
 80066d4:	2400      	movs	r4, #0
 80066d6:	e037      	b.n	8006748 <xQueueGenericSendFromISR+0x9c>
 80066d8:	6be0      	ldr	r0, [r4, #60]	; 0x3c
 80066da:	2801      	cmp	r0, #1
 80066dc:	d03a      	beq.n	8006754 <xQueueGenericSendFromISR+0xa8>
 80066de:	f000 fd55 	bl	800718c <ulPortSetInterruptMask>
 80066e2:	e7fe      	b.n	80066e2 <xQueueGenericSendFromISR+0x36>
 80066e4:	6c22      	ldr	r2, [r4, #64]	; 0x40
 80066e6:	b9ba      	cbnz	r2, 8006718 <xQueueGenericSendFromISR+0x6c>
 80066e8:	6826      	ldr	r6, [r4, #0]
 80066ea:	bb1e      	cbnz	r6, 8006734 <xQueueGenericSendFromISR+0x88>
 80066ec:	6860      	ldr	r0, [r4, #4]
 80066ee:	f7ff fdb3 	bl	8006258 <xTaskPriorityDisinherit>
 80066f2:	6ba1      	ldr	r1, [r4, #56]	; 0x38
 80066f4:	6066      	str	r6, [r4, #4]
 80066f6:	1c4b      	adds	r3, r1, #1
 80066f8:	63a3      	str	r3, [r4, #56]	; 0x38
 80066fa:	b1f0      	cbz	r0, 800673a <xQueueGenericSendFromISR+0x8e>
 80066fc:	b1ed      	cbz	r5, 800673a <xQueueGenericSendFromISR+0x8e>
 80066fe:	2001      	movs	r0, #1
 8006700:	6028      	str	r0, [r5, #0]
 8006702:	6ca2      	ldr	r2, [r4, #72]	; 0x48
 8006704:	1c53      	adds	r3, r2, #1
 8006706:	d11b      	bne.n	8006740 <xQueueGenericSendFromISR+0x94>
 8006708:	6a60      	ldr	r0, [r4, #36]	; 0x24
 800670a:	2800      	cmp	r0, #0
 800670c:	d149      	bne.n	80067a2 <xQueueGenericSendFromISR+0xf6>
 800670e:	2401      	movs	r4, #1
 8006710:	e01a      	b.n	8006748 <xQueueGenericSendFromISR+0x9c>
 8006712:	f000 fd3b 	bl	800718c <ulPortSetInterruptMask>
 8006716:	e7fe      	b.n	8006716 <xQueueGenericSendFromISR+0x6a>
 8006718:	bb2e      	cbnz	r6, 8006766 <xQueueGenericSendFromISR+0xba>
 800671a:	4639      	mov	r1, r7
 800671c:	68a0      	ldr	r0, [r4, #8]
 800671e:	f001 f9e9 	bl	8007af4 <memcpy>
 8006722:	68a1      	ldr	r1, [r4, #8]
 8006724:	6c23      	ldr	r3, [r4, #64]	; 0x40
 8006726:	6862      	ldr	r2, [r4, #4]
 8006728:	18c8      	adds	r0, r1, r3
 800672a:	4290      	cmp	r0, r2
 800672c:	60a0      	str	r0, [r4, #8]
 800672e:	d301      	bcc.n	8006734 <xQueueGenericSendFromISR+0x88>
 8006730:	6821      	ldr	r1, [r4, #0]
 8006732:	60a1      	str	r1, [r4, #8]
 8006734:	6ba3      	ldr	r3, [r4, #56]	; 0x38
 8006736:	1c5a      	adds	r2, r3, #1
 8006738:	63a2      	str	r2, [r4, #56]	; 0x38
 800673a:	6ca2      	ldr	r2, [r4, #72]	; 0x48
 800673c:	1c53      	adds	r3, r2, #1
 800673e:	d0e3      	beq.n	8006708 <xQueueGenericSendFromISR+0x5c>
 8006740:	6ca1      	ldr	r1, [r4, #72]	; 0x48
 8006742:	1c4b      	adds	r3, r1, #1
 8006744:	64a3      	str	r3, [r4, #72]	; 0x48
 8006746:	2401      	movs	r4, #1
 8006748:	4640      	mov	r0, r8
 800674a:	f000 fd4f 	bl	80071ec <vPortClearInterruptMask>
 800674e:	4620      	mov	r0, r4
 8006750:	e8bd 81f0 	ldmia.w	sp!, {r4, r5, r6, r7, r8, pc}
 8006754:	f000 fe10 	bl	8007378 <vPortValidateInterruptPriority>
 8006758:	f000 fd18 	bl	800718c <ulPortSetInterruptMask>
 800675c:	6ba2      	ldr	r2, [r4, #56]	; 0x38
 800675e:	6c22      	ldr	r2, [r4, #64]	; 0x40
 8006760:	4680      	mov	r8, r0
 8006762:	2a00      	cmp	r2, #0
 8006764:	d0c0      	beq.n	80066e8 <xQueueGenericSendFromISR+0x3c>
 8006766:	4639      	mov	r1, r7
 8006768:	68e0      	ldr	r0, [r4, #12]
 800676a:	f001 f9c3 	bl	8007af4 <memcpy>
 800676e:	6c23      	ldr	r3, [r4, #64]	; 0x40
 8006770:	68e0      	ldr	r0, [r4, #12]
 8006772:	6821      	ldr	r1, [r4, #0]
 8006774:	425b      	negs	r3, r3
 8006776:	18c2      	adds	r2, r0, r3
 8006778:	428a      	cmp	r2, r1
 800677a:	60e2      	str	r2, [r4, #12]
 800677c:	d202      	bcs.n	8006784 <xQueueGenericSendFromISR+0xd8>
 800677e:	6860      	ldr	r0, [r4, #4]
 8006780:	18c1      	adds	r1, r0, r3
 8006782:	60e1      	str	r1, [r4, #12]
 8006784:	2e02      	cmp	r6, #2
 8006786:	d1d5      	bne.n	8006734 <xQueueGenericSendFromISR+0x88>
 8006788:	6ba3      	ldr	r3, [r4, #56]	; 0x38
 800678a:	2b00      	cmp	r3, #0
 800678c:	d0d2      	beq.n	8006734 <xQueueGenericSendFromISR+0x88>
 800678e:	6ba2      	ldr	r2, [r4, #56]	; 0x38
 8006790:	1e50      	subs	r0, r2, #1
 8006792:	63a0      	str	r0, [r4, #56]	; 0x38
 8006794:	e7ce      	b.n	8006734 <xQueueGenericSendFromISR+0x88>
 8006796:	6c03      	ldr	r3, [r0, #64]	; 0x40
 8006798:	2b00      	cmp	r3, #0
 800679a:	d090      	beq.n	80066be <xQueueGenericSendFromISR+0x12>
 800679c:	f000 fcf6 	bl	800718c <ulPortSetInterruptMask>
 80067a0:	e7fe      	b.n	80067a0 <xQueueGenericSendFromISR+0xf4>
 80067a2:	f104 0024 	add.w	r0, r4, #36	; 0x24
 80067a6:	f7ff fc71 	bl	800608c <xTaskRemoveFromEventList>
 80067aa:	2800      	cmp	r0, #0
 80067ac:	d0af      	beq.n	800670e <xQueueGenericSendFromISR+0x62>
 80067ae:	2401      	movs	r4, #1
 80067b0:	2d00      	cmp	r5, #0
 80067b2:	d0c9      	beq.n	8006748 <xQueueGenericSendFromISR+0x9c>
 80067b4:	602c      	str	r4, [r5, #0]
 80067b6:	e7c7      	b.n	8006748 <xQueueGenericSendFromISR+0x9c>

080067b8 <xQueueGenericReceive>:
 80067b8:	e92d 4ff0 	stmdb	sp!, {r4, r5, r6, r7, r8, r9, sl, fp, lr}
 80067bc:	b085      	sub	sp, #20
 80067be:	4604      	mov	r4, r0
 80067c0:	4688      	mov	r8, r1
 80067c2:	9201      	str	r2, [sp, #4]
 80067c4:	469a      	mov	sl, r3
 80067c6:	2800      	cmp	r0, #0
 80067c8:	f000 80dd 	beq.w	8006986 <xQueueGenericReceive+0x1ce>
 80067cc:	2900      	cmp	r1, #0
 80067ce:	f000 810a 	beq.w	80069e6 <xQueueGenericReceive+0x22e>
 80067d2:	f7ff fce7 	bl	80061a4 <xTaskGetSchedulerState>
 80067d6:	b918      	cbnz	r0, 80067e0 <xQueueGenericReceive+0x28>
 80067d8:	9801      	ldr	r0, [sp, #4]
 80067da:	2800      	cmp	r0, #0
 80067dc:	f040 8100 	bne.w	80069e0 <xQueueGenericReceive+0x228>
 80067e0:	f000 fcdc 	bl	800719c <vPortEnterCritical>
 80067e4:	6ba1      	ldr	r1, [r4, #56]	; 0x38
 80067e6:	f04f 0b00 	mov.w	fp, #0
 80067ea:	f04f 0900 	mov.w	r9, #0
 80067ee:	f104 0524 	add.w	r5, r4, #36	; 0x24
 80067f2:	f04f 37ff 	mov.w	r7, #4294967295
 80067f6:	f104 0610 	add.w	r6, r4, #16
 80067fa:	2900      	cmp	r1, #0
 80067fc:	f040 8089 	bne.w	8006912 <xQueueGenericReceive+0x15a>
 8006800:	9a01      	ldr	r2, [sp, #4]
 8006802:	2a00      	cmp	r2, #0
 8006804:	f000 80d3 	beq.w	80069ae <xQueueGenericReceive+0x1f6>
 8006808:	f1bb 0f00 	cmp.w	fp, #0
 800680c:	f000 80b7 	beq.w	800697e <xQueueGenericReceive+0x1c6>
 8006810:	f000 fcf0 	bl	80071f4 <vPortExitCritical>
 8006814:	f7ff f984 	bl	8005b20 <vTaskSuspendAll>
 8006818:	f000 fcc0 	bl	800719c <vPortEnterCritical>
 800681c:	6c63      	ldr	r3, [r4, #68]	; 0x44
 800681e:	3301      	adds	r3, #1
 8006820:	bf08      	it	eq
 8006822:	f8c4 9044 	streq.w	r9, [r4, #68]	; 0x44
 8006826:	6ca0      	ldr	r0, [r4, #72]	; 0x48
 8006828:	1c43      	adds	r3, r0, #1
 800682a:	bf08      	it	eq
 800682c:	f8c4 9048 	streq.w	r9, [r4, #72]	; 0x48
 8006830:	f000 fce0 	bl	80071f4 <vPortExitCritical>
 8006834:	a802      	add	r0, sp, #8
 8006836:	a901      	add	r1, sp, #4
 8006838:	f7ff fc7a 	bl	8006130 <xTaskCheckForTimeOut>
 800683c:	2800      	cmp	r0, #0
 800683e:	f040 80ad 	bne.w	800699c <xQueueGenericReceive+0x1e4>
 8006842:	f000 fcab 	bl	800719c <vPortEnterCritical>
 8006846:	6ba1      	ldr	r1, [r4, #56]	; 0x38
 8006848:	b1c1      	cbz	r1, 800687c <xQueueGenericReceive+0xc4>
 800684a:	f000 fcd3 	bl	80071f4 <vPortExitCritical>
 800684e:	f000 fca5 	bl	800719c <vPortEnterCritical>
 8006852:	6ca2      	ldr	r2, [r4, #72]	; 0x48
 8006854:	2a00      	cmp	r2, #0
 8006856:	dc06      	bgt.n	8006866 <xQueueGenericReceive+0xae>
 8006858:	e072      	b.n	8006940 <xQueueGenericReceive+0x188>
 800685a:	6ca0      	ldr	r0, [r4, #72]	; 0x48
 800685c:	1e41      	subs	r1, r0, #1
 800685e:	64a1      	str	r1, [r4, #72]	; 0x48
 8006860:	6ca2      	ldr	r2, [r4, #72]	; 0x48
 8006862:	2a00      	cmp	r2, #0
 8006864:	dd6c      	ble.n	8006940 <xQueueGenericReceive+0x188>
 8006866:	6a63      	ldr	r3, [r4, #36]	; 0x24
 8006868:	2b00      	cmp	r3, #0
 800686a:	d069      	beq.n	8006940 <xQueueGenericReceive+0x188>
 800686c:	4628      	mov	r0, r5
 800686e:	f7ff fc0d 	bl	800608c <xTaskRemoveFromEventList>
 8006872:	2800      	cmp	r0, #0
 8006874:	d0f1      	beq.n	800685a <xQueueGenericReceive+0xa2>
 8006876:	f7ff fc8d 	bl	8006194 <vTaskMissedYield>
 800687a:	e7ee      	b.n	800685a <xQueueGenericReceive+0xa2>
 800687c:	f000 fcba 	bl	80071f4 <vPortExitCritical>
 8006880:	6820      	ldr	r0, [r4, #0]
 8006882:	2800      	cmp	r0, #0
 8006884:	f000 8082 	beq.w	800698c <xQueueGenericReceive+0x1d4>
 8006888:	9901      	ldr	r1, [sp, #4]
 800688a:	4628      	mov	r0, r5
 800688c:	f7ff fb6a 	bl	8005f64 <vTaskPlaceOnEventList>
 8006890:	f000 fc84 	bl	800719c <vPortEnterCritical>
 8006894:	6ca1      	ldr	r1, [r4, #72]	; 0x48
 8006896:	2900      	cmp	r1, #0
 8006898:	dc06      	bgt.n	80068a8 <xQueueGenericReceive+0xf0>
 800689a:	e00f      	b.n	80068bc <xQueueGenericReceive+0x104>
 800689c:	6ca3      	ldr	r3, [r4, #72]	; 0x48
 800689e:	1e58      	subs	r0, r3, #1
 80068a0:	64a0      	str	r0, [r4, #72]	; 0x48
 80068a2:	6ca1      	ldr	r1, [r4, #72]	; 0x48
 80068a4:	2900      	cmp	r1, #0
 80068a6:	dd09      	ble.n	80068bc <xQueueGenericReceive+0x104>
 80068a8:	6a62      	ldr	r2, [r4, #36]	; 0x24
 80068aa:	b13a      	cbz	r2, 80068bc <xQueueGenericReceive+0x104>
 80068ac:	4628      	mov	r0, r5
 80068ae:	f7ff fbed 	bl	800608c <xTaskRemoveFromEventList>
 80068b2:	2800      	cmp	r0, #0
 80068b4:	d0f2      	beq.n	800689c <xQueueGenericReceive+0xe4>
 80068b6:	f7ff fc6d 	bl	8006194 <vTaskMissedYield>
 80068ba:	e7ef      	b.n	800689c <xQueueGenericReceive+0xe4>
 80068bc:	64a7      	str	r7, [r4, #72]	; 0x48
 80068be:	f000 fc99 	bl	80071f4 <vPortExitCritical>
 80068c2:	f000 fc6b 	bl	800719c <vPortEnterCritical>
 80068c6:	6c62      	ldr	r2, [r4, #68]	; 0x44
 80068c8:	2a00      	cmp	r2, #0
 80068ca:	dd12      	ble.n	80068f2 <xQueueGenericReceive+0x13a>
 80068cc:	6923      	ldr	r3, [r4, #16]
 80068ce:	b943      	cbnz	r3, 80068e2 <xQueueGenericReceive+0x12a>
 80068d0:	e00f      	b.n	80068f2 <xQueueGenericReceive+0x13a>
 80068d2:	6c60      	ldr	r0, [r4, #68]	; 0x44
 80068d4:	1e41      	subs	r1, r0, #1
 80068d6:	6461      	str	r1, [r4, #68]	; 0x44
 80068d8:	6c62      	ldr	r2, [r4, #68]	; 0x44
 80068da:	2a00      	cmp	r2, #0
 80068dc:	dd09      	ble.n	80068f2 <xQueueGenericReceive+0x13a>
 80068de:	6923      	ldr	r3, [r4, #16]
 80068e0:	b13b      	cbz	r3, 80068f2 <xQueueGenericReceive+0x13a>
 80068e2:	4630      	mov	r0, r6
 80068e4:	f7ff fbd2 	bl	800608c <xTaskRemoveFromEventList>
 80068e8:	2800      	cmp	r0, #0
 80068ea:	d0f2      	beq.n	80068d2 <xQueueGenericReceive+0x11a>
 80068ec:	f7ff fc52 	bl	8006194 <vTaskMissedYield>
 80068f0:	e7ef      	b.n	80068d2 <xQueueGenericReceive+0x11a>
 80068f2:	6467      	str	r7, [r4, #68]	; 0x44
 80068f4:	f000 fc7e 	bl	80071f4 <vPortExitCritical>
 80068f8:	f7ff f9da 	bl	8005cb0 <xTaskResumeAll>
 80068fc:	b908      	cbnz	r0, 8006902 <xQueueGenericReceive+0x14a>
 80068fe:	f000 fc39 	bl	8007174 <vPortYield>
 8006902:	f000 fc4b 	bl	800719c <vPortEnterCritical>
 8006906:	6ba1      	ldr	r1, [r4, #56]	; 0x38
 8006908:	f04f 0b01 	mov.w	fp, #1
 800690c:	2900      	cmp	r1, #0
 800690e:	f43f af77 	beq.w	8006800 <xQueueGenericReceive+0x48>
 8006912:	4620      	mov	r0, r4
 8006914:	4641      	mov	r1, r8
 8006916:	68e5      	ldr	r5, [r4, #12]
 8006918:	f7ff fd32 	bl	8006380 <prvCopyDataFromQueue>
 800691c:	f1ba 0f00 	cmp.w	sl, #0
 8006920:	d14a      	bne.n	80069b8 <xQueueGenericReceive+0x200>
 8006922:	6ba1      	ldr	r1, [r4, #56]	; 0x38
 8006924:	6823      	ldr	r3, [r4, #0]
 8006926:	1e4a      	subs	r2, r1, #1
 8006928:	63a2      	str	r2, [r4, #56]	; 0x38
 800692a:	b913      	cbnz	r3, 8006932 <xQueueGenericReceive+0x17a>
 800692c:	f7ff fcda 	bl	80062e4 <pvTaskIncrementMutexHeldCount>
 8006930:	6060      	str	r0, [r4, #4]
 8006932:	6920      	ldr	r0, [r4, #16]
 8006934:	2800      	cmp	r0, #0
 8006936:	d14c      	bne.n	80069d2 <xQueueGenericReceive+0x21a>
 8006938:	f000 fc5c 	bl	80071f4 <vPortExitCritical>
 800693c:	2001      	movs	r0, #1
 800693e:	e033      	b.n	80069a8 <xQueueGenericReceive+0x1f0>
 8006940:	64a7      	str	r7, [r4, #72]	; 0x48
 8006942:	f000 fc57 	bl	80071f4 <vPortExitCritical>
 8006946:	f000 fc29 	bl	800719c <vPortEnterCritical>
 800694a:	6c63      	ldr	r3, [r4, #68]	; 0x44
 800694c:	2b00      	cmp	r3, #0
 800694e:	dc06      	bgt.n	800695e <xQueueGenericReceive+0x1a6>
 8006950:	e00f      	b.n	8006972 <xQueueGenericReceive+0x1ba>
 8006952:	6c61      	ldr	r1, [r4, #68]	; 0x44
 8006954:	1e4a      	subs	r2, r1, #1
 8006956:	6462      	str	r2, [r4, #68]	; 0x44
 8006958:	6c63      	ldr	r3, [r4, #68]	; 0x44
 800695a:	2b00      	cmp	r3, #0
 800695c:	dd09      	ble.n	8006972 <xQueueGenericReceive+0x1ba>
 800695e:	6920      	ldr	r0, [r4, #16]
 8006960:	b138      	cbz	r0, 8006972 <xQueueGenericReceive+0x1ba>
 8006962:	4630      	mov	r0, r6
 8006964:	f7ff fb92 	bl	800608c <xTaskRemoveFromEventList>
 8006968:	2800      	cmp	r0, #0
 800696a:	d0f2      	beq.n	8006952 <xQueueGenericReceive+0x19a>
 800696c:	f7ff fc12 	bl	8006194 <vTaskMissedYield>
 8006970:	e7ef      	b.n	8006952 <xQueueGenericReceive+0x19a>
 8006972:	6467      	str	r7, [r4, #68]	; 0x44
 8006974:	f000 fc3e 	bl	80071f4 <vPortExitCritical>
 8006978:	f7ff f99a 	bl	8005cb0 <xTaskResumeAll>
 800697c:	e7c1      	b.n	8006902 <xQueueGenericReceive+0x14a>
 800697e:	a802      	add	r0, sp, #8
 8006980:	f7ff fbc6 	bl	8006110 <vTaskSetTimeOutState>
 8006984:	e744      	b.n	8006810 <xQueueGenericReceive+0x58>
 8006986:	f000 fc01 	bl	800718c <ulPortSetInterruptMask>
 800698a:	e7fe      	b.n	800698a <xQueueGenericReceive+0x1d2>
 800698c:	f000 fc06 	bl	800719c <vPortEnterCritical>
 8006990:	6860      	ldr	r0, [r4, #4]
 8006992:	f7ff fc17 	bl	80061c4 <vTaskPriorityInherit>
 8006996:	f000 fc2d 	bl	80071f4 <vPortExitCritical>
 800699a:	e775      	b.n	8006888 <xQueueGenericReceive+0xd0>
 800699c:	4620      	mov	r0, r4
 800699e:	f7ff fcad 	bl	80062fc <prvUnlockQueue>
 80069a2:	f7ff f985 	bl	8005cb0 <xTaskResumeAll>
 80069a6:	2000      	movs	r0, #0
 80069a8:	b005      	add	sp, #20
 80069aa:	e8bd 8ff0 	ldmia.w	sp!, {r4, r5, r6, r7, r8, r9, sl, fp, pc}
 80069ae:	9200      	str	r2, [sp, #0]
 80069b0:	f000 fc20 	bl	80071f4 <vPortExitCritical>
 80069b4:	9800      	ldr	r0, [sp, #0]
 80069b6:	e7f7      	b.n	80069a8 <xQueueGenericReceive+0x1f0>
 80069b8:	6a60      	ldr	r0, [r4, #36]	; 0x24
 80069ba:	60e5      	str	r5, [r4, #12]
 80069bc:	2800      	cmp	r0, #0
 80069be:	d0bb      	beq.n	8006938 <xQueueGenericReceive+0x180>
 80069c0:	f104 0024 	add.w	r0, r4, #36	; 0x24
 80069c4:	f7ff fb62 	bl	800608c <xTaskRemoveFromEventList>
 80069c8:	2800      	cmp	r0, #0
 80069ca:	d0b5      	beq.n	8006938 <xQueueGenericReceive+0x180>
 80069cc:	f000 fbd2 	bl	8007174 <vPortYield>
 80069d0:	e7b2      	b.n	8006938 <xQueueGenericReceive+0x180>
 80069d2:	f104 0010 	add.w	r0, r4, #16
 80069d6:	f7ff fb59 	bl	800608c <xTaskRemoveFromEventList>
 80069da:	2801      	cmp	r0, #1
 80069dc:	d1ac      	bne.n	8006938 <xQueueGenericReceive+0x180>
 80069de:	e7f5      	b.n	80069cc <xQueueGenericReceive+0x214>
 80069e0:	f000 fbd4 	bl	800718c <ulPortSetInterruptMask>
 80069e4:	e7fe      	b.n	80069e4 <xQueueGenericReceive+0x22c>
 80069e6:	6c03      	ldr	r3, [r0, #64]	; 0x40
 80069e8:	2b00      	cmp	r3, #0
 80069ea:	f43f aef2 	beq.w	80067d2 <xQueueGenericReceive+0x1a>
 80069ee:	f000 fbcd 	bl	800718c <ulPortSetInterruptMask>
 80069f2:	e7fe      	b.n	80069f2 <xQueueGenericReceive+0x23a>

080069f4 <xQueueReceiveFromISR>:
 80069f4:	b5f8      	push	{r3, r4, r5, r6, r7, lr}
 80069f6:	4604      	mov	r4, r0
 80069f8:	460e      	mov	r6, r1
 80069fa:	4615      	mov	r5, r2
 80069fc:	b168      	cbz	r0, 8006a1a <xQueueReceiveFromISR+0x26>
 80069fe:	b1f1      	cbz	r1, 8006a3e <xQueueReceiveFromISR+0x4a>
 8006a00:	f000 fcba 	bl	8007378 <vPortValidateInterruptPriority>
 8006a04:	f000 fbc2 	bl	800718c <ulPortSetInterruptMask>
 8006a08:	4607      	mov	r7, r0
 8006a0a:	6ba0      	ldr	r0, [r4, #56]	; 0x38
 8006a0c:	b940      	cbnz	r0, 8006a20 <xQueueReceiveFromISR+0x2c>
 8006a0e:	4604      	mov	r4, r0
 8006a10:	4638      	mov	r0, r7
 8006a12:	f000 fbeb 	bl	80071ec <vPortClearInterruptMask>
 8006a16:	4620      	mov	r0, r4
 8006a18:	bdf8      	pop	{r3, r4, r5, r6, r7, pc}
 8006a1a:	f000 fbb7 	bl	800718c <ulPortSetInterruptMask>
 8006a1e:	e7fe      	b.n	8006a1e <xQueueReceiveFromISR+0x2a>
 8006a20:	4631      	mov	r1, r6
 8006a22:	4620      	mov	r0, r4
 8006a24:	f7ff fcac 	bl	8006380 <prvCopyDataFromQueue>
 8006a28:	6ba1      	ldr	r1, [r4, #56]	; 0x38
 8006a2a:	1e4a      	subs	r2, r1, #1
 8006a2c:	63a2      	str	r2, [r4, #56]	; 0x38
 8006a2e:	6c63      	ldr	r3, [r4, #68]	; 0x44
 8006a30:	3301      	adds	r3, #1
 8006a32:	d00a      	beq.n	8006a4a <xQueueReceiveFromISR+0x56>
 8006a34:	6c60      	ldr	r0, [r4, #68]	; 0x44
 8006a36:	1c41      	adds	r1, r0, #1
 8006a38:	6461      	str	r1, [r4, #68]	; 0x44
 8006a3a:	2401      	movs	r4, #1
 8006a3c:	e7e8      	b.n	8006a10 <xQueueReceiveFromISR+0x1c>
 8006a3e:	6c03      	ldr	r3, [r0, #64]	; 0x40
 8006a40:	2b00      	cmp	r3, #0
 8006a42:	d0dd      	beq.n	8006a00 <xQueueReceiveFromISR+0xc>
 8006a44:	f000 fba2 	bl	800718c <ulPortSetInterruptMask>
 8006a48:	e7fe      	b.n	8006a48 <xQueueReceiveFromISR+0x54>
 8006a4a:	6922      	ldr	r2, [r4, #16]
 8006a4c:	2a00      	cmp	r2, #0
 8006a4e:	d0f4      	beq.n	8006a3a <xQueueReceiveFromISR+0x46>
 8006a50:	f104 0010 	add.w	r0, r4, #16
 8006a54:	f7ff fb1a 	bl	800608c <xTaskRemoveFromEventList>
 8006a58:	2800      	cmp	r0, #0
 8006a5a:	d0ee      	beq.n	8006a3a <xQueueReceiveFromISR+0x46>
 8006a5c:	2d00      	cmp	r5, #0
 8006a5e:	d0ec      	beq.n	8006a3a <xQueueReceiveFromISR+0x46>
 8006a60:	2401      	movs	r4, #1
 8006a62:	602c      	str	r4, [r5, #0]
 8006a64:	e7d4      	b.n	8006a10 <xQueueReceiveFromISR+0x1c>
 8006a66:	bf00      	nop

08006a68 <xQueueIsQueueEmptyFromISR>:
 8006a68:	b508      	push	{r3, lr}
 8006a6a:	b128      	cbz	r0, 8006a78 <xQueueIsQueueEmptyFromISR+0x10>
 8006a6c:	6b80      	ldr	r0, [r0, #56]	; 0x38
 8006a6e:	f1d0 0001 	rsbs	r0, r0, #1
 8006a72:	bf38      	it	cc
 8006a74:	2000      	movcc	r0, #0
 8006a76:	bd08      	pop	{r3, pc}
 8006a78:	f000 fb88 	bl	800718c <ulPortSetInterruptMask>
 8006a7c:	e7fe      	b.n	8006a7c <xQueueIsQueueEmptyFromISR+0x14>
 8006a7e:	bf00      	nop

08006a80 <vQueueAddToRegistry>:
 8006a80:	4b13      	ldr	r3, [pc, #76]	; (8006ad0 <vQueueAddToRegistry+0x50>)
 8006a82:	681a      	ldr	r2, [r3, #0]
 8006a84:	b410      	push	{r4}
 8006a86:	b182      	cbz	r2, 8006aaa <vQueueAddToRegistry+0x2a>
 8006a88:	689a      	ldr	r2, [r3, #8]
 8006a8a:	b1a2      	cbz	r2, 8006ab6 <vQueueAddToRegistry+0x36>
 8006a8c:	691a      	ldr	r2, [r3, #16]
 8006a8e:	b1a2      	cbz	r2, 8006aba <vQueueAddToRegistry+0x3a>
 8006a90:	699a      	ldr	r2, [r3, #24]
 8006a92:	b1a2      	cbz	r2, 8006abe <vQueueAddToRegistry+0x3e>
 8006a94:	6a1a      	ldr	r2, [r3, #32]
 8006a96:	b1a2      	cbz	r2, 8006ac2 <vQueueAddToRegistry+0x42>
 8006a98:	6a9a      	ldr	r2, [r3, #40]	; 0x28
 8006a9a:	b1a2      	cbz	r2, 8006ac6 <vQueueAddToRegistry+0x46>
 8006a9c:	6b1a      	ldr	r2, [r3, #48]	; 0x30
 8006a9e:	b11a      	cbz	r2, 8006aa8 <vQueueAddToRegistry+0x28>
 8006aa0:	6b9a      	ldr	r2, [r3, #56]	; 0x38
 8006aa2:	b192      	cbz	r2, 8006aca <vQueueAddToRegistry+0x4a>
 8006aa4:	bc10      	pop	{r4}
 8006aa6:	4770      	bx	lr
 8006aa8:	2206      	movs	r2, #6
 8006aaa:	eb03 04c2 	add.w	r4, r3, r2, lsl #3
 8006aae:	f843 1032 	str.w	r1, [r3, r2, lsl #3]
 8006ab2:	6060      	str	r0, [r4, #4]
 8006ab4:	e7f6      	b.n	8006aa4 <vQueueAddToRegistry+0x24>
 8006ab6:	2201      	movs	r2, #1
 8006ab8:	e7f7      	b.n	8006aaa <vQueueAddToRegistry+0x2a>
 8006aba:	2202      	movs	r2, #2
 8006abc:	e7f5      	b.n	8006aaa <vQueueAddToRegistry+0x2a>
 8006abe:	2203      	movs	r2, #3
 8006ac0:	e7f3      	b.n	8006aaa <vQueueAddToRegistry+0x2a>
 8006ac2:	2204      	movs	r2, #4
 8006ac4:	e7f1      	b.n	8006aaa <vQueueAddToRegistry+0x2a>
 8006ac6:	2205      	movs	r2, #5
 8006ac8:	e7ef      	b.n	8006aaa <vQueueAddToRegistry+0x2a>
 8006aca:	2207      	movs	r2, #7
 8006acc:	e7ed      	b.n	8006aaa <vQueueAddToRegistry+0x2a>
 8006ace:	bf00      	nop
 8006ad0:	10000e20 	.word	0x10000e20

08006ad4 <vQueueWaitForMessageRestricted>:
 8006ad4:	b538      	push	{r3, r4, r5, lr}
 8006ad6:	4604      	mov	r4, r0
 8006ad8:	460d      	mov	r5, r1
 8006ada:	f000 fb5f 	bl	800719c <vPortEnterCritical>
 8006ade:	6c63      	ldr	r3, [r4, #68]	; 0x44
 8006ae0:	3301      	adds	r3, #1
 8006ae2:	d04e      	beq.n	8006b82 <vQueueWaitForMessageRestricted+0xae>
 8006ae4:	6ca1      	ldr	r1, [r4, #72]	; 0x48
 8006ae6:	1c4b      	adds	r3, r1, #1
 8006ae8:	d048      	beq.n	8006b7c <vQueueWaitForMessageRestricted+0xa8>
 8006aea:	f000 fb83 	bl	80071f4 <vPortExitCritical>
 8006aee:	6ba3      	ldr	r3, [r4, #56]	; 0x38
 8006af0:	b923      	cbnz	r3, 8006afc <vQueueWaitForMessageRestricted+0x28>
 8006af2:	f104 0024 	add.w	r0, r4, #36	; 0x24
 8006af6:	4629      	mov	r1, r5
 8006af8:	f7ff fa84 	bl	8006004 <vTaskPlaceOnEventListRestricted>
 8006afc:	f000 fb4e 	bl	800719c <vPortEnterCritical>
 8006b00:	6ca0      	ldr	r0, [r4, #72]	; 0x48
 8006b02:	2800      	cmp	r0, #0
 8006b04:	dd14      	ble.n	8006b30 <vQueueWaitForMessageRestricted+0x5c>
 8006b06:	6a61      	ldr	r1, [r4, #36]	; 0x24
 8006b08:	b191      	cbz	r1, 8006b30 <vQueueWaitForMessageRestricted+0x5c>
 8006b0a:	f104 0524 	add.w	r5, r4, #36	; 0x24
 8006b0e:	e007      	b.n	8006b20 <vQueueWaitForMessageRestricted+0x4c>
 8006b10:	6ca2      	ldr	r2, [r4, #72]	; 0x48
 8006b12:	1e53      	subs	r3, r2, #1
 8006b14:	64a3      	str	r3, [r4, #72]	; 0x48
 8006b16:	6ca0      	ldr	r0, [r4, #72]	; 0x48
 8006b18:	2800      	cmp	r0, #0
 8006b1a:	dd09      	ble.n	8006b30 <vQueueWaitForMessageRestricted+0x5c>
 8006b1c:	6a61      	ldr	r1, [r4, #36]	; 0x24
 8006b1e:	b139      	cbz	r1, 8006b30 <vQueueWaitForMessageRestricted+0x5c>
 8006b20:	4628      	mov	r0, r5
 8006b22:	f7ff fab3 	bl	800608c <xTaskRemoveFromEventList>
 8006b26:	2800      	cmp	r0, #0
 8006b28:	d0f2      	beq.n	8006b10 <vQueueWaitForMessageRestricted+0x3c>
 8006b2a:	f7ff fb33 	bl	8006194 <vTaskMissedYield>
 8006b2e:	e7ef      	b.n	8006b10 <vQueueWaitForMessageRestricted+0x3c>
 8006b30:	f04f 32ff 	mov.w	r2, #4294967295
 8006b34:	64a2      	str	r2, [r4, #72]	; 0x48
 8006b36:	f000 fb5d 	bl	80071f4 <vPortExitCritical>
 8006b3a:	f000 fb2f 	bl	800719c <vPortEnterCritical>
 8006b3e:	6c63      	ldr	r3, [r4, #68]	; 0x44
 8006b40:	2b00      	cmp	r3, #0
 8006b42:	dd14      	ble.n	8006b6e <vQueueWaitForMessageRestricted+0x9a>
 8006b44:	6920      	ldr	r0, [r4, #16]
 8006b46:	b190      	cbz	r0, 8006b6e <vQueueWaitForMessageRestricted+0x9a>
 8006b48:	f104 0510 	add.w	r5, r4, #16
 8006b4c:	e007      	b.n	8006b5e <vQueueWaitForMessageRestricted+0x8a>
 8006b4e:	6c61      	ldr	r1, [r4, #68]	; 0x44
 8006b50:	1e4a      	subs	r2, r1, #1
 8006b52:	6462      	str	r2, [r4, #68]	; 0x44
 8006b54:	6c63      	ldr	r3, [r4, #68]	; 0x44
 8006b56:	2b00      	cmp	r3, #0
 8006b58:	dd09      	ble.n	8006b6e <vQueueWaitForMessageRestricted+0x9a>
 8006b5a:	6920      	ldr	r0, [r4, #16]
 8006b5c:	b138      	cbz	r0, 8006b6e <vQueueWaitForMessageRestricted+0x9a>
 8006b5e:	4628      	mov	r0, r5
 8006b60:	f7ff fa94 	bl	800608c <xTaskRemoveFromEventList>
 8006b64:	2800      	cmp	r0, #0
 8006b66:	d0f2      	beq.n	8006b4e <vQueueWaitForMessageRestricted+0x7a>
 8006b68:	f7ff fb14 	bl	8006194 <vTaskMissedYield>
 8006b6c:	e7ef      	b.n	8006b4e <vQueueWaitForMessageRestricted+0x7a>
 8006b6e:	f04f 31ff 	mov.w	r1, #4294967295
 8006b72:	6461      	str	r1, [r4, #68]	; 0x44
 8006b74:	e8bd 4038 	ldmia.w	sp!, {r3, r4, r5, lr}
 8006b78:	f000 bb3c 	b.w	80071f4 <vPortExitCritical>
 8006b7c:	2200      	movs	r2, #0
 8006b7e:	64a2      	str	r2, [r4, #72]	; 0x48
 8006b80:	e7b3      	b.n	8006aea <vQueueWaitForMessageRestricted+0x16>
 8006b82:	2000      	movs	r0, #0
 8006b84:	6460      	str	r0, [r4, #68]	; 0x44
 8006b86:	e7ad      	b.n	8006ae4 <vQueueWaitForMessageRestricted+0x10>

08006b88 <vListInitialise>:
 8006b88:	f100 0308 	add.w	r3, r0, #8
 8006b8c:	f04f 32ff 	mov.w	r2, #4294967295
 8006b90:	2100      	movs	r1, #0
 8006b92:	6043      	str	r3, [r0, #4]
 8006b94:	6082      	str	r2, [r0, #8]
 8006b96:	60c3      	str	r3, [r0, #12]
 8006b98:	6103      	str	r3, [r0, #16]
 8006b9a:	6001      	str	r1, [r0, #0]
 8006b9c:	4770      	bx	lr
 8006b9e:	bf00      	nop

08006ba0 <vListInitialiseItem>:
 8006ba0:	2300      	movs	r3, #0
 8006ba2:	6103      	str	r3, [r0, #16]
 8006ba4:	4770      	bx	lr
 8006ba6:	bf00      	nop

08006ba8 <vListInsertEnd>:
 8006ba8:	6843      	ldr	r3, [r0, #4]
 8006baa:	689a      	ldr	r2, [r3, #8]
 8006bac:	b410      	push	{r4}
 8006bae:	6804      	ldr	r4, [r0, #0]
 8006bb0:	608a      	str	r2, [r1, #8]
 8006bb2:	689a      	ldr	r2, [r3, #8]
 8006bb4:	604b      	str	r3, [r1, #4]
 8006bb6:	3401      	adds	r4, #1
 8006bb8:	6108      	str	r0, [r1, #16]
 8006bba:	6051      	str	r1, [r2, #4]
 8006bbc:	6099      	str	r1, [r3, #8]
 8006bbe:	6004      	str	r4, [r0, #0]
 8006bc0:	bc10      	pop	{r4}
 8006bc2:	4770      	bx	lr

08006bc4 <vListInsert>:
 8006bc4:	b430      	push	{r4, r5}
 8006bc6:	680d      	ldr	r5, [r1, #0]
 8006bc8:	1c6b      	adds	r3, r5, #1
 8006bca:	d011      	beq.n	8006bf0 <vListInsert+0x2c>
 8006bcc:	f100 0208 	add.w	r2, r0, #8
 8006bd0:	e000      	b.n	8006bd4 <vListInsert+0x10>
 8006bd2:	461a      	mov	r2, r3
 8006bd4:	6853      	ldr	r3, [r2, #4]
 8006bd6:	681c      	ldr	r4, [r3, #0]
 8006bd8:	42a5      	cmp	r5, r4
 8006bda:	d2fa      	bcs.n	8006bd2 <vListInsert+0xe>
 8006bdc:	6804      	ldr	r4, [r0, #0]
 8006bde:	604b      	str	r3, [r1, #4]
 8006be0:	3401      	adds	r4, #1
 8006be2:	6099      	str	r1, [r3, #8]
 8006be4:	6051      	str	r1, [r2, #4]
 8006be6:	608a      	str	r2, [r1, #8]
 8006be8:	6108      	str	r0, [r1, #16]
 8006bea:	6004      	str	r4, [r0, #0]
 8006bec:	bc30      	pop	{r4, r5}
 8006bee:	4770      	bx	lr
 8006bf0:	6902      	ldr	r2, [r0, #16]
 8006bf2:	6853      	ldr	r3, [r2, #4]
 8006bf4:	e7f2      	b.n	8006bdc <vListInsert+0x18>
 8006bf6:	bf00      	nop

08006bf8 <uxListRemove>:
 8006bf8:	6842      	ldr	r2, [r0, #4]
 8006bfa:	6881      	ldr	r1, [r0, #8]
 8006bfc:	6903      	ldr	r3, [r0, #16]
 8006bfe:	b410      	push	{r4}
 8006c00:	6091      	str	r1, [r2, #8]
 8006c02:	6881      	ldr	r1, [r0, #8]
 8006c04:	685c      	ldr	r4, [r3, #4]
 8006c06:	604a      	str	r2, [r1, #4]
 8006c08:	681a      	ldr	r2, [r3, #0]
 8006c0a:	4284      	cmp	r4, r0
 8006c0c:	bf08      	it	eq
 8006c0e:	6059      	streq	r1, [r3, #4]
 8006c10:	3a01      	subs	r2, #1
 8006c12:	2100      	movs	r1, #0
 8006c14:	6101      	str	r1, [r0, #16]
 8006c16:	4610      	mov	r0, r2
 8006c18:	601a      	str	r2, [r3, #0]
 8006c1a:	bc10      	pop	{r4}
 8006c1c:	4770      	bx	lr
 8006c1e:	bf00      	nop

08006c20 <prvSwitchTimerLists>:
 8006c20:	e92d 47f0 	stmdb	sp!, {r4, r5, r6, r7, r8, r9, sl, lr}
 8006c24:	4d1f      	ldr	r5, [pc, #124]	; (8006ca4 <prvSwitchTimerLists+0x84>)
 8006c26:	4e20      	ldr	r6, [pc, #128]	; (8006ca8 <prvSwitchTimerLists+0x88>)
 8006c28:	b084      	sub	sp, #16
 8006c2a:	46a8      	mov	r8, r5
 8006c2c:	f04f 0a00 	mov.w	sl, #0
 8006c30:	e00d      	b.n	8006c4e <prvSwitchTimerLists+0x2e>
 8006c32:	68df      	ldr	r7, [r3, #12]
 8006c34:	68fc      	ldr	r4, [r7, #12]
 8006c36:	683f      	ldr	r7, [r7, #0]
 8006c38:	f104 0904 	add.w	r9, r4, #4
 8006c3c:	4648      	mov	r0, r9
 8006c3e:	f7ff ffdb 	bl	8006bf8 <uxListRemove>
 8006c42:	4620      	mov	r0, r4
 8006c44:	6a62      	ldr	r2, [r4, #36]	; 0x24
 8006c46:	4790      	blx	r2
 8006c48:	69e0      	ldr	r0, [r4, #28]
 8006c4a:	2801      	cmp	r0, #1
 8006c4c:	d00b      	beq.n	8006c66 <prvSwitchTimerLists+0x46>
 8006c4e:	682b      	ldr	r3, [r5, #0]
 8006c50:	681a      	ldr	r2, [r3, #0]
 8006c52:	2a00      	cmp	r2, #0
 8006c54:	d1ed      	bne.n	8006c32 <prvSwitchTimerLists+0x12>
 8006c56:	4815      	ldr	r0, [pc, #84]	; (8006cac <prvSwitchTimerLists+0x8c>)
 8006c58:	6801      	ldr	r1, [r0, #0]
 8006c5a:	6003      	str	r3, [r0, #0]
 8006c5c:	4b11      	ldr	r3, [pc, #68]	; (8006ca4 <prvSwitchTimerLists+0x84>)
 8006c5e:	6019      	str	r1, [r3, #0]
 8006c60:	b004      	add	sp, #16
 8006c62:	e8bd 87f0 	ldmia.w	sp!, {r4, r5, r6, r7, r8, r9, sl, pc}
 8006c66:	69a1      	ldr	r1, [r4, #24]
 8006c68:	187b      	adds	r3, r7, r1
 8006c6a:	42bb      	cmp	r3, r7
 8006c6c:	d812      	bhi.n	8006c94 <prvSwitchTimerLists+0x74>
 8006c6e:	6832      	ldr	r2, [r6, #0]
 8006c70:	b16a      	cbz	r2, 8006c8e <prvSwitchTimerLists+0x6e>
 8006c72:	f8cd a004 	str.w	sl, [sp, #4]
 8006c76:	9702      	str	r7, [sp, #8]
 8006c78:	9403      	str	r4, [sp, #12]
 8006c7a:	f7ff fa93 	bl	80061a4 <xTaskGetSchedulerState>
 8006c7e:	2200      	movs	r2, #0
 8006c80:	6830      	ldr	r0, [r6, #0]
 8006c82:	a901      	add	r1, sp, #4
 8006c84:	4613      	mov	r3, r2
 8006c86:	f7ff fbcb 	bl	8006420 <xQueueGenericSend>
 8006c8a:	2800      	cmp	r0, #0
 8006c8c:	d1df      	bne.n	8006c4e <prvSwitchTimerLists+0x2e>
 8006c8e:	f000 fa7d 	bl	800718c <ulPortSetInterruptMask>
 8006c92:	e7fe      	b.n	8006c92 <prvSwitchTimerLists+0x72>
 8006c94:	6063      	str	r3, [r4, #4]
 8006c96:	6124      	str	r4, [r4, #16]
 8006c98:	f8d8 0000 	ldr.w	r0, [r8]
 8006c9c:	4649      	mov	r1, r9
 8006c9e:	f7ff ff91 	bl	8006bc4 <vListInsert>
 8006ca2:	e7d4      	b.n	8006c4e <prvSwitchTimerLists+0x2e>
 8006ca4:	10000dac 	.word	0x10000dac
 8006ca8:	10000ddc 	.word	0x10000ddc
 8006cac:	10000de0 	.word	0x10000de0

08006cb0 <prvTimerTask>:
 8006cb0:	e92d 4ff0 	stmdb	sp!, {r4, r5, r6, r7, r8, r9, sl, fp, lr}
 8006cb4:	4d83      	ldr	r5, [pc, #524]	; (8006ec4 <prvTimerTask+0x214>)
 8006cb6:	4e84      	ldr	r6, [pc, #528]	; (8006ec8 <prvTimerTask+0x218>)
 8006cb8:	4c84      	ldr	r4, [pc, #528]	; (8006ecc <prvTimerTask+0x21c>)
 8006cba:	b08d      	sub	sp, #52	; 0x34
 8006cbc:	462f      	mov	r7, r5
 8006cbe:	f04f 0901 	mov.w	r9, #1
 8006cc2:	6833      	ldr	r3, [r6, #0]
 8006cc4:	681a      	ldr	r2, [r3, #0]
 8006cc6:	f1d2 0a01 	rsbs	sl, r2, #1
 8006cca:	bf38      	it	cc
 8006ccc:	f04f 0a00 	movcc.w	sl, #0
 8006cd0:	f1ba 0f00 	cmp.w	sl, #0
 8006cd4:	d147      	bne.n	8006d66 <prvTimerTask+0xb6>
 8006cd6:	68d8      	ldr	r0, [r3, #12]
 8006cd8:	f8d0 b000 	ldr.w	fp, [r0]
 8006cdc:	f7fe ff20 	bl	8005b20 <vTaskSuspendAll>
 8006ce0:	f7fe ff26 	bl	8005b30 <xTaskGetTickCount>
 8006ce4:	6829      	ldr	r1, [r5, #0]
 8006ce6:	4288      	cmp	r0, r1
 8006ce8:	4680      	mov	r8, r0
 8006cea:	f0c0 8086 	bcc.w	8006dfa <prvTimerTask+0x14a>
 8006cee:	6038      	str	r0, [r7, #0]
 8006cf0:	f1ba 0f00 	cmp.w	sl, #0
 8006cf4:	d102      	bne.n	8006cfc <prvTimerTask+0x4c>
 8006cf6:	45c3      	cmp	fp, r8
 8006cf8:	f240 8098 	bls.w	8006e2c <prvTimerTask+0x17c>
 8006cfc:	6820      	ldr	r0, [r4, #0]
 8006cfe:	ebc8 010b 	rsb	r1, r8, fp
 8006d02:	f7ff fee7 	bl	8006ad4 <vQueueWaitForMessageRestricted>
 8006d06:	f7fe ffd3 	bl	8005cb0 <xTaskResumeAll>
 8006d0a:	2800      	cmp	r0, #0
 8006d0c:	f000 808b 	beq.w	8006e26 <prvTimerTask+0x176>
 8006d10:	2200      	movs	r2, #0
 8006d12:	6820      	ldr	r0, [r4, #0]
 8006d14:	a906      	add	r1, sp, #24
 8006d16:	4613      	mov	r3, r2
 8006d18:	f7ff fd4e 	bl	80067b8 <xQueueGenericReceive>
 8006d1c:	2800      	cmp	r0, #0
 8006d1e:	d0d0      	beq.n	8006cc2 <prvTimerTask+0x12>
 8006d20:	9906      	ldr	r1, [sp, #24]
 8006d22:	2900      	cmp	r1, #0
 8006d24:	dbf4      	blt.n	8006d10 <prvTimerTask+0x60>
 8006d26:	f8dd a020 	ldr.w	sl, [sp, #32]
 8006d2a:	f8da 0014 	ldr.w	r0, [sl, #20]
 8006d2e:	b118      	cbz	r0, 8006d38 <prvTimerTask+0x88>
 8006d30:	f10a 0004 	add.w	r0, sl, #4
 8006d34:	f7ff ff60 	bl	8006bf8 <uxListRemove>
 8006d38:	f7fe fefa 	bl	8005b30 <xTaskGetTickCount>
 8006d3c:	682b      	ldr	r3, [r5, #0]
 8006d3e:	4298      	cmp	r0, r3
 8006d40:	d362      	bcc.n	8006e08 <prvTimerTask+0x158>
 8006d42:	9a06      	ldr	r2, [sp, #24]
 8006d44:	6028      	str	r0, [r5, #0]
 8006d46:	2a09      	cmp	r2, #9
 8006d48:	d8e2      	bhi.n	8006d10 <prvTimerTask+0x60>
 8006d4a:	fa09 f102 	lsl.w	r1, r9, r2
 8006d4e:	f411 7f04 	tst.w	r1, #528	; 0x210
 8006d52:	d13c      	bne.n	8006dce <prvTimerTask+0x11e>
 8006d54:	f011 0fc7 	tst.w	r1, #199	; 0xc7
 8006d58:	d108      	bne.n	8006d6c <prvTimerTask+0xbc>
 8006d5a:	068b      	lsls	r3, r1, #26
 8006d5c:	d5d8      	bpl.n	8006d10 <prvTimerTask+0x60>
 8006d5e:	4650      	mov	r0, sl
 8006d60:	f000 fb40 	bl	80073e4 <vPortFree>
 8006d64:	e7d4      	b.n	8006d10 <prvTimerTask+0x60>
 8006d66:	f04f 0b00 	mov.w	fp, #0
 8006d6a:	e7b7      	b.n	8006cdc <prvTimerTask+0x2c>
 8006d6c:	9a07      	ldr	r2, [sp, #28]
 8006d6e:	f8da 1018 	ldr.w	r1, [sl, #24]
 8006d72:	f8ca a010 	str.w	sl, [sl, #16]
 8006d76:	188b      	adds	r3, r1, r2
 8006d78:	4283      	cmp	r3, r0
 8006d7a:	f8ca 3004 	str.w	r3, [sl, #4]
 8006d7e:	d848      	bhi.n	8006e12 <prvTimerTask+0x162>
 8006d80:	1a80      	subs	r0, r0, r2
 8006d82:	4281      	cmp	r1, r0
 8006d84:	d82f      	bhi.n	8006de6 <prvTimerTask+0x136>
 8006d86:	f8da 2024 	ldr.w	r2, [sl, #36]	; 0x24
 8006d8a:	4650      	mov	r0, sl
 8006d8c:	4790      	blx	r2
 8006d8e:	f8da 101c 	ldr.w	r1, [sl, #28]
 8006d92:	2901      	cmp	r1, #1
 8006d94:	d1bc      	bne.n	8006d10 <prvTimerTask+0x60>
 8006d96:	f8da 0018 	ldr.w	r0, [sl, #24]
 8006d9a:	9a07      	ldr	r2, [sp, #28]
 8006d9c:	6823      	ldr	r3, [r4, #0]
 8006d9e:	1881      	adds	r1, r0, r2
 8006da0:	b193      	cbz	r3, 8006dc8 <prvTimerTask+0x118>
 8006da2:	2000      	movs	r0, #0
 8006da4:	910a      	str	r1, [sp, #40]	; 0x28
 8006da6:	9009      	str	r0, [sp, #36]	; 0x24
 8006da8:	f8cd a02c 	str.w	sl, [sp, #44]	; 0x2c
 8006dac:	f7ff f9fa 	bl	80061a4 <xTaskGetSchedulerState>
 8006db0:	f640 53dc 	movw	r3, #3548	; 0xddc
 8006db4:	f2c1 0300 	movt	r3, #4096	; 0x1000
 8006db8:	2200      	movs	r2, #0
 8006dba:	6818      	ldr	r0, [r3, #0]
 8006dbc:	a909      	add	r1, sp, #36	; 0x24
 8006dbe:	4613      	mov	r3, r2
 8006dc0:	f7ff fb2e 	bl	8006420 <xQueueGenericSend>
 8006dc4:	2800      	cmp	r0, #0
 8006dc6:	d1a3      	bne.n	8006d10 <prvTimerTask+0x60>
 8006dc8:	f000 f9e0 	bl	800718c <ulPortSetInterruptMask>
 8006dcc:	e7fe      	b.n	8006dcc <prvTimerTask+0x11c>
 8006dce:	9a07      	ldr	r2, [sp, #28]
 8006dd0:	f8ca 2018 	str.w	r2, [sl, #24]
 8006dd4:	2a00      	cmp	r2, #0
 8006dd6:	d06a      	beq.n	8006eae <prvTimerTask+0x1fe>
 8006dd8:	1881      	adds	r1, r0, r2
 8006dda:	4288      	cmp	r0, r1
 8006ddc:	f8ca 1004 	str.w	r1, [sl, #4]
 8006de0:	f8ca a010 	str.w	sl, [sl, #16]
 8006de4:	d319      	bcc.n	8006e1a <prvTimerTask+0x16a>
 8006de6:	f640 50e0 	movw	r0, #3552	; 0xde0
 8006dea:	f2c1 0000 	movt	r0, #4096	; 0x1000
 8006dee:	f10a 0104 	add.w	r1, sl, #4
 8006df2:	6800      	ldr	r0, [r0, #0]
 8006df4:	f7ff fee6 	bl	8006bc4 <vListInsert>
 8006df8:	e78a      	b.n	8006d10 <prvTimerTask+0x60>
 8006dfa:	f7ff ff11 	bl	8006c20 <prvSwitchTimerLists>
 8006dfe:	f8c7 8000 	str.w	r8, [r7]
 8006e02:	f7fe ff55 	bl	8005cb0 <xTaskResumeAll>
 8006e06:	e783      	b.n	8006d10 <prvTimerTask+0x60>
 8006e08:	9000      	str	r0, [sp, #0]
 8006e0a:	f7ff ff09 	bl	8006c20 <prvSwitchTimerLists>
 8006e0e:	9800      	ldr	r0, [sp, #0]
 8006e10:	e797      	b.n	8006d42 <prvTimerTask+0x92>
 8006e12:	4282      	cmp	r2, r0
 8006e14:	d901      	bls.n	8006e1a <prvTimerTask+0x16a>
 8006e16:	429a      	cmp	r2, r3
 8006e18:	d9b5      	bls.n	8006d86 <prvTimerTask+0xd6>
 8006e1a:	6830      	ldr	r0, [r6, #0]
 8006e1c:	f10a 0104 	add.w	r1, sl, #4
 8006e20:	f7ff fed0 	bl	8006bc4 <vListInsert>
 8006e24:	e774      	b.n	8006d10 <prvTimerTask+0x60>
 8006e26:	f000 f9a5 	bl	8007174 <vPortYield>
 8006e2a:	e771      	b.n	8006d10 <prvTimerTask+0x60>
 8006e2c:	f7fe ff40 	bl	8005cb0 <xTaskResumeAll>
 8006e30:	6833      	ldr	r3, [r6, #0]
 8006e32:	68da      	ldr	r2, [r3, #12]
 8006e34:	68d0      	ldr	r0, [r2, #12]
 8006e36:	1d03      	adds	r3, r0, #4
 8006e38:	9001      	str	r0, [sp, #4]
 8006e3a:	4618      	mov	r0, r3
 8006e3c:	9300      	str	r3, [sp, #0]
 8006e3e:	f7ff fedb 	bl	8006bf8 <uxListRemove>
 8006e42:	9801      	ldr	r0, [sp, #4]
 8006e44:	9900      	ldr	r1, [sp, #0]
 8006e46:	69c2      	ldr	r2, [r0, #28]
 8006e48:	2a01      	cmp	r2, #1
 8006e4a:	d003      	beq.n	8006e54 <prvTimerTask+0x1a4>
 8006e4c:	9801      	ldr	r0, [sp, #4]
 8006e4e:	6a42      	ldr	r2, [r0, #36]	; 0x24
 8006e50:	4790      	blx	r2
 8006e52:	e75d      	b.n	8006d10 <prvTimerTask+0x60>
 8006e54:	6982      	ldr	r2, [r0, #24]
 8006e56:	6100      	str	r0, [r0, #16]
 8006e58:	4603      	mov	r3, r0
 8006e5a:	eb0b 0002 	add.w	r0, fp, r2
 8006e5e:	4580      	cmp	r8, r0
 8006e60:	6058      	str	r0, [r3, #4]
 8006e62:	d207      	bcs.n	8006e74 <prvTimerTask+0x1c4>
 8006e64:	f640 53ac 	movw	r3, #3500	; 0xdac
 8006e68:	f2c1 0300 	movt	r3, #4096	; 0x1000
 8006e6c:	6818      	ldr	r0, [r3, #0]
 8006e6e:	f7ff fea9 	bl	8006bc4 <vListInsert>
 8006e72:	e7eb      	b.n	8006e4c <prvTimerTask+0x19c>
 8006e74:	ebcb 0c08 	rsb	ip, fp, r8
 8006e78:	4562      	cmp	r2, ip
 8006e7a:	d81b      	bhi.n	8006eb4 <prvTimerTask+0x204>
 8006e7c:	6821      	ldr	r1, [r4, #0]
 8006e7e:	b199      	cbz	r1, 8006ea8 <prvTimerTask+0x1f8>
 8006e80:	9801      	ldr	r0, [sp, #4]
 8006e82:	f8cd a00c 	str.w	sl, [sp, #12]
 8006e86:	f8cd b010 	str.w	fp, [sp, #16]
 8006e8a:	9005      	str	r0, [sp, #20]
 8006e8c:	f7ff f98a 	bl	80061a4 <xTaskGetSchedulerState>
 8006e90:	f640 53dc 	movw	r3, #3548	; 0xddc
 8006e94:	f2c1 0300 	movt	r3, #4096	; 0x1000
 8006e98:	4652      	mov	r2, sl
 8006e9a:	6818      	ldr	r0, [r3, #0]
 8006e9c:	a903      	add	r1, sp, #12
 8006e9e:	4653      	mov	r3, sl
 8006ea0:	f7ff fabe 	bl	8006420 <xQueueGenericSend>
 8006ea4:	2800      	cmp	r0, #0
 8006ea6:	d1d1      	bne.n	8006e4c <prvTimerTask+0x19c>
 8006ea8:	f000 f970 	bl	800718c <ulPortSetInterruptMask>
 8006eac:	e7fe      	b.n	8006eac <prvTimerTask+0x1fc>
 8006eae:	f000 f96d 	bl	800718c <ulPortSetInterruptMask>
 8006eb2:	e7fe      	b.n	8006eb2 <prvTimerTask+0x202>
 8006eb4:	f640 52e0 	movw	r2, #3552	; 0xde0
 8006eb8:	f2c1 0200 	movt	r2, #4096	; 0x1000
 8006ebc:	6810      	ldr	r0, [r2, #0]
 8006ebe:	f7ff fe81 	bl	8006bc4 <vListInsert>
 8006ec2:	e7c3      	b.n	8006e4c <prvTimerTask+0x19c>
 8006ec4:	10000dd8 	.word	0x10000dd8
 8006ec8:	10000dac 	.word	0x10000dac
 8006ecc:	10000ddc 	.word	0x10000ddc

08006ed0 <xTimerCreateTimerTask>:
 8006ed0:	b5f0      	push	{r4, r5, r6, r7, lr}
 8006ed2:	4c1d      	ldr	r4, [pc, #116]	; (8006f48 <xTimerCreateTimerTask+0x78>)
 8006ed4:	b085      	sub	sp, #20
 8006ed6:	f000 f961 	bl	800719c <vPortEnterCritical>
 8006eda:	6826      	ldr	r6, [r4, #0]
 8006edc:	b19e      	cbz	r6, 8006f06 <xTimerCreateTimerTask+0x36>
 8006ede:	f000 f989 	bl	80071f4 <vPortExitCritical>
 8006ee2:	6820      	ldr	r0, [r4, #0]
 8006ee4:	2800      	cmp	r0, #0
 8006ee6:	d029      	beq.n	8006f3c <xTimerCreateTimerTask+0x6c>
 8006ee8:	2300      	movs	r3, #0
 8006eea:	2202      	movs	r2, #2
 8006eec:	e88d 000c 	stmia.w	sp, {r2, r3}
 8006ef0:	9302      	str	r3, [sp, #8]
 8006ef2:	9303      	str	r3, [sp, #12]
 8006ef4:	4815      	ldr	r0, [pc, #84]	; (8006f4c <xTimerCreateTimerTask+0x7c>)
 8006ef6:	4916      	ldr	r1, [pc, #88]	; (8006f50 <xTimerCreateTimerTask+0x80>)
 8006ef8:	f44f 7282 	mov.w	r2, #260	; 0x104
 8006efc:	f7fe fcc8 	bl	8005890 <xTaskGenericCreate>
 8006f00:	b1e0      	cbz	r0, 8006f3c <xTimerCreateTimerTask+0x6c>
 8006f02:	b005      	add	sp, #20
 8006f04:	bdf0      	pop	{r4, r5, r6, r7, pc}
 8006f06:	4f13      	ldr	r7, [pc, #76]	; (8006f54 <xTimerCreateTimerTask+0x84>)
 8006f08:	4d13      	ldr	r5, [pc, #76]	; (8006f58 <xTimerCreateTimerTask+0x88>)
 8006f0a:	4638      	mov	r0, r7
 8006f0c:	f7ff fe3c 	bl	8006b88 <vListInitialise>
 8006f10:	4628      	mov	r0, r5
 8006f12:	f7ff fe39 	bl	8006b88 <vListInitialise>
 8006f16:	4b11      	ldr	r3, [pc, #68]	; (8006f5c <xTimerCreateTimerTask+0x8c>)
 8006f18:	601f      	str	r7, [r3, #0]
 8006f1a:	4b11      	ldr	r3, [pc, #68]	; (8006f60 <xTimerCreateTimerTask+0x90>)
 8006f1c:	200a      	movs	r0, #10
 8006f1e:	210c      	movs	r1, #12
 8006f20:	4632      	mov	r2, r6
 8006f22:	601d      	str	r5, [r3, #0]
 8006f24:	f7ff fa40 	bl	80063a8 <xQueueGenericCreate>
 8006f28:	6020      	str	r0, [r4, #0]
 8006f2a:	b150      	cbz	r0, 8006f42 <xTimerCreateTimerTask+0x72>
 8006f2c:	490d      	ldr	r1, [pc, #52]	; (8006f64 <xTimerCreateTimerTask+0x94>)
 8006f2e:	f7ff fda7 	bl	8006a80 <vQueueAddToRegistry>
 8006f32:	f000 f95f 	bl	80071f4 <vPortExitCritical>
 8006f36:	6820      	ldr	r0, [r4, #0]
 8006f38:	2800      	cmp	r0, #0
 8006f3a:	d1d5      	bne.n	8006ee8 <xTimerCreateTimerTask+0x18>
 8006f3c:	f000 f926 	bl	800718c <ulPortSetInterruptMask>
 8006f40:	e7fe      	b.n	8006f40 <xTimerCreateTimerTask+0x70>
 8006f42:	f000 f923 	bl	800718c <ulPortSetInterruptMask>
 8006f46:	e7fe      	b.n	8006f46 <xTimerCreateTimerTask+0x76>
 8006f48:	10000ddc 	.word	0x10000ddc
 8006f4c:	08006cb1 	.word	0x08006cb1
 8006f50:	0800f948 	.word	0x0800f948
 8006f54:	10000db0 	.word	0x10000db0
 8006f58:	10000dc4 	.word	0x10000dc4
 8006f5c:	10000dac 	.word	0x10000dac
 8006f60:	10000de0 	.word	0x10000de0
 8006f64:	0800f940 	.word	0x0800f940

08006f68 <Reset_Handler>:
 8006f68:	2100      	movs	r1, #0
 8006f6a:	f000 b804 	b.w	8006f76 <LoopCopyDataInit>

08006f6e <CopyDataInit>:
 8006f6e:	4b0d      	ldr	r3, [pc, #52]	; (8006fa4 <LoopFillZerobss+0x16>)
 8006f70:	585b      	ldr	r3, [r3, r1]
 8006f72:	5043      	str	r3, [r0, r1]
 8006f74:	3104      	adds	r1, #4

08006f76 <LoopCopyDataInit>:
 8006f76:	480c      	ldr	r0, [pc, #48]	; (8006fa8 <LoopFillZerobss+0x1a>)
 8006f78:	4b0c      	ldr	r3, [pc, #48]	; (8006fac <LoopFillZerobss+0x1e>)
 8006f7a:	1842      	adds	r2, r0, r1
 8006f7c:	429a      	cmp	r2, r3
 8006f7e:	f4ff aff6 	bcc.w	8006f6e <CopyDataInit>
 8006f82:	4a0b      	ldr	r2, [pc, #44]	; (8006fb0 <LoopFillZerobss+0x22>)
 8006f84:	f000 b803 	b.w	8006f8e <LoopFillZerobss>

08006f88 <FillZerobss>:
 8006f88:	2300      	movs	r3, #0
 8006f8a:	f842 3b04 	str.w	r3, [r2], #4

08006f8e <LoopFillZerobss>:
 8006f8e:	4b09      	ldr	r3, [pc, #36]	; (8006fb4 <LoopFillZerobss+0x26>)
 8006f90:	429a      	cmp	r2, r3
 8006f92:	f4ff aff9 	bcc.w	8006f88 <FillZerobss>
 8006f96:	f000 f811 	bl	8006fbc <SystemInit>
 8006f9a:	f000 fa47 	bl	800742c <__libc_init_array>
 8006f9e:	f7fe f9a3 	bl	80052e8 <main>
 8006fa2:	4770      	bx	lr
 8006fa4:	0800fedc 	.word	0x0800fedc
 8006fa8:	10000000 	.word	0x10000000
 8006fac:	10000a24 	.word	0x10000a24
 8006fb0:	10000a28 	.word	0x10000a28
 8006fb4:	10000e64 	.word	0x10000e64

08006fb8 <ADC_IRQHandler>:
 8006fb8:	f7ff bffe 	b.w	8006fb8 <ADC_IRQHandler>

08006fbc <SystemInit>:
 8006fbc:	f44f 426d 	mov.w	r2, #60672	; 0xed00
 8006fc0:	f2ce 0200 	movt	r2, #57344	; 0xe000
 8006fc4:	f64e 7330 	movw	r3, #61232	; 0xef30
 8006fc8:	f8d2 1088 	ldr.w	r1, [r2, #136]	; 0x88
 8006fcc:	f2ce 0300 	movt	r3, #57344	; 0xe000
 8006fd0:	f441 0070 	orr.w	r0, r1, #15728640	; 0xf00000
 8006fd4:	f8c2 0088 	str.w	r0, [r2, #136]	; 0x88
 8006fd8:	685a      	ldr	r2, [r3, #4]
 8006fda:	f022 4140 	bic.w	r1, r2, #3221225472	; 0xc0000000
 8006fde:	b082      	sub	sp, #8
 8006fe0:	6059      	str	r1, [r3, #4]
 8006fe2:	f3ef 8314 	mrs	r3, CONTROL
 8006fe6:	f023 0004 	bic.w	r0, r3, #4
 8006fea:	f380 8814 	msr	CONTROL, r0
 8006fee:	f44f 5360 	mov.w	r3, #14336	; 0x3800
 8006ff2:	f2c4 0302 	movt	r3, #16386	; 0x4002
 8006ff6:	2200      	movs	r2, #0
 8006ff8:	6819      	ldr	r1, [r3, #0]
 8006ffa:	f041 0001 	orr.w	r0, r1, #1
 8006ffe:	6018      	str	r0, [r3, #0]
 8007000:	609a      	str	r2, [r3, #8]
 8007002:	6818      	ldr	r0, [r3, #0]
 8007004:	f243 0110 	movw	r1, #12304	; 0x3010
 8007008:	f020 7084 	bic.w	r0, r0, #17301504	; 0x1080000
 800700c:	f420 3080 	bic.w	r0, r0, #65536	; 0x10000
 8007010:	f2c2 4100 	movt	r1, #9216	; 0x2400
 8007014:	6018      	str	r0, [r3, #0]
 8007016:	6059      	str	r1, [r3, #4]
 8007018:	6819      	ldr	r1, [r3, #0]
 800701a:	f421 2080 	bic.w	r0, r1, #262144	; 0x40000
 800701e:	6018      	str	r0, [r3, #0]
 8007020:	60da      	str	r2, [r3, #12]
 8007022:	9200      	str	r2, [sp, #0]
 8007024:	9201      	str	r2, [sp, #4]
 8007026:	681a      	ldr	r2, [r3, #0]
 8007028:	f442 3180 	orr.w	r1, r2, #65536	; 0x10000
 800702c:	6019      	str	r1, [r3, #0]
 800702e:	6818      	ldr	r0, [r3, #0]
 8007030:	f400 3200 	and.w	r2, r0, #131072	; 0x20000
 8007034:	9201      	str	r2, [sp, #4]
 8007036:	9900      	ldr	r1, [sp, #0]
 8007038:	1c48      	adds	r0, r1, #1
 800703a:	9000      	str	r0, [sp, #0]
 800703c:	9a01      	ldr	r2, [sp, #4]
 800703e:	b91a      	cbnz	r2, 8007048 <SystemInit+0x8c>
 8007040:	9900      	ldr	r1, [sp, #0]
 8007042:	f5b1 6fa0 	cmp.w	r1, #1280	; 0x500
 8007046:	d1f2      	bne.n	800702e <SystemInit+0x72>
 8007048:	f44f 5360 	mov.w	r3, #14336	; 0x3800
 800704c:	f2c4 0302 	movt	r3, #16386	; 0x4002
 8007050:	6818      	ldr	r0, [r3, #0]
 8007052:	f410 3200 	ands.w	r2, r0, #131072	; 0x20000
 8007056:	d005      	beq.n	8007064 <SystemInit+0xa8>
 8007058:	2101      	movs	r1, #1
 800705a:	9101      	str	r1, [sp, #4]
 800705c:	9b01      	ldr	r3, [sp, #4]
 800705e:	2b01      	cmp	r3, #1
 8007060:	d004      	beq.n	800706c <SystemInit+0xb0>
 8007062:	e7fe      	b.n	8007062 <SystemInit+0xa6>
 8007064:	9201      	str	r2, [sp, #4]
 8007066:	9b01      	ldr	r3, [sp, #4]
 8007068:	2b01      	cmp	r3, #1
 800706a:	d1fa      	bne.n	8007062 <SystemInit+0xa6>
 800706c:	f44f 5060 	mov.w	r0, #14336	; 0x3800
 8007070:	f2c4 0002 	movt	r0, #16386	; 0x4002
 8007074:	f44f 42e0 	mov.w	r2, #28672	; 0x7000
 8007078:	6c01      	ldr	r1, [r0, #64]	; 0x40
 800707a:	f2c4 0200 	movt	r2, #16384	; 0x4000
 800707e:	f041 5380 	orr.w	r3, r1, #268435456	; 0x10000000
 8007082:	6403      	str	r3, [r0, #64]	; 0x40
 8007084:	6811      	ldr	r1, [r2, #0]
 8007086:	f441 4380 	orr.w	r3, r1, #16384	; 0x4000
 800708a:	6013      	str	r3, [r2, #0]
 800708c:	6882      	ldr	r2, [r0, #8]
 800708e:	6082      	str	r2, [r0, #8]
 8007090:	6881      	ldr	r1, [r0, #8]
 8007092:	f441 4300 	orr.w	r3, r1, #32768	; 0x8000
 8007096:	6083      	str	r3, [r0, #8]
 8007098:	6881      	ldr	r1, [r0, #8]
 800709a:	f642 2204 	movw	r2, #10756	; 0x2a04
 800709e:	f441 53a0 	orr.w	r3, r1, #5120	; 0x1400
 80070a2:	f2c0 7240 	movt	r2, #1856	; 0x740
 80070a6:	6083      	str	r3, [r0, #8]
 80070a8:	6042      	str	r2, [r0, #4]
 80070aa:	6801      	ldr	r1, [r0, #0]
 80070ac:	f041 7280 	orr.w	r2, r1, #16777216	; 0x1000000
 80070b0:	6002      	str	r2, [r0, #0]
 80070b2:	6803      	ldr	r3, [r0, #0]
 80070b4:	f44f 5260 	mov.w	r2, #14336	; 0x3800
 80070b8:	0199      	lsls	r1, r3, #6
 80070ba:	f2c4 0202 	movt	r2, #16386	; 0x4002
 80070be:	d5f8      	bpl.n	80070b2 <SystemInit+0xf6>
 80070c0:	f44f 5070 	mov.w	r0, #15360	; 0x3c00
 80070c4:	f2c4 0002 	movt	r0, #16386	; 0x4002
 80070c8:	f240 6105 	movw	r1, #1541	; 0x605
 80070cc:	6001      	str	r1, [r0, #0]
 80070ce:	6893      	ldr	r3, [r2, #8]
 80070d0:	f023 0003 	bic.w	r0, r3, #3
 80070d4:	6090      	str	r0, [r2, #8]
 80070d6:	6891      	ldr	r1, [r2, #8]
 80070d8:	f041 0302 	orr.w	r3, r1, #2
 80070dc:	6093      	str	r3, [r2, #8]
 80070de:	6890      	ldr	r0, [r2, #8]
 80070e0:	f000 010c 	and.w	r1, r0, #12
 80070e4:	2908      	cmp	r1, #8
 80070e6:	d1fa      	bne.n	80070de <SystemInit+0x122>
 80070e8:	f44f 436d 	mov.w	r3, #60672	; 0xed00
 80070ec:	f2ce 0300 	movt	r3, #57344	; 0xe000
 80070f0:	f04f 6200 	mov.w	r2, #134217728	; 0x8000000
 80070f4:	609a      	str	r2, [r3, #8]
 80070f6:	b002      	add	sp, #8
 80070f8:	4770      	bx	lr
 80070fa:	bf00      	nop

080070fc <prvPortStartFirstTask>:
 80070fc:	4806      	ldr	r0, [pc, #24]	; (8007118 <prvPortStartFirstTask+0x1c>)
 80070fe:	6800      	ldr	r0, [r0, #0]
 8007100:	6800      	ldr	r0, [r0, #0]
 8007102:	f380 8808 	msr	MSP, r0
 8007106:	b662      	cpsie	i
 8007108:	b661      	cpsie	f
 800710a:	f3bf 8f4f 	dsb	sy
 800710e:	f3bf 8f6f 	isb	sy
 8007112:	df00      	svc	0
 8007114:	bf00      	nop
 8007116:	0000      	.short	0x0000
 8007118:	e000ed08 	.word	0xe000ed08

0800711c <vPortEnableVFP>:
 800711c:	f8df 000c 	ldr.w	r0, [pc, #12]	; 800712c <vPortEnableVFP+0x10>
 8007120:	6801      	ldr	r1, [r0, #0]
 8007122:	f441 0170 	orr.w	r1, r1, #15728640	; 0xf00000
 8007126:	6001      	str	r1, [r0, #0]
 8007128:	4770      	bx	lr
 800712a:	0000      	.short	0x0000
 800712c:	e000ed88 	.word	0xe000ed88

08007130 <pxPortInitialiseStack>:
 8007130:	f04f 7380 	mov.w	r3, #16777216	; 0x1000000
 8007134:	e900 000a 	stmdb	r0, {r1, r3}
 8007138:	f247 13d1 	movw	r3, #29137	; 0x71d1
 800713c:	f6c0 0300 	movt	r3, #2048	; 0x800
 8007140:	f06f 0102 	mvn.w	r1, #2
 8007144:	f840 3c0c 	str.w	r3, [r0, #-12]
 8007148:	f840 2c20 	str.w	r2, [r0, #-32]
 800714c:	f840 1c24 	str.w	r1, [r0, #-36]
 8007150:	3844      	subs	r0, #68	; 0x44
 8007152:	4770      	bx	lr

08007154 <SVC_Handler>:
 8007154:	4b06      	ldr	r3, [pc, #24]	; (8007170 <pxCurrentTCBConst2>)
 8007156:	6819      	ldr	r1, [r3, #0]
 8007158:	6808      	ldr	r0, [r1, #0]
 800715a:	e8b0 4ff0 	ldmia.w	r0!, {r4, r5, r6, r7, r8, r9, sl, fp, lr}
 800715e:	f380 8809 	msr	PSP, r0
 8007162:	f3bf 8f6f 	isb	sy
 8007166:	f04f 0000 	mov.w	r0, #0
 800716a:	f380 8811 	msr	BASEPRI, r0
 800716e:	4770      	bx	lr

08007170 <pxCurrentTCBConst2>:
 8007170:	10000d4c 	.word	0x10000d4c

08007174 <vPortYield>:
 8007174:	f64e 5304 	movw	r3, #60676	; 0xed04
 8007178:	f2ce 0300 	movt	r3, #57344	; 0xe000
 800717c:	f04f 5280 	mov.w	r2, #268435456	; 0x10000000
 8007180:	601a      	str	r2, [r3, #0]
 8007182:	f3bf 8f4f 	dsb	sy
 8007186:	f3bf 8f6f 	isb	sy
 800718a:	4770      	bx	lr

0800718c <ulPortSetInterruptMask>:
 800718c:	f3ef 8011 	mrs	r0, BASEPRI
 8007190:	f04f 0150 	mov.w	r1, #80	; 0x50
 8007194:	f381 8811 	msr	BASEPRI, r1
 8007198:	4770      	bx	lr
 800719a:	2000      	movs	r0, #0

0800719c <vPortEnterCritical>:
 800719c:	b508      	push	{r3, lr}
 800719e:	f7ff fff5 	bl	800718c <ulPortSetInterruptMask>
 80071a2:	4a0a      	ldr	r2, [pc, #40]	; (80071cc <vPortEnterCritical+0x30>)
 80071a4:	6813      	ldr	r3, [r2, #0]
 80071a6:	1c58      	adds	r0, r3, #1
 80071a8:	6010      	str	r0, [r2, #0]
 80071aa:	f3bf 8f4f 	dsb	sy
 80071ae:	f3bf 8f6f 	isb	sy
 80071b2:	2801      	cmp	r0, #1
 80071b4:	d000      	beq.n	80071b8 <vPortEnterCritical+0x1c>
 80071b6:	bd08      	pop	{r3, pc}
 80071b8:	f64e 5104 	movw	r1, #60676	; 0xed04
 80071bc:	f2ce 0100 	movt	r1, #57344	; 0xe000
 80071c0:	680a      	ldr	r2, [r1, #0]
 80071c2:	06d3      	lsls	r3, r2, #27
 80071c4:	d0f7      	beq.n	80071b6 <vPortEnterCritical+0x1a>
 80071c6:	f7ff ffe1 	bl	800718c <ulPortSetInterruptMask>
 80071ca:	e7fe      	b.n	80071ca <vPortEnterCritical+0x2e>
 80071cc:	100001a8 	.word	0x100001a8

080071d0 <prvTaskExitError>:
 80071d0:	b508      	push	{r3, lr}
 80071d2:	4b05      	ldr	r3, [pc, #20]	; (80071e8 <prvTaskExitError+0x18>)
 80071d4:	6818      	ldr	r0, [r3, #0]
 80071d6:	1c43      	adds	r3, r0, #1
 80071d8:	d002      	beq.n	80071e0 <prvTaskExitError+0x10>
 80071da:	f7ff ffd7 	bl	800718c <ulPortSetInterruptMask>
 80071de:	e7fe      	b.n	80071de <prvTaskExitError+0xe>
 80071e0:	f7ff ffd4 	bl	800718c <ulPortSetInterruptMask>
 80071e4:	e7fe      	b.n	80071e4 <prvTaskExitError+0x14>
 80071e6:	bf00      	nop
 80071e8:	100001a8 	.word	0x100001a8

080071ec <vPortClearInterruptMask>:
 80071ec:	f380 8811 	msr	BASEPRI, r0
 80071f0:	4770      	bx	lr
 80071f2:	bf00      	nop

080071f4 <vPortExitCritical>:
 80071f4:	b508      	push	{r3, lr}
 80071f6:	4b07      	ldr	r3, [pc, #28]	; (8007214 <vPortExitCritical+0x20>)
 80071f8:	6818      	ldr	r0, [r3, #0]
 80071fa:	b118      	cbz	r0, 8007204 <vPortExitCritical+0x10>
 80071fc:	3801      	subs	r0, #1
 80071fe:	6018      	str	r0, [r3, #0]
 8007200:	b118      	cbz	r0, 800720a <vPortExitCritical+0x16>
 8007202:	bd08      	pop	{r3, pc}
 8007204:	f7ff ffc2 	bl	800718c <ulPortSetInterruptMask>
 8007208:	e7fe      	b.n	8007208 <vPortExitCritical+0x14>
 800720a:	e8bd 4008 	ldmia.w	sp!, {r3, lr}
 800720e:	f7ff bfed 	b.w	80071ec <vPortClearInterruptMask>
 8007212:	bf00      	nop
 8007214:	100001a8 	.word	0x100001a8

08007218 <PendSV_Handler>:
 8007218:	f3ef 8009 	mrs	r0, PSP
 800721c:	f3bf 8f6f 	isb	sy
 8007220:	4b12      	ldr	r3, [pc, #72]	; (800726c <pxCurrentTCBConst>)
 8007222:	681a      	ldr	r2, [r3, #0]
 8007224:	f01e 0f10 	tst.w	lr, #16
 8007228:	bf08      	it	eq
 800722a:	ed20 8a10 	vstmdbeq	r0!, {s16-s31}
 800722e:	e920 4ff0 	stmdb	r0!, {r4, r5, r6, r7, r8, r9, sl, fp, lr}
 8007232:	6010      	str	r0, [r2, #0]
 8007234:	f84d 3d04 	str.w	r3, [sp, #-4]!
 8007238:	f04f 0050 	mov.w	r0, #80	; 0x50
 800723c:	f380 8811 	msr	BASEPRI, r0
 8007240:	f7fe fe40 	bl	8005ec4 <vTaskSwitchContext>
 8007244:	f04f 0000 	mov.w	r0, #0
 8007248:	f380 8811 	msr	BASEPRI, r0
 800724c:	bc08      	pop	{r3}
 800724e:	6819      	ldr	r1, [r3, #0]
 8007250:	6808      	ldr	r0, [r1, #0]
 8007252:	e8b0 4ff0 	ldmia.w	r0!, {r4, r5, r6, r7, r8, r9, sl, fp, lr}
 8007256:	f01e 0f10 	tst.w	lr, #16
 800725a:	bf08      	it	eq
 800725c:	ecb0 8a10 	vldmiaeq	r0!, {s16-s31}
 8007260:	f380 8809 	msr	PSP, r0
 8007264:	f3bf 8f6f 	isb	sy
 8007268:	4770      	bx	lr
 800726a:	bf00      	nop

0800726c <pxCurrentTCBConst>:
 800726c:	10000d4c 	.word	0x10000d4c

08007270 <SysTick_Handler>:
 8007270:	b508      	push	{r3, lr}
 8007272:	f7ff ff8b 	bl	800718c <ulPortSetInterruptMask>
 8007276:	f7fe fc67 	bl	8005b48 <xTaskIncrementTick>
 800727a:	b130      	cbz	r0, 800728a <SysTick_Handler+0x1a>
 800727c:	f64e 5304 	movw	r3, #60676	; 0xed04
 8007280:	f2ce 0300 	movt	r3, #57344	; 0xe000
 8007284:	f04f 5280 	mov.w	r2, #268435456	; 0x10000000
 8007288:	601a      	str	r2, [r3, #0]
 800728a:	2000      	movs	r0, #0
 800728c:	e8bd 4008 	ldmia.w	sp!, {r3, lr}
 8007290:	f7ff bfac 	b.w	80071ec <vPortClearInterruptMask>

08007294 <vPortSetupTimerInterrupt>:
 8007294:	f240 13a4 	movw	r3, #420	; 0x1a4
 8007298:	f2c1 0300 	movt	r3, #4096	; 0x1000
 800729c:	f644 52d3 	movw	r2, #19923	; 0x4dd3
 80072a0:	6819      	ldr	r1, [r3, #0]
 80072a2:	f2c1 0262 	movt	r2, #4194	; 0x1062
 80072a6:	fba2 3001 	umull	r3, r0, r2, r1
 80072aa:	f24e 0214 	movw	r2, #57364	; 0xe014
 80072ae:	f2ce 0200 	movt	r2, #57344	; 0xe000
 80072b2:	f24e 0310 	movw	r3, #57360	; 0xe010
 80072b6:	0981      	lsrs	r1, r0, #6
 80072b8:	f2ce 0300 	movt	r3, #57344	; 0xe000
 80072bc:	1e48      	subs	r0, r1, #1
 80072be:	6010      	str	r0, [r2, #0]
 80072c0:	2207      	movs	r2, #7
 80072c2:	601a      	str	r2, [r3, #0]
 80072c4:	4770      	bx	lr
 80072c6:	bf00      	nop

080072c8 <xPortStartScheduler>:
 80072c8:	b510      	push	{r4, lr}
 80072ca:	f44f 4364 	mov.w	r3, #58368	; 0xe400
 80072ce:	f2ce 0300 	movt	r3, #57344	; 0xe000
 80072d2:	b082      	sub	sp, #8
 80072d4:	781a      	ldrb	r2, [r3, #0]
 80072d6:	4825      	ldr	r0, [pc, #148]	; (800736c <xPortStartScheduler+0xa4>)
 80072d8:	9201      	str	r2, [sp, #4]
 80072da:	21ff      	movs	r1, #255	; 0xff
 80072dc:	7019      	strb	r1, [r3, #0]
 80072de:	781c      	ldrb	r4, [r3, #0]
 80072e0:	4923      	ldr	r1, [pc, #140]	; (8007370 <xPortStartScheduler+0xa8>)
 80072e2:	f88d 4003 	strb.w	r4, [sp, #3]
 80072e6:	f89d 3003 	ldrb.w	r3, [sp, #3]
 80072ea:	f89d 2003 	ldrb.w	r2, [sp, #3]
 80072ee:	f003 0450 	and.w	r4, r3, #80	; 0x50
 80072f2:	700c      	strb	r4, [r1, #0]
 80072f4:	2307      	movs	r3, #7
 80072f6:	0611      	lsls	r1, r2, #24
 80072f8:	6003      	str	r3, [r0, #0]
 80072fa:	d50d      	bpl.n	8007318 <xPortStartScheduler+0x50>
 80072fc:	2306      	movs	r3, #6
 80072fe:	e000      	b.n	8007302 <xPortStartScheduler+0x3a>
 8007300:	4623      	mov	r3, r4
 8007302:	f89d 2003 	ldrb.w	r2, [sp, #3]
 8007306:	0054      	lsls	r4, r2, #1
 8007308:	b2e1      	uxtb	r1, r4
 800730a:	f88d 1003 	strb.w	r1, [sp, #3]
 800730e:	f89d 2003 	ldrb.w	r2, [sp, #3]
 8007312:	1e5c      	subs	r4, r3, #1
 8007314:	0612      	lsls	r2, r2, #24
 8007316:	d4f3      	bmi.n	8007300 <xPortStartScheduler+0x38>
 8007318:	9c01      	ldr	r4, [sp, #4]
 800731a:	f44f 4164 	mov.w	r1, #58368	; 0xe400
 800731e:	f2ce 0100 	movt	r1, #57344	; 0xe000
 8007322:	021b      	lsls	r3, r3, #8
 8007324:	f64e 5220 	movw	r2, #60704	; 0xed20
 8007328:	f2ce 0200 	movt	r2, #57344	; 0xe000
 800732c:	f403 63e0 	and.w	r3, r3, #1792	; 0x700
 8007330:	b2e4      	uxtb	r4, r4
 8007332:	6003      	str	r3, [r0, #0]
 8007334:	700c      	strb	r4, [r1, #0]
 8007336:	6810      	ldr	r0, [r2, #0]
 8007338:	f440 0170 	orr.w	r1, r0, #15728640	; 0xf00000
 800733c:	6011      	str	r1, [r2, #0]
 800733e:	6813      	ldr	r3, [r2, #0]
 8007340:	f043 4470 	orr.w	r4, r3, #4026531840	; 0xf0000000
 8007344:	6014      	str	r4, [r2, #0]
 8007346:	f7ff ffa5 	bl	8007294 <vPortSetupTimerInterrupt>
 800734a:	480a      	ldr	r0, [pc, #40]	; (8007374 <xPortStartScheduler+0xac>)
 800734c:	2200      	movs	r2, #0
 800734e:	6002      	str	r2, [r0, #0]
 8007350:	f7ff fee4 	bl	800711c <vPortEnableVFP>
 8007354:	f64e 7134 	movw	r1, #61236	; 0xef34
 8007358:	f2ce 0100 	movt	r1, #57344	; 0xe000
 800735c:	680b      	ldr	r3, [r1, #0]
 800735e:	f043 4440 	orr.w	r4, r3, #3221225472	; 0xc0000000
 8007362:	600c      	str	r4, [r1, #0]
 8007364:	f7ff feca 	bl	80070fc <prvPortStartFirstTask>
 8007368:	f7ff ff32 	bl	80071d0 <prvTaskExitError>
 800736c:	10000de8 	.word	0x10000de8
 8007370:	10000de4 	.word	0x10000de4
 8007374:	100001a8 	.word	0x100001a8

08007378 <vPortValidateInterruptPriority>:
 8007378:	b508      	push	{r3, lr}
 800737a:	f3ef 8205 	mrs	r2, IPSR
 800737e:	2a0f      	cmp	r2, #15
 8007380:	d908      	bls.n	8007394 <vPortValidateInterruptPriority+0x1c>
 8007382:	f24e 33f0 	movw	r3, #58352	; 0xe3f0
 8007386:	f2ce 0300 	movt	r3, #57344	; 0xe000
 800738a:	490b      	ldr	r1, [pc, #44]	; (80073b8 <vPortValidateInterruptPriority+0x40>)
 800738c:	5cd0      	ldrb	r0, [r2, r3]
 800738e:	780a      	ldrb	r2, [r1, #0]
 8007390:	4282      	cmp	r2, r0
 8007392:	d80e      	bhi.n	80073b2 <vPortValidateInterruptPriority+0x3a>
 8007394:	f64e 530c 	movw	r3, #60684	; 0xed0c
 8007398:	f2ce 0300 	movt	r3, #57344	; 0xe000
 800739c:	4907      	ldr	r1, [pc, #28]	; (80073bc <vPortValidateInterruptPriority+0x44>)
 800739e:	6818      	ldr	r0, [r3, #0]
 80073a0:	680b      	ldr	r3, [r1, #0]
 80073a2:	f400 62e0 	and.w	r2, r0, #1792	; 0x700
 80073a6:	429a      	cmp	r2, r3
 80073a8:	d800      	bhi.n	80073ac <vPortValidateInterruptPriority+0x34>
 80073aa:	bd08      	pop	{r3, pc}
 80073ac:	f7ff feee 	bl	800718c <ulPortSetInterruptMask>
 80073b0:	e7fe      	b.n	80073b0 <vPortValidateInterruptPriority+0x38>
 80073b2:	f7ff feeb 	bl	800718c <ulPortSetInterruptMask>
 80073b6:	e7fe      	b.n	80073b6 <vPortValidateInterruptPriority+0x3e>
 80073b8:	10000de4 	.word	0x10000de4
 80073bc:	10000de8 	.word	0x10000de8

080073c0 <pvPortMalloc>:
 80073c0:	b510      	push	{r4, lr}
 80073c2:	4604      	mov	r4, r0
 80073c4:	f7fe fbac 	bl	8005b20 <vTaskSuspendAll>
 80073c8:	4620      	mov	r0, r4
 80073ca:	f000 f879 	bl	80074c0 <malloc>
 80073ce:	4604      	mov	r4, r0
 80073d0:	f7fe fc6e 	bl	8005cb0 <xTaskResumeAll>
 80073d4:	b10c      	cbz	r4, 80073da <pvPortMalloc+0x1a>
 80073d6:	4620      	mov	r0, r4
 80073d8:	bd10      	pop	{r4, pc}
 80073da:	f7fe fa41 	bl	8005860 <vApplicationMallocFailedHook>
 80073de:	4620      	mov	r0, r4
 80073e0:	bd10      	pop	{r4, pc}
 80073e2:	bf00      	nop

080073e4 <vPortFree>:
 80073e4:	b510      	push	{r4, lr}
 80073e6:	4604      	mov	r4, r0
 80073e8:	b140      	cbz	r0, 80073fc <vPortFree+0x18>
 80073ea:	f7fe fb99 	bl	8005b20 <vTaskSuspendAll>
 80073ee:	4620      	mov	r0, r4
 80073f0:	f000 f86e 	bl	80074d0 <free>
 80073f4:	e8bd 4010 	ldmia.w	sp!, {r4, lr}
 80073f8:	f7fe bc5a 	b.w	8005cb0 <xTaskResumeAll>
 80073fc:	bd10      	pop	{r4, pc}
 80073fe:	bf00      	nop

08007400 <__aeabi_atexit>:
 8007400:	4603      	mov	r3, r0
 8007402:	4608      	mov	r0, r1
 8007404:	4619      	mov	r1, r3
 8007406:	f000 b801 	b.w	800740c <__cxa_atexit>
 800740a:	bf00      	nop

0800740c <__cxa_atexit>:
 800740c:	b430      	push	{r4, r5}
 800740e:	4605      	mov	r5, r0
 8007410:	460c      	mov	r4, r1
 8007412:	4613      	mov	r3, r2
 8007414:	2002      	movs	r0, #2
 8007416:	4629      	mov	r1, r5
 8007418:	4622      	mov	r2, r4
 800741a:	bc30      	pop	{r4, r5}
 800741c:	f002 baf8 	b.w	8009a10 <__register_exitproc>

08007420 <__errno>:
 8007420:	f240 53d8 	movw	r3, #1496	; 0x5d8
 8007424:	f2c1 0300 	movt	r3, #4096	; 0x1000
 8007428:	6818      	ldr	r0, [r3, #0]
 800742a:	4770      	bx	lr

0800742c <__libc_init_array>:
 800742c:	b5f8      	push	{r3, r4, r5, r6, r7, lr}
 800742e:	4f20      	ldr	r7, [pc, #128]	; (80074b0 <__libc_init_array+0x84>)
 8007430:	4c20      	ldr	r4, [pc, #128]	; (80074b4 <__libc_init_array+0x88>)
 8007432:	1b38      	subs	r0, r7, r4
 8007434:	1087      	asrs	r7, r0, #2
 8007436:	d017      	beq.n	8007468 <__libc_init_array+0x3c>
 8007438:	1e7a      	subs	r2, r7, #1
 800743a:	6823      	ldr	r3, [r4, #0]
 800743c:	2501      	movs	r5, #1
 800743e:	f002 0601 	and.w	r6, r2, #1
 8007442:	4798      	blx	r3
 8007444:	42af      	cmp	r7, r5
 8007446:	d00f      	beq.n	8007468 <__libc_init_array+0x3c>
 8007448:	b12e      	cbz	r6, 8007456 <__libc_init_array+0x2a>
 800744a:	f854 1f04 	ldr.w	r1, [r4, #4]!
 800744e:	2502      	movs	r5, #2
 8007450:	4788      	blx	r1
 8007452:	42af      	cmp	r7, r5
 8007454:	d008      	beq.n	8007468 <__libc_init_array+0x3c>
 8007456:	6860      	ldr	r0, [r4, #4]
 8007458:	4780      	blx	r0
 800745a:	3502      	adds	r5, #2
 800745c:	68a2      	ldr	r2, [r4, #8]
 800745e:	1d26      	adds	r6, r4, #4
 8007460:	4790      	blx	r2
 8007462:	3408      	adds	r4, #8
 8007464:	42af      	cmp	r7, r5
 8007466:	d1f6      	bne.n	8007456 <__libc_init_array+0x2a>
 8007468:	4f13      	ldr	r7, [pc, #76]	; (80074b8 <__libc_init_array+0x8c>)
 800746a:	4c14      	ldr	r4, [pc, #80]	; (80074bc <__libc_init_array+0x90>)
 800746c:	f008 fd1c 	bl	800fea8 <_init>
 8007470:	1b3b      	subs	r3, r7, r4
 8007472:	109f      	asrs	r7, r3, #2
 8007474:	d018      	beq.n	80074a8 <__libc_init_array+0x7c>
 8007476:	1e7d      	subs	r5, r7, #1
 8007478:	6821      	ldr	r1, [r4, #0]
 800747a:	f005 0601 	and.w	r6, r5, #1
 800747e:	2501      	movs	r5, #1
 8007480:	4788      	blx	r1
 8007482:	42af      	cmp	r7, r5
 8007484:	d011      	beq.n	80074aa <__libc_init_array+0x7e>
 8007486:	b12e      	cbz	r6, 8007494 <__libc_init_array+0x68>
 8007488:	f854 0f04 	ldr.w	r0, [r4, #4]!
 800748c:	2502      	movs	r5, #2
 800748e:	4780      	blx	r0
 8007490:	42af      	cmp	r7, r5
 8007492:	d00b      	beq.n	80074ac <__libc_init_array+0x80>
 8007494:	6862      	ldr	r2, [r4, #4]
 8007496:	4790      	blx	r2
 8007498:	3502      	adds	r5, #2
 800749a:	68a3      	ldr	r3, [r4, #8]
 800749c:	1d26      	adds	r6, r4, #4
 800749e:	4798      	blx	r3
 80074a0:	3408      	adds	r4, #8
 80074a2:	42af      	cmp	r7, r5
 80074a4:	d1f6      	bne.n	8007494 <__libc_init_array+0x68>
 80074a6:	bdf8      	pop	{r3, r4, r5, r6, r7, pc}
 80074a8:	bdf8      	pop	{r3, r4, r5, r6, r7, pc}
 80074aa:	bdf8      	pop	{r3, r4, r5, r6, r7, pc}
 80074ac:	bdf8      	pop	{r3, r4, r5, r6, r7, pc}
 80074ae:	bf00      	nop
 80074b0:	0800fec0 	.word	0x0800fec0
 80074b4:	0800fec0 	.word	0x0800fec0
 80074b8:	0800fedc 	.word	0x0800fedc
 80074bc:	0800fec0 	.word	0x0800fec0

080074c0 <malloc>:
 80074c0:	f240 53d8 	movw	r3, #1496	; 0x5d8
 80074c4:	f2c1 0300 	movt	r3, #4096	; 0x1000
 80074c8:	4601      	mov	r1, r0
 80074ca:	6818      	ldr	r0, [r3, #0]
 80074cc:	f000 b808 	b.w	80074e0 <_malloc_r>

080074d0 <free>:
 80074d0:	f240 53d8 	movw	r3, #1496	; 0x5d8
 80074d4:	f2c1 0300 	movt	r3, #4096	; 0x1000
 80074d8:	4601      	mov	r1, r0
 80074da:	6818      	ldr	r0, [r3, #0]
 80074dc:	f003 bde0 	b.w	800b0a0 <_free_r>

080074e0 <_malloc_r>:
 80074e0:	e92d 4ff0 	stmdb	sp!, {r4, r5, r6, r7, r8, r9, sl, fp, lr}
 80074e4:	f101 050b 	add.w	r5, r1, #11
 80074e8:	2d16      	cmp	r5, #22
 80074ea:	b083      	sub	sp, #12
 80074ec:	4606      	mov	r6, r0
 80074ee:	d927      	bls.n	8007540 <_malloc_r+0x60>
 80074f0:	f035 0507 	bics.w	r5, r5, #7
 80074f4:	d427      	bmi.n	8007546 <_malloc_r+0x66>
 80074f6:	42a9      	cmp	r1, r5
 80074f8:	d825      	bhi.n	8007546 <_malloc_r+0x66>
 80074fa:	4630      	mov	r0, r6
 80074fc:	f000 fc32 	bl	8007d64 <__malloc_lock>
 8007500:	f5b5 7ffc 	cmp.w	r5, #504	; 0x1f8
 8007504:	d223      	bcs.n	800754e <_malloc_r+0x6e>
 8007506:	4fba      	ldr	r7, [pc, #744]	; (80077f0 <_malloc_r+0x310>)
 8007508:	ea4f 0cd5 	mov.w	ip, r5, lsr #3
 800750c:	eb07 02cc 	add.w	r2, r7, ip, lsl #3
 8007510:	68d4      	ldr	r4, [r2, #12]
 8007512:	4294      	cmp	r4, r2
 8007514:	f000 81de 	beq.w	80078d4 <_malloc_r+0x3f4>
 8007518:	6863      	ldr	r3, [r4, #4]
 800751a:	68e2      	ldr	r2, [r4, #12]
 800751c:	68a1      	ldr	r1, [r4, #8]
 800751e:	f023 0003 	bic.w	r0, r3, #3
 8007522:	1823      	adds	r3, r4, r0
 8007524:	60ca      	str	r2, [r1, #12]
 8007526:	6858      	ldr	r0, [r3, #4]
 8007528:	6091      	str	r1, [r2, #8]
 800752a:	f040 0201 	orr.w	r2, r0, #1
 800752e:	605a      	str	r2, [r3, #4]
 8007530:	4630      	mov	r0, r6
 8007532:	f000 fc19 	bl	8007d68 <__malloc_unlock>
 8007536:	3408      	adds	r4, #8
 8007538:	4620      	mov	r0, r4
 800753a:	b003      	add	sp, #12
 800753c:	e8bd 8ff0 	ldmia.w	sp!, {r4, r5, r6, r7, r8, r9, sl, fp, pc}
 8007540:	2510      	movs	r5, #16
 8007542:	42a9      	cmp	r1, r5
 8007544:	d9d9      	bls.n	80074fa <_malloc_r+0x1a>
 8007546:	240c      	movs	r4, #12
 8007548:	6034      	str	r4, [r6, #0]
 800754a:	2400      	movs	r4, #0
 800754c:	e7f4      	b.n	8007538 <_malloc_r+0x58>
 800754e:	ea5f 2c55 	movs.w	ip, r5, lsr #9
 8007552:	f000 808b 	beq.w	800766c <_malloc_r+0x18c>
 8007556:	f1bc 0f04 	cmp.w	ip, #4
 800755a:	f200 8155 	bhi.w	8007808 <_malloc_r+0x328>
 800755e:	ea4f 1795 	mov.w	r7, r5, lsr #6
 8007562:	f107 0e38 	add.w	lr, r7, #56	; 0x38
 8007566:	ea4f 014e 	mov.w	r1, lr, lsl #1
 800756a:	4fa1      	ldr	r7, [pc, #644]	; (80077f0 <_malloc_r+0x310>)
 800756c:	eb07 0181 	add.w	r1, r7, r1, lsl #2
 8007570:	68cc      	ldr	r4, [r1, #12]
 8007572:	42a1      	cmp	r1, r4
 8007574:	d105      	bne.n	8007582 <_malloc_r+0xa2>
 8007576:	e00c      	b.n	8007592 <_malloc_r+0xb2>
 8007578:	2a00      	cmp	r2, #0
 800757a:	da7c      	bge.n	8007676 <_malloc_r+0x196>
 800757c:	68e4      	ldr	r4, [r4, #12]
 800757e:	42a1      	cmp	r1, r4
 8007580:	d007      	beq.n	8007592 <_malloc_r+0xb2>
 8007582:	6863      	ldr	r3, [r4, #4]
 8007584:	f023 0003 	bic.w	r0, r3, #3
 8007588:	1b42      	subs	r2, r0, r5
 800758a:	2a0f      	cmp	r2, #15
 800758c:	ddf4      	ble.n	8007578 <_malloc_r+0x98>
 800758e:	f10e 3eff 	add.w	lr, lr, #4294967295
 8007592:	f10e 0c01 	add.w	ip, lr, #1
 8007596:	4b96      	ldr	r3, [pc, #600]	; (80077f0 <_malloc_r+0x310>)
 8007598:	693c      	ldr	r4, [r7, #16]
 800759a:	f103 0e08 	add.w	lr, r3, #8
 800759e:	4574      	cmp	r4, lr
 80075a0:	f000 8175 	beq.w	800788e <_malloc_r+0x3ae>
 80075a4:	6861      	ldr	r1, [r4, #4]
 80075a6:	f021 0103 	bic.w	r1, r1, #3
 80075aa:	1b4a      	subs	r2, r1, r5
 80075ac:	2a0f      	cmp	r2, #15
 80075ae:	f300 815b 	bgt.w	8007868 <_malloc_r+0x388>
 80075b2:	2a00      	cmp	r2, #0
 80075b4:	f8c3 e014 	str.w	lr, [r3, #20]
 80075b8:	f8c3 e010 	str.w	lr, [r3, #16]
 80075bc:	da69      	bge.n	8007692 <_malloc_r+0x1b2>
 80075be:	f5b1 7f00 	cmp.w	r1, #512	; 0x200
 80075c2:	f080 812f 	bcs.w	8007824 <_malloc_r+0x344>
 80075c6:	08ca      	lsrs	r2, r1, #3
 80075c8:	eb03 01c2 	add.w	r1, r3, r2, lsl #3
 80075cc:	f04f 0901 	mov.w	r9, #1
 80075d0:	1092      	asrs	r2, r2, #2
 80075d2:	fa09 f902 	lsl.w	r9, r9, r2
 80075d6:	685a      	ldr	r2, [r3, #4]
 80075d8:	6888      	ldr	r0, [r1, #8]
 80075da:	60e1      	str	r1, [r4, #12]
 80075dc:	ea49 0902 	orr.w	r9, r9, r2
 80075e0:	60a0      	str	r0, [r4, #8]
 80075e2:	f8c3 9004 	str.w	r9, [r3, #4]
 80075e6:	608c      	str	r4, [r1, #8]
 80075e8:	60c4      	str	r4, [r0, #12]
 80075ea:	2001      	movs	r0, #1
 80075ec:	ea4f 04ac 	mov.w	r4, ip, asr #2
 80075f0:	fa00 f004 	lsl.w	r0, r0, r4
 80075f4:	4548      	cmp	r0, r9
 80075f6:	d856      	bhi.n	80076a6 <_malloc_r+0x1c6>
 80075f8:	ea19 0f00 	tst.w	r9, r0
 80075fc:	d107      	bne.n	800760e <_malloc_r+0x12e>
 80075fe:	f02c 0c03 	bic.w	ip, ip, #3
 8007602:	0040      	lsls	r0, r0, #1
 8007604:	ea19 0f00 	tst.w	r9, r0
 8007608:	f10c 0c04 	add.w	ip, ip, #4
 800760c:	d0f9      	beq.n	8007602 <_malloc_r+0x122>
 800760e:	eb07 09cc 	add.w	r9, r7, ip, lsl #3
 8007612:	464c      	mov	r4, r9
 8007614:	46e0      	mov	r8, ip
 8007616:	68e3      	ldr	r3, [r4, #12]
 8007618:	429c      	cmp	r4, r3
 800761a:	d107      	bne.n	800762c <_malloc_r+0x14c>
 800761c:	e13a      	b.n	8007894 <_malloc_r+0x3b4>
 800761e:	2a00      	cmp	r2, #0
 8007620:	f280 8162 	bge.w	80078e8 <_malloc_r+0x408>
 8007624:	68db      	ldr	r3, [r3, #12]
 8007626:	429c      	cmp	r4, r3
 8007628:	f000 8134 	beq.w	8007894 <_malloc_r+0x3b4>
 800762c:	6859      	ldr	r1, [r3, #4]
 800762e:	f021 0103 	bic.w	r1, r1, #3
 8007632:	1b4a      	subs	r2, r1, r5
 8007634:	2a0f      	cmp	r2, #15
 8007636:	ddf2      	ble.n	800761e <_malloc_r+0x13e>
 8007638:	461c      	mov	r4, r3
 800763a:	1959      	adds	r1, r3, r5
 800763c:	68d8      	ldr	r0, [r3, #12]
 800763e:	f854 cf08 	ldr.w	ip, [r4, #8]!
 8007642:	508a      	str	r2, [r1, r2]
 8007644:	f045 0501 	orr.w	r5, r5, #1
 8007648:	f042 0201 	orr.w	r2, r2, #1
 800764c:	f8cc 000c 	str.w	r0, [ip, #12]
 8007650:	f8c0 c008 	str.w	ip, [r0, #8]
 8007654:	605d      	str	r5, [r3, #4]
 8007656:	6179      	str	r1, [r7, #20]
 8007658:	6139      	str	r1, [r7, #16]
 800765a:	f8c1 e00c 	str.w	lr, [r1, #12]
 800765e:	f8c1 e008 	str.w	lr, [r1, #8]
 8007662:	604a      	str	r2, [r1, #4]
 8007664:	4630      	mov	r0, r6
 8007666:	f000 fb7f 	bl	8007d68 <__malloc_unlock>
 800766a:	e765      	b.n	8007538 <_malloc_r+0x58>
 800766c:	ea4f 0ed5 	mov.w	lr, r5, lsr #3
 8007670:	ea4f 014e 	mov.w	r1, lr, lsl #1
 8007674:	e779      	b.n	800756a <_malloc_r+0x8a>
 8007676:	1822      	adds	r2, r4, r0
 8007678:	68e3      	ldr	r3, [r4, #12]
 800767a:	6850      	ldr	r0, [r2, #4]
 800767c:	68a1      	ldr	r1, [r4, #8]
 800767e:	f040 0001 	orr.w	r0, r0, #1
 8007682:	6050      	str	r0, [r2, #4]
 8007684:	60cb      	str	r3, [r1, #12]
 8007686:	6099      	str	r1, [r3, #8]
 8007688:	4630      	mov	r0, r6
 800768a:	f000 fb6d 	bl	8007d68 <__malloc_unlock>
 800768e:	3408      	adds	r4, #8
 8007690:	e752      	b.n	8007538 <_malloc_r+0x58>
 8007692:	1861      	adds	r1, r4, r1
 8007694:	4630      	mov	r0, r6
 8007696:	684b      	ldr	r3, [r1, #4]
 8007698:	f043 0201 	orr.w	r2, r3, #1
 800769c:	604a      	str	r2, [r1, #4]
 800769e:	f000 fb63 	bl	8007d68 <__malloc_unlock>
 80076a2:	3408      	adds	r4, #8
 80076a4:	e748      	b.n	8007538 <_malloc_r+0x58>
 80076a6:	68bc      	ldr	r4, [r7, #8]
 80076a8:	6860      	ldr	r0, [r4, #4]
 80076aa:	f020 0903 	bic.w	r9, r0, #3
 80076ae:	45a9      	cmp	r9, r5
 80076b0:	d304      	bcc.n	80076bc <_malloc_r+0x1dc>
 80076b2:	ebc5 0309 	rsb	r3, r5, r9
 80076b6:	2b0f      	cmp	r3, #15
 80076b8:	f300 808d 	bgt.w	80077d6 <_malloc_r+0x2f6>
 80076bc:	4a4d      	ldr	r2, [pc, #308]	; (80077f4 <_malloc_r+0x314>)
 80076be:	4b4e      	ldr	r3, [pc, #312]	; (80077f8 <_malloc_r+0x318>)
 80076c0:	6811      	ldr	r1, [r2, #0]
 80076c2:	6818      	ldr	r0, [r3, #0]
 80076c4:	3101      	adds	r1, #1
 80076c6:	eb04 0b09 	add.w	fp, r4, r9
 80076ca:	eb05 0300 	add.w	r3, r5, r0
 80076ce:	f000 815a 	beq.w	8007986 <_malloc_r+0x4a6>
 80076d2:	f503 5080 	add.w	r0, r3, #4096	; 0x1000
 80076d6:	300f      	adds	r0, #15
 80076d8:	f420 617f 	bic.w	r1, r0, #4080	; 0xff0
 80076dc:	f021 0c0f 	bic.w	ip, r1, #15
 80076e0:	4661      	mov	r1, ip
 80076e2:	4630      	mov	r0, r6
 80076e4:	e88d 1004 	stmia.w	sp, {r2, ip}
 80076e8:	f000 fb40 	bl	8007d6c <_sbrk_r>
 80076ec:	f1b0 3fff 	cmp.w	r0, #4294967295
 80076f0:	4680      	mov	r8, r0
 80076f2:	e89d 1004 	ldmia.w	sp, {r2, ip}
 80076f6:	f000 8152 	beq.w	800799e <_malloc_r+0x4be>
 80076fa:	4583      	cmp	fp, r0
 80076fc:	f200 810f 	bhi.w	800791e <_malloc_r+0x43e>
 8007700:	f8df a100 	ldr.w	sl, [pc, #256]	; 8007804 <_malloc_r+0x324>
 8007704:	f8da 3000 	ldr.w	r3, [sl]
 8007708:	45c3      	cmp	fp, r8
 800770a:	4463      	add	r3, ip
 800770c:	f8ca 3000 	str.w	r3, [sl]
 8007710:	f000 814a 	beq.w	80079a8 <_malloc_r+0x4c8>
 8007714:	6812      	ldr	r2, [r2, #0]
 8007716:	3201      	adds	r2, #1
 8007718:	f000 8157 	beq.w	80079ca <_malloc_r+0x4ea>
 800771c:	ebcb 0b08 	rsb	fp, fp, r8
 8007720:	445b      	add	r3, fp
 8007722:	f8ca 3000 	str.w	r3, [sl]
 8007726:	f018 0107 	ands.w	r1, r8, #7
 800772a:	f000 810b 	beq.w	8007944 <_malloc_r+0x464>
 800772e:	f1c1 0008 	rsb	r0, r1, #8
 8007732:	f5c1 5380 	rsb	r3, r1, #4096	; 0x1000
 8007736:	4480      	add	r8, r0
 8007738:	f103 0208 	add.w	r2, r3, #8
 800773c:	eb08 010c 	add.w	r1, r8, ip
 8007740:	0508      	lsls	r0, r1, #20
 8007742:	0d03      	lsrs	r3, r0, #20
 8007744:	ebc3 0b02 	rsb	fp, r3, r2
 8007748:	4630      	mov	r0, r6
 800774a:	4659      	mov	r1, fp
 800774c:	f000 fb0e 	bl	8007d6c <_sbrk_r>
 8007750:	1c43      	adds	r3, r0, #1
 8007752:	f000 8146 	beq.w	80079e2 <_malloc_r+0x502>
 8007756:	ebc8 0200 	rsb	r2, r8, r0
 800775a:	eb0b 0102 	add.w	r1, fp, r2
 800775e:	f041 0001 	orr.w	r0, r1, #1
 8007762:	f8da 3000 	ldr.w	r3, [sl]
 8007766:	f8c7 8008 	str.w	r8, [r7, #8]
 800776a:	445b      	add	r3, fp
 800776c:	42bc      	cmp	r4, r7
 800776e:	f8ca 3000 	str.w	r3, [sl]
 8007772:	f8c8 0004 	str.w	r0, [r8, #4]
 8007776:	d015      	beq.n	80077a4 <_malloc_r+0x2c4>
 8007778:	f1b9 0f0f 	cmp.w	r9, #15
 800777c:	f240 80f2 	bls.w	8007964 <_malloc_r+0x484>
 8007780:	6861      	ldr	r1, [r4, #4]
 8007782:	f1a9 020c 	sub.w	r2, r9, #12
 8007786:	f022 0207 	bic.w	r2, r2, #7
 800778a:	18a0      	adds	r0, r4, r2
 800778c:	f001 0c01 	and.w	ip, r1, #1
 8007790:	ea42 0e0c 	orr.w	lr, r2, ip
 8007794:	2105      	movs	r1, #5
 8007796:	2a0f      	cmp	r2, #15
 8007798:	f8c4 e004 	str.w	lr, [r4, #4]
 800779c:	6041      	str	r1, [r0, #4]
 800779e:	6081      	str	r1, [r0, #8]
 80077a0:	f200 8117 	bhi.w	80079d2 <_malloc_r+0x4f2>
 80077a4:	4a15      	ldr	r2, [pc, #84]	; (80077fc <_malloc_r+0x31c>)
 80077a6:	68bc      	ldr	r4, [r7, #8]
 80077a8:	6810      	ldr	r0, [r2, #0]
 80077aa:	4283      	cmp	r3, r0
 80077ac:	bf88      	it	hi
 80077ae:	6013      	strhi	r3, [r2, #0]
 80077b0:	4a13      	ldr	r2, [pc, #76]	; (8007800 <_malloc_r+0x320>)
 80077b2:	6811      	ldr	r1, [r2, #0]
 80077b4:	428b      	cmp	r3, r1
 80077b6:	bf88      	it	hi
 80077b8:	6013      	strhi	r3, [r2, #0]
 80077ba:	6863      	ldr	r3, [r4, #4]
 80077bc:	f023 0003 	bic.w	r0, r3, #3
 80077c0:	42a8      	cmp	r0, r5
 80077c2:	ebc5 0300 	rsb	r3, r5, r0
 80077c6:	d301      	bcc.n	80077cc <_malloc_r+0x2ec>
 80077c8:	2b0f      	cmp	r3, #15
 80077ca:	dc04      	bgt.n	80077d6 <_malloc_r+0x2f6>
 80077cc:	4630      	mov	r0, r6
 80077ce:	f000 facb 	bl	8007d68 <__malloc_unlock>
 80077d2:	2400      	movs	r4, #0
 80077d4:	e6b0      	b.n	8007538 <_malloc_r+0x58>
 80077d6:	1962      	adds	r2, r4, r5
 80077d8:	f043 0101 	orr.w	r1, r3, #1
 80077dc:	f045 0501 	orr.w	r5, r5, #1
 80077e0:	6065      	str	r5, [r4, #4]
 80077e2:	4630      	mov	r0, r6
 80077e4:	6051      	str	r1, [r2, #4]
 80077e6:	60ba      	str	r2, [r7, #8]
 80077e8:	f000 fabe 	bl	8007d68 <__malloc_unlock>
 80077ec:	3408      	adds	r4, #8
 80077ee:	e6a3      	b.n	8007538 <_malloc_r+0x58>
 80077f0:	100005dc 	.word	0x100005dc
 80077f4:	100009e8 	.word	0x100009e8
 80077f8:	10000df4 	.word	0x10000df4
 80077fc:	10000df0 	.word	0x10000df0
 8007800:	10000dec 	.word	0x10000dec
 8007804:	10000df8 	.word	0x10000df8
 8007808:	f1bc 0f14 	cmp.w	ip, #20
 800780c:	d97b      	bls.n	8007906 <_malloc_r+0x426>
 800780e:	f1bc 0f54 	cmp.w	ip, #84	; 0x54
 8007812:	f200 808d 	bhi.w	8007930 <_malloc_r+0x450>
 8007816:	ea4f 3415 	mov.w	r4, r5, lsr #12
 800781a:	f104 0e6e 	add.w	lr, r4, #110	; 0x6e
 800781e:	ea4f 014e 	mov.w	r1, lr, lsl #1
 8007822:	e6a2      	b.n	800756a <_malloc_r+0x8a>
 8007824:	0a48      	lsrs	r0, r1, #9
 8007826:	2804      	cmp	r0, #4
 8007828:	d972      	bls.n	8007910 <_malloc_r+0x430>
 800782a:	2814      	cmp	r0, #20
 800782c:	f200 80ae 	bhi.w	800798c <_malloc_r+0x4ac>
 8007830:	f100 095b 	add.w	r9, r0, #91	; 0x5b
 8007834:	ea4f 0249 	mov.w	r2, r9, lsl #1
 8007838:	eb07 0082 	add.w	r0, r7, r2, lsl #2
 800783c:	f8df 81f0 	ldr.w	r8, [pc, #496]	; 8007a30 <_malloc_r+0x550>
 8007840:	6883      	ldr	r3, [r0, #8]
 8007842:	4283      	cmp	r3, r0
 8007844:	f000 8081 	beq.w	800794a <_malloc_r+0x46a>
 8007848:	685a      	ldr	r2, [r3, #4]
 800784a:	f022 0203 	bic.w	r2, r2, #3
 800784e:	4291      	cmp	r1, r2
 8007850:	d202      	bcs.n	8007858 <_malloc_r+0x378>
 8007852:	689b      	ldr	r3, [r3, #8]
 8007854:	4298      	cmp	r0, r3
 8007856:	d1f7      	bne.n	8007848 <_malloc_r+0x368>
 8007858:	68da      	ldr	r2, [r3, #12]
 800785a:	f8d7 9004 	ldr.w	r9, [r7, #4]
 800785e:	60e2      	str	r2, [r4, #12]
 8007860:	60a3      	str	r3, [r4, #8]
 8007862:	60dc      	str	r4, [r3, #12]
 8007864:	6094      	str	r4, [r2, #8]
 8007866:	e6c0      	b.n	80075ea <_malloc_r+0x10a>
 8007868:	1961      	adds	r1, r4, r5
 800786a:	f042 0001 	orr.w	r0, r2, #1
 800786e:	f045 0501 	orr.w	r5, r5, #1
 8007872:	6065      	str	r5, [r4, #4]
 8007874:	6159      	str	r1, [r3, #20]
 8007876:	6119      	str	r1, [r3, #16]
 8007878:	6048      	str	r0, [r1, #4]
 800787a:	f8c1 e00c 	str.w	lr, [r1, #12]
 800787e:	f8c1 e008 	str.w	lr, [r1, #8]
 8007882:	508a      	str	r2, [r1, r2]
 8007884:	4630      	mov	r0, r6
 8007886:	f000 fa6f 	bl	8007d68 <__malloc_unlock>
 800788a:	3408      	adds	r4, #8
 800788c:	e654      	b.n	8007538 <_malloc_r+0x58>
 800788e:	f8d3 9004 	ldr.w	r9, [r3, #4]
 8007892:	e6aa      	b.n	80075ea <_malloc_r+0x10a>
 8007894:	f108 0801 	add.w	r8, r8, #1
 8007898:	3408      	adds	r4, #8
 800789a:	f018 0f03 	tst.w	r8, #3
 800789e:	f47f aeba 	bne.w	8007616 <_malloc_r+0x136>
 80078a2:	4649      	mov	r1, r9
 80078a4:	f01c 0f03 	tst.w	ip, #3
 80078a8:	f1a1 0408 	sub.w	r4, r1, #8
 80078ac:	f10c 3cff 	add.w	ip, ip, #4294967295
 80078b0:	f000 80b0 	beq.w	8007a14 <_malloc_r+0x534>
 80078b4:	6809      	ldr	r1, [r1, #0]
 80078b6:	42a1      	cmp	r1, r4
 80078b8:	d0f4      	beq.n	80078a4 <_malloc_r+0x3c4>
 80078ba:	687c      	ldr	r4, [r7, #4]
 80078bc:	0040      	lsls	r0, r0, #1
 80078be:	42a0      	cmp	r0, r4
 80078c0:	f63f aef1 	bhi.w	80076a6 <_malloc_r+0x1c6>
 80078c4:	2800      	cmp	r0, #0
 80078c6:	f43f aeee 	beq.w	80076a6 <_malloc_r+0x1c6>
 80078ca:	4204      	tst	r4, r0
 80078cc:	f000 80a7 	beq.w	8007a1e <_malloc_r+0x53e>
 80078d0:	46c4      	mov	ip, r8
 80078d2:	e69c      	b.n	800760e <_malloc_r+0x12e>
 80078d4:	f104 0308 	add.w	r3, r4, #8
 80078d8:	6964      	ldr	r4, [r4, #20]
 80078da:	42a3      	cmp	r3, r4
 80078dc:	bf08      	it	eq
 80078de:	f10c 0c02 	addeq.w	ip, ip, #2
 80078e2:	f43f ae58 	beq.w	8007596 <_malloc_r+0xb6>
 80078e6:	e617      	b.n	8007518 <_malloc_r+0x38>
 80078e8:	1859      	adds	r1, r3, r1
 80078ea:	461c      	mov	r4, r3
 80078ec:	6848      	ldr	r0, [r1, #4]
 80078ee:	68db      	ldr	r3, [r3, #12]
 80078f0:	f854 2f08 	ldr.w	r2, [r4, #8]!
 80078f4:	f040 0001 	orr.w	r0, r0, #1
 80078f8:	6048      	str	r0, [r1, #4]
 80078fa:	60d3      	str	r3, [r2, #12]
 80078fc:	609a      	str	r2, [r3, #8]
 80078fe:	4630      	mov	r0, r6
 8007900:	f000 fa32 	bl	8007d68 <__malloc_unlock>
 8007904:	e618      	b.n	8007538 <_malloc_r+0x58>
 8007906:	f10c 0e5b 	add.w	lr, ip, #91	; 0x5b
 800790a:	ea4f 014e 	mov.w	r1, lr, lsl #1
 800790e:	e62c      	b.n	800756a <_malloc_r+0x8a>
 8007910:	ea4f 1891 	mov.w	r8, r1, lsr #6
 8007914:	f108 0938 	add.w	r9, r8, #56	; 0x38
 8007918:	ea4f 0249 	mov.w	r2, r9, lsl #1
 800791c:	e78c      	b.n	8007838 <_malloc_r+0x358>
 800791e:	42bc      	cmp	r4, r7
 8007920:	f43f aeee 	beq.w	8007700 <_malloc_r+0x220>
 8007924:	4c42      	ldr	r4, [pc, #264]	; (8007a30 <_malloc_r+0x550>)
 8007926:	68a4      	ldr	r4, [r4, #8]
 8007928:	6862      	ldr	r2, [r4, #4]
 800792a:	f022 0003 	bic.w	r0, r2, #3
 800792e:	e747      	b.n	80077c0 <_malloc_r+0x2e0>
 8007930:	f5bc 7faa 	cmp.w	ip, #340	; 0x154
 8007934:	d81c      	bhi.n	8007970 <_malloc_r+0x490>
 8007936:	ea4f 32d5 	mov.w	r2, r5, lsr #15
 800793a:	f102 0e77 	add.w	lr, r2, #119	; 0x77
 800793e:	ea4f 014e 	mov.w	r1, lr, lsl #1
 8007942:	e612      	b.n	800756a <_malloc_r+0x8a>
 8007944:	f44f 5280 	mov.w	r2, #4096	; 0x1000
 8007948:	e6f8      	b.n	800773c <_malloc_r+0x25c>
 800794a:	f8d8 0004 	ldr.w	r0, [r8, #4]
 800794e:	ea4f 02a9 	mov.w	r2, r9, asr #2
 8007952:	2101      	movs	r1, #1
 8007954:	fa01 f202 	lsl.w	r2, r1, r2
 8007958:	ea42 0900 	orr.w	r9, r2, r0
 800795c:	f8c8 9004 	str.w	r9, [r8, #4]
 8007960:	461a      	mov	r2, r3
 8007962:	e77c      	b.n	800785e <_malloc_r+0x37e>
 8007964:	2201      	movs	r2, #1
 8007966:	f8c8 2004 	str.w	r2, [r8, #4]
 800796a:	4644      	mov	r4, r8
 800796c:	2000      	movs	r0, #0
 800796e:	e727      	b.n	80077c0 <_malloc_r+0x2e0>
 8007970:	f240 5354 	movw	r3, #1364	; 0x554
 8007974:	459c      	cmp	ip, r3
 8007976:	d824      	bhi.n	80079c2 <_malloc_r+0x4e2>
 8007978:	ea4f 4095 	mov.w	r0, r5, lsr #18
 800797c:	f100 0e7c 	add.w	lr, r0, #124	; 0x7c
 8007980:	ea4f 014e 	mov.w	r1, lr, lsl #1
 8007984:	e5f1      	b.n	800756a <_malloc_r+0x8a>
 8007986:	f103 0c10 	add.w	ip, r3, #16
 800798a:	e6a9      	b.n	80076e0 <_malloc_r+0x200>
 800798c:	2854      	cmp	r0, #84	; 0x54
 800798e:	d82c      	bhi.n	80079ea <_malloc_r+0x50a>
 8007990:	ea4f 3211 	mov.w	r2, r1, lsr #12
 8007994:	f102 096e 	add.w	r9, r2, #110	; 0x6e
 8007998:	ea4f 0249 	mov.w	r2, r9, lsl #1
 800799c:	e74c      	b.n	8007838 <_malloc_r+0x358>
 800799e:	68bc      	ldr	r4, [r7, #8]
 80079a0:	6861      	ldr	r1, [r4, #4]
 80079a2:	f021 0003 	bic.w	r0, r1, #3
 80079a6:	e70b      	b.n	80077c0 <_malloc_r+0x2e0>
 80079a8:	ea4f 500b 	mov.w	r0, fp, lsl #20
 80079ac:	0d01      	lsrs	r1, r0, #20
 80079ae:	2900      	cmp	r1, #0
 80079b0:	f47f aeb0 	bne.w	8007714 <_malloc_r+0x234>
 80079b4:	68b8      	ldr	r0, [r7, #8]
 80079b6:	eb0c 0109 	add.w	r1, ip, r9
 80079ba:	f041 0401 	orr.w	r4, r1, #1
 80079be:	6044      	str	r4, [r0, #4]
 80079c0:	e6f0      	b.n	80077a4 <_malloc_r+0x2c4>
 80079c2:	21fc      	movs	r1, #252	; 0xfc
 80079c4:	f04f 0e7e 	mov.w	lr, #126	; 0x7e
 80079c8:	e5cf      	b.n	800756a <_malloc_r+0x8a>
 80079ca:	481a      	ldr	r0, [pc, #104]	; (8007a34 <_malloc_r+0x554>)
 80079cc:	f8c0 8000 	str.w	r8, [r0]
 80079d0:	e6a9      	b.n	8007726 <_malloc_r+0x246>
 80079d2:	f104 0108 	add.w	r1, r4, #8
 80079d6:	4c18      	ldr	r4, [pc, #96]	; (8007a38 <_malloc_r+0x558>)
 80079d8:	4630      	mov	r0, r6
 80079da:	f003 fb61 	bl	800b0a0 <_free_r>
 80079de:	6823      	ldr	r3, [r4, #0]
 80079e0:	e6e0      	b.n	80077a4 <_malloc_r+0x2c4>
 80079e2:	2001      	movs	r0, #1
 80079e4:	f04f 0b00 	mov.w	fp, #0
 80079e8:	e6bb      	b.n	8007762 <_malloc_r+0x282>
 80079ea:	f5b0 7faa 	cmp.w	r0, #340	; 0x154
 80079ee:	d806      	bhi.n	80079fe <_malloc_r+0x51e>
 80079f0:	ea4f 33d1 	mov.w	r3, r1, lsr #15
 80079f4:	f103 0977 	add.w	r9, r3, #119	; 0x77
 80079f8:	ea4f 0249 	mov.w	r2, r9, lsl #1
 80079fc:	e71c      	b.n	8007838 <_malloc_r+0x358>
 80079fe:	f240 5354 	movw	r3, #1364	; 0x554
 8007a02:	4298      	cmp	r0, r3
 8007a04:	d80f      	bhi.n	8007a26 <_malloc_r+0x546>
 8007a06:	ea4f 4091 	mov.w	r0, r1, lsr #18
 8007a0a:	f100 097c 	add.w	r9, r0, #124	; 0x7c
 8007a0e:	ea4f 0249 	mov.w	r2, r9, lsl #1
 8007a12:	e711      	b.n	8007838 <_malloc_r+0x358>
 8007a14:	687c      	ldr	r4, [r7, #4]
 8007a16:	ea24 0400 	bic.w	r4, r4, r0
 8007a1a:	607c      	str	r4, [r7, #4]
 8007a1c:	e74e      	b.n	80078bc <_malloc_r+0x3dc>
 8007a1e:	0040      	lsls	r0, r0, #1
 8007a20:	f108 0804 	add.w	r8, r8, #4
 8007a24:	e751      	b.n	80078ca <_malloc_r+0x3ea>
 8007a26:	22fc      	movs	r2, #252	; 0xfc
 8007a28:	f04f 097e 	mov.w	r9, #126	; 0x7e
 8007a2c:	e704      	b.n	8007838 <_malloc_r+0x358>
 8007a2e:	bf00      	nop
 8007a30:	100005dc 	.word	0x100005dc
 8007a34:	100009e8 	.word	0x100009e8
 8007a38:	10000df8 	.word	0x10000df8

08007a3c <memcmp>:
 8007a3c:	2a03      	cmp	r2, #3
 8007a3e:	b4f0      	push	{r4, r5, r6, r7}
 8007a40:	d931      	bls.n	8007aa6 <memcmp+0x6a>
 8007a42:	ea41 0300 	orr.w	r3, r1, r0
 8007a46:	079c      	lsls	r4, r3, #30
 8007a48:	d12e      	bne.n	8007aa8 <memcmp+0x6c>
 8007a4a:	6806      	ldr	r6, [r0, #0]
 8007a4c:	680f      	ldr	r7, [r1, #0]
 8007a4e:	1f15      	subs	r5, r2, #4
 8007a50:	1d03      	adds	r3, r0, #4
 8007a52:	1d0c      	adds	r4, r1, #4
 8007a54:	42be      	cmp	r6, r7
 8007a56:	f3c5 0c80 	ubfx	ip, r5, #2, #1
 8007a5a:	d124      	bne.n	8007aa6 <memcmp+0x6a>
 8007a5c:	2d03      	cmp	r5, #3
 8007a5e:	462a      	mov	r2, r5
 8007a60:	d91f      	bls.n	8007aa2 <memcmp+0x66>
 8007a62:	f1bc 0f00 	cmp.w	ip, #0
 8007a66:	d008      	beq.n	8007a7a <memcmp+0x3e>
 8007a68:	6825      	ldr	r5, [r4, #0]
 8007a6a:	681e      	ldr	r6, [r3, #0]
 8007a6c:	4621      	mov	r1, r4
 8007a6e:	4618      	mov	r0, r3
 8007a70:	3404      	adds	r4, #4
 8007a72:	3304      	adds	r3, #4
 8007a74:	42ae      	cmp	r6, r5
 8007a76:	d011      	beq.n	8007a9c <memcmp+0x60>
 8007a78:	e015      	b.n	8007aa6 <memcmp+0x6a>
 8007a7a:	4618      	mov	r0, r3
 8007a7c:	4621      	mov	r1, r4
 8007a7e:	6823      	ldr	r3, [r4, #0]
 8007a80:	6804      	ldr	r4, [r0, #0]
 8007a82:	1d05      	adds	r5, r0, #4
 8007a84:	1d0e      	adds	r6, r1, #4
 8007a86:	429c      	cmp	r4, r3
 8007a88:	d10d      	bne.n	8007aa6 <memcmp+0x6a>
 8007a8a:	4628      	mov	r0, r5
 8007a8c:	4631      	mov	r1, r6
 8007a8e:	6835      	ldr	r5, [r6, #0]
 8007a90:	6806      	ldr	r6, [r0, #0]
 8007a92:	3a04      	subs	r2, #4
 8007a94:	1d03      	adds	r3, r0, #4
 8007a96:	1d0c      	adds	r4, r1, #4
 8007a98:	42ae      	cmp	r6, r5
 8007a9a:	d104      	bne.n	8007aa6 <memcmp+0x6a>
 8007a9c:	3a04      	subs	r2, #4
 8007a9e:	2a03      	cmp	r2, #3
 8007aa0:	d8eb      	bhi.n	8007a7a <memcmp+0x3e>
 8007aa2:	4621      	mov	r1, r4
 8007aa4:	4618      	mov	r0, r3
 8007aa6:	b31a      	cbz	r2, 8007af0 <memcmp+0xb4>
 8007aa8:	7803      	ldrb	r3, [r0, #0]
 8007aaa:	780c      	ldrb	r4, [r1, #0]
 8007aac:	42a3      	cmp	r3, r4
 8007aae:	d10a      	bne.n	8007ac6 <memcmp+0x8a>
 8007ab0:	1e55      	subs	r5, r2, #1
 8007ab2:	2200      	movs	r2, #0
 8007ab4:	07eb      	lsls	r3, r5, #31
 8007ab6:	d514      	bpl.n	8007ae2 <memcmp+0xa6>
 8007ab8:	f810 3f01 	ldrb.w	r3, [r0, #1]!
 8007abc:	f811 4f01 	ldrb.w	r4, [r1, #1]!
 8007ac0:	2201      	movs	r2, #1
 8007ac2:	42a3      	cmp	r3, r4
 8007ac4:	d00d      	beq.n	8007ae2 <memcmp+0xa6>
 8007ac6:	1b18      	subs	r0, r3, r4
 8007ac8:	e010      	b.n	8007aec <memcmp+0xb0>
 8007aca:	f810 3f01 	ldrb.w	r3, [r0, #1]!
 8007ace:	f811 4f01 	ldrb.w	r4, [r1, #1]!
 8007ad2:	42a3      	cmp	r3, r4
 8007ad4:	d1f7      	bne.n	8007ac6 <memcmp+0x8a>
 8007ad6:	f810 3f01 	ldrb.w	r3, [r0, #1]!
 8007ada:	f811 4f01 	ldrb.w	r4, [r1, #1]!
 8007ade:	42a3      	cmp	r3, r4
 8007ae0:	d1f1      	bne.n	8007ac6 <memcmp+0x8a>
 8007ae2:	42aa      	cmp	r2, r5
 8007ae4:	f102 0202 	add.w	r2, r2, #2
 8007ae8:	d1ef      	bne.n	8007aca <memcmp+0x8e>
 8007aea:	2000      	movs	r0, #0
 8007aec:	bcf0      	pop	{r4, r5, r6, r7}
 8007aee:	4770      	bx	lr
 8007af0:	4610      	mov	r0, r2
 8007af2:	e7fb      	b.n	8007aec <memcmp+0xb0>

08007af4 <memcpy>:
 8007af4:	2a0f      	cmp	r2, #15
 8007af6:	e92d 03f0 	stmdb	sp!, {r4, r5, r6, r7, r8, r9}
 8007afa:	f240 8095 	bls.w	8007c28 <memcpy+0x134>
 8007afe:	ea41 0300 	orr.w	r3, r1, r0
 8007b02:	079b      	lsls	r3, r3, #30
 8007b04:	f040 8092 	bne.w	8007c2c <memcpy+0x138>
 8007b08:	680c      	ldr	r4, [r1, #0]
 8007b0a:	6004      	str	r4, [r0, #0]
 8007b0c:	684d      	ldr	r5, [r1, #4]
 8007b0e:	6045      	str	r5, [r0, #4]
 8007b10:	688e      	ldr	r6, [r1, #8]
 8007b12:	f1a2 0310 	sub.w	r3, r2, #16
 8007b16:	6086      	str	r6, [r0, #8]
 8007b18:	68cc      	ldr	r4, [r1, #12]
 8007b1a:	461d      	mov	r5, r3
 8007b1c:	2d0f      	cmp	r5, #15
 8007b1e:	60c4      	str	r4, [r0, #12]
 8007b20:	f3c3 1600 	ubfx	r6, r3, #4, #1
 8007b24:	f101 0410 	add.w	r4, r1, #16
 8007b28:	f100 0310 	add.w	r3, r0, #16
 8007b2c:	d922      	bls.n	8007b74 <memcpy+0x80>
 8007b2e:	b166      	cbz	r6, 8007b4a <memcpy+0x56>
 8007b30:	6826      	ldr	r6, [r4, #0]
 8007b32:	601e      	str	r6, [r3, #0]
 8007b34:	6866      	ldr	r6, [r4, #4]
 8007b36:	605e      	str	r6, [r3, #4]
 8007b38:	68a6      	ldr	r6, [r4, #8]
 8007b3a:	609e      	str	r6, [r3, #8]
 8007b3c:	68e6      	ldr	r6, [r4, #12]
 8007b3e:	3d10      	subs	r5, #16
 8007b40:	60de      	str	r6, [r3, #12]
 8007b42:	3410      	adds	r4, #16
 8007b44:	3310      	adds	r3, #16
 8007b46:	2d0f      	cmp	r5, #15
 8007b48:	d914      	bls.n	8007b74 <memcpy+0x80>
 8007b4a:	6826      	ldr	r6, [r4, #0]
 8007b4c:	601e      	str	r6, [r3, #0]
 8007b4e:	6866      	ldr	r6, [r4, #4]
 8007b50:	605e      	str	r6, [r3, #4]
 8007b52:	68a6      	ldr	r6, [r4, #8]
 8007b54:	609e      	str	r6, [r3, #8]
 8007b56:	68e6      	ldr	r6, [r4, #12]
 8007b58:	60de      	str	r6, [r3, #12]
 8007b5a:	6926      	ldr	r6, [r4, #16]
 8007b5c:	611e      	str	r6, [r3, #16]
 8007b5e:	6966      	ldr	r6, [r4, #20]
 8007b60:	615e      	str	r6, [r3, #20]
 8007b62:	69a6      	ldr	r6, [r4, #24]
 8007b64:	619e      	str	r6, [r3, #24]
 8007b66:	69e6      	ldr	r6, [r4, #28]
 8007b68:	3d20      	subs	r5, #32
 8007b6a:	61de      	str	r6, [r3, #28]
 8007b6c:	3420      	adds	r4, #32
 8007b6e:	3320      	adds	r3, #32
 8007b70:	2d0f      	cmp	r5, #15
 8007b72:	d8ea      	bhi.n	8007b4a <memcpy+0x56>
 8007b74:	f1a2 0310 	sub.w	r3, r2, #16
 8007b78:	f023 040f 	bic.w	r4, r3, #15
 8007b7c:	f002 030f 	and.w	r3, r2, #15
 8007b80:	3410      	adds	r4, #16
 8007b82:	2b03      	cmp	r3, #3
 8007b84:	eb00 0804 	add.w	r8, r0, r4
 8007b88:	4421      	add	r1, r4
 8007b8a:	d951      	bls.n	8007c30 <memcpy+0x13c>
 8007b8c:	f1a3 0904 	sub.w	r9, r3, #4
 8007b90:	460b      	mov	r3, r1
 8007b92:	ea4f 0999 	mov.w	r9, r9, lsr #2
 8007b96:	eb01 0c89 	add.w	ip, r1, r9, lsl #2
 8007b9a:	f853 6b04 	ldr.w	r6, [r3], #4
 8007b9e:	ebc1 050c 	rsb	r5, r1, ip
 8007ba2:	4644      	mov	r4, r8
 8007ba4:	f10c 0c04 	add.w	ip, ip, #4
 8007ba8:	4563      	cmp	r3, ip
 8007baa:	f844 6b04 	str.w	r6, [r4], #4
 8007bae:	f3c5 0580 	ubfx	r5, r5, #2, #1
 8007bb2:	d012      	beq.n	8007bda <memcpy+0xe6>
 8007bb4:	b12d      	cbz	r5, 8007bc2 <memcpy+0xce>
 8007bb6:	f853 5b04 	ldr.w	r5, [r3], #4
 8007bba:	4563      	cmp	r3, ip
 8007bbc:	f844 5b04 	str.w	r5, [r4], #4
 8007bc0:	d00b      	beq.n	8007bda <memcpy+0xe6>
 8007bc2:	461e      	mov	r6, r3
 8007bc4:	4625      	mov	r5, r4
 8007bc6:	f856 7b04 	ldr.w	r7, [r6], #4
 8007bca:	f845 7b04 	str.w	r7, [r5], #4
 8007bce:	685f      	ldr	r7, [r3, #4]
 8007bd0:	1d33      	adds	r3, r6, #4
 8007bd2:	6067      	str	r7, [r4, #4]
 8007bd4:	1d2c      	adds	r4, r5, #4
 8007bd6:	4563      	cmp	r3, ip
 8007bd8:	d1f3      	bne.n	8007bc2 <memcpy+0xce>
 8007bda:	f109 0301 	add.w	r3, r9, #1
 8007bde:	009c      	lsls	r4, r3, #2
 8007be0:	1909      	adds	r1, r1, r4
 8007be2:	f002 0203 	and.w	r2, r2, #3
 8007be6:	4444      	add	r4, r8
 8007be8:	b1da      	cbz	r2, 8007c22 <memcpy+0x12e>
 8007bea:	4623      	mov	r3, r4
 8007bec:	780d      	ldrb	r5, [r1, #0]
 8007bee:	f803 5b01 	strb.w	r5, [r3], #1
 8007bf2:	18a2      	adds	r2, r4, r2
 8007bf4:	43e4      	mvns	r4, r4
 8007bf6:	1914      	adds	r4, r2, r4
 8007bf8:	4293      	cmp	r3, r2
 8007bfa:	f004 0401 	and.w	r4, r4, #1
 8007bfe:	d010      	beq.n	8007c22 <memcpy+0x12e>
 8007c00:	b12c      	cbz	r4, 8007c0e <memcpy+0x11a>
 8007c02:	f811 4f01 	ldrb.w	r4, [r1, #1]!
 8007c06:	f803 4b01 	strb.w	r4, [r3], #1
 8007c0a:	4293      	cmp	r3, r2
 8007c0c:	d009      	beq.n	8007c22 <memcpy+0x12e>
 8007c0e:	784d      	ldrb	r5, [r1, #1]
 8007c10:	461c      	mov	r4, r3
 8007c12:	f804 5b01 	strb.w	r5, [r4], #1
 8007c16:	788d      	ldrb	r5, [r1, #2]
 8007c18:	705d      	strb	r5, [r3, #1]
 8007c1a:	1c63      	adds	r3, r4, #1
 8007c1c:	3102      	adds	r1, #2
 8007c1e:	4293      	cmp	r3, r2
 8007c20:	d1f5      	bne.n	8007c0e <memcpy+0x11a>
 8007c22:	e8bd 03f0 	ldmia.w	sp!, {r4, r5, r6, r7, r8, r9}
 8007c26:	4770      	bx	lr
 8007c28:	4604      	mov	r4, r0
 8007c2a:	e7dd      	b.n	8007be8 <memcpy+0xf4>
 8007c2c:	4604      	mov	r4, r0
 8007c2e:	e7dc      	b.n	8007bea <memcpy+0xf6>
 8007c30:	4644      	mov	r4, r8
 8007c32:	461a      	mov	r2, r3
 8007c34:	e7d8      	b.n	8007be8 <memcpy+0xf4>
 8007c36:	bf00      	nop

08007c38 <memset>:
 8007c38:	b4f0      	push	{r4, r5, r6, r7}
 8007c3a:	0784      	lsls	r4, r0, #30
 8007c3c:	4603      	mov	r3, r0
 8007c3e:	f000 808e 	beq.w	8007d5e <memset+0x126>
 8007c42:	1e54      	subs	r4, r2, #1
 8007c44:	2a00      	cmp	r2, #0
 8007c46:	f000 8088 	beq.w	8007d5a <memset+0x122>
 8007c4a:	07e5      	lsls	r5, r4, #31
 8007c4c:	b2ce      	uxtb	r6, r1
 8007c4e:	d411      	bmi.n	8007c74 <memset+0x3c>
 8007c50:	461a      	mov	r2, r3
 8007c52:	1e67      	subs	r7, r4, #1
 8007c54:	f802 6b01 	strb.w	r6, [r2], #1
 8007c58:	4613      	mov	r3, r2
 8007c5a:	4615      	mov	r5, r2
 8007c5c:	0792      	lsls	r2, r2, #30
 8007c5e:	d00f      	beq.n	8007c80 <memset+0x48>
 8007c60:	2c00      	cmp	r4, #0
 8007c62:	d07a      	beq.n	8007d5a <memset+0x122>
 8007c64:	f803 6b01 	strb.w	r6, [r3], #1
 8007c68:	079a      	lsls	r2, r3, #30
 8007c6a:	463c      	mov	r4, r7
 8007c6c:	461d      	mov	r5, r3
 8007c6e:	d007      	beq.n	8007c80 <memset+0x48>
 8007c70:	3c01      	subs	r4, #1
 8007c72:	e7ed      	b.n	8007c50 <memset+0x18>
 8007c74:	4603      	mov	r3, r0
 8007c76:	f803 6b01 	strb.w	r6, [r3], #1
 8007c7a:	079a      	lsls	r2, r3, #30
 8007c7c:	461d      	mov	r5, r3
 8007c7e:	d1f7      	bne.n	8007c70 <memset+0x38>
 8007c80:	2c03      	cmp	r4, #3
 8007c82:	d952      	bls.n	8007d2a <memset+0xf2>
 8007c84:	b2ce      	uxtb	r6, r1
 8007c86:	ea46 2706 	orr.w	r7, r6, r6, lsl #8
 8007c8a:	2c0f      	cmp	r4, #15
 8007c8c:	ea47 4307 	orr.w	r3, r7, r7, lsl #16
 8007c90:	d92d      	bls.n	8007cee <memset+0xb6>
 8007c92:	f1a4 0210 	sub.w	r2, r4, #16
 8007c96:	4617      	mov	r7, r2
 8007c98:	2f0f      	cmp	r7, #15
 8007c9a:	f3c2 1600 	ubfx	r6, r2, #4, #1
 8007c9e:	602b      	str	r3, [r5, #0]
 8007ca0:	606b      	str	r3, [r5, #4]
 8007ca2:	60ab      	str	r3, [r5, #8]
 8007ca4:	60eb      	str	r3, [r5, #12]
 8007ca6:	f105 0210 	add.w	r2, r5, #16
 8007caa:	d916      	bls.n	8007cda <memset+0xa2>
 8007cac:	b13e      	cbz	r6, 8007cbe <memset+0x86>
 8007cae:	3f10      	subs	r7, #16
 8007cb0:	6013      	str	r3, [r2, #0]
 8007cb2:	6053      	str	r3, [r2, #4]
 8007cb4:	6093      	str	r3, [r2, #8]
 8007cb6:	60d3      	str	r3, [r2, #12]
 8007cb8:	3210      	adds	r2, #16
 8007cba:	2f0f      	cmp	r7, #15
 8007cbc:	d90d      	bls.n	8007cda <memset+0xa2>
 8007cbe:	3f20      	subs	r7, #32
 8007cc0:	f102 0610 	add.w	r6, r2, #16
 8007cc4:	6013      	str	r3, [r2, #0]
 8007cc6:	6053      	str	r3, [r2, #4]
 8007cc8:	6093      	str	r3, [r2, #8]
 8007cca:	60d3      	str	r3, [r2, #12]
 8007ccc:	6113      	str	r3, [r2, #16]
 8007cce:	6153      	str	r3, [r2, #20]
 8007cd0:	6193      	str	r3, [r2, #24]
 8007cd2:	61d3      	str	r3, [r2, #28]
 8007cd4:	3220      	adds	r2, #32
 8007cd6:	2f0f      	cmp	r7, #15
 8007cd8:	d8f1      	bhi.n	8007cbe <memset+0x86>
 8007cda:	f1a4 0210 	sub.w	r2, r4, #16
 8007cde:	f022 020f 	bic.w	r2, r2, #15
 8007ce2:	f004 040f 	and.w	r4, r4, #15
 8007ce6:	3210      	adds	r2, #16
 8007ce8:	2c03      	cmp	r4, #3
 8007cea:	4415      	add	r5, r2
 8007cec:	d91d      	bls.n	8007d2a <memset+0xf2>
 8007cee:	1f27      	subs	r7, r4, #4
 8007cf0:	463e      	mov	r6, r7
 8007cf2:	462a      	mov	r2, r5
 8007cf4:	2e03      	cmp	r6, #3
 8007cf6:	f842 3b04 	str.w	r3, [r2], #4
 8007cfa:	f3c7 0780 	ubfx	r7, r7, #2, #1
 8007cfe:	d90d      	bls.n	8007d1c <memset+0xe4>
 8007d00:	b127      	cbz	r7, 8007d0c <memset+0xd4>
 8007d02:	3e04      	subs	r6, #4
 8007d04:	2e03      	cmp	r6, #3
 8007d06:	f842 3b04 	str.w	r3, [r2], #4
 8007d0a:	d907      	bls.n	8007d1c <memset+0xe4>
 8007d0c:	4617      	mov	r7, r2
 8007d0e:	3e08      	subs	r6, #8
 8007d10:	f847 3b04 	str.w	r3, [r7], #4
 8007d14:	6053      	str	r3, [r2, #4]
 8007d16:	1d3a      	adds	r2, r7, #4
 8007d18:	2e03      	cmp	r6, #3
 8007d1a:	d8f7      	bhi.n	8007d0c <memset+0xd4>
 8007d1c:	1f23      	subs	r3, r4, #4
 8007d1e:	f023 0203 	bic.w	r2, r3, #3
 8007d22:	1d13      	adds	r3, r2, #4
 8007d24:	f004 0403 	and.w	r4, r4, #3
 8007d28:	18ed      	adds	r5, r5, r3
 8007d2a:	b1b4      	cbz	r4, 8007d5a <memset+0x122>
 8007d2c:	462b      	mov	r3, r5
 8007d2e:	b2c9      	uxtb	r1, r1
 8007d30:	f803 1b01 	strb.w	r1, [r3], #1
 8007d34:	192c      	adds	r4, r5, r4
 8007d36:	43ed      	mvns	r5, r5
 8007d38:	1962      	adds	r2, r4, r5
 8007d3a:	42a3      	cmp	r3, r4
 8007d3c:	f002 0501 	and.w	r5, r2, #1
 8007d40:	d00b      	beq.n	8007d5a <memset+0x122>
 8007d42:	b11d      	cbz	r5, 8007d4c <memset+0x114>
 8007d44:	f803 1b01 	strb.w	r1, [r3], #1
 8007d48:	42a3      	cmp	r3, r4
 8007d4a:	d006      	beq.n	8007d5a <memset+0x122>
 8007d4c:	461a      	mov	r2, r3
 8007d4e:	f802 1b01 	strb.w	r1, [r2], #1
 8007d52:	7059      	strb	r1, [r3, #1]
 8007d54:	1c53      	adds	r3, r2, #1
 8007d56:	42a3      	cmp	r3, r4
 8007d58:	d1f8      	bne.n	8007d4c <memset+0x114>
 8007d5a:	bcf0      	pop	{r4, r5, r6, r7}
 8007d5c:	4770      	bx	lr
 8007d5e:	4605      	mov	r5, r0
 8007d60:	4614      	mov	r4, r2
 8007d62:	e78d      	b.n	8007c80 <memset+0x48>

08007d64 <__malloc_lock>:
 8007d64:	4770      	bx	lr
 8007d66:	bf00      	nop

08007d68 <__malloc_unlock>:
 8007d68:	4770      	bx	lr
 8007d6a:	bf00      	nop

08007d6c <_sbrk_r>:
 8007d6c:	b538      	push	{r3, r4, r5, lr}
 8007d6e:	4c07      	ldr	r4, [pc, #28]	; (8007d8c <_sbrk_r+0x20>)
 8007d70:	2300      	movs	r3, #0
 8007d72:	4605      	mov	r5, r0
 8007d74:	4608      	mov	r0, r1
 8007d76:	6023      	str	r3, [r4, #0]
 8007d78:	f7fd fabe 	bl	80052f8 <_sbrk>
 8007d7c:	1c43      	adds	r3, r0, #1
 8007d7e:	d000      	beq.n	8007d82 <_sbrk_r+0x16>
 8007d80:	bd38      	pop	{r3, r4, r5, pc}
 8007d82:	6821      	ldr	r1, [r4, #0]
 8007d84:	2900      	cmp	r1, #0
 8007d86:	d0fb      	beq.n	8007d80 <_sbrk_r+0x14>
 8007d88:	6029      	str	r1, [r5, #0]
 8007d8a:	bd38      	pop	{r3, r4, r5, pc}
 8007d8c:	10000e60 	.word	0x10000e60

08007d90 <sprintf>:
 8007d90:	b40e      	push	{r1, r2, r3}
 8007d92:	b570      	push	{r4, r5, r6, lr}
 8007d94:	b09d      	sub	sp, #116	; 0x74
 8007d96:	ac21      	add	r4, sp, #132	; 0x84
 8007d98:	f240 53d8 	movw	r3, #1496	; 0x5d8
 8007d9c:	f854 2b04 	ldr.w	r2, [r4], #4
 8007da0:	f2c1 0300 	movt	r3, #4096	; 0x1000
 8007da4:	f06f 4500 	mvn.w	r5, #2147483648	; 0x80000000
 8007da8:	f44f 7102 	mov.w	r1, #520	; 0x208
 8007dac:	4606      	mov	r6, r0
 8007dae:	f8ad 1014 	strh.w	r1, [sp, #20]
 8007db2:	9504      	str	r5, [sp, #16]
 8007db4:	9507      	str	r5, [sp, #28]
 8007db6:	6818      	ldr	r0, [r3, #0]
 8007db8:	9602      	str	r6, [sp, #8]
 8007dba:	4623      	mov	r3, r4
 8007dbc:	a902      	add	r1, sp, #8
 8007dbe:	f64f 75ff 	movw	r5, #65535	; 0xffff
 8007dc2:	9606      	str	r6, [sp, #24]
 8007dc4:	f8ad 5016 	strh.w	r5, [sp, #22]
 8007dc8:	9401      	str	r4, [sp, #4]
 8007dca:	f000 f897 	bl	8007efc <_svfprintf_r>
 8007dce:	9b02      	ldr	r3, [sp, #8]
 8007dd0:	2200      	movs	r2, #0
 8007dd2:	701a      	strb	r2, [r3, #0]
 8007dd4:	b01d      	add	sp, #116	; 0x74
 8007dd6:	e8bd 4070 	ldmia.w	sp!, {r4, r5, r6, lr}
 8007dda:	b003      	add	sp, #12
 8007ddc:	4770      	bx	lr
 8007dde:	bf00      	nop

08007de0 <strcpy>:
 8007de0:	ea80 0201 	eor.w	r2, r0, r1
 8007de4:	4684      	mov	ip, r0
 8007de6:	f012 0f03 	tst.w	r2, #3
 8007dea:	d14f      	bne.n	8007e8c <strcpy+0xac>
 8007dec:	f011 0f03 	tst.w	r1, #3
 8007df0:	d132      	bne.n	8007e58 <strcpy+0x78>
 8007df2:	f84d 4d04 	str.w	r4, [sp, #-4]!
 8007df6:	f011 0f04 	tst.w	r1, #4
 8007dfa:	f851 3b04 	ldr.w	r3, [r1], #4
 8007dfe:	d00b      	beq.n	8007e18 <strcpy+0x38>
 8007e00:	f1a3 3201 	sub.w	r2, r3, #16843009	; 0x1010101
 8007e04:	439a      	bics	r2, r3
 8007e06:	f012 3f80 	tst.w	r2, #2155905152	; 0x80808080
 8007e0a:	bf04      	itt	eq
 8007e0c:	f84c 3b04 	streq.w	r3, [ip], #4
 8007e10:	f851 3b04 	ldreq.w	r3, [r1], #4
 8007e14:	d116      	bne.n	8007e44 <strcpy+0x64>
 8007e16:	bf00      	nop
 8007e18:	f851 4b04 	ldr.w	r4, [r1], #4
 8007e1c:	f1a3 3201 	sub.w	r2, r3, #16843009	; 0x1010101
 8007e20:	439a      	bics	r2, r3
 8007e22:	f012 3f80 	tst.w	r2, #2155905152	; 0x80808080
 8007e26:	f1a4 3201 	sub.w	r2, r4, #16843009	; 0x1010101
 8007e2a:	d10b      	bne.n	8007e44 <strcpy+0x64>
 8007e2c:	f84c 3b04 	str.w	r3, [ip], #4
 8007e30:	43a2      	bics	r2, r4
 8007e32:	f012 3f80 	tst.w	r2, #2155905152	; 0x80808080
 8007e36:	bf04      	itt	eq
 8007e38:	f851 3b04 	ldreq.w	r3, [r1], #4
 8007e3c:	f84c 4b04 	streq.w	r4, [ip], #4
 8007e40:	d0ea      	beq.n	8007e18 <strcpy+0x38>
 8007e42:	4623      	mov	r3, r4
 8007e44:	f80c 3b01 	strb.w	r3, [ip], #1
 8007e48:	f013 0fff 	tst.w	r3, #255	; 0xff
 8007e4c:	ea4f 2333 	mov.w	r3, r3, ror #8
 8007e50:	d1f8      	bne.n	8007e44 <strcpy+0x64>
 8007e52:	f85d 4b04 	ldr.w	r4, [sp], #4
 8007e56:	4770      	bx	lr
 8007e58:	f011 0f01 	tst.w	r1, #1
 8007e5c:	d006      	beq.n	8007e6c <strcpy+0x8c>
 8007e5e:	f811 2b01 	ldrb.w	r2, [r1], #1
 8007e62:	f80c 2b01 	strb.w	r2, [ip], #1
 8007e66:	2a00      	cmp	r2, #0
 8007e68:	bf08      	it	eq
 8007e6a:	4770      	bxeq	lr
 8007e6c:	f011 0f02 	tst.w	r1, #2
 8007e70:	d0bf      	beq.n	8007df2 <strcpy+0x12>
 8007e72:	f831 2b02 	ldrh.w	r2, [r1], #2
 8007e76:	f012 0fff 	tst.w	r2, #255	; 0xff
 8007e7a:	bf16      	itet	ne
 8007e7c:	f82c 2b02 	strhne.w	r2, [ip], #2
 8007e80:	f88c 2000 	strbeq.w	r2, [ip]
 8007e84:	f412 4f7f 	tstne.w	r2, #65280	; 0xff00
 8007e88:	d1b3      	bne.n	8007df2 <strcpy+0x12>
 8007e8a:	4770      	bx	lr
 8007e8c:	f811 2b01 	ldrb.w	r2, [r1], #1
 8007e90:	f80c 2b01 	strb.w	r2, [ip], #1
 8007e94:	2a00      	cmp	r2, #0
 8007e96:	d1f9      	bne.n	8007e8c <strcpy+0xac>
 8007e98:	4770      	bx	lr
 8007e9a:	bf00      	nop

08007e9c <strlen>:
 8007e9c:	f020 0103 	bic.w	r1, r0, #3
 8007ea0:	f010 0003 	ands.w	r0, r0, #3
 8007ea4:	f1c0 0000 	rsb	r0, r0, #0
 8007ea8:	f851 3b04 	ldr.w	r3, [r1], #4
 8007eac:	f100 0c04 	add.w	ip, r0, #4
 8007eb0:	ea4f 0ccc 	mov.w	ip, ip, lsl #3
 8007eb4:	f06f 0200 	mvn.w	r2, #0
 8007eb8:	bf1c      	itt	ne
 8007eba:	fa22 f20c 	lsrne.w	r2, r2, ip
 8007ebe:	4313      	orrne	r3, r2
 8007ec0:	f04f 0c01 	mov.w	ip, #1
 8007ec4:	ea4c 2c0c 	orr.w	ip, ip, ip, lsl #8
 8007ec8:	ea4c 4c0c 	orr.w	ip, ip, ip, lsl #16
 8007ecc:	eba3 020c 	sub.w	r2, r3, ip
 8007ed0:	ea22 0203 	bic.w	r2, r2, r3
 8007ed4:	ea12 12cc 	ands.w	r2, r2, ip, lsl #7
 8007ed8:	bf04      	itt	eq
 8007eda:	f851 3b04 	ldreq.w	r3, [r1], #4
 8007ede:	3004      	addeq	r0, #4
 8007ee0:	d0f4      	beq.n	8007ecc <strlen+0x30>
 8007ee2:	f013 0fff 	tst.w	r3, #255	; 0xff
 8007ee6:	bf1f      	itttt	ne
 8007ee8:	3001      	addne	r0, #1
 8007eea:	f413 4f7f 	tstne.w	r3, #65280	; 0xff00
 8007eee:	3001      	addne	r0, #1
 8007ef0:	f413 0f7f 	tstne.w	r3, #16711680	; 0xff0000
 8007ef4:	bf18      	it	ne
 8007ef6:	3001      	addne	r0, #1
 8007ef8:	4770      	bx	lr
 8007efa:	bf00      	nop

08007efc <_svfprintf_r>:
 8007efc:	e92d 4ff0 	stmdb	sp!, {r4, r5, r6, r7, r8, r9, sl, fp, lr}
 8007f00:	b0bf      	sub	sp, #252	; 0xfc
 8007f02:	4614      	mov	r4, r2
 8007f04:	9106      	str	r1, [sp, #24]
 8007f06:	930c      	str	r3, [sp, #48]	; 0x30
 8007f08:	9008      	str	r0, [sp, #32]
 8007f0a:	f003 f993 	bl	800b234 <_localeconv_r>
 8007f0e:	6800      	ldr	r0, [r0, #0]
 8007f10:	900f      	str	r0, [sp, #60]	; 0x3c
 8007f12:	f7ff ffc3 	bl	8007e9c <strlen>
 8007f16:	9011      	str	r0, [sp, #68]	; 0x44
 8007f18:	9806      	ldr	r0, [sp, #24]
 8007f1a:	8983      	ldrh	r3, [r0, #12]
 8007f1c:	f003 0180 	and.w	r1, r3, #128	; 0x80
 8007f20:	b20a      	sxth	r2, r1
 8007f22:	2000      	movs	r0, #0
 8007f24:	2100      	movs	r1, #0
 8007f26:	e9cd 0112 	strd	r0, r1, [sp, #72]	; 0x48
 8007f2a:	b122      	cbz	r2, 8007f36 <_svfprintf_r+0x3a>
 8007f2c:	9806      	ldr	r0, [sp, #24]
 8007f2e:	6903      	ldr	r3, [r0, #16]
 8007f30:	2b00      	cmp	r3, #0
 8007f32:	f001 82cc 	beq.w	80094ce <_svfprintf_r+0x15d2>
 8007f36:	2000      	movs	r0, #0
 8007f38:	ab2e      	add	r3, sp, #184	; 0xb8
 8007f3a:	f8df 9500 	ldr.w	r9, [pc, #1280]	; 800843c <_svfprintf_r+0x540>
 8007f3e:	900d      	str	r0, [sp, #52]	; 0x34
 8007f40:	9303      	str	r3, [sp, #12]
 8007f42:	9321      	str	r3, [sp, #132]	; 0x84
 8007f44:	9023      	str	r0, [sp, #140]	; 0x8c
 8007f46:	9022      	str	r0, [sp, #136]	; 0x88
 8007f48:	46a2      	mov	sl, r4
 8007f4a:	9014      	str	r0, [sp, #80]	; 0x50
 8007f4c:	9015      	str	r0, [sp, #84]	; 0x54
 8007f4e:	900b      	str	r0, [sp, #44]	; 0x2c
 8007f50:	461e      	mov	r6, r3
 8007f52:	f89a 4000 	ldrb.w	r4, [sl]
 8007f56:	2c00      	cmp	r4, #0
 8007f58:	f000 819c 	beq.w	8008294 <_svfprintf_r+0x398>
 8007f5c:	2c25      	cmp	r4, #37	; 0x25
 8007f5e:	f000 8199 	beq.w	8008294 <_svfprintf_r+0x398>
 8007f62:	f10a 0501 	add.w	r5, sl, #1
 8007f66:	e001      	b.n	8007f6c <_svfprintf_r+0x70>
 8007f68:	2925      	cmp	r1, #37	; 0x25
 8007f6a:	d004      	beq.n	8007f76 <_svfprintf_r+0x7a>
 8007f6c:	462c      	mov	r4, r5
 8007f6e:	3501      	adds	r5, #1
 8007f70:	7821      	ldrb	r1, [r4, #0]
 8007f72:	2900      	cmp	r1, #0
 8007f74:	d1f8      	bne.n	8007f68 <_svfprintf_r+0x6c>
 8007f76:	ebca 0504 	rsb	r5, sl, r4
 8007f7a:	b17d      	cbz	r5, 8007f9c <_svfprintf_r+0xa0>
 8007f7c:	9b22      	ldr	r3, [sp, #136]	; 0x88
 8007f7e:	9a23      	ldr	r2, [sp, #140]	; 0x8c
 8007f80:	f8c6 a000 	str.w	sl, [r6]
 8007f84:	1c59      	adds	r1, r3, #1
 8007f86:	1950      	adds	r0, r2, r5
 8007f88:	2907      	cmp	r1, #7
 8007f8a:	6075      	str	r5, [r6, #4]
 8007f8c:	9023      	str	r0, [sp, #140]	; 0x8c
 8007f8e:	9122      	str	r1, [sp, #136]	; 0x88
 8007f90:	f300 8164 	bgt.w	800825c <_svfprintf_r+0x360>
 8007f94:	3608      	adds	r6, #8
 8007f96:	9a0b      	ldr	r2, [sp, #44]	; 0x2c
 8007f98:	1950      	adds	r0, r2, r5
 8007f9a:	900b      	str	r0, [sp, #44]	; 0x2c
 8007f9c:	7823      	ldrb	r3, [r4, #0]
 8007f9e:	2b00      	cmp	r3, #0
 8007fa0:	f000 8164 	beq.w	800826c <_svfprintf_r+0x370>
 8007fa4:	2200      	movs	r2, #0
 8007fa6:	f04f 31ff 	mov.w	r1, #4294967295
 8007faa:	f894 8001 	ldrb.w	r8, [r4, #1]
 8007fae:	9105      	str	r1, [sp, #20]
 8007fb0:	9209      	str	r2, [sp, #36]	; 0x24
 8007fb2:	f104 0a01 	add.w	sl, r4, #1
 8007fb6:	f88d 2063 	strb.w	r2, [sp, #99]	; 0x63
 8007fba:	9204      	str	r2, [sp, #16]
 8007fbc:	2020      	movs	r0, #32
 8007fbe:	212b      	movs	r1, #43	; 0x2b
 8007fc0:	f10a 0a01 	add.w	sl, sl, #1
 8007fc4:	f1a8 0320 	sub.w	r3, r8, #32
 8007fc8:	2b58      	cmp	r3, #88	; 0x58
 8007fca:	f200 82bb 	bhi.w	8008544 <_svfprintf_r+0x648>
 8007fce:	e8df f013 	tbh	[pc, r3, lsl #1]
 8007fd2:	01fd      	.short	0x01fd
 8007fd4:	02b902b9 	.word	0x02b902b9
 8007fd8:	02b90207 	.word	0x02b90207
 8007fdc:	02b902b9 	.word	0x02b902b9
 8007fe0:	02b902b9 	.word	0x02b902b9
 8007fe4:	01b302b9 	.word	0x01b302b9
 8007fe8:	02b90250 	.word	0x02b90250
 8007fec:	020e013e 	.word	0x020e013e
 8007ff0:	02c702b9 	.word	0x02c702b9
 8007ff4:	02ce02ce 	.word	0x02ce02ce
 8007ff8:	02ce02ce 	.word	0x02ce02ce
 8007ffc:	02ce02ce 	.word	0x02ce02ce
 8008000:	02ce02ce 	.word	0x02ce02ce
 8008004:	02b902ce 	.word	0x02b902ce
 8008008:	02b902b9 	.word	0x02b902b9
 800800c:	02b902b9 	.word	0x02b902b9
 8008010:	02b902b9 	.word	0x02b902b9
 8008014:	02b902b9 	.word	0x02b902b9
 8008018:	008402b9 	.word	0x008402b9
 800801c:	02b90180 	.word	0x02b90180
 8008020:	02b90180 	.word	0x02b90180
 8008024:	02b902b9 	.word	0x02b902b9
 8008028:	024902b9 	.word	0x024902b9
 800802c:	02b902b9 	.word	0x02b902b9
 8008030:	02b9006d 	.word	0x02b9006d
 8008034:	02b902b9 	.word	0x02b902b9
 8008038:	02b902b9 	.word	0x02b902b9
 800803c:	02b90059 	.word	0x02b90059
 8008040:	01df02b9 	.word	0x01df02b9
 8008044:	02b902b9 	.word	0x02b902b9
 8008048:	02b902b9 	.word	0x02b902b9
 800804c:	02b902b9 	.word	0x02b902b9
 8008050:	02b902b9 	.word	0x02b902b9
 8008054:	02b902b9 	.word	0x02b902b9
 8008058:	00880237 	.word	0x00880237
 800805c:	01800180 	.word	0x01800180
 8008060:	02890180 	.word	0x02890180
 8008064:	02b90088 	.word	0x02b90088
 8008068:	02ad02b9 	.word	0x02ad02b9
 800806c:	025502b9 	.word	0x025502b9
 8008070:	02900071 	.word	0x02900071
 8008074:	02b902a6 	.word	0x02b902a6
 8008078:	02b90263 	.word	0x02b90263
 800807c:	02b9005d 	.word	0x02b9005d
 8008080:	01bf02b9 	.word	0x01bf02b9
 8008084:	9d04      	ldr	r5, [sp, #16]
 8008086:	f045 0410 	orr.w	r4, r5, #16
 800808a:	9404      	str	r4, [sp, #16]
 800808c:	9b04      	ldr	r3, [sp, #16]
 800808e:	069d      	lsls	r5, r3, #26
 8008090:	f100 8191 	bmi.w	80083b6 <_svfprintf_r+0x4ba>
 8008094:	9904      	ldr	r1, [sp, #16]
 8008096:	06cc      	lsls	r4, r1, #27
 8008098:	f141 8098 	bpl.w	80091cc <_svfprintf_r+0x12d0>
 800809c:	9a0c      	ldr	r2, [sp, #48]	; 0x30
 800809e:	6815      	ldr	r5, [r2, #0]
 80080a0:	1d17      	adds	r7, r2, #4
 80080a2:	462c      	mov	r4, r5
 80080a4:	970c      	str	r7, [sp, #48]	; 0x30
 80080a6:	2500      	movs	r5, #0
 80080a8:	2301      	movs	r3, #1
 80080aa:	e012      	b.n	80080d2 <_svfprintf_r+0x1d6>
 80080ac:	9a04      	ldr	r2, [sp, #16]
 80080ae:	f042 0510 	orr.w	r5, r2, #16
 80080b2:	9504      	str	r5, [sp, #16]
 80080b4:	9f04      	ldr	r7, [sp, #16]
 80080b6:	f017 0320 	ands.w	r3, r7, #32
 80080ba:	f040 80ff 	bne.w	80082bc <_svfprintf_r+0x3c0>
 80080be:	9c04      	ldr	r4, [sp, #16]
 80080c0:	f014 0010 	ands.w	r0, r4, #16
 80080c4:	f001 8074 	beq.w	80091b0 <_svfprintf_r+0x12b4>
 80080c8:	9f0c      	ldr	r7, [sp, #48]	; 0x30
 80080ca:	1d3a      	adds	r2, r7, #4
 80080cc:	683c      	ldr	r4, [r7, #0]
 80080ce:	920c      	str	r2, [sp, #48]	; 0x30
 80080d0:	2500      	movs	r5, #0
 80080d2:	2700      	movs	r7, #0
 80080d4:	f88d 7063 	strb.w	r7, [sp, #99]	; 0x63
 80080d8:	e017      	b.n	800810a <_svfprintf_r+0x20e>
 80080da:	9d04      	ldr	r5, [sp, #16]
 80080dc:	f045 0310 	orr.w	r3, r5, #16
 80080e0:	9304      	str	r3, [sp, #16]
 80080e2:	9f04      	ldr	r7, [sp, #16]
 80080e4:	06bf      	lsls	r7, r7, #26
 80080e6:	f140 80d7 	bpl.w	8008298 <_svfprintf_r+0x39c>
 80080ea:	9d0c      	ldr	r5, [sp, #48]	; 0x30
 80080ec:	1deb      	adds	r3, r5, #7
 80080ee:	f023 0007 	bic.w	r0, r3, #7
 80080f2:	e9d0 2300 	ldrd	r2, r3, [r0]
 80080f6:	3008      	adds	r0, #8
 80080f8:	900c      	str	r0, [sp, #48]	; 0x30
 80080fa:	4614      	mov	r4, r2
 80080fc:	461d      	mov	r5, r3
 80080fe:	2a00      	cmp	r2, #0
 8008100:	f173 0000 	sbcs.w	r0, r3, #0
 8008104:	f2c0 8735 	blt.w	8008f72 <_svfprintf_r+0x1076>
 8008108:	2301      	movs	r3, #1
 800810a:	9905      	ldr	r1, [sp, #20]
 800810c:	2900      	cmp	r1, #0
 800810e:	db03      	blt.n	8008118 <_svfprintf_r+0x21c>
 8008110:	9f04      	ldr	r7, [sp, #16]
 8008112:	f027 0080 	bic.w	r0, r7, #128	; 0x80
 8008116:	9004      	str	r0, [sp, #16]
 8008118:	ea54 0205 	orrs.w	r2, r4, r5
 800811c:	f040 83f3 	bne.w	8008906 <_svfprintf_r+0xa0a>
 8008120:	9a05      	ldr	r2, [sp, #20]
 8008122:	2a00      	cmp	r2, #0
 8008124:	f040 83ef 	bne.w	8008906 <_svfprintf_r+0xa0a>
 8008128:	2b00      	cmp	r3, #0
 800812a:	f040 8659 	bne.w	8008de0 <_svfprintf_r+0xee4>
 800812e:	9b04      	ldr	r3, [sp, #16]
 8008130:	07d9      	lsls	r1, r3, #31
 8008132:	f141 800e 	bpl.w	8009152 <_svfprintf_r+0x1256>
 8008136:	af3e      	add	r7, sp, #248	; 0xf8
 8008138:	2030      	movs	r0, #48	; 0x30
 800813a:	f807 0d41 	strb.w	r0, [r7, #-65]!
 800813e:	9a03      	ldr	r2, [sp, #12]
 8008140:	1bd4      	subs	r4, r2, r7
 8008142:	940a      	str	r4, [sp, #40]	; 0x28
 8008144:	9c05      	ldr	r4, [sp, #20]
 8008146:	980a      	ldr	r0, [sp, #40]	; 0x28
 8008148:	f89d 3063 	ldrb.w	r3, [sp, #99]	; 0x63
 800814c:	940e      	str	r4, [sp, #56]	; 0x38
 800814e:	42a0      	cmp	r0, r4
 8008150:	bfb8      	it	lt
 8008152:	4620      	movlt	r0, r4
 8008154:	2200      	movs	r2, #0
 8008156:	9007      	str	r0, [sp, #28]
 8008158:	9210      	str	r2, [sp, #64]	; 0x40
 800815a:	b113      	cbz	r3, 8008162 <_svfprintf_r+0x266>
 800815c:	9b07      	ldr	r3, [sp, #28]
 800815e:	1c59      	adds	r1, r3, #1
 8008160:	9107      	str	r1, [sp, #28]
 8008162:	9b04      	ldr	r3, [sp, #16]
 8008164:	f013 0002 	ands.w	r0, r3, #2
 8008168:	9005      	str	r0, [sp, #20]
 800816a:	d002      	beq.n	8008172 <_svfprintf_r+0x276>
 800816c:	9907      	ldr	r1, [sp, #28]
 800816e:	1c8c      	adds	r4, r1, #2
 8008170:	9407      	str	r4, [sp, #28]
 8008172:	9a04      	ldr	r2, [sp, #16]
 8008174:	f012 0b84 	ands.w	fp, r2, #132	; 0x84
 8008178:	f040 822a 	bne.w	80085d0 <_svfprintf_r+0x6d4>
 800817c:	9d09      	ldr	r5, [sp, #36]	; 0x24
 800817e:	9b07      	ldr	r3, [sp, #28]
 8008180:	1aed      	subs	r5, r5, r3
 8008182:	2d00      	cmp	r5, #0
 8008184:	f340 8224 	ble.w	80085d0 <_svfprintf_r+0x6d4>
 8008188:	2d10      	cmp	r5, #16
 800818a:	f341 820e 	ble.w	80095aa <_svfprintf_r+0x16ae>
 800818e:	9a23      	ldr	r2, [sp, #140]	; 0x8c
 8008190:	9b22      	ldr	r3, [sp, #136]	; 0x88
 8008192:	49a5      	ldr	r1, [pc, #660]	; (8008428 <_svfprintf_r+0x52c>)
 8008194:	2410      	movs	r4, #16
 8008196:	6031      	str	r1, [r6, #0]
 8008198:	9116      	str	r1, [sp, #88]	; 0x58
 800819a:	1911      	adds	r1, r2, r4
 800819c:	1c5a      	adds	r2, r3, #1
 800819e:	f1a5 0e11 	sub.w	lr, r5, #17
 80081a2:	2a07      	cmp	r2, #7
 80081a4:	6074      	str	r4, [r6, #4]
 80081a6:	f3ce 1300 	ubfx	r3, lr, #4, #1
 80081aa:	9123      	str	r1, [sp, #140]	; 0x8c
 80081ac:	9222      	str	r2, [sp, #136]	; 0x88
 80081ae:	f300 8572 	bgt.w	8008c96 <_svfprintf_r+0xd9a>
 80081b2:	3608      	adds	r6, #8
 80081b4:	3d10      	subs	r5, #16
 80081b6:	2d10      	cmp	r5, #16
 80081b8:	f340 81fe 	ble.w	80085b8 <_svfprintf_r+0x6bc>
 80081bc:	b18b      	cbz	r3, 80081e2 <_svfprintf_r+0x2e6>
 80081be:	3201      	adds	r2, #1
 80081c0:	f64f 13ac 	movw	r3, #63916	; 0xf9ac
 80081c4:	3110      	adds	r1, #16
 80081c6:	f6c0 0300 	movt	r3, #2048	; 0x800
 80081ca:	2a07      	cmp	r2, #7
 80081cc:	e886 0018 	stmia.w	r6, {r3, r4}
 80081d0:	9123      	str	r1, [sp, #140]	; 0x8c
 80081d2:	9222      	str	r2, [sp, #136]	; 0x88
 80081d4:	f300 856e 	bgt.w	8008cb4 <_svfprintf_r+0xdb8>
 80081d8:	3608      	adds	r6, #8
 80081da:	3d10      	subs	r5, #16
 80081dc:	2d10      	cmp	r5, #16
 80081de:	f340 81eb 	ble.w	80085b8 <_svfprintf_r+0x6bc>
 80081e2:	4633      	mov	r3, r6
 80081e4:	f8cd b05c 	str.w	fp, [sp, #92]	; 0x5c
 80081e8:	462e      	mov	r6, r5
 80081ea:	46bb      	mov	fp, r7
 80081ec:	9d06      	ldr	r5, [sp, #24]
 80081ee:	9f08      	ldr	r7, [sp, #32]
 80081f0:	e013      	b.n	800821a <_svfprintf_r+0x31e>
 80081f2:	3308      	adds	r3, #8
 80081f4:	3201      	adds	r2, #1
 80081f6:	f64f 10ac 	movw	r0, #63916	; 0xf9ac
 80081fa:	3110      	adds	r1, #16
 80081fc:	f6c0 0000 	movt	r0, #2048	; 0x800
 8008200:	3e10      	subs	r6, #16
 8008202:	2a07      	cmp	r2, #7
 8008204:	e883 0011 	stmia.w	r3, {r0, r4}
 8008208:	9123      	str	r1, [sp, #140]	; 0x8c
 800820a:	9222      	str	r2, [sp, #136]	; 0x88
 800820c:	f300 81c0 	bgt.w	8008590 <_svfprintf_r+0x694>
 8008210:	3e10      	subs	r6, #16
 8008212:	3308      	adds	r3, #8
 8008214:	2e10      	cmp	r6, #16
 8008216:	f340 81ca 	ble.w	80085ae <_svfprintf_r+0x6b2>
 800821a:	3201      	adds	r2, #1
 800821c:	f64f 10ac 	movw	r0, #63916	; 0xf9ac
 8008220:	3110      	adds	r1, #16
 8008222:	f6c0 0000 	movt	r0, #2048	; 0x800
 8008226:	2a07      	cmp	r2, #7
 8008228:	e883 0011 	stmia.w	r3, {r0, r4}
 800822c:	9123      	str	r1, [sp, #140]	; 0x8c
 800822e:	9222      	str	r2, [sp, #136]	; 0x88
 8008230:	dddf      	ble.n	80081f2 <_svfprintf_r+0x2f6>
 8008232:	4638      	mov	r0, r7
 8008234:	4629      	mov	r1, r5
 8008236:	aa21      	add	r2, sp, #132	; 0x84
 8008238:	f003 fde0 	bl	800bdfc <__ssprint_r>
 800823c:	b9e8      	cbnz	r0, 800827a <_svfprintf_r+0x37e>
 800823e:	9923      	ldr	r1, [sp, #140]	; 0x8c
 8008240:	9a22      	ldr	r2, [sp, #136]	; 0x88
 8008242:	ab2e      	add	r3, sp, #184	; 0xb8
 8008244:	e7d6      	b.n	80081f4 <_svfprintf_r+0x2f8>
 8008246:	9a09      	ldr	r2, [sp, #36]	; 0x24
 8008248:	930c      	str	r3, [sp, #48]	; 0x30
 800824a:	4252      	negs	r2, r2
 800824c:	9209      	str	r2, [sp, #36]	; 0x24
 800824e:	9b04      	ldr	r3, [sp, #16]
 8008250:	f043 0204 	orr.w	r2, r3, #4
 8008254:	9204      	str	r2, [sp, #16]
 8008256:	f89a 8000 	ldrb.w	r8, [sl]
 800825a:	e6b1      	b.n	8007fc0 <_svfprintf_r+0xc4>
 800825c:	9808      	ldr	r0, [sp, #32]
 800825e:	9906      	ldr	r1, [sp, #24]
 8008260:	aa21      	add	r2, sp, #132	; 0x84
 8008262:	f003 fdcb 	bl	800bdfc <__ssprint_r>
 8008266:	b940      	cbnz	r0, 800827a <_svfprintf_r+0x37e>
 8008268:	ae2e      	add	r6, sp, #184	; 0xb8
 800826a:	e694      	b.n	8007f96 <_svfprintf_r+0x9a>
 800826c:	9b23      	ldr	r3, [sp, #140]	; 0x8c
 800826e:	b123      	cbz	r3, 800827a <_svfprintf_r+0x37e>
 8008270:	9808      	ldr	r0, [sp, #32]
 8008272:	9906      	ldr	r1, [sp, #24]
 8008274:	aa21      	add	r2, sp, #132	; 0x84
 8008276:	f003 fdc1 	bl	800bdfc <__ssprint_r>
 800827a:	9806      	ldr	r0, [sp, #24]
 800827c:	8981      	ldrh	r1, [r0, #12]
 800827e:	980b      	ldr	r0, [sp, #44]	; 0x2c
 8008280:	f001 0240 	and.w	r2, r1, #64	; 0x40
 8008284:	b213      	sxth	r3, r2
 8008286:	2b00      	cmp	r3, #0
 8008288:	bf18      	it	ne
 800828a:	f04f 30ff 	movne.w	r0, #4294967295
 800828e:	b03f      	add	sp, #252	; 0xfc
 8008290:	e8bd 8ff0 	ldmia.w	sp!, {r4, r5, r6, r7, r8, r9, sl, fp, pc}
 8008294:	4654      	mov	r4, sl
 8008296:	e681      	b.n	8007f9c <_svfprintf_r+0xa0>
 8008298:	9804      	ldr	r0, [sp, #16]
 800829a:	06c5      	lsls	r5, r0, #27
 800829c:	f100 865d 	bmi.w	8008f5a <_svfprintf_r+0x105e>
 80082a0:	9904      	ldr	r1, [sp, #16]
 80082a2:	064c      	lsls	r4, r1, #25
 80082a4:	f140 8659 	bpl.w	8008f5a <_svfprintf_r+0x105e>
 80082a8:	9a0c      	ldr	r2, [sp, #48]	; 0x30
 80082aa:	9f0c      	ldr	r7, [sp, #48]	; 0x30
 80082ac:	f9b2 4000 	ldrsh.w	r4, [r2]
 80082b0:	1d38      	adds	r0, r7, #4
 80082b2:	17e5      	asrs	r5, r4, #31
 80082b4:	4622      	mov	r2, r4
 80082b6:	462b      	mov	r3, r5
 80082b8:	900c      	str	r0, [sp, #48]	; 0x30
 80082ba:	e720      	b.n	80080fe <_svfprintf_r+0x202>
 80082bc:	9b0c      	ldr	r3, [sp, #48]	; 0x30
 80082be:	1ddd      	adds	r5, r3, #7
 80082c0:	f025 0107 	bic.w	r1, r5, #7
 80082c4:	f101 0008 	add.w	r0, r1, #8
 80082c8:	900c      	str	r0, [sp, #48]	; 0x30
 80082ca:	e9d1 4500 	ldrd	r4, r5, [r1]
 80082ce:	2300      	movs	r3, #0
 80082d0:	e6ff      	b.n	80080d2 <_svfprintf_r+0x1d6>
 80082d2:	9c0c      	ldr	r4, [sp, #48]	; 0x30
 80082d4:	1de5      	adds	r5, r4, #7
 80082d6:	f025 0107 	bic.w	r1, r5, #7
 80082da:	f101 0008 	add.w	r0, r1, #8
 80082de:	900c      	str	r0, [sp, #48]	; 0x30
 80082e0:	680d      	ldr	r5, [r1, #0]
 80082e2:	684c      	ldr	r4, [r1, #4]
 80082e4:	462a      	mov	r2, r5
 80082e6:	4623      	mov	r3, r4
 80082e8:	4628      	mov	r0, r5
 80082ea:	4621      	mov	r1, r4
 80082ec:	ec43 2b10 	vmov	d0, r2, r3
 80082f0:	e9cd 0112 	strd	r0, r1, [sp, #72]	; 0x48
 80082f4:	f003 fd4a 	bl	800bd8c <__fpclassifyd>
 80082f8:	2801      	cmp	r0, #1
 80082fa:	f040 873b 	bne.w	8009174 <_svfprintf_r+0x1278>
 80082fe:	4628      	mov	r0, r5
 8008300:	4621      	mov	r1, r4
 8008302:	2200      	movs	r2, #0
 8008304:	2300      	movs	r3, #0
 8008306:	f7f8 fb69 	bl	80009dc <__aeabi_dcmplt>
 800830a:	2800      	cmp	r0, #0
 800830c:	f041 824a 	bne.w	80097a4 <_svfprintf_r+0x18a8>
 8008310:	f89d 3063 	ldrb.w	r3, [sp, #99]	; 0x63
 8008314:	2700      	movs	r7, #0
 8008316:	9904      	ldr	r1, [sp, #16]
 8008318:	970e      	str	r7, [sp, #56]	; 0x38
 800831a:	2403      	movs	r4, #3
 800831c:	4843      	ldr	r0, [pc, #268]	; (800842c <_svfprintf_r+0x530>)
 800831e:	4f44      	ldr	r7, [pc, #272]	; (8008430 <_svfprintf_r+0x534>)
 8008320:	9407      	str	r4, [sp, #28]
 8008322:	f021 0280 	bic.w	r2, r1, #128	; 0x80
 8008326:	940a      	str	r4, [sp, #40]	; 0x28
 8008328:	2400      	movs	r4, #0
 800832a:	f1b8 0f47 	cmp.w	r8, #71	; 0x47
 800832e:	bfd8      	it	le
 8008330:	4607      	movle	r7, r0
 8008332:	9204      	str	r2, [sp, #16]
 8008334:	9410      	str	r4, [sp, #64]	; 0x40
 8008336:	e710      	b.n	800815a <_svfprintf_r+0x25e>
 8008338:	9a0c      	ldr	r2, [sp, #48]	; 0x30
 800833a:	9b0c      	ldr	r3, [sp, #48]	; 0x30
 800833c:	6812      	ldr	r2, [r2, #0]
 800833e:	3304      	adds	r3, #4
 8008340:	2a00      	cmp	r2, #0
 8008342:	9209      	str	r2, [sp, #36]	; 0x24
 8008344:	f6ff af7f 	blt.w	8008246 <_svfprintf_r+0x34a>
 8008348:	f89a 8000 	ldrb.w	r8, [sl]
 800834c:	930c      	str	r3, [sp, #48]	; 0x30
 800834e:	e637      	b.n	8007fc0 <_svfprintf_r+0xc4>
 8008350:	4f38      	ldr	r7, [pc, #224]	; (8008434 <_svfprintf_r+0x538>)
 8008352:	9714      	str	r7, [sp, #80]	; 0x50
 8008354:	9f04      	ldr	r7, [sp, #16]
 8008356:	06b9      	lsls	r1, r7, #26
 8008358:	d51f      	bpl.n	800839a <_svfprintf_r+0x49e>
 800835a:	9c0c      	ldr	r4, [sp, #48]	; 0x30
 800835c:	1de0      	adds	r0, r4, #7
 800835e:	f020 0307 	bic.w	r3, r0, #7
 8008362:	e9d3 4500 	ldrd	r4, r5, [r3]
 8008366:	f103 0108 	add.w	r1, r3, #8
 800836a:	910c      	str	r1, [sp, #48]	; 0x30
 800836c:	9804      	ldr	r0, [sp, #16]
 800836e:	07c7      	lsls	r7, r0, #31
 8008370:	f140 8482 	bpl.w	8008c78 <_svfprintf_r+0xd7c>
 8008374:	ea54 0205 	orrs.w	r2, r4, r5
 8008378:	f000 847e 	beq.w	8008c78 <_svfprintf_r+0xd7c>
 800837c:	2230      	movs	r2, #48	; 0x30
 800837e:	f040 0702 	orr.w	r7, r0, #2
 8008382:	f88d 2064 	strb.w	r2, [sp, #100]	; 0x64
 8008386:	f88d 8065 	strb.w	r8, [sp, #101]	; 0x65
 800838a:	9704      	str	r7, [sp, #16]
 800838c:	2302      	movs	r3, #2
 800838e:	e6a0      	b.n	80080d2 <_svfprintf_r+0x1d6>
 8008390:	9f04      	ldr	r7, [sp, #16]
 8008392:	4d29      	ldr	r5, [pc, #164]	; (8008438 <_svfprintf_r+0x53c>)
 8008394:	06b9      	lsls	r1, r7, #26
 8008396:	9514      	str	r5, [sp, #80]	; 0x50
 8008398:	d4df      	bmi.n	800835a <_svfprintf_r+0x45e>
 800839a:	9c04      	ldr	r4, [sp, #16]
 800839c:	06e2      	lsls	r2, r4, #27
 800839e:	f100 85f1 	bmi.w	8008f84 <_svfprintf_r+0x1088>
 80083a2:	9804      	ldr	r0, [sp, #16]
 80083a4:	0643      	lsls	r3, r0, #25
 80083a6:	f140 85ed 	bpl.w	8008f84 <_svfprintf_r+0x1088>
 80083aa:	9b0c      	ldr	r3, [sp, #48]	; 0x30
 80083ac:	1d19      	adds	r1, r3, #4
 80083ae:	881c      	ldrh	r4, [r3, #0]
 80083b0:	910c      	str	r1, [sp, #48]	; 0x30
 80083b2:	2500      	movs	r5, #0
 80083b4:	e7da      	b.n	800836c <_svfprintf_r+0x470>
 80083b6:	9c0c      	ldr	r4, [sp, #48]	; 0x30
 80083b8:	1de3      	adds	r3, r4, #7
 80083ba:	f023 0107 	bic.w	r1, r3, #7
 80083be:	f101 0008 	add.w	r0, r1, #8
 80083c2:	900c      	str	r0, [sp, #48]	; 0x30
 80083c4:	e9d1 4500 	ldrd	r4, r5, [r1]
 80083c8:	2301      	movs	r3, #1
 80083ca:	e682      	b.n	80080d2 <_svfprintf_r+0x1d6>
 80083cc:	f89d 3063 	ldrb.w	r3, [sp, #99]	; 0x63
 80083d0:	2b00      	cmp	r3, #0
 80083d2:	f040 8707 	bne.w	80091e4 <_svfprintf_r+0x12e8>
 80083d6:	f88d 0063 	strb.w	r0, [sp, #99]	; 0x63
 80083da:	f89a 8000 	ldrb.w	r8, [sl]
 80083de:	e5ef      	b.n	8007fc0 <_svfprintf_r+0xc4>
 80083e0:	9b04      	ldr	r3, [sp, #16]
 80083e2:	f043 0201 	orr.w	r2, r3, #1
 80083e6:	9204      	str	r2, [sp, #16]
 80083e8:	f89a 8000 	ldrb.w	r8, [sl]
 80083ec:	e5e8      	b.n	8007fc0 <_svfprintf_r+0xc4>
 80083ee:	4654      	mov	r4, sl
 80083f0:	f814 8b01 	ldrb.w	r8, [r4], #1
 80083f4:	f1b8 0f2a 	cmp.w	r8, #42	; 0x2a
 80083f8:	f001 82d2 	beq.w	80099a0 <_svfprintf_r+0x1aa4>
 80083fc:	f1a8 0330 	sub.w	r3, r8, #48	; 0x30
 8008400:	2200      	movs	r2, #0
 8008402:	2b09      	cmp	r3, #9
 8008404:	f201 81ff 	bhi.w	8009806 <_svfprintf_r+0x190a>
 8008408:	f814 8b01 	ldrb.w	r8, [r4], #1
 800840c:	eb02 0282 	add.w	r2, r2, r2, lsl #2
 8008410:	eb03 0242 	add.w	r2, r3, r2, lsl #1
 8008414:	f1a8 0330 	sub.w	r3, r8, #48	; 0x30
 8008418:	2b09      	cmp	r3, #9
 800841a:	46a2      	mov	sl, r4
 800841c:	d9f4      	bls.n	8008408 <_svfprintf_r+0x50c>
 800841e:	ea42 72e2 	orr.w	r2, r2, r2, asr #31
 8008422:	9205      	str	r2, [sp, #20]
 8008424:	e5ce      	b.n	8007fc4 <_svfprintf_r+0xc8>
 8008426:	bf00      	nop
 8008428:	0800f9ac 	.word	0x0800f9ac
 800842c:	0800f958 	.word	0x0800f958
 8008430:	0800f95c 	.word	0x0800f95c
 8008434:	0800f97c 	.word	0x0800f97c
 8008438:	0800f968 	.word	0x0800f968
 800843c:	0800f99c 	.word	0x0800f99c
 8008440:	9f0c      	ldr	r7, [sp, #48]	; 0x30
 8008442:	990c      	ldr	r1, [sp, #48]	; 0x30
 8008444:	683c      	ldr	r4, [r7, #0]
 8008446:	2301      	movs	r3, #1
 8008448:	2000      	movs	r0, #0
 800844a:	1d0a      	adds	r2, r1, #4
 800844c:	f88d 0063 	strb.w	r0, [sp, #99]	; 0x63
 8008450:	9307      	str	r3, [sp, #28]
 8008452:	920c      	str	r2, [sp, #48]	; 0x30
 8008454:	f88d 4090 	strb.w	r4, [sp, #144]	; 0x90
 8008458:	930a      	str	r3, [sp, #40]	; 0x28
 800845a:	af24      	add	r7, sp, #144	; 0x90
 800845c:	2200      	movs	r2, #0
 800845e:	920e      	str	r2, [sp, #56]	; 0x38
 8008460:	9210      	str	r2, [sp, #64]	; 0x40
 8008462:	e67e      	b.n	8008162 <_svfprintf_r+0x266>
 8008464:	9a04      	ldr	r2, [sp, #16]
 8008466:	f042 0308 	orr.w	r3, r2, #8
 800846a:	9304      	str	r3, [sp, #16]
 800846c:	f89a 8000 	ldrb.w	r8, [sl]
 8008470:	e5a6      	b.n	8007fc0 <_svfprintf_r+0xc4>
 8008472:	f88d 1063 	strb.w	r1, [sp, #99]	; 0x63
 8008476:	f89a 8000 	ldrb.w	r8, [sl]
 800847a:	e5a1      	b.n	8007fc0 <_svfprintf_r+0xc4>
 800847c:	9c04      	ldr	r4, [sp, #16]
 800847e:	06a1      	lsls	r1, r4, #26
 8008480:	f140 86b4 	bpl.w	80091ec <_svfprintf_r+0x12f0>
 8008484:	990c      	ldr	r1, [sp, #48]	; 0x30
 8008486:	9a0b      	ldr	r2, [sp, #44]	; 0x2c
 8008488:	980c      	ldr	r0, [sp, #48]	; 0x30
 800848a:	680b      	ldr	r3, [r1, #0]
 800848c:	17d4      	asrs	r4, r2, #31
 800848e:	1d01      	adds	r1, r0, #4
 8008490:	601a      	str	r2, [r3, #0]
 8008492:	605c      	str	r4, [r3, #4]
 8008494:	910c      	str	r1, [sp, #48]	; 0x30
 8008496:	e55c      	b.n	8007f52 <_svfprintf_r+0x56>
 8008498:	9d0c      	ldr	r5, [sp, #48]	; 0x30
 800849a:	2400      	movs	r4, #0
 800849c:	f88d 4063 	strb.w	r4, [sp, #99]	; 0x63
 80084a0:	682f      	ldr	r7, [r5, #0]
 80084a2:	3504      	adds	r5, #4
 80084a4:	2f00      	cmp	r7, #0
 80084a6:	f001 8114 	beq.w	80096d2 <_svfprintf_r+0x17d6>
 80084aa:	9a05      	ldr	r2, [sp, #20]
 80084ac:	2a00      	cmp	r2, #0
 80084ae:	4638      	mov	r0, r7
 80084b0:	f2c1 8057 	blt.w	8009562 <_svfprintf_r+0x1666>
 80084b4:	4621      	mov	r1, r4
 80084b6:	9a05      	ldr	r2, [sp, #20]
 80084b8:	f002 fec2 	bl	800b240 <memchr>
 80084bc:	2800      	cmp	r0, #0
 80084be:	f001 817b 	beq.w	80097b8 <_svfprintf_r+0x18bc>
 80084c2:	9905      	ldr	r1, [sp, #20]
 80084c4:	940e      	str	r4, [sp, #56]	; 0x38
 80084c6:	1bc0      	subs	r0, r0, r7
 80084c8:	4288      	cmp	r0, r1
 80084ca:	900a      	str	r0, [sp, #40]	; 0x28
 80084cc:	f340 87e9 	ble.w	80094a2 <_svfprintf_r+0x15a6>
 80084d0:	ea21 70e1 	bic.w	r0, r1, r1, asr #31
 80084d4:	9905      	ldr	r1, [sp, #20]
 80084d6:	9007      	str	r0, [sp, #28]
 80084d8:	f89d 3063 	ldrb.w	r3, [sp, #99]	; 0x63
 80084dc:	950c      	str	r5, [sp, #48]	; 0x30
 80084de:	910a      	str	r1, [sp, #40]	; 0x28
 80084e0:	9410      	str	r4, [sp, #64]	; 0x40
 80084e2:	e63a      	b.n	800815a <_svfprintf_r+0x25e>
 80084e4:	9b04      	ldr	r3, [sp, #16]
 80084e6:	f043 0240 	orr.w	r2, r3, #64	; 0x40
 80084ea:	9204      	str	r2, [sp, #16]
 80084ec:	f89a 8000 	ldrb.w	r8, [sl]
 80084f0:	e566      	b.n	8007fc0 <_svfprintf_r+0xc4>
 80084f2:	9d0c      	ldr	r5, [sp, #48]	; 0x30
 80084f4:	990c      	ldr	r1, [sp, #48]	; 0x30
 80084f6:	6828      	ldr	r0, [r5, #0]
 80084f8:	9b04      	ldr	r3, [sp, #16]
 80084fa:	1d0f      	adds	r7, r1, #4
 80084fc:	49aa      	ldr	r1, [pc, #680]	; (80087a8 <_svfprintf_r+0x8ac>)
 80084fe:	970c      	str	r7, [sp, #48]	; 0x30
 8008500:	f043 0202 	orr.w	r2, r3, #2
 8008504:	f04f 0878 	mov.w	r8, #120	; 0x78
 8008508:	4604      	mov	r4, r0
 800850a:	2030      	movs	r0, #48	; 0x30
 800850c:	f88d 8065 	strb.w	r8, [sp, #101]	; 0x65
 8008510:	2500      	movs	r5, #0
 8008512:	9204      	str	r2, [sp, #16]
 8008514:	f88d 0064 	strb.w	r0, [sp, #100]	; 0x64
 8008518:	9114      	str	r1, [sp, #80]	; 0x50
 800851a:	2302      	movs	r3, #2
 800851c:	e5d9      	b.n	80080d2 <_svfprintf_r+0x1d6>
 800851e:	9b04      	ldr	r3, [sp, #16]
 8008520:	f043 0220 	orr.w	r2, r3, #32
 8008524:	9204      	str	r2, [sp, #16]
 8008526:	f89a 8000 	ldrb.w	r8, [sl]
 800852a:	e549      	b.n	8007fc0 <_svfprintf_r+0xc4>
 800852c:	f89a 8000 	ldrb.w	r8, [sl]
 8008530:	f1b8 0f6c 	cmp.w	r8, #108	; 0x6c
 8008534:	4653      	mov	r3, sl
 8008536:	f000 8704 	beq.w	8009342 <_svfprintf_r+0x1446>
 800853a:	9a04      	ldr	r2, [sp, #16]
 800853c:	f042 0310 	orr.w	r3, r2, #16
 8008540:	9304      	str	r3, [sp, #16]
 8008542:	e53d      	b.n	8007fc0 <_svfprintf_r+0xc4>
 8008544:	f1b8 0f00 	cmp.w	r8, #0
 8008548:	f43f ae90 	beq.w	800826c <_svfprintf_r+0x370>
 800854c:	2701      	movs	r7, #1
 800854e:	2400      	movs	r4, #0
 8008550:	9707      	str	r7, [sp, #28]
 8008552:	970a      	str	r7, [sp, #40]	; 0x28
 8008554:	f88d 8090 	strb.w	r8, [sp, #144]	; 0x90
 8008558:	f88d 4063 	strb.w	r4, [sp, #99]	; 0x63
 800855c:	af24      	add	r7, sp, #144	; 0x90
 800855e:	e77d      	b.n	800845c <_svfprintf_r+0x560>
 8008560:	9a04      	ldr	r2, [sp, #16]
 8008562:	f042 0380 	orr.w	r3, r2, #128	; 0x80
 8008566:	9304      	str	r3, [sp, #16]
 8008568:	f89a 8000 	ldrb.w	r8, [sl]
 800856c:	e528      	b.n	8007fc0 <_svfprintf_r+0xc4>
 800856e:	4652      	mov	r2, sl
 8008570:	2300      	movs	r3, #0
 8008572:	f1a8 0530 	sub.w	r5, r8, #48	; 0x30
 8008576:	f812 8b01 	ldrb.w	r8, [r2], #1
 800857a:	f1a8 0430 	sub.w	r4, r8, #48	; 0x30
 800857e:	eb03 0383 	add.w	r3, r3, r3, lsl #2
 8008582:	2c09      	cmp	r4, #9
 8008584:	eb05 0343 	add.w	r3, r5, r3, lsl #1
 8008588:	4692      	mov	sl, r2
 800858a:	d9f2      	bls.n	8008572 <_svfprintf_r+0x676>
 800858c:	9309      	str	r3, [sp, #36]	; 0x24
 800858e:	e519      	b.n	8007fc4 <_svfprintf_r+0xc8>
 8008590:	4638      	mov	r0, r7
 8008592:	4629      	mov	r1, r5
 8008594:	aa21      	add	r2, sp, #132	; 0x84
 8008596:	f003 fc31 	bl	800bdfc <__ssprint_r>
 800859a:	2800      	cmp	r0, #0
 800859c:	f47f ae6d 	bne.w	800827a <_svfprintf_r+0x37e>
 80085a0:	3e10      	subs	r6, #16
 80085a2:	2e10      	cmp	r6, #16
 80085a4:	ab2e      	add	r3, sp, #184	; 0xb8
 80085a6:	9923      	ldr	r1, [sp, #140]	; 0x8c
 80085a8:	9a22      	ldr	r2, [sp, #136]	; 0x88
 80085aa:	f73f ae36 	bgt.w	800821a <_svfprintf_r+0x31e>
 80085ae:	465f      	mov	r7, fp
 80085b0:	f8dd b05c 	ldr.w	fp, [sp, #92]	; 0x5c
 80085b4:	4635      	mov	r5, r6
 80085b6:	461e      	mov	r6, r3
 80085b8:	1c50      	adds	r0, r2, #1
 80085ba:	9b16      	ldr	r3, [sp, #88]	; 0x58
 80085bc:	194c      	adds	r4, r1, r5
 80085be:	2807      	cmp	r0, #7
 80085c0:	e886 0028 	stmia.w	r6, {r3, r5}
 80085c4:	9423      	str	r4, [sp, #140]	; 0x8c
 80085c6:	9022      	str	r0, [sp, #136]	; 0x88
 80085c8:	f300 840f 	bgt.w	8008dea <_svfprintf_r+0xeee>
 80085cc:	3608      	adds	r6, #8
 80085ce:	e000      	b.n	80085d2 <_svfprintf_r+0x6d6>
 80085d0:	9c23      	ldr	r4, [sp, #140]	; 0x8c
 80085d2:	f89d 1063 	ldrb.w	r1, [sp, #99]	; 0x63
 80085d6:	b169      	cbz	r1, 80085f4 <_svfprintf_r+0x6f8>
 80085d8:	9b22      	ldr	r3, [sp, #136]	; 0x88
 80085da:	1c58      	adds	r0, r3, #1
 80085dc:	3401      	adds	r4, #1
 80085de:	2101      	movs	r1, #1
 80085e0:	f10d 0263 	add.w	r2, sp, #99	; 0x63
 80085e4:	2807      	cmp	r0, #7
 80085e6:	6032      	str	r2, [r6, #0]
 80085e8:	6071      	str	r1, [r6, #4]
 80085ea:	9423      	str	r4, [sp, #140]	; 0x8c
 80085ec:	9022      	str	r0, [sp, #136]	; 0x88
 80085ee:	f300 82fe 	bgt.w	8008bee <_svfprintf_r+0xcf2>
 80085f2:	3608      	adds	r6, #8
 80085f4:	9b05      	ldr	r3, [sp, #20]
 80085f6:	b163      	cbz	r3, 8008612 <_svfprintf_r+0x716>
 80085f8:	9822      	ldr	r0, [sp, #136]	; 0x88
 80085fa:	1c41      	adds	r1, r0, #1
 80085fc:	3402      	adds	r4, #2
 80085fe:	2302      	movs	r3, #2
 8008600:	aa19      	add	r2, sp, #100	; 0x64
 8008602:	2907      	cmp	r1, #7
 8008604:	6032      	str	r2, [r6, #0]
 8008606:	6073      	str	r3, [r6, #4]
 8008608:	9423      	str	r4, [sp, #140]	; 0x8c
 800860a:	9122      	str	r1, [sp, #136]	; 0x88
 800860c:	f300 82fa 	bgt.w	8008c04 <_svfprintf_r+0xd08>
 8008610:	3608      	adds	r6, #8
 8008612:	f1bb 0f80 	cmp.w	fp, #128	; 0x80
 8008616:	f000 822d 	beq.w	8008a74 <_svfprintf_r+0xb78>
 800861a:	9d0e      	ldr	r5, [sp, #56]	; 0x38
 800861c:	9a0a      	ldr	r2, [sp, #40]	; 0x28
 800861e:	1aad      	subs	r5, r5, r2
 8008620:	2d00      	cmp	r5, #0
 8008622:	dd6f      	ble.n	8008704 <_svfprintf_r+0x808>
 8008624:	2d10      	cmp	r5, #16
 8008626:	f340 85fe 	ble.w	8009226 <_svfprintf_r+0x132a>
 800862a:	9922      	ldr	r1, [sp, #136]	; 0x88
 800862c:	485f      	ldr	r0, [pc, #380]	; (80087ac <_svfprintf_r+0x8b0>)
 800862e:	f8c6 9000 	str.w	r9, [r6]
 8008632:	f04f 0b10 	mov.w	fp, #16
 8008636:	1c4a      	adds	r2, r1, #1
 8008638:	f1a5 0c11 	sub.w	ip, r5, #17
 800863c:	445c      	add	r4, fp
 800863e:	2a07      	cmp	r2, #7
 8008640:	f8c6 b004 	str.w	fp, [r6, #4]
 8008644:	9005      	str	r0, [sp, #20]
 8008646:	9423      	str	r4, [sp, #140]	; 0x8c
 8008648:	9222      	str	r2, [sp, #136]	; 0x88
 800864a:	f3cc 1300 	ubfx	r3, ip, #4, #1
 800864e:	f300 82a9 	bgt.w	8008ba4 <_svfprintf_r+0xca8>
 8008652:	3608      	adds	r6, #8
 8008654:	3d10      	subs	r5, #16
 8008656:	2d10      	cmp	r5, #16
 8008658:	dd49      	ble.n	80086ee <_svfprintf_r+0x7f2>
 800865a:	b163      	cbz	r3, 8008676 <_svfprintf_r+0x77a>
 800865c:	3201      	adds	r2, #1
 800865e:	3410      	adds	r4, #16
 8008660:	2a07      	cmp	r2, #7
 8008662:	e886 0a00 	stmia.w	r6, {r9, fp}
 8008666:	9423      	str	r4, [sp, #140]	; 0x8c
 8008668:	9222      	str	r2, [sp, #136]	; 0x88
 800866a:	f300 82a9 	bgt.w	8008bc0 <_svfprintf_r+0xcc4>
 800866e:	3608      	adds	r6, #8
 8008670:	3d10      	subs	r5, #16
 8008672:	2d10      	cmp	r5, #16
 8008674:	dd3b      	ble.n	80086ee <_svfprintf_r+0x7f2>
 8008676:	4631      	mov	r1, r6
 8008678:	4620      	mov	r0, r4
 800867a:	4646      	mov	r6, r8
 800867c:	463c      	mov	r4, r7
 800867e:	f8dd 8018 	ldr.w	r8, [sp, #24]
 8008682:	9f08      	ldr	r7, [sp, #32]
 8008684:	e00d      	b.n	80086a2 <_svfprintf_r+0x7a6>
 8008686:	3108      	adds	r1, #8
 8008688:	3201      	adds	r2, #1
 800868a:	3010      	adds	r0, #16
 800868c:	3d10      	subs	r5, #16
 800868e:	2a07      	cmp	r2, #7
 8008690:	e881 0a00 	stmia.w	r1, {r9, fp}
 8008694:	9222      	str	r2, [sp, #136]	; 0x88
 8008696:	9023      	str	r0, [sp, #140]	; 0x8c
 8008698:	dc17      	bgt.n	80086ca <_svfprintf_r+0x7ce>
 800869a:	3d10      	subs	r5, #16
 800869c:	3108      	adds	r1, #8
 800869e:	2d10      	cmp	r5, #16
 80086a0:	dd21      	ble.n	80086e6 <_svfprintf_r+0x7ea>
 80086a2:	3201      	adds	r2, #1
 80086a4:	3010      	adds	r0, #16
 80086a6:	2a07      	cmp	r2, #7
 80086a8:	e881 0a00 	stmia.w	r1, {r9, fp}
 80086ac:	9023      	str	r0, [sp, #140]	; 0x8c
 80086ae:	9222      	str	r2, [sp, #136]	; 0x88
 80086b0:	dde9      	ble.n	8008686 <_svfprintf_r+0x78a>
 80086b2:	4638      	mov	r0, r7
 80086b4:	4641      	mov	r1, r8
 80086b6:	aa21      	add	r2, sp, #132	; 0x84
 80086b8:	f003 fba0 	bl	800bdfc <__ssprint_r>
 80086bc:	2800      	cmp	r0, #0
 80086be:	f47f addc 	bne.w	800827a <_svfprintf_r+0x37e>
 80086c2:	9823      	ldr	r0, [sp, #140]	; 0x8c
 80086c4:	9a22      	ldr	r2, [sp, #136]	; 0x88
 80086c6:	a92e      	add	r1, sp, #184	; 0xb8
 80086c8:	e7de      	b.n	8008688 <_svfprintf_r+0x78c>
 80086ca:	4638      	mov	r0, r7
 80086cc:	4641      	mov	r1, r8
 80086ce:	aa21      	add	r2, sp, #132	; 0x84
 80086d0:	f003 fb94 	bl	800bdfc <__ssprint_r>
 80086d4:	2800      	cmp	r0, #0
 80086d6:	f47f add0 	bne.w	800827a <_svfprintf_r+0x37e>
 80086da:	3d10      	subs	r5, #16
 80086dc:	2d10      	cmp	r5, #16
 80086de:	a92e      	add	r1, sp, #184	; 0xb8
 80086e0:	9823      	ldr	r0, [sp, #140]	; 0x8c
 80086e2:	9a22      	ldr	r2, [sp, #136]	; 0x88
 80086e4:	dcdd      	bgt.n	80086a2 <_svfprintf_r+0x7a6>
 80086e6:	46b0      	mov	r8, r6
 80086e8:	4627      	mov	r7, r4
 80086ea:	460e      	mov	r6, r1
 80086ec:	4604      	mov	r4, r0
 80086ee:	1c50      	adds	r0, r2, #1
 80086f0:	9b05      	ldr	r3, [sp, #20]
 80086f2:	1964      	adds	r4, r4, r5
 80086f4:	2807      	cmp	r0, #7
 80086f6:	e886 0028 	stmia.w	r6, {r3, r5}
 80086fa:	9423      	str	r4, [sp, #140]	; 0x8c
 80086fc:	9022      	str	r0, [sp, #136]	; 0x88
 80086fe:	f300 826b 	bgt.w	8008bd8 <_svfprintf_r+0xcdc>
 8008702:	3608      	adds	r6, #8
 8008704:	9b04      	ldr	r3, [sp, #16]
 8008706:	05da      	lsls	r2, r3, #23
 8008708:	f100 8128 	bmi.w	800895c <_svfprintf_r+0xa60>
 800870c:	9822      	ldr	r0, [sp, #136]	; 0x88
 800870e:	9a0a      	ldr	r2, [sp, #40]	; 0x28
 8008710:	990a      	ldr	r1, [sp, #40]	; 0x28
 8008712:	6037      	str	r7, [r6, #0]
 8008714:	1c43      	adds	r3, r0, #1
 8008716:	18a4      	adds	r4, r4, r2
 8008718:	2b07      	cmp	r3, #7
 800871a:	6071      	str	r1, [r6, #4]
 800871c:	9423      	str	r4, [sp, #140]	; 0x8c
 800871e:	9322      	str	r3, [sp, #136]	; 0x88
 8008720:	f300 80b0 	bgt.w	8008884 <_svfprintf_r+0x988>
 8008724:	3608      	adds	r6, #8
 8008726:	9a04      	ldr	r2, [sp, #16]
 8008728:	0753      	lsls	r3, r2, #29
 800872a:	f140 80b9 	bpl.w	80088a0 <_svfprintf_r+0x9a4>
 800872e:	9d09      	ldr	r5, [sp, #36]	; 0x24
 8008730:	9807      	ldr	r0, [sp, #28]
 8008732:	1a2d      	subs	r5, r5, r0
 8008734:	2d00      	cmp	r5, #0
 8008736:	f340 80b3 	ble.w	80088a0 <_svfprintf_r+0x9a4>
 800873a:	2d10      	cmp	r5, #16
 800873c:	f340 87d5 	ble.w	80096ea <_svfprintf_r+0x17ee>
 8008740:	9b22      	ldr	r3, [sp, #136]	; 0x88
 8008742:	f8df 806c 	ldr.w	r8, [pc, #108]	; 80087b0 <_svfprintf_r+0x8b4>
 8008746:	f64f 17ac 	movw	r7, #63916	; 0xf9ac
 800874a:	f6c0 0700 	movt	r7, #2048	; 0x800
 800874e:	6037      	str	r7, [r6, #0]
 8008750:	1c59      	adds	r1, r3, #1
 8008752:	2710      	movs	r7, #16
 8008754:	f1a5 0b11 	sub.w	fp, r5, #17
 8008758:	19e4      	adds	r4, r4, r7
 800875a:	2907      	cmp	r1, #7
 800875c:	6077      	str	r7, [r6, #4]
 800875e:	f3cb 1b00 	ubfx	fp, fp, #4, #1
 8008762:	9423      	str	r4, [sp, #140]	; 0x8c
 8008764:	9122      	str	r1, [sp, #136]	; 0x88
 8008766:	f300 83c6 	bgt.w	8008ef6 <_svfprintf_r+0xffa>
 800876a:	3608      	adds	r6, #8
 800876c:	3d10      	subs	r5, #16
 800876e:	2d10      	cmp	r5, #16
 8008770:	f340 80b6 	ble.w	80088e0 <_svfprintf_r+0x9e4>
 8008774:	f1bb 0f00 	cmp.w	fp, #0
 8008778:	d011      	beq.n	800879e <_svfprintf_r+0x8a2>
 800877a:	3101      	adds	r1, #1
 800877c:	f64f 10ac 	movw	r0, #63916	; 0xf9ac
 8008780:	3410      	adds	r4, #16
 8008782:	f6c0 0000 	movt	r0, #2048	; 0x800
 8008786:	2907      	cmp	r1, #7
 8008788:	e886 0081 	stmia.w	r6, {r0, r7}
 800878c:	9423      	str	r4, [sp, #140]	; 0x8c
 800878e:	9122      	str	r1, [sp, #136]	; 0x88
 8008790:	f300 83d7 	bgt.w	8008f42 <_svfprintf_r+0x1046>
 8008794:	3608      	adds	r6, #8
 8008796:	3d10      	subs	r5, #16
 8008798:	2d10      	cmp	r5, #16
 800879a:	f340 80a1 	ble.w	80088e0 <_svfprintf_r+0x9e4>
 800879e:	4632      	mov	r2, r6
 80087a0:	f8dd b020 	ldr.w	fp, [sp, #32]
 80087a4:	9e06      	ldr	r6, [sp, #24]
 80087a6:	e018      	b.n	80087da <_svfprintf_r+0x8de>
 80087a8:	0800f97c 	.word	0x0800f97c
 80087ac:	0800f99c 	.word	0x0800f99c
 80087b0:	0800f9ac 	.word	0x0800f9ac
 80087b4:	3208      	adds	r2, #8
 80087b6:	1c41      	adds	r1, r0, #1
 80087b8:	f64f 10ac 	movw	r0, #63916	; 0xf9ac
 80087bc:	3410      	adds	r4, #16
 80087be:	f6c0 0000 	movt	r0, #2048	; 0x800
 80087c2:	3d10      	subs	r5, #16
 80087c4:	2907      	cmp	r1, #7
 80087c6:	e882 0081 	stmia.w	r2, {r0, r7}
 80087ca:	9122      	str	r1, [sp, #136]	; 0x88
 80087cc:	9423      	str	r4, [sp, #140]	; 0x8c
 80087ce:	dc77      	bgt.n	80088c0 <_svfprintf_r+0x9c4>
 80087d0:	3d10      	subs	r5, #16
 80087d2:	3208      	adds	r2, #8
 80087d4:	2d10      	cmp	r5, #16
 80087d6:	f340 8082 	ble.w	80088de <_svfprintf_r+0x9e2>
 80087da:	1c48      	adds	r0, r1, #1
 80087dc:	f64f 11ac 	movw	r1, #63916	; 0xf9ac
 80087e0:	3410      	adds	r4, #16
 80087e2:	f6c0 0100 	movt	r1, #2048	; 0x800
 80087e6:	2807      	cmp	r0, #7
 80087e8:	e882 0082 	stmia.w	r2, {r1, r7}
 80087ec:	9423      	str	r4, [sp, #140]	; 0x8c
 80087ee:	9022      	str	r0, [sp, #136]	; 0x88
 80087f0:	dde0      	ble.n	80087b4 <_svfprintf_r+0x8b8>
 80087f2:	4658      	mov	r0, fp
 80087f4:	4631      	mov	r1, r6
 80087f6:	aa21      	add	r2, sp, #132	; 0x84
 80087f8:	f003 fb00 	bl	800bdfc <__ssprint_r>
 80087fc:	2800      	cmp	r0, #0
 80087fe:	f47f ad3c 	bne.w	800827a <_svfprintf_r+0x37e>
 8008802:	9c23      	ldr	r4, [sp, #140]	; 0x8c
 8008804:	9822      	ldr	r0, [sp, #136]	; 0x88
 8008806:	aa2e      	add	r2, sp, #184	; 0xb8
 8008808:	e7d5      	b.n	80087b6 <_svfprintf_r+0x8ba>
 800880a:	9d0d      	ldr	r5, [sp, #52]	; 0x34
 800880c:	2d01      	cmp	r5, #1
 800880e:	f340 847b 	ble.w	8009108 <_svfprintf_r+0x120c>
 8008812:	9b22      	ldr	r3, [sp, #136]	; 0x88
 8008814:	6037      	str	r7, [r6, #0]
 8008816:	1c5d      	adds	r5, r3, #1
 8008818:	3401      	adds	r4, #1
 800881a:	2101      	movs	r1, #1
 800881c:	2d07      	cmp	r5, #7
 800881e:	6071      	str	r1, [r6, #4]
 8008820:	9423      	str	r4, [sp, #140]	; 0x8c
 8008822:	9522      	str	r5, [sp, #136]	; 0x88
 8008824:	f300 847b 	bgt.w	800911e <_svfprintf_r+0x1222>
 8008828:	3608      	adds	r6, #8
 800882a:	9b11      	ldr	r3, [sp, #68]	; 0x44
 800882c:	980f      	ldr	r0, [sp, #60]	; 0x3c
 800882e:	3501      	adds	r5, #1
 8008830:	18e4      	adds	r4, r4, r3
 8008832:	2d07      	cmp	r5, #7
 8008834:	e886 0009 	stmia.w	r6, {r0, r3}
 8008838:	9423      	str	r4, [sp, #140]	; 0x8c
 800883a:	9522      	str	r5, [sp, #136]	; 0x88
 800883c:	f300 847c 	bgt.w	8009138 <_svfprintf_r+0x123c>
 8008840:	3608      	adds	r6, #8
 8008842:	e9dd 0112 	ldrd	r0, r1, [sp, #72]	; 0x48
 8008846:	2200      	movs	r2, #0
 8008848:	2300      	movs	r3, #0
 800884a:	f7f8 f8bd 	bl	80009c8 <__aeabi_dcmpeq>
 800884e:	2800      	cmp	r0, #0
 8008850:	f040 82d7 	bne.w	8008e02 <_svfprintf_r+0xf06>
 8008854:	9a0d      	ldr	r2, [sp, #52]	; 0x34
 8008856:	3701      	adds	r7, #1
 8008858:	1e50      	subs	r0, r2, #1
 800885a:	1824      	adds	r4, r4, r0
 800885c:	3501      	adds	r5, #1
 800885e:	6037      	str	r7, [r6, #0]
 8008860:	2d07      	cmp	r5, #7
 8008862:	6070      	str	r0, [r6, #4]
 8008864:	9423      	str	r4, [sp, #140]	; 0x8c
 8008866:	9522      	str	r5, [sp, #136]	; 0x88
 8008868:	f300 8186 	bgt.w	8008b78 <_svfprintf_r+0xc7c>
 800886c:	3608      	adds	r6, #8
 800886e:	9815      	ldr	r0, [sp, #84]	; 0x54
 8008870:	3501      	adds	r5, #1
 8008872:	1824      	adds	r4, r4, r0
 8008874:	ab1d      	add	r3, sp, #116	; 0x74
 8008876:	2d07      	cmp	r5, #7
 8008878:	6033      	str	r3, [r6, #0]
 800887a:	6070      	str	r0, [r6, #4]
 800887c:	9423      	str	r4, [sp, #140]	; 0x8c
 800887e:	9522      	str	r5, [sp, #136]	; 0x88
 8008880:	f77f af50 	ble.w	8008724 <_svfprintf_r+0x828>
 8008884:	9808      	ldr	r0, [sp, #32]
 8008886:	9906      	ldr	r1, [sp, #24]
 8008888:	aa21      	add	r2, sp, #132	; 0x84
 800888a:	f003 fab7 	bl	800bdfc <__ssprint_r>
 800888e:	2800      	cmp	r0, #0
 8008890:	f47f acf3 	bne.w	800827a <_svfprintf_r+0x37e>
 8008894:	9a04      	ldr	r2, [sp, #16]
 8008896:	9c23      	ldr	r4, [sp, #140]	; 0x8c
 8008898:	0753      	lsls	r3, r2, #29
 800889a:	ae2e      	add	r6, sp, #184	; 0xb8
 800889c:	f53f af47 	bmi.w	800872e <_svfprintf_r+0x832>
 80088a0:	980b      	ldr	r0, [sp, #44]	; 0x2c
 80088a2:	9907      	ldr	r1, [sp, #28]
 80088a4:	9a09      	ldr	r2, [sp, #36]	; 0x24
 80088a6:	4291      	cmp	r1, r2
 80088a8:	bfac      	ite	ge
 80088aa:	1840      	addge	r0, r0, r1
 80088ac:	1880      	addlt	r0, r0, r2
 80088ae:	900b      	str	r0, [sp, #44]	; 0x2c
 80088b0:	2c00      	cmp	r4, #0
 80088b2:	f040 816d 	bne.w	8008b90 <_svfprintf_r+0xc94>
 80088b6:	2400      	movs	r4, #0
 80088b8:	9422      	str	r4, [sp, #136]	; 0x88
 80088ba:	ae2e      	add	r6, sp, #184	; 0xb8
 80088bc:	f7ff bb49 	b.w	8007f52 <_svfprintf_r+0x56>
 80088c0:	4658      	mov	r0, fp
 80088c2:	4631      	mov	r1, r6
 80088c4:	aa21      	add	r2, sp, #132	; 0x84
 80088c6:	f003 fa99 	bl	800bdfc <__ssprint_r>
 80088ca:	2800      	cmp	r0, #0
 80088cc:	f47f acd5 	bne.w	800827a <_svfprintf_r+0x37e>
 80088d0:	3d10      	subs	r5, #16
 80088d2:	2d10      	cmp	r5, #16
 80088d4:	aa2e      	add	r2, sp, #184	; 0xb8
 80088d6:	9c23      	ldr	r4, [sp, #140]	; 0x8c
 80088d8:	9922      	ldr	r1, [sp, #136]	; 0x88
 80088da:	f73f af7e 	bgt.w	80087da <_svfprintf_r+0x8de>
 80088de:	4616      	mov	r6, r2
 80088e0:	1c4b      	adds	r3, r1, #1
 80088e2:	192c      	adds	r4, r5, r4
 80088e4:	2b07      	cmp	r3, #7
 80088e6:	f8c6 8000 	str.w	r8, [r6]
 80088ea:	6075      	str	r5, [r6, #4]
 80088ec:	9423      	str	r4, [sp, #140]	; 0x8c
 80088ee:	9322      	str	r3, [sp, #136]	; 0x88
 80088f0:	ddd6      	ble.n	80088a0 <_svfprintf_r+0x9a4>
 80088f2:	9808      	ldr	r0, [sp, #32]
 80088f4:	9906      	ldr	r1, [sp, #24]
 80088f6:	aa21      	add	r2, sp, #132	; 0x84
 80088f8:	f003 fa80 	bl	800bdfc <__ssprint_r>
 80088fc:	2800      	cmp	r0, #0
 80088fe:	f47f acbc 	bne.w	800827a <_svfprintf_r+0x37e>
 8008902:	9c23      	ldr	r4, [sp, #140]	; 0x8c
 8008904:	e7cc      	b.n	80088a0 <_svfprintf_r+0x9a4>
 8008906:	2b01      	cmp	r3, #1
 8008908:	f000 81a8 	beq.w	8008c5c <_svfprintf_r+0xd60>
 800890c:	2b02      	cmp	r3, #2
 800890e:	f10d 0cb7 	add.w	ip, sp, #183	; 0xb7
 8008912:	f000 8187 	beq.w	8008c24 <_svfprintf_r+0xd28>
 8008916:	2307      	movs	r3, #7
 8008918:	ea4f 0ed4 	mov.w	lr, r4, lsr #3
 800891c:	ea04 0003 	and.w	r0, r4, r3
 8008920:	ea4e 7b45 	orr.w	fp, lr, r5, lsl #29
 8008924:	08e9      	lsrs	r1, r5, #3
 8008926:	3030      	adds	r0, #48	; 0x30
 8008928:	465c      	mov	r4, fp
 800892a:	460d      	mov	r5, r1
 800892c:	b2c0      	uxtb	r0, r0
 800892e:	ea54 0105 	orrs.w	r1, r4, r5
 8008932:	4667      	mov	r7, ip
 8008934:	f88c 0000 	strb.w	r0, [ip]
 8008938:	f10c 3cff 	add.w	ip, ip, #4294967295
 800893c:	d1ec      	bne.n	8008918 <_svfprintf_r+0xa1c>
 800893e:	9a04      	ldr	r2, [sp, #16]
 8008940:	07d4      	lsls	r4, r2, #31
 8008942:	463b      	mov	r3, r7
 8008944:	d505      	bpl.n	8008952 <_svfprintf_r+0xa56>
 8008946:	2830      	cmp	r0, #48	; 0x30
 8008948:	d003      	beq.n	8008952 <_svfprintf_r+0xa56>
 800894a:	2430      	movs	r4, #48	; 0x30
 800894c:	4667      	mov	r7, ip
 800894e:	f803 4c01 	strb.w	r4, [r3, #-1]
 8008952:	9c03      	ldr	r4, [sp, #12]
 8008954:	1be2      	subs	r2, r4, r7
 8008956:	920a      	str	r2, [sp, #40]	; 0x28
 8008958:	f7ff bbf4 	b.w	8008144 <_svfprintf_r+0x248>
 800895c:	f1b8 0f65 	cmp.w	r8, #101	; 0x65
 8008960:	f77f af53 	ble.w	800880a <_svfprintf_r+0x90e>
 8008964:	e9dd 0112 	ldrd	r0, r1, [sp, #72]	; 0x48
 8008968:	2200      	movs	r2, #0
 800896a:	2300      	movs	r3, #0
 800896c:	f7f8 f82c 	bl	80009c8 <__aeabi_dcmpeq>
 8008970:	2800      	cmp	r0, #0
 8008972:	f000 81ac 	beq.w	8008cce <_svfprintf_r+0xdd2>
 8008976:	9822      	ldr	r0, [sp, #136]	; 0x88
 8008978:	49a8      	ldr	r1, [pc, #672]	; (8008c1c <_svfprintf_r+0xd20>)
 800897a:	1c43      	adds	r3, r0, #1
 800897c:	3401      	adds	r4, #1
 800897e:	2201      	movs	r2, #1
 8008980:	2b07      	cmp	r3, #7
 8008982:	6031      	str	r1, [r6, #0]
 8008984:	6072      	str	r2, [r6, #4]
 8008986:	9423      	str	r4, [sp, #140]	; 0x8c
 8008988:	9322      	str	r3, [sp, #136]	; 0x88
 800898a:	f300 8451 	bgt.w	8009230 <_svfprintf_r+0x1334>
 800898e:	3608      	adds	r6, #8
 8008990:	981a      	ldr	r0, [sp, #104]	; 0x68
 8008992:	9b0d      	ldr	r3, [sp, #52]	; 0x34
 8008994:	4298      	cmp	r0, r3
 8008996:	db03      	blt.n	80089a0 <_svfprintf_r+0xaa4>
 8008998:	9904      	ldr	r1, [sp, #16]
 800899a:	07cb      	lsls	r3, r1, #31
 800899c:	f57f aec3 	bpl.w	8008726 <_svfprintf_r+0x82a>
 80089a0:	9b22      	ldr	r3, [sp, #136]	; 0x88
 80089a2:	9811      	ldr	r0, [sp, #68]	; 0x44
 80089a4:	9a0f      	ldr	r2, [sp, #60]	; 0x3c
 80089a6:	6070      	str	r0, [r6, #4]
 80089a8:	1c59      	adds	r1, r3, #1
 80089aa:	1824      	adds	r4, r4, r0
 80089ac:	2907      	cmp	r1, #7
 80089ae:	6032      	str	r2, [r6, #0]
 80089b0:	9423      	str	r4, [sp, #140]	; 0x8c
 80089b2:	9122      	str	r1, [sp, #136]	; 0x88
 80089b4:	f300 857f 	bgt.w	80094b6 <_svfprintf_r+0x15ba>
 80089b8:	3608      	adds	r6, #8
 80089ba:	9d0d      	ldr	r5, [sp, #52]	; 0x34
 80089bc:	3d01      	subs	r5, #1
 80089be:	2d00      	cmp	r5, #0
 80089c0:	f77f aeb1 	ble.w	8008726 <_svfprintf_r+0x82a>
 80089c4:	2d10      	cmp	r5, #16
 80089c6:	f340 8288 	ble.w	8008eda <_svfprintf_r+0xfde>
 80089ca:	9822      	ldr	r0, [sp, #136]	; 0x88
 80089cc:	9a0d      	ldr	r2, [sp, #52]	; 0x34
 80089ce:	f8c6 9000 	str.w	r9, [r6]
 80089d2:	2710      	movs	r7, #16
 80089d4:	1c41      	adds	r1, r0, #1
 80089d6:	f1a2 0e12 	sub.w	lr, r2, #18
 80089da:	19e4      	adds	r4, r4, r7
 80089dc:	2907      	cmp	r1, #7
 80089de:	6077      	str	r7, [r6, #4]
 80089e0:	f8df b23c 	ldr.w	fp, [pc, #572]	; 8008c20 <_svfprintf_r+0xd24>
 80089e4:	9423      	str	r4, [sp, #140]	; 0x8c
 80089e6:	9122      	str	r1, [sp, #136]	; 0x88
 80089e8:	f3ce 1800 	ubfx	r8, lr, #4, #1
 80089ec:	f300 8616 	bgt.w	800961c <_svfprintf_r+0x1720>
 80089f0:	3608      	adds	r6, #8
 80089f2:	3d10      	subs	r5, #16
 80089f4:	2d10      	cmp	r5, #16
 80089f6:	f340 8273 	ble.w	8008ee0 <_svfprintf_r+0xfe4>
 80089fa:	f1b8 0f00 	cmp.w	r8, #0
 80089fe:	d00e      	beq.n	8008a1e <_svfprintf_r+0xb22>
 8008a00:	3101      	adds	r1, #1
 8008a02:	3410      	adds	r4, #16
 8008a04:	2907      	cmp	r1, #7
 8008a06:	f8c6 9000 	str.w	r9, [r6]
 8008a0a:	6077      	str	r7, [r6, #4]
 8008a0c:	9423      	str	r4, [sp, #140]	; 0x8c
 8008a0e:	9122      	str	r1, [sp, #136]	; 0x88
 8008a10:	f300 8611 	bgt.w	8009636 <_svfprintf_r+0x173a>
 8008a14:	3608      	adds	r6, #8
 8008a16:	3d10      	subs	r5, #16
 8008a18:	2d10      	cmp	r5, #16
 8008a1a:	f340 8261 	ble.w	8008ee0 <_svfprintf_r+0xfe4>
 8008a1e:	4620      	mov	r0, r4
 8008a20:	f8dd 8020 	ldr.w	r8, [sp, #32]
 8008a24:	9c06      	ldr	r4, [sp, #24]
 8008a26:	e010      	b.n	8008a4a <_svfprintf_r+0xb4e>
 8008a28:	3608      	adds	r6, #8
 8008a2a:	1c59      	adds	r1, r3, #1
 8008a2c:	3010      	adds	r0, #16
 8008a2e:	3d10      	subs	r5, #16
 8008a30:	2907      	cmp	r1, #7
 8008a32:	f8c6 9000 	str.w	r9, [r6]
 8008a36:	6077      	str	r7, [r6, #4]
 8008a38:	9122      	str	r1, [sp, #136]	; 0x88
 8008a3a:	9023      	str	r0, [sp, #140]	; 0x8c
 8008a3c:	f300 811f 	bgt.w	8008c7e <_svfprintf_r+0xd82>
 8008a40:	3608      	adds	r6, #8
 8008a42:	3d10      	subs	r5, #16
 8008a44:	2d10      	cmp	r5, #16
 8008a46:	f340 83ec 	ble.w	8009222 <_svfprintf_r+0x1326>
 8008a4a:	1c4b      	adds	r3, r1, #1
 8008a4c:	3010      	adds	r0, #16
 8008a4e:	2b07      	cmp	r3, #7
 8008a50:	f8c6 9000 	str.w	r9, [r6]
 8008a54:	6077      	str	r7, [r6, #4]
 8008a56:	9023      	str	r0, [sp, #140]	; 0x8c
 8008a58:	9322      	str	r3, [sp, #136]	; 0x88
 8008a5a:	dde5      	ble.n	8008a28 <_svfprintf_r+0xb2c>
 8008a5c:	4640      	mov	r0, r8
 8008a5e:	4621      	mov	r1, r4
 8008a60:	aa21      	add	r2, sp, #132	; 0x84
 8008a62:	f003 f9cb 	bl	800bdfc <__ssprint_r>
 8008a66:	2800      	cmp	r0, #0
 8008a68:	f47f ac07 	bne.w	800827a <_svfprintf_r+0x37e>
 8008a6c:	9823      	ldr	r0, [sp, #140]	; 0x8c
 8008a6e:	9b22      	ldr	r3, [sp, #136]	; 0x88
 8008a70:	ae2e      	add	r6, sp, #184	; 0xb8
 8008a72:	e7da      	b.n	8008a2a <_svfprintf_r+0xb2e>
 8008a74:	9d09      	ldr	r5, [sp, #36]	; 0x24
 8008a76:	9807      	ldr	r0, [sp, #28]
 8008a78:	1a2d      	subs	r5, r5, r0
 8008a7a:	2d00      	cmp	r5, #0
 8008a7c:	f77f adcd 	ble.w	800861a <_svfprintf_r+0x71e>
 8008a80:	2d10      	cmp	r5, #16
 8008a82:	f340 8694 	ble.w	80097ae <_svfprintf_r+0x18b2>
 8008a86:	9822      	ldr	r0, [sp, #136]	; 0x88
 8008a88:	4a65      	ldr	r2, [pc, #404]	; (8008c20 <_svfprintf_r+0xd24>)
 8008a8a:	f8c6 9000 	str.w	r9, [r6]
 8008a8e:	f04f 0b10 	mov.w	fp, #16
 8008a92:	3001      	adds	r0, #1
 8008a94:	f1a5 0311 	sub.w	r3, r5, #17
 8008a98:	445c      	add	r4, fp
 8008a9a:	2807      	cmp	r0, #7
 8008a9c:	f8c6 b004 	str.w	fp, [r6, #4]
 8008aa0:	9205      	str	r2, [sp, #20]
 8008aa2:	9423      	str	r4, [sp, #140]	; 0x8c
 8008aa4:	9022      	str	r0, [sp, #136]	; 0x88
 8008aa6:	f3c3 1300 	ubfx	r3, r3, #4, #1
 8008aaa:	f300 8313 	bgt.w	80090d4 <_svfprintf_r+0x11d8>
 8008aae:	3608      	adds	r6, #8
 8008ab0:	3d10      	subs	r5, #16
 8008ab2:	2d10      	cmp	r5, #16
 8008ab4:	dd48      	ble.n	8008b48 <_svfprintf_r+0xc4c>
 8008ab6:	b163      	cbz	r3, 8008ad2 <_svfprintf_r+0xbd6>
 8008ab8:	3001      	adds	r0, #1
 8008aba:	3410      	adds	r4, #16
 8008abc:	2807      	cmp	r0, #7
 8008abe:	e886 0a00 	stmia.w	r6, {r9, fp}
 8008ac2:	9423      	str	r4, [sp, #140]	; 0x8c
 8008ac4:	9022      	str	r0, [sp, #136]	; 0x88
 8008ac6:	f300 8313 	bgt.w	80090f0 <_svfprintf_r+0x11f4>
 8008aca:	3608      	adds	r6, #8
 8008acc:	3d10      	subs	r5, #16
 8008ace:	2d10      	cmp	r5, #16
 8008ad0:	dd3a      	ble.n	8008b48 <_svfprintf_r+0xc4c>
 8008ad2:	4621      	mov	r1, r4
 8008ad4:	4632      	mov	r2, r6
 8008ad6:	9c08      	ldr	r4, [sp, #32]
 8008ad8:	462e      	mov	r6, r5
 8008ada:	4603      	mov	r3, r0
 8008adc:	9d06      	ldr	r5, [sp, #24]
 8008ade:	e00d      	b.n	8008afc <_svfprintf_r+0xc00>
 8008ae0:	3208      	adds	r2, #8
 8008ae2:	1c43      	adds	r3, r0, #1
 8008ae4:	3110      	adds	r1, #16
 8008ae6:	3e10      	subs	r6, #16
 8008ae8:	2b07      	cmp	r3, #7
 8008aea:	e882 0a00 	stmia.w	r2, {r9, fp}
 8008aee:	9322      	str	r3, [sp, #136]	; 0x88
 8008af0:	9123      	str	r1, [sp, #140]	; 0x8c
 8008af2:	dc17      	bgt.n	8008b24 <_svfprintf_r+0xc28>
 8008af4:	3e10      	subs	r6, #16
 8008af6:	3208      	adds	r2, #8
 8008af8:	2e10      	cmp	r6, #16
 8008afa:	dd21      	ble.n	8008b40 <_svfprintf_r+0xc44>
 8008afc:	1c58      	adds	r0, r3, #1
 8008afe:	3110      	adds	r1, #16
 8008b00:	2807      	cmp	r0, #7
 8008b02:	e882 0a00 	stmia.w	r2, {r9, fp}
 8008b06:	9123      	str	r1, [sp, #140]	; 0x8c
 8008b08:	9022      	str	r0, [sp, #136]	; 0x88
 8008b0a:	dde9      	ble.n	8008ae0 <_svfprintf_r+0xbe4>
 8008b0c:	4620      	mov	r0, r4
 8008b0e:	4629      	mov	r1, r5
 8008b10:	aa21      	add	r2, sp, #132	; 0x84
 8008b12:	f003 f973 	bl	800bdfc <__ssprint_r>
 8008b16:	2800      	cmp	r0, #0
 8008b18:	f47f abaf 	bne.w	800827a <_svfprintf_r+0x37e>
 8008b1c:	9923      	ldr	r1, [sp, #140]	; 0x8c
 8008b1e:	9822      	ldr	r0, [sp, #136]	; 0x88
 8008b20:	aa2e      	add	r2, sp, #184	; 0xb8
 8008b22:	e7de      	b.n	8008ae2 <_svfprintf_r+0xbe6>
 8008b24:	4620      	mov	r0, r4
 8008b26:	4629      	mov	r1, r5
 8008b28:	aa21      	add	r2, sp, #132	; 0x84
 8008b2a:	f003 f967 	bl	800bdfc <__ssprint_r>
 8008b2e:	2800      	cmp	r0, #0
 8008b30:	f47f aba3 	bne.w	800827a <_svfprintf_r+0x37e>
 8008b34:	3e10      	subs	r6, #16
 8008b36:	2e10      	cmp	r6, #16
 8008b38:	aa2e      	add	r2, sp, #184	; 0xb8
 8008b3a:	9923      	ldr	r1, [sp, #140]	; 0x8c
 8008b3c:	9b22      	ldr	r3, [sp, #136]	; 0x88
 8008b3e:	dcdd      	bgt.n	8008afc <_svfprintf_r+0xc00>
 8008b40:	4635      	mov	r5, r6
 8008b42:	460c      	mov	r4, r1
 8008b44:	4616      	mov	r6, r2
 8008b46:	4618      	mov	r0, r3
 8008b48:	1c41      	adds	r1, r0, #1
 8008b4a:	9b05      	ldr	r3, [sp, #20]
 8008b4c:	1964      	adds	r4, r4, r5
 8008b4e:	2907      	cmp	r1, #7
 8008b50:	e886 0028 	stmia.w	r6, {r3, r5}
 8008b54:	9423      	str	r4, [sp, #140]	; 0x8c
 8008b56:	9122      	str	r1, [sp, #136]	; 0x88
 8008b58:	f300 8300 	bgt.w	800915c <_svfprintf_r+0x1260>
 8008b5c:	3608      	adds	r6, #8
 8008b5e:	e55c      	b.n	800861a <_svfprintf_r+0x71e>
 8008b60:	4a2f      	ldr	r2, [pc, #188]	; (8008c20 <_svfprintf_r+0xd24>)
 8008b62:	9205      	str	r2, [sp, #20]
 8008b64:	3501      	adds	r5, #1
 8008b66:	9b05      	ldr	r3, [sp, #20]
 8008b68:	19e4      	adds	r4, r4, r7
 8008b6a:	2d07      	cmp	r5, #7
 8008b6c:	e886 0088 	stmia.w	r6, {r3, r7}
 8008b70:	9423      	str	r4, [sp, #140]	; 0x8c
 8008b72:	9522      	str	r5, [sp, #136]	; 0x88
 8008b74:	f77f ae7a 	ble.w	800886c <_svfprintf_r+0x970>
 8008b78:	9808      	ldr	r0, [sp, #32]
 8008b7a:	9906      	ldr	r1, [sp, #24]
 8008b7c:	aa21      	add	r2, sp, #132	; 0x84
 8008b7e:	f003 f93d 	bl	800bdfc <__ssprint_r>
 8008b82:	2800      	cmp	r0, #0
 8008b84:	f47f ab79 	bne.w	800827a <_svfprintf_r+0x37e>
 8008b88:	ae2e      	add	r6, sp, #184	; 0xb8
 8008b8a:	9c23      	ldr	r4, [sp, #140]	; 0x8c
 8008b8c:	9d22      	ldr	r5, [sp, #136]	; 0x88
 8008b8e:	e66e      	b.n	800886e <_svfprintf_r+0x972>
 8008b90:	9808      	ldr	r0, [sp, #32]
 8008b92:	9906      	ldr	r1, [sp, #24]
 8008b94:	aa21      	add	r2, sp, #132	; 0x84
 8008b96:	f003 f931 	bl	800bdfc <__ssprint_r>
 8008b9a:	2800      	cmp	r0, #0
 8008b9c:	f43f ae8b 	beq.w	80088b6 <_svfprintf_r+0x9ba>
 8008ba0:	f7ff bb6b 	b.w	800827a <_svfprintf_r+0x37e>
 8008ba4:	9808      	ldr	r0, [sp, #32]
 8008ba6:	9906      	ldr	r1, [sp, #24]
 8008ba8:	9302      	str	r3, [sp, #8]
 8008baa:	aa21      	add	r2, sp, #132	; 0x84
 8008bac:	f003 f926 	bl	800bdfc <__ssprint_r>
 8008bb0:	9b02      	ldr	r3, [sp, #8]
 8008bb2:	2800      	cmp	r0, #0
 8008bb4:	f47f ab61 	bne.w	800827a <_svfprintf_r+0x37e>
 8008bb8:	ae2e      	add	r6, sp, #184	; 0xb8
 8008bba:	9c23      	ldr	r4, [sp, #140]	; 0x8c
 8008bbc:	9a22      	ldr	r2, [sp, #136]	; 0x88
 8008bbe:	e549      	b.n	8008654 <_svfprintf_r+0x758>
 8008bc0:	9808      	ldr	r0, [sp, #32]
 8008bc2:	9906      	ldr	r1, [sp, #24]
 8008bc4:	aa21      	add	r2, sp, #132	; 0x84
 8008bc6:	f003 f919 	bl	800bdfc <__ssprint_r>
 8008bca:	2800      	cmp	r0, #0
 8008bcc:	f47f ab55 	bne.w	800827a <_svfprintf_r+0x37e>
 8008bd0:	ae2e      	add	r6, sp, #184	; 0xb8
 8008bd2:	9c23      	ldr	r4, [sp, #140]	; 0x8c
 8008bd4:	9a22      	ldr	r2, [sp, #136]	; 0x88
 8008bd6:	e54b      	b.n	8008670 <_svfprintf_r+0x774>
 8008bd8:	9808      	ldr	r0, [sp, #32]
 8008bda:	9906      	ldr	r1, [sp, #24]
 8008bdc:	aa21      	add	r2, sp, #132	; 0x84
 8008bde:	f003 f90d 	bl	800bdfc <__ssprint_r>
 8008be2:	2800      	cmp	r0, #0
 8008be4:	f47f ab49 	bne.w	800827a <_svfprintf_r+0x37e>
 8008be8:	9c23      	ldr	r4, [sp, #140]	; 0x8c
 8008bea:	ae2e      	add	r6, sp, #184	; 0xb8
 8008bec:	e58a      	b.n	8008704 <_svfprintf_r+0x808>
 8008bee:	9808      	ldr	r0, [sp, #32]
 8008bf0:	9906      	ldr	r1, [sp, #24]
 8008bf2:	aa21      	add	r2, sp, #132	; 0x84
 8008bf4:	f003 f902 	bl	800bdfc <__ssprint_r>
 8008bf8:	2800      	cmp	r0, #0
 8008bfa:	f47f ab3e 	bne.w	800827a <_svfprintf_r+0x37e>
 8008bfe:	9c23      	ldr	r4, [sp, #140]	; 0x8c
 8008c00:	ae2e      	add	r6, sp, #184	; 0xb8
 8008c02:	e4f7      	b.n	80085f4 <_svfprintf_r+0x6f8>
 8008c04:	9808      	ldr	r0, [sp, #32]
 8008c06:	9906      	ldr	r1, [sp, #24]
 8008c08:	aa21      	add	r2, sp, #132	; 0x84
 8008c0a:	f003 f8f7 	bl	800bdfc <__ssprint_r>
 8008c0e:	2800      	cmp	r0, #0
 8008c10:	f47f ab33 	bne.w	800827a <_svfprintf_r+0x37e>
 8008c14:	9c23      	ldr	r4, [sp, #140]	; 0x8c
 8008c16:	ae2e      	add	r6, sp, #184	; 0xb8
 8008c18:	e4fb      	b.n	8008612 <_svfprintf_r+0x716>
 8008c1a:	bf00      	nop
 8008c1c:	0800f998 	.word	0x0800f998
 8008c20:	0800f99c 	.word	0x0800f99c
 8008c24:	f8dd e050 	ldr.w	lr, [sp, #80]	; 0x50
 8008c28:	9607      	str	r6, [sp, #28]
 8008c2a:	210f      	movs	r1, #15
 8008c2c:	ea04 0601 	and.w	r6, r4, r1
 8008c30:	eb0e 0006 	add.w	r0, lr, r6
 8008c34:	0927      	lsrs	r7, r4, #4
 8008c36:	092a      	lsrs	r2, r5, #4
 8008c38:	ea47 7405 	orr.w	r4, r7, r5, lsl #28
 8008c3c:	7803      	ldrb	r3, [r0, #0]
 8008c3e:	4615      	mov	r5, r2
 8008c40:	ea54 0205 	orrs.w	r2, r4, r5
 8008c44:	4667      	mov	r7, ip
 8008c46:	f88c 3000 	strb.w	r3, [ip]
 8008c4a:	f10c 3cff 	add.w	ip, ip, #4294967295
 8008c4e:	d1ed      	bne.n	8008c2c <_svfprintf_r+0xd30>
 8008c50:	9903      	ldr	r1, [sp, #12]
 8008c52:	9e07      	ldr	r6, [sp, #28]
 8008c54:	1bc8      	subs	r0, r1, r7
 8008c56:	900a      	str	r0, [sp, #40]	; 0x28
 8008c58:	f7ff ba74 	b.w	8008144 <_svfprintf_r+0x248>
 8008c5c:	2d00      	cmp	r5, #0
 8008c5e:	bf08      	it	eq
 8008c60:	2c0a      	cmpeq	r4, #10
 8008c62:	f080 8154 	bcs.w	8008f0e <_svfprintf_r+0x1012>
 8008c66:	af3e      	add	r7, sp, #248	; 0xf8
 8008c68:	3430      	adds	r4, #48	; 0x30
 8008c6a:	f807 4d41 	strb.w	r4, [r7, #-65]!
 8008c6e:	9b03      	ldr	r3, [sp, #12]
 8008c70:	1bd9      	subs	r1, r3, r7
 8008c72:	910a      	str	r1, [sp, #40]	; 0x28
 8008c74:	f7ff ba66 	b.w	8008144 <_svfprintf_r+0x248>
 8008c78:	2302      	movs	r3, #2
 8008c7a:	f7ff ba2a 	b.w	80080d2 <_svfprintf_r+0x1d6>
 8008c7e:	4640      	mov	r0, r8
 8008c80:	4621      	mov	r1, r4
 8008c82:	aa21      	add	r2, sp, #132	; 0x84
 8008c84:	f003 f8ba 	bl	800bdfc <__ssprint_r>
 8008c88:	2800      	cmp	r0, #0
 8008c8a:	f47f aaf6 	bne.w	800827a <_svfprintf_r+0x37e>
 8008c8e:	ae2e      	add	r6, sp, #184	; 0xb8
 8008c90:	9823      	ldr	r0, [sp, #140]	; 0x8c
 8008c92:	9922      	ldr	r1, [sp, #136]	; 0x88
 8008c94:	e6d5      	b.n	8008a42 <_svfprintf_r+0xb46>
 8008c96:	9808      	ldr	r0, [sp, #32]
 8008c98:	9906      	ldr	r1, [sp, #24]
 8008c9a:	9302      	str	r3, [sp, #8]
 8008c9c:	aa21      	add	r2, sp, #132	; 0x84
 8008c9e:	f003 f8ad 	bl	800bdfc <__ssprint_r>
 8008ca2:	9b02      	ldr	r3, [sp, #8]
 8008ca4:	2800      	cmp	r0, #0
 8008ca6:	f47f aae8 	bne.w	800827a <_svfprintf_r+0x37e>
 8008caa:	ae2e      	add	r6, sp, #184	; 0xb8
 8008cac:	9923      	ldr	r1, [sp, #140]	; 0x8c
 8008cae:	9a22      	ldr	r2, [sp, #136]	; 0x88
 8008cb0:	f7ff ba80 	b.w	80081b4 <_svfprintf_r+0x2b8>
 8008cb4:	9808      	ldr	r0, [sp, #32]
 8008cb6:	9906      	ldr	r1, [sp, #24]
 8008cb8:	aa21      	add	r2, sp, #132	; 0x84
 8008cba:	f003 f89f 	bl	800bdfc <__ssprint_r>
 8008cbe:	2800      	cmp	r0, #0
 8008cc0:	f47f aadb 	bne.w	800827a <_svfprintf_r+0x37e>
 8008cc4:	ae2e      	add	r6, sp, #184	; 0xb8
 8008cc6:	9923      	ldr	r1, [sp, #140]	; 0x8c
 8008cc8:	9a22      	ldr	r2, [sp, #136]	; 0x88
 8008cca:	f7ff ba86 	b.w	80081da <_svfprintf_r+0x2de>
 8008cce:	9d1a      	ldr	r5, [sp, #104]	; 0x68
 8008cd0:	2d00      	cmp	r5, #0
 8008cd2:	f340 82b9 	ble.w	8009248 <_svfprintf_r+0x134c>
 8008cd6:	9d0d      	ldr	r5, [sp, #52]	; 0x34
 8008cd8:	9910      	ldr	r1, [sp, #64]	; 0x40
 8008cda:	9a0d      	ldr	r2, [sp, #52]	; 0x34
 8008cdc:	428d      	cmp	r5, r1
 8008cde:	bfa8      	it	ge
 8008ce0:	460d      	movge	r5, r1
 8008ce2:	18b8      	adds	r0, r7, r2
 8008ce4:	2d00      	cmp	r5, #0
 8008ce6:	9005      	str	r0, [sp, #20]
 8008ce8:	dd0a      	ble.n	8008d00 <_svfprintf_r+0xe04>
 8008cea:	9b22      	ldr	r3, [sp, #136]	; 0x88
 8008cec:	6037      	str	r7, [r6, #0]
 8008cee:	1c59      	adds	r1, r3, #1
 8008cf0:	1964      	adds	r4, r4, r5
 8008cf2:	2907      	cmp	r1, #7
 8008cf4:	6075      	str	r5, [r6, #4]
 8008cf6:	9423      	str	r4, [sp, #140]	; 0x8c
 8008cf8:	9122      	str	r1, [sp, #136]	; 0x88
 8008cfa:	f300 8483 	bgt.w	8009604 <_svfprintf_r+0x1708>
 8008cfe:	3608      	adds	r6, #8
 8008d00:	9a10      	ldr	r2, [sp, #64]	; 0x40
 8008d02:	ea25 75e5 	bic.w	r5, r5, r5, asr #31
 8008d06:	1b55      	subs	r5, r2, r5
 8008d08:	2d00      	cmp	r5, #0
 8008d0a:	f340 814f 	ble.w	8008fac <_svfprintf_r+0x10b0>
 8008d0e:	2d10      	cmp	r5, #16
 8008d10:	f340 8278 	ble.w	8009204 <_svfprintf_r+0x1308>
 8008d14:	9922      	ldr	r1, [sp, #136]	; 0x88
 8008d16:	4b9f      	ldr	r3, [pc, #636]	; (8008f94 <_svfprintf_r+0x1098>)
 8008d18:	f8c6 9000 	str.w	r9, [r6]
 8008d1c:	f04f 0810 	mov.w	r8, #16
 8008d20:	3101      	adds	r1, #1
 8008d22:	f1a5 0e11 	sub.w	lr, r5, #17
 8008d26:	4444      	add	r4, r8
 8008d28:	2907      	cmp	r1, #7
 8008d2a:	f8c6 8004 	str.w	r8, [r6, #4]
 8008d2e:	930a      	str	r3, [sp, #40]	; 0x28
 8008d30:	9423      	str	r4, [sp, #140]	; 0x8c
 8008d32:	9122      	str	r1, [sp, #136]	; 0x88
 8008d34:	f3ce 1b00 	ubfx	fp, lr, #4, #1
 8008d38:	f300 8457 	bgt.w	80095ea <_svfprintf_r+0x16ee>
 8008d3c:	3608      	adds	r6, #8
 8008d3e:	3d10      	subs	r5, #16
 8008d40:	2d10      	cmp	r5, #16
 8008d42:	f340 8262 	ble.w	800920a <_svfprintf_r+0x130e>
 8008d46:	f1bb 0f00 	cmp.w	fp, #0
 8008d4a:	d00f      	beq.n	8008d6c <_svfprintf_r+0xe70>
 8008d4c:	3101      	adds	r1, #1
 8008d4e:	3410      	adds	r4, #16
 8008d50:	2907      	cmp	r1, #7
 8008d52:	f8c6 9000 	str.w	r9, [r6]
 8008d56:	f8c6 8004 	str.w	r8, [r6, #4]
 8008d5a:	9423      	str	r4, [sp, #140]	; 0x8c
 8008d5c:	9122      	str	r1, [sp, #136]	; 0x88
 8008d5e:	f300 8477 	bgt.w	8009650 <_svfprintf_r+0x1754>
 8008d62:	3608      	adds	r6, #8
 8008d64:	3d10      	subs	r5, #16
 8008d66:	2d10      	cmp	r5, #16
 8008d68:	f340 824f 	ble.w	800920a <_svfprintf_r+0x130e>
 8008d6c:	4620      	mov	r0, r4
 8008d6e:	f8dd b020 	ldr.w	fp, [sp, #32]
 8008d72:	9c06      	ldr	r4, [sp, #24]
 8008d74:	e012      	b.n	8008d9c <_svfprintf_r+0xea0>
 8008d76:	f106 0208 	add.w	r2, r6, #8
 8008d7a:	1c59      	adds	r1, r3, #1
 8008d7c:	3010      	adds	r0, #16
 8008d7e:	3d10      	subs	r5, #16
 8008d80:	2907      	cmp	r1, #7
 8008d82:	f8c2 9000 	str.w	r9, [r2]
 8008d86:	f8c2 8004 	str.w	r8, [r2, #4]
 8008d8a:	9122      	str	r1, [sp, #136]	; 0x88
 8008d8c:	9023      	str	r0, [sp, #140]	; 0x8c
 8008d8e:	dc1b      	bgt.n	8008dc8 <_svfprintf_r+0xecc>
 8008d90:	f102 0608 	add.w	r6, r2, #8
 8008d94:	3d10      	subs	r5, #16
 8008d96:	2d10      	cmp	r5, #16
 8008d98:	f340 840d 	ble.w	80095b6 <_svfprintf_r+0x16ba>
 8008d9c:	1c4b      	adds	r3, r1, #1
 8008d9e:	3010      	adds	r0, #16
 8008da0:	2b07      	cmp	r3, #7
 8008da2:	f8c6 9000 	str.w	r9, [r6]
 8008da6:	f8c6 8004 	str.w	r8, [r6, #4]
 8008daa:	9023      	str	r0, [sp, #140]	; 0x8c
 8008dac:	9322      	str	r3, [sp, #136]	; 0x88
 8008dae:	dde2      	ble.n	8008d76 <_svfprintf_r+0xe7a>
 8008db0:	4658      	mov	r0, fp
 8008db2:	4621      	mov	r1, r4
 8008db4:	aa21      	add	r2, sp, #132	; 0x84
 8008db6:	f003 f821 	bl	800bdfc <__ssprint_r>
 8008dba:	2800      	cmp	r0, #0
 8008dbc:	f47f aa5d 	bne.w	800827a <_svfprintf_r+0x37e>
 8008dc0:	9823      	ldr	r0, [sp, #140]	; 0x8c
 8008dc2:	9b22      	ldr	r3, [sp, #136]	; 0x88
 8008dc4:	aa2e      	add	r2, sp, #184	; 0xb8
 8008dc6:	e7d8      	b.n	8008d7a <_svfprintf_r+0xe7e>
 8008dc8:	4658      	mov	r0, fp
 8008dca:	4621      	mov	r1, r4
 8008dcc:	aa21      	add	r2, sp, #132	; 0x84
 8008dce:	f003 f815 	bl	800bdfc <__ssprint_r>
 8008dd2:	2800      	cmp	r0, #0
 8008dd4:	f47f aa51 	bne.w	800827a <_svfprintf_r+0x37e>
 8008dd8:	ae2e      	add	r6, sp, #184	; 0xb8
 8008dda:	9823      	ldr	r0, [sp, #140]	; 0x8c
 8008ddc:	9922      	ldr	r1, [sp, #136]	; 0x88
 8008dde:	e7d9      	b.n	8008d94 <_svfprintf_r+0xe98>
 8008de0:	9c05      	ldr	r4, [sp, #20]
 8008de2:	af2e      	add	r7, sp, #184	; 0xb8
 8008de4:	940a      	str	r4, [sp, #40]	; 0x28
 8008de6:	f7ff b9ad 	b.w	8008144 <_svfprintf_r+0x248>
 8008dea:	9808      	ldr	r0, [sp, #32]
 8008dec:	9906      	ldr	r1, [sp, #24]
 8008dee:	aa21      	add	r2, sp, #132	; 0x84
 8008df0:	f003 f804 	bl	800bdfc <__ssprint_r>
 8008df4:	2800      	cmp	r0, #0
 8008df6:	f47f aa40 	bne.w	800827a <_svfprintf_r+0x37e>
 8008dfa:	9c23      	ldr	r4, [sp, #140]	; 0x8c
 8008dfc:	ae2e      	add	r6, sp, #184	; 0xb8
 8008dfe:	f7ff bbe8 	b.w	80085d2 <_svfprintf_r+0x6d6>
 8008e02:	9f0d      	ldr	r7, [sp, #52]	; 0x34
 8008e04:	3f01      	subs	r7, #1
 8008e06:	2f00      	cmp	r7, #0
 8008e08:	f77f ad31 	ble.w	800886e <_svfprintf_r+0x972>
 8008e0c:	2f10      	cmp	r7, #16
 8008e0e:	f77f aea7 	ble.w	8008b60 <_svfprintf_r+0xc64>
 8008e12:	980d      	ldr	r0, [sp, #52]	; 0x34
 8008e14:	4b5f      	ldr	r3, [pc, #380]	; (8008f94 <_svfprintf_r+0x1098>)
 8008e16:	f8c6 9000 	str.w	r9, [r6]
 8008e1a:	f04f 0810 	mov.w	r8, #16
 8008e1e:	3501      	adds	r5, #1
 8008e20:	f1a0 0b12 	sub.w	fp, r0, #18
 8008e24:	4444      	add	r4, r8
 8008e26:	2d07      	cmp	r5, #7
 8008e28:	f8c6 8004 	str.w	r8, [r6, #4]
 8008e2c:	9305      	str	r3, [sp, #20]
 8008e2e:	9423      	str	r4, [sp, #140]	; 0x8c
 8008e30:	9522      	str	r5, [sp, #136]	; 0x88
 8008e32:	f3cb 1b00 	ubfx	fp, fp, #4, #1
 8008e36:	f300 83c0 	bgt.w	80095ba <_svfprintf_r+0x16be>
 8008e3a:	3608      	adds	r6, #8
 8008e3c:	3f10      	subs	r7, #16
 8008e3e:	2f10      	cmp	r7, #16
 8008e40:	f77f ae90 	ble.w	8008b64 <_svfprintf_r+0xc68>
 8008e44:	f1bb 0f00 	cmp.w	fp, #0
 8008e48:	d00f      	beq.n	8008e6a <_svfprintf_r+0xf6e>
 8008e4a:	3501      	adds	r5, #1
 8008e4c:	3410      	adds	r4, #16
 8008e4e:	2d07      	cmp	r5, #7
 8008e50:	f8c6 9000 	str.w	r9, [r6]
 8008e54:	f8c6 8004 	str.w	r8, [r6, #4]
 8008e58:	9423      	str	r4, [sp, #140]	; 0x8c
 8008e5a:	9522      	str	r5, [sp, #136]	; 0x88
 8008e5c:	f300 83b9 	bgt.w	80095d2 <_svfprintf_r+0x16d6>
 8008e60:	3608      	adds	r6, #8
 8008e62:	3f10      	subs	r7, #16
 8008e64:	2f10      	cmp	r7, #16
 8008e66:	f77f ae7d 	ble.w	8008b64 <_svfprintf_r+0xc68>
 8008e6a:	4621      	mov	r1, r4
 8008e6c:	f8dd b020 	ldr.w	fp, [sp, #32]
 8008e70:	9c06      	ldr	r4, [sp, #24]
 8008e72:	e010      	b.n	8008e96 <_svfprintf_r+0xf9a>
 8008e74:	3608      	adds	r6, #8
 8008e76:	3501      	adds	r5, #1
 8008e78:	3110      	adds	r1, #16
 8008e7a:	3f10      	subs	r7, #16
 8008e7c:	2d07      	cmp	r5, #7
 8008e7e:	f8c6 9000 	str.w	r9, [r6]
 8008e82:	f8c6 8004 	str.w	r8, [r6, #4]
 8008e86:	9123      	str	r1, [sp, #140]	; 0x8c
 8008e88:	9522      	str	r5, [sp, #136]	; 0x88
 8008e8a:	dc1a      	bgt.n	8008ec2 <_svfprintf_r+0xfc6>
 8008e8c:	3608      	adds	r6, #8
 8008e8e:	3f10      	subs	r7, #16
 8008e90:	2f10      	cmp	r7, #16
 8008e92:	f340 8363 	ble.w	800955c <_svfprintf_r+0x1660>
 8008e96:	3501      	adds	r5, #1
 8008e98:	3110      	adds	r1, #16
 8008e9a:	2d07      	cmp	r5, #7
 8008e9c:	f8c6 9000 	str.w	r9, [r6]
 8008ea0:	f8c6 8004 	str.w	r8, [r6, #4]
 8008ea4:	9123      	str	r1, [sp, #140]	; 0x8c
 8008ea6:	9522      	str	r5, [sp, #136]	; 0x88
 8008ea8:	dde4      	ble.n	8008e74 <_svfprintf_r+0xf78>
 8008eaa:	4658      	mov	r0, fp
 8008eac:	4621      	mov	r1, r4
 8008eae:	aa21      	add	r2, sp, #132	; 0x84
 8008eb0:	f002 ffa4 	bl	800bdfc <__ssprint_r>
 8008eb4:	2800      	cmp	r0, #0
 8008eb6:	f47f a9e0 	bne.w	800827a <_svfprintf_r+0x37e>
 8008eba:	9923      	ldr	r1, [sp, #140]	; 0x8c
 8008ebc:	9d22      	ldr	r5, [sp, #136]	; 0x88
 8008ebe:	ae2e      	add	r6, sp, #184	; 0xb8
 8008ec0:	e7d9      	b.n	8008e76 <_svfprintf_r+0xf7a>
 8008ec2:	4658      	mov	r0, fp
 8008ec4:	4621      	mov	r1, r4
 8008ec6:	aa21      	add	r2, sp, #132	; 0x84
 8008ec8:	f002 ff98 	bl	800bdfc <__ssprint_r>
 8008ecc:	2800      	cmp	r0, #0
 8008ece:	f47f a9d4 	bne.w	800827a <_svfprintf_r+0x37e>
 8008ed2:	ae2e      	add	r6, sp, #184	; 0xb8
 8008ed4:	9923      	ldr	r1, [sp, #140]	; 0x8c
 8008ed6:	9d22      	ldr	r5, [sp, #136]	; 0x88
 8008ed8:	e7d9      	b.n	8008e8e <_svfprintf_r+0xf92>
 8008eda:	9922      	ldr	r1, [sp, #136]	; 0x88
 8008edc:	f8df b0b4 	ldr.w	fp, [pc, #180]	; 8008f94 <_svfprintf_r+0x1098>
 8008ee0:	3101      	adds	r1, #1
 8008ee2:	1964      	adds	r4, r4, r5
 8008ee4:	2907      	cmp	r1, #7
 8008ee6:	f8c6 b000 	str.w	fp, [r6]
 8008eea:	6075      	str	r5, [r6, #4]
 8008eec:	9423      	str	r4, [sp, #140]	; 0x8c
 8008eee:	9122      	str	r1, [sp, #136]	; 0x88
 8008ef0:	f77f ac18 	ble.w	8008724 <_svfprintf_r+0x828>
 8008ef4:	e4c6      	b.n	8008884 <_svfprintf_r+0x988>
 8008ef6:	9808      	ldr	r0, [sp, #32]
 8008ef8:	9906      	ldr	r1, [sp, #24]
 8008efa:	aa21      	add	r2, sp, #132	; 0x84
 8008efc:	f002 ff7e 	bl	800bdfc <__ssprint_r>
 8008f00:	2800      	cmp	r0, #0
 8008f02:	f47f a9ba 	bne.w	800827a <_svfprintf_r+0x37e>
 8008f06:	ae2e      	add	r6, sp, #184	; 0xb8
 8008f08:	9c23      	ldr	r4, [sp, #140]	; 0x8c
 8008f0a:	9922      	ldr	r1, [sp, #136]	; 0x88
 8008f0c:	e42e      	b.n	800876c <_svfprintf_r+0x870>
 8008f0e:	f10d 0bb7 	add.w	fp, sp, #183	; 0xb7
 8008f12:	4620      	mov	r0, r4
 8008f14:	4629      	mov	r1, r5
 8008f16:	220a      	movs	r2, #10
 8008f18:	2300      	movs	r3, #0
 8008f1a:	f7f7 fdff 	bl	8000b1c <__aeabi_uldivmod>
 8008f1e:	3230      	adds	r2, #48	; 0x30
 8008f20:	f88b 2000 	strb.w	r2, [fp]
 8008f24:	4620      	mov	r0, r4
 8008f26:	4629      	mov	r1, r5
 8008f28:	220a      	movs	r2, #10
 8008f2a:	2300      	movs	r3, #0
 8008f2c:	f7f7 fdf6 	bl	8000b1c <__aeabi_uldivmod>
 8008f30:	4604      	mov	r4, r0
 8008f32:	460d      	mov	r5, r1
 8008f34:	ea54 0005 	orrs.w	r0, r4, r5
 8008f38:	465f      	mov	r7, fp
 8008f3a:	f10b 3bff 	add.w	fp, fp, #4294967295
 8008f3e:	d1e8      	bne.n	8008f12 <_svfprintf_r+0x1016>
 8008f40:	e507      	b.n	8008952 <_svfprintf_r+0xa56>
 8008f42:	9808      	ldr	r0, [sp, #32]
 8008f44:	9906      	ldr	r1, [sp, #24]
 8008f46:	aa21      	add	r2, sp, #132	; 0x84
 8008f48:	f002 ff58 	bl	800bdfc <__ssprint_r>
 8008f4c:	2800      	cmp	r0, #0
 8008f4e:	f47f a994 	bne.w	800827a <_svfprintf_r+0x37e>
 8008f52:	ae2e      	add	r6, sp, #184	; 0xb8
 8008f54:	9c23      	ldr	r4, [sp, #140]	; 0x8c
 8008f56:	9922      	ldr	r1, [sp, #136]	; 0x88
 8008f58:	e41d      	b.n	8008796 <_svfprintf_r+0x89a>
 8008f5a:	990c      	ldr	r1, [sp, #48]	; 0x30
 8008f5c:	680c      	ldr	r4, [r1, #0]
 8008f5e:	17e5      	asrs	r5, r4, #31
 8008f60:	4622      	mov	r2, r4
 8008f62:	462b      	mov	r3, r5
 8008f64:	1d0f      	adds	r7, r1, #4
 8008f66:	2a00      	cmp	r2, #0
 8008f68:	f173 0000 	sbcs.w	r0, r3, #0
 8008f6c:	970c      	str	r7, [sp, #48]	; 0x30
 8008f6e:	f6bf a8cb 	bge.w	8008108 <_svfprintf_r+0x20c>
 8008f72:	222d      	movs	r2, #45	; 0x2d
 8008f74:	4264      	negs	r4, r4
 8008f76:	eb65 0545 	sbc.w	r5, r5, r5, lsl #1
 8008f7a:	f88d 2063 	strb.w	r2, [sp, #99]	; 0x63
 8008f7e:	2301      	movs	r3, #1
 8008f80:	f7ff b8c3 	b.w	800810a <_svfprintf_r+0x20e>
 8008f84:	9a0c      	ldr	r2, [sp, #48]	; 0x30
 8008f86:	6815      	ldr	r5, [r2, #0]
 8008f88:	1d17      	adds	r7, r2, #4
 8008f8a:	462c      	mov	r4, r5
 8008f8c:	970c      	str	r7, [sp, #48]	; 0x30
 8008f8e:	2500      	movs	r5, #0
 8008f90:	f7ff b9ec 	b.w	800836c <_svfprintf_r+0x470>
 8008f94:	0800f99c 	.word	0x0800f99c
 8008f98:	9808      	ldr	r0, [sp, #32]
 8008f9a:	9906      	ldr	r1, [sp, #24]
 8008f9c:	aa21      	add	r2, sp, #132	; 0x84
 8008f9e:	f002 ff2d 	bl	800bdfc <__ssprint_r>
 8008fa2:	2800      	cmp	r0, #0
 8008fa4:	f47f a969 	bne.w	800827a <_svfprintf_r+0x37e>
 8008fa8:	9c23      	ldr	r4, [sp, #140]	; 0x8c
 8008faa:	ae2e      	add	r6, sp, #184	; 0xb8
 8008fac:	9b1a      	ldr	r3, [sp, #104]	; 0x68
 8008fae:	9a0d      	ldr	r2, [sp, #52]	; 0x34
 8008fb0:	9810      	ldr	r0, [sp, #64]	; 0x40
 8008fb2:	4293      	cmp	r3, r2
 8008fb4:	4407      	add	r7, r0
 8008fb6:	db72      	blt.n	800909e <_svfprintf_r+0x11a2>
 8008fb8:	9904      	ldr	r1, [sp, #16]
 8008fba:	07c9      	lsls	r1, r1, #31
 8008fbc:	d46f      	bmi.n	800909e <_svfprintf_r+0x11a2>
 8008fbe:	9d05      	ldr	r5, [sp, #20]
 8008fc0:	990d      	ldr	r1, [sp, #52]	; 0x34
 8008fc2:	1bed      	subs	r5, r5, r7
 8008fc4:	1ac9      	subs	r1, r1, r3
 8008fc6:	42a9      	cmp	r1, r5
 8008fc8:	bfb8      	it	lt
 8008fca:	460d      	movlt	r5, r1
 8008fcc:	2d00      	cmp	r5, #0
 8008fce:	dd0a      	ble.n	8008fe6 <_svfprintf_r+0x10ea>
 8008fd0:	9a22      	ldr	r2, [sp, #136]	; 0x88
 8008fd2:	6037      	str	r7, [r6, #0]
 8008fd4:	1c50      	adds	r0, r2, #1
 8008fd6:	1964      	adds	r4, r4, r5
 8008fd8:	2807      	cmp	r0, #7
 8008fda:	6075      	str	r5, [r6, #4]
 8008fdc:	9423      	str	r4, [sp, #140]	; 0x8c
 8008fde:	9022      	str	r0, [sp, #136]	; 0x88
 8008fe0:	f300 8369 	bgt.w	80096b6 <_svfprintf_r+0x17ba>
 8008fe4:	3608      	adds	r6, #8
 8008fe6:	ea25 75e5 	bic.w	r5, r5, r5, asr #31
 8008fea:	1b4d      	subs	r5, r1, r5
 8008fec:	2d00      	cmp	r5, #0
 8008fee:	f77f ab9a 	ble.w	8008726 <_svfprintf_r+0x82a>
 8008ff2:	2d10      	cmp	r5, #16
 8008ff4:	f77f af71 	ble.w	8008eda <_svfprintf_r+0xfde>
 8008ff8:	9a22      	ldr	r2, [sp, #136]	; 0x88
 8008ffa:	f8c6 9000 	str.w	r9, [r6]
 8008ffe:	2710      	movs	r7, #16
 8009000:	1c51      	adds	r1, r2, #1
 8009002:	f1a5 0811 	sub.w	r8, r5, #17
 8009006:	19e4      	adds	r4, r4, r7
 8009008:	2907      	cmp	r1, #7
 800900a:	6077      	str	r7, [r6, #4]
 800900c:	f8df b350 	ldr.w	fp, [pc, #848]	; 8009360 <_svfprintf_r+0x1464>
 8009010:	9423      	str	r4, [sp, #140]	; 0x8c
 8009012:	9122      	str	r1, [sp, #136]	; 0x88
 8009014:	f3c8 1800 	ubfx	r8, r8, #4, #1
 8009018:	f300 8341 	bgt.w	800969e <_svfprintf_r+0x17a2>
 800901c:	3608      	adds	r6, #8
 800901e:	3d10      	subs	r5, #16
 8009020:	2d10      	cmp	r5, #16
 8009022:	f77f af5d 	ble.w	8008ee0 <_svfprintf_r+0xfe4>
 8009026:	f1b8 0f00 	cmp.w	r8, #0
 800902a:	d00e      	beq.n	800904a <_svfprintf_r+0x114e>
 800902c:	3101      	adds	r1, #1
 800902e:	3410      	adds	r4, #16
 8009030:	2907      	cmp	r1, #7
 8009032:	f8c6 9000 	str.w	r9, [r6]
 8009036:	6077      	str	r7, [r6, #4]
 8009038:	9423      	str	r4, [sp, #140]	; 0x8c
 800903a:	9122      	str	r1, [sp, #136]	; 0x88
 800903c:	f300 83a6 	bgt.w	800978c <_svfprintf_r+0x1890>
 8009040:	3608      	adds	r6, #8
 8009042:	3d10      	subs	r5, #16
 8009044:	2d10      	cmp	r5, #16
 8009046:	f77f af4b 	ble.w	8008ee0 <_svfprintf_r+0xfe4>
 800904a:	4620      	mov	r0, r4
 800904c:	f8dd 8020 	ldr.w	r8, [sp, #32]
 8009050:	9c06      	ldr	r4, [sp, #24]
 8009052:	e00f      	b.n	8009074 <_svfprintf_r+0x1178>
 8009054:	3608      	adds	r6, #8
 8009056:	1c59      	adds	r1, r3, #1
 8009058:	3010      	adds	r0, #16
 800905a:	3d10      	subs	r5, #16
 800905c:	2907      	cmp	r1, #7
 800905e:	f8c6 9000 	str.w	r9, [r6]
 8009062:	6077      	str	r7, [r6, #4]
 8009064:	9122      	str	r1, [sp, #136]	; 0x88
 8009066:	9023      	str	r0, [sp, #140]	; 0x8c
 8009068:	dc28      	bgt.n	80090bc <_svfprintf_r+0x11c0>
 800906a:	3608      	adds	r6, #8
 800906c:	3d10      	subs	r5, #16
 800906e:	2d10      	cmp	r5, #16
 8009070:	f340 80d7 	ble.w	8009222 <_svfprintf_r+0x1326>
 8009074:	1c4b      	adds	r3, r1, #1
 8009076:	3010      	adds	r0, #16
 8009078:	2b07      	cmp	r3, #7
 800907a:	f8c6 9000 	str.w	r9, [r6]
 800907e:	6077      	str	r7, [r6, #4]
 8009080:	9023      	str	r0, [sp, #140]	; 0x8c
 8009082:	9322      	str	r3, [sp, #136]	; 0x88
 8009084:	dde6      	ble.n	8009054 <_svfprintf_r+0x1158>
 8009086:	4640      	mov	r0, r8
 8009088:	4621      	mov	r1, r4
 800908a:	aa21      	add	r2, sp, #132	; 0x84
 800908c:	f002 feb6 	bl	800bdfc <__ssprint_r>
 8009090:	2800      	cmp	r0, #0
 8009092:	f47f a8f2 	bne.w	800827a <_svfprintf_r+0x37e>
 8009096:	9823      	ldr	r0, [sp, #140]	; 0x8c
 8009098:	9b22      	ldr	r3, [sp, #136]	; 0x88
 800909a:	ae2e      	add	r6, sp, #184	; 0xb8
 800909c:	e7db      	b.n	8009056 <_svfprintf_r+0x115a>
 800909e:	9922      	ldr	r1, [sp, #136]	; 0x88
 80090a0:	980f      	ldr	r0, [sp, #60]	; 0x3c
 80090a2:	9a11      	ldr	r2, [sp, #68]	; 0x44
 80090a4:	6030      	str	r0, [r6, #0]
 80090a6:	18a4      	adds	r4, r4, r2
 80090a8:	9811      	ldr	r0, [sp, #68]	; 0x44
 80090aa:	1c4a      	adds	r2, r1, #1
 80090ac:	2a07      	cmp	r2, #7
 80090ae:	6070      	str	r0, [r6, #4]
 80090b0:	9423      	str	r4, [sp, #140]	; 0x8c
 80090b2:	9222      	str	r2, [sp, #136]	; 0x88
 80090b4:	f300 82d9 	bgt.w	800966a <_svfprintf_r+0x176e>
 80090b8:	3608      	adds	r6, #8
 80090ba:	e780      	b.n	8008fbe <_svfprintf_r+0x10c2>
 80090bc:	4640      	mov	r0, r8
 80090be:	4621      	mov	r1, r4
 80090c0:	aa21      	add	r2, sp, #132	; 0x84
 80090c2:	f002 fe9b 	bl	800bdfc <__ssprint_r>
 80090c6:	2800      	cmp	r0, #0
 80090c8:	f47f a8d7 	bne.w	800827a <_svfprintf_r+0x37e>
 80090cc:	ae2e      	add	r6, sp, #184	; 0xb8
 80090ce:	9823      	ldr	r0, [sp, #140]	; 0x8c
 80090d0:	9922      	ldr	r1, [sp, #136]	; 0x88
 80090d2:	e7cb      	b.n	800906c <_svfprintf_r+0x1170>
 80090d4:	9808      	ldr	r0, [sp, #32]
 80090d6:	9906      	ldr	r1, [sp, #24]
 80090d8:	9302      	str	r3, [sp, #8]
 80090da:	aa21      	add	r2, sp, #132	; 0x84
 80090dc:	f002 fe8e 	bl	800bdfc <__ssprint_r>
 80090e0:	9b02      	ldr	r3, [sp, #8]
 80090e2:	2800      	cmp	r0, #0
 80090e4:	f47f a8c9 	bne.w	800827a <_svfprintf_r+0x37e>
 80090e8:	ae2e      	add	r6, sp, #184	; 0xb8
 80090ea:	9c23      	ldr	r4, [sp, #140]	; 0x8c
 80090ec:	9822      	ldr	r0, [sp, #136]	; 0x88
 80090ee:	e4df      	b.n	8008ab0 <_svfprintf_r+0xbb4>
 80090f0:	9808      	ldr	r0, [sp, #32]
 80090f2:	9906      	ldr	r1, [sp, #24]
 80090f4:	aa21      	add	r2, sp, #132	; 0x84
 80090f6:	f002 fe81 	bl	800bdfc <__ssprint_r>
 80090fa:	2800      	cmp	r0, #0
 80090fc:	f47f a8bd 	bne.w	800827a <_svfprintf_r+0x37e>
 8009100:	ae2e      	add	r6, sp, #184	; 0xb8
 8009102:	9c23      	ldr	r4, [sp, #140]	; 0x8c
 8009104:	9822      	ldr	r0, [sp, #136]	; 0x88
 8009106:	e4e1      	b.n	8008acc <_svfprintf_r+0xbd0>
 8009108:	9904      	ldr	r1, [sp, #16]
 800910a:	07ca      	lsls	r2, r1, #31
 800910c:	f53f ab81 	bmi.w	8008812 <_svfprintf_r+0x916>
 8009110:	9a22      	ldr	r2, [sp, #136]	; 0x88
 8009112:	6037      	str	r7, [r6, #0]
 8009114:	3401      	adds	r4, #1
 8009116:	1c55      	adds	r5, r2, #1
 8009118:	2001      	movs	r0, #1
 800911a:	f7ff bba1 	b.w	8008860 <_svfprintf_r+0x964>
 800911e:	9808      	ldr	r0, [sp, #32]
 8009120:	9906      	ldr	r1, [sp, #24]
 8009122:	aa21      	add	r2, sp, #132	; 0x84
 8009124:	f002 fe6a 	bl	800bdfc <__ssprint_r>
 8009128:	2800      	cmp	r0, #0
 800912a:	f47f a8a6 	bne.w	800827a <_svfprintf_r+0x37e>
 800912e:	9c23      	ldr	r4, [sp, #140]	; 0x8c
 8009130:	9d22      	ldr	r5, [sp, #136]	; 0x88
 8009132:	ae2e      	add	r6, sp, #184	; 0xb8
 8009134:	f7ff bb79 	b.w	800882a <_svfprintf_r+0x92e>
 8009138:	9808      	ldr	r0, [sp, #32]
 800913a:	9906      	ldr	r1, [sp, #24]
 800913c:	aa21      	add	r2, sp, #132	; 0x84
 800913e:	f002 fe5d 	bl	800bdfc <__ssprint_r>
 8009142:	2800      	cmp	r0, #0
 8009144:	f47f a899 	bne.w	800827a <_svfprintf_r+0x37e>
 8009148:	9c23      	ldr	r4, [sp, #140]	; 0x8c
 800914a:	9d22      	ldr	r5, [sp, #136]	; 0x88
 800914c:	ae2e      	add	r6, sp, #184	; 0xb8
 800914e:	f7ff bb78 	b.w	8008842 <_svfprintf_r+0x946>
 8009152:	9905      	ldr	r1, [sp, #20]
 8009154:	af2e      	add	r7, sp, #184	; 0xb8
 8009156:	910a      	str	r1, [sp, #40]	; 0x28
 8009158:	f7fe bff4 	b.w	8008144 <_svfprintf_r+0x248>
 800915c:	9808      	ldr	r0, [sp, #32]
 800915e:	9906      	ldr	r1, [sp, #24]
 8009160:	aa21      	add	r2, sp, #132	; 0x84
 8009162:	f002 fe4b 	bl	800bdfc <__ssprint_r>
 8009166:	2800      	cmp	r0, #0
 8009168:	f47f a887 	bne.w	800827a <_svfprintf_r+0x37e>
 800916c:	9c23      	ldr	r4, [sp, #140]	; 0x8c
 800916e:	ae2e      	add	r6, sp, #184	; 0xb8
 8009170:	f7ff ba53 	b.w	800861a <_svfprintf_r+0x71e>
 8009174:	462a      	mov	r2, r5
 8009176:	4623      	mov	r3, r4
 8009178:	ec43 2b10 	vmov	d0, r2, r3
 800917c:	f002 fe06 	bl	800bd8c <__fpclassifyd>
 8009180:	2800      	cmp	r0, #0
 8009182:	f040 80f1 	bne.w	8009368 <_svfprintf_r+0x146c>
 8009186:	2703      	movs	r7, #3
 8009188:	4a73      	ldr	r2, [pc, #460]	; (8009358 <_svfprintf_r+0x145c>)
 800918a:	9707      	str	r7, [sp, #28]
 800918c:	4f73      	ldr	r7, [pc, #460]	; (800935c <_svfprintf_r+0x1460>)
 800918e:	900e      	str	r0, [sp, #56]	; 0x38
 8009190:	9804      	ldr	r0, [sp, #16]
 8009192:	f89d 3063 	ldrb.w	r3, [sp, #99]	; 0x63
 8009196:	f1b8 0f47 	cmp.w	r8, #71	; 0x47
 800919a:	bfd8      	it	le
 800919c:	4617      	movle	r7, r2
 800919e:	9a0e      	ldr	r2, [sp, #56]	; 0x38
 80091a0:	f020 0480 	bic.w	r4, r0, #128	; 0x80
 80091a4:	2103      	movs	r1, #3
 80091a6:	9404      	str	r4, [sp, #16]
 80091a8:	910a      	str	r1, [sp, #40]	; 0x28
 80091aa:	9210      	str	r2, [sp, #64]	; 0x40
 80091ac:	f7fe bfd5 	b.w	800815a <_svfprintf_r+0x25e>
 80091b0:	9b04      	ldr	r3, [sp, #16]
 80091b2:	f013 0340 	ands.w	r3, r3, #64	; 0x40
 80091b6:	f000 81bd 	beq.w	8009534 <_svfprintf_r+0x1638>
 80091ba:	4603      	mov	r3, r0
 80091bc:	980c      	ldr	r0, [sp, #48]	; 0x30
 80091be:	9d0c      	ldr	r5, [sp, #48]	; 0x30
 80091c0:	1d01      	adds	r1, r0, #4
 80091c2:	882c      	ldrh	r4, [r5, #0]
 80091c4:	910c      	str	r1, [sp, #48]	; 0x30
 80091c6:	2500      	movs	r5, #0
 80091c8:	f7fe bf83 	b.w	80080d2 <_svfprintf_r+0x1d6>
 80091cc:	9804      	ldr	r0, [sp, #16]
 80091ce:	0640      	lsls	r0, r0, #25
 80091d0:	f140 81a7 	bpl.w	8009522 <_svfprintf_r+0x1626>
 80091d4:	990c      	ldr	r1, [sp, #48]	; 0x30
 80091d6:	1d08      	adds	r0, r1, #4
 80091d8:	880c      	ldrh	r4, [r1, #0]
 80091da:	900c      	str	r0, [sp, #48]	; 0x30
 80091dc:	2301      	movs	r3, #1
 80091de:	2500      	movs	r5, #0
 80091e0:	f7fe bf77 	b.w	80080d2 <_svfprintf_r+0x1d6>
 80091e4:	f89a 8000 	ldrb.w	r8, [sl]
 80091e8:	f7fe beea 	b.w	8007fc0 <_svfprintf_r+0xc4>
 80091ec:	9b04      	ldr	r3, [sp, #16]
 80091ee:	06da      	lsls	r2, r3, #27
 80091f0:	f140 81a8 	bpl.w	8009544 <_svfprintf_r+0x1648>
 80091f4:	9a0c      	ldr	r2, [sp, #48]	; 0x30
 80091f6:	980b      	ldr	r0, [sp, #44]	; 0x2c
 80091f8:	6813      	ldr	r3, [r2, #0]
 80091fa:	1d14      	adds	r4, r2, #4
 80091fc:	940c      	str	r4, [sp, #48]	; 0x30
 80091fe:	6018      	str	r0, [r3, #0]
 8009200:	f7fe bea7 	b.w	8007f52 <_svfprintf_r+0x56>
 8009204:	4856      	ldr	r0, [pc, #344]	; (8009360 <_svfprintf_r+0x1464>)
 8009206:	9922      	ldr	r1, [sp, #136]	; 0x88
 8009208:	900a      	str	r0, [sp, #40]	; 0x28
 800920a:	1c4b      	adds	r3, r1, #1
 800920c:	980a      	ldr	r0, [sp, #40]	; 0x28
 800920e:	1964      	adds	r4, r4, r5
 8009210:	2b07      	cmp	r3, #7
 8009212:	e886 0021 	stmia.w	r6, {r0, r5}
 8009216:	9423      	str	r4, [sp, #140]	; 0x8c
 8009218:	9322      	str	r3, [sp, #136]	; 0x88
 800921a:	f73f aebd 	bgt.w	8008f98 <_svfprintf_r+0x109c>
 800921e:	3608      	adds	r6, #8
 8009220:	e6c4      	b.n	8008fac <_svfprintf_r+0x10b0>
 8009222:	4604      	mov	r4, r0
 8009224:	e65c      	b.n	8008ee0 <_svfprintf_r+0xfe4>
 8009226:	4b4e      	ldr	r3, [pc, #312]	; (8009360 <_svfprintf_r+0x1464>)
 8009228:	9a22      	ldr	r2, [sp, #136]	; 0x88
 800922a:	9305      	str	r3, [sp, #20]
 800922c:	f7ff ba5f 	b.w	80086ee <_svfprintf_r+0x7f2>
 8009230:	9808      	ldr	r0, [sp, #32]
 8009232:	9906      	ldr	r1, [sp, #24]
 8009234:	aa21      	add	r2, sp, #132	; 0x84
 8009236:	f002 fde1 	bl	800bdfc <__ssprint_r>
 800923a:	2800      	cmp	r0, #0
 800923c:	f47f a81d 	bne.w	800827a <_svfprintf_r+0x37e>
 8009240:	9c23      	ldr	r4, [sp, #140]	; 0x8c
 8009242:	ae2e      	add	r6, sp, #184	; 0xb8
 8009244:	f7ff bba4 	b.w	8008990 <_svfprintf_r+0xa94>
 8009248:	9a22      	ldr	r2, [sp, #136]	; 0x88
 800924a:	4b46      	ldr	r3, [pc, #280]	; (8009364 <_svfprintf_r+0x1468>)
 800924c:	1c50      	adds	r0, r2, #1
 800924e:	3401      	adds	r4, #1
 8009250:	2101      	movs	r1, #1
 8009252:	2807      	cmp	r0, #7
 8009254:	6033      	str	r3, [r6, #0]
 8009256:	6071      	str	r1, [r6, #4]
 8009258:	9423      	str	r4, [sp, #140]	; 0x8c
 800925a:	9022      	str	r0, [sp, #136]	; 0x88
 800925c:	f300 8146 	bgt.w	80094ec <_svfprintf_r+0x15f0>
 8009260:	3608      	adds	r6, #8
 8009262:	b92d      	cbnz	r5, 8009270 <_svfprintf_r+0x1374>
 8009264:	9a0d      	ldr	r2, [sp, #52]	; 0x34
 8009266:	b91a      	cbnz	r2, 8009270 <_svfprintf_r+0x1374>
 8009268:	9804      	ldr	r0, [sp, #16]
 800926a:	07c0      	lsls	r0, r0, #31
 800926c:	f57f aa5b 	bpl.w	8008726 <_svfprintf_r+0x82a>
 8009270:	9822      	ldr	r0, [sp, #136]	; 0x88
 8009272:	9b0f      	ldr	r3, [sp, #60]	; 0x3c
 8009274:	9911      	ldr	r1, [sp, #68]	; 0x44
 8009276:	6033      	str	r3, [r6, #0]
 8009278:	1862      	adds	r2, r4, r1
 800927a:	1c43      	adds	r3, r0, #1
 800927c:	9911      	ldr	r1, [sp, #68]	; 0x44
 800927e:	2b07      	cmp	r3, #7
 8009280:	6071      	str	r1, [r6, #4]
 8009282:	9223      	str	r2, [sp, #140]	; 0x8c
 8009284:	9322      	str	r3, [sp, #136]	; 0x88
 8009286:	f300 82c9 	bgt.w	800981c <_svfprintf_r+0x1920>
 800928a:	3608      	adds	r6, #8
 800928c:	426d      	negs	r5, r5
 800928e:	2d00      	cmp	r5, #0
 8009290:	f340 817f 	ble.w	8009592 <_svfprintf_r+0x1696>
 8009294:	2d10      	cmp	r5, #16
 8009296:	f340 81f4 	ble.w	8009682 <_svfprintf_r+0x1786>
 800929a:	2410      	movs	r4, #16
 800929c:	3301      	adds	r3, #1
 800929e:	f1a5 0c11 	sub.w	ip, r5, #17
 80092a2:	1912      	adds	r2, r2, r4
 80092a4:	2b07      	cmp	r3, #7
 80092a6:	f8c6 9000 	str.w	r9, [r6]
 80092aa:	6074      	str	r4, [r6, #4]
 80092ac:	f8df b0b0 	ldr.w	fp, [pc, #176]	; 8009360 <_svfprintf_r+0x1464>
 80092b0:	9223      	str	r2, [sp, #140]	; 0x8c
 80092b2:	9322      	str	r3, [sp, #136]	; 0x88
 80092b4:	f3cc 1800 	ubfx	r8, ip, #4, #1
 80092b8:	f300 82e0 	bgt.w	800987c <_svfprintf_r+0x1980>
 80092bc:	3608      	adds	r6, #8
 80092be:	3d10      	subs	r5, #16
 80092c0:	2d10      	cmp	r5, #16
 80092c2:	f340 81e0 	ble.w	8009686 <_svfprintf_r+0x178a>
 80092c6:	f1b8 0f00 	cmp.w	r8, #0
 80092ca:	d00e      	beq.n	80092ea <_svfprintf_r+0x13ee>
 80092cc:	3301      	adds	r3, #1
 80092ce:	3210      	adds	r2, #16
 80092d0:	2b07      	cmp	r3, #7
 80092d2:	f8c6 9000 	str.w	r9, [r6]
 80092d6:	6074      	str	r4, [r6, #4]
 80092d8:	9223      	str	r2, [sp, #140]	; 0x8c
 80092da:	9322      	str	r3, [sp, #136]	; 0x88
 80092dc:	f300 832a 	bgt.w	8009934 <_svfprintf_r+0x1a38>
 80092e0:	3608      	adds	r6, #8
 80092e2:	3d10      	subs	r5, #16
 80092e4:	2d10      	cmp	r5, #16
 80092e6:	f340 81ce 	ble.w	8009686 <_svfprintf_r+0x178a>
 80092ea:	4630      	mov	r0, r6
 80092ec:	f8dd 8020 	ldr.w	r8, [sp, #32]
 80092f0:	462e      	mov	r6, r5
 80092f2:	9d06      	ldr	r5, [sp, #24]
 80092f4:	e010      	b.n	8009318 <_svfprintf_r+0x141c>
 80092f6:	3008      	adds	r0, #8
 80092f8:	3301      	adds	r3, #1
 80092fa:	3210      	adds	r2, #16
 80092fc:	3e10      	subs	r6, #16
 80092fe:	2b07      	cmp	r3, #7
 8009300:	f8c0 9000 	str.w	r9, [r0]
 8009304:	6044      	str	r4, [r0, #4]
 8009306:	9223      	str	r2, [sp, #140]	; 0x8c
 8009308:	9322      	str	r3, [sp, #136]	; 0x88
 800930a:	f300 80fe 	bgt.w	800950a <_svfprintf_r+0x160e>
 800930e:	3008      	adds	r0, #8
 8009310:	3e10      	subs	r6, #16
 8009312:	2e10      	cmp	r6, #16
 8009314:	f340 828f 	ble.w	8009836 <_svfprintf_r+0x193a>
 8009318:	3301      	adds	r3, #1
 800931a:	3210      	adds	r2, #16
 800931c:	2b07      	cmp	r3, #7
 800931e:	f8c0 9000 	str.w	r9, [r0]
 8009322:	6044      	str	r4, [r0, #4]
 8009324:	9223      	str	r2, [sp, #140]	; 0x8c
 8009326:	9322      	str	r3, [sp, #136]	; 0x88
 8009328:	dde5      	ble.n	80092f6 <_svfprintf_r+0x13fa>
 800932a:	4640      	mov	r0, r8
 800932c:	4629      	mov	r1, r5
 800932e:	aa21      	add	r2, sp, #132	; 0x84
 8009330:	f002 fd64 	bl	800bdfc <__ssprint_r>
 8009334:	2800      	cmp	r0, #0
 8009336:	f47e afa0 	bne.w	800827a <_svfprintf_r+0x37e>
 800933a:	9a23      	ldr	r2, [sp, #140]	; 0x8c
 800933c:	9b22      	ldr	r3, [sp, #136]	; 0x88
 800933e:	a82e      	add	r0, sp, #184	; 0xb8
 8009340:	e7da      	b.n	80092f8 <_svfprintf_r+0x13fc>
 8009342:	9a04      	ldr	r2, [sp, #16]
 8009344:	f893 8001 	ldrb.w	r8, [r3, #1]
 8009348:	f042 0220 	orr.w	r2, r2, #32
 800934c:	f10a 0a01 	add.w	sl, sl, #1
 8009350:	9204      	str	r2, [sp, #16]
 8009352:	f7fe be35 	b.w	8007fc0 <_svfprintf_r+0xc4>
 8009356:	bf00      	nop
 8009358:	0800f960 	.word	0x0800f960
 800935c:	0800f964 	.word	0x0800f964
 8009360:	0800f99c 	.word	0x0800f99c
 8009364:	0800f998 	.word	0x0800f998
 8009368:	9b05      	ldr	r3, [sp, #20]
 800936a:	3301      	adds	r3, #1
 800936c:	f000 80ca 	beq.w	8009504 <_svfprintf_r+0x1608>
 8009370:	f1b8 0f67 	cmp.w	r8, #103	; 0x67
 8009374:	f000 824c 	beq.w	8009810 <_svfprintf_r+0x1914>
 8009378:	f1b8 0f47 	cmp.w	r8, #71	; 0x47
 800937c:	f000 8248 	beq.w	8009810 <_svfprintf_r+0x1914>
 8009380:	9b04      	ldr	r3, [sp, #16]
 8009382:	2c00      	cmp	r4, #0
 8009384:	f443 7080 	orr.w	r0, r3, #256	; 0x100
 8009388:	9016      	str	r0, [sp, #88]	; 0x58
 800938a:	f2c0 826f 	blt.w	800986c <_svfprintf_r+0x1970>
 800938e:	2100      	movs	r1, #0
 8009390:	910e      	str	r1, [sp, #56]	; 0x38
 8009392:	f1b8 0f66 	cmp.w	r8, #102	; 0x66
 8009396:	f000 821c 	beq.w	80097d2 <_svfprintf_r+0x18d6>
 800939a:	f1b8 0f46 	cmp.w	r8, #70	; 0x46
 800939e:	f000 8279 	beq.w	8009894 <_svfprintf_r+0x1998>
 80093a2:	f1b8 0f65 	cmp.w	r8, #101	; 0x65
 80093a6:	f000 824f 	beq.w	8009848 <_svfprintf_r+0x194c>
 80093aa:	f1b8 0f45 	cmp.w	r8, #69	; 0x45
 80093ae:	f000 824b 	beq.w	8009848 <_svfprintf_r+0x194c>
 80093b2:	f8dd c014 	ldr.w	ip, [sp, #20]
 80093b6:	462a      	mov	r2, r5
 80093b8:	4623      	mov	r3, r4
 80093ba:	a81b      	add	r0, sp, #108	; 0x6c
 80093bc:	a91c      	add	r1, sp, #112	; 0x70
 80093be:	ec43 2b10 	vmov	d0, r2, r3
 80093c2:	9000      	str	r0, [sp, #0]
 80093c4:	9101      	str	r1, [sp, #4]
 80093c6:	4662      	mov	r2, ip
 80093c8:	2102      	movs	r1, #2
 80093ca:	9808      	ldr	r0, [sp, #32]
 80093cc:	f8cd c008 	str.w	ip, [sp, #8]
 80093d0:	ab1a      	add	r3, sp, #104	; 0x68
 80093d2:	f000 fce9 	bl	8009da8 <_dtoa_r>
 80093d6:	f1b8 0f67 	cmp.w	r8, #103	; 0x67
 80093da:	4607      	mov	r7, r0
 80093dc:	f8dd c008 	ldr.w	ip, [sp, #8]
 80093e0:	d002      	beq.n	80093e8 <_svfprintf_r+0x14ec>
 80093e2:	f1b8 0f47 	cmp.w	r8, #71	; 0x47
 80093e6:	d103      	bne.n	80093f0 <_svfprintf_r+0x14f4>
 80093e8:	9b04      	ldr	r3, [sp, #16]
 80093ea:	07d8      	lsls	r0, r3, #31
 80093ec:	f140 8243 	bpl.w	8009876 <_svfprintf_r+0x197a>
 80093f0:	f1b8 0f46 	cmp.w	r8, #70	; 0x46
 80093f4:	eb07 0b0c 	add.w	fp, r7, ip
 80093f8:	f000 81fe 	beq.w	80097f8 <_svfprintf_r+0x18fc>
 80093fc:	4628      	mov	r0, r5
 80093fe:	4621      	mov	r1, r4
 8009400:	2200      	movs	r2, #0
 8009402:	2300      	movs	r3, #0
 8009404:	f7f7 fae0 	bl	80009c8 <__aeabi_dcmpeq>
 8009408:	b9f0      	cbnz	r0, 8009448 <_svfprintf_r+0x154c>
 800940a:	9c1c      	ldr	r4, [sp, #112]	; 0x70
 800940c:	45a3      	cmp	fp, r4
 800940e:	f240 82f5 	bls.w	80099fc <_svfprintf_r+0x1b00>
 8009412:	4623      	mov	r3, r4
 8009414:	2130      	movs	r1, #48	; 0x30
 8009416:	f803 1b01 	strb.w	r1, [r3], #1
 800941a:	43e0      	mvns	r0, r4
 800941c:	eb0b 0200 	add.w	r2, fp, r0
 8009420:	455b      	cmp	r3, fp
 8009422:	931c      	str	r3, [sp, #112]	; 0x70
 8009424:	f002 0001 	and.w	r0, r2, #1
 8009428:	d00d      	beq.n	8009446 <_svfprintf_r+0x154a>
 800942a:	b120      	cbz	r0, 8009436 <_svfprintf_r+0x153a>
 800942c:	3301      	adds	r3, #1
 800942e:	455b      	cmp	r3, fp
 8009430:	7061      	strb	r1, [r4, #1]
 8009432:	931c      	str	r3, [sp, #112]	; 0x70
 8009434:	d007      	beq.n	8009446 <_svfprintf_r+0x154a>
 8009436:	461c      	mov	r4, r3
 8009438:	f804 1b01 	strb.w	r1, [r4], #1
 800943c:	7059      	strb	r1, [r3, #1]
 800943e:	1c63      	adds	r3, r4, #1
 8009440:	455b      	cmp	r3, fp
 8009442:	931c      	str	r3, [sp, #112]	; 0x70
 8009444:	d1f7      	bne.n	8009436 <_svfprintf_r+0x153a>
 8009446:	469b      	mov	fp, r3
 8009448:	ebc7 010b 	rsb	r1, r7, fp
 800944c:	f1b8 0f67 	cmp.w	r8, #103	; 0x67
 8009450:	910d      	str	r1, [sp, #52]	; 0x34
 8009452:	f000 815d 	beq.w	8009710 <_svfprintf_r+0x1814>
 8009456:	f1b8 0f47 	cmp.w	r8, #71	; 0x47
 800945a:	f000 8159 	beq.w	8009710 <_svfprintf_r+0x1814>
 800945e:	f1b8 0f66 	cmp.w	r8, #102	; 0x66
 8009462:	f040 82c9 	bne.w	80099f8 <_svfprintf_r+0x1afc>
 8009466:	9a1a      	ldr	r2, [sp, #104]	; 0x68
 8009468:	2a00      	cmp	r2, #0
 800946a:	f340 8290 	ble.w	800998e <_svfprintf_r+0x1a92>
 800946e:	9c05      	ldr	r4, [sp, #20]
 8009470:	2c00      	cmp	r4, #0
 8009472:	f040 826b 	bne.w	800994c <_svfprintf_r+0x1a50>
 8009476:	9904      	ldr	r1, [sp, #16]
 8009478:	07cb      	lsls	r3, r1, #31
 800947a:	f100 8267 	bmi.w	800994c <_svfprintf_r+0x1a50>
 800947e:	ea22 70e2 	bic.w	r0, r2, r2, asr #31
 8009482:	9007      	str	r0, [sp, #28]
 8009484:	920a      	str	r2, [sp, #40]	; 0x28
 8009486:	9210      	str	r2, [sp, #64]	; 0x40
 8009488:	9c0e      	ldr	r4, [sp, #56]	; 0x38
 800948a:	2c00      	cmp	r4, #0
 800948c:	f000 813a 	beq.w	8009704 <_svfprintf_r+0x1808>
 8009490:	9816      	ldr	r0, [sp, #88]	; 0x58
 8009492:	212d      	movs	r1, #45	; 0x2d
 8009494:	2400      	movs	r4, #0
 8009496:	f88d 1063 	strb.w	r1, [sp, #99]	; 0x63
 800949a:	9004      	str	r0, [sp, #16]
 800949c:	940e      	str	r4, [sp, #56]	; 0x38
 800949e:	f7fe be5d 	b.w	800815c <_svfprintf_r+0x260>
 80094a2:	9b0a      	ldr	r3, [sp, #40]	; 0x28
 80094a4:	950c      	str	r5, [sp, #48]	; 0x30
 80094a6:	ea23 72e3 	bic.w	r2, r3, r3, asr #31
 80094aa:	9207      	str	r2, [sp, #28]
 80094ac:	f89d 3063 	ldrb.w	r3, [sp, #99]	; 0x63
 80094b0:	9410      	str	r4, [sp, #64]	; 0x40
 80094b2:	f7fe be52 	b.w	800815a <_svfprintf_r+0x25e>
 80094b6:	9808      	ldr	r0, [sp, #32]
 80094b8:	9906      	ldr	r1, [sp, #24]
 80094ba:	aa21      	add	r2, sp, #132	; 0x84
 80094bc:	f002 fc9e 	bl	800bdfc <__ssprint_r>
 80094c0:	2800      	cmp	r0, #0
 80094c2:	f47e aeda 	bne.w	800827a <_svfprintf_r+0x37e>
 80094c6:	9c23      	ldr	r4, [sp, #140]	; 0x8c
 80094c8:	ae2e      	add	r6, sp, #184	; 0xb8
 80094ca:	f7ff ba76 	b.w	80089ba <_svfprintf_r+0xabe>
 80094ce:	2140      	movs	r1, #64	; 0x40
 80094d0:	9808      	ldr	r0, [sp, #32]
 80094d2:	f7fe f805 	bl	80074e0 <_malloc_r>
 80094d6:	9906      	ldr	r1, [sp, #24]
 80094d8:	6008      	str	r0, [r1, #0]
 80094da:	6108      	str	r0, [r1, #16]
 80094dc:	2800      	cmp	r0, #0
 80094de:	f000 828f 	beq.w	8009a00 <_svfprintf_r+0x1b04>
 80094e2:	9a06      	ldr	r2, [sp, #24]
 80094e4:	2640      	movs	r6, #64	; 0x40
 80094e6:	6156      	str	r6, [r2, #20]
 80094e8:	f7fe bd25 	b.w	8007f36 <_svfprintf_r+0x3a>
 80094ec:	9808      	ldr	r0, [sp, #32]
 80094ee:	9906      	ldr	r1, [sp, #24]
 80094f0:	aa21      	add	r2, sp, #132	; 0x84
 80094f2:	f002 fc83 	bl	800bdfc <__ssprint_r>
 80094f6:	2800      	cmp	r0, #0
 80094f8:	f47e aebf 	bne.w	800827a <_svfprintf_r+0x37e>
 80094fc:	9d1a      	ldr	r5, [sp, #104]	; 0x68
 80094fe:	9c23      	ldr	r4, [sp, #140]	; 0x8c
 8009500:	ae2e      	add	r6, sp, #184	; 0xb8
 8009502:	e6ae      	b.n	8009262 <_svfprintf_r+0x1366>
 8009504:	2706      	movs	r7, #6
 8009506:	9705      	str	r7, [sp, #20]
 8009508:	e73a      	b.n	8009380 <_svfprintf_r+0x1484>
 800950a:	4640      	mov	r0, r8
 800950c:	4629      	mov	r1, r5
 800950e:	aa21      	add	r2, sp, #132	; 0x84
 8009510:	f002 fc74 	bl	800bdfc <__ssprint_r>
 8009514:	2800      	cmp	r0, #0
 8009516:	f47e aeb0 	bne.w	800827a <_svfprintf_r+0x37e>
 800951a:	a82e      	add	r0, sp, #184	; 0xb8
 800951c:	9a23      	ldr	r2, [sp, #140]	; 0x8c
 800951e:	9b22      	ldr	r3, [sp, #136]	; 0x88
 8009520:	e6f6      	b.n	8009310 <_svfprintf_r+0x1414>
 8009522:	9a0c      	ldr	r2, [sp, #48]	; 0x30
 8009524:	6817      	ldr	r7, [r2, #0]
 8009526:	1d13      	adds	r3, r2, #4
 8009528:	930c      	str	r3, [sp, #48]	; 0x30
 800952a:	463c      	mov	r4, r7
 800952c:	2500      	movs	r5, #0
 800952e:	2301      	movs	r3, #1
 8009530:	f7fe bdcf 	b.w	80080d2 <_svfprintf_r+0x1d6>
 8009534:	990c      	ldr	r1, [sp, #48]	; 0x30
 8009536:	680a      	ldr	r2, [r1, #0]
 8009538:	1d0f      	adds	r7, r1, #4
 800953a:	4614      	mov	r4, r2
 800953c:	2500      	movs	r5, #0
 800953e:	970c      	str	r7, [sp, #48]	; 0x30
 8009540:	f7fe bdc7 	b.w	80080d2 <_svfprintf_r+0x1d6>
 8009544:	9a04      	ldr	r2, [sp, #16]
 8009546:	0653      	lsls	r3, r2, #25
 8009548:	f140 80d4 	bpl.w	80096f4 <_svfprintf_r+0x17f8>
 800954c:	9a0c      	ldr	r2, [sp, #48]	; 0x30
 800954e:	990b      	ldr	r1, [sp, #44]	; 0x2c
 8009550:	6814      	ldr	r4, [r2, #0]
 8009552:	1d10      	adds	r0, r2, #4
 8009554:	900c      	str	r0, [sp, #48]	; 0x30
 8009556:	8021      	strh	r1, [r4, #0]
 8009558:	f7fe bcfb 	b.w	8007f52 <_svfprintf_r+0x56>
 800955c:	460c      	mov	r4, r1
 800955e:	f7ff bb01 	b.w	8008b64 <_svfprintf_r+0xc68>
 8009562:	f7fe fc9b 	bl	8007e9c <strlen>
 8009566:	ea20 71e0 	bic.w	r1, r0, r0, asr #31
 800956a:	900a      	str	r0, [sp, #40]	; 0x28
 800956c:	940e      	str	r4, [sp, #56]	; 0x38
 800956e:	9107      	str	r1, [sp, #28]
 8009570:	f89d 3063 	ldrb.w	r3, [sp, #99]	; 0x63
 8009574:	950c      	str	r5, [sp, #48]	; 0x30
 8009576:	9410      	str	r4, [sp, #64]	; 0x40
 8009578:	f7fe bdef 	b.w	800815a <_svfprintf_r+0x25e>
 800957c:	9808      	ldr	r0, [sp, #32]
 800957e:	9906      	ldr	r1, [sp, #24]
 8009580:	aa21      	add	r2, sp, #132	; 0x84
 8009582:	f002 fc3b 	bl	800bdfc <__ssprint_r>
 8009586:	2800      	cmp	r0, #0
 8009588:	f47e ae77 	bne.w	800827a <_svfprintf_r+0x37e>
 800958c:	9a23      	ldr	r2, [sp, #140]	; 0x8c
 800958e:	9b22      	ldr	r3, [sp, #136]	; 0x88
 8009590:	ae2e      	add	r6, sp, #184	; 0xb8
 8009592:	990d      	ldr	r1, [sp, #52]	; 0x34
 8009594:	6037      	str	r7, [r6, #0]
 8009596:	1854      	adds	r4, r2, r1
 8009598:	1c5a      	adds	r2, r3, #1
 800959a:	2a07      	cmp	r2, #7
 800959c:	6071      	str	r1, [r6, #4]
 800959e:	9423      	str	r4, [sp, #140]	; 0x8c
 80095a0:	9222      	str	r2, [sp, #136]	; 0x88
 80095a2:	f77f a8bf 	ble.w	8008724 <_svfprintf_r+0x828>
 80095a6:	f7ff b96d 	b.w	8008884 <_svfprintf_r+0x988>
 80095aa:	48a4      	ldr	r0, [pc, #656]	; (800983c <_svfprintf_r+0x1940>)
 80095ac:	9923      	ldr	r1, [sp, #140]	; 0x8c
 80095ae:	9a22      	ldr	r2, [sp, #136]	; 0x88
 80095b0:	9016      	str	r0, [sp, #88]	; 0x58
 80095b2:	f7ff b801 	b.w	80085b8 <_svfprintf_r+0x6bc>
 80095b6:	4604      	mov	r4, r0
 80095b8:	e627      	b.n	800920a <_svfprintf_r+0x130e>
 80095ba:	9808      	ldr	r0, [sp, #32]
 80095bc:	9906      	ldr	r1, [sp, #24]
 80095be:	aa21      	add	r2, sp, #132	; 0x84
 80095c0:	f002 fc1c 	bl	800bdfc <__ssprint_r>
 80095c4:	2800      	cmp	r0, #0
 80095c6:	f47e ae58 	bne.w	800827a <_svfprintf_r+0x37e>
 80095ca:	ae2e      	add	r6, sp, #184	; 0xb8
 80095cc:	9c23      	ldr	r4, [sp, #140]	; 0x8c
 80095ce:	9d22      	ldr	r5, [sp, #136]	; 0x88
 80095d0:	e434      	b.n	8008e3c <_svfprintf_r+0xf40>
 80095d2:	9808      	ldr	r0, [sp, #32]
 80095d4:	9906      	ldr	r1, [sp, #24]
 80095d6:	aa21      	add	r2, sp, #132	; 0x84
 80095d8:	f002 fc10 	bl	800bdfc <__ssprint_r>
 80095dc:	2800      	cmp	r0, #0
 80095de:	f47e ae4c 	bne.w	800827a <_svfprintf_r+0x37e>
 80095e2:	ae2e      	add	r6, sp, #184	; 0xb8
 80095e4:	9c23      	ldr	r4, [sp, #140]	; 0x8c
 80095e6:	9d22      	ldr	r5, [sp, #136]	; 0x88
 80095e8:	e43b      	b.n	8008e62 <_svfprintf_r+0xf66>
 80095ea:	9808      	ldr	r0, [sp, #32]
 80095ec:	9906      	ldr	r1, [sp, #24]
 80095ee:	aa21      	add	r2, sp, #132	; 0x84
 80095f0:	f002 fc04 	bl	800bdfc <__ssprint_r>
 80095f4:	2800      	cmp	r0, #0
 80095f6:	f47e ae40 	bne.w	800827a <_svfprintf_r+0x37e>
 80095fa:	ae2e      	add	r6, sp, #184	; 0xb8
 80095fc:	9c23      	ldr	r4, [sp, #140]	; 0x8c
 80095fe:	9922      	ldr	r1, [sp, #136]	; 0x88
 8009600:	f7ff bb9d 	b.w	8008d3e <_svfprintf_r+0xe42>
 8009604:	9808      	ldr	r0, [sp, #32]
 8009606:	9906      	ldr	r1, [sp, #24]
 8009608:	aa21      	add	r2, sp, #132	; 0x84
 800960a:	f002 fbf7 	bl	800bdfc <__ssprint_r>
 800960e:	2800      	cmp	r0, #0
 8009610:	f47e ae33 	bne.w	800827a <_svfprintf_r+0x37e>
 8009614:	9c23      	ldr	r4, [sp, #140]	; 0x8c
 8009616:	ae2e      	add	r6, sp, #184	; 0xb8
 8009618:	f7ff bb72 	b.w	8008d00 <_svfprintf_r+0xe04>
 800961c:	9808      	ldr	r0, [sp, #32]
 800961e:	9906      	ldr	r1, [sp, #24]
 8009620:	aa21      	add	r2, sp, #132	; 0x84
 8009622:	f002 fbeb 	bl	800bdfc <__ssprint_r>
 8009626:	2800      	cmp	r0, #0
 8009628:	f47e ae27 	bne.w	800827a <_svfprintf_r+0x37e>
 800962c:	ae2e      	add	r6, sp, #184	; 0xb8
 800962e:	9c23      	ldr	r4, [sp, #140]	; 0x8c
 8009630:	9922      	ldr	r1, [sp, #136]	; 0x88
 8009632:	f7ff b9de 	b.w	80089f2 <_svfprintf_r+0xaf6>
 8009636:	9808      	ldr	r0, [sp, #32]
 8009638:	9906      	ldr	r1, [sp, #24]
 800963a:	aa21      	add	r2, sp, #132	; 0x84
 800963c:	f002 fbde 	bl	800bdfc <__ssprint_r>
 8009640:	2800      	cmp	r0, #0
 8009642:	f47e ae1a 	bne.w	800827a <_svfprintf_r+0x37e>
 8009646:	ae2e      	add	r6, sp, #184	; 0xb8
 8009648:	9c23      	ldr	r4, [sp, #140]	; 0x8c
 800964a:	9922      	ldr	r1, [sp, #136]	; 0x88
 800964c:	f7ff b9e3 	b.w	8008a16 <_svfprintf_r+0xb1a>
 8009650:	9808      	ldr	r0, [sp, #32]
 8009652:	9906      	ldr	r1, [sp, #24]
 8009654:	aa21      	add	r2, sp, #132	; 0x84
 8009656:	f002 fbd1 	bl	800bdfc <__ssprint_r>
 800965a:	2800      	cmp	r0, #0
 800965c:	f47e ae0d 	bne.w	800827a <_svfprintf_r+0x37e>
 8009660:	ae2e      	add	r6, sp, #184	; 0xb8
 8009662:	9c23      	ldr	r4, [sp, #140]	; 0x8c
 8009664:	9922      	ldr	r1, [sp, #136]	; 0x88
 8009666:	f7ff bb7d 	b.w	8008d64 <_svfprintf_r+0xe68>
 800966a:	9808      	ldr	r0, [sp, #32]
 800966c:	9906      	ldr	r1, [sp, #24]
 800966e:	aa21      	add	r2, sp, #132	; 0x84
 8009670:	f002 fbc4 	bl	800bdfc <__ssprint_r>
 8009674:	2800      	cmp	r0, #0
 8009676:	f47e ae00 	bne.w	800827a <_svfprintf_r+0x37e>
 800967a:	9b1a      	ldr	r3, [sp, #104]	; 0x68
 800967c:	9c23      	ldr	r4, [sp, #140]	; 0x8c
 800967e:	ae2e      	add	r6, sp, #184	; 0xb8
 8009680:	e49d      	b.n	8008fbe <_svfprintf_r+0x10c2>
 8009682:	f8df b1c0 	ldr.w	fp, [pc, #448]	; 8009844 <_svfprintf_r+0x1948>
 8009686:	3301      	adds	r3, #1
 8009688:	1952      	adds	r2, r2, r5
 800968a:	2b07      	cmp	r3, #7
 800968c:	f8c6 b000 	str.w	fp, [r6]
 8009690:	6075      	str	r5, [r6, #4]
 8009692:	9223      	str	r2, [sp, #140]	; 0x8c
 8009694:	9322      	str	r3, [sp, #136]	; 0x88
 8009696:	f73f af71 	bgt.w	800957c <_svfprintf_r+0x1680>
 800969a:	3608      	adds	r6, #8
 800969c:	e779      	b.n	8009592 <_svfprintf_r+0x1696>
 800969e:	9808      	ldr	r0, [sp, #32]
 80096a0:	9906      	ldr	r1, [sp, #24]
 80096a2:	aa21      	add	r2, sp, #132	; 0x84
 80096a4:	f002 fbaa 	bl	800bdfc <__ssprint_r>
 80096a8:	2800      	cmp	r0, #0
 80096aa:	f47e ade6 	bne.w	800827a <_svfprintf_r+0x37e>
 80096ae:	ae2e      	add	r6, sp, #184	; 0xb8
 80096b0:	9c23      	ldr	r4, [sp, #140]	; 0x8c
 80096b2:	9922      	ldr	r1, [sp, #136]	; 0x88
 80096b4:	e4b3      	b.n	800901e <_svfprintf_r+0x1122>
 80096b6:	9808      	ldr	r0, [sp, #32]
 80096b8:	9906      	ldr	r1, [sp, #24]
 80096ba:	aa21      	add	r2, sp, #132	; 0x84
 80096bc:	f002 fb9e 	bl	800bdfc <__ssprint_r>
 80096c0:	2800      	cmp	r0, #0
 80096c2:	f47e adda 	bne.w	800827a <_svfprintf_r+0x37e>
 80096c6:	9e1a      	ldr	r6, [sp, #104]	; 0x68
 80096c8:	9b0d      	ldr	r3, [sp, #52]	; 0x34
 80096ca:	9c23      	ldr	r4, [sp, #140]	; 0x8c
 80096cc:	1b99      	subs	r1, r3, r6
 80096ce:	ae2e      	add	r6, sp, #184	; 0xb8
 80096d0:	e489      	b.n	8008fe6 <_svfprintf_r+0x10ea>
 80096d2:	9f05      	ldr	r7, [sp, #20]
 80096d4:	950c      	str	r5, [sp, #48]	; 0x30
 80096d6:	2f06      	cmp	r7, #6
 80096d8:	bf28      	it	cs
 80096da:	2706      	movcs	r7, #6
 80096dc:	ea27 74e7 	bic.w	r4, r7, r7, asr #31
 80096e0:	970a      	str	r7, [sp, #40]	; 0x28
 80096e2:	9407      	str	r4, [sp, #28]
 80096e4:	4f56      	ldr	r7, [pc, #344]	; (8009840 <_svfprintf_r+0x1944>)
 80096e6:	f7fe beb9 	b.w	800845c <_svfprintf_r+0x560>
 80096ea:	9922      	ldr	r1, [sp, #136]	; 0x88
 80096ec:	f8df 814c 	ldr.w	r8, [pc, #332]	; 800983c <_svfprintf_r+0x1940>
 80096f0:	f7ff b8f6 	b.w	80088e0 <_svfprintf_r+0x9e4>
 80096f4:	980c      	ldr	r0, [sp, #48]	; 0x30
 80096f6:	9b0b      	ldr	r3, [sp, #44]	; 0x2c
 80096f8:	6801      	ldr	r1, [r0, #0]
 80096fa:	1d04      	adds	r4, r0, #4
 80096fc:	940c      	str	r4, [sp, #48]	; 0x30
 80096fe:	600b      	str	r3, [r1, #0]
 8009700:	f7fe bc27 	b.w	8007f52 <_svfprintf_r+0x56>
 8009704:	9a16      	ldr	r2, [sp, #88]	; 0x58
 8009706:	f89d 3063 	ldrb.w	r3, [sp, #99]	; 0x63
 800970a:	9204      	str	r2, [sp, #16]
 800970c:	f7fe bd25 	b.w	800815a <_svfprintf_r+0x25e>
 8009710:	9a1a      	ldr	r2, [sp, #104]	; 0x68
 8009712:	1cd1      	adds	r1, r2, #3
 8009714:	4613      	mov	r3, r2
 8009716:	db02      	blt.n	800971e <_svfprintf_r+0x1822>
 8009718:	9c05      	ldr	r4, [sp, #20]
 800971a:	4294      	cmp	r4, r2
 800971c:	da28      	bge.n	8009770 <_svfprintf_r+0x1874>
 800971e:	f1a8 0802 	sub.w	r8, r8, #2
 8009722:	3b01      	subs	r3, #1
 8009724:	2b00      	cmp	r3, #0
 8009726:	931a      	str	r3, [sp, #104]	; 0x68
 8009728:	f88d 8074 	strb.w	r8, [sp, #116]	; 0x74
 800972c:	f2c0 8151 	blt.w	80099d2 <_svfprintf_r+0x1ad6>
 8009730:	222b      	movs	r2, #43	; 0x2b
 8009732:	f88d 2075 	strb.w	r2, [sp, #117]	; 0x75
 8009736:	2b09      	cmp	r3, #9
 8009738:	f300 80c0 	bgt.w	80098bc <_svfprintf_r+0x19c0>
 800973c:	3330      	adds	r3, #48	; 0x30
 800973e:	2030      	movs	r0, #48	; 0x30
 8009740:	f88d 0076 	strb.w	r0, [sp, #118]	; 0x76
 8009744:	f88d 3077 	strb.w	r3, [sp, #119]	; 0x77
 8009748:	ac1e      	add	r4, sp, #120	; 0x78
 800974a:	aa1d      	add	r2, sp, #116	; 0x74
 800974c:	980d      	ldr	r0, [sp, #52]	; 0x34
 800974e:	9b0d      	ldr	r3, [sp, #52]	; 0x34
 8009750:	1aa1      	subs	r1, r4, r2
 8009752:	1844      	adds	r4, r0, r1
 8009754:	2b01      	cmp	r3, #1
 8009756:	9115      	str	r1, [sp, #84]	; 0x54
 8009758:	940a      	str	r4, [sp, #40]	; 0x28
 800975a:	f340 813f 	ble.w	80099dc <_svfprintf_r+0x1ae0>
 800975e:	9b0a      	ldr	r3, [sp, #40]	; 0x28
 8009760:	1c5a      	adds	r2, r3, #1
 8009762:	ea22 71e2 	bic.w	r1, r2, r2, asr #31
 8009766:	2000      	movs	r0, #0
 8009768:	920a      	str	r2, [sp, #40]	; 0x28
 800976a:	9107      	str	r1, [sp, #28]
 800976c:	9010      	str	r0, [sp, #64]	; 0x40
 800976e:	e68b      	b.n	8009488 <_svfprintf_r+0x158c>
 8009770:	990d      	ldr	r1, [sp, #52]	; 0x34
 8009772:	428a      	cmp	r2, r1
 8009774:	db6c      	blt.n	8009850 <_svfprintf_r+0x1954>
 8009776:	9904      	ldr	r1, [sp, #16]
 8009778:	07c8      	lsls	r0, r1, #31
 800977a:	f100 8100 	bmi.w	800997e <_svfprintf_r+0x1a82>
 800977e:	ea22 70e2 	bic.w	r0, r2, r2, asr #31
 8009782:	9007      	str	r0, [sp, #28]
 8009784:	920a      	str	r2, [sp, #40]	; 0x28
 8009786:	f04f 0867 	mov.w	r8, #103	; 0x67
 800978a:	e67c      	b.n	8009486 <_svfprintf_r+0x158a>
 800978c:	9808      	ldr	r0, [sp, #32]
 800978e:	9906      	ldr	r1, [sp, #24]
 8009790:	aa21      	add	r2, sp, #132	; 0x84
 8009792:	f002 fb33 	bl	800bdfc <__ssprint_r>
 8009796:	2800      	cmp	r0, #0
 8009798:	f47e ad6f 	bne.w	800827a <_svfprintf_r+0x37e>
 800979c:	ae2e      	add	r6, sp, #184	; 0xb8
 800979e:	9c23      	ldr	r4, [sp, #140]	; 0x8c
 80097a0:	9922      	ldr	r1, [sp, #136]	; 0x88
 80097a2:	e44e      	b.n	8009042 <_svfprintf_r+0x1146>
 80097a4:	232d      	movs	r3, #45	; 0x2d
 80097a6:	f88d 3063 	strb.w	r3, [sp, #99]	; 0x63
 80097aa:	f7fe bdb3 	b.w	8008314 <_svfprintf_r+0x418>
 80097ae:	4925      	ldr	r1, [pc, #148]	; (8009844 <_svfprintf_r+0x1948>)
 80097b0:	9822      	ldr	r0, [sp, #136]	; 0x88
 80097b2:	9105      	str	r1, [sp, #20]
 80097b4:	f7ff b9c8 	b.w	8008b48 <_svfprintf_r+0xc4c>
 80097b8:	9b05      	ldr	r3, [sp, #20]
 80097ba:	9a05      	ldr	r2, [sp, #20]
 80097bc:	900e      	str	r0, [sp, #56]	; 0x38
 80097be:	ea23 74e3 	bic.w	r4, r3, r3, asr #31
 80097c2:	9407      	str	r4, [sp, #28]
 80097c4:	f89d 3063 	ldrb.w	r3, [sp, #99]	; 0x63
 80097c8:	950c      	str	r5, [sp, #48]	; 0x30
 80097ca:	920a      	str	r2, [sp, #40]	; 0x28
 80097cc:	9010      	str	r0, [sp, #64]	; 0x40
 80097ce:	f7fe bcc4 	b.w	800815a <_svfprintf_r+0x25e>
 80097d2:	462a      	mov	r2, r5
 80097d4:	4623      	mov	r3, r4
 80097d6:	a91b      	add	r1, sp, #108	; 0x6c
 80097d8:	af1c      	add	r7, sp, #112	; 0x70
 80097da:	ec43 2b10 	vmov	d0, r2, r3
 80097de:	9100      	str	r1, [sp, #0]
 80097e0:	9701      	str	r7, [sp, #4]
 80097e2:	ab1a      	add	r3, sp, #104	; 0x68
 80097e4:	9808      	ldr	r0, [sp, #32]
 80097e6:	9a05      	ldr	r2, [sp, #20]
 80097e8:	2103      	movs	r1, #3
 80097ea:	f000 fadd 	bl	8009da8 <_dtoa_r>
 80097ee:	9b05      	ldr	r3, [sp, #20]
 80097f0:	4607      	mov	r7, r0
 80097f2:	eb00 0b03 	add.w	fp, r0, r3
 80097f6:	469c      	mov	ip, r3
 80097f8:	7838      	ldrb	r0, [r7, #0]
 80097fa:	2830      	cmp	r0, #48	; 0x30
 80097fc:	f000 80ae 	beq.w	800995c <_svfprintf_r+0x1a60>
 8009800:	9a1a      	ldr	r2, [sp, #104]	; 0x68
 8009802:	4493      	add	fp, r2
 8009804:	e5fa      	b.n	80093fc <_svfprintf_r+0x1500>
 8009806:	2200      	movs	r2, #0
 8009808:	46a2      	mov	sl, r4
 800980a:	9205      	str	r2, [sp, #20]
 800980c:	f7fe bbda 	b.w	8007fc4 <_svfprintf_r+0xc8>
 8009810:	9805      	ldr	r0, [sp, #20]
 8009812:	2800      	cmp	r0, #0
 8009814:	bf08      	it	eq
 8009816:	2001      	moveq	r0, #1
 8009818:	9005      	str	r0, [sp, #20]
 800981a:	e5b1      	b.n	8009380 <_svfprintf_r+0x1484>
 800981c:	9808      	ldr	r0, [sp, #32]
 800981e:	9906      	ldr	r1, [sp, #24]
 8009820:	aa21      	add	r2, sp, #132	; 0x84
 8009822:	f002 faeb 	bl	800bdfc <__ssprint_r>
 8009826:	2800      	cmp	r0, #0
 8009828:	f47e ad27 	bne.w	800827a <_svfprintf_r+0x37e>
 800982c:	9d1a      	ldr	r5, [sp, #104]	; 0x68
 800982e:	9a23      	ldr	r2, [sp, #140]	; 0x8c
 8009830:	9b22      	ldr	r3, [sp, #136]	; 0x88
 8009832:	ae2e      	add	r6, sp, #184	; 0xb8
 8009834:	e52a      	b.n	800928c <_svfprintf_r+0x1390>
 8009836:	4635      	mov	r5, r6
 8009838:	4606      	mov	r6, r0
 800983a:	e724      	b.n	8009686 <_svfprintf_r+0x178a>
 800983c:	0800f9ac 	.word	0x0800f9ac
 8009840:	0800f990 	.word	0x0800f990
 8009844:	0800f99c 	.word	0x0800f99c
 8009848:	9a05      	ldr	r2, [sp, #20]
 800984a:	f102 0c01 	add.w	ip, r2, #1
 800984e:	e5b2      	b.n	80093b6 <_svfprintf_r+0x14ba>
 8009850:	2a00      	cmp	r2, #0
 8009852:	980d      	ldr	r0, [sp, #52]	; 0x34
 8009854:	bfd4      	ite	le
 8009856:	f1c2 0302 	rsble	r3, r2, #2
 800985a:	2301      	movgt	r3, #1
 800985c:	181b      	adds	r3, r3, r0
 800985e:	ea23 74e3 	bic.w	r4, r3, r3, asr #31
 8009862:	930a      	str	r3, [sp, #40]	; 0x28
 8009864:	9407      	str	r4, [sp, #28]
 8009866:	f04f 0867 	mov.w	r8, #103	; 0x67
 800986a:	e60c      	b.n	8009486 <_svfprintf_r+0x158a>
 800986c:	272d      	movs	r7, #45	; 0x2d
 800986e:	f104 4400 	add.w	r4, r4, #2147483648	; 0x80000000
 8009872:	970e      	str	r7, [sp, #56]	; 0x38
 8009874:	e58d      	b.n	8009392 <_svfprintf_r+0x1496>
 8009876:	f8dd b070 	ldr.w	fp, [sp, #112]	; 0x70
 800987a:	e5e5      	b.n	8009448 <_svfprintf_r+0x154c>
 800987c:	9808      	ldr	r0, [sp, #32]
 800987e:	9906      	ldr	r1, [sp, #24]
 8009880:	aa21      	add	r2, sp, #132	; 0x84
 8009882:	f002 fabb 	bl	800bdfc <__ssprint_r>
 8009886:	2800      	cmp	r0, #0
 8009888:	f47e acf7 	bne.w	800827a <_svfprintf_r+0x37e>
 800988c:	ae2e      	add	r6, sp, #184	; 0xb8
 800988e:	9a23      	ldr	r2, [sp, #140]	; 0x8c
 8009890:	9b22      	ldr	r3, [sp, #136]	; 0x88
 8009892:	e514      	b.n	80092be <_svfprintf_r+0x13c2>
 8009894:	462a      	mov	r2, r5
 8009896:	4623      	mov	r3, r4
 8009898:	af1b      	add	r7, sp, #108	; 0x6c
 800989a:	a81c      	add	r0, sp, #112	; 0x70
 800989c:	ec43 2b10 	vmov	d0, r2, r3
 80098a0:	9700      	str	r7, [sp, #0]
 80098a2:	9001      	str	r0, [sp, #4]
 80098a4:	9a05      	ldr	r2, [sp, #20]
 80098a6:	9808      	ldr	r0, [sp, #32]
 80098a8:	2103      	movs	r1, #3
 80098aa:	ab1a      	add	r3, sp, #104	; 0x68
 80098ac:	f000 fa7c 	bl	8009da8 <_dtoa_r>
 80098b0:	9a05      	ldr	r2, [sp, #20]
 80098b2:	4607      	mov	r7, r0
 80098b4:	eb00 0b02 	add.w	fp, r0, r2
 80098b8:	4694      	mov	ip, r2
 80098ba:	e79d      	b.n	80097f8 <_svfprintf_r+0x18fc>
 80098bc:	f246 6467 	movw	r4, #26215	; 0x6667
 80098c0:	f10d 0182 	add.w	r1, sp, #130	; 0x82
 80098c4:	f2c6 6466 	movt	r4, #26214	; 0x6666
 80098c8:	fb84 2503 	smull	r2, r5, r4, r3
 80098cc:	17da      	asrs	r2, r3, #31
 80098ce:	ebc2 00a5 	rsb	r0, r2, r5, asr #2
 80098d2:	eb00 0580 	add.w	r5, r0, r0, lsl #2
 80098d6:	460a      	mov	r2, r1
 80098d8:	eba3 0345 	sub.w	r3, r3, r5, lsl #1
 80098dc:	f103 0130 	add.w	r1, r3, #48	; 0x30
 80098e0:	7011      	strb	r1, [r2, #0]
 80098e2:	1e51      	subs	r1, r2, #1
 80098e4:	2809      	cmp	r0, #9
 80098e6:	4603      	mov	r3, r0
 80098e8:	dcee      	bgt.n	80098c8 <_svfprintf_r+0x19cc>
 80098ea:	3330      	adds	r3, #48	; 0x30
 80098ec:	f10d 0583 	add.w	r5, sp, #131	; 0x83
 80098f0:	b2d8      	uxtb	r0, r3
 80098f2:	428d      	cmp	r5, r1
 80098f4:	f802 0c01 	strb.w	r0, [r2, #-1]
 80098f8:	d97b      	bls.n	80099f2 <_svfprintf_r+0x1af6>
 80098fa:	1aac      	subs	r4, r5, r2
 80098fc:	07e4      	lsls	r4, r4, #31
 80098fe:	f10d 0175 	add.w	r1, sp, #117	; 0x75
 8009902:	4613      	mov	r3, r2
 8009904:	d50d      	bpl.n	8009922 <_svfprintf_r+0x1a26>
 8009906:	4613      	mov	r3, r2
 8009908:	f88d 0076 	strb.w	r0, [sp, #118]	; 0x76
 800990c:	f10d 0176 	add.w	r1, sp, #118	; 0x76
 8009910:	f813 0b01 	ldrb.w	r0, [r3], #1
 8009914:	e005      	b.n	8009922 <_svfprintf_r+0x1a26>
 8009916:	f813 1b01 	ldrb.w	r1, [r3], #1
 800991a:	7061      	strb	r1, [r4, #1]
 800991c:	f813 0b01 	ldrb.w	r0, [r3], #1
 8009920:	1c61      	adds	r1, r4, #1
 8009922:	1c4c      	adds	r4, r1, #1
 8009924:	42ab      	cmp	r3, r5
 8009926:	7048      	strb	r0, [r1, #1]
 8009928:	d1f5      	bne.n	8009916 <_svfprintf_r+0x1a1a>
 800992a:	ab3e      	add	r3, sp, #248	; 0xf8
 800992c:	ebc2 0443 	rsb	r4, r2, r3, lsl #1
 8009930:	3cf6      	subs	r4, #246	; 0xf6
 8009932:	e70a      	b.n	800974a <_svfprintf_r+0x184e>
 8009934:	9808      	ldr	r0, [sp, #32]
 8009936:	9906      	ldr	r1, [sp, #24]
 8009938:	aa21      	add	r2, sp, #132	; 0x84
 800993a:	f002 fa5f 	bl	800bdfc <__ssprint_r>
 800993e:	2800      	cmp	r0, #0
 8009940:	f47e ac9b 	bne.w	800827a <_svfprintf_r+0x37e>
 8009944:	ae2e      	add	r6, sp, #184	; 0xb8
 8009946:	9a23      	ldr	r2, [sp, #140]	; 0x8c
 8009948:	9b22      	ldr	r3, [sp, #136]	; 0x88
 800994a:	e4ca      	b.n	80092e2 <_svfprintf_r+0x13e6>
 800994c:	9b05      	ldr	r3, [sp, #20]
 800994e:	1c5c      	adds	r4, r3, #1
 8009950:	1911      	adds	r1, r2, r4
 8009952:	ea21 70e1 	bic.w	r0, r1, r1, asr #31
 8009956:	910a      	str	r1, [sp, #40]	; 0x28
 8009958:	9007      	str	r0, [sp, #28]
 800995a:	e594      	b.n	8009486 <_svfprintf_r+0x158a>
 800995c:	4628      	mov	r0, r5
 800995e:	4621      	mov	r1, r4
 8009960:	2200      	movs	r2, #0
 8009962:	2300      	movs	r3, #0
 8009964:	f8cd c008 	str.w	ip, [sp, #8]
 8009968:	f7f7 f82e 	bl	80009c8 <__aeabi_dcmpeq>
 800996c:	f8dd c008 	ldr.w	ip, [sp, #8]
 8009970:	2800      	cmp	r0, #0
 8009972:	f47f af45 	bne.w	8009800 <_svfprintf_r+0x1904>
 8009976:	f1cc 0201 	rsb	r2, ip, #1
 800997a:	921a      	str	r2, [sp, #104]	; 0x68
 800997c:	e741      	b.n	8009802 <_svfprintf_r+0x1906>
 800997e:	1c53      	adds	r3, r2, #1
 8009980:	ea23 74e3 	bic.w	r4, r3, r3, asr #31
 8009984:	930a      	str	r3, [sp, #40]	; 0x28
 8009986:	9407      	str	r4, [sp, #28]
 8009988:	f04f 0867 	mov.w	r8, #103	; 0x67
 800998c:	e57b      	b.n	8009486 <_svfprintf_r+0x158a>
 800998e:	9805      	ldr	r0, [sp, #20]
 8009990:	b9c0      	cbnz	r0, 80099c4 <_svfprintf_r+0x1ac8>
 8009992:	9b04      	ldr	r3, [sp, #16]
 8009994:	07dc      	lsls	r4, r3, #31
 8009996:	d415      	bmi.n	80099c4 <_svfprintf_r+0x1ac8>
 8009998:	2401      	movs	r4, #1
 800999a:	9407      	str	r4, [sp, #28]
 800999c:	940a      	str	r4, [sp, #40]	; 0x28
 800999e:	e572      	b.n	8009486 <_svfprintf_r+0x158a>
 80099a0:	9b0c      	ldr	r3, [sp, #48]	; 0x30
 80099a2:	f89a 8001 	ldrb.w	r8, [sl, #1]
 80099a6:	681a      	ldr	r2, [r3, #0]
 80099a8:	9b0c      	ldr	r3, [sp, #48]	; 0x30
 80099aa:	9205      	str	r2, [sp, #20]
 80099ac:	9a05      	ldr	r2, [sp, #20]
 80099ae:	3304      	adds	r3, #4
 80099b0:	2a00      	cmp	r2, #0
 80099b2:	930c      	str	r3, [sp, #48]	; 0x30
 80099b4:	46a2      	mov	sl, r4
 80099b6:	f6be ab03 	bge.w	8007fc0 <_svfprintf_r+0xc4>
 80099ba:	f04f 33ff 	mov.w	r3, #4294967295
 80099be:	9305      	str	r3, [sp, #20]
 80099c0:	f7fe bafe 	b.w	8007fc0 <_svfprintf_r+0xc4>
 80099c4:	9905      	ldr	r1, [sp, #20]
 80099c6:	1c88      	adds	r0, r1, #2
 80099c8:	ea20 73e0 	bic.w	r3, r0, r0, asr #31
 80099cc:	900a      	str	r0, [sp, #40]	; 0x28
 80099ce:	9307      	str	r3, [sp, #28]
 80099d0:	e559      	b.n	8009486 <_svfprintf_r+0x158a>
 80099d2:	212d      	movs	r1, #45	; 0x2d
 80099d4:	425b      	negs	r3, r3
 80099d6:	f88d 1075 	strb.w	r1, [sp, #117]	; 0x75
 80099da:	e6ac      	b.n	8009736 <_svfprintf_r+0x183a>
 80099dc:	9a04      	ldr	r2, [sp, #16]
 80099de:	f012 0101 	ands.w	r1, r2, #1
 80099e2:	f47f aebc 	bne.w	800975e <_svfprintf_r+0x1862>
 80099e6:	980a      	ldr	r0, [sp, #40]	; 0x28
 80099e8:	9110      	str	r1, [sp, #64]	; 0x40
 80099ea:	ea20 74e0 	bic.w	r4, r0, r0, asr #31
 80099ee:	9407      	str	r4, [sp, #28]
 80099f0:	e54a      	b.n	8009488 <_svfprintf_r+0x158c>
 80099f2:	f10d 0476 	add.w	r4, sp, #118	; 0x76
 80099f6:	e6a8      	b.n	800974a <_svfprintf_r+0x184e>
 80099f8:	9b1a      	ldr	r3, [sp, #104]	; 0x68
 80099fa:	e692      	b.n	8009722 <_svfprintf_r+0x1826>
 80099fc:	46a3      	mov	fp, r4
 80099fe:	e523      	b.n	8009448 <_svfprintf_r+0x154c>
 8009a00:	9a08      	ldr	r2, [sp, #32]
 8009a02:	210c      	movs	r1, #12
 8009a04:	6011      	str	r1, [r2, #0]
 8009a06:	f04f 30ff 	mov.w	r0, #4294967295
 8009a0a:	f7fe bc40 	b.w	800828e <_svfprintf_r+0x392>
 8009a0e:	bf00      	nop

08009a10 <__register_exitproc>:
 8009a10:	e92d 41f0 	stmdb	sp!, {r4, r5, r6, r7, r8, lr}
 8009a14:	4c27      	ldr	r4, [pc, #156]	; (8009ab4 <__register_exitproc+0xa4>)
 8009a16:	6825      	ldr	r5, [r4, #0]
 8009a18:	f8d5 4148 	ldr.w	r4, [r5, #328]	; 0x148
 8009a1c:	b084      	sub	sp, #16
 8009a1e:	4607      	mov	r7, r0
 8009a20:	2c00      	cmp	r4, #0
 8009a22:	d041      	beq.n	8009aa8 <__register_exitproc+0x98>
 8009a24:	6866      	ldr	r6, [r4, #4]
 8009a26:	2e1f      	cmp	r6, #31
 8009a28:	dd1c      	ble.n	8009a64 <__register_exitproc+0x54>
 8009a2a:	4823      	ldr	r0, [pc, #140]	; (8009ab8 <__register_exitproc+0xa8>)
 8009a2c:	b910      	cbnz	r0, 8009a34 <__register_exitproc+0x24>
 8009a2e:	f04f 30ff 	mov.w	r0, #4294967295
 8009a32:	e01f      	b.n	8009a74 <__register_exitproc+0x64>
 8009a34:	f44f 70c8 	mov.w	r0, #400	; 0x190
 8009a38:	9103      	str	r1, [sp, #12]
 8009a3a:	9202      	str	r2, [sp, #8]
 8009a3c:	9301      	str	r3, [sp, #4]
 8009a3e:	f7fd fd3f 	bl	80074c0 <malloc>
 8009a42:	9903      	ldr	r1, [sp, #12]
 8009a44:	9a02      	ldr	r2, [sp, #8]
 8009a46:	9b01      	ldr	r3, [sp, #4]
 8009a48:	4604      	mov	r4, r0
 8009a4a:	2800      	cmp	r0, #0
 8009a4c:	d0ef      	beq.n	8009a2e <__register_exitproc+0x1e>
 8009a4e:	f8d5 6148 	ldr.w	r6, [r5, #328]	; 0x148
 8009a52:	2000      	movs	r0, #0
 8009a54:	6060      	str	r0, [r4, #4]
 8009a56:	6026      	str	r6, [r4, #0]
 8009a58:	f8c5 4148 	str.w	r4, [r5, #328]	; 0x148
 8009a5c:	f8c4 0188 	str.w	r0, [r4, #392]	; 0x188
 8009a60:	f8c4 018c 	str.w	r0, [r4, #396]	; 0x18c
 8009a64:	6865      	ldr	r5, [r4, #4]
 8009a66:	b947      	cbnz	r7, 8009a7a <__register_exitproc+0x6a>
 8009a68:	1ca8      	adds	r0, r5, #2
 8009a6a:	3501      	adds	r5, #1
 8009a6c:	f844 1020 	str.w	r1, [r4, r0, lsl #2]
 8009a70:	6065      	str	r5, [r4, #4]
 8009a72:	2000      	movs	r0, #0
 8009a74:	b004      	add	sp, #16
 8009a76:	e8bd 81f0 	ldmia.w	sp!, {r4, r5, r6, r7, r8, pc}
 8009a7a:	f8d4 6188 	ldr.w	r6, [r4, #392]	; 0x188
 8009a7e:	2001      	movs	r0, #1
 8009a80:	eb04 0885 	add.w	r8, r4, r5, lsl #2
 8009a84:	fa00 f005 	lsl.w	r0, r0, r5
 8009a88:	4306      	orrs	r6, r0
 8009a8a:	2f02      	cmp	r7, #2
 8009a8c:	f8c8 2088 	str.w	r2, [r8, #136]	; 0x88
 8009a90:	f8c4 6188 	str.w	r6, [r4, #392]	; 0x188
 8009a94:	f8c8 3108 	str.w	r3, [r8, #264]	; 0x108
 8009a98:	d1e6      	bne.n	8009a68 <__register_exitproc+0x58>
 8009a9a:	f8d4 318c 	ldr.w	r3, [r4, #396]	; 0x18c
 8009a9e:	ea43 0200 	orr.w	r2, r3, r0
 8009aa2:	f8c4 218c 	str.w	r2, [r4, #396]	; 0x18c
 8009aa6:	e7df      	b.n	8009a68 <__register_exitproc+0x58>
 8009aa8:	f505 74a6 	add.w	r4, r5, #332	; 0x14c
 8009aac:	f8c5 4148 	str.w	r4, [r5, #328]	; 0x148
 8009ab0:	e7b8      	b.n	8009a24 <__register_exitproc+0x14>
 8009ab2:	bf00      	nop
 8009ab4:	0800f954 	.word	0x0800f954
 8009ab8:	080074c1 	.word	0x080074c1

08009abc <quorem>:
 8009abc:	e92d 4ff0 	stmdb	sp!, {r4, r5, r6, r7, r8, r9, sl, fp, lr}
 8009ac0:	6903      	ldr	r3, [r0, #16]
 8009ac2:	690c      	ldr	r4, [r1, #16]
 8009ac4:	429c      	cmp	r4, r3
 8009ac6:	b083      	sub	sp, #12
 8009ac8:	4606      	mov	r6, r0
 8009aca:	f300 816b 	bgt.w	8009da4 <quorem+0x2e8>
 8009ace:	1ce0      	adds	r0, r4, #3
 8009ad0:	0082      	lsls	r2, r0, #2
 8009ad2:	188f      	adds	r7, r1, r2
 8009ad4:	18b5      	adds	r5, r6, r2
 8009ad6:	687b      	ldr	r3, [r7, #4]
 8009ad8:	6868      	ldr	r0, [r5, #4]
 8009ada:	1c5a      	adds	r2, r3, #1
 8009adc:	fbb0 f5f2 	udiv	r5, r0, r2
 8009ae0:	f101 0314 	add.w	r3, r1, #20
 8009ae4:	9301      	str	r3, [sp, #4]
 8009ae6:	3c01      	subs	r4, #1
 8009ae8:	3704      	adds	r7, #4
 8009aea:	f106 0814 	add.w	r8, r6, #20
 8009aee:	2d00      	cmp	r5, #0
 8009af0:	f000 80be 	beq.w	8009c70 <quorem+0x1b4>
 8009af4:	694a      	ldr	r2, [r1, #20]
 8009af6:	f8d8 3000 	ldr.w	r3, [r8]
 8009afa:	f8dd 9004 	ldr.w	r9, [sp, #4]
 8009afe:	b290      	uxth	r0, r2
 8009b00:	ea4f 4c12 	mov.w	ip, r2, lsr #16
 8009b04:	fb05 f000 	mul.w	r0, r5, r0
 8009b08:	fb05 f20c 	mul.w	r2, r5, ip
 8009b0c:	eb02 4c10 	add.w	ip, r2, r0, lsr #16
 8009b10:	fa1f fe8c 	uxth.w	lr, ip
 8009b14:	b29a      	uxth	r2, r3
 8009b16:	b280      	uxth	r0, r0
 8009b18:	1a12      	subs	r2, r2, r0
 8009b1a:	ebce 4313 	rsb	r3, lr, r3, lsr #16
 8009b1e:	eb03 4e22 	add.w	lr, r3, r2, asr #16
 8009b22:	b292      	uxth	r2, r2
 8009b24:	ebc9 0007 	rsb	r0, r9, r7
 8009b28:	f106 0318 	add.w	r3, r6, #24
 8009b2c:	ea42 490e 	orr.w	r9, r2, lr, lsl #16
 8009b30:	f101 0218 	add.w	r2, r1, #24
 8009b34:	4297      	cmp	r7, r2
 8009b36:	f843 9c04 	str.w	r9, [r3, #-4]
 8009b3a:	f3c0 0080 	ubfx	r0, r0, #2, #1
 8009b3e:	ea4f 4c1c 	mov.w	ip, ip, lsr #16
 8009b42:	ea4f 4e2e 	mov.w	lr, lr, asr #16
 8009b46:	d370      	bcc.n	8009c2a <quorem+0x16e>
 8009b48:	b328      	cbz	r0, 8009b96 <quorem+0xda>
 8009b4a:	6810      	ldr	r0, [r2, #0]
 8009b4c:	681b      	ldr	r3, [r3, #0]
 8009b4e:	b282      	uxth	r2, r0
 8009b50:	0c00      	lsrs	r0, r0, #16
 8009b52:	fb05 cc02 	mla	ip, r5, r2, ip
 8009b56:	fb05 f000 	mul.w	r0, r5, r0
 8009b5a:	eb00 401c 	add.w	r0, r0, ip, lsr #16
 8009b5e:	fa1e f283 	uxtah	r2, lr, r3
 8009b62:	fa1f fc8c 	uxth.w	ip, ip
 8009b66:	fa1f fe80 	uxth.w	lr, r0
 8009b6a:	ebcc 0202 	rsb	r2, ip, r2
 8009b6e:	ebce 4313 	rsb	r3, lr, r3, lsr #16
 8009b72:	eb03 4e22 	add.w	lr, r3, r2, asr #16
 8009b76:	fa1f fc82 	uxth.w	ip, r2
 8009b7a:	f106 031c 	add.w	r3, r6, #28
 8009b7e:	f101 021c 	add.w	r2, r1, #28
 8009b82:	ea4c 4c0e 	orr.w	ip, ip, lr, lsl #16
 8009b86:	4297      	cmp	r7, r2
 8009b88:	f843 cc04 	str.w	ip, [r3, #-4]
 8009b8c:	ea4f 4e2e 	mov.w	lr, lr, asr #16
 8009b90:	ea4f 4c10 	mov.w	ip, r0, lsr #16
 8009b94:	d349      	bcc.n	8009c2a <quorem+0x16e>
 8009b96:	4610      	mov	r0, r2
 8009b98:	f8d3 9000 	ldr.w	r9, [r3]
 8009b9c:	f850 bb04 	ldr.w	fp, [r0], #4
 8009ba0:	fa1f fa8b 	uxth.w	sl, fp
 8009ba4:	ea4f 4b1b 	mov.w	fp, fp, lsr #16
 8009ba8:	fb05 cc0a 	mla	ip, r5, sl, ip
 8009bac:	fb05 fa0b 	mul.w	sl, r5, fp
 8009bb0:	eb0a 4b1c 	add.w	fp, sl, ip, lsr #16
 8009bb4:	fa1f fa8b 	uxth.w	sl, fp
 8009bb8:	fa1e fe89 	uxtah	lr, lr, r9
 8009bbc:	fa1f fc8c 	uxth.w	ip, ip
 8009bc0:	ebcc 0e0e 	rsb	lr, ip, lr
 8009bc4:	ebca 4c19 	rsb	ip, sl, r9, lsr #16
 8009bc8:	eb0c 4a2e 	add.w	sl, ip, lr, asr #16
 8009bcc:	4699      	mov	r9, r3
 8009bce:	fa1f fe8e 	uxth.w	lr, lr
 8009bd2:	ea4e 4c0a 	orr.w	ip, lr, sl, lsl #16
 8009bd6:	f849 cb04 	str.w	ip, [r9], #4
 8009bda:	6852      	ldr	r2, [r2, #4]
 8009bdc:	685b      	ldr	r3, [r3, #4]
 8009bde:	fa1f fe82 	uxth.w	lr, r2
 8009be2:	fb05 fe0e 	mul.w	lr, r5, lr
 8009be6:	ea4f 4c12 	mov.w	ip, r2, lsr #16
 8009bea:	eb0e 4b1b 	add.w	fp, lr, fp, lsr #16
 8009bee:	fb05 f20c 	mul.w	r2, r5, ip
 8009bf2:	eb02 4c1b 	add.w	ip, r2, fp, lsr #16
 8009bf6:	b29a      	uxth	r2, r3
 8009bf8:	fa1f fe8c 	uxth.w	lr, ip
 8009bfc:	eb02 422a 	add.w	r2, r2, sl, asr #16
 8009c00:	fa1f fb8b 	uxth.w	fp, fp
 8009c04:	ebcb 0202 	rsb	r2, fp, r2
 8009c08:	ebce 4313 	rsb	r3, lr, r3, lsr #16
 8009c0c:	eb03 4e22 	add.w	lr, r3, r2, asr #16
 8009c10:	b292      	uxth	r2, r2
 8009c12:	464b      	mov	r3, r9
 8009c14:	ea42 490e 	orr.w	r9, r2, lr, lsl #16
 8009c18:	1d02      	adds	r2, r0, #4
 8009c1a:	4297      	cmp	r7, r2
 8009c1c:	f843 9b04 	str.w	r9, [r3], #4
 8009c20:	ea4f 4c1c 	mov.w	ip, ip, lsr #16
 8009c24:	ea4f 4e2e 	mov.w	lr, lr, asr #16
 8009c28:	d2b5      	bcs.n	8009b96 <quorem+0xda>
 8009c2a:	1d20      	adds	r0, r4, #4
 8009c2c:	eb06 0380 	add.w	r3, r6, r0, lsl #2
 8009c30:	685a      	ldr	r2, [r3, #4]
 8009c32:	b9ea      	cbnz	r2, 8009c70 <quorem+0x1b4>
 8009c34:	1d18      	adds	r0, r3, #4
 8009c36:	4598      	cmp	r8, r3
 8009c38:	d219      	bcs.n	8009c6e <quorem+0x1b2>
 8009c3a:	f850 2c04 	ldr.w	r2, [r0, #-4]
 8009c3e:	b9b2      	cbnz	r2, 8009c6e <quorem+0x1b2>
 8009c40:	3b04      	subs	r3, #4
 8009c42:	ebc8 0003 	rsb	r0, r8, r3
 8009c46:	1cc2      	adds	r2, r0, #3
 8009c48:	0750      	lsls	r0, r2, #29
 8009c4a:	d50d      	bpl.n	8009c68 <quorem+0x1ac>
 8009c4c:	3c01      	subs	r4, #1
 8009c4e:	4598      	cmp	r8, r3
 8009c50:	d20d      	bcs.n	8009c6e <quorem+0x1b2>
 8009c52:	681a      	ldr	r2, [r3, #0]
 8009c54:	3b04      	subs	r3, #4
 8009c56:	b13a      	cbz	r2, 8009c68 <quorem+0x1ac>
 8009c58:	e009      	b.n	8009c6e <quorem+0x1b2>
 8009c5a:	6818      	ldr	r0, [r3, #0]
 8009c5c:	3b04      	subs	r3, #4
 8009c5e:	b930      	cbnz	r0, 8009c6e <quorem+0x1b2>
 8009c60:	681a      	ldr	r2, [r3, #0]
 8009c62:	3c01      	subs	r4, #1
 8009c64:	3b04      	subs	r3, #4
 8009c66:	b912      	cbnz	r2, 8009c6e <quorem+0x1b2>
 8009c68:	3c01      	subs	r4, #1
 8009c6a:	4598      	cmp	r8, r3
 8009c6c:	d3f5      	bcc.n	8009c5a <quorem+0x19e>
 8009c6e:	6134      	str	r4, [r6, #16]
 8009c70:	4630      	mov	r0, r6
 8009c72:	f001 fefd 	bl	800ba70 <__mcmp>
 8009c76:	2800      	cmp	r0, #0
 8009c78:	f2c0 8083 	blt.w	8009d82 <quorem+0x2c6>
 8009c7c:	9a01      	ldr	r2, [sp, #4]
 8009c7e:	f8d8 3000 	ldr.w	r3, [r8]
 8009c82:	f852 0b04 	ldr.w	r0, [r2], #4
 8009c86:	fa1f f983 	uxth.w	r9, r3
 8009c8a:	b281      	uxth	r1, r0
 8009c8c:	0c00      	lsrs	r0, r0, #16
 8009c8e:	ebc1 0109 	rsb	r1, r1, r9
 8009c92:	ebc0 4313 	rsb	r3, r0, r3, lsr #16
 8009c96:	f8dd 9004 	ldr.w	r9, [sp, #4]
 8009c9a:	eb03 4021 	add.w	r0, r3, r1, asr #16
 8009c9e:	4643      	mov	r3, r8
 8009ca0:	b289      	uxth	r1, r1
 8009ca2:	ea41 4100 	orr.w	r1, r1, r0, lsl #16
 8009ca6:	ebc9 0c07 	rsb	ip, r9, r7
 8009caa:	3501      	adds	r5, #1
 8009cac:	1400      	asrs	r0, r0, #16
 8009cae:	4297      	cmp	r7, r2
 8009cb0:	f843 1b04 	str.w	r1, [r3], #4
 8009cb4:	f3cc 0180 	ubfx	r1, ip, #2, #1
 8009cb8:	d34b      	bcc.n	8009d52 <quorem+0x296>
 8009cba:	b1b9      	cbz	r1, 8009cec <quorem+0x230>
 8009cbc:	f852 eb04 	ldr.w	lr, [r2], #4
 8009cc0:	6819      	ldr	r1, [r3, #0]
 8009cc2:	fa1f f98e 	uxth.w	r9, lr
 8009cc6:	fa1f fa81 	uxth.w	sl, r1
 8009cca:	ebc9 090a 	rsb	r9, r9, sl
 8009cce:	ea4f 4c1e 	mov.w	ip, lr, lsr #16
 8009cd2:	4448      	add	r0, r9
 8009cd4:	ebcc 4111 	rsb	r1, ip, r1, lsr #16
 8009cd8:	eb01 4120 	add.w	r1, r1, r0, asr #16
 8009cdc:	b280      	uxth	r0, r0
 8009cde:	ea40 4001 	orr.w	r0, r0, r1, lsl #16
 8009ce2:	f843 0b04 	str.w	r0, [r3], #4
 8009ce6:	1408      	asrs	r0, r1, #16
 8009ce8:	4297      	cmp	r7, r2
 8009cea:	d332      	bcc.n	8009d52 <quorem+0x296>
 8009cec:	4682      	mov	sl, r0
 8009cee:	4611      	mov	r1, r2
 8009cf0:	f8d3 e000 	ldr.w	lr, [r3]
 8009cf4:	f851 0b04 	ldr.w	r0, [r1], #4
 8009cf8:	fa1f fb8e 	uxth.w	fp, lr
 8009cfc:	fa1f f980 	uxth.w	r9, r0
 8009d00:	ea4f 4c10 	mov.w	ip, r0, lsr #16
 8009d04:	ebc9 0b0b 	rsb	fp, r9, fp
 8009d08:	eb0b 000a 	add.w	r0, fp, sl
 8009d0c:	ebcc 4a1e 	rsb	sl, ip, lr, lsr #16
 8009d10:	eb0a 4920 	add.w	r9, sl, r0, asr #16
 8009d14:	469e      	mov	lr, r3
 8009d16:	b280      	uxth	r0, r0
 8009d18:	ea40 4009 	orr.w	r0, r0, r9, lsl #16
 8009d1c:	f84e 0b04 	str.w	r0, [lr], #4
 8009d20:	6850      	ldr	r0, [r2, #4]
 8009d22:	685b      	ldr	r3, [r3, #4]
 8009d24:	b282      	uxth	r2, r0
 8009d26:	fa1f fc83 	uxth.w	ip, r3
 8009d2a:	0c00      	lsrs	r0, r0, #16
 8009d2c:	ebc2 020c 	rsb	r2, r2, ip
 8009d30:	eb02 4229 	add.w	r2, r2, r9, asr #16
 8009d34:	ebc0 4313 	rsb	r3, r0, r3, lsr #16
 8009d38:	eb03 4022 	add.w	r0, r3, r2, asr #16
 8009d3c:	b292      	uxth	r2, r2
 8009d3e:	ea42 4a00 	orr.w	sl, r2, r0, lsl #16
 8009d42:	4673      	mov	r3, lr
 8009d44:	1d0a      	adds	r2, r1, #4
 8009d46:	4297      	cmp	r7, r2
 8009d48:	f843 ab04 	str.w	sl, [r3], #4
 8009d4c:	ea4f 4a20 	mov.w	sl, r0, asr #16
 8009d50:	d2cd      	bcs.n	8009cee <quorem+0x232>
 8009d52:	1d21      	adds	r1, r4, #4
 8009d54:	eb06 0381 	add.w	r3, r6, r1, lsl #2
 8009d58:	6858      	ldr	r0, [r3, #4]
 8009d5a:	b990      	cbnz	r0, 8009d82 <quorem+0x2c6>
 8009d5c:	1d1a      	adds	r2, r3, #4
 8009d5e:	4598      	cmp	r8, r3
 8009d60:	d20e      	bcs.n	8009d80 <quorem+0x2c4>
 8009d62:	f852 1c04 	ldr.w	r1, [r2, #-4]
 8009d66:	b959      	cbnz	r1, 8009d80 <quorem+0x2c4>
 8009d68:	3b04      	subs	r3, #4
 8009d6a:	ebc8 0003 	rsb	r0, r8, r3
 8009d6e:	1cc2      	adds	r2, r0, #3
 8009d70:	0752      	lsls	r2, r2, #29
 8009d72:	d513      	bpl.n	8009d9c <quorem+0x2e0>
 8009d74:	3c01      	subs	r4, #1
 8009d76:	4598      	cmp	r8, r3
 8009d78:	d202      	bcs.n	8009d80 <quorem+0x2c4>
 8009d7a:	6818      	ldr	r0, [r3, #0]
 8009d7c:	3b04      	subs	r3, #4
 8009d7e:	b168      	cbz	r0, 8009d9c <quorem+0x2e0>
 8009d80:	6134      	str	r4, [r6, #16]
 8009d82:	4628      	mov	r0, r5
 8009d84:	b003      	add	sp, #12
 8009d86:	e8bd 8ff0 	ldmia.w	sp!, {r4, r5, r6, r7, r8, r9, sl, fp, pc}
 8009d8a:	681a      	ldr	r2, [r3, #0]
 8009d8c:	3b04      	subs	r3, #4
 8009d8e:	2a00      	cmp	r2, #0
 8009d90:	d1f6      	bne.n	8009d80 <quorem+0x2c4>
 8009d92:	6819      	ldr	r1, [r3, #0]
 8009d94:	3c01      	subs	r4, #1
 8009d96:	3b04      	subs	r3, #4
 8009d98:	2900      	cmp	r1, #0
 8009d9a:	d1f1      	bne.n	8009d80 <quorem+0x2c4>
 8009d9c:	3c01      	subs	r4, #1
 8009d9e:	4598      	cmp	r8, r3
 8009da0:	d3f3      	bcc.n	8009d8a <quorem+0x2ce>
 8009da2:	e7ed      	b.n	8009d80 <quorem+0x2c4>
 8009da4:	2000      	movs	r0, #0
 8009da6:	e7ed      	b.n	8009d84 <quorem+0x2c8>

08009da8 <_dtoa_r>:
 8009da8:	e92d 4ff0 	stmdb	sp!, {r4, r5, r6, r7, r8, r9, sl, fp, lr}
 8009dac:	b09d      	sub	sp, #116	; 0x74
 8009dae:	4681      	mov	r9, r0
 8009db0:	9102      	str	r1, [sp, #8]
 8009db2:	6c01      	ldr	r1, [r0, #64]	; 0x40
 8009db4:	9c26      	ldr	r4, [sp, #152]	; 0x98
 8009db6:	9205      	str	r2, [sp, #20]
 8009db8:	9308      	str	r3, [sp, #32]
 8009dba:	ec5b ab10 	vmov	sl, fp, d0
 8009dbe:	b151      	cbz	r1, 8009dd6 <_dtoa_r+0x2e>
 8009dc0:	6c43      	ldr	r3, [r0, #68]	; 0x44
 8009dc2:	2201      	movs	r2, #1
 8009dc4:	fa02 f203 	lsl.w	r2, r2, r3
 8009dc8:	604b      	str	r3, [r1, #4]
 8009dca:	608a      	str	r2, [r1, #8]
 8009dcc:	f001 fafe 	bl	800b3cc <_Bfree>
 8009dd0:	2000      	movs	r0, #0
 8009dd2:	f8c9 0040 	str.w	r0, [r9, #64]	; 0x40
 8009dd6:	f1bb 0800 	subs.w	r8, fp, #0
 8009dda:	db3b      	blt.n	8009e54 <_dtoa_r+0xac>
 8009ddc:	2100      	movs	r1, #0
 8009dde:	6021      	str	r1, [r4, #0]
 8009de0:	2300      	movs	r3, #0
 8009de2:	461a      	mov	r2, r3
 8009de4:	f6c7 73f0 	movt	r3, #32752	; 0x7ff0
 8009de8:	f6c7 72f0 	movt	r2, #32752	; 0x7ff0
 8009dec:	ea08 0003 	and.w	r0, r8, r3
 8009df0:	4290      	cmp	r0, r2
 8009df2:	d018      	beq.n	8009e26 <_dtoa_r+0x7e>
 8009df4:	2200      	movs	r2, #0
 8009df6:	2300      	movs	r3, #0
 8009df8:	4650      	mov	r0, sl
 8009dfa:	4659      	mov	r1, fp
 8009dfc:	4654      	mov	r4, sl
 8009dfe:	465d      	mov	r5, fp
 8009e00:	f7f6 fde2 	bl	80009c8 <__aeabi_dcmpeq>
 8009e04:	2800      	cmp	r0, #0
 8009e06:	d02b      	beq.n	8009e60 <_dtoa_r+0xb8>
 8009e08:	9808      	ldr	r0, [sp, #32]
 8009e0a:	9d27      	ldr	r5, [sp, #156]	; 0x9c
 8009e0c:	2301      	movs	r3, #1
 8009e0e:	6003      	str	r3, [r0, #0]
 8009e10:	2d00      	cmp	r5, #0
 8009e12:	f000 80d1 	beq.w	8009fb8 <_dtoa_r+0x210>
 8009e16:	49a4      	ldr	r1, [pc, #656]	; (800a0a8 <_dtoa_r+0x300>)
 8009e18:	1e4a      	subs	r2, r1, #1
 8009e1a:	6029      	str	r1, [r5, #0]
 8009e1c:	9204      	str	r2, [sp, #16]
 8009e1e:	9804      	ldr	r0, [sp, #16]
 8009e20:	b01d      	add	sp, #116	; 0x74
 8009e22:	e8bd 8ff0 	ldmia.w	sp!, {r4, r5, r6, r7, r8, r9, sl, fp, pc}
 8009e26:	9d08      	ldr	r5, [sp, #32]
 8009e28:	f242 730f 	movw	r3, #9999	; 0x270f
 8009e2c:	602b      	str	r3, [r5, #0]
 8009e2e:	f1ba 0f00 	cmp.w	sl, #0
 8009e32:	f000 80a8 	beq.w	8009f86 <_dtoa_r+0x1de>
 8009e36:	489d      	ldr	r0, [pc, #628]	; (800a0ac <_dtoa_r+0x304>)
 8009e38:	9004      	str	r0, [sp, #16]
 8009e3a:	9d27      	ldr	r5, [sp, #156]	; 0x9c
 8009e3c:	2d00      	cmp	r5, #0
 8009e3e:	d0ee      	beq.n	8009e1e <_dtoa_r+0x76>
 8009e40:	9d04      	ldr	r5, [sp, #16]
 8009e42:	78eb      	ldrb	r3, [r5, #3]
 8009e44:	2b00      	cmp	r3, #0
 8009e46:	f000 820e 	beq.w	800a266 <_dtoa_r+0x4be>
 8009e4a:	4629      	mov	r1, r5
 8009e4c:	3108      	adds	r1, #8
 8009e4e:	9d27      	ldr	r5, [sp, #156]	; 0x9c
 8009e50:	6029      	str	r1, [r5, #0]
 8009e52:	e7e4      	b.n	8009e1e <_dtoa_r+0x76>
 8009e54:	f028 4800 	bic.w	r8, r8, #2147483648	; 0x80000000
 8009e58:	2501      	movs	r5, #1
 8009e5a:	6025      	str	r5, [r4, #0]
 8009e5c:	46c3      	mov	fp, r8
 8009e5e:	e7bf      	b.n	8009de0 <_dtoa_r+0x38>
 8009e60:	4648      	mov	r0, r9
 8009e62:	ec45 4b10 	vmov	d0, r4, r5
 8009e66:	a91b      	add	r1, sp, #108	; 0x6c
 8009e68:	aa1a      	add	r2, sp, #104	; 0x68
 8009e6a:	f001 ff35 	bl	800bcd8 <__d2b>
 8009e6e:	f3c8 560a 	ubfx	r6, r8, #20, #11
 8009e72:	900a      	str	r0, [sp, #40]	; 0x28
 8009e74:	2e00      	cmp	r6, #0
 8009e76:	f040 8090 	bne.w	8009f9a <_dtoa_r+0x1f2>
 8009e7a:	9f1a      	ldr	r7, [sp, #104]	; 0x68
 8009e7c:	9c1b      	ldr	r4, [sp, #108]	; 0x6c
 8009e7e:	f46f 6182 	mvn.w	r1, #1040	; 0x410
 8009e82:	193e      	adds	r6, r7, r4
 8009e84:	428e      	cmp	r6, r1
 8009e86:	f2c0 8339 	blt.w	800a4fc <_dtoa_r+0x754>
 8009e8a:	f64f 420e 	movw	r2, #64526	; 0xfc0e
 8009e8e:	f6cf 72ff 	movt	r2, #65535	; 0xffff
 8009e92:	1b90      	subs	r0, r2, r6
 8009e94:	f206 4412 	addw	r4, r6, #1042	; 0x412
 8009e98:	fa08 f100 	lsl.w	r1, r8, r0
 8009e9c:	fa2a f504 	lsr.w	r5, sl, r4
 8009ea0:	ea41 0005 	orr.w	r0, r1, r5
 8009ea4:	f7f6 fab2 	bl	800040c <__aeabi_ui2d>
 8009ea8:	2501      	movs	r5, #1
 8009eaa:	3e01      	subs	r6, #1
 8009eac:	f1a1 71f8 	sub.w	r1, r1, #32505856	; 0x1f00000
 8009eb0:	950b      	str	r5, [sp, #44]	; 0x2c
 8009eb2:	2300      	movs	r3, #0
 8009eb4:	2200      	movs	r2, #0
 8009eb6:	f6c3 73f8 	movt	r3, #16376	; 0x3ff8
 8009eba:	f7f6 f969 	bl	8000190 <__aeabi_dsub>
 8009ebe:	a374      	add	r3, pc, #464	; (adr r3, 800a090 <_dtoa_r+0x2e8>)
 8009ec0:	e9d3 2300 	ldrd	r2, r3, [r3]
 8009ec4:	f7f6 fb18 	bl	80004f8 <__aeabi_dmul>
 8009ec8:	a373      	add	r3, pc, #460	; (adr r3, 800a098 <_dtoa_r+0x2f0>)
 8009eca:	e9d3 2300 	ldrd	r2, r3, [r3]
 8009ece:	f7f6 f961 	bl	8000194 <__adddf3>
 8009ed2:	4604      	mov	r4, r0
 8009ed4:	4630      	mov	r0, r6
 8009ed6:	460d      	mov	r5, r1
 8009ed8:	f7f6 faa8 	bl	800042c <__aeabi_i2d>
 8009edc:	a370      	add	r3, pc, #448	; (adr r3, 800a0a0 <_dtoa_r+0x2f8>)
 8009ede:	e9d3 2300 	ldrd	r2, r3, [r3]
 8009ee2:	f7f6 fb09 	bl	80004f8 <__aeabi_dmul>
 8009ee6:	4602      	mov	r2, r0
 8009ee8:	460b      	mov	r3, r1
 8009eea:	4620      	mov	r0, r4
 8009eec:	4629      	mov	r1, r5
 8009eee:	f7f6 f951 	bl	8000194 <__adddf3>
 8009ef2:	4604      	mov	r4, r0
 8009ef4:	460d      	mov	r5, r1
 8009ef6:	f7f6 fd99 	bl	8000a2c <__aeabi_d2iz>
 8009efa:	4629      	mov	r1, r5
 8009efc:	9006      	str	r0, [sp, #24]
 8009efe:	2200      	movs	r2, #0
 8009f00:	4620      	mov	r0, r4
 8009f02:	2300      	movs	r3, #0
 8009f04:	f7f6 fd6a 	bl	80009dc <__aeabi_dcmplt>
 8009f08:	2800      	cmp	r0, #0
 8009f0a:	f040 82c7 	bne.w	800a49c <_dtoa_r+0x6f4>
 8009f0e:	9a06      	ldr	r2, [sp, #24]
 8009f10:	2a16      	cmp	r2, #22
 8009f12:	f200 82c0 	bhi.w	800a496 <_dtoa_r+0x6ee>
 8009f16:	4c66      	ldr	r4, [pc, #408]	; (800a0b0 <_dtoa_r+0x308>)
 8009f18:	eb04 05c2 	add.w	r5, r4, r2, lsl #3
 8009f1c:	e9d5 0100 	ldrd	r0, r1, [r5]
 8009f20:	4652      	mov	r2, sl
 8009f22:	465b      	mov	r3, fp
 8009f24:	f7f6 fd78 	bl	8000a18 <__aeabi_dcmpgt>
 8009f28:	2800      	cmp	r0, #0
 8009f2a:	f000 82ef 	beq.w	800a50c <_dtoa_r+0x764>
 8009f2e:	9806      	ldr	r0, [sp, #24]
 8009f30:	2200      	movs	r2, #0
 8009f32:	1e41      	subs	r1, r0, #1
 8009f34:	9106      	str	r1, [sp, #24]
 8009f36:	9210      	str	r2, [sp, #64]	; 0x40
 8009f38:	1bbe      	subs	r6, r7, r6
 8009f3a:	3e01      	subs	r6, #1
 8009f3c:	f100 82c8 	bmi.w	800a4d0 <_dtoa_r+0x728>
 8009f40:	2400      	movs	r4, #0
 8009f42:	9607      	str	r6, [sp, #28]
 8009f44:	940c      	str	r4, [sp, #48]	; 0x30
 8009f46:	9d06      	ldr	r5, [sp, #24]
 8009f48:	2d00      	cmp	r5, #0
 8009f4a:	f2c0 82b5 	blt.w	800a4b8 <_dtoa_r+0x710>
 8009f4e:	f8dd 801c 	ldr.w	r8, [sp, #28]
 8009f52:	950f      	str	r5, [sp, #60]	; 0x3c
 8009f54:	eb08 0c05 	add.w	ip, r8, r5
 8009f58:	2400      	movs	r4, #0
 8009f5a:	f8cd c01c 	str.w	ip, [sp, #28]
 8009f5e:	940e      	str	r4, [sp, #56]	; 0x38
 8009f60:	9d02      	ldr	r5, [sp, #8]
 8009f62:	2d09      	cmp	r5, #9
 8009f64:	d82b      	bhi.n	8009fbe <_dtoa_r+0x216>
 8009f66:	2d05      	cmp	r5, #5
 8009f68:	f341 8044 	ble.w	800aff4 <_dtoa_r+0x124c>
 8009f6c:	1f28      	subs	r0, r5, #4
 8009f6e:	9002      	str	r0, [sp, #8]
 8009f70:	2500      	movs	r5, #0
 8009f72:	9902      	ldr	r1, [sp, #8]
 8009f74:	1e8a      	subs	r2, r1, #2
 8009f76:	2a03      	cmp	r2, #3
 8009f78:	d823      	bhi.n	8009fc2 <_dtoa_r+0x21a>
 8009f7a:	e8df f012 	tbh	[pc, r2, lsl #1]
 8009f7e:	0544      	.short	0x0544
 8009f80:	034a0530 	.word	0x034a0530
 8009f84:	0541      	.short	0x0541
 8009f86:	4949      	ldr	r1, [pc, #292]	; (800a0ac <_dtoa_r+0x304>)
 8009f88:	4a4a      	ldr	r2, [pc, #296]	; (800a0b4 <_dtoa_r+0x30c>)
 8009f8a:	f3c8 0813 	ubfx	r8, r8, #0, #20
 8009f8e:	f1b8 0f00 	cmp.w	r8, #0
 8009f92:	bf18      	it	ne
 8009f94:	460a      	movne	r2, r1
 8009f96:	9204      	str	r2, [sp, #16]
 8009f98:	e74f      	b.n	8009e3a <_dtoa_r+0x92>
 8009f9a:	f02b 437f 	bic.w	r3, fp, #4278190080	; 0xff000000
 8009f9e:	f423 0270 	bic.w	r2, r3, #15728640	; 0xf00000
 8009fa2:	f042 547f 	orr.w	r4, r2, #1069547520	; 0x3fc00000
 8009fa6:	2500      	movs	r5, #0
 8009fa8:	4650      	mov	r0, sl
 8009faa:	f444 1140 	orr.w	r1, r4, #3145728	; 0x300000
 8009fae:	f2a6 36ff 	subw	r6, r6, #1023	; 0x3ff
 8009fb2:	9f1a      	ldr	r7, [sp, #104]	; 0x68
 8009fb4:	950b      	str	r5, [sp, #44]	; 0x2c
 8009fb6:	e77c      	b.n	8009eb2 <_dtoa_r+0x10a>
 8009fb8:	4d3f      	ldr	r5, [pc, #252]	; (800a0b8 <_dtoa_r+0x310>)
 8009fba:	9504      	str	r5, [sp, #16]
 8009fbc:	e72f      	b.n	8009e1e <_dtoa_r+0x76>
 8009fbe:	2400      	movs	r4, #0
 8009fc0:	9402      	str	r4, [sp, #8]
 8009fc2:	2400      	movs	r4, #0
 8009fc4:	f8c9 4044 	str.w	r4, [r9, #68]	; 0x44
 8009fc8:	4648      	mov	r0, r9
 8009fca:	4621      	mov	r1, r4
 8009fcc:	f001 f9d8 	bl	800b380 <_Balloc>
 8009fd0:	2501      	movs	r5, #1
 8009fd2:	f04f 32ff 	mov.w	r2, #4294967295
 8009fd6:	9004      	str	r0, [sp, #16]
 8009fd8:	9209      	str	r2, [sp, #36]	; 0x24
 8009fda:	f8c9 0040 	str.w	r0, [r9, #64]	; 0x40
 8009fde:	9211      	str	r2, [sp, #68]	; 0x44
 8009fe0:	9405      	str	r4, [sp, #20]
 8009fe2:	950d      	str	r5, [sp, #52]	; 0x34
 8009fe4:	9b1b      	ldr	r3, [sp, #108]	; 0x6c
 8009fe6:	2b00      	cmp	r3, #0
 8009fe8:	f2c0 8140 	blt.w	800a26c <_dtoa_r+0x4c4>
 8009fec:	9906      	ldr	r1, [sp, #24]
 8009fee:	290e      	cmp	r1, #14
 8009ff0:	f300 813c 	bgt.w	800a26c <_dtoa_r+0x4c4>
 8009ff4:	4d2e      	ldr	r5, [pc, #184]	; (800a0b0 <_dtoa_r+0x308>)
 8009ff6:	eb05 00c1 	add.w	r0, r5, r1, lsl #3
 8009ffa:	ed90 7b00 	vldr	d7, [r0]
 8009ffe:	9905      	ldr	r1, [sp, #20]
 800a000:	2900      	cmp	r1, #0
 800a002:	ed8d 7b02 	vstr	d7, [sp, #8]
 800a006:	f2c0 8501 	blt.w	800aa0c <_dtoa_r+0xc64>
 800a00a:	e9dd 2302 	ldrd	r2, r3, [sp, #8]
 800a00e:	4650      	mov	r0, sl
 800a010:	4659      	mov	r1, fp
 800a012:	f7f6 fb9b 	bl	800074c <__aeabi_ddiv>
 800a016:	f7f6 fd09 	bl	8000a2c <__aeabi_d2iz>
 800a01a:	4606      	mov	r6, r0
 800a01c:	f7f6 fa06 	bl	800042c <__aeabi_i2d>
 800a020:	e9dd 2302 	ldrd	r2, r3, [sp, #8]
 800a024:	f7f6 fa68 	bl	80004f8 <__aeabi_dmul>
 800a028:	4602      	mov	r2, r0
 800a02a:	460b      	mov	r3, r1
 800a02c:	4650      	mov	r0, sl
 800a02e:	4659      	mov	r1, fp
 800a030:	f7f6 f8ae 	bl	8000190 <__aeabi_dsub>
 800a034:	9a09      	ldr	r2, [sp, #36]	; 0x24
 800a036:	f8dd 8010 	ldr.w	r8, [sp, #16]
 800a03a:	f106 0330 	add.w	r3, r6, #48	; 0x30
 800a03e:	2a01      	cmp	r2, #1
 800a040:	4604      	mov	r4, r0
 800a042:	460d      	mov	r5, r1
 800a044:	f808 3b01 	strb.w	r3, [r8], #1
 800a048:	f000 8092 	beq.w	800a170 <_dtoa_r+0x3c8>
 800a04c:	2300      	movs	r3, #0
 800a04e:	2200      	movs	r2, #0
 800a050:	f2c4 0324 	movt	r3, #16420	; 0x4024
 800a054:	f7f6 fa50 	bl	80004f8 <__aeabi_dmul>
 800a058:	2200      	movs	r2, #0
 800a05a:	2300      	movs	r3, #0
 800a05c:	4604      	mov	r4, r0
 800a05e:	460d      	mov	r5, r1
 800a060:	f7f6 fcb2 	bl	80009c8 <__aeabi_dcmpeq>
 800a064:	2800      	cmp	r0, #0
 800a066:	f040 80c1 	bne.w	800a1ec <_dtoa_r+0x444>
 800a06a:	9f04      	ldr	r7, [sp, #16]
 800a06c:	9e04      	ldr	r6, [sp, #16]
 800a06e:	9809      	ldr	r0, [sp, #36]	; 0x24
 800a070:	3702      	adds	r7, #2
 800a072:	eb06 0b00 	add.w	fp, r6, r0
 800a076:	ebc7 010b 	rsb	r1, r7, fp
 800a07a:	07c9      	lsls	r1, r1, #31
 800a07c:	f100 80c8 	bmi.w	800a210 <_dtoa_r+0x468>
 800a080:	f8cd b014 	str.w	fp, [sp, #20]
 800a084:	e9dd ab02 	ldrd	sl, fp, [sp, #8]
 800a088:	e04c      	b.n	800a124 <_dtoa_r+0x37c>
 800a08a:	bf00      	nop
 800a08c:	f3af 8000 	nop.w
 800a090:	636f4361 	.word	0x636f4361
 800a094:	3fd287a7 	.word	0x3fd287a7
 800a098:	8b60c8b3 	.word	0x8b60c8b3
 800a09c:	3fc68a28 	.word	0x3fc68a28
 800a0a0:	509f79fb 	.word	0x509f79fb
 800a0a4:	3fd34413 	.word	0x3fd34413
 800a0a8:	0800f999 	.word	0x0800f999
 800a0ac:	0800f9c8 	.word	0x0800f9c8
 800a0b0:	0800f9e8 	.word	0x0800f9e8
 800a0b4:	0800f9bc 	.word	0x0800f9bc
 800a0b8:	0800f998 	.word	0x0800f998
 800a0bc:	f7f6 fa1c 	bl	80004f8 <__aeabi_dmul>
 800a0c0:	2200      	movs	r2, #0
 800a0c2:	2300      	movs	r3, #0
 800a0c4:	4604      	mov	r4, r0
 800a0c6:	460d      	mov	r5, r1
 800a0c8:	f7f6 fc7e 	bl	80009c8 <__aeabi_dcmpeq>
 800a0cc:	4652      	mov	r2, sl
 800a0ce:	465b      	mov	r3, fp
 800a0d0:	2800      	cmp	r0, #0
 800a0d2:	f040 808b 	bne.w	800a1ec <_dtoa_r+0x444>
 800a0d6:	4620      	mov	r0, r4
 800a0d8:	4629      	mov	r1, r5
 800a0da:	f7f6 fb37 	bl	800074c <__aeabi_ddiv>
 800a0de:	f7f6 fca5 	bl	8000a2c <__aeabi_d2iz>
 800a0e2:	4606      	mov	r6, r0
 800a0e4:	f7f6 f9a2 	bl	800042c <__aeabi_i2d>
 800a0e8:	4652      	mov	r2, sl
 800a0ea:	465b      	mov	r3, fp
 800a0ec:	f7f6 fa04 	bl	80004f8 <__aeabi_dmul>
 800a0f0:	4602      	mov	r2, r0
 800a0f2:	460b      	mov	r3, r1
 800a0f4:	4620      	mov	r0, r4
 800a0f6:	4629      	mov	r1, r5
 800a0f8:	f7f6 f84a 	bl	8000190 <__aeabi_dsub>
 800a0fc:	3630      	adds	r6, #48	; 0x30
 800a0fe:	2300      	movs	r3, #0
 800a100:	2200      	movs	r2, #0
 800a102:	f2c4 0324 	movt	r3, #16420	; 0x4024
 800a106:	f807 6c01 	strb.w	r6, [r7, #-1]
 800a10a:	f7f6 f9f5 	bl	80004f8 <__aeabi_dmul>
 800a10e:	2200      	movs	r2, #0
 800a110:	2300      	movs	r3, #0
 800a112:	46b8      	mov	r8, r7
 800a114:	4604      	mov	r4, r0
 800a116:	460d      	mov	r5, r1
 800a118:	f107 0701 	add.w	r7, r7, #1
 800a11c:	f7f6 fc54 	bl	80009c8 <__aeabi_dcmpeq>
 800a120:	2800      	cmp	r0, #0
 800a122:	d163      	bne.n	800a1ec <_dtoa_r+0x444>
 800a124:	4652      	mov	r2, sl
 800a126:	465b      	mov	r3, fp
 800a128:	4620      	mov	r0, r4
 800a12a:	4629      	mov	r1, r5
 800a12c:	f7f6 fb0e 	bl	800074c <__aeabi_ddiv>
 800a130:	f7f6 fc7c 	bl	8000a2c <__aeabi_d2iz>
 800a134:	4606      	mov	r6, r0
 800a136:	f7f6 f979 	bl	800042c <__aeabi_i2d>
 800a13a:	4652      	mov	r2, sl
 800a13c:	465b      	mov	r3, fp
 800a13e:	f7f6 f9db 	bl	80004f8 <__aeabi_dmul>
 800a142:	4602      	mov	r2, r0
 800a144:	460b      	mov	r3, r1
 800a146:	4620      	mov	r0, r4
 800a148:	4629      	mov	r1, r5
 800a14a:	f7f6 f821 	bl	8000190 <__aeabi_dsub>
 800a14e:	f8dd c014 	ldr.w	ip, [sp, #20]
 800a152:	2300      	movs	r3, #0
 800a154:	f106 0830 	add.w	r8, r6, #48	; 0x30
 800a158:	2200      	movs	r2, #0
 800a15a:	4567      	cmp	r7, ip
 800a15c:	f807 8c01 	strb.w	r8, [r7, #-1]
 800a160:	4604      	mov	r4, r0
 800a162:	46b8      	mov	r8, r7
 800a164:	460d      	mov	r5, r1
 800a166:	f2c4 0324 	movt	r3, #16420	; 0x4024
 800a16a:	f107 0701 	add.w	r7, r7, #1
 800a16e:	d1a5      	bne.n	800a0bc <_dtoa_r+0x314>
 800a170:	4622      	mov	r2, r4
 800a172:	462b      	mov	r3, r5
 800a174:	4620      	mov	r0, r4
 800a176:	4629      	mov	r1, r5
 800a178:	f7f6 f80c 	bl	8000194 <__adddf3>
 800a17c:	4604      	mov	r4, r0
 800a17e:	460d      	mov	r5, r1
 800a180:	4622      	mov	r2, r4
 800a182:	e9dd 0102 	ldrd	r0, r1, [sp, #8]
 800a186:	462b      	mov	r3, r5
 800a188:	f7f6 fc28 	bl	80009dc <__aeabi_dcmplt>
 800a18c:	b940      	cbnz	r0, 800a1a0 <_dtoa_r+0x3f8>
 800a18e:	e9dd 0102 	ldrd	r0, r1, [sp, #8]
 800a192:	4622      	mov	r2, r4
 800a194:	462b      	mov	r3, r5
 800a196:	f7f6 fc17 	bl	80009c8 <__aeabi_dcmpeq>
 800a19a:	b338      	cbz	r0, 800a1ec <_dtoa_r+0x444>
 800a19c:	07f5      	lsls	r5, r6, #31
 800a19e:	d525      	bpl.n	800a1ec <_dtoa_r+0x444>
 800a1a0:	f818 bc01 	ldrb.w	fp, [r8, #-1]
 800a1a4:	9a04      	ldr	r2, [sp, #16]
 800a1a6:	43d3      	mvns	r3, r2
 800a1a8:	eb08 0003 	add.w	r0, r8, r3
 800a1ac:	07c0      	lsls	r0, r0, #31
 800a1ae:	f100 8505 	bmi.w	800abbc <_dtoa_r+0xe14>
 800a1b2:	4615      	mov	r5, r2
 800a1b4:	f1bb 0f39 	cmp.w	fp, #57	; 0x39
 800a1b8:	f108 31ff 	add.w	r1, r8, #4294967295
 800a1bc:	d112      	bne.n	800a1e4 <_dtoa_r+0x43c>
 800a1be:	428d      	cmp	r5, r1
 800a1c0:	f000 853f 	beq.w	800ac42 <_dtoa_r+0xe9a>
 800a1c4:	f811 bc01 	ldrb.w	fp, [r1, #-1]
 800a1c8:	f1bb 0f39 	cmp.w	fp, #57	; 0x39
 800a1cc:	4688      	mov	r8, r1
 800a1ce:	f101 31ff 	add.w	r1, r1, #4294967295
 800a1d2:	d107      	bne.n	800a1e4 <_dtoa_r+0x43c>
 800a1d4:	f811 bc01 	ldrb.w	fp, [r1, #-1]
 800a1d8:	4688      	mov	r8, r1
 800a1da:	f1bb 0f39 	cmp.w	fp, #57	; 0x39
 800a1de:	f108 31ff 	add.w	r1, r8, #4294967295
 800a1e2:	d0ec      	beq.n	800a1be <_dtoa_r+0x416>
 800a1e4:	f10b 0201 	add.w	r2, fp, #1
 800a1e8:	b2d3      	uxtb	r3, r2
 800a1ea:	700b      	strb	r3, [r1, #0]
 800a1ec:	4648      	mov	r0, r9
 800a1ee:	990a      	ldr	r1, [sp, #40]	; 0x28
 800a1f0:	f001 f8ec 	bl	800b3cc <_Bfree>
 800a1f4:	9806      	ldr	r0, [sp, #24]
 800a1f6:	9d08      	ldr	r5, [sp, #32]
 800a1f8:	1c41      	adds	r1, r0, #1
 800a1fa:	2200      	movs	r2, #0
 800a1fc:	f888 2000 	strb.w	r2, [r8]
 800a200:	6029      	str	r1, [r5, #0]
 800a202:	9d27      	ldr	r5, [sp, #156]	; 0x9c
 800a204:	2d00      	cmp	r5, #0
 800a206:	f43f ae0a 	beq.w	8009e1e <_dtoa_r+0x76>
 800a20a:	f8c5 8000 	str.w	r8, [r5]
 800a20e:	e606      	b.n	8009e1e <_dtoa_r+0x76>
 800a210:	e9dd 2302 	ldrd	r2, r3, [sp, #8]
 800a214:	4620      	mov	r0, r4
 800a216:	4629      	mov	r1, r5
 800a218:	f7f6 fa98 	bl	800074c <__aeabi_ddiv>
 800a21c:	f7f6 fc06 	bl	8000a2c <__aeabi_d2iz>
 800a220:	4606      	mov	r6, r0
 800a222:	f7f6 f903 	bl	800042c <__aeabi_i2d>
 800a226:	e9dd 2302 	ldrd	r2, r3, [sp, #8]
 800a22a:	f7f6 f965 	bl	80004f8 <__aeabi_dmul>
 800a22e:	4602      	mov	r2, r0
 800a230:	460b      	mov	r3, r1
 800a232:	4620      	mov	r0, r4
 800a234:	4629      	mov	r1, r5
 800a236:	f7f5 ffab 	bl	8000190 <__aeabi_dsub>
 800a23a:	3630      	adds	r6, #48	; 0x30
 800a23c:	2300      	movs	r3, #0
 800a23e:	2200      	movs	r2, #0
 800a240:	f2c4 0324 	movt	r3, #16420	; 0x4024
 800a244:	f807 6c01 	strb.w	r6, [r7, #-1]
 800a248:	f7f6 f956 	bl	80004f8 <__aeabi_dmul>
 800a24c:	46b8      	mov	r8, r7
 800a24e:	9f04      	ldr	r7, [sp, #16]
 800a250:	2200      	movs	r2, #0
 800a252:	2300      	movs	r3, #0
 800a254:	4604      	mov	r4, r0
 800a256:	460d      	mov	r5, r1
 800a258:	3703      	adds	r7, #3
 800a25a:	f7f6 fbb5 	bl	80009c8 <__aeabi_dcmpeq>
 800a25e:	2800      	cmp	r0, #0
 800a260:	f43f af0e 	beq.w	800a080 <_dtoa_r+0x2d8>
 800a264:	e7c2      	b.n	800a1ec <_dtoa_r+0x444>
 800a266:	9804      	ldr	r0, [sp, #16]
 800a268:	1cc1      	adds	r1, r0, #3
 800a26a:	e5f0      	b.n	8009e4e <_dtoa_r+0xa6>
 800a26c:	9f0d      	ldr	r7, [sp, #52]	; 0x34
 800a26e:	2f00      	cmp	r7, #0
 800a270:	f000 8133 	beq.w	800a4da <_dtoa_r+0x732>
 800a274:	9c02      	ldr	r4, [sp, #8]
 800a276:	2c01      	cmp	r4, #1
 800a278:	f340 83f8 	ble.w	800aa6c <_dtoa_r+0xcc4>
 800a27c:	9a09      	ldr	r2, [sp, #36]	; 0x24
 800a27e:	9b0e      	ldr	r3, [sp, #56]	; 0x38
 800a280:	1e57      	subs	r7, r2, #1
 800a282:	42bb      	cmp	r3, r7
 800a284:	f2c0 84e8 	blt.w	800ac58 <_dtoa_r+0xeb0>
 800a288:	1bdd      	subs	r5, r3, r7
 800a28a:	9c09      	ldr	r4, [sp, #36]	; 0x24
 800a28c:	2c00      	cmp	r4, #0
 800a28e:	f2c0 8637 	blt.w	800af00 <_dtoa_r+0x1158>
 800a292:	9c0c      	ldr	r4, [sp, #48]	; 0x30
 800a294:	9f09      	ldr	r7, [sp, #36]	; 0x24
 800a296:	f8dd e030 	ldr.w	lr, [sp, #48]	; 0x30
 800a29a:	9a07      	ldr	r2, [sp, #28]
 800a29c:	eb0e 0807 	add.w	r8, lr, r7
 800a2a0:	4648      	mov	r0, r9
 800a2a2:	19d7      	adds	r7, r2, r7
 800a2a4:	2101      	movs	r1, #1
 800a2a6:	f8cd 8030 	str.w	r8, [sp, #48]	; 0x30
 800a2aa:	9707      	str	r7, [sp, #28]
 800a2ac:	f001 f960 	bl	800b570 <__i2b>
 800a2b0:	900b      	str	r0, [sp, #44]	; 0x2c
 800a2b2:	b164      	cbz	r4, 800a2ce <_dtoa_r+0x526>
 800a2b4:	9907      	ldr	r1, [sp, #28]
 800a2b6:	2900      	cmp	r1, #0
 800a2b8:	dd09      	ble.n	800a2ce <_dtoa_r+0x526>
 800a2ba:	9b0c      	ldr	r3, [sp, #48]	; 0x30
 800a2bc:	4608      	mov	r0, r1
 800a2be:	42a0      	cmp	r0, r4
 800a2c0:	bfa8      	it	ge
 800a2c2:	4620      	movge	r0, r4
 800a2c4:	1a1a      	subs	r2, r3, r0
 800a2c6:	1a0f      	subs	r7, r1, r0
 800a2c8:	920c      	str	r2, [sp, #48]	; 0x30
 800a2ca:	1a24      	subs	r4, r4, r0
 800a2cc:	9707      	str	r7, [sp, #28]
 800a2ce:	990e      	ldr	r1, [sp, #56]	; 0x38
 800a2d0:	2900      	cmp	r1, #0
 800a2d2:	dd1a      	ble.n	800a30a <_dtoa_r+0x562>
 800a2d4:	980d      	ldr	r0, [sp, #52]	; 0x34
 800a2d6:	2800      	cmp	r0, #0
 800a2d8:	f000 84ab 	beq.w	800ac32 <_dtoa_r+0xe8a>
 800a2dc:	2d00      	cmp	r5, #0
 800a2de:	dd10      	ble.n	800a302 <_dtoa_r+0x55a>
 800a2e0:	990b      	ldr	r1, [sp, #44]	; 0x2c
 800a2e2:	462a      	mov	r2, r5
 800a2e4:	4648      	mov	r0, r9
 800a2e6:	f001 fab5 	bl	800b854 <__pow5mult>
 800a2ea:	900b      	str	r0, [sp, #44]	; 0x2c
 800a2ec:	990b      	ldr	r1, [sp, #44]	; 0x2c
 800a2ee:	9a0a      	ldr	r2, [sp, #40]	; 0x28
 800a2f0:	4648      	mov	r0, r9
 800a2f2:	f001 f947 	bl	800b584 <__multiply>
 800a2f6:	990a      	ldr	r1, [sp, #40]	; 0x28
 800a2f8:	4606      	mov	r6, r0
 800a2fa:	4648      	mov	r0, r9
 800a2fc:	f001 f866 	bl	800b3cc <_Bfree>
 800a300:	960a      	str	r6, [sp, #40]	; 0x28
 800a302:	9b0e      	ldr	r3, [sp, #56]	; 0x38
 800a304:	1b5a      	subs	r2, r3, r5
 800a306:	f040 83ab 	bne.w	800aa60 <_dtoa_r+0xcb8>
 800a30a:	2101      	movs	r1, #1
 800a30c:	4648      	mov	r0, r9
 800a30e:	f001 f92f 	bl	800b570 <__i2b>
 800a312:	9d0f      	ldr	r5, [sp, #60]	; 0x3c
 800a314:	2d00      	cmp	r5, #0
 800a316:	4607      	mov	r7, r0
 800a318:	dd05      	ble.n	800a326 <_dtoa_r+0x57e>
 800a31a:	4639      	mov	r1, r7
 800a31c:	4648      	mov	r0, r9
 800a31e:	462a      	mov	r2, r5
 800a320:	f001 fa98 	bl	800b854 <__pow5mult>
 800a324:	4607      	mov	r7, r0
 800a326:	9a02      	ldr	r2, [sp, #8]
 800a328:	2a01      	cmp	r2, #1
 800a32a:	f340 8159 	ble.w	800a5e0 <_dtoa_r+0x838>
 800a32e:	2500      	movs	r5, #0
 800a330:	9b0f      	ldr	r3, [sp, #60]	; 0x3c
 800a332:	2b00      	cmp	r3, #0
 800a334:	f040 841a 	bne.w	800ab6c <_dtoa_r+0xdc4>
 800a338:	2101      	movs	r1, #1
 800a33a:	9b07      	ldr	r3, [sp, #28]
 800a33c:	18c9      	adds	r1, r1, r3
 800a33e:	f011 001f 	ands.w	r0, r1, #31
 800a342:	f000 80cf 	beq.w	800a4e4 <_dtoa_r+0x73c>
 800a346:	f1c0 0220 	rsb	r2, r0, #32
 800a34a:	2a04      	cmp	r2, #4
 800a34c:	f340 8655 	ble.w	800affa <_dtoa_r+0x1252>
 800a350:	f8dd 8030 	ldr.w	r8, [sp, #48]	; 0x30
 800a354:	9a07      	ldr	r2, [sp, #28]
 800a356:	f1c0 031c 	rsb	r3, r0, #28
 800a35a:	eb08 0c03 	add.w	ip, r8, r3
 800a35e:	18d1      	adds	r1, r2, r3
 800a360:	f8cd c030 	str.w	ip, [sp, #48]	; 0x30
 800a364:	18e4      	adds	r4, r4, r3
 800a366:	9107      	str	r1, [sp, #28]
 800a368:	980c      	ldr	r0, [sp, #48]	; 0x30
 800a36a:	2800      	cmp	r0, #0
 800a36c:	dd05      	ble.n	800a37a <_dtoa_r+0x5d2>
 800a36e:	4648      	mov	r0, r9
 800a370:	990a      	ldr	r1, [sp, #40]	; 0x28
 800a372:	9a0c      	ldr	r2, [sp, #48]	; 0x30
 800a374:	f001 fab8 	bl	800b8e8 <__lshift>
 800a378:	900a      	str	r0, [sp, #40]	; 0x28
 800a37a:	9a07      	ldr	r2, [sp, #28]
 800a37c:	2a00      	cmp	r2, #0
 800a37e:	dd04      	ble.n	800a38a <_dtoa_r+0x5e2>
 800a380:	4639      	mov	r1, r7
 800a382:	4648      	mov	r0, r9
 800a384:	f001 fab0 	bl	800b8e8 <__lshift>
 800a388:	4607      	mov	r7, r0
 800a38a:	9b10      	ldr	r3, [sp, #64]	; 0x40
 800a38c:	2b00      	cmp	r3, #0
 800a38e:	f040 83d2 	bne.w	800ab36 <_dtoa_r+0xd8e>
 800a392:	9b09      	ldr	r3, [sp, #36]	; 0x24
 800a394:	2b00      	cmp	r3, #0
 800a396:	f340 83f3 	ble.w	800ab80 <_dtoa_r+0xdd8>
 800a39a:	990d      	ldr	r1, [sp, #52]	; 0x34
 800a39c:	2900      	cmp	r1, #0
 800a39e:	f040 80b7 	bne.w	800a510 <_dtoa_r+0x768>
 800a3a2:	9809      	ldr	r0, [sp, #36]	; 0x24
 800a3a4:	9d0d      	ldr	r5, [sp, #52]	; 0x34
 800a3a6:	07c2      	lsls	r2, r0, #31
 800a3a8:	f140 83a2 	bpl.w	800aaf0 <_dtoa_r+0xd48>
 800a3ac:	4682      	mov	sl, r0
 800a3ae:	9e0a      	ldr	r6, [sp, #40]	; 0x28
 800a3b0:	f8dd 8010 	ldr.w	r8, [sp, #16]
 800a3b4:	e010      	b.n	800a3d8 <_dtoa_r+0x630>
 800a3b6:	f001 f813 	bl	800b3e0 <__multadd>
 800a3ba:	4639      	mov	r1, r7
 800a3bc:	4606      	mov	r6, r0
 800a3be:	f7ff fb7d 	bl	8009abc <quorem>
 800a3c2:	3030      	adds	r0, #48	; 0x30
 800a3c4:	f808 0004 	strb.w	r0, [r8, r4]
 800a3c8:	4631      	mov	r1, r6
 800a3ca:	4648      	mov	r0, r9
 800a3cc:	220a      	movs	r2, #10
 800a3ce:	2300      	movs	r3, #0
 800a3d0:	f001 f806 	bl	800b3e0 <__multadd>
 800a3d4:	1c65      	adds	r5, r4, #1
 800a3d6:	4606      	mov	r6, r0
 800a3d8:	4639      	mov	r1, r7
 800a3da:	4630      	mov	r0, r6
 800a3dc:	f7ff fb6e 	bl	8009abc <quorem>
 800a3e0:	1c6c      	adds	r4, r5, #1
 800a3e2:	f100 0b30 	add.w	fp, r0, #48	; 0x30
 800a3e6:	220a      	movs	r2, #10
 800a3e8:	2300      	movs	r3, #0
 800a3ea:	45a2      	cmp	sl, r4
 800a3ec:	4631      	mov	r1, r6
 800a3ee:	4648      	mov	r0, r9
 800a3f0:	f808 b005 	strb.w	fp, [r8, r5]
 800a3f4:	dcdf      	bgt.n	800a3b6 <_dtoa_r+0x60e>
 800a3f6:	960a      	str	r6, [sp, #40]	; 0x28
 800a3f8:	f8dd 8010 	ldr.w	r8, [sp, #16]
 800a3fc:	9a09      	ldr	r2, [sp, #36]	; 0x24
 800a3fe:	2500      	movs	r5, #0
 800a400:	2a01      	cmp	r2, #1
 800a402:	bfac      	ite	ge
 800a404:	4490      	addge	r8, r2
 800a406:	f108 0801 	addlt.w	r8, r8, #1
 800a40a:	2201      	movs	r2, #1
 800a40c:	990a      	ldr	r1, [sp, #40]	; 0x28
 800a40e:	4648      	mov	r0, r9
 800a410:	f001 fa6a 	bl	800b8e8 <__lshift>
 800a414:	4639      	mov	r1, r7
 800a416:	900a      	str	r0, [sp, #40]	; 0x28
 800a418:	f001 fb2a 	bl	800ba70 <__mcmp>
 800a41c:	2800      	cmp	r0, #0
 800a41e:	f340 844f 	ble.w	800acc0 <_dtoa_r+0xf18>
 800a422:	f818 2c01 	ldrb.w	r2, [r8, #-1]
 800a426:	9904      	ldr	r1, [sp, #16]
 800a428:	43c8      	mvns	r0, r1
 800a42a:	eb08 0300 	add.w	r3, r8, r0
 800a42e:	07db      	lsls	r3, r3, #31
 800a430:	d507      	bpl.n	800a442 <_dtoa_r+0x69a>
 800a432:	2a39      	cmp	r2, #57	; 0x39
 800a434:	f108 30ff 	add.w	r0, r8, #4294967295
 800a438:	d118      	bne.n	800a46c <_dtoa_r+0x6c4>
 800a43a:	f810 2c01 	ldrb.w	r2, [r0, #-1]
 800a43e:	9904      	ldr	r1, [sp, #16]
 800a440:	4680      	mov	r8, r0
 800a442:	2a39      	cmp	r2, #57	; 0x39
 800a444:	f108 30ff 	add.w	r0, r8, #4294967295
 800a448:	d110      	bne.n	800a46c <_dtoa_r+0x6c4>
 800a44a:	4281      	cmp	r1, r0
 800a44c:	f000 836c 	beq.w	800ab28 <_dtoa_r+0xd80>
 800a450:	f810 2c01 	ldrb.w	r2, [r0, #-1]
 800a454:	2a39      	cmp	r2, #57	; 0x39
 800a456:	4680      	mov	r8, r0
 800a458:	f100 30ff 	add.w	r0, r0, #4294967295
 800a45c:	d106      	bne.n	800a46c <_dtoa_r+0x6c4>
 800a45e:	f810 2c01 	ldrb.w	r2, [r0, #-1]
 800a462:	4680      	mov	r8, r0
 800a464:	2a39      	cmp	r2, #57	; 0x39
 800a466:	f108 30ff 	add.w	r0, r8, #4294967295
 800a46a:	d0ee      	beq.n	800a44a <_dtoa_r+0x6a2>
 800a46c:	3201      	adds	r2, #1
 800a46e:	7002      	strb	r2, [r0, #0]
 800a470:	4648      	mov	r0, r9
 800a472:	4639      	mov	r1, r7
 800a474:	f000 ffaa 	bl	800b3cc <_Bfree>
 800a478:	9b0b      	ldr	r3, [sp, #44]	; 0x2c
 800a47a:	2b00      	cmp	r3, #0
 800a47c:	f43f aeb6 	beq.w	800a1ec <_dtoa_r+0x444>
 800a480:	2d00      	cmp	r5, #0
 800a482:	f000 82e7 	beq.w	800aa54 <_dtoa_r+0xcac>
 800a486:	429d      	cmp	r5, r3
 800a488:	f000 82e4 	beq.w	800aa54 <_dtoa_r+0xcac>
 800a48c:	4648      	mov	r0, r9
 800a48e:	4629      	mov	r1, r5
 800a490:	f000 ff9c 	bl	800b3cc <_Bfree>
 800a494:	e2de      	b.n	800aa54 <_dtoa_r+0xcac>
 800a496:	2301      	movs	r3, #1
 800a498:	9310      	str	r3, [sp, #64]	; 0x40
 800a49a:	e54d      	b.n	8009f38 <_dtoa_r+0x190>
 800a49c:	9806      	ldr	r0, [sp, #24]
 800a49e:	f7f5 ffc5 	bl	800042c <__aeabi_i2d>
 800a4a2:	4622      	mov	r2, r4
 800a4a4:	462b      	mov	r3, r5
 800a4a6:	f7f6 fa8f 	bl	80009c8 <__aeabi_dcmpeq>
 800a4aa:	2800      	cmp	r0, #0
 800a4ac:	f47f ad2f 	bne.w	8009f0e <_dtoa_r+0x166>
 800a4b0:	9806      	ldr	r0, [sp, #24]
 800a4b2:	1e41      	subs	r1, r0, #1
 800a4b4:	9106      	str	r1, [sp, #24]
 800a4b6:	e52a      	b.n	8009f0e <_dtoa_r+0x166>
 800a4b8:	980c      	ldr	r0, [sp, #48]	; 0x30
 800a4ba:	f8dd e018 	ldr.w	lr, [sp, #24]
 800a4be:	2300      	movs	r3, #0
 800a4c0:	ebce 0100 	rsb	r1, lr, r0
 800a4c4:	f1ce 0200 	rsb	r2, lr, #0
 800a4c8:	910c      	str	r1, [sp, #48]	; 0x30
 800a4ca:	920e      	str	r2, [sp, #56]	; 0x38
 800a4cc:	930f      	str	r3, [sp, #60]	; 0x3c
 800a4ce:	e547      	b.n	8009f60 <_dtoa_r+0x1b8>
 800a4d0:	4276      	negs	r6, r6
 800a4d2:	2300      	movs	r3, #0
 800a4d4:	960c      	str	r6, [sp, #48]	; 0x30
 800a4d6:	9307      	str	r3, [sp, #28]
 800a4d8:	e535      	b.n	8009f46 <_dtoa_r+0x19e>
 800a4da:	980d      	ldr	r0, [sp, #52]	; 0x34
 800a4dc:	9d0e      	ldr	r5, [sp, #56]	; 0x38
 800a4de:	9c0c      	ldr	r4, [sp, #48]	; 0x30
 800a4e0:	900b      	str	r0, [sp, #44]	; 0x2c
 800a4e2:	e6e6      	b.n	800a2b2 <_dtoa_r+0x50a>
 800a4e4:	231c      	movs	r3, #28
 800a4e6:	990c      	ldr	r1, [sp, #48]	; 0x30
 800a4e8:	f8dd c01c 	ldr.w	ip, [sp, #28]
 800a4ec:	18c8      	adds	r0, r1, r3
 800a4ee:	eb0c 0e03 	add.w	lr, ip, r3
 800a4f2:	900c      	str	r0, [sp, #48]	; 0x30
 800a4f4:	18e4      	adds	r4, r4, r3
 800a4f6:	f8cd e01c 	str.w	lr, [sp, #28]
 800a4fa:	e735      	b.n	800a368 <_dtoa_r+0x5c0>
 800a4fc:	f64f 35ee 	movw	r5, #64494	; 0xfbee
 800a500:	f6cf 75ff 	movt	r5, #65535	; 0xffff
 800a504:	1bab      	subs	r3, r5, r6
 800a506:	fa0a f003 	lsl.w	r0, sl, r3
 800a50a:	e4cb      	b.n	8009ea4 <_dtoa_r+0xfc>
 800a50c:	9010      	str	r0, [sp, #64]	; 0x40
 800a50e:	e513      	b.n	8009f38 <_dtoa_r+0x190>
 800a510:	2c00      	cmp	r4, #0
 800a512:	dd05      	ble.n	800a520 <_dtoa_r+0x778>
 800a514:	4648      	mov	r0, r9
 800a516:	990b      	ldr	r1, [sp, #44]	; 0x2c
 800a518:	4622      	mov	r2, r4
 800a51a:	f001 f9e5 	bl	800b8e8 <__lshift>
 800a51e:	900b      	str	r0, [sp, #44]	; 0x2c
 800a520:	2d00      	cmp	r5, #0
 800a522:	f040 8405 	bne.w	800ad30 <_dtoa_r+0xf88>
 800a526:	9e0b      	ldr	r6, [sp, #44]	; 0x2c
 800a528:	9d09      	ldr	r5, [sp, #36]	; 0x24
 800a52a:	9a04      	ldr	r2, [sp, #16]
 800a52c:	9b04      	ldr	r3, [sp, #16]
 800a52e:	1951      	adds	r1, r2, r5
 800a530:	f00a 0001 	and.w	r0, sl, #1
 800a534:	9d0b      	ldr	r5, [sp, #44]	; 0x2c
 800a536:	f8dd a028 	ldr.w	sl, [sp, #40]	; 0x28
 800a53a:	9107      	str	r1, [sp, #28]
 800a53c:	1c5c      	adds	r4, r3, #1
 800a53e:	9009      	str	r0, [sp, #36]	; 0x24
 800a540:	4639      	mov	r1, r7
 800a542:	4650      	mov	r0, sl
 800a544:	f7ff faba 	bl	8009abc <quorem>
 800a548:	4629      	mov	r1, r5
 800a54a:	4680      	mov	r8, r0
 800a54c:	4650      	mov	r0, sl
 800a54e:	f001 fa8f 	bl	800ba70 <__mcmp>
 800a552:	4639      	mov	r1, r7
 800a554:	4632      	mov	r2, r6
 800a556:	4683      	mov	fp, r0
 800a558:	4648      	mov	r0, r9
 800a55a:	f001 fab7 	bl	800bacc <__mdiff>
 800a55e:	68c1      	ldr	r1, [r0, #12]
 800a560:	1e63      	subs	r3, r4, #1
 800a562:	4602      	mov	r2, r0
 800a564:	9305      	str	r3, [sp, #20]
 800a566:	f108 0c30 	add.w	ip, r8, #48	; 0x30
 800a56a:	2900      	cmp	r1, #0
 800a56c:	f000 8287 	beq.w	800aa7e <_dtoa_r+0xcd6>
 800a570:	4648      	mov	r0, r9
 800a572:	4611      	mov	r1, r2
 800a574:	f8cd c000 	str.w	ip, [sp]
 800a578:	f000 ff28 	bl	800b3cc <_Bfree>
 800a57c:	f8dd c000 	ldr.w	ip, [sp]
 800a580:	2001      	movs	r0, #1
 800a582:	f1bb 0f00 	cmp.w	fp, #0
 800a586:	f2c0 837b 	blt.w	800ac80 <_dtoa_r+0xed8>
 800a58a:	d105      	bne.n	800a598 <_dtoa_r+0x7f0>
 800a58c:	9a02      	ldr	r2, [sp, #8]
 800a58e:	b91a      	cbnz	r2, 800a598 <_dtoa_r+0x7f0>
 800a590:	9909      	ldr	r1, [sp, #36]	; 0x24
 800a592:	2900      	cmp	r1, #0
 800a594:	f000 8374 	beq.w	800ac80 <_dtoa_r+0xed8>
 800a598:	2800      	cmp	r0, #0
 800a59a:	f300 83e0 	bgt.w	800ad5e <_dtoa_r+0xfb6>
 800a59e:	9807      	ldr	r0, [sp, #28]
 800a5a0:	f804 cc01 	strb.w	ip, [r4, #-1]
 800a5a4:	4284      	cmp	r4, r0
 800a5a6:	46a0      	mov	r8, r4
 800a5a8:	f000 83e8 	beq.w	800ad7c <_dtoa_r+0xfd4>
 800a5ac:	4651      	mov	r1, sl
 800a5ae:	220a      	movs	r2, #10
 800a5b0:	2300      	movs	r3, #0
 800a5b2:	4648      	mov	r0, r9
 800a5b4:	f000 ff14 	bl	800b3e0 <__multadd>
 800a5b8:	42b5      	cmp	r5, r6
 800a5ba:	4682      	mov	sl, r0
 800a5bc:	f000 828e 	beq.w	800aadc <_dtoa_r+0xd34>
 800a5c0:	4629      	mov	r1, r5
 800a5c2:	220a      	movs	r2, #10
 800a5c4:	2300      	movs	r3, #0
 800a5c6:	4648      	mov	r0, r9
 800a5c8:	f000 ff0a 	bl	800b3e0 <__multadd>
 800a5cc:	4631      	mov	r1, r6
 800a5ce:	4605      	mov	r5, r0
 800a5d0:	220a      	movs	r2, #10
 800a5d2:	4648      	mov	r0, r9
 800a5d4:	2300      	movs	r3, #0
 800a5d6:	f000 ff03 	bl	800b3e0 <__multadd>
 800a5da:	3401      	adds	r4, #1
 800a5dc:	4606      	mov	r6, r0
 800a5de:	e7af      	b.n	800a540 <_dtoa_r+0x798>
 800a5e0:	f1ba 0f00 	cmp.w	sl, #0
 800a5e4:	f47f aea3 	bne.w	800a32e <_dtoa_r+0x586>
 800a5e8:	f3cb 0013 	ubfx	r0, fp, #0, #20
 800a5ec:	4659      	mov	r1, fp
 800a5ee:	2800      	cmp	r0, #0
 800a5f0:	f040 8492 	bne.w	800af18 <_dtoa_r+0x1170>
 800a5f4:	2500      	movs	r5, #0
 800a5f6:	f6c7 75f0 	movt	r5, #32752	; 0x7ff0
 800a5fa:	400d      	ands	r5, r1
 800a5fc:	2d00      	cmp	r5, #0
 800a5fe:	f43f ae97 	beq.w	800a330 <_dtoa_r+0x588>
 800a602:	9b0c      	ldr	r3, [sp, #48]	; 0x30
 800a604:	9907      	ldr	r1, [sp, #28]
 800a606:	1c5a      	adds	r2, r3, #1
 800a608:	1c48      	adds	r0, r1, #1
 800a60a:	920c      	str	r2, [sp, #48]	; 0x30
 800a60c:	9007      	str	r0, [sp, #28]
 800a60e:	2501      	movs	r5, #1
 800a610:	e68e      	b.n	800a330 <_dtoa_r+0x588>
 800a612:	2301      	movs	r3, #1
 800a614:	930d      	str	r3, [sp, #52]	; 0x34
 800a616:	9905      	ldr	r1, [sp, #20]
 800a618:	2900      	cmp	r1, #0
 800a61a:	f340 832c 	ble.w	800ac76 <_dtoa_r+0xece>
 800a61e:	460c      	mov	r4, r1
 800a620:	9111      	str	r1, [sp, #68]	; 0x44
 800a622:	9109      	str	r1, [sp, #36]	; 0x24
 800a624:	2100      	movs	r1, #0
 800a626:	2c17      	cmp	r4, #23
 800a628:	f8c9 1044 	str.w	r1, [r9, #68]	; 0x44
 800a62c:	d90a      	bls.n	800a644 <_dtoa_r+0x89c>
 800a62e:	2201      	movs	r2, #1
 800a630:	2304      	movs	r3, #4
 800a632:	005b      	lsls	r3, r3, #1
 800a634:	f103 0014 	add.w	r0, r3, #20
 800a638:	4611      	mov	r1, r2
 800a63a:	3201      	adds	r2, #1
 800a63c:	42a0      	cmp	r0, r4
 800a63e:	d9f8      	bls.n	800a632 <_dtoa_r+0x88a>
 800a640:	f8c9 1044 	str.w	r1, [r9, #68]	; 0x44
 800a644:	4648      	mov	r0, r9
 800a646:	f000 fe9b 	bl	800b380 <_Balloc>
 800a64a:	2c0e      	cmp	r4, #14
 800a64c:	9004      	str	r0, [sp, #16]
 800a64e:	f8c9 0040 	str.w	r0, [r9, #64]	; 0x40
 800a652:	f63f acc7 	bhi.w	8009fe4 <_dtoa_r+0x23c>
 800a656:	2d00      	cmp	r5, #0
 800a658:	f43f acc4 	beq.w	8009fe4 <_dtoa_r+0x23c>
 800a65c:	9f06      	ldr	r7, [sp, #24]
 800a65e:	2f00      	cmp	r7, #0
 800a660:	e9cd ab12 	strd	sl, fp, [sp, #72]	; 0x48
 800a664:	f340 8340 	ble.w	800ace8 <_dtoa_r+0xf40>
 800a668:	4c99      	ldr	r4, [pc, #612]	; (800a8d0 <_dtoa_r+0xb28>)
 800a66a:	f007 060f 	and.w	r6, r7, #15
 800a66e:	eb04 00c6 	add.w	r0, r4, r6, lsl #3
 800a672:	113e      	asrs	r6, r7, #4
 800a674:	06f1      	lsls	r1, r6, #27
 800a676:	e9d0 4500 	ldrd	r4, r5, [r0]
 800a67a:	f140 82f8 	bpl.w	800ac6e <_dtoa_r+0xec6>
 800a67e:	4f95      	ldr	r7, [pc, #596]	; (800a8d4 <_dtoa_r+0xb2c>)
 800a680:	4650      	mov	r0, sl
 800a682:	4659      	mov	r1, fp
 800a684:	e9d7 2308 	ldrd	r2, r3, [r7, #32]
 800a688:	f7f6 f860 	bl	800074c <__aeabi_ddiv>
 800a68c:	f006 060f 	and.w	r6, r6, #15
 800a690:	4682      	mov	sl, r0
 800a692:	468b      	mov	fp, r1
 800a694:	2703      	movs	r7, #3
 800a696:	b186      	cbz	r6, 800a6ba <_dtoa_r+0x912>
 800a698:	f8df 8238 	ldr.w	r8, [pc, #568]	; 800a8d4 <_dtoa_r+0xb2c>
 800a69c:	4620      	mov	r0, r4
 800a69e:	4629      	mov	r1, r5
 800a6a0:	07f2      	lsls	r2, r6, #31
 800a6a2:	d504      	bpl.n	800a6ae <_dtoa_r+0x906>
 800a6a4:	e9d8 2300 	ldrd	r2, r3, [r8]
 800a6a8:	f7f5 ff26 	bl	80004f8 <__aeabi_dmul>
 800a6ac:	3701      	adds	r7, #1
 800a6ae:	1076      	asrs	r6, r6, #1
 800a6b0:	f108 0808 	add.w	r8, r8, #8
 800a6b4:	d1f4      	bne.n	800a6a0 <_dtoa_r+0x8f8>
 800a6b6:	4604      	mov	r4, r0
 800a6b8:	460d      	mov	r5, r1
 800a6ba:	4650      	mov	r0, sl
 800a6bc:	4659      	mov	r1, fp
 800a6be:	4622      	mov	r2, r4
 800a6c0:	462b      	mov	r3, r5
 800a6c2:	f7f6 f843 	bl	800074c <__aeabi_ddiv>
 800a6c6:	4682      	mov	sl, r0
 800a6c8:	468b      	mov	fp, r1
 800a6ca:	9910      	ldr	r1, [sp, #64]	; 0x40
 800a6cc:	b151      	cbz	r1, 800a6e4 <_dtoa_r+0x93c>
 800a6ce:	2300      	movs	r3, #0
 800a6d0:	4650      	mov	r0, sl
 800a6d2:	4659      	mov	r1, fp
 800a6d4:	2200      	movs	r2, #0
 800a6d6:	f6c3 73f0 	movt	r3, #16368	; 0x3ff0
 800a6da:	f7f6 f97f 	bl	80009dc <__aeabi_dcmplt>
 800a6de:	2800      	cmp	r0, #0
 800a6e0:	f040 8422 	bne.w	800af28 <_dtoa_r+0x1180>
 800a6e4:	4638      	mov	r0, r7
 800a6e6:	f7f5 fea1 	bl	800042c <__aeabi_i2d>
 800a6ea:	4652      	mov	r2, sl
 800a6ec:	465b      	mov	r3, fp
 800a6ee:	f7f5 ff03 	bl	80004f8 <__aeabi_dmul>
 800a6f2:	2300      	movs	r3, #0
 800a6f4:	2200      	movs	r2, #0
 800a6f6:	f2c4 031c 	movt	r3, #16412	; 0x401c
 800a6fa:	f7f5 fd4b 	bl	8000194 <__adddf3>
 800a6fe:	9a09      	ldr	r2, [sp, #36]	; 0x24
 800a700:	4604      	mov	r4, r0
 800a702:	f1a1 7550 	sub.w	r5, r1, #54525952	; 0x3400000
 800a706:	2a00      	cmp	r2, #0
 800a708:	f000 8276 	beq.w	800abf8 <_dtoa_r+0xe50>
 800a70c:	9e06      	ldr	r6, [sp, #24]
 800a70e:	9619      	str	r6, [sp, #100]	; 0x64
 800a710:	9e09      	ldr	r6, [sp, #36]	; 0x24
 800a712:	980d      	ldr	r0, [sp, #52]	; 0x34
 800a714:	2800      	cmp	r0, #0
 800a716:	f000 8337 	beq.w	800ad88 <_dtoa_r+0xfe0>
 800a71a:	4a6d      	ldr	r2, [pc, #436]	; (800a8d0 <_dtoa_r+0xb28>)
 800a71c:	2100      	movs	r1, #0
 800a71e:	eb02 03c6 	add.w	r3, r2, r6, lsl #3
 800a722:	e953 2302 	ldrd	r2, r3, [r3, #-8]
 800a726:	2000      	movs	r0, #0
 800a728:	f6c3 71e0 	movt	r1, #16352	; 0x3fe0
 800a72c:	f7f6 f80e 	bl	800074c <__aeabi_ddiv>
 800a730:	4622      	mov	r2, r4
 800a732:	462b      	mov	r3, r5
 800a734:	f7f5 fd2c 	bl	8000190 <__aeabi_dsub>
 800a738:	e9cd 0116 	strd	r0, r1, [sp, #88]	; 0x58
 800a73c:	4659      	mov	r1, fp
 800a73e:	4650      	mov	r0, sl
 800a740:	f7f6 f974 	bl	8000a2c <__aeabi_d2iz>
 800a744:	4604      	mov	r4, r0
 800a746:	f7f5 fe71 	bl	800042c <__aeabi_i2d>
 800a74a:	4602      	mov	r2, r0
 800a74c:	460b      	mov	r3, r1
 800a74e:	4650      	mov	r0, sl
 800a750:	4659      	mov	r1, fp
 800a752:	f7f5 fd1d 	bl	8000190 <__aeabi_dsub>
 800a756:	3430      	adds	r4, #48	; 0x30
 800a758:	f8dd 8010 	ldr.w	r8, [sp, #16]
 800a75c:	e9cd 0114 	strd	r0, r1, [sp, #80]	; 0x50
 800a760:	fa5f fb84 	uxtb.w	fp, r4
 800a764:	f808 bb01 	strb.w	fp, [r8], #1
 800a768:	e9dd 0116 	ldrd	r0, r1, [sp, #88]	; 0x58
 800a76c:	e9dd 2314 	ldrd	r2, r3, [sp, #80]	; 0x50
 800a770:	f7f6 f952 	bl	8000a18 <__aeabi_dcmpgt>
 800a774:	2800      	cmp	r0, #0
 800a776:	f040 812f 	bne.w	800a9d8 <_dtoa_r+0xc30>
 800a77a:	2100      	movs	r1, #0
 800a77c:	e9dd 2314 	ldrd	r2, r3, [sp, #80]	; 0x50
 800a780:	2000      	movs	r0, #0
 800a782:	f6c3 71f0 	movt	r1, #16368	; 0x3ff0
 800a786:	f7f5 fd03 	bl	8000190 <__aeabi_dsub>
 800a78a:	4602      	mov	r2, r0
 800a78c:	460b      	mov	r3, r1
 800a78e:	e9dd 0116 	ldrd	r0, r1, [sp, #88]	; 0x58
 800a792:	f7f6 f941 	bl	8000a18 <__aeabi_dcmpgt>
 800a796:	2800      	cmp	r0, #0
 800a798:	f040 840d 	bne.w	800afb6 <_dtoa_r+0x120e>
 800a79c:	2e01      	cmp	r6, #1
 800a79e:	f340 829f 	ble.w	800ace0 <_dtoa_r+0xf38>
 800a7a2:	9c04      	ldr	r4, [sp, #16]
 800a7a4:	ea6f 0708 	mvn.w	r7, r8
 800a7a8:	19a6      	adds	r6, r4, r6
 800a7aa:	19bd      	adds	r5, r7, r6
 800a7ac:	2300      	movs	r3, #0
 800a7ae:	f005 0701 	and.w	r7, r5, #1
 800a7b2:	2200      	movs	r2, #0
 800a7b4:	f2c4 0324 	movt	r3, #16420	; 0x4024
 800a7b8:	e9dd 0116 	ldrd	r0, r1, [sp, #88]	; 0x58
 800a7bc:	9618      	str	r6, [sp, #96]	; 0x60
 800a7be:	9716      	str	r7, [sp, #88]	; 0x58
 800a7c0:	f7f5 fe9a 	bl	80004f8 <__aeabi_dmul>
 800a7c4:	2300      	movs	r3, #0
 800a7c6:	2200      	movs	r2, #0
 800a7c8:	f2c4 0324 	movt	r3, #16420	; 0x4024
 800a7cc:	4604      	mov	r4, r0
 800a7ce:	460d      	mov	r5, r1
 800a7d0:	e9dd 0114 	ldrd	r0, r1, [sp, #80]	; 0x50
 800a7d4:	f7f5 fe90 	bl	80004f8 <__aeabi_dmul>
 800a7d8:	460f      	mov	r7, r1
 800a7da:	4606      	mov	r6, r0
 800a7dc:	f7f6 f926 	bl	8000a2c <__aeabi_d2iz>
 800a7e0:	4683      	mov	fp, r0
 800a7e2:	f7f5 fe23 	bl	800042c <__aeabi_i2d>
 800a7e6:	4602      	mov	r2, r0
 800a7e8:	460b      	mov	r3, r1
 800a7ea:	4630      	mov	r0, r6
 800a7ec:	4639      	mov	r1, r7
 800a7ee:	f7f5 fccf 	bl	8000190 <__aeabi_dsub>
 800a7f2:	46c2      	mov	sl, r8
 800a7f4:	f10b 0230 	add.w	r2, fp, #48	; 0x30
 800a7f8:	fa5f fb82 	uxtb.w	fp, r2
 800a7fc:	f80a bb01 	strb.w	fp, [sl], #1
 800a800:	4622      	mov	r2, r4
 800a802:	462b      	mov	r3, r5
 800a804:	4606      	mov	r6, r0
 800a806:	460f      	mov	r7, r1
 800a808:	46d0      	mov	r8, sl
 800a80a:	f7f6 f8e7 	bl	80009dc <__aeabi_dcmplt>
 800a80e:	2800      	cmp	r0, #0
 800a810:	f040 80e2 	bne.w	800a9d8 <_dtoa_r+0xc30>
 800a814:	2100      	movs	r1, #0
 800a816:	4632      	mov	r2, r6
 800a818:	463b      	mov	r3, r7
 800a81a:	2000      	movs	r0, #0
 800a81c:	f6c3 71f0 	movt	r1, #16368	; 0x3ff0
 800a820:	f7f5 fcb6 	bl	8000190 <__aeabi_dsub>
 800a824:	4622      	mov	r2, r4
 800a826:	462b      	mov	r3, r5
 800a828:	f7f6 f8d8 	bl	80009dc <__aeabi_dcmplt>
 800a82c:	2800      	cmp	r0, #0
 800a82e:	f040 83c2 	bne.w	800afb6 <_dtoa_r+0x120e>
 800a832:	9918      	ldr	r1, [sp, #96]	; 0x60
 800a834:	458a      	cmp	sl, r1
 800a836:	f000 8253 	beq.w	800ace0 <_dtoa_r+0xf38>
 800a83a:	9816      	ldr	r0, [sp, #88]	; 0x58
 800a83c:	2800      	cmp	r0, #0
 800a83e:	d042      	beq.n	800a8c6 <_dtoa_r+0xb1e>
 800a840:	2300      	movs	r3, #0
 800a842:	2200      	movs	r2, #0
 800a844:	f2c4 0324 	movt	r3, #16420	; 0x4024
 800a848:	4620      	mov	r0, r4
 800a84a:	4629      	mov	r1, r5
 800a84c:	f7f5 fe54 	bl	80004f8 <__aeabi_dmul>
 800a850:	2300      	movs	r3, #0
 800a852:	2200      	movs	r2, #0
 800a854:	f2c4 0324 	movt	r3, #16420	; 0x4024
 800a858:	4604      	mov	r4, r0
 800a85a:	460d      	mov	r5, r1
 800a85c:	4630      	mov	r0, r6
 800a85e:	4639      	mov	r1, r7
 800a860:	f7f5 fe4a 	bl	80004f8 <__aeabi_dmul>
 800a864:	460f      	mov	r7, r1
 800a866:	4606      	mov	r6, r0
 800a868:	f7f6 f8e0 	bl	8000a2c <__aeabi_d2iz>
 800a86c:	4680      	mov	r8, r0
 800a86e:	f7f5 fddd 	bl	800042c <__aeabi_i2d>
 800a872:	4602      	mov	r2, r0
 800a874:	460b      	mov	r3, r1
 800a876:	4630      	mov	r0, r6
 800a878:	4639      	mov	r1, r7
 800a87a:	f7f5 fc89 	bl	8000190 <__aeabi_dsub>
 800a87e:	f108 0330 	add.w	r3, r8, #48	; 0x30
 800a882:	fa5f fb83 	uxtb.w	fp, r3
 800a886:	f80a bb01 	strb.w	fp, [sl], #1
 800a88a:	4622      	mov	r2, r4
 800a88c:	462b      	mov	r3, r5
 800a88e:	4606      	mov	r6, r0
 800a890:	460f      	mov	r7, r1
 800a892:	46d0      	mov	r8, sl
 800a894:	f7f6 f8a2 	bl	80009dc <__aeabi_dcmplt>
 800a898:	2800      	cmp	r0, #0
 800a89a:	f040 809d 	bne.w	800a9d8 <_dtoa_r+0xc30>
 800a89e:	2100      	movs	r1, #0
 800a8a0:	4632      	mov	r2, r6
 800a8a2:	463b      	mov	r3, r7
 800a8a4:	2000      	movs	r0, #0
 800a8a6:	f6c3 71f0 	movt	r1, #16368	; 0x3ff0
 800a8aa:	f7f5 fc71 	bl	8000190 <__aeabi_dsub>
 800a8ae:	4622      	mov	r2, r4
 800a8b0:	462b      	mov	r3, r5
 800a8b2:	f7f6 f893 	bl	80009dc <__aeabi_dcmplt>
 800a8b6:	2800      	cmp	r0, #0
 800a8b8:	f040 837d 	bne.w	800afb6 <_dtoa_r+0x120e>
 800a8bc:	f8dd e060 	ldr.w	lr, [sp, #96]	; 0x60
 800a8c0:	45f2      	cmp	sl, lr
 800a8c2:	f000 820d 	beq.w	800ace0 <_dtoa_r+0xf38>
 800a8c6:	f8cd 9050 	str.w	r9, [sp, #80]	; 0x50
 800a8ca:	f8dd 9060 	ldr.w	r9, [sp, #96]	; 0x60
 800a8ce:	e050      	b.n	800a972 <_dtoa_r+0xbca>
 800a8d0:	0800f9e8 	.word	0x0800f9e8
 800a8d4:	0800fab0 	.word	0x0800fab0
 800a8d8:	2100      	movs	r1, #0
 800a8da:	2000      	movs	r0, #0
 800a8dc:	f6c3 71f0 	movt	r1, #16368	; 0x3ff0
 800a8e0:	f7f5 fc56 	bl	8000190 <__aeabi_dsub>
 800a8e4:	4622      	mov	r2, r4
 800a8e6:	462b      	mov	r3, r5
 800a8e8:	f7f6 f878 	bl	80009dc <__aeabi_dcmplt>
 800a8ec:	2300      	movs	r3, #0
 800a8ee:	2200      	movs	r2, #0
 800a8f0:	f2c4 0324 	movt	r3, #16420	; 0x4024
 800a8f4:	2800      	cmp	r0, #0
 800a8f6:	f040 835c 	bne.w	800afb2 <_dtoa_r+0x120a>
 800a8fa:	4620      	mov	r0, r4
 800a8fc:	4629      	mov	r1, r5
 800a8fe:	f7f5 fdfb 	bl	80004f8 <__aeabi_dmul>
 800a902:	2300      	movs	r3, #0
 800a904:	2200      	movs	r2, #0
 800a906:	f2c4 0324 	movt	r3, #16420	; 0x4024
 800a90a:	4604      	mov	r4, r0
 800a90c:	460d      	mov	r5, r1
 800a90e:	4630      	mov	r0, r6
 800a910:	4639      	mov	r1, r7
 800a912:	f7f5 fdf1 	bl	80004f8 <__aeabi_dmul>
 800a916:	460f      	mov	r7, r1
 800a918:	4606      	mov	r6, r0
 800a91a:	f7f6 f887 	bl	8000a2c <__aeabi_d2iz>
 800a91e:	4680      	mov	r8, r0
 800a920:	f7f5 fd84 	bl	800042c <__aeabi_i2d>
 800a924:	4602      	mov	r2, r0
 800a926:	460b      	mov	r3, r1
 800a928:	4630      	mov	r0, r6
 800a92a:	4639      	mov	r1, r7
 800a92c:	f7f5 fc30 	bl	8000190 <__aeabi_dsub>
 800a930:	f108 0330 	add.w	r3, r8, #48	; 0x30
 800a934:	fa5f fb83 	uxtb.w	fp, r3
 800a938:	f80a bb01 	strb.w	fp, [sl], #1
 800a93c:	4622      	mov	r2, r4
 800a93e:	462b      	mov	r3, r5
 800a940:	4606      	mov	r6, r0
 800a942:	460f      	mov	r7, r1
 800a944:	f7f6 f84a 	bl	80009dc <__aeabi_dcmplt>
 800a948:	46d0      	mov	r8, sl
 800a94a:	4632      	mov	r2, r6
 800a94c:	463b      	mov	r3, r7
 800a94e:	2800      	cmp	r0, #0
 800a950:	d140      	bne.n	800a9d4 <_dtoa_r+0xc2c>
 800a952:	2100      	movs	r1, #0
 800a954:	2000      	movs	r0, #0
 800a956:	f6c3 71f0 	movt	r1, #16368	; 0x3ff0
 800a95a:	f7f5 fc19 	bl	8000190 <__aeabi_dsub>
 800a95e:	4622      	mov	r2, r4
 800a960:	462b      	mov	r3, r5
 800a962:	f7f6 f83b 	bl	80009dc <__aeabi_dcmplt>
 800a966:	2800      	cmp	r0, #0
 800a968:	f040 8323 	bne.w	800afb2 <_dtoa_r+0x120a>
 800a96c:	45ca      	cmp	sl, r9
 800a96e:	f000 81b5 	beq.w	800acdc <_dtoa_r+0xf34>
 800a972:	2300      	movs	r3, #0
 800a974:	4620      	mov	r0, r4
 800a976:	4629      	mov	r1, r5
 800a978:	2200      	movs	r2, #0
 800a97a:	f2c4 0324 	movt	r3, #16420	; 0x4024
 800a97e:	f7f5 fdbb 	bl	80004f8 <__aeabi_dmul>
 800a982:	2300      	movs	r3, #0
 800a984:	2200      	movs	r2, #0
 800a986:	f2c4 0324 	movt	r3, #16420	; 0x4024
 800a98a:	4604      	mov	r4, r0
 800a98c:	460d      	mov	r5, r1
 800a98e:	4630      	mov	r0, r6
 800a990:	4639      	mov	r1, r7
 800a992:	f7f5 fdb1 	bl	80004f8 <__aeabi_dmul>
 800a996:	460f      	mov	r7, r1
 800a998:	4606      	mov	r6, r0
 800a99a:	f7f6 f847 	bl	8000a2c <__aeabi_d2iz>
 800a99e:	4683      	mov	fp, r0
 800a9a0:	f7f5 fd44 	bl	800042c <__aeabi_i2d>
 800a9a4:	4602      	mov	r2, r0
 800a9a6:	460b      	mov	r3, r1
 800a9a8:	4630      	mov	r0, r6
 800a9aa:	4639      	mov	r1, r7
 800a9ac:	f7f5 fbf0 	bl	8000190 <__aeabi_dsub>
 800a9b0:	46d0      	mov	r8, sl
 800a9b2:	f10b 0230 	add.w	r2, fp, #48	; 0x30
 800a9b6:	fa5f fb82 	uxtb.w	fp, r2
 800a9ba:	f808 bb01 	strb.w	fp, [r8], #1
 800a9be:	4622      	mov	r2, r4
 800a9c0:	462b      	mov	r3, r5
 800a9c2:	4606      	mov	r6, r0
 800a9c4:	460f      	mov	r7, r1
 800a9c6:	f7f6 f809 	bl	80009dc <__aeabi_dcmplt>
 800a9ca:	46c2      	mov	sl, r8
 800a9cc:	4632      	mov	r2, r6
 800a9ce:	463b      	mov	r3, r7
 800a9d0:	2800      	cmp	r0, #0
 800a9d2:	d081      	beq.n	800a8d8 <_dtoa_r+0xb30>
 800a9d4:	f8dd 9050 	ldr.w	r9, [sp, #80]	; 0x50
 800a9d8:	9819      	ldr	r0, [sp, #100]	; 0x64
 800a9da:	9006      	str	r0, [sp, #24]
 800a9dc:	e406      	b.n	800a1ec <_dtoa_r+0x444>
 800a9de:	2400      	movs	r4, #0
 800a9e0:	940d      	str	r4, [sp, #52]	; 0x34
 800a9e2:	9b05      	ldr	r3, [sp, #20]
 800a9e4:	f8dd e018 	ldr.w	lr, [sp, #24]
 800a9e8:	eb03 040e 	add.w	r4, r3, lr
 800a9ec:	9411      	str	r4, [sp, #68]	; 0x44
 800a9ee:	3401      	adds	r4, #1
 800a9f0:	2c00      	cmp	r4, #0
 800a9f2:	9409      	str	r4, [sp, #36]	; 0x24
 800a9f4:	f73f ae16 	bgt.w	800a624 <_dtoa_r+0x87c>
 800a9f8:	2100      	movs	r1, #0
 800a9fa:	f8c9 1044 	str.w	r1, [r9, #68]	; 0x44
 800a9fe:	e621      	b.n	800a644 <_dtoa_r+0x89c>
 800aa00:	2201      	movs	r2, #1
 800aa02:	920d      	str	r2, [sp, #52]	; 0x34
 800aa04:	e7ed      	b.n	800a9e2 <_dtoa_r+0xc3a>
 800aa06:	2000      	movs	r0, #0
 800aa08:	900d      	str	r0, [sp, #52]	; 0x34
 800aa0a:	e604      	b.n	800a616 <_dtoa_r+0x86e>
 800aa0c:	9a09      	ldr	r2, [sp, #36]	; 0x24
 800aa0e:	2a00      	cmp	r2, #0
 800aa10:	f73f aafb 	bgt.w	800a00a <_dtoa_r+0x262>
 800aa14:	f040 82e9 	bne.w	800afea <_dtoa_r+0x1242>
 800aa18:	2300      	movs	r3, #0
 800aa1a:	2200      	movs	r2, #0
 800aa1c:	f2c4 0314 	movt	r3, #16404	; 0x4014
 800aa20:	e9dd 0102 	ldrd	r0, r1, [sp, #8]
 800aa24:	f7f5 fd68 	bl	80004f8 <__aeabi_dmul>
 800aa28:	4652      	mov	r2, sl
 800aa2a:	465b      	mov	r3, fp
 800aa2c:	f7f5 ffea 	bl	8000a04 <__aeabi_dcmpge>
 800aa30:	9f09      	ldr	r7, [sp, #36]	; 0x24
 800aa32:	970b      	str	r7, [sp, #44]	; 0x2c
 800aa34:	2800      	cmp	r0, #0
 800aa36:	f000 80b8 	beq.w	800abaa <_dtoa_r+0xe02>
 800aa3a:	9a05      	ldr	r2, [sp, #20]
 800aa3c:	f8dd 8010 	ldr.w	r8, [sp, #16]
 800aa40:	43d5      	mvns	r5, r2
 800aa42:	9506      	str	r5, [sp, #24]
 800aa44:	4648      	mov	r0, r9
 800aa46:	4639      	mov	r1, r7
 800aa48:	f000 fcc0 	bl	800b3cc <_Bfree>
 800aa4c:	9b0b      	ldr	r3, [sp, #44]	; 0x2c
 800aa4e:	2b00      	cmp	r3, #0
 800aa50:	f43f abcc 	beq.w	800a1ec <_dtoa_r+0x444>
 800aa54:	4648      	mov	r0, r9
 800aa56:	990b      	ldr	r1, [sp, #44]	; 0x2c
 800aa58:	f000 fcb8 	bl	800b3cc <_Bfree>
 800aa5c:	f7ff bbc6 	b.w	800a1ec <_dtoa_r+0x444>
 800aa60:	4648      	mov	r0, r9
 800aa62:	990a      	ldr	r1, [sp, #40]	; 0x28
 800aa64:	f000 fef6 	bl	800b854 <__pow5mult>
 800aa68:	900a      	str	r0, [sp, #40]	; 0x28
 800aa6a:	e44e      	b.n	800a30a <_dtoa_r+0x562>
 800aa6c:	9d0b      	ldr	r5, [sp, #44]	; 0x2c
 800aa6e:	2d00      	cmp	r5, #0
 800aa70:	f000 824b 	beq.w	800af0a <_dtoa_r+0x1162>
 800aa74:	f203 4733 	addw	r7, r3, #1075	; 0x433
 800aa78:	9d0e      	ldr	r5, [sp, #56]	; 0x38
 800aa7a:	9c0c      	ldr	r4, [sp, #48]	; 0x30
 800aa7c:	e40b      	b.n	800a296 <_dtoa_r+0x4ee>
 800aa7e:	4611      	mov	r1, r2
 800aa80:	4650      	mov	r0, sl
 800aa82:	f8cd c000 	str.w	ip, [sp]
 800aa86:	9201      	str	r2, [sp, #4]
 800aa88:	f000 fff2 	bl	800ba70 <__mcmp>
 800aa8c:	9a01      	ldr	r2, [sp, #4]
 800aa8e:	4603      	mov	r3, r0
 800aa90:	4611      	mov	r1, r2
 800aa92:	4648      	mov	r0, r9
 800aa94:	9301      	str	r3, [sp, #4]
 800aa96:	f000 fc99 	bl	800b3cc <_Bfree>
 800aa9a:	9801      	ldr	r0, [sp, #4]
 800aa9c:	f8dd c000 	ldr.w	ip, [sp]
 800aaa0:	2800      	cmp	r0, #0
 800aaa2:	f47f ad6e 	bne.w	800a582 <_dtoa_r+0x7da>
 800aaa6:	9902      	ldr	r1, [sp, #8]
 800aaa8:	2900      	cmp	r1, #0
 800aaaa:	f47f ad6a 	bne.w	800a582 <_dtoa_r+0x7da>
 800aaae:	9b09      	ldr	r3, [sp, #36]	; 0x24
 800aab0:	2b00      	cmp	r3, #0
 800aab2:	f47f ad66 	bne.w	800a582 <_dtoa_r+0x7da>
 800aab6:	f1bc 0f39 	cmp.w	ip, #57	; 0x39
 800aaba:	f8cd a028 	str.w	sl, [sp, #40]	; 0x28
 800aabe:	46da      	mov	sl, fp
 800aac0:	46e3      	mov	fp, ip
 800aac2:	f000 80f5 	beq.w	800acb0 <_dtoa_r+0xf08>
 800aac6:	f1ba 0f00 	cmp.w	sl, #0
 800aaca:	dd01      	ble.n	800aad0 <_dtoa_r+0xd28>
 800aacc:	f108 0b31 	add.w	fp, r8, #49	; 0x31
 800aad0:	f8dd 8014 	ldr.w	r8, [sp, #20]
 800aad4:	960b      	str	r6, [sp, #44]	; 0x2c
 800aad6:	f808 bb01 	strb.w	fp, [r8], #1
 800aada:	e4c9      	b.n	800a470 <_dtoa_r+0x6c8>
 800aadc:	4629      	mov	r1, r5
 800aade:	4648      	mov	r0, r9
 800aae0:	220a      	movs	r2, #10
 800aae2:	2300      	movs	r3, #0
 800aae4:	f000 fc7c 	bl	800b3e0 <__multadd>
 800aae8:	3401      	adds	r4, #1
 800aaea:	4605      	mov	r5, r0
 800aaec:	4606      	mov	r6, r0
 800aaee:	e527      	b.n	800a540 <_dtoa_r+0x798>
 800aaf0:	980a      	ldr	r0, [sp, #40]	; 0x28
 800aaf2:	4639      	mov	r1, r7
 800aaf4:	f7fe ffe2 	bl	8009abc <quorem>
 800aaf8:	9b09      	ldr	r3, [sp, #36]	; 0x24
 800aafa:	f8dd c010 	ldr.w	ip, [sp, #16]
 800aafe:	2501      	movs	r5, #1
 800ab00:	f100 0b30 	add.w	fp, r0, #48	; 0x30
 800ab04:	42ab      	cmp	r3, r5
 800ab06:	f88c b000 	strb.w	fp, [ip]
 800ab0a:	f77f ac75 	ble.w	800a3f8 <_dtoa_r+0x650>
 800ab0e:	4648      	mov	r0, r9
 800ab10:	990a      	ldr	r1, [sp, #40]	; 0x28
 800ab12:	9b0d      	ldr	r3, [sp, #52]	; 0x34
 800ab14:	220a      	movs	r2, #10
 800ab16:	f000 fc63 	bl	800b3e0 <__multadd>
 800ab1a:	f8dd a024 	ldr.w	sl, [sp, #36]	; 0x24
 800ab1e:	900a      	str	r0, [sp, #40]	; 0x28
 800ab20:	4606      	mov	r6, r0
 800ab22:	f8dd 8010 	ldr.w	r8, [sp, #16]
 800ab26:	e457      	b.n	800a3d8 <_dtoa_r+0x630>
 800ab28:	9b06      	ldr	r3, [sp, #24]
 800ab2a:	9a04      	ldr	r2, [sp, #16]
 800ab2c:	1c58      	adds	r0, r3, #1
 800ab2e:	2131      	movs	r1, #49	; 0x31
 800ab30:	9006      	str	r0, [sp, #24]
 800ab32:	7011      	strb	r1, [r2, #0]
 800ab34:	e49c      	b.n	800a470 <_dtoa_r+0x6c8>
 800ab36:	980a      	ldr	r0, [sp, #40]	; 0x28
 800ab38:	4639      	mov	r1, r7
 800ab3a:	f000 ff99 	bl	800ba70 <__mcmp>
 800ab3e:	2800      	cmp	r0, #0
 800ab40:	f6bf ac27 	bge.w	800a392 <_dtoa_r+0x5ea>
 800ab44:	220a      	movs	r2, #10
 800ab46:	4648      	mov	r0, r9
 800ab48:	990a      	ldr	r1, [sp, #40]	; 0x28
 800ab4a:	2300      	movs	r3, #0
 800ab4c:	f000 fc48 	bl	800b3e0 <__multadd>
 800ab50:	f8dd e018 	ldr.w	lr, [sp, #24]
 800ab54:	9a0d      	ldr	r2, [sp, #52]	; 0x34
 800ab56:	900a      	str	r0, [sp, #40]	; 0x28
 800ab58:	f10e 38ff 	add.w	r8, lr, #4294967295
 800ab5c:	f8cd 8018 	str.w	r8, [sp, #24]
 800ab60:	2a00      	cmp	r2, #0
 800ab62:	f040 8237 	bne.w	800afd4 <_dtoa_r+0x122c>
 800ab66:	9911      	ldr	r1, [sp, #68]	; 0x44
 800ab68:	9109      	str	r1, [sp, #36]	; 0x24
 800ab6a:	e412      	b.n	800a392 <_dtoa_r+0x5ea>
 800ab6c:	693a      	ldr	r2, [r7, #16]
 800ab6e:	eb07 0082 	add.w	r0, r7, r2, lsl #2
 800ab72:	6900      	ldr	r0, [r0, #16]
 800ab74:	f000 fcb0 	bl	800b4d8 <__hi0bits>
 800ab78:	f1c0 0120 	rsb	r1, r0, #32
 800ab7c:	f7ff bbdd 	b.w	800a33a <_dtoa_r+0x592>
 800ab80:	9a02      	ldr	r2, [sp, #8]
 800ab82:	2a02      	cmp	r2, #2
 800ab84:	f77f ac09 	ble.w	800a39a <_dtoa_r+0x5f2>
 800ab88:	2b00      	cmp	r3, #0
 800ab8a:	f47f af56 	bne.w	800aa3a <_dtoa_r+0xc92>
 800ab8e:	4639      	mov	r1, r7
 800ab90:	2205      	movs	r2, #5
 800ab92:	9b09      	ldr	r3, [sp, #36]	; 0x24
 800ab94:	4648      	mov	r0, r9
 800ab96:	f000 fc23 	bl	800b3e0 <__multadd>
 800ab9a:	4607      	mov	r7, r0
 800ab9c:	4639      	mov	r1, r7
 800ab9e:	980a      	ldr	r0, [sp, #40]	; 0x28
 800aba0:	f000 ff66 	bl	800ba70 <__mcmp>
 800aba4:	2800      	cmp	r0, #0
 800aba6:	f77f af48 	ble.w	800aa3a <_dtoa_r+0xc92>
 800abaa:	9806      	ldr	r0, [sp, #24]
 800abac:	f8dd 8010 	ldr.w	r8, [sp, #16]
 800abb0:	2331      	movs	r3, #49	; 0x31
 800abb2:	1c41      	adds	r1, r0, #1
 800abb4:	f808 3b01 	strb.w	r3, [r8], #1
 800abb8:	9106      	str	r1, [sp, #24]
 800abba:	e743      	b.n	800aa44 <_dtoa_r+0xc9c>
 800abbc:	f1bb 0f39 	cmp.w	fp, #57	; 0x39
 800abc0:	f108 31ff 	add.w	r1, r8, #4294967295
 800abc4:	f47f ab0e 	bne.w	800a1e4 <_dtoa_r+0x43c>
 800abc8:	f811 bc01 	ldrb.w	fp, [r1, #-1]
 800abcc:	9d04      	ldr	r5, [sp, #16]
 800abce:	4688      	mov	r8, r1
 800abd0:	f7ff baf0 	b.w	800a1b4 <_dtoa_r+0x40c>
 800abd4:	4638      	mov	r0, r7
 800abd6:	f7f5 fc29 	bl	800042c <__aeabi_i2d>
 800abda:	4602      	mov	r2, r0
 800abdc:	460b      	mov	r3, r1
 800abde:	4650      	mov	r0, sl
 800abe0:	4659      	mov	r1, fp
 800abe2:	f7f5 fc89 	bl	80004f8 <__aeabi_dmul>
 800abe6:	2300      	movs	r3, #0
 800abe8:	2200      	movs	r2, #0
 800abea:	f2c4 031c 	movt	r3, #16412	; 0x401c
 800abee:	f7f5 fad1 	bl	8000194 <__adddf3>
 800abf2:	4604      	mov	r4, r0
 800abf4:	f1a1 7550 	sub.w	r5, r1, #54525952	; 0x3400000
 800abf8:	2300      	movs	r3, #0
 800abfa:	2200      	movs	r2, #0
 800abfc:	f2c4 0314 	movt	r3, #16404	; 0x4014
 800ac00:	4650      	mov	r0, sl
 800ac02:	4659      	mov	r1, fp
 800ac04:	f7f5 fac4 	bl	8000190 <__aeabi_dsub>
 800ac08:	4622      	mov	r2, r4
 800ac0a:	462b      	mov	r3, r5
 800ac0c:	4682      	mov	sl, r0
 800ac0e:	468b      	mov	fp, r1
 800ac10:	f7f5 ff02 	bl	8000a18 <__aeabi_dcmpgt>
 800ac14:	4607      	mov	r7, r0
 800ac16:	2800      	cmp	r0, #0
 800ac18:	f040 816f 	bne.w	800aefa <_dtoa_r+0x1152>
 800ac1c:	4622      	mov	r2, r4
 800ac1e:	f105 4300 	add.w	r3, r5, #2147483648	; 0x80000000
 800ac22:	4650      	mov	r0, sl
 800ac24:	4659      	mov	r1, fp
 800ac26:	f7f5 fed9 	bl	80009dc <__aeabi_dcmplt>
 800ac2a:	2800      	cmp	r0, #0
 800ac2c:	d058      	beq.n	800ace0 <_dtoa_r+0xf38>
 800ac2e:	970b      	str	r7, [sp, #44]	; 0x2c
 800ac30:	e703      	b.n	800aa3a <_dtoa_r+0xc92>
 800ac32:	4648      	mov	r0, r9
 800ac34:	990a      	ldr	r1, [sp, #40]	; 0x28
 800ac36:	9a0e      	ldr	r2, [sp, #56]	; 0x38
 800ac38:	f000 fe0c 	bl	800b854 <__pow5mult>
 800ac3c:	900a      	str	r0, [sp, #40]	; 0x28
 800ac3e:	f7ff bb64 	b.w	800a30a <_dtoa_r+0x562>
 800ac42:	9806      	ldr	r0, [sp, #24]
 800ac44:	9d04      	ldr	r5, [sp, #16]
 800ac46:	1c41      	adds	r1, r0, #1
 800ac48:	9106      	str	r1, [sp, #24]
 800ac4a:	4629      	mov	r1, r5
 800ac4c:	2230      	movs	r2, #48	; 0x30
 800ac4e:	2331      	movs	r3, #49	; 0x31
 800ac50:	702a      	strb	r2, [r5, #0]
 800ac52:	700b      	strb	r3, [r1, #0]
 800ac54:	f7ff baca 	b.w	800a1ec <_dtoa_r+0x444>
 800ac58:	f8dd c038 	ldr.w	ip, [sp, #56]	; 0x38
 800ac5c:	990f      	ldr	r1, [sp, #60]	; 0x3c
 800ac5e:	970e      	str	r7, [sp, #56]	; 0x38
 800ac60:	ebcc 0507 	rsb	r5, ip, r7
 800ac64:	1948      	adds	r0, r1, r5
 800ac66:	900f      	str	r0, [sp, #60]	; 0x3c
 800ac68:	2500      	movs	r5, #0
 800ac6a:	f7ff bb0e 	b.w	800a28a <_dtoa_r+0x4e2>
 800ac6e:	e9dd ab12 	ldrd	sl, fp, [sp, #72]	; 0x48
 800ac72:	2702      	movs	r7, #2
 800ac74:	e50f      	b.n	800a696 <_dtoa_r+0x8ee>
 800ac76:	2401      	movs	r4, #1
 800ac78:	9411      	str	r4, [sp, #68]	; 0x44
 800ac7a:	9409      	str	r4, [sp, #36]	; 0x24
 800ac7c:	9405      	str	r4, [sp, #20]
 800ac7e:	e6bb      	b.n	800a9f8 <_dtoa_r+0xc50>
 800ac80:	2800      	cmp	r0, #0
 800ac82:	46e3      	mov	fp, ip
 800ac84:	f8cd a028 	str.w	sl, [sp, #40]	; 0x28
 800ac88:	4664      	mov	r4, ip
 800ac8a:	f77f af21 	ble.w	800aad0 <_dtoa_r+0xd28>
 800ac8e:	2201      	movs	r2, #1
 800ac90:	990a      	ldr	r1, [sp, #40]	; 0x28
 800ac92:	4648      	mov	r0, r9
 800ac94:	f000 fe28 	bl	800b8e8 <__lshift>
 800ac98:	4639      	mov	r1, r7
 800ac9a:	900a      	str	r0, [sp, #40]	; 0x28
 800ac9c:	f000 fee8 	bl	800ba70 <__mcmp>
 800aca0:	2800      	cmp	r0, #0
 800aca2:	f340 818c 	ble.w	800afbe <_dtoa_r+0x1216>
 800aca6:	2c39      	cmp	r4, #57	; 0x39
 800aca8:	f108 0b31 	add.w	fp, r8, #49	; 0x31
 800acac:	f47f af10 	bne.w	800aad0 <_dtoa_r+0xd28>
 800acb0:	f8dd 8014 	ldr.w	r8, [sp, #20]
 800acb4:	960b      	str	r6, [sp, #44]	; 0x2c
 800acb6:	2239      	movs	r2, #57	; 0x39
 800acb8:	f808 2b01 	strb.w	r2, [r8], #1
 800acbc:	f7ff bbb3 	b.w	800a426 <_dtoa_r+0x67e>
 800acc0:	d103      	bne.n	800acca <_dtoa_r+0xf22>
 800acc2:	f01b 0f01 	tst.w	fp, #1
 800acc6:	f47f abac 	bne.w	800a422 <_dtoa_r+0x67a>
 800acca:	4643      	mov	r3, r8
 800accc:	4698      	mov	r8, r3
 800acce:	3b01      	subs	r3, #1
 800acd0:	f818 2c01 	ldrb.w	r2, [r8, #-1]
 800acd4:	2a30      	cmp	r2, #48	; 0x30
 800acd6:	d0f9      	beq.n	800accc <_dtoa_r+0xf24>
 800acd8:	f7ff bbca 	b.w	800a470 <_dtoa_r+0x6c8>
 800acdc:	f8dd 9050 	ldr.w	r9, [sp, #80]	; 0x50
 800ace0:	e9dd ab12 	ldrd	sl, fp, [sp, #72]	; 0x48
 800ace4:	f7ff b97e 	b.w	8009fe4 <_dtoa_r+0x23c>
 800ace8:	9d06      	ldr	r5, [sp, #24]
 800acea:	426c      	negs	r4, r5
 800acec:	2c00      	cmp	r4, #0
 800acee:	f000 8116 	beq.w	800af1e <_dtoa_r+0x1176>
 800acf2:	4bb6      	ldr	r3, [pc, #728]	; (800afcc <_dtoa_r+0x1224>)
 800acf4:	f004 010f 	and.w	r1, r4, #15
 800acf8:	eb03 02c1 	add.w	r2, r3, r1, lsl #3
 800acfc:	e9d2 2300 	ldrd	r2, r3, [r2]
 800ad00:	e9dd 0112 	ldrd	r0, r1, [sp, #72]	; 0x48
 800ad04:	f7f5 fbf8 	bl	80004f8 <__aeabi_dmul>
 800ad08:	1124      	asrs	r4, r4, #4
 800ad0a:	4682      	mov	sl, r0
 800ad0c:	468b      	mov	fp, r1
 800ad0e:	f000 816e 	beq.w	800afee <_dtoa_r+0x1246>
 800ad12:	4daf      	ldr	r5, [pc, #700]	; (800afd0 <_dtoa_r+0x1228>)
 800ad14:	2702      	movs	r7, #2
 800ad16:	07e3      	lsls	r3, r4, #31
 800ad18:	d504      	bpl.n	800ad24 <_dtoa_r+0xf7c>
 800ad1a:	e9d5 2300 	ldrd	r2, r3, [r5]
 800ad1e:	f7f5 fbeb 	bl	80004f8 <__aeabi_dmul>
 800ad22:	3701      	adds	r7, #1
 800ad24:	3508      	adds	r5, #8
 800ad26:	1064      	asrs	r4, r4, #1
 800ad28:	d1f5      	bne.n	800ad16 <_dtoa_r+0xf6e>
 800ad2a:	4682      	mov	sl, r0
 800ad2c:	468b      	mov	fp, r1
 800ad2e:	e4cc      	b.n	800a6ca <_dtoa_r+0x922>
 800ad30:	9d0b      	ldr	r5, [sp, #44]	; 0x2c
 800ad32:	4648      	mov	r0, r9
 800ad34:	6869      	ldr	r1, [r5, #4]
 800ad36:	f000 fb23 	bl	800b380 <_Balloc>
 800ad3a:	6929      	ldr	r1, [r5, #16]
 800ad3c:	4604      	mov	r4, r0
 800ad3e:	1c88      	adds	r0, r1, #2
 800ad40:	4629      	mov	r1, r5
 800ad42:	0082      	lsls	r2, r0, #2
 800ad44:	310c      	adds	r1, #12
 800ad46:	f104 000c 	add.w	r0, r4, #12
 800ad4a:	f7fc fed3 	bl	8007af4 <memcpy>
 800ad4e:	4648      	mov	r0, r9
 800ad50:	4621      	mov	r1, r4
 800ad52:	2201      	movs	r2, #1
 800ad54:	f000 fdc8 	bl	800b8e8 <__lshift>
 800ad58:	4606      	mov	r6, r0
 800ad5a:	f7ff bbe5 	b.w	800a528 <_dtoa_r+0x780>
 800ad5e:	f1bc 0f39 	cmp.w	ip, #57	; 0x39
 800ad62:	46e3      	mov	fp, ip
 800ad64:	f8cd a028 	str.w	sl, [sp, #40]	; 0x28
 800ad68:	d0a2      	beq.n	800acb0 <_dtoa_r+0xf08>
 800ad6a:	f8dd 8014 	ldr.w	r8, [sp, #20]
 800ad6e:	960b      	str	r6, [sp, #44]	; 0x2c
 800ad70:	f10c 0e01 	add.w	lr, ip, #1
 800ad74:	f808 eb01 	strb.w	lr, [r8], #1
 800ad78:	f7ff bb7a 	b.w	800a470 <_dtoa_r+0x6c8>
 800ad7c:	46e3      	mov	fp, ip
 800ad7e:	f8cd a028 	str.w	sl, [sp, #40]	; 0x28
 800ad82:	960b      	str	r6, [sp, #44]	; 0x2c
 800ad84:	f7ff bb41 	b.w	800a40a <_dtoa_r+0x662>
 800ad88:	4990      	ldr	r1, [pc, #576]	; (800afcc <_dtoa_r+0x1224>)
 800ad8a:	1e73      	subs	r3, r6, #1
 800ad8c:	eb01 00c3 	add.w	r0, r1, r3, lsl #3
 800ad90:	4622      	mov	r2, r4
 800ad92:	9318      	str	r3, [sp, #96]	; 0x60
 800ad94:	e9d0 0100 	ldrd	r0, r1, [r0]
 800ad98:	462b      	mov	r3, r5
 800ad9a:	f7f5 fbad 	bl	80004f8 <__aeabi_dmul>
 800ad9e:	e9cd 0114 	strd	r0, r1, [sp, #80]	; 0x50
 800ada2:	4659      	mov	r1, fp
 800ada4:	4650      	mov	r0, sl
 800ada6:	f7f5 fe41 	bl	8000a2c <__aeabi_d2iz>
 800adaa:	4604      	mov	r4, r0
 800adac:	f7f5 fb3e 	bl	800042c <__aeabi_i2d>
 800adb0:	4602      	mov	r2, r0
 800adb2:	460b      	mov	r3, r1
 800adb4:	4650      	mov	r0, sl
 800adb6:	4659      	mov	r1, fp
 800adb8:	f7f5 f9ea 	bl	8000190 <__aeabi_dsub>
 800adbc:	f8dd 8010 	ldr.w	r8, [sp, #16]
 800adc0:	3430      	adds	r4, #48	; 0x30
 800adc2:	2e01      	cmp	r6, #1
 800adc4:	4682      	mov	sl, r0
 800adc6:	468b      	mov	fp, r1
 800adc8:	f808 4b01 	strb.w	r4, [r8], #1
 800adcc:	f000 8081 	beq.w	800aed2 <_dtoa_r+0x112a>
 800add0:	9c04      	ldr	r4, [sp, #16]
 800add2:	2300      	movs	r3, #0
 800add4:	1e67      	subs	r7, r4, #1
 800add6:	eb07 0a06 	add.w	sl, r7, r6
 800adda:	2200      	movs	r2, #0
 800addc:	f2c4 0324 	movt	r3, #16420	; 0x4024
 800ade0:	f8cd a000 	str.w	sl, [sp]
 800ade4:	f7f5 fb88 	bl	80004f8 <__aeabi_dmul>
 800ade8:	43e6      	mvns	r6, r4
 800adea:	460f      	mov	r7, r1
 800adec:	eb06 050a 	add.w	r5, r6, sl
 800adf0:	4606      	mov	r6, r0
 800adf2:	f7f5 fe1b 	bl	8000a2c <__aeabi_d2iz>
 800adf6:	4604      	mov	r4, r0
 800adf8:	f7f5 fb18 	bl	800042c <__aeabi_i2d>
 800adfc:	4602      	mov	r2, r0
 800adfe:	460b      	mov	r3, r1
 800ae00:	4630      	mov	r0, r6
 800ae02:	4639      	mov	r1, r7
 800ae04:	f7f5 f9c4 	bl	8000190 <__aeabi_dsub>
 800ae08:	f8dd c010 	ldr.w	ip, [sp, #16]
 800ae0c:	3430      	adds	r4, #48	; 0x30
 800ae0e:	f88c 4001 	strb.w	r4, [ip, #1]
 800ae12:	f8dd c000 	ldr.w	ip, [sp]
 800ae16:	45e0      	cmp	r8, ip
 800ae18:	f005 0501 	and.w	r5, r5, #1
 800ae1c:	4682      	mov	sl, r0
 800ae1e:	468b      	mov	fp, r1
 800ae20:	4647      	mov	r7, r8
 800ae22:	d054      	beq.n	800aece <_dtoa_r+0x1126>
 800ae24:	b1f5      	cbz	r5, 800ae64 <_dtoa_r+0x10bc>
 800ae26:	2300      	movs	r3, #0
 800ae28:	2200      	movs	r2, #0
 800ae2a:	f2c4 0324 	movt	r3, #16420	; 0x4024
 800ae2e:	f8cd c000 	str.w	ip, [sp]
 800ae32:	f7f5 fb61 	bl	80004f8 <__aeabi_dmul>
 800ae36:	468b      	mov	fp, r1
 800ae38:	4682      	mov	sl, r0
 800ae3a:	f7f5 fdf7 	bl	8000a2c <__aeabi_d2iz>
 800ae3e:	4604      	mov	r4, r0
 800ae40:	f7f5 faf4 	bl	800042c <__aeabi_i2d>
 800ae44:	4647      	mov	r7, r8
 800ae46:	4602      	mov	r2, r0
 800ae48:	460b      	mov	r3, r1
 800ae4a:	4650      	mov	r0, sl
 800ae4c:	4659      	mov	r1, fp
 800ae4e:	3430      	adds	r4, #48	; 0x30
 800ae50:	f7f5 f99e 	bl	8000190 <__aeabi_dsub>
 800ae54:	f807 4f01 	strb.w	r4, [r7, #1]!
 800ae58:	f8dd c000 	ldr.w	ip, [sp]
 800ae5c:	4567      	cmp	r7, ip
 800ae5e:	4682      	mov	sl, r0
 800ae60:	468b      	mov	fp, r1
 800ae62:	d034      	beq.n	800aece <_dtoa_r+0x1126>
 800ae64:	4650      	mov	r0, sl
 800ae66:	4659      	mov	r1, fp
 800ae68:	4666      	mov	r6, ip
 800ae6a:	2300      	movs	r3, #0
 800ae6c:	2200      	movs	r2, #0
 800ae6e:	f2c4 0324 	movt	r3, #16420	; 0x4024
 800ae72:	f7f5 fb41 	bl	80004f8 <__aeabi_dmul>
 800ae76:	460d      	mov	r5, r1
 800ae78:	4604      	mov	r4, r0
 800ae7a:	f7f5 fdd7 	bl	8000a2c <__aeabi_d2iz>
 800ae7e:	4682      	mov	sl, r0
 800ae80:	f7f5 fad4 	bl	800042c <__aeabi_i2d>
 800ae84:	4602      	mov	r2, r0
 800ae86:	460b      	mov	r3, r1
 800ae88:	4620      	mov	r0, r4
 800ae8a:	4629      	mov	r1, r5
 800ae8c:	f7f5 f980 	bl	8000190 <__aeabi_dsub>
 800ae90:	f10a 0430 	add.w	r4, sl, #48	; 0x30
 800ae94:	2300      	movs	r3, #0
 800ae96:	2200      	movs	r2, #0
 800ae98:	f2c4 0324 	movt	r3, #16420	; 0x4024
 800ae9c:	f807 4f01 	strb.w	r4, [r7, #1]!
 800aea0:	f7f5 fb2a 	bl	80004f8 <__aeabi_dmul>
 800aea4:	460d      	mov	r5, r1
 800aea6:	4604      	mov	r4, r0
 800aea8:	f7f5 fdc0 	bl	8000a2c <__aeabi_d2iz>
 800aeac:	4683      	mov	fp, r0
 800aeae:	f7f5 fabd 	bl	800042c <__aeabi_i2d>
 800aeb2:	4602      	mov	r2, r0
 800aeb4:	460b      	mov	r3, r1
 800aeb6:	4620      	mov	r0, r4
 800aeb8:	4629      	mov	r1, r5
 800aeba:	f7f5 f969 	bl	8000190 <__aeabi_dsub>
 800aebe:	f10b 0230 	add.w	r2, fp, #48	; 0x30
 800aec2:	f807 2f01 	strb.w	r2, [r7, #1]!
 800aec6:	42b7      	cmp	r7, r6
 800aec8:	d1cf      	bne.n	800ae6a <_dtoa_r+0x10c2>
 800aeca:	4682      	mov	sl, r0
 800aecc:	468b      	mov	fp, r1
 800aece:	9b18      	ldr	r3, [sp, #96]	; 0x60
 800aed0:	4498      	add	r8, r3
 800aed2:	2300      	movs	r3, #0
 800aed4:	2200      	movs	r2, #0
 800aed6:	f6c3 73e0 	movt	r3, #16352	; 0x3fe0
 800aeda:	e9dd 0114 	ldrd	r0, r1, [sp, #80]	; 0x50
 800aede:	f7f5 f959 	bl	8000194 <__adddf3>
 800aee2:	4652      	mov	r2, sl
 800aee4:	465b      	mov	r3, fp
 800aee6:	f7f5 fd79 	bl	80009dc <__aeabi_dcmplt>
 800aeea:	2800      	cmp	r0, #0
 800aeec:	d049      	beq.n	800af82 <_dtoa_r+0x11da>
 800aeee:	9d19      	ldr	r5, [sp, #100]	; 0x64
 800aef0:	f818 bc01 	ldrb.w	fp, [r8, #-1]
 800aef4:	9506      	str	r5, [sp, #24]
 800aef6:	f7ff b955 	b.w	800a1a4 <_dtoa_r+0x3fc>
 800aefa:	2700      	movs	r7, #0
 800aefc:	970b      	str	r7, [sp, #44]	; 0x2c
 800aefe:	e654      	b.n	800abaa <_dtoa_r+0xe02>
 800af00:	9a0c      	ldr	r2, [sp, #48]	; 0x30
 800af02:	2700      	movs	r7, #0
 800af04:	1b14      	subs	r4, r2, r4
 800af06:	f7ff b9c6 	b.w	800a296 <_dtoa_r+0x4ee>
 800af0a:	9b1a      	ldr	r3, [sp, #104]	; 0x68
 800af0c:	9d0e      	ldr	r5, [sp, #56]	; 0x38
 800af0e:	9c0c      	ldr	r4, [sp, #48]	; 0x30
 800af10:	f1c3 0736 	rsb	r7, r3, #54	; 0x36
 800af14:	f7ff b9bf 	b.w	800a296 <_dtoa_r+0x4ee>
 800af18:	4655      	mov	r5, sl
 800af1a:	f7ff ba09 	b.w	800a330 <_dtoa_r+0x588>
 800af1e:	e9dd ab12 	ldrd	sl, fp, [sp, #72]	; 0x48
 800af22:	2702      	movs	r7, #2
 800af24:	f7ff bbd1 	b.w	800a6ca <_dtoa_r+0x922>
 800af28:	9d09      	ldr	r5, [sp, #36]	; 0x24
 800af2a:	2d00      	cmp	r5, #0
 800af2c:	f43f ae52 	beq.w	800abd4 <_dtoa_r+0xe2c>
 800af30:	9b11      	ldr	r3, [sp, #68]	; 0x44
 800af32:	2b00      	cmp	r3, #0
 800af34:	f77f aed4 	ble.w	800ace0 <_dtoa_r+0xf38>
 800af38:	2300      	movs	r3, #0
 800af3a:	2200      	movs	r2, #0
 800af3c:	f2c4 0324 	movt	r3, #16420	; 0x4024
 800af40:	4650      	mov	r0, sl
 800af42:	4659      	mov	r1, fp
 800af44:	f7f5 fad8 	bl	80004f8 <__aeabi_dmul>
 800af48:	4682      	mov	sl, r0
 800af4a:	1c78      	adds	r0, r7, #1
 800af4c:	468b      	mov	fp, r1
 800af4e:	f7f5 fa6d 	bl	800042c <__aeabi_i2d>
 800af52:	4602      	mov	r2, r0
 800af54:	460b      	mov	r3, r1
 800af56:	4650      	mov	r0, sl
 800af58:	4659      	mov	r1, fp
 800af5a:	f7f5 facd 	bl	80004f8 <__aeabi_dmul>
 800af5e:	2300      	movs	r3, #0
 800af60:	2200      	movs	r2, #0
 800af62:	f2c4 031c 	movt	r3, #16412	; 0x401c
 800af66:	f7f5 f915 	bl	8000194 <__adddf3>
 800af6a:	f8dd c018 	ldr.w	ip, [sp, #24]
 800af6e:	9e11      	ldr	r6, [sp, #68]	; 0x44
 800af70:	f10c 3eff 	add.w	lr, ip, #4294967295
 800af74:	4604      	mov	r4, r0
 800af76:	f8cd e064 	str.w	lr, [sp, #100]	; 0x64
 800af7a:	f1a1 7550 	sub.w	r5, r1, #54525952	; 0x3400000
 800af7e:	f7ff bbc8 	b.w	800a712 <_dtoa_r+0x96a>
 800af82:	2100      	movs	r1, #0
 800af84:	e9dd 2314 	ldrd	r2, r3, [sp, #80]	; 0x50
 800af88:	2000      	movs	r0, #0
 800af8a:	f6c3 71e0 	movt	r1, #16352	; 0x3fe0
 800af8e:	f7f5 f8ff 	bl	8000190 <__aeabi_dsub>
 800af92:	4652      	mov	r2, sl
 800af94:	465b      	mov	r3, fp
 800af96:	f7f5 fd3f 	bl	8000a18 <__aeabi_dcmpgt>
 800af9a:	2800      	cmp	r0, #0
 800af9c:	f43f aea0 	beq.w	800ace0 <_dtoa_r+0xf38>
 800afa0:	4641      	mov	r1, r8
 800afa2:	4688      	mov	r8, r1
 800afa4:	f101 31ff 	add.w	r1, r1, #4294967295
 800afa8:	f818 0c01 	ldrb.w	r0, [r8, #-1]
 800afac:	2830      	cmp	r0, #48	; 0x30
 800afae:	d0f8      	beq.n	800afa2 <_dtoa_r+0x11fa>
 800afb0:	e512      	b.n	800a9d8 <_dtoa_r+0xc30>
 800afb2:	f8dd 9050 	ldr.w	r9, [sp, #80]	; 0x50
 800afb6:	9919      	ldr	r1, [sp, #100]	; 0x64
 800afb8:	9106      	str	r1, [sp, #24]
 800afba:	f7ff b8f3 	b.w	800a1a4 <_dtoa_r+0x3fc>
 800afbe:	f47f ad87 	bne.w	800aad0 <_dtoa_r+0xd28>
 800afc2:	f01b 0f01 	tst.w	fp, #1
 800afc6:	f43f ad83 	beq.w	800aad0 <_dtoa_r+0xd28>
 800afca:	e66c      	b.n	800aca6 <_dtoa_r+0xefe>
 800afcc:	0800f9e8 	.word	0x0800f9e8
 800afd0:	0800fab0 	.word	0x0800fab0
 800afd4:	4648      	mov	r0, r9
 800afd6:	990b      	ldr	r1, [sp, #44]	; 0x2c
 800afd8:	220a      	movs	r2, #10
 800afda:	2300      	movs	r3, #0
 800afdc:	f000 fa00 	bl	800b3e0 <__multadd>
 800afe0:	900b      	str	r0, [sp, #44]	; 0x2c
 800afe2:	9811      	ldr	r0, [sp, #68]	; 0x44
 800afe4:	9009      	str	r0, [sp, #36]	; 0x24
 800afe6:	f7ff b9d4 	b.w	800a392 <_dtoa_r+0x5ea>
 800afea:	2700      	movs	r7, #0
 800afec:	e61f      	b.n	800ac2e <_dtoa_r+0xe86>
 800afee:	2702      	movs	r7, #2
 800aff0:	f7ff bb6b 	b.w	800a6ca <_dtoa_r+0x922>
 800aff4:	2501      	movs	r5, #1
 800aff6:	f7fe bfbc 	b.w	8009f72 <_dtoa_r+0x1ca>
 800affa:	f43f a9b5 	beq.w	800a368 <_dtoa_r+0x5c0>
 800affe:	f1c0 033c 	rsb	r3, r0, #60	; 0x3c
 800b002:	f7ff ba70 	b.w	800a4e6 <_dtoa_r+0x73e>
 800b006:	bf00      	nop

0800b008 <_malloc_trim_r>:
 800b008:	b5f8      	push	{r3, r4, r5, r6, r7, lr}
 800b00a:	4d22      	ldr	r5, [pc, #136]	; (800b094 <_malloc_trim_r+0x8c>)
 800b00c:	460f      	mov	r7, r1
 800b00e:	4604      	mov	r4, r0
 800b010:	f7fc fea8 	bl	8007d64 <__malloc_lock>
 800b014:	68ab      	ldr	r3, [r5, #8]
 800b016:	685e      	ldr	r6, [r3, #4]
 800b018:	f026 0603 	bic.w	r6, r6, #3
 800b01c:	f606 70ef 	addw	r0, r6, #4079	; 0xfef
 800b020:	1bc1      	subs	r1, r0, r7
 800b022:	0b0a      	lsrs	r2, r1, #12
 800b024:	1e57      	subs	r7, r2, #1
 800b026:	033f      	lsls	r7, r7, #12
 800b028:	f5b7 5f80 	cmp.w	r7, #4096	; 0x1000
 800b02c:	db07      	blt.n	800b03e <_malloc_trim_r+0x36>
 800b02e:	2100      	movs	r1, #0
 800b030:	4620      	mov	r0, r4
 800b032:	f7fc fe9b 	bl	8007d6c <_sbrk_r>
 800b036:	68ab      	ldr	r3, [r5, #8]
 800b038:	1999      	adds	r1, r3, r6
 800b03a:	4288      	cmp	r0, r1
 800b03c:	d004      	beq.n	800b048 <_malloc_trim_r+0x40>
 800b03e:	4620      	mov	r0, r4
 800b040:	f7fc fe92 	bl	8007d68 <__malloc_unlock>
 800b044:	2000      	movs	r0, #0
 800b046:	bdf8      	pop	{r3, r4, r5, r6, r7, pc}
 800b048:	4279      	negs	r1, r7
 800b04a:	4620      	mov	r0, r4
 800b04c:	f7fc fe8e 	bl	8007d6c <_sbrk_r>
 800b050:	3001      	adds	r0, #1
 800b052:	d00d      	beq.n	800b070 <_malloc_trim_r+0x68>
 800b054:	4b10      	ldr	r3, [pc, #64]	; (800b098 <_malloc_trim_r+0x90>)
 800b056:	68a8      	ldr	r0, [r5, #8]
 800b058:	681a      	ldr	r2, [r3, #0]
 800b05a:	1bf6      	subs	r6, r6, r7
 800b05c:	f046 0601 	orr.w	r6, r6, #1
 800b060:	1bd7      	subs	r7, r2, r7
 800b062:	6046      	str	r6, [r0, #4]
 800b064:	4620      	mov	r0, r4
 800b066:	601f      	str	r7, [r3, #0]
 800b068:	f7fc fe7e 	bl	8007d68 <__malloc_unlock>
 800b06c:	2001      	movs	r0, #1
 800b06e:	bdf8      	pop	{r3, r4, r5, r6, r7, pc}
 800b070:	2100      	movs	r1, #0
 800b072:	4620      	mov	r0, r4
 800b074:	f7fc fe7a 	bl	8007d6c <_sbrk_r>
 800b078:	68ab      	ldr	r3, [r5, #8]
 800b07a:	1ac2      	subs	r2, r0, r3
 800b07c:	2a0f      	cmp	r2, #15
 800b07e:	ddde      	ble.n	800b03e <_malloc_trim_r+0x36>
 800b080:	4906      	ldr	r1, [pc, #24]	; (800b09c <_malloc_trim_r+0x94>)
 800b082:	6809      	ldr	r1, [r1, #0]
 800b084:	1a40      	subs	r0, r0, r1
 800b086:	4904      	ldr	r1, [pc, #16]	; (800b098 <_malloc_trim_r+0x90>)
 800b088:	f042 0201 	orr.w	r2, r2, #1
 800b08c:	6008      	str	r0, [r1, #0]
 800b08e:	605a      	str	r2, [r3, #4]
 800b090:	e7d5      	b.n	800b03e <_malloc_trim_r+0x36>
 800b092:	bf00      	nop
 800b094:	100005dc 	.word	0x100005dc
 800b098:	10000df8 	.word	0x10000df8
 800b09c:	100009e8 	.word	0x100009e8

0800b0a0 <_free_r>:
 800b0a0:	e92d 41f0 	stmdb	sp!, {r4, r5, r6, r7, r8, lr}
 800b0a4:	460d      	mov	r5, r1
 800b0a6:	4606      	mov	r6, r0
 800b0a8:	2900      	cmp	r1, #0
 800b0aa:	d055      	beq.n	800b158 <_free_r+0xb8>
 800b0ac:	f7fc fe5a 	bl	8007d64 <__malloc_lock>
 800b0b0:	f855 1c04 	ldr.w	r1, [r5, #-4]
 800b0b4:	f8df c16c 	ldr.w	ip, [pc, #364]	; 800b224 <_free_r+0x184>
 800b0b8:	f1a5 0408 	sub.w	r4, r5, #8
 800b0bc:	f021 0301 	bic.w	r3, r1, #1
 800b0c0:	18e2      	adds	r2, r4, r3
 800b0c2:	f8dc 0008 	ldr.w	r0, [ip, #8]
 800b0c6:	6857      	ldr	r7, [r2, #4]
 800b0c8:	4290      	cmp	r0, r2
 800b0ca:	f027 0703 	bic.w	r7, r7, #3
 800b0ce:	d065      	beq.n	800b19c <_free_r+0xfc>
 800b0d0:	f011 0101 	ands.w	r1, r1, #1
 800b0d4:	6057      	str	r7, [r2, #4]
 800b0d6:	d032      	beq.n	800b13e <_free_r+0x9e>
 800b0d8:	2100      	movs	r1, #0
 800b0da:	19d0      	adds	r0, r2, r7
 800b0dc:	6840      	ldr	r0, [r0, #4]
 800b0de:	07c0      	lsls	r0, r0, #31
 800b0e0:	d406      	bmi.n	800b0f0 <_free_r+0x50>
 800b0e2:	19db      	adds	r3, r3, r7
 800b0e4:	6890      	ldr	r0, [r2, #8]
 800b0e6:	2900      	cmp	r1, #0
 800b0e8:	d04a      	beq.n	800b180 <_free_r+0xe0>
 800b0ea:	68d2      	ldr	r2, [r2, #12]
 800b0ec:	60c2      	str	r2, [r0, #12]
 800b0ee:	6090      	str	r0, [r2, #8]
 800b0f0:	f043 0001 	orr.w	r0, r3, #1
 800b0f4:	6060      	str	r0, [r4, #4]
 800b0f6:	50e3      	str	r3, [r4, r3]
 800b0f8:	b9e1      	cbnz	r1, 800b134 <_free_r+0x94>
 800b0fa:	f5b3 7f00 	cmp.w	r3, #512	; 0x200
 800b0fe:	d32d      	bcc.n	800b15c <_free_r+0xbc>
 800b100:	0a5a      	lsrs	r2, r3, #9
 800b102:	2a04      	cmp	r2, #4
 800b104:	d866      	bhi.n	800b1d4 <_free_r+0x134>
 800b106:	0998      	lsrs	r0, r3, #6
 800b108:	3038      	adds	r0, #56	; 0x38
 800b10a:	0042      	lsls	r2, r0, #1
 800b10c:	eb0c 0e82 	add.w	lr, ip, r2, lsl #2
 800b110:	4944      	ldr	r1, [pc, #272]	; (800b224 <_free_r+0x184>)
 800b112:	f8de 2008 	ldr.w	r2, [lr, #8]
 800b116:	4572      	cmp	r2, lr
 800b118:	d062      	beq.n	800b1e0 <_free_r+0x140>
 800b11a:	6850      	ldr	r0, [r2, #4]
 800b11c:	f020 0103 	bic.w	r1, r0, #3
 800b120:	428b      	cmp	r3, r1
 800b122:	d202      	bcs.n	800b12a <_free_r+0x8a>
 800b124:	6892      	ldr	r2, [r2, #8]
 800b126:	4596      	cmp	lr, r2
 800b128:	d1f7      	bne.n	800b11a <_free_r+0x7a>
 800b12a:	68d0      	ldr	r0, [r2, #12]
 800b12c:	60e0      	str	r0, [r4, #12]
 800b12e:	60a2      	str	r2, [r4, #8]
 800b130:	60d4      	str	r4, [r2, #12]
 800b132:	6084      	str	r4, [r0, #8]
 800b134:	4630      	mov	r0, r6
 800b136:	e8bd 41f0 	ldmia.w	sp!, {r4, r5, r6, r7, r8, lr}
 800b13a:	f7fc be15 	b.w	8007d68 <__malloc_unlock>
 800b13e:	f855 5c08 	ldr.w	r5, [r5, #-8]
 800b142:	1b64      	subs	r4, r4, r5
 800b144:	f10c 0808 	add.w	r8, ip, #8
 800b148:	68a0      	ldr	r0, [r4, #8]
 800b14a:	4540      	cmp	r0, r8
 800b14c:	442b      	add	r3, r5
 800b14e:	d03f      	beq.n	800b1d0 <_free_r+0x130>
 800b150:	68e5      	ldr	r5, [r4, #12]
 800b152:	60c5      	str	r5, [r0, #12]
 800b154:	60a8      	str	r0, [r5, #8]
 800b156:	e7c0      	b.n	800b0da <_free_r+0x3a>
 800b158:	e8bd 81f0 	ldmia.w	sp!, {r4, r5, r6, r7, r8, pc}
 800b15c:	08dd      	lsrs	r5, r3, #3
 800b15e:	eb0c 02c5 	add.w	r2, ip, r5, lsl #3
 800b162:	f8dc 0004 	ldr.w	r0, [ip, #4]
 800b166:	6891      	ldr	r1, [r2, #8]
 800b168:	60e2      	str	r2, [r4, #12]
 800b16a:	10ab      	asrs	r3, r5, #2
 800b16c:	2501      	movs	r5, #1
 800b16e:	fa05 f303 	lsl.w	r3, r5, r3
 800b172:	4318      	orrs	r0, r3
 800b174:	60a1      	str	r1, [r4, #8]
 800b176:	f8cc 0004 	str.w	r0, [ip, #4]
 800b17a:	6094      	str	r4, [r2, #8]
 800b17c:	60cc      	str	r4, [r1, #12]
 800b17e:	e7d9      	b.n	800b134 <_free_r+0x94>
 800b180:	4d29      	ldr	r5, [pc, #164]	; (800b228 <_free_r+0x188>)
 800b182:	42a8      	cmp	r0, r5
 800b184:	d1b1      	bne.n	800b0ea <_free_r+0x4a>
 800b186:	f043 0201 	orr.w	r2, r3, #1
 800b18a:	f8cc 4014 	str.w	r4, [ip, #20]
 800b18e:	f8cc 4010 	str.w	r4, [ip, #16]
 800b192:	60e0      	str	r0, [r4, #12]
 800b194:	60a0      	str	r0, [r4, #8]
 800b196:	6062      	str	r2, [r4, #4]
 800b198:	50e3      	str	r3, [r4, r3]
 800b19a:	e7cb      	b.n	800b134 <_free_r+0x94>
 800b19c:	18ff      	adds	r7, r7, r3
 800b19e:	07cb      	lsls	r3, r1, #31
 800b1a0:	d407      	bmi.n	800b1b2 <_free_r+0x112>
 800b1a2:	f855 1c08 	ldr.w	r1, [r5, #-8]
 800b1a6:	1a64      	subs	r4, r4, r1
 800b1a8:	187f      	adds	r7, r7, r1
 800b1aa:	68e3      	ldr	r3, [r4, #12]
 800b1ac:	68a0      	ldr	r0, [r4, #8]
 800b1ae:	60c3      	str	r3, [r0, #12]
 800b1b0:	6098      	str	r0, [r3, #8]
 800b1b2:	4a1e      	ldr	r2, [pc, #120]	; (800b22c <_free_r+0x18c>)
 800b1b4:	f8cc 4008 	str.w	r4, [ip, #8]
 800b1b8:	6811      	ldr	r1, [r2, #0]
 800b1ba:	f047 0301 	orr.w	r3, r7, #1
 800b1be:	428f      	cmp	r7, r1
 800b1c0:	6063      	str	r3, [r4, #4]
 800b1c2:	d3b7      	bcc.n	800b134 <_free_r+0x94>
 800b1c4:	4a1a      	ldr	r2, [pc, #104]	; (800b230 <_free_r+0x190>)
 800b1c6:	4630      	mov	r0, r6
 800b1c8:	6811      	ldr	r1, [r2, #0]
 800b1ca:	f7ff ff1d 	bl	800b008 <_malloc_trim_r>
 800b1ce:	e7b1      	b.n	800b134 <_free_r+0x94>
 800b1d0:	2101      	movs	r1, #1
 800b1d2:	e782      	b.n	800b0da <_free_r+0x3a>
 800b1d4:	2a14      	cmp	r2, #20
 800b1d6:	d80c      	bhi.n	800b1f2 <_free_r+0x152>
 800b1d8:	f102 005b 	add.w	r0, r2, #91	; 0x5b
 800b1dc:	0042      	lsls	r2, r0, #1
 800b1de:	e795      	b.n	800b10c <_free_r+0x6c>
 800b1e0:	684b      	ldr	r3, [r1, #4]
 800b1e2:	1080      	asrs	r0, r0, #2
 800b1e4:	2501      	movs	r5, #1
 800b1e6:	fa05 f000 	lsl.w	r0, r5, r0
 800b1ea:	4303      	orrs	r3, r0
 800b1ec:	604b      	str	r3, [r1, #4]
 800b1ee:	4610      	mov	r0, r2
 800b1f0:	e79c      	b.n	800b12c <_free_r+0x8c>
 800b1f2:	2a54      	cmp	r2, #84	; 0x54
 800b1f4:	d803      	bhi.n	800b1fe <_free_r+0x15e>
 800b1f6:	0b18      	lsrs	r0, r3, #12
 800b1f8:	306e      	adds	r0, #110	; 0x6e
 800b1fa:	0042      	lsls	r2, r0, #1
 800b1fc:	e786      	b.n	800b10c <_free_r+0x6c>
 800b1fe:	f5b2 7faa 	cmp.w	r2, #340	; 0x154
 800b202:	d803      	bhi.n	800b20c <_free_r+0x16c>
 800b204:	0bd8      	lsrs	r0, r3, #15
 800b206:	3077      	adds	r0, #119	; 0x77
 800b208:	0042      	lsls	r2, r0, #1
 800b20a:	e77f      	b.n	800b10c <_free_r+0x6c>
 800b20c:	f240 5154 	movw	r1, #1364	; 0x554
 800b210:	428a      	cmp	r2, r1
 800b212:	d803      	bhi.n	800b21c <_free_r+0x17c>
 800b214:	0c98      	lsrs	r0, r3, #18
 800b216:	307c      	adds	r0, #124	; 0x7c
 800b218:	0042      	lsls	r2, r0, #1
 800b21a:	e777      	b.n	800b10c <_free_r+0x6c>
 800b21c:	22fc      	movs	r2, #252	; 0xfc
 800b21e:	207e      	movs	r0, #126	; 0x7e
 800b220:	e774      	b.n	800b10c <_free_r+0x6c>
 800b222:	bf00      	nop
 800b224:	100005dc 	.word	0x100005dc
 800b228:	100005e4 	.word	0x100005e4
 800b22c:	100009e4 	.word	0x100009e4
 800b230:	10000df4 	.word	0x10000df4

0800b234 <_localeconv_r>:
 800b234:	f640 10ec 	movw	r0, #2540	; 0x9ec
 800b238:	f2c1 0000 	movt	r0, #4096	; 0x1000
 800b23c:	4770      	bx	lr
 800b23e:	bf00      	nop

0800b240 <memchr>:
 800b240:	0783      	lsls	r3, r0, #30
 800b242:	b4f0      	push	{r4, r5, r6, r7}
 800b244:	b2c9      	uxtb	r1, r1
 800b246:	f000 8096 	beq.w	800b376 <memchr+0x136>
 800b24a:	1e53      	subs	r3, r2, #1
 800b24c:	2a00      	cmp	r2, #0
 800b24e:	f000 8094 	beq.w	800b37a <memchr+0x13a>
 800b252:	7802      	ldrb	r2, [r0, #0]
 800b254:	428a      	cmp	r2, r1
 800b256:	d00b      	beq.n	800b270 <memchr+0x30>
 800b258:	1c42      	adds	r2, r0, #1
 800b25a:	07d8      	lsls	r0, r3, #31
 800b25c:	d51a      	bpl.n	800b294 <memchr+0x54>
 800b25e:	f012 0f03 	tst.w	r2, #3
 800b262:	4610      	mov	r0, r2
 800b264:	d01c      	beq.n	800b2a0 <memchr+0x60>
 800b266:	7814      	ldrb	r4, [r2, #0]
 800b268:	3b01      	subs	r3, #1
 800b26a:	3201      	adds	r2, #1
 800b26c:	428c      	cmp	r4, r1
 800b26e:	d111      	bne.n	800b294 <memchr+0x54>
 800b270:	bcf0      	pop	{r4, r5, r6, r7}
 800b272:	4770      	bx	lr
 800b274:	2b00      	cmp	r3, #0
 800b276:	d07c      	beq.n	800b372 <memchr+0x132>
 800b278:	7812      	ldrb	r2, [r2, #0]
 800b27a:	3b01      	subs	r3, #1
 800b27c:	428a      	cmp	r2, r1
 800b27e:	d0f7      	beq.n	800b270 <memchr+0x30>
 800b280:	f014 0f03 	tst.w	r4, #3
 800b284:	4620      	mov	r0, r4
 800b286:	f104 0201 	add.w	r2, r4, #1
 800b28a:	d009      	beq.n	800b2a0 <memchr+0x60>
 800b28c:	7824      	ldrb	r4, [r4, #0]
 800b28e:	3b01      	subs	r3, #1
 800b290:	428c      	cmp	r4, r1
 800b292:	d0ed      	beq.n	800b270 <memchr+0x30>
 800b294:	f012 0f03 	tst.w	r2, #3
 800b298:	4610      	mov	r0, r2
 800b29a:	f102 0401 	add.w	r4, r2, #1
 800b29e:	d1e9      	bne.n	800b274 <memchr+0x34>
 800b2a0:	2b03      	cmp	r3, #3
 800b2a2:	d93f      	bls.n	800b324 <memchr+0xe4>
 800b2a4:	6804      	ldr	r4, [r0, #0]
 800b2a6:	ea41 2501 	orr.w	r5, r1, r1, lsl #8
 800b2aa:	ea45 4505 	orr.w	r5, r5, r5, lsl #16
 800b2ae:	ea85 0704 	eor.w	r7, r5, r4
 800b2b2:	f1a7 3201 	sub.w	r2, r7, #16843009	; 0x1010101
 800b2b6:	ea22 0207 	bic.w	r2, r2, r7
 800b2ba:	1f1e      	subs	r6, r3, #4
 800b2bc:	1d04      	adds	r4, r0, #4
 800b2be:	f012 3f80 	tst.w	r2, #2155905152	; 0x80808080
 800b2c2:	f3c6 0780 	ubfx	r7, r6, #2, #1
 800b2c6:	d12d      	bne.n	800b324 <memchr+0xe4>
 800b2c8:	2e03      	cmp	r6, #3
 800b2ca:	4633      	mov	r3, r6
 800b2cc:	d929      	bls.n	800b322 <memchr+0xe2>
 800b2ce:	b167      	cbz	r7, 800b2ea <memchr+0xaa>
 800b2d0:	4620      	mov	r0, r4
 800b2d2:	3404      	adds	r4, #4
 800b2d4:	6806      	ldr	r6, [r0, #0]
 800b2d6:	ea85 0206 	eor.w	r2, r5, r6
 800b2da:	f1a2 3601 	sub.w	r6, r2, #16843009	; 0x1010101
 800b2de:	ea26 0202 	bic.w	r2, r6, r2
 800b2e2:	f012 3f80 	tst.w	r2, #2155905152	; 0x80808080
 800b2e6:	d019      	beq.n	800b31c <memchr+0xdc>
 800b2e8:	e01c      	b.n	800b324 <memchr+0xe4>
 800b2ea:	1d26      	adds	r6, r4, #4
 800b2ec:	4620      	mov	r0, r4
 800b2ee:	6824      	ldr	r4, [r4, #0]
 800b2f0:	ea85 0204 	eor.w	r2, r5, r4
 800b2f4:	f1a2 3401 	sub.w	r4, r2, #16843009	; 0x1010101
 800b2f8:	ea24 0202 	bic.w	r2, r4, r2
 800b2fc:	f012 3f80 	tst.w	r2, #2155905152	; 0x80808080
 800b300:	d110      	bne.n	800b324 <memchr+0xe4>
 800b302:	6834      	ldr	r4, [r6, #0]
 800b304:	ea85 0204 	eor.w	r2, r5, r4
 800b308:	f1a2 3401 	sub.w	r4, r2, #16843009	; 0x1010101
 800b30c:	ea24 0202 	bic.w	r2, r4, r2
 800b310:	3b04      	subs	r3, #4
 800b312:	1d34      	adds	r4, r6, #4
 800b314:	f012 3f80 	tst.w	r2, #2155905152	; 0x80808080
 800b318:	4630      	mov	r0, r6
 800b31a:	d103      	bne.n	800b324 <memchr+0xe4>
 800b31c:	3b04      	subs	r3, #4
 800b31e:	2b03      	cmp	r3, #3
 800b320:	d8e3      	bhi.n	800b2ea <memchr+0xaa>
 800b322:	4620      	mov	r0, r4
 800b324:	1e5d      	subs	r5, r3, #1
 800b326:	b323      	cbz	r3, 800b372 <memchr+0x132>
 800b328:	7803      	ldrb	r3, [r0, #0]
 800b32a:	428b      	cmp	r3, r1
 800b32c:	d0a0      	beq.n	800b270 <memchr+0x30>
 800b32e:	1c43      	adds	r3, r0, #1
 800b330:	2200      	movs	r2, #0
 800b332:	07e8      	lsls	r0, r5, #31
 800b334:	d514      	bpl.n	800b360 <memchr+0x120>
 800b336:	4618      	mov	r0, r3
 800b338:	2201      	movs	r2, #1
 800b33a:	7804      	ldrb	r4, [r0, #0]
 800b33c:	3301      	adds	r3, #1
 800b33e:	428c      	cmp	r4, r1
 800b340:	d096      	beq.n	800b270 <memchr+0x30>
 800b342:	4295      	cmp	r5, r2
 800b344:	4618      	mov	r0, r3
 800b346:	f103 0401 	add.w	r4, r3, #1
 800b34a:	f102 0202 	add.w	r2, r2, #2
 800b34e:	d00e      	beq.n	800b36e <memchr+0x12e>
 800b350:	781b      	ldrb	r3, [r3, #0]
 800b352:	428b      	cmp	r3, r1
 800b354:	d08c      	beq.n	800b270 <memchr+0x30>
 800b356:	1c63      	adds	r3, r4, #1
 800b358:	4620      	mov	r0, r4
 800b35a:	7824      	ldrb	r4, [r4, #0]
 800b35c:	428c      	cmp	r4, r1
 800b35e:	d087      	beq.n	800b270 <memchr+0x30>
 800b360:	4295      	cmp	r5, r2
 800b362:	4618      	mov	r0, r3
 800b364:	f103 0401 	add.w	r4, r3, #1
 800b368:	f102 0202 	add.w	r2, r2, #2
 800b36c:	d1f0      	bne.n	800b350 <memchr+0x110>
 800b36e:	2000      	movs	r0, #0
 800b370:	e77e      	b.n	800b270 <memchr+0x30>
 800b372:	4618      	mov	r0, r3
 800b374:	e77c      	b.n	800b270 <memchr+0x30>
 800b376:	4613      	mov	r3, r2
 800b378:	e792      	b.n	800b2a0 <memchr+0x60>
 800b37a:	4610      	mov	r0, r2
 800b37c:	e778      	b.n	800b270 <memchr+0x30>
 800b37e:	bf00      	nop

0800b380 <_Balloc>:
 800b380:	6cc3      	ldr	r3, [r0, #76]	; 0x4c
 800b382:	b570      	push	{r4, r5, r6, lr}
 800b384:	4605      	mov	r5, r0
 800b386:	460c      	mov	r4, r1
 800b388:	b14b      	cbz	r3, 800b39e <_Balloc+0x1e>
 800b38a:	f853 0024 	ldr.w	r0, [r3, r4, lsl #2]
 800b38e:	b180      	cbz	r0, 800b3b2 <_Balloc+0x32>
 800b390:	6801      	ldr	r1, [r0, #0]
 800b392:	f843 1024 	str.w	r1, [r3, r4, lsl #2]
 800b396:	2300      	movs	r3, #0
 800b398:	6103      	str	r3, [r0, #16]
 800b39a:	60c3      	str	r3, [r0, #12]
 800b39c:	bd70      	pop	{r4, r5, r6, pc}
 800b39e:	2104      	movs	r1, #4
 800b3a0:	2221      	movs	r2, #33	; 0x21
 800b3a2:	f000 fdab 	bl	800befc <_calloc_r>
 800b3a6:	4603      	mov	r3, r0
 800b3a8:	64e8      	str	r0, [r5, #76]	; 0x4c
 800b3aa:	2800      	cmp	r0, #0
 800b3ac:	d1ed      	bne.n	800b38a <_Balloc+0xa>
 800b3ae:	2000      	movs	r0, #0
 800b3b0:	bd70      	pop	{r4, r5, r6, pc}
 800b3b2:	2101      	movs	r1, #1
 800b3b4:	fa01 f604 	lsl.w	r6, r1, r4
 800b3b8:	1d72      	adds	r2, r6, #5
 800b3ba:	4628      	mov	r0, r5
 800b3bc:	0092      	lsls	r2, r2, #2
 800b3be:	f000 fd9d 	bl	800befc <_calloc_r>
 800b3c2:	2800      	cmp	r0, #0
 800b3c4:	d0f3      	beq.n	800b3ae <_Balloc+0x2e>
 800b3c6:	6044      	str	r4, [r0, #4]
 800b3c8:	6086      	str	r6, [r0, #8]
 800b3ca:	e7e4      	b.n	800b396 <_Balloc+0x16>

0800b3cc <_Bfree>:
 800b3cc:	b131      	cbz	r1, 800b3dc <_Bfree+0x10>
 800b3ce:	6cc3      	ldr	r3, [r0, #76]	; 0x4c
 800b3d0:	684a      	ldr	r2, [r1, #4]
 800b3d2:	f853 0022 	ldr.w	r0, [r3, r2, lsl #2]
 800b3d6:	6008      	str	r0, [r1, #0]
 800b3d8:	f843 1022 	str.w	r1, [r3, r2, lsl #2]
 800b3dc:	4770      	bx	lr
 800b3de:	bf00      	nop

0800b3e0 <__multadd>:
 800b3e0:	e92d 41f0 	stmdb	sp!, {r4, r5, r6, r7, r8, lr}
 800b3e4:	460e      	mov	r6, r1
 800b3e6:	6949      	ldr	r1, [r1, #20]
 800b3e8:	6937      	ldr	r7, [r6, #16]
 800b3ea:	b28c      	uxth	r4, r1
 800b3ec:	0c0d      	lsrs	r5, r1, #16
 800b3ee:	fb02 3304 	mla	r3, r2, r4, r3
 800b3f2:	fb02 f105 	mul.w	r1, r2, r5
 800b3f6:	eb01 4513 	add.w	r5, r1, r3, lsr #16
 800b3fa:	f106 0418 	add.w	r4, r6, #24
 800b3fe:	b29b      	uxth	r3, r3
 800b400:	eb03 4305 	add.w	r3, r3, r5, lsl #16
 800b404:	f844 3c04 	str.w	r3, [r4, #-4]
 800b408:	2301      	movs	r3, #1
 800b40a:	1e79      	subs	r1, r7, #1
 800b40c:	0c2d      	lsrs	r5, r5, #16
 800b40e:	429f      	cmp	r7, r3
 800b410:	4680      	mov	r8, r0
 800b412:	f001 0001 	and.w	r0, r1, #1
 800b416:	dd39      	ble.n	800b48c <__multadd+0xac>
 800b418:	b198      	cbz	r0, 800b442 <__multadd+0x62>
 800b41a:	6824      	ldr	r4, [r4, #0]
 800b41c:	b2a3      	uxth	r3, r4
 800b41e:	0c21      	lsrs	r1, r4, #16
 800b420:	fb02 5503 	mla	r5, r2, r3, r5
 800b424:	fb02 f101 	mul.w	r1, r2, r1
 800b428:	b2ab      	uxth	r3, r5
 800b42a:	eb01 4015 	add.w	r0, r1, r5, lsr #16
 800b42e:	eb03 4100 	add.w	r1, r3, r0, lsl #16
 800b432:	f106 041c 	add.w	r4, r6, #28
 800b436:	2302      	movs	r3, #2
 800b438:	0c05      	lsrs	r5, r0, #16
 800b43a:	429f      	cmp	r7, r3
 800b43c:	f844 1c04 	str.w	r1, [r4, #-4]
 800b440:	dd24      	ble.n	800b48c <__multadd+0xac>
 800b442:	6820      	ldr	r0, [r4, #0]
 800b444:	b281      	uxth	r1, r0
 800b446:	0c00      	lsrs	r0, r0, #16
 800b448:	fb02 5101 	mla	r1, r2, r1, r5
 800b44c:	fb02 f000 	mul.w	r0, r2, r0
 800b450:	4625      	mov	r5, r4
 800b452:	eb00 4011 	add.w	r0, r0, r1, lsr #16
 800b456:	b289      	uxth	r1, r1
 800b458:	eb01 4100 	add.w	r1, r1, r0, lsl #16
 800b45c:	f845 1b04 	str.w	r1, [r5], #4
 800b460:	6864      	ldr	r4, [r4, #4]
 800b462:	fa1f fc84 	uxth.w	ip, r4
 800b466:	0c21      	lsrs	r1, r4, #16
 800b468:	fb02 fc0c 	mul.w	ip, r2, ip
 800b46c:	eb0c 4010 	add.w	r0, ip, r0, lsr #16
 800b470:	fb02 f101 	mul.w	r1, r2, r1
 800b474:	eb01 4110 	add.w	r1, r1, r0, lsr #16
 800b478:	462c      	mov	r4, r5
 800b47a:	3302      	adds	r3, #2
 800b47c:	b285      	uxth	r5, r0
 800b47e:	eb05 4001 	add.w	r0, r5, r1, lsl #16
 800b482:	0c0d      	lsrs	r5, r1, #16
 800b484:	429f      	cmp	r7, r3
 800b486:	f844 0b04 	str.w	r0, [r4], #4
 800b48a:	dcda      	bgt.n	800b442 <__multadd+0x62>
 800b48c:	b13d      	cbz	r5, 800b49e <__multadd+0xbe>
 800b48e:	68b2      	ldr	r2, [r6, #8]
 800b490:	4297      	cmp	r7, r2
 800b492:	da07      	bge.n	800b4a4 <__multadd+0xc4>
 800b494:	eb06 0287 	add.w	r2, r6, r7, lsl #2
 800b498:	3701      	adds	r7, #1
 800b49a:	6155      	str	r5, [r2, #20]
 800b49c:	6137      	str	r7, [r6, #16]
 800b49e:	4630      	mov	r0, r6
 800b4a0:	e8bd 81f0 	ldmia.w	sp!, {r4, r5, r6, r7, r8, pc}
 800b4a4:	6873      	ldr	r3, [r6, #4]
 800b4a6:	4640      	mov	r0, r8
 800b4a8:	1c59      	adds	r1, r3, #1
 800b4aa:	f7ff ff69 	bl	800b380 <_Balloc>
 800b4ae:	6931      	ldr	r1, [r6, #16]
 800b4b0:	1c8a      	adds	r2, r1, #2
 800b4b2:	4604      	mov	r4, r0
 800b4b4:	f106 010c 	add.w	r1, r6, #12
 800b4b8:	f100 000c 	add.w	r0, r0, #12
 800b4bc:	0092      	lsls	r2, r2, #2
 800b4be:	f7fc fb19 	bl	8007af4 <memcpy>
 800b4c2:	6870      	ldr	r0, [r6, #4]
 800b4c4:	f8d8 304c 	ldr.w	r3, [r8, #76]	; 0x4c
 800b4c8:	f853 1020 	ldr.w	r1, [r3, r0, lsl #2]
 800b4cc:	6031      	str	r1, [r6, #0]
 800b4ce:	f843 6020 	str.w	r6, [r3, r0, lsl #2]
 800b4d2:	4626      	mov	r6, r4
 800b4d4:	e7de      	b.n	800b494 <__multadd+0xb4>
 800b4d6:	bf00      	nop

0800b4d8 <__hi0bits>:
 800b4d8:	0c02      	lsrs	r2, r0, #16
 800b4da:	4603      	mov	r3, r0
 800b4dc:	d116      	bne.n	800b50c <__hi0bits+0x34>
 800b4de:	0403      	lsls	r3, r0, #16
 800b4e0:	2010      	movs	r0, #16
 800b4e2:	f013 4f7f 	tst.w	r3, #4278190080	; 0xff000000
 800b4e6:	d101      	bne.n	800b4ec <__hi0bits+0x14>
 800b4e8:	3008      	adds	r0, #8
 800b4ea:	021b      	lsls	r3, r3, #8
 800b4ec:	f013 4f70 	tst.w	r3, #4026531840	; 0xf0000000
 800b4f0:	d101      	bne.n	800b4f6 <__hi0bits+0x1e>
 800b4f2:	3004      	adds	r0, #4
 800b4f4:	011b      	lsls	r3, r3, #4
 800b4f6:	f013 4f40 	tst.w	r3, #3221225472	; 0xc0000000
 800b4fa:	d101      	bne.n	800b500 <__hi0bits+0x28>
 800b4fc:	3002      	adds	r0, #2
 800b4fe:	009b      	lsls	r3, r3, #2
 800b500:	2b00      	cmp	r3, #0
 800b502:	db02      	blt.n	800b50a <__hi0bits+0x32>
 800b504:	005b      	lsls	r3, r3, #1
 800b506:	d403      	bmi.n	800b510 <__hi0bits+0x38>
 800b508:	2020      	movs	r0, #32
 800b50a:	4770      	bx	lr
 800b50c:	2000      	movs	r0, #0
 800b50e:	e7e8      	b.n	800b4e2 <__hi0bits+0xa>
 800b510:	3001      	adds	r0, #1
 800b512:	4770      	bx	lr

0800b514 <__lo0bits>:
 800b514:	6803      	ldr	r3, [r0, #0]
 800b516:	4602      	mov	r2, r0
 800b518:	f013 0007 	ands.w	r0, r3, #7
 800b51c:	d007      	beq.n	800b52e <__lo0bits+0x1a>
 800b51e:	07d9      	lsls	r1, r3, #31
 800b520:	d41f      	bmi.n	800b562 <__lo0bits+0x4e>
 800b522:	0798      	lsls	r0, r3, #30
 800b524:	d41f      	bmi.n	800b566 <__lo0bits+0x52>
 800b526:	0898      	lsrs	r0, r3, #2
 800b528:	6010      	str	r0, [r2, #0]
 800b52a:	2002      	movs	r0, #2
 800b52c:	4770      	bx	lr
 800b52e:	b299      	uxth	r1, r3
 800b530:	b909      	cbnz	r1, 800b536 <__lo0bits+0x22>
 800b532:	0c1b      	lsrs	r3, r3, #16
 800b534:	2010      	movs	r0, #16
 800b536:	f013 0fff 	tst.w	r3, #255	; 0xff
 800b53a:	d101      	bne.n	800b540 <__lo0bits+0x2c>
 800b53c:	3008      	adds	r0, #8
 800b53e:	0a1b      	lsrs	r3, r3, #8
 800b540:	0719      	lsls	r1, r3, #28
 800b542:	d101      	bne.n	800b548 <__lo0bits+0x34>
 800b544:	3004      	adds	r0, #4
 800b546:	091b      	lsrs	r3, r3, #4
 800b548:	0799      	lsls	r1, r3, #30
 800b54a:	d101      	bne.n	800b550 <__lo0bits+0x3c>
 800b54c:	3002      	adds	r0, #2
 800b54e:	089b      	lsrs	r3, r3, #2
 800b550:	07d9      	lsls	r1, r3, #31
 800b552:	d404      	bmi.n	800b55e <__lo0bits+0x4a>
 800b554:	085b      	lsrs	r3, r3, #1
 800b556:	d101      	bne.n	800b55c <__lo0bits+0x48>
 800b558:	2020      	movs	r0, #32
 800b55a:	4770      	bx	lr
 800b55c:	3001      	adds	r0, #1
 800b55e:	6013      	str	r3, [r2, #0]
 800b560:	4770      	bx	lr
 800b562:	2000      	movs	r0, #0
 800b564:	4770      	bx	lr
 800b566:	0859      	lsrs	r1, r3, #1
 800b568:	6011      	str	r1, [r2, #0]
 800b56a:	2001      	movs	r0, #1
 800b56c:	4770      	bx	lr
 800b56e:	bf00      	nop

0800b570 <__i2b>:
 800b570:	b510      	push	{r4, lr}
 800b572:	460c      	mov	r4, r1
 800b574:	2101      	movs	r1, #1
 800b576:	f7ff ff03 	bl	800b380 <_Balloc>
 800b57a:	2201      	movs	r2, #1
 800b57c:	6144      	str	r4, [r0, #20]
 800b57e:	6102      	str	r2, [r0, #16]
 800b580:	bd10      	pop	{r4, pc}
 800b582:	bf00      	nop

0800b584 <__multiply>:
 800b584:	e92d 4ff0 	stmdb	sp!, {r4, r5, r6, r7, r8, r9, sl, fp, lr}
 800b588:	690c      	ldr	r4, [r1, #16]
 800b58a:	6917      	ldr	r7, [r2, #16]
 800b58c:	42bc      	cmp	r4, r7
 800b58e:	b085      	sub	sp, #20
 800b590:	460e      	mov	r6, r1
 800b592:	4690      	mov	r8, r2
 800b594:	da04      	bge.n	800b5a0 <__multiply+0x1c>
 800b596:	4622      	mov	r2, r4
 800b598:	4646      	mov	r6, r8
 800b59a:	463c      	mov	r4, r7
 800b59c:	4688      	mov	r8, r1
 800b59e:	4617      	mov	r7, r2
 800b5a0:	68b3      	ldr	r3, [r6, #8]
 800b5a2:	6871      	ldr	r1, [r6, #4]
 800b5a4:	19e2      	adds	r2, r4, r7
 800b5a6:	429a      	cmp	r2, r3
 800b5a8:	bfc8      	it	gt
 800b5aa:	3101      	addgt	r1, #1
 800b5ac:	9201      	str	r2, [sp, #4]
 800b5ae:	f7ff fee7 	bl	800b380 <_Balloc>
 800b5b2:	9901      	ldr	r1, [sp, #4]
 800b5b4:	9003      	str	r0, [sp, #12]
 800b5b6:	eb00 0381 	add.w	r3, r0, r1, lsl #2
 800b5ba:	3314      	adds	r3, #20
 800b5bc:	3014      	adds	r0, #20
 800b5be:	4298      	cmp	r0, r3
 800b5c0:	9302      	str	r3, [sp, #8]
 800b5c2:	d21a      	bcs.n	800b5fa <__multiply+0x76>
 800b5c4:	9902      	ldr	r1, [sp, #8]
 800b5c6:	9b03      	ldr	r3, [sp, #12]
 800b5c8:	43c2      	mvns	r2, r0
 800b5ca:	188a      	adds	r2, r1, r2
 800b5cc:	9902      	ldr	r1, [sp, #8]
 800b5ce:	3318      	adds	r3, #24
 800b5d0:	2500      	movs	r5, #0
 800b5d2:	4299      	cmp	r1, r3
 800b5d4:	6005      	str	r5, [r0, #0]
 800b5d6:	f3c2 0080 	ubfx	r0, r2, #2, #1
 800b5da:	d90e      	bls.n	800b5fa <__multiply+0x76>
 800b5dc:	b128      	cbz	r0, 800b5ea <__multiply+0x66>
 800b5de:	601d      	str	r5, [r3, #0]
 800b5e0:	9b03      	ldr	r3, [sp, #12]
 800b5e2:	9a02      	ldr	r2, [sp, #8]
 800b5e4:	331c      	adds	r3, #28
 800b5e6:	429a      	cmp	r2, r3
 800b5e8:	d907      	bls.n	800b5fa <__multiply+0x76>
 800b5ea:	9802      	ldr	r0, [sp, #8]
 800b5ec:	4619      	mov	r1, r3
 800b5ee:	f841 5b04 	str.w	r5, [r1], #4
 800b5f2:	605d      	str	r5, [r3, #4]
 800b5f4:	1d0b      	adds	r3, r1, #4
 800b5f6:	4298      	cmp	r0, r3
 800b5f8:	d8f8      	bhi.n	800b5ec <__multiply+0x68>
 800b5fa:	eb08 0387 	add.w	r3, r8, r7, lsl #2
 800b5fe:	3314      	adds	r3, #20
 800b600:	eb06 0484 	add.w	r4, r6, r4, lsl #2
 800b604:	f108 0714 	add.w	r7, r8, #20
 800b608:	3414      	adds	r4, #20
 800b60a:	429f      	cmp	r7, r3
 800b60c:	9300      	str	r3, [sp, #0]
 800b60e:	f106 0c14 	add.w	ip, r6, #20
 800b612:	f080 80f8 	bcs.w	800b806 <__multiply+0x282>
 800b616:	9803      	ldr	r0, [sp, #12]
 800b618:	3018      	adds	r0, #24
 800b61a:	f857 3b04 	ldr.w	r3, [r7], #4
 800b61e:	b29a      	uxth	r2, r3
 800b620:	2a00      	cmp	r2, #0
 800b622:	d06e      	beq.n	800b702 <__multiply+0x17e>
 800b624:	4661      	mov	r1, ip
 800b626:	f850 5c04 	ldr.w	r5, [r0, #-4]
 800b62a:	f851 6b04 	ldr.w	r6, [r1], #4
 800b62e:	b2ab      	uxth	r3, r5
 800b630:	fa1f f886 	uxth.w	r8, r6
 800b634:	0c2d      	lsrs	r5, r5, #16
 800b636:	0c36      	lsrs	r6, r6, #16
 800b638:	fb02 3308 	mla	r3, r2, r8, r3
 800b63c:	fb02 5606 	mla	r6, r2, r6, r5
 800b640:	eb06 4613 	add.w	r6, r6, r3, lsr #16
 800b644:	ea6f 050c 	mvn.w	r5, ip
 800b648:	b29b      	uxth	r3, r3
 800b64a:	ea43 4306 	orr.w	r3, r3, r6, lsl #16
 800b64e:	1965      	adds	r5, r4, r5
 800b650:	0c36      	lsrs	r6, r6, #16
 800b652:	428c      	cmp	r4, r1
 800b654:	f840 3c04 	str.w	r3, [r0, #-4]
 800b658:	f3c5 0580 	ubfx	r5, r5, #2, #1
 800b65c:	4603      	mov	r3, r0
 800b65e:	d94d      	bls.n	800b6fc <__multiply+0x178>
 800b660:	b1cd      	cbz	r5, 800b696 <__multiply+0x112>
 800b662:	f8dc 5004 	ldr.w	r5, [ip, #4]
 800b666:	6803      	ldr	r3, [r0, #0]
 800b668:	fa1f f985 	uxth.w	r9, r5
 800b66c:	fa1f f883 	uxth.w	r8, r3
 800b670:	0c2d      	lsrs	r5, r5, #16
 800b672:	0c1b      	lsrs	r3, r3, #16
 800b674:	fb02 8809 	mla	r8, r2, r9, r8
 800b678:	4446      	add	r6, r8
 800b67a:	fb02 3505 	mla	r5, r2, r5, r3
 800b67e:	eb05 4516 	add.w	r5, r5, r6, lsr #16
 800b682:	4603      	mov	r3, r0
 800b684:	b2b6      	uxth	r6, r6
 800b686:	ea46 4605 	orr.w	r6, r6, r5, lsl #16
 800b68a:	3104      	adds	r1, #4
 800b68c:	f843 6b04 	str.w	r6, [r3], #4
 800b690:	0c2e      	lsrs	r6, r5, #16
 800b692:	428c      	cmp	r4, r1
 800b694:	d932      	bls.n	800b6fc <__multiply+0x178>
 800b696:	460d      	mov	r5, r1
 800b698:	f8d3 e000 	ldr.w	lr, [r3]
 800b69c:	f855 9b04 	ldr.w	r9, [r5], #4
 800b6a0:	fa1f fa8e 	uxth.w	sl, lr
 800b6a4:	fa1f fb89 	uxth.w	fp, r9
 800b6a8:	fb02 aa0b 	mla	sl, r2, fp, sl
 800b6ac:	ea4f 4919 	mov.w	r9, r9, lsr #16
 800b6b0:	ea4f 481e 	mov.w	r8, lr, lsr #16
 800b6b4:	4456      	add	r6, sl
 800b6b6:	fb02 8e09 	mla	lr, r2, r9, r8
 800b6ba:	eb0e 4916 	add.w	r9, lr, r6, lsr #16
 800b6be:	4698      	mov	r8, r3
 800b6c0:	b2b6      	uxth	r6, r6
 800b6c2:	ea46 4609 	orr.w	r6, r6, r9, lsl #16
 800b6c6:	f848 6b04 	str.w	r6, [r8], #4
 800b6ca:	684e      	ldr	r6, [r1, #4]
 800b6cc:	685b      	ldr	r3, [r3, #4]
 800b6ce:	fa1f fa86 	uxth.w	sl, r6
 800b6d2:	b299      	uxth	r1, r3
 800b6d4:	0c36      	lsrs	r6, r6, #16
 800b6d6:	0c1b      	lsrs	r3, r3, #16
 800b6d8:	fb02 110a 	mla	r1, r2, sl, r1
 800b6dc:	eb01 4119 	add.w	r1, r1, r9, lsr #16
 800b6e0:	fb02 3606 	mla	r6, r2, r6, r3
 800b6e4:	eb06 4611 	add.w	r6, r6, r1, lsr #16
 800b6e8:	b289      	uxth	r1, r1
 800b6ea:	4643      	mov	r3, r8
 800b6ec:	ea41 4806 	orr.w	r8, r1, r6, lsl #16
 800b6f0:	1d29      	adds	r1, r5, #4
 800b6f2:	0c36      	lsrs	r6, r6, #16
 800b6f4:	428c      	cmp	r4, r1
 800b6f6:	f843 8b04 	str.w	r8, [r3], #4
 800b6fa:	d8cc      	bhi.n	800b696 <__multiply+0x112>
 800b6fc:	601e      	str	r6, [r3, #0]
 800b6fe:	f857 3c04 	ldr.w	r3, [r7, #-4]
 800b702:	0c1a      	lsrs	r2, r3, #16
 800b704:	d07a      	beq.n	800b7fc <__multiply+0x278>
 800b706:	f850 6c04 	ldr.w	r6, [r0, #-4]
 800b70a:	f8bc 5000 	ldrh.w	r5, [ip]
 800b70e:	0c31      	lsrs	r1, r6, #16
 800b710:	fb02 1505 	mla	r5, r2, r5, r1
 800b714:	b2b3      	uxth	r3, r6
 800b716:	ea43 4605 	orr.w	r6, r3, r5, lsl #16
 800b71a:	46e1      	mov	r9, ip
 800b71c:	4603      	mov	r3, r0
 800b71e:	f840 6c04 	str.w	r6, [r0, #-4]
 800b722:	f859 1b04 	ldr.w	r1, [r9], #4
 800b726:	f853 6b04 	ldr.w	r6, [r3], #4
 800b72a:	0c09      	lsrs	r1, r1, #16
 800b72c:	fa1f fa86 	uxth.w	sl, r6
 800b730:	fb02 a101 	mla	r1, r2, r1, sl
 800b734:	ea6f 0e0c 	mvn.w	lr, ip
 800b738:	eb04 080e 	add.w	r8, r4, lr
 800b73c:	eb01 4115 	add.w	r1, r1, r5, lsr #16
 800b740:	454c      	cmp	r4, r9
 800b742:	f3c8 0a80 	ubfx	sl, r8, #2, #1
 800b746:	4605      	mov	r5, r0
 800b748:	ea4f 4811 	mov.w	r8, r1, lsr #16
 800b74c:	d955      	bls.n	800b7fa <__multiply+0x276>
 800b74e:	f1ba 0f00 	cmp.w	sl, #0
 800b752:	d01b      	beq.n	800b78c <__multiply+0x208>
 800b754:	f8bc 5004 	ldrh.w	r5, [ip, #4]
 800b758:	0c36      	lsrs	r6, r6, #16
 800b75a:	fb02 6505 	mla	r5, r2, r5, r6
 800b75e:	eb05 0e08 	add.w	lr, r5, r8
 800b762:	b289      	uxth	r1, r1
 800b764:	ea41 460e 	orr.w	r6, r1, lr, lsl #16
 800b768:	f843 6c04 	str.w	r6, [r3, #-4]
 800b76c:	f859 1b04 	ldr.w	r1, [r9], #4
 800b770:	461d      	mov	r5, r3
 800b772:	f853 6b04 	ldr.w	r6, [r3], #4
 800b776:	0c09      	lsrs	r1, r1, #16
 800b778:	fa1f fa86 	uxth.w	sl, r6
 800b77c:	fb02 a101 	mla	r1, r2, r1, sl
 800b780:	eb01 411e 	add.w	r1, r1, lr, lsr #16
 800b784:	454c      	cmp	r4, r9
 800b786:	ea4f 4811 	mov.w	r8, r1, lsr #16
 800b78a:	d936      	bls.n	800b7fa <__multiply+0x276>
 800b78c:	f8b9 b000 	ldrh.w	fp, [r9]
 800b790:	0c35      	lsrs	r5, r6, #16
 800b792:	fb02 5a0b 	mla	sl, r2, fp, r5
 800b796:	44c2      	add	sl, r8
 800b798:	b289      	uxth	r1, r1
 800b79a:	461d      	mov	r5, r3
 800b79c:	464e      	mov	r6, r9
 800b79e:	ea41 410a 	orr.w	r1, r1, sl, lsl #16
 800b7a2:	f843 1c04 	str.w	r1, [r3, #-4]
 800b7a6:	f856 eb04 	ldr.w	lr, [r6], #4
 800b7aa:	f855 1b04 	ldr.w	r1, [r5], #4
 800b7ae:	f8d9 8004 	ldr.w	r8, [r9, #4]
 800b7b2:	fa1f fb81 	uxth.w	fp, r1
 800b7b6:	ea4f 491e 	mov.w	r9, lr, lsr #16
 800b7ba:	0c09      	lsrs	r1, r1, #16
 800b7bc:	fb02 be09 	mla	lr, r2, r9, fp
 800b7c0:	fa1f f888 	uxth.w	r8, r8
 800b7c4:	eb0e 491a 	add.w	r9, lr, sl, lsr #16
 800b7c8:	fb02 1e08 	mla	lr, r2, r8, r1
 800b7cc:	eb0e 4819 	add.w	r8, lr, r9, lsr #16
 800b7d0:	fa1f f189 	uxth.w	r1, r9
 800b7d4:	46b1      	mov	r9, r6
 800b7d6:	ea41 4608 	orr.w	r6, r1, r8, lsl #16
 800b7da:	f845 6c04 	str.w	r6, [r5, #-4]
 800b7de:	f859 1b04 	ldr.w	r1, [r9], #4
 800b7e2:	685e      	ldr	r6, [r3, #4]
 800b7e4:	0c09      	lsrs	r1, r1, #16
 800b7e6:	b2b3      	uxth	r3, r6
 800b7e8:	fb02 3301 	mla	r3, r2, r1, r3
 800b7ec:	eb03 4118 	add.w	r1, r3, r8, lsr #16
 800b7f0:	1d2b      	adds	r3, r5, #4
 800b7f2:	454c      	cmp	r4, r9
 800b7f4:	ea4f 4811 	mov.w	r8, r1, lsr #16
 800b7f8:	d8c8      	bhi.n	800b78c <__multiply+0x208>
 800b7fa:	6029      	str	r1, [r5, #0]
 800b7fc:	9a00      	ldr	r2, [sp, #0]
 800b7fe:	3004      	adds	r0, #4
 800b800:	42ba      	cmp	r2, r7
 800b802:	f63f af0a 	bhi.w	800b61a <__multiply+0x96>
 800b806:	9901      	ldr	r1, [sp, #4]
 800b808:	2900      	cmp	r1, #0
 800b80a:	dd1a      	ble.n	800b842 <__multiply+0x2be>
 800b80c:	9b02      	ldr	r3, [sp, #8]
 800b80e:	f853 0c04 	ldr.w	r0, [r3, #-4]
 800b812:	3b04      	subs	r3, #4
 800b814:	b9a8      	cbnz	r0, 800b842 <__multiply+0x2be>
 800b816:	9901      	ldr	r1, [sp, #4]
 800b818:	1e4a      	subs	r2, r1, #1
 800b81a:	07d0      	lsls	r0, r2, #31
 800b81c:	d517      	bpl.n	800b84e <__multiply+0x2ca>
 800b81e:	f853 0d04 	ldr.w	r0, [r3, #-4]!
 800b822:	9201      	str	r2, [sp, #4]
 800b824:	b968      	cbnz	r0, 800b842 <__multiply+0x2be>
 800b826:	9a01      	ldr	r2, [sp, #4]
 800b828:	e008      	b.n	800b83c <__multiply+0x2b8>
 800b82a:	f853 1c04 	ldr.w	r1, [r3, #-4]
 800b82e:	3b04      	subs	r3, #4
 800b830:	b931      	cbnz	r1, 800b840 <__multiply+0x2bc>
 800b832:	f853 0c04 	ldr.w	r0, [r3, #-4]
 800b836:	3a01      	subs	r2, #1
 800b838:	3b04      	subs	r3, #4
 800b83a:	b908      	cbnz	r0, 800b840 <__multiply+0x2bc>
 800b83c:	3a01      	subs	r2, #1
 800b83e:	d1f4      	bne.n	800b82a <__multiply+0x2a6>
 800b840:	9201      	str	r2, [sp, #4]
 800b842:	9901      	ldr	r1, [sp, #4]
 800b844:	9803      	ldr	r0, [sp, #12]
 800b846:	6101      	str	r1, [r0, #16]
 800b848:	b005      	add	sp, #20
 800b84a:	e8bd 8ff0 	ldmia.w	sp!, {r4, r5, r6, r7, r8, r9, sl, fp, pc}
 800b84e:	460a      	mov	r2, r1
 800b850:	e7f4      	b.n	800b83c <__multiply+0x2b8>
 800b852:	bf00      	nop

0800b854 <__pow5mult>:
 800b854:	f012 0303 	ands.w	r3, r2, #3
 800b858:	e92d 41f0 	stmdb	sp!, {r4, r5, r6, r7, r8, lr}
 800b85c:	4614      	mov	r4, r2
 800b85e:	4680      	mov	r8, r0
 800b860:	460f      	mov	r7, r1
 800b862:	d12b      	bne.n	800b8bc <__pow5mult+0x68>
 800b864:	10a4      	asrs	r4, r4, #2
 800b866:	d01b      	beq.n	800b8a0 <__pow5mult+0x4c>
 800b868:	f8d8 6048 	ldr.w	r6, [r8, #72]	; 0x48
 800b86c:	b92e      	cbnz	r6, 800b87a <__pow5mult+0x26>
 800b86e:	e02e      	b.n	800b8ce <__pow5mult+0x7a>
 800b870:	1064      	asrs	r4, r4, #1
 800b872:	d015      	beq.n	800b8a0 <__pow5mult+0x4c>
 800b874:	6835      	ldr	r5, [r6, #0]
 800b876:	b1b5      	cbz	r5, 800b8a6 <__pow5mult+0x52>
 800b878:	462e      	mov	r6, r5
 800b87a:	07e3      	lsls	r3, r4, #31
 800b87c:	d5f8      	bpl.n	800b870 <__pow5mult+0x1c>
 800b87e:	4639      	mov	r1, r7
 800b880:	4632      	mov	r2, r6
 800b882:	4640      	mov	r0, r8
 800b884:	f7ff fe7e 	bl	800b584 <__multiply>
 800b888:	b1b7      	cbz	r7, 800b8b8 <__pow5mult+0x64>
 800b88a:	687a      	ldr	r2, [r7, #4]
 800b88c:	f8d8 304c 	ldr.w	r3, [r8, #76]	; 0x4c
 800b890:	f853 1022 	ldr.w	r1, [r3, r2, lsl #2]
 800b894:	1064      	asrs	r4, r4, #1
 800b896:	6039      	str	r1, [r7, #0]
 800b898:	f843 7022 	str.w	r7, [r3, r2, lsl #2]
 800b89c:	4607      	mov	r7, r0
 800b89e:	d1e9      	bne.n	800b874 <__pow5mult+0x20>
 800b8a0:	4638      	mov	r0, r7
 800b8a2:	e8bd 81f0 	ldmia.w	sp!, {r4, r5, r6, r7, r8, pc}
 800b8a6:	4631      	mov	r1, r6
 800b8a8:	4632      	mov	r2, r6
 800b8aa:	4640      	mov	r0, r8
 800b8ac:	f7ff fe6a 	bl	800b584 <__multiply>
 800b8b0:	6030      	str	r0, [r6, #0]
 800b8b2:	6005      	str	r5, [r0, #0]
 800b8b4:	4606      	mov	r6, r0
 800b8b6:	e7e0      	b.n	800b87a <__pow5mult+0x26>
 800b8b8:	4607      	mov	r7, r0
 800b8ba:	e7d9      	b.n	800b870 <__pow5mult+0x1c>
 800b8bc:	1e5d      	subs	r5, r3, #1
 800b8be:	4a09      	ldr	r2, [pc, #36]	; (800b8e4 <__pow5mult+0x90>)
 800b8c0:	2300      	movs	r3, #0
 800b8c2:	f852 2025 	ldr.w	r2, [r2, r5, lsl #2]
 800b8c6:	f7ff fd8b 	bl	800b3e0 <__multadd>
 800b8ca:	4607      	mov	r7, r0
 800b8cc:	e7ca      	b.n	800b864 <__pow5mult+0x10>
 800b8ce:	4640      	mov	r0, r8
 800b8d0:	f240 2171 	movw	r1, #625	; 0x271
 800b8d4:	f7ff fe4c 	bl	800b570 <__i2b>
 800b8d8:	4606      	mov	r6, r0
 800b8da:	f8c8 0048 	str.w	r0, [r8, #72]	; 0x48
 800b8de:	2000      	movs	r0, #0
 800b8e0:	6030      	str	r0, [r6, #0]
 800b8e2:	e7ca      	b.n	800b87a <__pow5mult+0x26>
 800b8e4:	0800f9d8 	.word	0x0800f9d8

0800b8e8 <__lshift>:
 800b8e8:	e92d 4ff0 	stmdb	sp!, {r4, r5, r6, r7, r8, r9, sl, fp, lr}
 800b8ec:	4617      	mov	r7, r2
 800b8ee:	690a      	ldr	r2, [r1, #16]
 800b8f0:	688b      	ldr	r3, [r1, #8]
 800b8f2:	117e      	asrs	r6, r7, #5
 800b8f4:	b083      	sub	sp, #12
 800b8f6:	18b4      	adds	r4, r6, r2
 800b8f8:	9401      	str	r4, [sp, #4]
 800b8fa:	3401      	adds	r4, #1
 800b8fc:	429c      	cmp	r4, r3
 800b8fe:	460d      	mov	r5, r1
 800b900:	4680      	mov	r8, r0
 800b902:	6849      	ldr	r1, [r1, #4]
 800b904:	dd03      	ble.n	800b90e <__lshift+0x26>
 800b906:	005b      	lsls	r3, r3, #1
 800b908:	3101      	adds	r1, #1
 800b90a:	429c      	cmp	r4, r3
 800b90c:	dcfb      	bgt.n	800b906 <__lshift+0x1e>
 800b90e:	4640      	mov	r0, r8
 800b910:	f7ff fd36 	bl	800b380 <_Balloc>
 800b914:	2e00      	cmp	r6, #0
 800b916:	f100 0114 	add.w	r1, r0, #20
 800b91a:	dd1f      	ble.n	800b95c <__lshift+0x74>
 800b91c:	2301      	movs	r3, #1
 800b91e:	1e72      	subs	r2, r6, #1
 800b920:	f04f 0c00 	mov.w	ip, #0
 800b924:	42b3      	cmp	r3, r6
 800b926:	f8c1 c000 	str.w	ip, [r1]
 800b92a:	ea02 0103 	and.w	r1, r2, r3
 800b92e:	f100 0218 	add.w	r2, r0, #24
 800b932:	d010      	beq.n	800b956 <__lshift+0x6e>
 800b934:	b131      	cbz	r1, 800b944 <__lshift+0x5c>
 800b936:	2302      	movs	r3, #2
 800b938:	42b3      	cmp	r3, r6
 800b93a:	f8c2 c000 	str.w	ip, [r2]
 800b93e:	f100 021c 	add.w	r2, r0, #28
 800b942:	d008      	beq.n	800b956 <__lshift+0x6e>
 800b944:	4611      	mov	r1, r2
 800b946:	3302      	adds	r3, #2
 800b948:	f841 cb04 	str.w	ip, [r1], #4
 800b94c:	f8c2 c004 	str.w	ip, [r2, #4]
 800b950:	1d0a      	adds	r2, r1, #4
 800b952:	42b3      	cmp	r3, r6
 800b954:	d1f6      	bne.n	800b944 <__lshift+0x5c>
 800b956:	eb00 0183 	add.w	r1, r0, r3, lsl #2
 800b95a:	3114      	adds	r1, #20
 800b95c:	692e      	ldr	r6, [r5, #16]
 800b95e:	eb05 0686 	add.w	r6, r5, r6, lsl #2
 800b962:	3614      	adds	r6, #20
 800b964:	f017 071f 	ands.w	r7, r7, #31
 800b968:	f105 0e14 	add.w	lr, r5, #20
 800b96c:	9700      	str	r7, [sp, #0]
 800b96e:	d05b      	beq.n	800ba28 <__lshift+0x140>
 800b970:	f8de 2000 	ldr.w	r2, [lr]
 800b974:	fa02 f207 	lsl.w	r2, r2, r7
 800b978:	f105 0318 	add.w	r3, r5, #24
 800b97c:	f841 2b04 	str.w	r2, [r1], #4
 800b980:	ea6f 090e 	mvn.w	r9, lr
 800b984:	f853 2c04 	ldr.w	r2, [r3, #-4]
 800b988:	eb06 0a09 	add.w	sl, r6, r9
 800b98c:	f1c7 0e20 	rsb	lr, r7, #32
 800b990:	429e      	cmp	r6, r3
 800b992:	f3ca 0a80 	ubfx	sl, sl, #2, #1
 800b996:	fa22 f90e 	lsr.w	r9, r2, lr
 800b99a:	d931      	bls.n	800ba00 <__lshift+0x118>
 800b99c:	f1ba 0f00 	cmp.w	sl, #0
 800b9a0:	d00f      	beq.n	800b9c2 <__lshift+0xda>
 800b9a2:	681f      	ldr	r7, [r3, #0]
 800b9a4:	9b00      	ldr	r3, [sp, #0]
 800b9a6:	fa07 f703 	lsl.w	r7, r7, r3
 800b9aa:	ea49 0207 	orr.w	r2, r9, r7
 800b9ae:	f105 031c 	add.w	r3, r5, #28
 800b9b2:	f841 2b04 	str.w	r2, [r1], #4
 800b9b6:	f853 7c04 	ldr.w	r7, [r3, #-4]
 800b9ba:	429e      	cmp	r6, r3
 800b9bc:	fa27 f90e 	lsr.w	r9, r7, lr
 800b9c0:	d91e      	bls.n	800ba00 <__lshift+0x118>
 800b9c2:	681a      	ldr	r2, [r3, #0]
 800b9c4:	f8dd b000 	ldr.w	fp, [sp]
 800b9c8:	460f      	mov	r7, r1
 800b9ca:	fa02 fc0b 	lsl.w	ip, r2, fp
 800b9ce:	ea49 090c 	orr.w	r9, r9, ip
 800b9d2:	f847 9b04 	str.w	r9, [r7], #4
 800b9d6:	461a      	mov	r2, r3
 800b9d8:	f8d3 a004 	ldr.w	sl, [r3, #4]
 800b9dc:	f852 3b04 	ldr.w	r3, [r2], #4
 800b9e0:	fa0a fc0b 	lsl.w	ip, sl, fp
 800b9e4:	fa23 fb0e 	lsr.w	fp, r3, lr
 800b9e8:	ea4b 0a0c 	orr.w	sl, fp, ip
 800b9ec:	4613      	mov	r3, r2
 800b9ee:	f8c1 a004 	str.w	sl, [r1, #4]
 800b9f2:	f853 9b04 	ldr.w	r9, [r3], #4
 800b9f6:	1d39      	adds	r1, r7, #4
 800b9f8:	429e      	cmp	r6, r3
 800b9fa:	fa29 f90e 	lsr.w	r9, r9, lr
 800b9fe:	d8e0      	bhi.n	800b9c2 <__lshift+0xda>
 800ba00:	f8c1 9000 	str.w	r9, [r1]
 800ba04:	f1b9 0f00 	cmp.w	r9, #0
 800ba08:	d001      	beq.n	800ba0e <__lshift+0x126>
 800ba0a:	9c01      	ldr	r4, [sp, #4]
 800ba0c:	3402      	adds	r4, #2
 800ba0e:	f8d8 304c 	ldr.w	r3, [r8, #76]	; 0x4c
 800ba12:	686a      	ldr	r2, [r5, #4]
 800ba14:	f853 1022 	ldr.w	r1, [r3, r2, lsl #2]
 800ba18:	3c01      	subs	r4, #1
 800ba1a:	6104      	str	r4, [r0, #16]
 800ba1c:	6029      	str	r1, [r5, #0]
 800ba1e:	f843 5022 	str.w	r5, [r3, r2, lsl #2]
 800ba22:	b003      	add	sp, #12
 800ba24:	e8bd 8ff0 	ldmia.w	sp!, {r4, r5, r6, r7, r8, r9, sl, fp, pc}
 800ba28:	ea6f 030e 	mvn.w	r3, lr
 800ba2c:	f8de 7000 	ldr.w	r7, [lr]
 800ba30:	f105 0218 	add.w	r2, r5, #24
 800ba34:	18f3      	adds	r3, r6, r3
 800ba36:	4296      	cmp	r6, r2
 800ba38:	f841 7b04 	str.w	r7, [r1], #4
 800ba3c:	f3c3 0380 	ubfx	r3, r3, #2, #1
 800ba40:	d9e5      	bls.n	800ba0e <__lshift+0x126>
 800ba42:	b133      	cbz	r3, 800ba52 <__lshift+0x16a>
 800ba44:	6813      	ldr	r3, [r2, #0]
 800ba46:	f105 021c 	add.w	r2, r5, #28
 800ba4a:	4296      	cmp	r6, r2
 800ba4c:	f841 3b04 	str.w	r3, [r1], #4
 800ba50:	d9dd      	bls.n	800ba0e <__lshift+0x126>
 800ba52:	4694      	mov	ip, r2
 800ba54:	460f      	mov	r7, r1
 800ba56:	f85c 3b04 	ldr.w	r3, [ip], #4
 800ba5a:	f847 3b04 	str.w	r3, [r7], #4
 800ba5e:	6853      	ldr	r3, [r2, #4]
 800ba60:	f10c 0204 	add.w	r2, ip, #4
 800ba64:	604b      	str	r3, [r1, #4]
 800ba66:	1d39      	adds	r1, r7, #4
 800ba68:	4296      	cmp	r6, r2
 800ba6a:	d8f2      	bhi.n	800ba52 <__lshift+0x16a>
 800ba6c:	e7cf      	b.n	800ba0e <__lshift+0x126>
 800ba6e:	bf00      	nop

0800ba70 <__mcmp>:
 800ba70:	b4f0      	push	{r4, r5, r6, r7}
 800ba72:	690b      	ldr	r3, [r1, #16]
 800ba74:	4605      	mov	r5, r0
 800ba76:	6900      	ldr	r0, [r0, #16]
 800ba78:	1ac0      	subs	r0, r0, r3
 800ba7a:	d124      	bne.n	800bac6 <__mcmp+0x56>
 800ba7c:	1d1a      	adds	r2, r3, #4
 800ba7e:	0094      	lsls	r4, r2, #2
 800ba80:	192b      	adds	r3, r5, r4
 800ba82:	1d1e      	adds	r6, r3, #4
 800ba84:	1909      	adds	r1, r1, r4
 800ba86:	3514      	adds	r5, #20
 800ba88:	f856 4c04 	ldr.w	r4, [r6, #-4]
 800ba8c:	680a      	ldr	r2, [r1, #0]
 800ba8e:	43ef      	mvns	r7, r5
 800ba90:	19be      	adds	r6, r7, r6
 800ba92:	4294      	cmp	r4, r2
 800ba94:	f3c6 0680 	ubfx	r6, r6, #2, #1
 800ba98:	d110      	bne.n	800babc <__mcmp+0x4c>
 800ba9a:	429d      	cmp	r5, r3
 800ba9c:	d213      	bcs.n	800bac6 <__mcmp+0x56>
 800ba9e:	b13e      	cbz	r6, 800bab0 <__mcmp+0x40>
 800baa0:	f853 4d04 	ldr.w	r4, [r3, #-4]!
 800baa4:	f851 2d04 	ldr.w	r2, [r1, #-4]!
 800baa8:	4294      	cmp	r4, r2
 800baaa:	d107      	bne.n	800babc <__mcmp+0x4c>
 800baac:	429d      	cmp	r5, r3
 800baae:	d20a      	bcs.n	800bac6 <__mcmp+0x56>
 800bab0:	f853 4d04 	ldr.w	r4, [r3, #-4]!
 800bab4:	f851 2d04 	ldr.w	r2, [r1, #-4]!
 800bab8:	4294      	cmp	r4, r2
 800baba:	d0f1      	beq.n	800baa0 <__mcmp+0x30>
 800babc:	42a2      	cmp	r2, r4
 800babe:	bf94      	ite	ls
 800bac0:	2001      	movls	r0, #1
 800bac2:	f04f 30ff 	movhi.w	r0, #4294967295
 800bac6:	bcf0      	pop	{r4, r5, r6, r7}
 800bac8:	4770      	bx	lr
 800baca:	bf00      	nop

0800bacc <__mdiff>:
 800bacc:	e92d 4ff8 	stmdb	sp!, {r3, r4, r5, r6, r7, r8, r9, sl, fp, lr}
 800bad0:	460f      	mov	r7, r1
 800bad2:	4605      	mov	r5, r0
 800bad4:	4611      	mov	r1, r2
 800bad6:	4638      	mov	r0, r7
 800bad8:	4693      	mov	fp, r2
 800bada:	f7ff ffc9 	bl	800ba70 <__mcmp>
 800bade:	1e04      	subs	r4, r0, #0
 800bae0:	f000 80f1 	beq.w	800bcc6 <__mdiff+0x1fa>
 800bae4:	f2c0 80ea 	blt.w	800bcbc <__mdiff+0x1f0>
 800bae8:	2400      	movs	r4, #0
 800baea:	4628      	mov	r0, r5
 800baec:	6879      	ldr	r1, [r7, #4]
 800baee:	f7ff fc47 	bl	800b380 <_Balloc>
 800baf2:	f8db 6014 	ldr.w	r6, [fp, #20]
 800baf6:	697a      	ldr	r2, [r7, #20]
 800baf8:	f8db 5010 	ldr.w	r5, [fp, #16]
 800bafc:	60c4      	str	r4, [r0, #12]
 800bafe:	fa1f fc82 	uxth.w	ip, r2
 800bb02:	ea4f 4a16 	mov.w	sl, r6, lsr #16
 800bb06:	b2b4      	uxth	r4, r6
 800bb08:	ebc4 060c 	rsb	r6, r4, ip
 800bb0c:	693b      	ldr	r3, [r7, #16]
 800bb0e:	eb0b 0585 	add.w	r5, fp, r5, lsl #2
 800bb12:	ebca 4212 	rsb	r2, sl, r2, lsr #16
 800bb16:	f10b 0114 	add.w	r1, fp, #20
 800bb1a:	eb02 4a26 	add.w	sl, r2, r6, asr #16
 800bb1e:	f105 0814 	add.w	r8, r5, #20
 800bb22:	43c9      	mvns	r1, r1
 800bb24:	b2b4      	uxth	r4, r6
 800bb26:	f10b 0618 	add.w	r6, fp, #24
 800bb2a:	eb08 0201 	add.w	r2, r8, r1
 800bb2e:	ea44 440a 	orr.w	r4, r4, sl, lsl #16
 800bb32:	eb07 0983 	add.w	r9, r7, r3, lsl #2
 800bb36:	f100 0518 	add.w	r5, r0, #24
 800bb3a:	45b0      	cmp	r8, r6
 800bb3c:	f3c2 0180 	ubfx	r1, r2, #2, #1
 800bb40:	6144      	str	r4, [r0, #20]
 800bb42:	f109 0914 	add.w	r9, r9, #20
 800bb46:	f107 0c18 	add.w	ip, r7, #24
 800bb4a:	ea4f 4a2a 	mov.w	sl, sl, asr #16
 800bb4e:	462a      	mov	r2, r5
 800bb50:	d952      	bls.n	800bbf8 <__mdiff+0x12c>
 800bb52:	b1d9      	cbz	r1, 800bb8c <__mdiff+0xc0>
 800bb54:	f8dc 2000 	ldr.w	r2, [ip]
 800bb58:	6836      	ldr	r6, [r6, #0]
 800bb5a:	fa1a fe82 	uxtah	lr, sl, r2
 800bb5e:	0c31      	lsrs	r1, r6, #16
 800bb60:	b2b4      	uxth	r4, r6
 800bb62:	ebc4 060e 	rsb	r6, r4, lr
 800bb66:	ebc1 4c12 	rsb	ip, r1, r2, lsr #16
 800bb6a:	eb0c 4a26 	add.w	sl, ip, r6, asr #16
 800bb6e:	b2b2      	uxth	r2, r6
 800bb70:	ea42 440a 	orr.w	r4, r2, sl, lsl #16
 800bb74:	f10b 061c 	add.w	r6, fp, #28
 800bb78:	602c      	str	r4, [r5, #0]
 800bb7a:	45b0      	cmp	r8, r6
 800bb7c:	f100 051c 	add.w	r5, r0, #28
 800bb80:	f107 0c1c 	add.w	ip, r7, #28
 800bb84:	ea4f 4a2a 	mov.w	sl, sl, asr #16
 800bb88:	462a      	mov	r2, r5
 800bb8a:	d935      	bls.n	800bbf8 <__mdiff+0x12c>
 800bb8c:	4662      	mov	r2, ip
 800bb8e:	4637      	mov	r7, r6
 800bb90:	f852 1b04 	ldr.w	r1, [r2], #4
 800bb94:	f857 4b04 	ldr.w	r4, [r7], #4
 800bb98:	fa1a fe81 	uxtah	lr, sl, r1
 800bb9c:	fa1f fb84 	uxth.w	fp, r4
 800bba0:	0c24      	lsrs	r4, r4, #16
 800bba2:	ebcb 0a0e 	rsb	sl, fp, lr
 800bba6:	ebc4 4111 	rsb	r1, r4, r1, lsr #16
 800bbaa:	eb01 442a 	add.w	r4, r1, sl, asr #16
 800bbae:	fa1f fe8a 	uxth.w	lr, sl
 800bbb2:	4629      	mov	r1, r5
 800bbb4:	ea4e 4b04 	orr.w	fp, lr, r4, lsl #16
 800bbb8:	f841 bb04 	str.w	fp, [r1], #4
 800bbbc:	f8dc c004 	ldr.w	ip, [ip, #4]
 800bbc0:	6876      	ldr	r6, [r6, #4]
 800bbc2:	fa1f fa8c 	uxth.w	sl, ip
 800bbc6:	eb0a 4424 	add.w	r4, sl, r4, asr #16
 800bbca:	fa1f fb86 	uxth.w	fp, r6
 800bbce:	ea4f 4616 	mov.w	r6, r6, lsr #16
 800bbd2:	ebcb 0404 	rsb	r4, fp, r4
 800bbd6:	ebc6 4e1c 	rsb	lr, r6, ip, lsr #16
 800bbda:	eb0e 4a24 	add.w	sl, lr, r4, asr #16
 800bbde:	b2a6      	uxth	r6, r4
 800bbe0:	ea46 440a 	orr.w	r4, r6, sl, lsl #16
 800bbe4:	1d3e      	adds	r6, r7, #4
 800bbe6:	606c      	str	r4, [r5, #4]
 800bbe8:	1d0d      	adds	r5, r1, #4
 800bbea:	45b0      	cmp	r8, r6
 800bbec:	f102 0c04 	add.w	ip, r2, #4
 800bbf0:	ea4f 4a2a 	mov.w	sl, sl, asr #16
 800bbf4:	462a      	mov	r2, r5
 800bbf6:	d8c9      	bhi.n	800bb8c <__mdiff+0xc0>
 800bbf8:	45e1      	cmp	r9, ip
 800bbfa:	d955      	bls.n	800bca8 <__mdiff+0x1dc>
 800bbfc:	4662      	mov	r2, ip
 800bbfe:	ea6f 040c 	mvn.w	r4, ip
 800bc02:	f852 1b04 	ldr.w	r1, [r2], #4
 800bc06:	fa1a fe81 	uxtah	lr, sl, r1
 800bc0a:	ea4f 4811 	mov.w	r8, r1, lsr #16
 800bc0e:	eb08 482e 	add.w	r8, r8, lr, asr #16
 800bc12:	fa1f fa8e 	uxth.w	sl, lr
 800bc16:	4629      	mov	r1, r5
 800bc18:	eb09 0604 	add.w	r6, r9, r4
 800bc1c:	4591      	cmp	r9, r2
 800bc1e:	ea4a 4408 	orr.w	r4, sl, r8, lsl #16
 800bc22:	f841 4b04 	str.w	r4, [r1], #4
 800bc26:	f3c6 0680 	ubfx	r6, r6, #2, #1
 800bc2a:	ea4f 4828 	mov.w	r8, r8, asr #16
 800bc2e:	d933      	bls.n	800bc98 <__mdiff+0x1cc>
 800bc30:	b186      	cbz	r6, 800bc54 <__mdiff+0x188>
 800bc32:	f852 4b04 	ldr.w	r4, [r2], #4
 800bc36:	fa18 fe84 	uxtah	lr, r8, r4
 800bc3a:	0c26      	lsrs	r6, r4, #16
 800bc3c:	eb06 462e 	add.w	r6, r6, lr, asr #16
 800bc40:	fa1f f88e 	uxth.w	r8, lr
 800bc44:	ea48 4406 	orr.w	r4, r8, r6, lsl #16
 800bc48:	4591      	cmp	r9, r2
 800bc4a:	f841 4b04 	str.w	r4, [r1], #4
 800bc4e:	ea4f 4826 	mov.w	r8, r6, asr #16
 800bc52:	d921      	bls.n	800bc98 <__mdiff+0x1cc>
 800bc54:	4617      	mov	r7, r2
 800bc56:	460e      	mov	r6, r1
 800bc58:	f857 4b04 	ldr.w	r4, [r7], #4
 800bc5c:	fa18 fe84 	uxtah	lr, r8, r4
 800bc60:	0c24      	lsrs	r4, r4, #16
 800bc62:	eb04 442e 	add.w	r4, r4, lr, asr #16
 800bc66:	fa1f f88e 	uxth.w	r8, lr
 800bc6a:	ea48 4e04 	orr.w	lr, r8, r4, lsl #16
 800bc6e:	f846 eb04 	str.w	lr, [r6], #4
 800bc72:	6852      	ldr	r2, [r2, #4]
 800bc74:	fa1f f882 	uxth.w	r8, r2
 800bc78:	eb08 4424 	add.w	r4, r8, r4, asr #16
 800bc7c:	ea4f 4212 	mov.w	r2, r2, lsr #16
 800bc80:	eb02 4e24 	add.w	lr, r2, r4, asr #16
 800bc84:	b2a4      	uxth	r4, r4
 800bc86:	ea44 440e 	orr.w	r4, r4, lr, lsl #16
 800bc8a:	1d3a      	adds	r2, r7, #4
 800bc8c:	604c      	str	r4, [r1, #4]
 800bc8e:	1d31      	adds	r1, r6, #4
 800bc90:	4591      	cmp	r9, r2
 800bc92:	ea4f 482e 	mov.w	r8, lr, asr #16
 800bc96:	d8dd      	bhi.n	800bc54 <__mdiff+0x188>
 800bc98:	ea6f 010c 	mvn.w	r1, ip
 800bc9c:	eb01 0209 	add.w	r2, r1, r9
 800bca0:	f022 0103 	bic.w	r1, r2, #3
 800bca4:	1d0a      	adds	r2, r1, #4
 800bca6:	18aa      	adds	r2, r5, r2
 800bca8:	3a04      	subs	r2, #4
 800bcaa:	b924      	cbnz	r4, 800bcb6 <__mdiff+0x1ea>
 800bcac:	f852 1d04 	ldr.w	r1, [r2, #-4]!
 800bcb0:	3b01      	subs	r3, #1
 800bcb2:	2900      	cmp	r1, #0
 800bcb4:	d0fa      	beq.n	800bcac <__mdiff+0x1e0>
 800bcb6:	6103      	str	r3, [r0, #16]
 800bcb8:	e8bd 8ff8 	ldmia.w	sp!, {r3, r4, r5, r6, r7, r8, r9, sl, fp, pc}
 800bcbc:	463b      	mov	r3, r7
 800bcbe:	2401      	movs	r4, #1
 800bcc0:	465f      	mov	r7, fp
 800bcc2:	469b      	mov	fp, r3
 800bcc4:	e711      	b.n	800baea <__mdiff+0x1e>
 800bcc6:	4628      	mov	r0, r5
 800bcc8:	4621      	mov	r1, r4
 800bcca:	f7ff fb59 	bl	800b380 <_Balloc>
 800bcce:	2201      	movs	r2, #1
 800bcd0:	6102      	str	r2, [r0, #16]
 800bcd2:	6144      	str	r4, [r0, #20]
 800bcd4:	e8bd 8ff8 	ldmia.w	sp!, {r3, r4, r5, r6, r7, r8, r9, sl, fp, pc}

0800bcd8 <__d2b>:
 800bcd8:	e92d 43f0 	stmdb	sp!, {r4, r5, r6, r7, r8, r9, lr}
 800bcdc:	4689      	mov	r9, r1
 800bcde:	b083      	sub	sp, #12
 800bce0:	2101      	movs	r1, #1
 800bce2:	ec55 4b10 	vmov	r4, r5, d0
 800bce6:	4690      	mov	r8, r2
 800bce8:	f7ff fb4a 	bl	800b380 <_Balloc>
 800bcec:	f3c5 570a 	ubfx	r7, r5, #20, #11
 800bcf0:	f025 437f 	bic.w	r3, r5, #4278190080	; 0xff000000
 800bcf4:	4606      	mov	r6, r0
 800bcf6:	f423 0070 	bic.w	r0, r3, #15728640	; 0xf00000
 800bcfa:	b10f      	cbz	r7, 800bd00 <__d2b+0x28>
 800bcfc:	f440 1080 	orr.w	r0, r0, #1048576	; 0x100000
 800bd00:	9001      	str	r0, [sp, #4]
 800bd02:	2c00      	cmp	r4, #0
 800bd04:	d022      	beq.n	800bd4c <__d2b+0x74>
 800bd06:	aa02      	add	r2, sp, #8
 800bd08:	4668      	mov	r0, sp
 800bd0a:	f842 4d08 	str.w	r4, [r2, #-8]!
 800bd0e:	f7ff fc01 	bl	800b514 <__lo0bits>
 800bd12:	9b01      	ldr	r3, [sp, #4]
 800bd14:	2800      	cmp	r0, #0
 800bd16:	d12d      	bne.n	800bd74 <__d2b+0x9c>
 800bd18:	9c00      	ldr	r4, [sp, #0]
 800bd1a:	6174      	str	r4, [r6, #20]
 800bd1c:	2b00      	cmp	r3, #0
 800bd1e:	bf0c      	ite	eq
 800bd20:	2401      	moveq	r4, #1
 800bd22:	2402      	movne	r4, #2
 800bd24:	61b3      	str	r3, [r6, #24]
 800bd26:	6134      	str	r4, [r6, #16]
 800bd28:	b9d7      	cbnz	r7, 800bd60 <__d2b+0x88>
 800bd2a:	eb06 0284 	add.w	r2, r6, r4, lsl #2
 800bd2e:	f2a0 4332 	subw	r3, r0, #1074	; 0x432
 800bd32:	6910      	ldr	r0, [r2, #16]
 800bd34:	f8c9 3000 	str.w	r3, [r9]
 800bd38:	f7ff fbce 	bl	800b4d8 <__hi0bits>
 800bd3c:	ebc0 1044 	rsb	r0, r0, r4, lsl #5
 800bd40:	f8c8 0000 	str.w	r0, [r8]
 800bd44:	4630      	mov	r0, r6
 800bd46:	b003      	add	sp, #12
 800bd48:	e8bd 83f0 	ldmia.w	sp!, {r4, r5, r6, r7, r8, r9, pc}
 800bd4c:	a801      	add	r0, sp, #4
 800bd4e:	f7ff fbe1 	bl	800b514 <__lo0bits>
 800bd52:	9901      	ldr	r1, [sp, #4]
 800bd54:	2401      	movs	r4, #1
 800bd56:	6171      	str	r1, [r6, #20]
 800bd58:	6134      	str	r4, [r6, #16]
 800bd5a:	3020      	adds	r0, #32
 800bd5c:	2f00      	cmp	r7, #0
 800bd5e:	d0e4      	beq.n	800bd2a <__d2b+0x52>
 800bd60:	f2a7 4733 	subw	r7, r7, #1075	; 0x433
 800bd64:	183f      	adds	r7, r7, r0
 800bd66:	f1c0 0135 	rsb	r1, r0, #53	; 0x35
 800bd6a:	f8c9 7000 	str.w	r7, [r9]
 800bd6e:	f8c8 1000 	str.w	r1, [r8]
 800bd72:	e7e7      	b.n	800bd44 <__d2b+0x6c>
 800bd74:	f1c0 0120 	rsb	r1, r0, #32
 800bd78:	9a00      	ldr	r2, [sp, #0]
 800bd7a:	fa03 f401 	lsl.w	r4, r3, r1
 800bd7e:	ea44 0102 	orr.w	r1, r4, r2
 800bd82:	fa23 f300 	lsr.w	r3, r3, r0
 800bd86:	6171      	str	r1, [r6, #20]
 800bd88:	9301      	str	r3, [sp, #4]
 800bd8a:	e7c7      	b.n	800bd1c <__d2b+0x44>

0800bd8c <__fpclassifyd>:
 800bd8c:	ec53 2b10 	vmov	r2, r3, d0
 800bd90:	ee10 0a10 	vmov	r0, s0
 800bd94:	461a      	mov	r2, r3
 800bd96:	b163      	cbz	r3, 800bdb2 <__fpclassifyd+0x26>
 800bd98:	f1b3 4f00 	cmp.w	r3, #2147483648	; 0x80000000
 800bd9c:	d009      	beq.n	800bdb2 <__fpclassifyd+0x26>
 800bd9e:	f64f 73ff 	movw	r3, #65535	; 0xffff
 800bda2:	f5a2 1180 	sub.w	r1, r2, #1048576	; 0x100000
 800bda6:	f6c7 73df 	movt	r3, #32735	; 0x7fdf
 800bdaa:	4299      	cmp	r1, r3
 800bdac:	d805      	bhi.n	800bdba <__fpclassifyd+0x2e>
 800bdae:	2004      	movs	r0, #4
 800bdb0:	4770      	bx	lr
 800bdb2:	2800      	cmp	r0, #0
 800bdb4:	d1f3      	bne.n	800bd9e <__fpclassifyd+0x12>
 800bdb6:	2002      	movs	r0, #2
 800bdb8:	4770      	bx	lr
 800bdba:	f102 41ff 	add.w	r1, r2, #2139095040	; 0x7f800000
 800bdbe:	f501 01e0 	add.w	r1, r1, #7340032	; 0x700000
 800bdc2:	4299      	cmp	r1, r3
 800bdc4:	d9f3      	bls.n	800bdae <__fpclassifyd+0x22>
 800bdc6:	f64f 73ff 	movw	r3, #65535	; 0xffff
 800bdca:	f2c0 030f 	movt	r3, #15
 800bdce:	429a      	cmp	r2, r3
 800bdd0:	d801      	bhi.n	800bdd6 <__fpclassifyd+0x4a>
 800bdd2:	2003      	movs	r0, #3
 800bdd4:	4770      	bx	lr
 800bdd6:	f102 4100 	add.w	r1, r2, #2147483648	; 0x80000000
 800bdda:	4299      	cmp	r1, r3
 800bddc:	d9f9      	bls.n	800bdd2 <__fpclassifyd+0x46>
 800bdde:	2300      	movs	r3, #0
 800bde0:	f6c7 73f0 	movt	r3, #32752	; 0x7ff0
 800bde4:	429a      	cmp	r2, r3
 800bde6:	d004      	beq.n	800bdf2 <__fpclassifyd+0x66>
 800bde8:	f512 1f80 	cmn.w	r2, #1048576	; 0x100000
 800bdec:	d001      	beq.n	800bdf2 <__fpclassifyd+0x66>
 800bdee:	2000      	movs	r0, #0
 800bdf0:	4770      	bx	lr
 800bdf2:	f1d0 0001 	rsbs	r0, r0, #1
 800bdf6:	bf38      	it	cc
 800bdf8:	2000      	movcc	r0, #0
 800bdfa:	4770      	bx	lr

0800bdfc <__ssprint_r>:
 800bdfc:	e92d 4ff0 	stmdb	sp!, {r4, r5, r6, r7, r8, r9, sl, fp, lr}
 800be00:	6894      	ldr	r4, [r2, #8]
 800be02:	6817      	ldr	r7, [r2, #0]
 800be04:	b083      	sub	sp, #12
 800be06:	4692      	mov	sl, r2
 800be08:	4681      	mov	r9, r0
 800be0a:	460d      	mov	r5, r1
 800be0c:	2c00      	cmp	r4, #0
 800be0e:	d06e      	beq.n	800beee <__ssprint_r+0xf2>
 800be10:	f04f 0b00 	mov.w	fp, #0
 800be14:	6808      	ldr	r0, [r1, #0]
 800be16:	688e      	ldr	r6, [r1, #8]
 800be18:	465c      	mov	r4, fp
 800be1a:	2c00      	cmp	r4, #0
 800be1c:	d047      	beq.n	800beae <__ssprint_r+0xb2>
 800be1e:	42b4      	cmp	r4, r6
 800be20:	46b0      	mov	r8, r6
 800be22:	d349      	bcc.n	800beb8 <__ssprint_r+0xbc>
 800be24:	89ab      	ldrh	r3, [r5, #12]
 800be26:	f413 6f90 	tst.w	r3, #1152	; 0x480
 800be2a:	d030      	beq.n	800be8e <__ssprint_r+0x92>
 800be2c:	696e      	ldr	r6, [r5, #20]
 800be2e:	6929      	ldr	r1, [r5, #16]
 800be30:	eb06 0246 	add.w	r2, r6, r6, lsl #1
 800be34:	ebc1 0800 	rsb	r8, r1, r0
 800be38:	eb02 76d2 	add.w	r6, r2, r2, lsr #31
 800be3c:	1c60      	adds	r0, r4, #1
 800be3e:	1076      	asrs	r6, r6, #1
 800be40:	4440      	add	r0, r8
 800be42:	4286      	cmp	r6, r0
 800be44:	f403 6380 	and.w	r3, r3, #1024	; 0x400
 800be48:	4632      	mov	r2, r6
 800be4a:	b21b      	sxth	r3, r3
 800be4c:	bf3c      	itt	cc
 800be4e:	4606      	movcc	r6, r0
 800be50:	4632      	movcc	r2, r6
 800be52:	4648      	mov	r0, r9
 800be54:	2b00      	cmp	r3, #0
 800be56:	d032      	beq.n	800bebe <__ssprint_r+0xc2>
 800be58:	4611      	mov	r1, r2
 800be5a:	f7fb fb41 	bl	80074e0 <_malloc_r>
 800be5e:	2800      	cmp	r0, #0
 800be60:	d036      	beq.n	800bed0 <__ssprint_r+0xd4>
 800be62:	6929      	ldr	r1, [r5, #16]
 800be64:	9001      	str	r0, [sp, #4]
 800be66:	4642      	mov	r2, r8
 800be68:	f7fb fe44 	bl	8007af4 <memcpy>
 800be6c:	89aa      	ldrh	r2, [r5, #12]
 800be6e:	f422 6090 	bic.w	r0, r2, #1152	; 0x480
 800be72:	f040 0180 	orr.w	r1, r0, #128	; 0x80
 800be76:	81a9      	strh	r1, [r5, #12]
 800be78:	9901      	ldr	r1, [sp, #4]
 800be7a:	ebc8 0306 	rsb	r3, r8, r6
 800be7e:	eb01 0008 	add.w	r0, r1, r8
 800be82:	616e      	str	r6, [r5, #20]
 800be84:	6129      	str	r1, [r5, #16]
 800be86:	6028      	str	r0, [r5, #0]
 800be88:	4626      	mov	r6, r4
 800be8a:	60ab      	str	r3, [r5, #8]
 800be8c:	46a0      	mov	r8, r4
 800be8e:	4659      	mov	r1, fp
 800be90:	4642      	mov	r2, r8
 800be92:	f000 f863 	bl	800bf5c <memmove>
 800be96:	f8da 1008 	ldr.w	r1, [sl, #8]
 800be9a:	68aa      	ldr	r2, [r5, #8]
 800be9c:	6828      	ldr	r0, [r5, #0]
 800be9e:	1b96      	subs	r6, r2, r6
 800bea0:	4440      	add	r0, r8
 800bea2:	1b0c      	subs	r4, r1, r4
 800bea4:	60ae      	str	r6, [r5, #8]
 800bea6:	6028      	str	r0, [r5, #0]
 800bea8:	f8ca 4008 	str.w	r4, [sl, #8]
 800beac:	b1fc      	cbz	r4, 800beee <__ssprint_r+0xf2>
 800beae:	f8d7 b000 	ldr.w	fp, [r7]
 800beb2:	687c      	ldr	r4, [r7, #4]
 800beb4:	3708      	adds	r7, #8
 800beb6:	e7b0      	b.n	800be1a <__ssprint_r+0x1e>
 800beb8:	4626      	mov	r6, r4
 800beba:	46a0      	mov	r8, r4
 800bebc:	e7e7      	b.n	800be8e <__ssprint_r+0x92>
 800bebe:	f000 f919 	bl	800c0f4 <_realloc_r>
 800bec2:	4601      	mov	r1, r0
 800bec4:	2800      	cmp	r0, #0
 800bec6:	d1d8      	bne.n	800be7a <__ssprint_r+0x7e>
 800bec8:	4648      	mov	r0, r9
 800beca:	6929      	ldr	r1, [r5, #16]
 800becc:	f7ff f8e8 	bl	800b0a0 <_free_r>
 800bed0:	89aa      	ldrh	r2, [r5, #12]
 800bed2:	2100      	movs	r1, #0
 800bed4:	f042 0040 	orr.w	r0, r2, #64	; 0x40
 800bed8:	230c      	movs	r3, #12
 800beda:	f8c9 3000 	str.w	r3, [r9]
 800bede:	81a8      	strh	r0, [r5, #12]
 800bee0:	f04f 30ff 	mov.w	r0, #4294967295
 800bee4:	f8ca 1008 	str.w	r1, [sl, #8]
 800bee8:	f8ca 1004 	str.w	r1, [sl, #4]
 800beec:	e002      	b.n	800bef4 <__ssprint_r+0xf8>
 800beee:	f8ca 4004 	str.w	r4, [sl, #4]
 800bef2:	4620      	mov	r0, r4
 800bef4:	b003      	add	sp, #12
 800bef6:	e8bd 8ff0 	ldmia.w	sp!, {r4, r5, r6, r7, r8, r9, sl, fp, pc}
 800befa:	bf00      	nop

0800befc <_calloc_r>:
 800befc:	b510      	push	{r4, lr}
 800befe:	fb01 f102 	mul.w	r1, r1, r2
 800bf02:	f7fb faed 	bl	80074e0 <_malloc_r>
 800bf06:	4604      	mov	r4, r0
 800bf08:	b168      	cbz	r0, 800bf26 <_calloc_r+0x2a>
 800bf0a:	f850 2c04 	ldr.w	r2, [r0, #-4]
 800bf0e:	f022 0103 	bic.w	r1, r2, #3
 800bf12:	1f0a      	subs	r2, r1, #4
 800bf14:	2a24      	cmp	r2, #36	; 0x24
 800bf16:	d818      	bhi.n	800bf4a <_calloc_r+0x4e>
 800bf18:	2a13      	cmp	r2, #19
 800bf1a:	d806      	bhi.n	800bf2a <_calloc_r+0x2e>
 800bf1c:	4603      	mov	r3, r0
 800bf1e:	2000      	movs	r0, #0
 800bf20:	6018      	str	r0, [r3, #0]
 800bf22:	6058      	str	r0, [r3, #4]
 800bf24:	6098      	str	r0, [r3, #8]
 800bf26:	4620      	mov	r0, r4
 800bf28:	bd10      	pop	{r4, pc}
 800bf2a:	2300      	movs	r3, #0
 800bf2c:	2a1b      	cmp	r2, #27
 800bf2e:	6003      	str	r3, [r0, #0]
 800bf30:	6043      	str	r3, [r0, #4]
 800bf32:	d90f      	bls.n	800bf54 <_calloc_r+0x58>
 800bf34:	2a24      	cmp	r2, #36	; 0x24
 800bf36:	6083      	str	r3, [r0, #8]
 800bf38:	60c3      	str	r3, [r0, #12]
 800bf3a:	bf05      	ittet	eq
 800bf3c:	6103      	streq	r3, [r0, #16]
 800bf3e:	6143      	streq	r3, [r0, #20]
 800bf40:	f100 0310 	addne.w	r3, r0, #16
 800bf44:	f100 0318 	addeq.w	r3, r0, #24
 800bf48:	e7e9      	b.n	800bf1e <_calloc_r+0x22>
 800bf4a:	2100      	movs	r1, #0
 800bf4c:	f7fb fe74 	bl	8007c38 <memset>
 800bf50:	4620      	mov	r0, r4
 800bf52:	bd10      	pop	{r4, pc}
 800bf54:	f100 0308 	add.w	r3, r0, #8
 800bf58:	e7e1      	b.n	800bf1e <_calloc_r+0x22>
 800bf5a:	bf00      	nop

0800bf5c <memmove>:
 800bf5c:	4288      	cmp	r0, r1
 800bf5e:	e92d 03f0 	stmdb	sp!, {r4, r5, r6, r7, r8, r9}
 800bf62:	d926      	bls.n	800bfb2 <memmove+0x56>
 800bf64:	188c      	adds	r4, r1, r2
 800bf66:	42a0      	cmp	r0, r4
 800bf68:	d223      	bcs.n	800bfb2 <memmove+0x56>
 800bf6a:	1883      	adds	r3, r0, r2
 800bf6c:	1e55      	subs	r5, r2, #1
 800bf6e:	b1ea      	cbz	r2, 800bfac <memmove+0x50>
 800bf70:	4622      	mov	r2, r4
 800bf72:	f005 0401 	and.w	r4, r5, #1
 800bf76:	f812 1d01 	ldrb.w	r1, [r2, #-1]!
 800bf7a:	f803 1d01 	strb.w	r1, [r3, #-1]!
 800bf7e:	1e69      	subs	r1, r5, #1
 800bf80:	b1a5      	cbz	r5, 800bfac <memmove+0x50>
 800bf82:	b13c      	cbz	r4, 800bf94 <memmove+0x38>
 800bf84:	f812 4d01 	ldrb.w	r4, [r2, #-1]!
 800bf88:	3901      	subs	r1, #1
 800bf8a:	f1b1 3fff 	cmp.w	r1, #4294967295
 800bf8e:	f803 4d01 	strb.w	r4, [r3, #-1]!
 800bf92:	d00b      	beq.n	800bfac <memmove+0x50>
 800bf94:	f812 4d01 	ldrb.w	r4, [r2, #-1]!
 800bf98:	f803 4d01 	strb.w	r4, [r3, #-1]!
 800bf9c:	3902      	subs	r1, #2
 800bf9e:	f812 4d01 	ldrb.w	r4, [r2, #-1]!
 800bfa2:	f1b1 3fff 	cmp.w	r1, #4294967295
 800bfa6:	f803 4d01 	strb.w	r4, [r3, #-1]!
 800bfaa:	d1f3      	bne.n	800bf94 <memmove+0x38>
 800bfac:	e8bd 03f0 	ldmia.w	sp!, {r4, r5, r6, r7, r8, r9}
 800bfb0:	4770      	bx	lr
 800bfb2:	2a0f      	cmp	r2, #15
 800bfb4:	f240 8096 	bls.w	800c0e4 <memmove+0x188>
 800bfb8:	ea41 0300 	orr.w	r3, r1, r0
 800bfbc:	079b      	lsls	r3, r3, #30
 800bfbe:	f040 8093 	bne.w	800c0e8 <memmove+0x18c>
 800bfc2:	680c      	ldr	r4, [r1, #0]
 800bfc4:	6004      	str	r4, [r0, #0]
 800bfc6:	684d      	ldr	r5, [r1, #4]
 800bfc8:	6045      	str	r5, [r0, #4]
 800bfca:	688e      	ldr	r6, [r1, #8]
 800bfcc:	f1a2 0310 	sub.w	r3, r2, #16
 800bfd0:	6086      	str	r6, [r0, #8]
 800bfd2:	68cc      	ldr	r4, [r1, #12]
 800bfd4:	461d      	mov	r5, r3
 800bfd6:	2d0f      	cmp	r5, #15
 800bfd8:	60c4      	str	r4, [r0, #12]
 800bfda:	f3c3 1600 	ubfx	r6, r3, #4, #1
 800bfde:	f101 0410 	add.w	r4, r1, #16
 800bfe2:	f100 0310 	add.w	r3, r0, #16
 800bfe6:	d922      	bls.n	800c02e <memmove+0xd2>
 800bfe8:	b166      	cbz	r6, 800c004 <memmove+0xa8>
 800bfea:	6826      	ldr	r6, [r4, #0]
 800bfec:	601e      	str	r6, [r3, #0]
 800bfee:	6866      	ldr	r6, [r4, #4]
 800bff0:	605e      	str	r6, [r3, #4]
 800bff2:	68a6      	ldr	r6, [r4, #8]
 800bff4:	609e      	str	r6, [r3, #8]
 800bff6:	68e6      	ldr	r6, [r4, #12]
 800bff8:	3d10      	subs	r5, #16
 800bffa:	60de      	str	r6, [r3, #12]
 800bffc:	3410      	adds	r4, #16
 800bffe:	3310      	adds	r3, #16
 800c000:	2d0f      	cmp	r5, #15
 800c002:	d914      	bls.n	800c02e <memmove+0xd2>
 800c004:	6826      	ldr	r6, [r4, #0]
 800c006:	601e      	str	r6, [r3, #0]
 800c008:	6866      	ldr	r6, [r4, #4]
 800c00a:	605e      	str	r6, [r3, #4]
 800c00c:	68a6      	ldr	r6, [r4, #8]
 800c00e:	609e      	str	r6, [r3, #8]
 800c010:	68e6      	ldr	r6, [r4, #12]
 800c012:	60de      	str	r6, [r3, #12]
 800c014:	6926      	ldr	r6, [r4, #16]
 800c016:	611e      	str	r6, [r3, #16]
 800c018:	6966      	ldr	r6, [r4, #20]
 800c01a:	615e      	str	r6, [r3, #20]
 800c01c:	69a6      	ldr	r6, [r4, #24]
 800c01e:	619e      	str	r6, [r3, #24]
 800c020:	69e6      	ldr	r6, [r4, #28]
 800c022:	3d20      	subs	r5, #32
 800c024:	61de      	str	r6, [r3, #28]
 800c026:	3420      	adds	r4, #32
 800c028:	3320      	adds	r3, #32
 800c02a:	2d0f      	cmp	r5, #15
 800c02c:	d8ea      	bhi.n	800c004 <memmove+0xa8>
 800c02e:	f1a2 0310 	sub.w	r3, r2, #16
 800c032:	f023 040f 	bic.w	r4, r3, #15
 800c036:	f002 030f 	and.w	r3, r2, #15
 800c03a:	3410      	adds	r4, #16
 800c03c:	2b03      	cmp	r3, #3
 800c03e:	eb00 0804 	add.w	r8, r0, r4
 800c042:	4421      	add	r1, r4
 800c044:	d952      	bls.n	800c0ec <memmove+0x190>
 800c046:	f1a3 0904 	sub.w	r9, r3, #4
 800c04a:	460b      	mov	r3, r1
 800c04c:	ea4f 0999 	mov.w	r9, r9, lsr #2
 800c050:	eb01 0c89 	add.w	ip, r1, r9, lsl #2
 800c054:	f853 6b04 	ldr.w	r6, [r3], #4
 800c058:	ebc1 050c 	rsb	r5, r1, ip
 800c05c:	4644      	mov	r4, r8
 800c05e:	f10c 0c04 	add.w	ip, ip, #4
 800c062:	4563      	cmp	r3, ip
 800c064:	f844 6b04 	str.w	r6, [r4], #4
 800c068:	f3c5 0580 	ubfx	r5, r5, #2, #1
 800c06c:	d012      	beq.n	800c094 <memmove+0x138>
 800c06e:	b12d      	cbz	r5, 800c07c <memmove+0x120>
 800c070:	f853 5b04 	ldr.w	r5, [r3], #4
 800c074:	4563      	cmp	r3, ip
 800c076:	f844 5b04 	str.w	r5, [r4], #4
 800c07a:	d00b      	beq.n	800c094 <memmove+0x138>
 800c07c:	461e      	mov	r6, r3
 800c07e:	4625      	mov	r5, r4
 800c080:	f856 7b04 	ldr.w	r7, [r6], #4
 800c084:	f845 7b04 	str.w	r7, [r5], #4
 800c088:	685f      	ldr	r7, [r3, #4]
 800c08a:	1d33      	adds	r3, r6, #4
 800c08c:	6067      	str	r7, [r4, #4]
 800c08e:	1d2c      	adds	r4, r5, #4
 800c090:	4563      	cmp	r3, ip
 800c092:	d1f3      	bne.n	800c07c <memmove+0x120>
 800c094:	f109 0301 	add.w	r3, r9, #1
 800c098:	009c      	lsls	r4, r3, #2
 800c09a:	1909      	adds	r1, r1, r4
 800c09c:	f002 0203 	and.w	r2, r2, #3
 800c0a0:	4444      	add	r4, r8
 800c0a2:	2a00      	cmp	r2, #0
 800c0a4:	d082      	beq.n	800bfac <memmove+0x50>
 800c0a6:	4623      	mov	r3, r4
 800c0a8:	780d      	ldrb	r5, [r1, #0]
 800c0aa:	f803 5b01 	strb.w	r5, [r3], #1
 800c0ae:	18a2      	adds	r2, r4, r2
 800c0b0:	43e4      	mvns	r4, r4
 800c0b2:	1914      	adds	r4, r2, r4
 800c0b4:	4293      	cmp	r3, r2
 800c0b6:	f004 0401 	and.w	r4, r4, #1
 800c0ba:	f43f af77 	beq.w	800bfac <memmove+0x50>
 800c0be:	b134      	cbz	r4, 800c0ce <memmove+0x172>
 800c0c0:	f811 4f01 	ldrb.w	r4, [r1, #1]!
 800c0c4:	f803 4b01 	strb.w	r4, [r3], #1
 800c0c8:	4293      	cmp	r3, r2
 800c0ca:	f43f af6f 	beq.w	800bfac <memmove+0x50>
 800c0ce:	784d      	ldrb	r5, [r1, #1]
 800c0d0:	461c      	mov	r4, r3
 800c0d2:	f804 5b01 	strb.w	r5, [r4], #1
 800c0d6:	788d      	ldrb	r5, [r1, #2]
 800c0d8:	705d      	strb	r5, [r3, #1]
 800c0da:	1c63      	adds	r3, r4, #1
 800c0dc:	3102      	adds	r1, #2
 800c0de:	4293      	cmp	r3, r2
 800c0e0:	d1f5      	bne.n	800c0ce <memmove+0x172>
 800c0e2:	e763      	b.n	800bfac <memmove+0x50>
 800c0e4:	4604      	mov	r4, r0
 800c0e6:	e7dc      	b.n	800c0a2 <memmove+0x146>
 800c0e8:	4604      	mov	r4, r0
 800c0ea:	e7dc      	b.n	800c0a6 <memmove+0x14a>
 800c0ec:	4644      	mov	r4, r8
 800c0ee:	461a      	mov	r2, r3
 800c0f0:	e7d7      	b.n	800c0a2 <memmove+0x146>
 800c0f2:	bf00      	nop

0800c0f4 <_realloc_r>:
 800c0f4:	e92d 4ff0 	stmdb	sp!, {r4, r5, r6, r7, r8, r9, sl, fp, lr}
 800c0f8:	460c      	mov	r4, r1
 800c0fa:	b083      	sub	sp, #12
 800c0fc:	4681      	mov	r9, r0
 800c0fe:	4617      	mov	r7, r2
 800c100:	2900      	cmp	r1, #0
 800c102:	f000 80c5 	beq.w	800c290 <_realloc_r+0x19c>
 800c106:	f7fb fe2d 	bl	8007d64 <__malloc_lock>
 800c10a:	f107 050b 	add.w	r5, r7, #11
 800c10e:	f854 3c04 	ldr.w	r3, [r4, #-4]
 800c112:	2d16      	cmp	r5, #22
 800c114:	f1a4 0a08 	sub.w	sl, r4, #8
 800c118:	f023 0603 	bic.w	r6, r3, #3
 800c11c:	d84f      	bhi.n	800c1be <_realloc_r+0xca>
 800c11e:	2110      	movs	r1, #16
 800c120:	460d      	mov	r5, r1
 800c122:	42af      	cmp	r7, r5
 800c124:	d850      	bhi.n	800c1c8 <_realloc_r+0xd4>
 800c126:	428e      	cmp	r6, r1
 800c128:	da53      	bge.n	800c1d2 <_realloc_r+0xde>
 800c12a:	f8df c3a0 	ldr.w	ip, [pc, #928]	; 800c4cc <_realloc_r+0x3d8>
 800c12e:	f8dc 0008 	ldr.w	r0, [ip, #8]
 800c132:	eb0a 0206 	add.w	r2, sl, r6
 800c136:	4290      	cmp	r0, r2
 800c138:	f000 80b0 	beq.w	800c29c <_realloc_r+0x1a8>
 800c13c:	f8d2 e004 	ldr.w	lr, [r2, #4]
 800c140:	f02e 0801 	bic.w	r8, lr, #1
 800c144:	4490      	add	r8, r2
 800c146:	f8d8 8004 	ldr.w	r8, [r8, #4]
 800c14a:	f018 0f01 	tst.w	r8, #1
 800c14e:	d059      	beq.n	800c204 <_realloc_r+0x110>
 800c150:	f04f 0e00 	mov.w	lr, #0
 800c154:	4672      	mov	r2, lr
 800c156:	07db      	lsls	r3, r3, #31
 800c158:	d476      	bmi.n	800c248 <_realloc_r+0x154>
 800c15a:	f854 3c08 	ldr.w	r3, [r4, #-8]
 800c15e:	ebc3 0b0a 	rsb	fp, r3, sl
 800c162:	f8db 3004 	ldr.w	r3, [fp, #4]
 800c166:	f023 0303 	bic.w	r3, r3, #3
 800c16a:	199b      	adds	r3, r3, r6
 800c16c:	9301      	str	r3, [sp, #4]
 800c16e:	2a00      	cmp	r2, #0
 800c170:	d067      	beq.n	800c242 <_realloc_r+0x14e>
 800c172:	4282      	cmp	r2, r0
 800c174:	eb0e 0803 	add.w	r8, lr, r3
 800c178:	f000 80f1 	beq.w	800c35e <_realloc_r+0x26a>
 800c17c:	4588      	cmp	r8, r1
 800c17e:	db60      	blt.n	800c242 <_realloc_r+0x14e>
 800c180:	68d1      	ldr	r1, [r2, #12]
 800c182:	6890      	ldr	r0, [r2, #8]
 800c184:	465f      	mov	r7, fp
 800c186:	60c1      	str	r1, [r0, #12]
 800c188:	6088      	str	r0, [r1, #8]
 800c18a:	f8db 300c 	ldr.w	r3, [fp, #12]
 800c18e:	f857 1f08 	ldr.w	r1, [r7, #8]!
 800c192:	1f32      	subs	r2, r6, #4
 800c194:	2a24      	cmp	r2, #36	; 0x24
 800c196:	60cb      	str	r3, [r1, #12]
 800c198:	6099      	str	r1, [r3, #8]
 800c19a:	f200 812a 	bhi.w	800c3f2 <_realloc_r+0x2fe>
 800c19e:	2a13      	cmp	r2, #19
 800c1a0:	f240 80b9 	bls.w	800c316 <_realloc_r+0x222>
 800c1a4:	6823      	ldr	r3, [r4, #0]
 800c1a6:	f8cb 3008 	str.w	r3, [fp, #8]
 800c1aa:	6861      	ldr	r1, [r4, #4]
 800c1ac:	2a1b      	cmp	r2, #27
 800c1ae:	f8cb 100c 	str.w	r1, [fp, #12]
 800c1b2:	f200 8134 	bhi.w	800c41e <_realloc_r+0x32a>
 800c1b6:	f10b 0010 	add.w	r0, fp, #16
 800c1ba:	3408      	adds	r4, #8
 800c1bc:	e0ac      	b.n	800c318 <_realloc_r+0x224>
 800c1be:	f025 0507 	bic.w	r5, r5, #7
 800c1c2:	2d00      	cmp	r5, #0
 800c1c4:	4629      	mov	r1, r5
 800c1c6:	daac      	bge.n	800c122 <_realloc_r+0x2e>
 800c1c8:	270c      	movs	r7, #12
 800c1ca:	f8c9 7000 	str.w	r7, [r9]
 800c1ce:	2700      	movs	r7, #0
 800c1d0:	e014      	b.n	800c1fc <_realloc_r+0x108>
 800c1d2:	46b0      	mov	r8, r6
 800c1d4:	ebc5 0708 	rsb	r7, r5, r8
 800c1d8:	2f0f      	cmp	r7, #15
 800c1da:	d81e      	bhi.n	800c21a <_realloc_r+0x126>
 800c1dc:	f003 0301 	and.w	r3, r3, #1
 800c1e0:	eb0a 0108 	add.w	r1, sl, r8
 800c1e4:	ea43 0008 	orr.w	r0, r3, r8
 800c1e8:	f8ca 0004 	str.w	r0, [sl, #4]
 800c1ec:	684a      	ldr	r2, [r1, #4]
 800c1ee:	f042 0701 	orr.w	r7, r2, #1
 800c1f2:	604f      	str	r7, [r1, #4]
 800c1f4:	4648      	mov	r0, r9
 800c1f6:	f7fb fdb7 	bl	8007d68 <__malloc_unlock>
 800c1fa:	4627      	mov	r7, r4
 800c1fc:	4638      	mov	r0, r7
 800c1fe:	b003      	add	sp, #12
 800c200:	e8bd 8ff0 	ldmia.w	sp!, {r4, r5, r6, r7, r8, r9, sl, fp, pc}
 800c204:	f02e 0e03 	bic.w	lr, lr, #3
 800c208:	eb0e 0806 	add.w	r8, lr, r6
 800c20c:	4588      	cmp	r8, r1
 800c20e:	dba2      	blt.n	800c156 <_realloc_r+0x62>
 800c210:	68d7      	ldr	r7, [r2, #12]
 800c212:	6892      	ldr	r2, [r2, #8]
 800c214:	60d7      	str	r7, [r2, #12]
 800c216:	60ba      	str	r2, [r7, #8]
 800c218:	e7dc      	b.n	800c1d4 <_realloc_r+0xe0>
 800c21a:	eb0a 0105 	add.w	r1, sl, r5
 800c21e:	f003 0301 	and.w	r3, r3, #1
 800c222:	19c8      	adds	r0, r1, r7
 800c224:	431d      	orrs	r5, r3
 800c226:	f047 0201 	orr.w	r2, r7, #1
 800c22a:	f8ca 5004 	str.w	r5, [sl, #4]
 800c22e:	604a      	str	r2, [r1, #4]
 800c230:	6847      	ldr	r7, [r0, #4]
 800c232:	f047 0301 	orr.w	r3, r7, #1
 800c236:	6043      	str	r3, [r0, #4]
 800c238:	3108      	adds	r1, #8
 800c23a:	4648      	mov	r0, r9
 800c23c:	f7fe ff30 	bl	800b0a0 <_free_r>
 800c240:	e7d8      	b.n	800c1f4 <_realloc_r+0x100>
 800c242:	9b01      	ldr	r3, [sp, #4]
 800c244:	428b      	cmp	r3, r1
 800c246:	da34      	bge.n	800c2b2 <_realloc_r+0x1be>
 800c248:	4639      	mov	r1, r7
 800c24a:	4648      	mov	r0, r9
 800c24c:	f7fb f948 	bl	80074e0 <_malloc_r>
 800c250:	4607      	mov	r7, r0
 800c252:	b1c8      	cbz	r0, 800c288 <_realloc_r+0x194>
 800c254:	f854 3c04 	ldr.w	r3, [r4, #-4]
 800c258:	f023 0201 	bic.w	r2, r3, #1
 800c25c:	f1a0 0108 	sub.w	r1, r0, #8
 800c260:	4452      	add	r2, sl
 800c262:	4291      	cmp	r1, r2
 800c264:	f000 80be 	beq.w	800c3e4 <_realloc_r+0x2f0>
 800c268:	1f32      	subs	r2, r6, #4
 800c26a:	2a24      	cmp	r2, #36	; 0x24
 800c26c:	d873      	bhi.n	800c356 <_realloc_r+0x262>
 800c26e:	2a13      	cmp	r2, #19
 800c270:	d846      	bhi.n	800c300 <_realloc_r+0x20c>
 800c272:	4623      	mov	r3, r4
 800c274:	6819      	ldr	r1, [r3, #0]
 800c276:	6001      	str	r1, [r0, #0]
 800c278:	685a      	ldr	r2, [r3, #4]
 800c27a:	6042      	str	r2, [r0, #4]
 800c27c:	689b      	ldr	r3, [r3, #8]
 800c27e:	6083      	str	r3, [r0, #8]
 800c280:	4648      	mov	r0, r9
 800c282:	4621      	mov	r1, r4
 800c284:	f7fe ff0c 	bl	800b0a0 <_free_r>
 800c288:	4648      	mov	r0, r9
 800c28a:	f7fb fd6d 	bl	8007d68 <__malloc_unlock>
 800c28e:	e7b5      	b.n	800c1fc <_realloc_r+0x108>
 800c290:	4611      	mov	r1, r2
 800c292:	b003      	add	sp, #12
 800c294:	e8bd 4ff0 	ldmia.w	sp!, {r4, r5, r6, r7, r8, r9, sl, fp, lr}
 800c298:	f7fb b922 	b.w	80074e0 <_malloc_r>
 800c29c:	6842      	ldr	r2, [r0, #4]
 800c29e:	f022 0e03 	bic.w	lr, r2, #3
 800c2a2:	eb0e 0206 	add.w	r2, lr, r6
 800c2a6:	f105 0810 	add.w	r8, r5, #16
 800c2aa:	4542      	cmp	r2, r8
 800c2ac:	da3f      	bge.n	800c32e <_realloc_r+0x23a>
 800c2ae:	4602      	mov	r2, r0
 800c2b0:	e751      	b.n	800c156 <_realloc_r+0x62>
 800c2b2:	465f      	mov	r7, fp
 800c2b4:	f8db 000c 	ldr.w	r0, [fp, #12]
 800c2b8:	f857 1f08 	ldr.w	r1, [r7, #8]!
 800c2bc:	1f32      	subs	r2, r6, #4
 800c2be:	2a24      	cmp	r2, #36	; 0x24
 800c2c0:	60c8      	str	r0, [r1, #12]
 800c2c2:	6081      	str	r1, [r0, #8]
 800c2c4:	f200 80a0 	bhi.w	800c408 <_realloc_r+0x314>
 800c2c8:	2a13      	cmp	r2, #19
 800c2ca:	f240 809b 	bls.w	800c404 <_realloc_r+0x310>
 800c2ce:	6820      	ldr	r0, [r4, #0]
 800c2d0:	f8cb 0008 	str.w	r0, [fp, #8]
 800c2d4:	6861      	ldr	r1, [r4, #4]
 800c2d6:	2a1b      	cmp	r2, #27
 800c2d8:	f8cb 100c 	str.w	r1, [fp, #12]
 800c2dc:	f200 80b4 	bhi.w	800c448 <_realloc_r+0x354>
 800c2e0:	f10b 0310 	add.w	r3, fp, #16
 800c2e4:	3408      	adds	r4, #8
 800c2e6:	6820      	ldr	r0, [r4, #0]
 800c2e8:	f8dd 8004 	ldr.w	r8, [sp, #4]
 800c2ec:	6018      	str	r0, [r3, #0]
 800c2ee:	6862      	ldr	r2, [r4, #4]
 800c2f0:	605a      	str	r2, [r3, #4]
 800c2f2:	68a4      	ldr	r4, [r4, #8]
 800c2f4:	609c      	str	r4, [r3, #8]
 800c2f6:	f8db 3004 	ldr.w	r3, [fp, #4]
 800c2fa:	463c      	mov	r4, r7
 800c2fc:	46da      	mov	sl, fp
 800c2fe:	e769      	b.n	800c1d4 <_realloc_r+0xe0>
 800c300:	6821      	ldr	r1, [r4, #0]
 800c302:	6001      	str	r1, [r0, #0]
 800c304:	6860      	ldr	r0, [r4, #4]
 800c306:	2a1b      	cmp	r2, #27
 800c308:	6078      	str	r0, [r7, #4]
 800c30a:	d860      	bhi.n	800c3ce <_realloc_r+0x2da>
 800c30c:	f107 0008 	add.w	r0, r7, #8
 800c310:	f104 0308 	add.w	r3, r4, #8
 800c314:	e7ae      	b.n	800c274 <_realloc_r+0x180>
 800c316:	4638      	mov	r0, r7
 800c318:	6823      	ldr	r3, [r4, #0]
 800c31a:	6003      	str	r3, [r0, #0]
 800c31c:	6862      	ldr	r2, [r4, #4]
 800c31e:	6042      	str	r2, [r0, #4]
 800c320:	68a4      	ldr	r4, [r4, #8]
 800c322:	6084      	str	r4, [r0, #8]
 800c324:	f8db 3004 	ldr.w	r3, [fp, #4]
 800c328:	463c      	mov	r4, r7
 800c32a:	46da      	mov	sl, fp
 800c32c:	e752      	b.n	800c1d4 <_realloc_r+0xe0>
 800c32e:	eb0a 0705 	add.w	r7, sl, r5
 800c332:	1b50      	subs	r0, r2, r5
 800c334:	f040 0201 	orr.w	r2, r0, #1
 800c338:	607a      	str	r2, [r7, #4]
 800c33a:	f854 1c04 	ldr.w	r1, [r4, #-4]
 800c33e:	f8cc 7008 	str.w	r7, [ip, #8]
 800c342:	f001 0301 	and.w	r3, r1, #1
 800c346:	431d      	orrs	r5, r3
 800c348:	f844 5c04 	str.w	r5, [r4, #-4]
 800c34c:	4648      	mov	r0, r9
 800c34e:	f7fb fd0b 	bl	8007d68 <__malloc_unlock>
 800c352:	4627      	mov	r7, r4
 800c354:	e752      	b.n	800c1fc <_realloc_r+0x108>
 800c356:	4621      	mov	r1, r4
 800c358:	f7ff fe00 	bl	800bf5c <memmove>
 800c35c:	e790      	b.n	800c280 <_realloc_r+0x18c>
 800c35e:	f105 0010 	add.w	r0, r5, #16
 800c362:	4580      	cmp	r8, r0
 800c364:	f6ff af6d 	blt.w	800c242 <_realloc_r+0x14e>
 800c368:	465f      	mov	r7, fp
 800c36a:	f8db 000c 	ldr.w	r0, [fp, #12]
 800c36e:	f857 1f08 	ldr.w	r1, [r7, #8]!
 800c372:	1f32      	subs	r2, r6, #4
 800c374:	2a24      	cmp	r2, #36	; 0x24
 800c376:	60c8      	str	r0, [r1, #12]
 800c378:	6081      	str	r1, [r0, #8]
 800c37a:	f200 8087 	bhi.w	800c48c <_realloc_r+0x398>
 800c37e:	2a13      	cmp	r2, #19
 800c380:	d978      	bls.n	800c474 <_realloc_r+0x380>
 800c382:	6820      	ldr	r0, [r4, #0]
 800c384:	f8cb 0008 	str.w	r0, [fp, #8]
 800c388:	6861      	ldr	r1, [r4, #4]
 800c38a:	2a1b      	cmp	r2, #27
 800c38c:	f8cb 100c 	str.w	r1, [fp, #12]
 800c390:	f200 8085 	bhi.w	800c49e <_realloc_r+0x3aa>
 800c394:	f10b 0310 	add.w	r3, fp, #16
 800c398:	3408      	adds	r4, #8
 800c39a:	6820      	ldr	r0, [r4, #0]
 800c39c:	6018      	str	r0, [r3, #0]
 800c39e:	6862      	ldr	r2, [r4, #4]
 800c3a0:	605a      	str	r2, [r3, #4]
 800c3a2:	68a1      	ldr	r1, [r4, #8]
 800c3a4:	6099      	str	r1, [r3, #8]
 800c3a6:	eb0b 0305 	add.w	r3, fp, r5
 800c3aa:	ebc5 0008 	rsb	r0, r5, r8
 800c3ae:	f040 0201 	orr.w	r2, r0, #1
 800c3b2:	605a      	str	r2, [r3, #4]
 800c3b4:	f8db 1004 	ldr.w	r1, [fp, #4]
 800c3b8:	f8cc 3008 	str.w	r3, [ip, #8]
 800c3bc:	f001 0301 	and.w	r3, r1, #1
 800c3c0:	431d      	orrs	r5, r3
 800c3c2:	f8cb 5004 	str.w	r5, [fp, #4]
 800c3c6:	4648      	mov	r0, r9
 800c3c8:	f7fb fcce 	bl	8007d68 <__malloc_unlock>
 800c3cc:	e716      	b.n	800c1fc <_realloc_r+0x108>
 800c3ce:	68a3      	ldr	r3, [r4, #8]
 800c3d0:	60bb      	str	r3, [r7, #8]
 800c3d2:	68e1      	ldr	r1, [r4, #12]
 800c3d4:	2a24      	cmp	r2, #36	; 0x24
 800c3d6:	60f9      	str	r1, [r7, #12]
 800c3d8:	d02d      	beq.n	800c436 <_realloc_r+0x342>
 800c3da:	f107 0010 	add.w	r0, r7, #16
 800c3de:	f104 0310 	add.w	r3, r4, #16
 800c3e2:	e747      	b.n	800c274 <_realloc_r+0x180>
 800c3e4:	f850 7c04 	ldr.w	r7, [r0, #-4]
 800c3e8:	f027 0c03 	bic.w	ip, r7, #3
 800c3ec:	eb0c 0806 	add.w	r8, ip, r6
 800c3f0:	e6f0      	b.n	800c1d4 <_realloc_r+0xe0>
 800c3f2:	4621      	mov	r1, r4
 800c3f4:	4638      	mov	r0, r7
 800c3f6:	f7ff fdb1 	bl	800bf5c <memmove>
 800c3fa:	463c      	mov	r4, r7
 800c3fc:	f8db 3004 	ldr.w	r3, [fp, #4]
 800c400:	46da      	mov	sl, fp
 800c402:	e6e7      	b.n	800c1d4 <_realloc_r+0xe0>
 800c404:	463b      	mov	r3, r7
 800c406:	e76e      	b.n	800c2e6 <_realloc_r+0x1f2>
 800c408:	4621      	mov	r1, r4
 800c40a:	4638      	mov	r0, r7
 800c40c:	f7ff fda6 	bl	800bf5c <memmove>
 800c410:	463c      	mov	r4, r7
 800c412:	f8db 3004 	ldr.w	r3, [fp, #4]
 800c416:	f8dd 8004 	ldr.w	r8, [sp, #4]
 800c41a:	46da      	mov	sl, fp
 800c41c:	e6da      	b.n	800c1d4 <_realloc_r+0xe0>
 800c41e:	68a0      	ldr	r0, [r4, #8]
 800c420:	f8cb 0010 	str.w	r0, [fp, #16]
 800c424:	68e3      	ldr	r3, [r4, #12]
 800c426:	2a24      	cmp	r2, #36	; 0x24
 800c428:	f8cb 3014 	str.w	r3, [fp, #20]
 800c42c:	d018      	beq.n	800c460 <_realloc_r+0x36c>
 800c42e:	f10b 0018 	add.w	r0, fp, #24
 800c432:	3410      	adds	r4, #16
 800c434:	e770      	b.n	800c318 <_realloc_r+0x224>
 800c436:	6922      	ldr	r2, [r4, #16]
 800c438:	613a      	str	r2, [r7, #16]
 800c43a:	6963      	ldr	r3, [r4, #20]
 800c43c:	f107 0018 	add.w	r0, r7, #24
 800c440:	617b      	str	r3, [r7, #20]
 800c442:	f104 0318 	add.w	r3, r4, #24
 800c446:	e715      	b.n	800c274 <_realloc_r+0x180>
 800c448:	68a3      	ldr	r3, [r4, #8]
 800c44a:	f8cb 3010 	str.w	r3, [fp, #16]
 800c44e:	68e0      	ldr	r0, [r4, #12]
 800c450:	2a24      	cmp	r2, #36	; 0x24
 800c452:	f8cb 0014 	str.w	r0, [fp, #20]
 800c456:	d00f      	beq.n	800c478 <_realloc_r+0x384>
 800c458:	f10b 0318 	add.w	r3, fp, #24
 800c45c:	3410      	adds	r4, #16
 800c45e:	e742      	b.n	800c2e6 <_realloc_r+0x1f2>
 800c460:	6922      	ldr	r2, [r4, #16]
 800c462:	f8cb 2018 	str.w	r2, [fp, #24]
 800c466:	6961      	ldr	r1, [r4, #20]
 800c468:	f10b 0020 	add.w	r0, fp, #32
 800c46c:	f8cb 101c 	str.w	r1, [fp, #28]
 800c470:	3418      	adds	r4, #24
 800c472:	e751      	b.n	800c318 <_realloc_r+0x224>
 800c474:	463b      	mov	r3, r7
 800c476:	e790      	b.n	800c39a <_realloc_r+0x2a6>
 800c478:	6922      	ldr	r2, [r4, #16]
 800c47a:	f8cb 2018 	str.w	r2, [fp, #24]
 800c47e:	6961      	ldr	r1, [r4, #20]
 800c480:	f10b 0320 	add.w	r3, fp, #32
 800c484:	f8cb 101c 	str.w	r1, [fp, #28]
 800c488:	3418      	adds	r4, #24
 800c48a:	e72c      	b.n	800c2e6 <_realloc_r+0x1f2>
 800c48c:	4638      	mov	r0, r7
 800c48e:	4621      	mov	r1, r4
 800c490:	f8cd c000 	str.w	ip, [sp]
 800c494:	f7ff fd62 	bl	800bf5c <memmove>
 800c498:	f8dd c000 	ldr.w	ip, [sp]
 800c49c:	e783      	b.n	800c3a6 <_realloc_r+0x2b2>
 800c49e:	68a3      	ldr	r3, [r4, #8]
 800c4a0:	f8cb 3010 	str.w	r3, [fp, #16]
 800c4a4:	68e0      	ldr	r0, [r4, #12]
 800c4a6:	2a24      	cmp	r2, #36	; 0x24
 800c4a8:	f8cb 0014 	str.w	r0, [fp, #20]
 800c4ac:	d003      	beq.n	800c4b6 <_realloc_r+0x3c2>
 800c4ae:	f10b 0318 	add.w	r3, fp, #24
 800c4b2:	3410      	adds	r4, #16
 800c4b4:	e771      	b.n	800c39a <_realloc_r+0x2a6>
 800c4b6:	6922      	ldr	r2, [r4, #16]
 800c4b8:	f8cb 2018 	str.w	r2, [fp, #24]
 800c4bc:	6961      	ldr	r1, [r4, #20]
 800c4be:	f10b 0320 	add.w	r3, fp, #32
 800c4c2:	f8cb 101c 	str.w	r1, [fp, #28]
 800c4c6:	3418      	adds	r4, #24
 800c4c8:	e767      	b.n	800c39a <_realloc_r+0x2a6>
 800c4ca:	bf00      	nop
 800c4cc:	100005dc 	.word	0x100005dc

0800c4d0 <cosf>:
 800c4d0:	b500      	push	{lr}
 800c4d2:	ee10 1a10 	vmov	r1, s0
 800c4d6:	f640 73d8 	movw	r3, #4056	; 0xfd8
 800c4da:	f021 4200 	bic.w	r2, r1, #2147483648	; 0x80000000
 800c4de:	f6c3 7349 	movt	r3, #16201	; 0x3f49
 800c4e2:	429a      	cmp	r2, r3
 800c4e4:	b083      	sub	sp, #12
 800c4e6:	dd17      	ble.n	800c518 <cosf+0x48>
 800c4e8:	f1b2 4fff 	cmp.w	r2, #2139095040	; 0x7f800000
 800c4ec:	db03      	blt.n	800c4f6 <cosf+0x26>
 800c4ee:	ee30 0a40 	vsub.f32	s0, s0, s0
 800c4f2:	b003      	add	sp, #12
 800c4f4:	bd00      	pop	{pc}
 800c4f6:	4668      	mov	r0, sp
 800c4f8:	f000 f860 	bl	800c5bc <__ieee754_rem_pio2f>
 800c4fc:	f000 0003 	and.w	r0, r0, #3
 800c500:	2801      	cmp	r0, #1
 800c502:	ed9d 0a00 	vldr	s0, [sp]
 800c506:	eddd 0a01 	vldr	s1, [sp, #4]
 800c50a:	d00f      	beq.n	800c52c <cosf+0x5c>
 800c50c:	2802      	cmp	r0, #2
 800c50e:	d008      	beq.n	800c522 <cosf+0x52>
 800c510:	b988      	cbnz	r0, 800c536 <cosf+0x66>
 800c512:	f000 f999 	bl	800c848 <__kernel_cosf>
 800c516:	e7ec      	b.n	800c4f2 <cosf+0x22>
 800c518:	eddf 0a09 	vldr	s1, [pc, #36]	; 800c540 <cosf+0x70>
 800c51c:	f000 f994 	bl	800c848 <__kernel_cosf>
 800c520:	e7e7      	b.n	800c4f2 <cosf+0x22>
 800c522:	f000 f991 	bl	800c848 <__kernel_cosf>
 800c526:	eeb1 0a40 	vneg.f32	s0, s0
 800c52a:	e7e2      	b.n	800c4f2 <cosf+0x22>
 800c52c:	f000 ff28 	bl	800d380 <__kernel_sinf>
 800c530:	eeb1 0a40 	vneg.f32	s0, s0
 800c534:	e7dd      	b.n	800c4f2 <cosf+0x22>
 800c536:	2001      	movs	r0, #1
 800c538:	f000 ff22 	bl	800d380 <__kernel_sinf>
 800c53c:	e7d9      	b.n	800c4f2 <cosf+0x22>
 800c53e:	bf00      	nop
 800c540:	00000000 	.word	0x00000000

0800c544 <sinf>:
 800c544:	b500      	push	{lr}
 800c546:	ee10 1a10 	vmov	r1, s0
 800c54a:	f640 73d8 	movw	r3, #4056	; 0xfd8
 800c54e:	f021 4200 	bic.w	r2, r1, #2147483648	; 0x80000000
 800c552:	f6c3 7349 	movt	r3, #16201	; 0x3f49
 800c556:	429a      	cmp	r2, r3
 800c558:	b083      	sub	sp, #12
 800c55a:	dd18      	ble.n	800c58e <sinf+0x4a>
 800c55c:	f1b2 4fff 	cmp.w	r2, #2139095040	; 0x7f800000
 800c560:	db03      	blt.n	800c56a <sinf+0x26>
 800c562:	ee30 0a40 	vsub.f32	s0, s0, s0
 800c566:	b003      	add	sp, #12
 800c568:	bd00      	pop	{pc}
 800c56a:	4668      	mov	r0, sp
 800c56c:	f000 f826 	bl	800c5bc <__ieee754_rem_pio2f>
 800c570:	f000 0003 	and.w	r0, r0, #3
 800c574:	2801      	cmp	r0, #1
 800c576:	ed9d 0a00 	vldr	s0, [sp]
 800c57a:	eddd 0a01 	vldr	s1, [sp, #4]
 800c57e:	d012      	beq.n	800c5a6 <sinf+0x62>
 800c580:	2802      	cmp	r0, #2
 800c582:	d00a      	beq.n	800c59a <sinf+0x56>
 800c584:	b990      	cbnz	r0, 800c5ac <sinf+0x68>
 800c586:	2001      	movs	r0, #1
 800c588:	f000 fefa 	bl	800d380 <__kernel_sinf>
 800c58c:	e7eb      	b.n	800c566 <sinf+0x22>
 800c58e:	eddf 0a0a 	vldr	s1, [pc, #40]	; 800c5b8 <sinf+0x74>
 800c592:	2000      	movs	r0, #0
 800c594:	f000 fef4 	bl	800d380 <__kernel_sinf>
 800c598:	e7e5      	b.n	800c566 <sinf+0x22>
 800c59a:	2001      	movs	r0, #1
 800c59c:	f000 fef0 	bl	800d380 <__kernel_sinf>
 800c5a0:	eeb1 0a40 	vneg.f32	s0, s0
 800c5a4:	e7df      	b.n	800c566 <sinf+0x22>
 800c5a6:	f000 f94f 	bl	800c848 <__kernel_cosf>
 800c5aa:	e7dc      	b.n	800c566 <sinf+0x22>
 800c5ac:	f000 f94c 	bl	800c848 <__kernel_cosf>
 800c5b0:	eeb1 0a40 	vneg.f32	s0, s0
 800c5b4:	e7d7      	b.n	800c566 <sinf+0x22>
 800c5b6:	bf00      	nop
 800c5b8:	00000000 	.word	0x00000000

0800c5bc <__ieee754_rem_pio2f>:
 800c5bc:	b570      	push	{r4, r5, r6, lr}
 800c5be:	ee10 2a10 	vmov	r2, s0
 800c5c2:	f640 73d8 	movw	r3, #4056	; 0xfd8
 800c5c6:	f022 4400 	bic.w	r4, r2, #2147483648	; 0x80000000
 800c5ca:	f6c3 7349 	movt	r3, #16201	; 0x3f49
 800c5ce:	429c      	cmp	r4, r3
 800c5d0:	b086      	sub	sp, #24
 800c5d2:	ee10 6a10 	vmov	r6, s0
 800c5d6:	4605      	mov	r5, r0
 800c5d8:	dd77      	ble.n	800c6ca <__ieee754_rem_pio2f+0x10e>
 800c5da:	f64c 30e3 	movw	r0, #52195	; 0xcbe3
 800c5de:	f2c4 0016 	movt	r0, #16406	; 0x4016
 800c5e2:	4284      	cmp	r4, r0
 800c5e4:	dc1c      	bgt.n	800c620 <__ieee754_rem_pio2f+0x64>
 800c5e6:	f44f 607d 	mov.w	r0, #4048	; 0xfd0
 800c5ea:	2a00      	cmp	r2, #0
 800c5ec:	f024 040f 	bic.w	r4, r4, #15
 800c5f0:	f6c3 70c9 	movt	r0, #16329	; 0x3fc9
 800c5f4:	eddf 7a8a 	vldr	s15, [pc, #552]	; 800c820 <__ieee754_rem_pio2f+0x264>
 800c5f8:	f340 80db 	ble.w	800c7b2 <__ieee754_rem_pio2f+0x1f6>
 800c5fc:	4284      	cmp	r4, r0
 800c5fe:	ee30 6a67 	vsub.f32	s12, s0, s15
 800c602:	d071      	beq.n	800c6e8 <__ieee754_rem_pio2f+0x12c>
 800c604:	ed9f 2a87 	vldr	s4, [pc, #540]	; 800c824 <__ieee754_rem_pio2f+0x268>
 800c608:	ee36 0a42 	vsub.f32	s0, s12, s4
 800c60c:	2001      	movs	r0, #1
 800c60e:	ee76 2a40 	vsub.f32	s5, s12, s0
 800c612:	ed85 0a00 	vstr	s0, [r5]
 800c616:	ee32 3ac2 	vsub.f32	s6, s5, s4
 800c61a:	ed85 3a01 	vstr	s6, [r5, #4]
 800c61e:	e059      	b.n	800c6d4 <__ieee754_rem_pio2f+0x118>
 800c620:	f44f 6178 	mov.w	r1, #3968	; 0xf80
 800c624:	f2c4 3149 	movt	r1, #17225	; 0x4349
 800c628:	428c      	cmp	r4, r1
 800c62a:	dd6f      	ble.n	800c70c <__ieee754_rem_pio2f+0x150>
 800c62c:	f1b4 4fff 	cmp.w	r4, #2139095040	; 0x7f800000
 800c630:	da52      	bge.n	800c6d8 <__ieee754_rem_pio2f+0x11c>
 800c632:	15e2      	asrs	r2, r4, #23
 800c634:	3a86      	subs	r2, #134	; 0x86
 800c636:	eba4 54c2 	sub.w	r4, r4, r2, lsl #23
 800c63a:	ee07 4a10 	vmov	s14, r4
 800c63e:	eefd 7ac7 	vcvt.s32.f32	s15, s14
 800c642:	eddf 6a79 	vldr	s13, [pc, #484]	; 800c828 <__ieee754_rem_pio2f+0x26c>
 800c646:	eeb8 0ae7 	vcvt.f32.s32	s0, s15
 800c64a:	ee77 0a40 	vsub.f32	s1, s14, s0
 800c64e:	ed8d 0a03 	vstr	s0, [sp, #12]
 800c652:	ee20 1aa6 	vmul.f32	s2, s1, s13
 800c656:	eefd 1ac1 	vcvt.s32.f32	s3, s2
 800c65a:	eeb8 4ae1 	vcvt.f32.s32	s8, s3
 800c65e:	ee31 2a44 	vsub.f32	s4, s2, s8
 800c662:	ed8d 4a04 	vstr	s8, [sp, #16]
 800c666:	ee62 2a26 	vmul.f32	s5, s4, s13
 800c66a:	eef5 2a40 	vcmp.f32	s5, #0.0
 800c66e:	eef1 fa10 	vmrs	APSR_nzcv, fpscr
 800c672:	edcd 2a05 	vstr	s5, [sp, #20]
 800c676:	f040 80af 	bne.w	800c7d8 <__ieee754_rem_pio2f+0x21c>
 800c67a:	2303      	movs	r3, #3
 800c67c:	eeb5 4a40 	vcmp.f32	s8, #0.0
 800c680:	3b01      	subs	r3, #1
 800c682:	eef1 fa10 	vmrs	APSR_nzcv, fpscr
 800c686:	a804      	add	r0, sp, #16
 800c688:	d107      	bne.n	800c69a <__ieee754_rem_pio2f+0xde>
 800c68a:	ed30 4a01 	vldmdb	r0!, {s8}
 800c68e:	eeb5 4a40 	vcmp.f32	s8, #0.0
 800c692:	3b01      	subs	r3, #1
 800c694:	eef1 fa10 	vmrs	APSR_nzcv, fpscr
 800c698:	d0f7      	beq.n	800c68a <__ieee754_rem_pio2f+0xce>
 800c69a:	4864      	ldr	r0, [pc, #400]	; (800c82c <__ieee754_rem_pio2f+0x270>)
 800c69c:	2102      	movs	r1, #2
 800c69e:	9100      	str	r1, [sp, #0]
 800c6a0:	9001      	str	r0, [sp, #4]
 800c6a2:	4629      	mov	r1, r5
 800c6a4:	a803      	add	r0, sp, #12
 800c6a6:	f000 f951 	bl	800c94c <__kernel_rem_pio2f>
 800c6aa:	2e00      	cmp	r6, #0
 800c6ac:	da12      	bge.n	800c6d4 <__ieee754_rem_pio2f+0x118>
 800c6ae:	ed95 3a00 	vldr	s6, [r5]
 800c6b2:	edd5 3a01 	vldr	s7, [r5, #4]
 800c6b6:	eeb1 6a43 	vneg.f32	s12, s6
 800c6ba:	eeb1 7a63 	vneg.f32	s14, s7
 800c6be:	ed85 6a00 	vstr	s12, [r5]
 800c6c2:	ed85 7a01 	vstr	s14, [r5, #4]
 800c6c6:	4240      	negs	r0, r0
 800c6c8:	e004      	b.n	800c6d4 <__ieee754_rem_pio2f+0x118>
 800c6ca:	2100      	movs	r1, #0
 800c6cc:	ed85 0a00 	vstr	s0, [r5]
 800c6d0:	6041      	str	r1, [r0, #4]
 800c6d2:	2000      	movs	r0, #0
 800c6d4:	b006      	add	sp, #24
 800c6d6:	bd70      	pop	{r4, r5, r6, pc}
 800c6d8:	ee30 5a40 	vsub.f32	s10, s0, s0
 800c6dc:	2000      	movs	r0, #0
 800c6de:	ed85 5a01 	vstr	s10, [r5, #4]
 800c6e2:	ed85 5a00 	vstr	s10, [r5]
 800c6e6:	e7f5      	b.n	800c6d4 <__ieee754_rem_pio2f+0x118>
 800c6e8:	eddf 7a51 	vldr	s15, [pc, #324]	; 800c830 <__ieee754_rem_pio2f+0x274>
 800c6ec:	ed9f 7a51 	vldr	s14, [pc, #324]	; 800c834 <__ieee754_rem_pio2f+0x278>
 800c6f0:	ee76 0a67 	vsub.f32	s1, s12, s15
 800c6f4:	2001      	movs	r0, #1
 800c6f6:	ee70 6ac7 	vsub.f32	s13, s1, s14
 800c6fa:	ee30 1ae6 	vsub.f32	s2, s1, s13
 800c6fe:	edc5 6a00 	vstr	s13, [r5]
 800c702:	ee71 1a47 	vsub.f32	s3, s2, s14
 800c706:	edc5 1a01 	vstr	s3, [r5, #4]
 800c70a:	e7e3      	b.n	800c6d4 <__ieee754_rem_pio2f+0x118>
 800c70c:	f000 fe7e 	bl	800d40c <fabsf>
 800c710:	ed9f 6a49 	vldr	s12, [pc, #292]	; 800c838 <__ieee754_rem_pio2f+0x27c>
 800c714:	eef6 5a00 	vmov.f32	s11, #96	; 0x60
 800c718:	ee40 5a06 	vmla.f32	s11, s0, s12
 800c71c:	eddf 7a40 	vldr	s15, [pc, #256]	; 800c820 <__ieee754_rem_pio2f+0x264>
 800c720:	eebd 7ae5 	vcvt.s32.f32	s14, s11
 800c724:	eddf 0a3f 	vldr	s1, [pc, #252]	; 800c824 <__ieee754_rem_pio2f+0x268>
 800c728:	ee17 0a10 	vmov	r0, s14
 800c72c:	eef8 6ac7 	vcvt.f32.s32	s13, s14
 800c730:	281f      	cmp	r0, #31
 800c732:	ee06 0ae7 	vmls.f32	s0, s13, s15
 800c736:	ee66 4aa0 	vmul.f32	s9, s13, s1
 800c73a:	dc14      	bgt.n	800c766 <__ieee754_rem_pio2f+0x1aa>
 800c73c:	1e41      	subs	r1, r0, #1
 800c73e:	4b3f      	ldr	r3, [pc, #252]	; (800c83c <__ieee754_rem_pio2f+0x280>)
 800c740:	f853 1021 	ldr.w	r1, [r3, r1, lsl #2]
 800c744:	f024 02ff 	bic.w	r2, r4, #255	; 0xff
 800c748:	428a      	cmp	r2, r1
 800c74a:	d00c      	beq.n	800c766 <__ieee754_rem_pio2f+0x1aa>
 800c74c:	ee30 3a64 	vsub.f32	s6, s0, s9
 800c750:	ed85 3a00 	vstr	s6, [r5]
 800c754:	ee70 5a43 	vsub.f32	s11, s0, s6
 800c758:	2e00      	cmp	r6, #0
 800c75a:	ee75 3ae4 	vsub.f32	s7, s11, s9
 800c75e:	edc5 3a01 	vstr	s7, [r5, #4]
 800c762:	dab7      	bge.n	800c6d4 <__ieee754_rem_pio2f+0x118>
 800c764:	e7a7      	b.n	800c6b6 <__ieee754_rem_pio2f+0xfa>
 800c766:	ee30 3a64 	vsub.f32	s6, s0, s9
 800c76a:	15e4      	asrs	r4, r4, #23
 800c76c:	ee13 2a10 	vmov	r2, s6
 800c770:	f3c2 53c7 	ubfx	r3, r2, #23, #8
 800c774:	1ae1      	subs	r1, r4, r3
 800c776:	2908      	cmp	r1, #8
 800c778:	ddea      	ble.n	800c750 <__ieee754_rem_pio2f+0x194>
 800c77a:	ed9f 1a2d 	vldr	s2, [pc, #180]	; 800c830 <__ieee754_rem_pio2f+0x274>
 800c77e:	ee66 1a81 	vmul.f32	s3, s13, s2
 800c782:	eddf 2a2c 	vldr	s5, [pc, #176]	; 800c834 <__ieee754_rem_pio2f+0x278>
 800c786:	ee30 2a61 	vsub.f32	s4, s0, s3
 800c78a:	ee30 0a42 	vsub.f32	s0, s0, s4
 800c78e:	ee70 4a61 	vsub.f32	s9, s0, s3
 800c792:	ee56 4aa2 	vnmls.f32	s9, s13, s5
 800c796:	ee32 3a64 	vsub.f32	s6, s4, s9
 800c79a:	ee13 2a10 	vmov	r2, s6
 800c79e:	f3c2 53c7 	ubfx	r3, r2, #23, #8
 800c7a2:	1ae4      	subs	r4, r4, r3
 800c7a4:	2c19      	cmp	r4, #25
 800c7a6:	dc2c      	bgt.n	800c802 <__ieee754_rem_pio2f+0x246>
 800c7a8:	ed85 3a00 	vstr	s6, [r5]
 800c7ac:	eeb0 0a42 	vmov.f32	s0, s4
 800c7b0:	e7d0      	b.n	800c754 <__ieee754_rem_pio2f+0x198>
 800c7b2:	4284      	cmp	r4, r0
 800c7b4:	ee70 0a27 	vadd.f32	s1, s0, s15
 800c7b8:	d010      	beq.n	800c7dc <__ieee754_rem_pio2f+0x220>
 800c7ba:	eddf 3a1a 	vldr	s7, [pc, #104]	; 800c824 <__ieee754_rem_pio2f+0x268>
 800c7be:	ee30 4aa3 	vadd.f32	s8, s1, s7
 800c7c2:	f04f 30ff 	mov.w	r0, #4294967295
 800c7c6:	ee70 4ac4 	vsub.f32	s9, s1, s8
 800c7ca:	ed85 4a00 	vstr	s8, [r5]
 800c7ce:	ee34 5aa3 	vadd.f32	s10, s9, s7
 800c7d2:	ed85 5a01 	vstr	s10, [r5, #4]
 800c7d6:	e77d      	b.n	800c6d4 <__ieee754_rem_pio2f+0x118>
 800c7d8:	2303      	movs	r3, #3
 800c7da:	e75e      	b.n	800c69a <__ieee754_rem_pio2f+0xde>
 800c7dc:	eddf 1a14 	vldr	s3, [pc, #80]	; 800c830 <__ieee754_rem_pio2f+0x274>
 800c7e0:	ed9f 1a14 	vldr	s2, [pc, #80]	; 800c834 <__ieee754_rem_pio2f+0x278>
 800c7e4:	ee30 2aa1 	vadd.f32	s4, s1, s3
 800c7e8:	f04f 30ff 	mov.w	r0, #4294967295
 800c7ec:	ee32 0a01 	vadd.f32	s0, s4, s2
 800c7f0:	ee72 2a40 	vsub.f32	s5, s4, s0
 800c7f4:	ed85 0a00 	vstr	s0, [r5]
 800c7f8:	ee32 3a81 	vadd.f32	s6, s5, s2
 800c7fc:	ed85 3a01 	vstr	s6, [r5, #4]
 800c800:	e768      	b.n	800c6d4 <__ieee754_rem_pio2f+0x118>
 800c802:	ed9f 3a0f 	vldr	s6, [pc, #60]	; 800c840 <__ieee754_rem_pio2f+0x284>
 800c806:	ee66 3a83 	vmul.f32	s7, s13, s6
 800c80a:	ed9f 5a0e 	vldr	s10, [pc, #56]	; 800c844 <__ieee754_rem_pio2f+0x288>
 800c80e:	ee32 0a63 	vsub.f32	s0, s4, s7
 800c812:	ee32 4a40 	vsub.f32	s8, s4, s0
 800c816:	ee74 4a63 	vsub.f32	s9, s8, s7
 800c81a:	ee56 4a85 	vnmls.f32	s9, s13, s10
 800c81e:	e795      	b.n	800c74c <__ieee754_rem_pio2f+0x190>
 800c820:	3fc90f80 	.word	0x3fc90f80
 800c824:	37354443 	.word	0x37354443
 800c828:	43800000 	.word	0x43800000
 800c82c:	0800fb58 	.word	0x0800fb58
 800c830:	37354400 	.word	0x37354400
 800c834:	2e85a308 	.word	0x2e85a308
 800c838:	3f22f984 	.word	0x3f22f984
 800c83c:	0800fad8 	.word	0x0800fad8
 800c840:	2e85a300 	.word	0x2e85a300
 800c844:	248d3132 	.word	0x248d3132

0800c848 <__kernel_cosf>:
 800c848:	ee10 2a10 	vmov	r2, s0
 800c84c:	f022 4300 	bic.w	r3, r2, #2147483648	; 0x80000000
 800c850:	f1b3 5f48 	cmp.w	r3, #838860800	; 0x32000000
 800c854:	da2c      	bge.n	800c8b0 <__kernel_cosf+0x68>
 800c856:	eefd 7ac0 	vcvt.s32.f32	s15, s0
 800c85a:	ee17 3a90 	vmov	r3, s15
 800c85e:	2b00      	cmp	r3, #0
 800c860:	d065      	beq.n	800c92e <__kernel_cosf+0xe6>
 800c862:	ee20 4a00 	vmul.f32	s8, s0, s0
 800c866:	eddf 4a33 	vldr	s9, [pc, #204]	; 800c934 <__kernel_cosf+0xec>
 800c86a:	ed9f 5a33 	vldr	s10, [pc, #204]	; 800c938 <__kernel_cosf+0xf0>
 800c86e:	ee44 4a05 	vmla.f32	s9, s8, s10
 800c872:	eddf 6a32 	vldr	s13, [pc, #200]	; 800c93c <__kernel_cosf+0xf4>
 800c876:	ee54 6a84 	vnmls.f32	s13, s9, s8
 800c87a:	ed9f 7a31 	vldr	s14, [pc, #196]	; 800c940 <__kernel_cosf+0xf8>
 800c87e:	ee06 7a84 	vmla.f32	s14, s13, s8
 800c882:	ed9f 1a30 	vldr	s2, [pc, #192]	; 800c944 <__kernel_cosf+0xfc>
 800c886:	ee17 1a04 	vnmls.f32	s2, s14, s8
 800c88a:	eddf 1a2f 	vldr	s3, [pc, #188]	; 800c948 <__kernel_cosf+0x100>
 800c88e:	ee41 1a04 	vmla.f32	s3, s2, s8
 800c892:	ee21 2a84 	vmul.f32	s4, s3, s8
 800c896:	ee60 2a20 	vmul.f32	s5, s0, s1
 800c89a:	ee54 2a02 	vnmls.f32	s5, s8, s4
 800c89e:	eef6 5a00 	vmov.f32	s11, #96	; 0x60
 800c8a2:	ee54 2a25 	vnmls.f32	s5, s8, s11
 800c8a6:	eeb7 3a00 	vmov.f32	s6, #112	; 0x70
 800c8aa:	ee33 0a62 	vsub.f32	s0, s6, s5
 800c8ae:	4770      	bx	lr
 800c8b0:	ee20 4a00 	vmul.f32	s8, s0, s0
 800c8b4:	ed9f 7a1f 	vldr	s14, [pc, #124]	; 800c934 <__kernel_cosf+0xec>
 800c8b8:	eddf 6a1f 	vldr	s13, [pc, #124]	; 800c938 <__kernel_cosf+0xf0>
 800c8bc:	ee04 7a26 	vmla.f32	s14, s8, s13
 800c8c0:	ed9f 1a1e 	vldr	s2, [pc, #120]	; 800c93c <__kernel_cosf+0xf4>
 800c8c4:	ee17 1a04 	vnmls.f32	s2, s14, s8
 800c8c8:	eddf 1a1d 	vldr	s3, [pc, #116]	; 800c940 <__kernel_cosf+0xf8>
 800c8cc:	ee41 1a04 	vmla.f32	s3, s2, s8
 800c8d0:	ed9f 2a1c 	vldr	s4, [pc, #112]	; 800c944 <__kernel_cosf+0xfc>
 800c8d4:	ee11 2a84 	vnmls.f32	s4, s3, s8
 800c8d8:	eddf 2a1b 	vldr	s5, [pc, #108]	; 800c948 <__kernel_cosf+0x100>
 800c8dc:	ee42 2a04 	vmla.f32	s5, s4, s8
 800c8e0:	f649 1099 	movw	r0, #39321	; 0x9999
 800c8e4:	f6c3 6099 	movt	r0, #16025	; 0x3e99
 800c8e8:	4283      	cmp	r3, r0
 800c8ea:	ee22 2a84 	vmul.f32	s4, s5, s8
 800c8ee:	ddd2      	ble.n	800c896 <__kernel_cosf+0x4e>
 800c8f0:	2100      	movs	r1, #0
 800c8f2:	f6c3 7148 	movt	r1, #16200	; 0x3f48
 800c8f6:	428b      	cmp	r3, r1
 800c8f8:	dc14      	bgt.n	800c924 <__kernel_cosf+0xdc>
 800c8fa:	f103 427f 	add.w	r2, r3, #4278190080	; 0xff000000
 800c8fe:	ee03 2a90 	vmov	s7, r2
 800c902:	eef7 5a00 	vmov.f32	s11, #112	; 0x70
 800c906:	ee35 3ae3 	vsub.f32	s6, s11, s7
 800c90a:	ee60 0a20 	vmul.f32	s1, s0, s1
 800c90e:	eeb6 6a00 	vmov.f32	s12, #96	; 0x60
 800c912:	ee54 3a06 	vnmls.f32	s7, s8, s12
 800c916:	ee54 0a02 	vnmls.f32	s1, s8, s4
 800c91a:	ee33 0ae0 	vsub.f32	s0, s7, s1
 800c91e:	ee33 0a40 	vsub.f32	s0, s6, s0
 800c922:	4770      	bx	lr
 800c924:	eeb6 3a07 	vmov.f32	s6, #103	; 0x67
 800c928:	eef5 3a02 	vmov.f32	s7, #82	; 0x52
 800c92c:	e7ed      	b.n	800c90a <__kernel_cosf+0xc2>
 800c92e:	eeb7 0a00 	vmov.f32	s0, #112	; 0x70
 800c932:	4770      	bx	lr
 800c934:	310f74f6 	.word	0x310f74f6
 800c938:	ad47d74e 	.word	0xad47d74e
 800c93c:	3493f27c 	.word	0x3493f27c
 800c940:	37d00d01 	.word	0x37d00d01
 800c944:	3ab60b61 	.word	0x3ab60b61
 800c948:	3d2aaaab 	.word	0x3d2aaaab

0800c94c <__kernel_rem_pio2f>:
 800c94c:	e92d 4ff0 	stmdb	sp!, {r4, r5, r6, r7, r8, r9, sl, fp, lr}
 800c950:	ed2d 8b06 	vpush	{d8-d10}
 800c954:	b0d7      	sub	sp, #348	; 0x15c
 800c956:	4c23      	ldr	r4, [pc, #140]	; (800c9e4 <__kernel_rem_pio2f+0x98>)
 800c958:	9d66      	ldr	r5, [sp, #408]	; 0x198
 800c95a:	9102      	str	r1, [sp, #8]
 800c95c:	f854 7025 	ldr.w	r7, [r4, r5, lsl #2]
 800c960:	f103 38ff 	add.w	r8, r3, #4294967295
 800c964:	461d      	mov	r5, r3
 800c966:	1ed3      	subs	r3, r2, #3
 800c968:	bf48      	it	mi
 800c96a:	1d13      	addmi	r3, r2, #4
 800c96c:	4606      	mov	r6, r0
 800c96e:	10d8      	asrs	r0, r3, #3
 800c970:	ea20 71e0 	bic.w	r1, r0, r0, asr #31
 800c974:	9103      	str	r1, [sp, #12]
 800c976:	43cc      	mvns	r4, r1
 800c978:	9b03      	ldr	r3, [sp, #12]
 800c97a:	eb02 02c4 	add.w	r2, r2, r4, lsl #3
 800c97e:	eb18 0007 	adds.w	r0, r8, r7
 800c982:	9200      	str	r2, [sp, #0]
 800c984:	ebc8 0103 	rsb	r1, r8, r3
 800c988:	d45a      	bmi.n	800ca40 <__kernel_rem_pio2f+0xf4>
 800c98a:	180c      	adds	r4, r1, r0
 800c98c:	9a67      	ldr	r2, [sp, #412]	; 0x19c
 800c98e:	1a63      	subs	r3, r4, r1
 800c990:	3401      	adds	r4, #1
 800c992:	2900      	cmp	r1, #0
 800c994:	eb02 0e81 	add.w	lr, r2, r1, lsl #2
 800c998:	f003 0001 	and.w	r0, r3, #1
 800c99c:	f2c0 82b5 	blt.w	800cf0a <__kernel_rem_pio2f+0x5be>
 800c9a0:	ed9e 5a00 	vldr	s10, [lr]
 800c9a4:	eef8 7ac5 	vcvt.f32.s32	s15, s10
 800c9a8:	1c4b      	adds	r3, r1, #1
 800c9aa:	aa19      	add	r2, sp, #100	; 0x64
 800c9ac:	ee17 1a90 	vmov	r1, s15
 800c9b0:	f842 1f04 	str.w	r1, [r2, #4]!
 800c9b4:	2104      	movs	r1, #4
 800c9b6:	42a3      	cmp	r3, r4
 800c9b8:	d042      	beq.n	800ca40 <__kernel_rem_pio2f+0xf4>
 800c9ba:	b340      	cbz	r0, 800ca0e <__kernel_rem_pio2f+0xc2>
 800c9bc:	2b00      	cmp	r3, #0
 800c9be:	bfa5      	ittet	ge
 800c9c0:	f85e 0001 	ldrge.w	r0, [lr, r1]
 800c9c4:	ee05 0a10 	vmovge	s10, r0
 800c9c8:	eddf 7a09 	vldrlt	s15, [pc, #36]	; 800c9f0 <__kernel_rem_pio2f+0xa4>
 800c9cc:	eef8 7ac5 	vcvtge.f32.s32	s15, s10
 800c9d0:	3301      	adds	r3, #1
 800c9d2:	ee17 0a90 	vmov	r0, s15
 800c9d6:	3104      	adds	r1, #4
 800c9d8:	42a3      	cmp	r3, r4
 800c9da:	f842 0f04 	str.w	r0, [r2, #4]!
 800c9de:	d116      	bne.n	800ca0e <__kernel_rem_pio2f+0xc2>
 800c9e0:	e02e      	b.n	800ca40 <__kernel_rem_pio2f+0xf4>
 800c9e2:	bf00      	nop
 800c9e4:	0800fe70 	.word	0x0800fe70
 800c9e8:	3b800000 	.word	0x3b800000
 800c9ec:	43800000 	.word	0x43800000
 800c9f0:	00000000 	.word	0x00000000
 800c9f4:	f85e 2001 	ldr.w	r2, [lr, r1]
 800c9f8:	ee05 2a10 	vmov	s10, r2
 800c9fc:	3301      	adds	r3, #1
 800c9fe:	eef8 7ac5 	vcvt.f32.s32	s15, s10
 800ca02:	1d02      	adds	r2, r0, #4
 800ca04:	3104      	adds	r1, #4
 800ca06:	42a3      	cmp	r3, r4
 800ca08:	edc0 7a01 	vstr	s15, [r0, #4]
 800ca0c:	d018      	beq.n	800ca40 <__kernel_rem_pio2f+0xf4>
 800ca0e:	2b00      	cmp	r3, #0
 800ca10:	bfa5      	ittet	ge
 800ca12:	f85e 0001 	ldrge.w	r0, [lr, r1]
 800ca16:	ee05 0a10 	vmovge	s10, r0
 800ca1a:	ed5f 7a0b 	vldrlt	s15, [pc, #-44]	; 800c9f0 <__kernel_rem_pio2f+0xa4>
 800ca1e:	eef8 7ac5 	vcvtge.f32.s32	s15, s10
 800ca22:	1d10      	adds	r0, r2, #4
 800ca24:	3104      	adds	r1, #4
 800ca26:	3301      	adds	r3, #1
 800ca28:	edc2 7a01 	vstr	s15, [r2, #4]
 800ca2c:	d5e2      	bpl.n	800c9f4 <__kernel_rem_pio2f+0xa8>
 800ca2e:	ed5f 7a10 	vldr	s15, [pc, #-64]	; 800c9f0 <__kernel_rem_pio2f+0xa4>
 800ca32:	3301      	adds	r3, #1
 800ca34:	1d02      	adds	r2, r0, #4
 800ca36:	3104      	adds	r1, #4
 800ca38:	42a3      	cmp	r3, r4
 800ca3a:	edc0 7a01 	vstr	s15, [r0, #4]
 800ca3e:	d1e6      	bne.n	800ca0e <__kernel_rem_pio2f+0xc2>
 800ca40:	2f00      	cmp	r7, #0
 800ca42:	ea4f 0987 	mov.w	r9, r7, lsl #2
 800ca46:	db45      	blt.n	800cad4 <__kernel_rem_pio2f+0x188>
 800ca48:	ab42      	add	r3, sp, #264	; 0x108
 800ca4a:	ed1f 6a17 	vldr	s12, [pc, #-92]	; 800c9f0 <__kernel_rem_pio2f+0xa4>
 800ca4e:	ac41      	add	r4, sp, #260	; 0x104
 800ca50:	4628      	mov	r0, r5
 800ca52:	eb03 0a09 	add.w	sl, r3, r9
 800ca56:	f1b8 0f00 	cmp.w	r8, #0
 800ca5a:	f2c0 823e 	blt.w	800ceda <__kernel_rem_pio2f+0x58e>
 800ca5e:	aa1a      	add	r2, sp, #104	; 0x68
 800ca60:	eb02 0280 	add.w	r2, r2, r0, lsl #2
 800ca64:	ed12 0a01 	vldr	s0, [r2, #-4]
 800ca68:	ed96 7a00 	vldr	s14, [r6]
 800ca6c:	eeb0 5a46 	vmov.f32	s10, s12
 800ca70:	ee07 5a00 	vmla.f32	s10, s14, s0
 800ca74:	2301      	movs	r3, #1
 800ca76:	f105 3cff 	add.w	ip, r5, #4294967295
 800ca7a:	3a04      	subs	r2, #4
 800ca7c:	42ab      	cmp	r3, r5
 800ca7e:	ea0c 0b03 	and.w	fp, ip, r3
 800ca82:	4631      	mov	r1, r6
 800ca84:	eef0 0a45 	vmov.f32	s1, s10
 800ca88:	d01d      	beq.n	800cac6 <__kernel_rem_pio2f+0x17a>
 800ca8a:	f1bb 0f00 	cmp.w	fp, #0
 800ca8e:	d009      	beq.n	800caa4 <__kernel_rem_pio2f+0x158>
 800ca90:	edd6 6a01 	vldr	s13, [r6, #4]
 800ca94:	ed32 1a01 	vldmdb	r2!, {s2}
 800ca98:	2302      	movs	r3, #2
 800ca9a:	1d31      	adds	r1, r6, #4
 800ca9c:	42ab      	cmp	r3, r5
 800ca9e:	ee46 0a81 	vmla.f32	s1, s13, s2
 800caa2:	d010      	beq.n	800cac6 <__kernel_rem_pio2f+0x17a>
 800caa4:	edd1 1a01 	vldr	s3, [r1, #4]
 800caa8:	ed12 2a01 	vldr	s4, [r2, #-4]
 800caac:	ee41 0a82 	vmla.f32	s1, s3, s4
 800cab0:	edd1 2a02 	vldr	s5, [r1, #8]
 800cab4:	ed12 3a02 	vldr	s6, [r2, #-8]
 800cab8:	3302      	adds	r3, #2
 800caba:	3108      	adds	r1, #8
 800cabc:	3a08      	subs	r2, #8
 800cabe:	42ab      	cmp	r3, r5
 800cac0:	ee42 0a83 	vmla.f32	s1, s5, s6
 800cac4:	d1ee      	bne.n	800caa4 <__kernel_rem_pio2f+0x158>
 800cac6:	ee10 2a90 	vmov	r2, s1
 800caca:	f844 2f04 	str.w	r2, [r4, #4]!
 800cace:	3001      	adds	r0, #1
 800cad0:	4554      	cmp	r4, sl
 800cad2:	d1c0      	bne.n	800ca56 <__kernel_rem_pio2f+0x10a>
 800cad4:	1e7c      	subs	r4, r7, #1
 800cad6:	a806      	add	r0, sp, #24
 800cad8:	eb00 0184 	add.w	r1, r0, r4, lsl #2
 800cadc:	ed5f 8a3e 	vldr	s17, [pc, #-248]	; 800c9e8 <__kernel_rem_pio2f+0x9c>
 800cae0:	ed1f 8a3e 	vldr	s16, [pc, #-248]	; 800c9ec <__kernel_rem_pio2f+0xa0>
 800cae4:	ed1f 9a3e 	vldr	s18, [pc, #-248]	; 800c9f0 <__kernel_rem_pio2f+0xa4>
 800cae8:	eb00 0b09 	add.w	fp, r0, r9
 800caec:	9404      	str	r4, [sp, #16]
 800caee:	46b9      	mov	r9, r7
 800caf0:	9105      	str	r1, [sp, #20]
 800caf2:	9701      	str	r7, [sp, #4]
 800caf4:	ea4f 0489 	mov.w	r4, r9, lsl #2
 800caf8:	af56      	add	r7, sp, #344	; 0x158
 800cafa:	193a      	adds	r2, r7, r4
 800cafc:	f1b9 0f00 	cmp.w	r9, #0
 800cb00:	ed12 0a14 	vldr	s0, [r2, #-80]	; 0xffffffb0
 800cb04:	dd52      	ble.n	800cbac <__kernel_rem_pio2f+0x260>
 800cb06:	ee60 3a28 	vmul.f32	s7, s0, s17
 800cb0a:	a842      	add	r0, sp, #264	; 0x108
 800cb0c:	eebd 4ae3 	vcvt.s32.f32	s8, s7
 800cb10:	1907      	adds	r7, r0, r4
 800cb12:	eef8 4ac4 	vcvt.f32.s32	s9, s8
 800cb16:	a905      	add	r1, sp, #20
 800cb18:	ee04 0ac8 	vmls.f32	s0, s9, s16
 800cb1c:	ab06      	add	r3, sp, #24
 800cb1e:	eefd 5ac0 	vcvt.s32.f32	s11, s0
 800cb22:	190a      	adds	r2, r1, r4
 800cb24:	ed77 9a01 	vldmdb	r7!, {s19}
 800cb28:	4293      	cmp	r3, r2
 800cb2a:	edc3 5a00 	vstr	s11, [r3]
 800cb2e:	f3c2 0080 	ubfx	r0, r2, #2, #1
 800cb32:	ee39 0aa4 	vadd.f32	s0, s19, s9
 800cb36:	d039      	beq.n	800cbac <__kernel_rem_pio2f+0x260>
 800cb38:	b1a0      	cbz	r0, 800cb64 <__kernel_rem_pio2f+0x218>
 800cb3a:	ee20 aa28 	vmul.f32	s20, s0, s17
 800cb3e:	eeb0 7a40 	vmov.f32	s14, s0
 800cb42:	eefd 7aca 	vcvt.s32.f32	s15, s20
 800cb46:	ab07      	add	r3, sp, #28
 800cb48:	eeb8 5ae7 	vcvt.f32.s32	s10, s15
 800cb4c:	ed37 6a01 	vldmdb	r7!, {s12}
 800cb50:	ee05 7a48 	vmls.f32	s14, s10, s16
 800cb54:	4293      	cmp	r3, r2
 800cb56:	eefd 0ac7 	vcvt.s32.f32	s1, s14
 800cb5a:	ee36 0a05 	vadd.f32	s0, s12, s10
 800cb5e:	edc3 0a00 	vstr	s1, [r3]
 800cb62:	d023      	beq.n	800cbac <__kernel_rem_pio2f+0x260>
 800cb64:	ee60 6a28 	vmul.f32	s13, s0, s17
 800cb68:	ed37 1a01 	vldmdb	r7!, {s2}
 800cb6c:	eefd 1ae6 	vcvt.s32.f32	s3, s13
 800cb70:	1d19      	adds	r1, r3, #4
 800cb72:	eeb8 2ae1 	vcvt.f32.s32	s4, s3
 800cb76:	ed77 2a01 	vldmdb	r7!, {s5}
 800cb7a:	ee31 3a02 	vadd.f32	s6, s2, s4
 800cb7e:	ee02 0a48 	vmls.f32	s0, s4, s16
 800cb82:	ee63 3a28 	vmul.f32	s7, s6, s17
 800cb86:	eebd 4ac0 	vcvt.s32.f32	s8, s0
 800cb8a:	eebd 0ae3 	vcvt.s32.f32	s0, s7
 800cb8e:	ed83 4a01 	vstr	s8, [r3, #4]
 800cb92:	eef8 4ac0 	vcvt.f32.s32	s9, s0
 800cb96:	3308      	adds	r3, #8
 800cb98:	ee04 3ac8 	vmls.f32	s6, s9, s16
 800cb9c:	4293      	cmp	r3, r2
 800cb9e:	eefd 5ac3 	vcvt.s32.f32	s11, s6
 800cba2:	ee32 0aa4 	vadd.f32	s0, s5, s9
 800cba6:	edc1 5a01 	vstr	s11, [r1, #4]
 800cbaa:	d1db      	bne.n	800cb64 <__kernel_rem_pio2f+0x218>
 800cbac:	9800      	ldr	r0, [sp, #0]
 800cbae:	f000 fc7b 	bl	800d4a8 <scalbnf>
 800cbb2:	eeb4 aa00 	vmov.f32	s20, #64	; 0x40
 800cbb6:	eef0 9a40 	vmov.f32	s19, s0
 800cbba:	ee20 0a0a 	vmul.f32	s0, s0, s20
 800cbbe:	f000 fc2d 	bl	800d41c <floorf>
 800cbc2:	eef2 7a00 	vmov.f32	s15, #32
 800cbc6:	ee40 9a67 	vmls.f32	s19, s0, s15
 800cbca:	9f00      	ldr	r7, [sp, #0]
 800cbcc:	eebd aae9 	vcvt.s32.f32	s20, s19
 800cbd0:	2f00      	cmp	r7, #0
 800cbd2:	eeb8 6aca 	vcvt.f32.s32	s12, s20
 800cbd6:	ee79 9ac6 	vsub.f32	s19, s19, s12
 800cbda:	f340 8122 	ble.w	800ce22 <__kernel_rem_pio2f+0x4d6>
 800cbde:	f109 37ff 	add.w	r7, r9, #4294967295
 800cbe2:	f10d 0e18 	add.w	lr, sp, #24
 800cbe6:	9900      	ldr	r1, [sp, #0]
 800cbe8:	f85e 3027 	ldr.w	r3, [lr, r7, lsl #2]
 800cbec:	f1c1 0208 	rsb	r2, r1, #8
 800cbf0:	fa43 f102 	asr.w	r1, r3, r2
 800cbf4:	ee1a ca10 	vmov	ip, s20
 800cbf8:	fa01 f002 	lsl.w	r0, r1, r2
 800cbfc:	1a1a      	subs	r2, r3, r0
 800cbfe:	eb0c 0e01 	add.w	lr, ip, r1
 800cc02:	9b00      	ldr	r3, [sp, #0]
 800cc04:	a906      	add	r1, sp, #24
 800cc06:	f1c3 0a07 	rsb	sl, r3, #7
 800cc0a:	ee0a ea10 	vmov	s20, lr
 800cc0e:	f841 2027 	str.w	r2, [r1, r7, lsl #2]
 800cc12:	fa42 fa0a 	asr.w	sl, r2, sl
 800cc16:	f1ba 0f00 	cmp.w	sl, #0
 800cc1a:	dd56      	ble.n	800ccca <__kernel_rem_pio2f+0x37e>
 800cc1c:	ee1a 7a10 	vmov	r7, s20
 800cc20:	1c78      	adds	r0, r7, #1
 800cc22:	f1b9 0f00 	cmp.w	r9, #0
 800cc26:	ee0a 0a10 	vmov	s20, r0
 800cc2a:	f340 816c 	ble.w	800cf06 <__kernel_rem_pio2f+0x5ba>
 800cc2e:	ab06      	add	r3, sp, #24
 800cc30:	1f27      	subs	r7, r4, #4
 800cc32:	f853 1b04 	ldr.w	r1, [r3], #4
 800cc36:	f10d 0c18 	add.w	ip, sp, #24
 800cc3a:	2200      	movs	r2, #0
 800cc3c:	eb0c 0004 	add.w	r0, ip, r4
 800cc40:	f3c7 0780 	ubfx	r7, r7, #2, #1
 800cc44:	b121      	cbz	r1, 800cc50 <__kernel_rem_pio2f+0x304>
 800cc46:	f5c1 7280 	rsb	r2, r1, #256	; 0x100
 800cc4a:	f843 2c04 	str.w	r2, [r3, #-4]
 800cc4e:	2201      	movs	r2, #1
 800cc50:	4283      	cmp	r3, r0
 800cc52:	d025      	beq.n	800cca0 <__kernel_rem_pio2f+0x354>
 800cc54:	b15f      	cbz	r7, 800cc6e <__kernel_rem_pio2f+0x322>
 800cc56:	9907      	ldr	r1, [sp, #28]
 800cc58:	3304      	adds	r3, #4
 800cc5a:	2a00      	cmp	r2, #0
 800cc5c:	f000 80d8 	beq.w	800ce10 <__kernel_rem_pio2f+0x4c4>
 800cc60:	f1c1 07ff 	rsb	r7, r1, #255	; 0xff
 800cc64:	f843 7c04 	str.w	r7, [r3, #-4]
 800cc68:	2201      	movs	r2, #1
 800cc6a:	4283      	cmp	r3, r0
 800cc6c:	d018      	beq.n	800cca0 <__kernel_rem_pio2f+0x354>
 800cc6e:	f853 1b04 	ldr.w	r1, [r3], #4
 800cc72:	f1c1 07ff 	rsb	r7, r1, #255	; 0xff
 800cc76:	b912      	cbnz	r2, 800cc7e <__kernel_rem_pio2f+0x332>
 800cc78:	f5c1 7780 	rsb	r7, r1, #256	; 0x100
 800cc7c:	b111      	cbz	r1, 800cc84 <__kernel_rem_pio2f+0x338>
 800cc7e:	f843 7c04 	str.w	r7, [r3, #-4]
 800cc82:	2201      	movs	r2, #1
 800cc84:	f853 1b04 	ldr.w	r1, [r3], #4
 800cc88:	f1c1 07ff 	rsb	r7, r1, #255	; 0xff
 800cc8c:	b91a      	cbnz	r2, 800cc96 <__kernel_rem_pio2f+0x34a>
 800cc8e:	f5c1 7780 	rsb	r7, r1, #256	; 0x100
 800cc92:	2900      	cmp	r1, #0
 800cc94:	d0e9      	beq.n	800cc6a <__kernel_rem_pio2f+0x31e>
 800cc96:	2201      	movs	r2, #1
 800cc98:	4283      	cmp	r3, r0
 800cc9a:	f843 7c04 	str.w	r7, [r3, #-4]
 800cc9e:	d1e6      	bne.n	800cc6e <__kernel_rem_pio2f+0x322>
 800cca0:	9b00      	ldr	r3, [sp, #0]
 800cca2:	2b00      	cmp	r3, #0
 800cca4:	dd0d      	ble.n	800ccc2 <__kernel_rem_pio2f+0x376>
 800cca6:	2b01      	cmp	r3, #1
 800cca8:	f000 8102 	beq.w	800ceb0 <__kernel_rem_pio2f+0x564>
 800ccac:	2b02      	cmp	r3, #2
 800ccae:	d108      	bne.n	800ccc2 <__kernel_rem_pio2f+0x376>
 800ccb0:	f109 31ff 	add.w	r1, r9, #4294967295
 800ccb4:	a806      	add	r0, sp, #24
 800ccb6:	f850 7021 	ldr.w	r7, [r0, r1, lsl #2]
 800ccba:	f007 033f 	and.w	r3, r7, #63	; 0x3f
 800ccbe:	f840 3021 	str.w	r3, [r0, r1, lsl #2]
 800ccc2:	f1ba 0f02 	cmp.w	sl, #2
 800ccc6:	f000 80b5 	beq.w	800ce34 <__kernel_rem_pio2f+0x4e8>
 800ccca:	eef5 9a40 	vcmp.f32	s19, #0.0
 800ccce:	eef1 fa10 	vmrs	APSR_nzcv, fpscr
 800ccd2:	f040 80c1 	bne.w	800ce58 <__kernel_rem_pio2f+0x50c>
 800ccd6:	9f01      	ldr	r7, [sp, #4]
 800ccd8:	f109 3cff 	add.w	ip, r9, #4294967295
 800ccdc:	4567      	cmp	r7, ip
 800ccde:	dc1e      	bgt.n	800cd1e <__kernel_rem_pio2f+0x3d2>
 800cce0:	aa06      	add	r2, sp, #24
 800cce2:	1911      	adds	r1, r2, r4
 800cce4:	460b      	mov	r3, r1
 800cce6:	ebcb 0001 	rsb	r0, fp, r1
 800ccea:	f853 2d04 	ldr.w	r2, [r3, #-4]!
 800ccee:	1f07      	subs	r7, r0, #4
 800ccf0:	455b      	cmp	r3, fp
 800ccf2:	f3c7 0180 	ubfx	r1, r7, #2, #1
 800ccf6:	d00f      	beq.n	800cd18 <__kernel_rem_pio2f+0x3cc>
 800ccf8:	b129      	cbz	r1, 800cd06 <__kernel_rem_pio2f+0x3ba>
 800ccfa:	f853 0d04 	ldr.w	r0, [r3, #-4]!
 800ccfe:	455b      	cmp	r3, fp
 800cd00:	ea42 0200 	orr.w	r2, r2, r0
 800cd04:	d008      	beq.n	800cd18 <__kernel_rem_pio2f+0x3cc>
 800cd06:	f853 7d04 	ldr.w	r7, [r3, #-4]!
 800cd0a:	f853 1d04 	ldr.w	r1, [r3, #-4]!
 800cd0e:	433a      	orrs	r2, r7
 800cd10:	455b      	cmp	r3, fp
 800cd12:	ea42 0201 	orr.w	r2, r2, r1
 800cd16:	d1f6      	bne.n	800cd06 <__kernel_rem_pio2f+0x3ba>
 800cd18:	2a00      	cmp	r2, #0
 800cd1a:	f040 80fc 	bne.w	800cf16 <__kernel_rem_pio2f+0x5ca>
 800cd1e:	af06      	add	r7, sp, #24
 800cd20:	9904      	ldr	r1, [sp, #16]
 800cd22:	f857 0021 	ldr.w	r0, [r7, r1, lsl #2]
 800cd26:	2800      	cmp	r0, #0
 800cd28:	f040 80f2 	bne.w	800cf10 <__kernel_rem_pio2f+0x5c4>
 800cd2c:	9b05      	ldr	r3, [sp, #20]
 800cd2e:	f04f 0a01 	mov.w	sl, #1
 800cd32:	f853 2d04 	ldr.w	r2, [r3, #-4]!
 800cd36:	f10a 0a01 	add.w	sl, sl, #1
 800cd3a:	2a00      	cmp	r2, #0
 800cd3c:	d0f9      	beq.n	800cd32 <__kernel_rem_pio2f+0x3e6>
 800cd3e:	f109 0001 	add.w	r0, r9, #1
 800cd42:	44ca      	add	sl, r9
 800cd44:	4550      	cmp	r0, sl
 800cd46:	dc57      	bgt.n	800cdf8 <__kernel_rem_pio2f+0x4ac>
 800cd48:	9903      	ldr	r1, [sp, #12]
 800cd4a:	9a67      	ldr	r2, [sp, #412]	; 0x19c
 800cd4c:	eb08 0700 	add.w	r7, r8, r0
 800cd50:	4489      	add	r9, r1
 800cd52:	1e7b      	subs	r3, r7, #1
 800cd54:	a942      	add	r1, sp, #264	; 0x108
 800cd56:	af1a      	add	r7, sp, #104	; 0x68
 800cd58:	eb02 0e89 	add.w	lr, r2, r9, lsl #2
 800cd5c:	eb07 0783 	add.w	r7, r7, r3, lsl #2
 800cd60:	190c      	adds	r4, r1, r4
 800cd62:	f10a 0c01 	add.w	ip, sl, #1
 800cd66:	f85e 3f04 	ldr.w	r3, [lr, #4]!
 800cd6a:	ee09 3a90 	vmov	s19, r3
 800cd6e:	eeb8 aae9 	vcvt.f32.s32	s20, s19
 800cd72:	f1b8 0f00 	cmp.w	r8, #0
 800cd76:	ee1a 2a10 	vmov	r2, s20
 800cd7a:	f847 2f04 	str.w	r2, [r7, #4]!
 800cd7e:	db3d      	blt.n	800cdfc <__kernel_rem_pio2f+0x4b0>
 800cd80:	1941      	adds	r1, r0, r5
 800cd82:	ab1a      	add	r3, sp, #104	; 0x68
 800cd84:	eb03 0281 	add.w	r2, r3, r1, lsl #2
 800cd88:	ed12 3a01 	vldr	s6, [r2, #-4]
 800cd8c:	edd6 6a00 	vldr	s13, [r6]
 800cd90:	eef0 3a49 	vmov.f32	s7, s18
 800cd94:	ee46 3a83 	vmla.f32	s7, s13, s6
 800cd98:	2301      	movs	r3, #1
 800cd9a:	f105 39ff 	add.w	r9, r5, #4294967295
 800cd9e:	3a04      	subs	r2, #4
 800cda0:	42ab      	cmp	r3, r5
 800cda2:	ea09 0903 	and.w	r9, r9, r3
 800cda6:	4631      	mov	r1, r6
 800cda8:	eef0 2a63 	vmov.f32	s5, s7
 800cdac:	d01d      	beq.n	800cdea <__kernel_rem_pio2f+0x49e>
 800cdae:	f1b9 0f00 	cmp.w	r9, #0
 800cdb2:	d009      	beq.n	800cdc8 <__kernel_rem_pio2f+0x47c>
 800cdb4:	ed96 4a01 	vldr	s8, [r6, #4]
 800cdb8:	ed72 4a01 	vldmdb	r2!, {s9}
 800cdbc:	2302      	movs	r3, #2
 800cdbe:	1d31      	adds	r1, r6, #4
 800cdc0:	42ab      	cmp	r3, r5
 800cdc2:	ee44 2a24 	vmla.f32	s5, s8, s9
 800cdc6:	d010      	beq.n	800cdea <__kernel_rem_pio2f+0x49e>
 800cdc8:	edd1 5a01 	vldr	s11, [r1, #4]
 800cdcc:	ed52 0a01 	vldr	s1, [r2, #-4]
 800cdd0:	ee45 2aa0 	vmla.f32	s5, s11, s1
 800cdd4:	ed91 0a02 	vldr	s0, [r1, #8]
 800cdd8:	ed12 6a02 	vldr	s12, [r2, #-8]
 800cddc:	3302      	adds	r3, #2
 800cdde:	3108      	adds	r1, #8
 800cde0:	3a08      	subs	r2, #8
 800cde2:	42ab      	cmp	r3, r5
 800cde4:	ee40 2a06 	vmla.f32	s5, s0, s12
 800cde8:	d1ee      	bne.n	800cdc8 <__kernel_rem_pio2f+0x47c>
 800cdea:	3001      	adds	r0, #1
 800cdec:	ee12 2a90 	vmov	r2, s5
 800cdf0:	4560      	cmp	r0, ip
 800cdf2:	f844 2f04 	str.w	r2, [r4, #4]!
 800cdf6:	d1b6      	bne.n	800cd66 <__kernel_rem_pio2f+0x41a>
 800cdf8:	46d1      	mov	r9, sl
 800cdfa:	e67b      	b.n	800caf4 <__kernel_rem_pio2f+0x1a8>
 800cdfc:	eddf 2aae 	vldr	s5, [pc, #696]	; 800d0b8 <__kernel_rem_pio2f+0x76c>
 800ce00:	3001      	adds	r0, #1
 800ce02:	ee12 2a90 	vmov	r2, s5
 800ce06:	4560      	cmp	r0, ip
 800ce08:	f844 2f04 	str.w	r2, [r4, #4]!
 800ce0c:	d1ab      	bne.n	800cd66 <__kernel_rem_pio2f+0x41a>
 800ce0e:	e7f3      	b.n	800cdf8 <__kernel_rem_pio2f+0x4ac>
 800ce10:	2900      	cmp	r1, #0
 800ce12:	f43f af2a 	beq.w	800cc6a <__kernel_rem_pio2f+0x31e>
 800ce16:	f5c1 7280 	rsb	r2, r1, #256	; 0x100
 800ce1a:	f843 2c04 	str.w	r2, [r3, #-4]
 800ce1e:	2201      	movs	r2, #1
 800ce20:	e723      	b.n	800cc6a <__kernel_rem_pio2f+0x31e>
 800ce22:	d150      	bne.n	800cec6 <__kernel_rem_pio2f+0x57a>
 800ce24:	f109 32ff 	add.w	r2, r9, #4294967295
 800ce28:	a806      	add	r0, sp, #24
 800ce2a:	f850 3022 	ldr.w	r3, [r0, r2, lsl #2]
 800ce2e:	ea4f 2a23 	mov.w	sl, r3, asr #8
 800ce32:	e6f0      	b.n	800cc16 <__kernel_rem_pio2f+0x2ca>
 800ce34:	eeb7 0a00 	vmov.f32	s0, #112	; 0x70
 800ce38:	ee70 9a69 	vsub.f32	s19, s0, s19
 800ce3c:	2a00      	cmp	r2, #0
 800ce3e:	f43f af44 	beq.w	800ccca <__kernel_rem_pio2f+0x37e>
 800ce42:	9800      	ldr	r0, [sp, #0]
 800ce44:	f000 fb30 	bl	800d4a8 <scalbnf>
 800ce48:	ee79 9ac0 	vsub.f32	s19, s19, s0
 800ce4c:	eef5 9a40 	vcmp.f32	s19, #0.0
 800ce50:	eef1 fa10 	vmrs	APSR_nzcv, fpscr
 800ce54:	f43f af3f 	beq.w	800ccd6 <__kernel_rem_pio2f+0x38a>
 800ce58:	9d00      	ldr	r5, [sp, #0]
 800ce5a:	9f01      	ldr	r7, [sp, #4]
 800ce5c:	4268      	negs	r0, r5
 800ce5e:	eeb0 0a69 	vmov.f32	s0, s19
 800ce62:	f000 fb21 	bl	800d4a8 <scalbnf>
 800ce66:	eddf 0a91 	vldr	s1, [pc, #580]	; 800d0ac <__kernel_rem_pio2f+0x760>
 800ce6a:	eeb4 0ae0 	vcmpe.f32	s0, s1
 800ce6e:	eef1 fa10 	vmrs	APSR_nzcv, fpscr
 800ce72:	f2c0 8276 	blt.w	800d362 <__kernel_rem_pio2f+0xa16>
 800ce76:	eddf 6a8e 	vldr	s13, [pc, #568]	; 800d0b0 <__kernel_rem_pio2f+0x764>
 800ce7a:	ee20 1a26 	vmul.f32	s2, s0, s13
 800ce7e:	a806      	add	r0, sp, #24
 800ce80:	eefd 1ac1 	vcvt.s32.f32	s3, s2
 800ce84:	9b00      	ldr	r3, [sp, #0]
 800ce86:	eeb8 2ae1 	vcvt.f32.s32	s4, s3
 800ce8a:	3308      	adds	r3, #8
 800ce8c:	ee02 0a60 	vmls.f32	s0, s4, s1
 800ce90:	eebd 3ac2 	vcvt.s32.f32	s6, s4
 800ce94:	eefd 3ac0 	vcvt.s32.f32	s7, s0
 800ce98:	ee13 5a10 	vmov	r5, s6
 800ce9c:	ee13 1a90 	vmov	r1, s7
 800cea0:	f840 1029 	str.w	r1, [r0, r9, lsl #2]
 800cea4:	f109 0901 	add.w	r9, r9, #1
 800cea8:	9300      	str	r3, [sp, #0]
 800ceaa:	f840 5029 	str.w	r5, [r0, r9, lsl #2]
 800ceae:	e048      	b.n	800cf42 <__kernel_rem_pio2f+0x5f6>
 800ceb0:	f109 31ff 	add.w	r1, r9, #4294967295
 800ceb4:	f10d 0e18 	add.w	lr, sp, #24
 800ceb8:	f85e 0021 	ldr.w	r0, [lr, r1, lsl #2]
 800cebc:	f000 077f 	and.w	r7, r0, #127	; 0x7f
 800cec0:	f84e 7021 	str.w	r7, [lr, r1, lsl #2]
 800cec4:	e6fd      	b.n	800ccc2 <__kernel_rem_pio2f+0x376>
 800cec6:	eeb6 5a00 	vmov.f32	s10, #96	; 0x60
 800ceca:	eef4 9ac5 	vcmpe.f32	s19, s10
 800cece:	eef1 fa10 	vmrs	APSR_nzcv, fpscr
 800ced2:	da0d      	bge.n	800cef0 <__kernel_rem_pio2f+0x5a4>
 800ced4:	f04f 0a00 	mov.w	sl, #0
 800ced8:	e6f7      	b.n	800ccca <__kernel_rem_pio2f+0x37e>
 800ceda:	eddf 0a77 	vldr	s1, [pc, #476]	; 800d0b8 <__kernel_rem_pio2f+0x76c>
 800cede:	ee10 2a90 	vmov	r2, s1
 800cee2:	f844 2f04 	str.w	r2, [r4, #4]!
 800cee6:	3001      	adds	r0, #1
 800cee8:	4554      	cmp	r4, sl
 800ceea:	f47f adb4 	bne.w	800ca56 <__kernel_rem_pio2f+0x10a>
 800ceee:	e5f1      	b.n	800cad4 <__kernel_rem_pio2f+0x188>
 800cef0:	ee1a 7a10 	vmov	r7, s20
 800cef4:	1c78      	adds	r0, r7, #1
 800cef6:	f1b9 0f00 	cmp.w	r9, #0
 800cefa:	f04f 0a02 	mov.w	sl, #2
 800cefe:	ee0a 0a10 	vmov	s20, r0
 800cf02:	f73f ae94 	bgt.w	800cc2e <__kernel_rem_pio2f+0x2e2>
 800cf06:	2200      	movs	r2, #0
 800cf08:	e6ca      	b.n	800cca0 <__kernel_rem_pio2f+0x354>
 800cf0a:	eddf 7a6b 	vldr	s15, [pc, #428]	; 800d0b8 <__kernel_rem_pio2f+0x76c>
 800cf0e:	e54b      	b.n	800c9a8 <__kernel_rem_pio2f+0x5c>
 800cf10:	f04f 0a01 	mov.w	sl, #1
 800cf14:	e713      	b.n	800cd3e <__kernel_rem_pio2f+0x3f2>
 800cf16:	a806      	add	r0, sp, #24
 800cf18:	9d00      	ldr	r5, [sp, #0]
 800cf1a:	f850 302c 	ldr.w	r3, [r0, ip, lsl #2]
 800cf1e:	9f01      	ldr	r7, [sp, #4]
 800cf20:	3d08      	subs	r5, #8
 800cf22:	9500      	str	r5, [sp, #0]
 800cf24:	2b00      	cmp	r3, #0
 800cf26:	f040 821a 	bne.w	800d35e <__kernel_rem_pio2f+0xa12>
 800cf2a:	eb00 048c 	add.w	r4, r0, ip, lsl #2
 800cf2e:	46e1      	mov	r9, ip
 800cf30:	462a      	mov	r2, r5
 800cf32:	f854 1d04 	ldr.w	r1, [r4, #-4]!
 800cf36:	f109 39ff 	add.w	r9, r9, #4294967295
 800cf3a:	3a08      	subs	r2, #8
 800cf3c:	2900      	cmp	r1, #0
 800cf3e:	d0f8      	beq.n	800cf32 <__kernel_rem_pio2f+0x5e6>
 800cf40:	9200      	str	r2, [sp, #0]
 800cf42:	eeb7 0a00 	vmov.f32	s0, #112	; 0x70
 800cf46:	9800      	ldr	r0, [sp, #0]
 800cf48:	f000 faae 	bl	800d4a8 <scalbnf>
 800cf4c:	f1b9 0f00 	cmp.w	r9, #0
 800cf50:	f2c0 8083 	blt.w	800d05a <__kernel_rem_pio2f+0x70e>
 800cf54:	f109 0801 	add.w	r8, r9, #1
 800cf58:	ea4f 0088 	mov.w	r0, r8, lsl #2
 800cf5c:	ab06      	add	r3, sp, #24
 800cf5e:	181d      	adds	r5, r3, r0
 800cf60:	ed35 4a01 	vldmdb	r5!, {s8}
 800cf64:	eef8 4ac4 	vcvt.f32.s32	s9, s8
 800cf68:	f50d 7e84 	add.w	lr, sp, #264	; 0x108
 800cf6c:	ee64 5a80 	vmul.f32	s11, s9, s0
 800cf70:	eb0e 0400 	add.w	r4, lr, r0
 800cf74:	ed64 5a01 	vstmdb	r4!, {s11}
 800cf78:	eddf 0a4d 	vldr	s1, [pc, #308]	; 800d0b0 <__kernel_rem_pio2f+0x764>
 800cf7c:	1f02      	subs	r2, r0, #4
 800cf7e:	4574      	cmp	r4, lr
 800cf80:	f3c2 0180 	ubfx	r1, r2, #2, #1
 800cf84:	ee60 7a20 	vmul.f32	s15, s0, s1
 800cf88:	d026      	beq.n	800cfd8 <__kernel_rem_pio2f+0x68c>
 800cf8a:	b159      	cbz	r1, 800cfa4 <__kernel_rem_pio2f+0x658>
 800cf8c:	ed35 0a01 	vldmdb	r5!, {s0}
 800cf90:	eeb8 6ac0 	vcvt.f32.s32	s12, s0
 800cf94:	ee26 5a27 	vmul.f32	s10, s12, s15
 800cf98:	ee67 7aa0 	vmul.f32	s15, s15, s1
 800cf9c:	ed24 5a01 	vstmdb	r4!, {s10}
 800cfa0:	4574      	cmp	r4, lr
 800cfa2:	d019      	beq.n	800cfd8 <__kernel_rem_pio2f+0x68c>
 800cfa4:	ed15 7a01 	vldr	s14, [r5, #-4]
 800cfa8:	ed55 1a02 	vldr	s3, [r5, #-8]
 800cfac:	eeb8 1ac7 	vcvt.f32.s32	s2, s14
 800cfb0:	ee67 6aa0 	vmul.f32	s13, s15, s1
 800cfb4:	ee61 2a27 	vmul.f32	s5, s2, s15
 800cfb8:	eeb8 2ae1 	vcvt.f32.s32	s4, s3
 800cfbc:	1f23      	subs	r3, r4, #4
 800cfbe:	1f28      	subs	r0, r5, #4
 800cfc0:	ed44 2a01 	vstr	s5, [r4, #-4]
 800cfc4:	ee22 3a26 	vmul.f32	s6, s4, s13
 800cfc8:	3c08      	subs	r4, #8
 800cfca:	1f05      	subs	r5, r0, #4
 800cfcc:	4574      	cmp	r4, lr
 800cfce:	ed03 3a01 	vstr	s6, [r3, #-4]
 800cfd2:	ee66 7aa0 	vmul.f32	s15, s13, s1
 800cfd6:	d1e5      	bne.n	800cfa4 <__kernel_rem_pio2f+0x658>
 800cfd8:	2400      	movs	r4, #0
 800cfda:	f109 3bff 	add.w	fp, r9, #4294967295
 800cfde:	2f00      	cmp	r7, #0
 800cfe0:	f2c0 81b7 	blt.w	800d352 <__kernel_rem_pio2f+0xa06>
 800cfe4:	2c00      	cmp	r4, #0
 800cfe6:	f2c0 81b4 	blt.w	800d352 <__kernel_rem_pio2f+0xa06>
 800cfea:	ebc4 050b 	rsb	r5, r4, fp
 800cfee:	2200      	movs	r2, #0
 800cff0:	07fb      	lsls	r3, r7, #31
 800cff2:	4930      	ldr	r1, [pc, #192]	; (800d0b4 <__kernel_rem_pio2f+0x768>)
 800cff4:	eb0e 0085 	add.w	r0, lr, r5, lsl #2
 800cff8:	eddf 3a2f 	vldr	s7, [pc, #188]	; 800d0b8 <__kernel_rem_pio2f+0x76c>
 800cffc:	d50b      	bpl.n	800d016 <__kernel_rem_pio2f+0x6ca>
 800cffe:	3104      	adds	r1, #4
 800d000:	3004      	adds	r0, #4
 800d002:	ed91 4a00 	vldr	s8, [r1]
 800d006:	edd0 4a00 	vldr	s9, [r0]
 800d00a:	2201      	movs	r2, #1
 800d00c:	4297      	cmp	r7, r2
 800d00e:	ee44 3a24 	vmla.f32	s7, s8, s9
 800d012:	da18      	bge.n	800d046 <__kernel_rem_pio2f+0x6fa>
 800d014:	e019      	b.n	800d04a <__kernel_rem_pio2f+0x6fe>
 800d016:	edd1 5a01 	vldr	s11, [r1, #4]
 800d01a:	edd0 0a01 	vldr	s1, [r0, #4]
 800d01e:	1c53      	adds	r3, r2, #1
 800d020:	1d0e      	adds	r6, r1, #4
 800d022:	1d05      	adds	r5, r0, #4
 800d024:	3202      	adds	r2, #2
 800d026:	429f      	cmp	r7, r3
 800d028:	ee45 3aa0 	vmla.f32	s7, s11, s1
 800d02c:	f106 0104 	add.w	r1, r6, #4
 800d030:	f105 0004 	add.w	r0, r5, #4
 800d034:	db09      	blt.n	800d04a <__kernel_rem_pio2f+0x6fe>
 800d036:	42a3      	cmp	r3, r4
 800d038:	dc07      	bgt.n	800d04a <__kernel_rem_pio2f+0x6fe>
 800d03a:	edd6 1a01 	vldr	s3, [r6, #4]
 800d03e:	ed95 2a01 	vldr	s4, [r5, #4]
 800d042:	ee41 3a82 	vmla.f32	s7, s3, s4
 800d046:	42a2      	cmp	r2, r4
 800d048:	dde5      	ble.n	800d016 <__kernel_rem_pio2f+0x6ca>
 800d04a:	ab56      	add	r3, sp, #344	; 0x158
 800d04c:	eb03 0284 	add.w	r2, r3, r4, lsl #2
 800d050:	3401      	adds	r4, #1
 800d052:	4544      	cmp	r4, r8
 800d054:	ed42 3a28 	vstr	s7, [r2, #-160]	; 0xffffff60
 800d058:	d1c1      	bne.n	800cfde <__kernel_rem_pio2f+0x692>
 800d05a:	9c66      	ldr	r4, [sp, #408]	; 0x198
 800d05c:	2c03      	cmp	r4, #3
 800d05e:	d81c      	bhi.n	800d09a <__kernel_rem_pio2f+0x74e>
 800d060:	e8df f014 	tbh	[pc, r4, lsl #1]
 800d064:	00e40147 	.word	0x00e40147
 800d068:	002c00e4 	.word	0x002c00e4
 800d06c:	ed9f 2a12 	vldr	s4, [pc, #72]	; 800d0b8 <__kernel_rem_pio2f+0x76c>
 800d070:	f1ba 0f00 	cmp.w	sl, #0
 800d074:	f000 80d2 	beq.w	800d21c <__kernel_rem_pio2f+0x8d0>
 800d078:	eddd 3a2e 	vldr	s7, [sp, #184]	; 0xb8
 800d07c:	eddd 4a2f 	vldr	s9, [sp, #188]	; 0xbc
 800d080:	9902      	ldr	r1, [sp, #8]
 800d082:	eeb1 4a63 	vneg.f32	s8, s7
 800d086:	eef1 5a64 	vneg.f32	s11, s9
 800d08a:	eef1 0a42 	vneg.f32	s1, s4
 800d08e:	ed81 4a00 	vstr	s8, [r1]
 800d092:	edc1 5a01 	vstr	s11, [r1, #4]
 800d096:	edc1 0a02 	vstr	s1, [r1, #8]
 800d09a:	ee1a 3a10 	vmov	r3, s20
 800d09e:	f003 0007 	and.w	r0, r3, #7
 800d0a2:	b057      	add	sp, #348	; 0x15c
 800d0a4:	ecbd 8b06 	vpop	{d8-d10}
 800d0a8:	e8bd 8ff0 	ldmia.w	sp!, {r4, r5, r6, r7, r8, r9, sl, fp, pc}
 800d0ac:	43800000 	.word	0x43800000
 800d0b0:	3b800000 	.word	0x3b800000
 800d0b4:	0800fe78 	.word	0x0800fe78
 800d0b8:	00000000 	.word	0x00000000
 800d0bc:	f1b9 0f00 	cmp.w	r9, #0
 800d0c0:	ddd4      	ble.n	800d06c <__kernel_rem_pio2f+0x720>
 800d0c2:	f109 0501 	add.w	r5, r9, #1
 800d0c6:	a92e      	add	r1, sp, #184	; 0xb8
 800d0c8:	eb01 0285 	add.w	r2, r1, r5, lsl #2
 800d0cc:	ed12 0a02 	vldr	s0, [r2, #-8]
 800d0d0:	ed12 6a01 	vldr	s12, [r2, #-4]
 800d0d4:	ee30 5a06 	vadd.f32	s10, s0, s12
 800d0d8:	4613      	mov	r3, r2
 800d0da:	ee70 7a45 	vsub.f32	s15, s0, s10
 800d0de:	a82f      	add	r0, sp, #188	; 0xbc
 800d0e0:	ee36 7a27 	vadd.f32	s14, s12, s15
 800d0e4:	f3c2 0580 	ubfx	r5, r2, #2, #1
 800d0e8:	ed23 7a01 	vstmdb	r3!, {s14}
 800d0ec:	4283      	cmp	r3, r0
 800d0ee:	ed03 5a01 	vstr	s10, [r3, #-4]
 800d0f2:	d02a      	beq.n	800d14a <__kernel_rem_pio2f+0x7fe>
 800d0f4:	b16d      	cbz	r5, 800d112 <__kernel_rem_pio2f+0x7c6>
 800d0f6:	ed13 1a02 	vldr	s2, [r3, #-8]
 800d0fa:	ee71 1a05 	vadd.f32	s3, s2, s10
 800d0fe:	ee71 6a61 	vsub.f32	s13, s2, s3
 800d102:	ee35 2a26 	vadd.f32	s4, s10, s13
 800d106:	ed23 2a01 	vstmdb	r3!, {s4}
 800d10a:	4283      	cmp	r3, r0
 800d10c:	ed43 1a01 	vstr	s3, [r3, #-4]
 800d110:	d01b      	beq.n	800d14a <__kernel_rem_pio2f+0x7fe>
 800d112:	4619      	mov	r1, r3
 800d114:	ed71 2a01 	vldmdb	r1!, {s5}
 800d118:	ed13 3a02 	vldr	s6, [r3, #-8]
 800d11c:	ee73 3a22 	vadd.f32	s7, s6, s5
 800d120:	ee33 4a63 	vsub.f32	s8, s6, s7
 800d124:	ee72 4a84 	vadd.f32	s9, s5, s8
 800d128:	ed43 4a01 	vstr	s9, [r3, #-4]
 800d12c:	ed51 5a02 	vldr	s11, [r1, #-8]
 800d130:	ee75 0aa3 	vadd.f32	s1, s11, s7
 800d134:	1f0b      	subs	r3, r1, #4
 800d136:	ee35 0ae0 	vsub.f32	s0, s11, s1
 800d13a:	4283      	cmp	r3, r0
 800d13c:	ee33 6a80 	vadd.f32	s12, s7, s0
 800d140:	ed01 6a01 	vstr	s12, [r1, #-4]
 800d144:	ed43 0a01 	vstr	s1, [r3, #-4]
 800d148:	d1e3      	bne.n	800d112 <__kernel_rem_pio2f+0x7c6>
 800d14a:	f1b9 0f01 	cmp.w	r9, #1
 800d14e:	dd8d      	ble.n	800d06c <__kernel_rem_pio2f+0x720>
 800d150:	ed12 5a02 	vldr	s10, [r2, #-8]
 800d154:	ed12 7a01 	vldr	s14, [r2, #-4]
 800d158:	ee75 7a07 	vadd.f32	s15, s10, s14
 800d15c:	4613      	mov	r3, r2
 800d15e:	ee35 1a67 	vsub.f32	s2, s10, s15
 800d162:	a930      	add	r1, sp, #192	; 0xc0
 800d164:	ee77 1a01 	vadd.f32	s3, s14, s2
 800d168:	1a50      	subs	r0, r2, r1
 800d16a:	ed63 1a01 	vstmdb	r3!, {s3}
 800d16e:	1f05      	subs	r5, r0, #4
 800d170:	428b      	cmp	r3, r1
 800d172:	ed43 7a01 	vstr	s15, [r3, #-4]
 800d176:	f3c5 0080 	ubfx	r0, r5, #2, #1
 800d17a:	d02a      	beq.n	800d1d2 <__kernel_rem_pio2f+0x886>
 800d17c:	b168      	cbz	r0, 800d19a <__kernel_rem_pio2f+0x84e>
 800d17e:	ed53 6a02 	vldr	s13, [r3, #-8]
 800d182:	ee36 2aa7 	vadd.f32	s4, s13, s15
 800d186:	ee76 2ac2 	vsub.f32	s5, s13, s4
 800d18a:	ee37 3aa2 	vadd.f32	s6, s15, s5
 800d18e:	ed23 3a01 	vstmdb	r3!, {s6}
 800d192:	428b      	cmp	r3, r1
 800d194:	ed03 2a01 	vstr	s4, [r3, #-4]
 800d198:	d01b      	beq.n	800d1d2 <__kernel_rem_pio2f+0x886>
 800d19a:	461d      	mov	r5, r3
 800d19c:	ed75 3a01 	vldmdb	r5!, {s7}
 800d1a0:	ed13 4a02 	vldr	s8, [r3, #-8]
 800d1a4:	ee74 4a23 	vadd.f32	s9, s8, s7
 800d1a8:	ee74 5a64 	vsub.f32	s11, s8, s9
 800d1ac:	ee73 0aa5 	vadd.f32	s1, s7, s11
 800d1b0:	ed43 0a01 	vstr	s1, [r3, #-4]
 800d1b4:	ed15 0a02 	vldr	s0, [r5, #-8]
 800d1b8:	ee30 6a24 	vadd.f32	s12, s0, s9
 800d1bc:	1f2b      	subs	r3, r5, #4
 800d1be:	ee30 5a46 	vsub.f32	s10, s0, s12
 800d1c2:	428b      	cmp	r3, r1
 800d1c4:	ee34 7a85 	vadd.f32	s14, s9, s10
 800d1c8:	ed05 7a01 	vstr	s14, [r5, #-4]
 800d1cc:	ed03 6a01 	vstr	s12, [r3, #-4]
 800d1d0:	d1e3      	bne.n	800d19a <__kernel_rem_pio2f+0x84e>
 800d1d2:	4613      	mov	r3, r2
 800d1d4:	ed73 7a01 	vldmdb	r3!, {s15}
 800d1d8:	1a50      	subs	r0, r2, r1
 800d1da:	ed1f 1a49 	vldr	s2, [pc, #-292]	; 800d0b8 <__kernel_rem_pio2f+0x76c>
 800d1de:	1f02      	subs	r2, r0, #4
 800d1e0:	428b      	cmp	r3, r1
 800d1e2:	f3c2 0580 	ubfx	r5, r2, #2, #1
 800d1e6:	ee31 2a27 	vadd.f32	s4, s2, s15
 800d1ea:	f43f af41 	beq.w	800d070 <__kernel_rem_pio2f+0x724>
 800d1ee:	b135      	cbz	r5, 800d1fe <__kernel_rem_pio2f+0x8b2>
 800d1f0:	ed73 1a01 	vldmdb	r3!, {s3}
 800d1f4:	428b      	cmp	r3, r1
 800d1f6:	ee32 2a21 	vadd.f32	s4, s4, s3
 800d1fa:	f43f af39 	beq.w	800d070 <__kernel_rem_pio2f+0x724>
 800d1fe:	ed53 6a01 	vldr	s13, [r3, #-4]
 800d202:	ed13 3a02 	vldr	s6, [r3, #-8]
 800d206:	ee72 2a26 	vadd.f32	s5, s4, s13
 800d20a:	3b08      	subs	r3, #8
 800d20c:	428b      	cmp	r3, r1
 800d20e:	ee32 2a83 	vadd.f32	s4, s5, s6
 800d212:	d1f4      	bne.n	800d1fe <__kernel_rem_pio2f+0x8b2>
 800d214:	f1ba 0f00 	cmp.w	sl, #0
 800d218:	f47f af2e 	bne.w	800d078 <__kernel_rem_pio2f+0x72c>
 800d21c:	9802      	ldr	r0, [sp, #8]
 800d21e:	9b2e      	ldr	r3, [sp, #184]	; 0xb8
 800d220:	9a2f      	ldr	r2, [sp, #188]	; 0xbc
 800d222:	6003      	str	r3, [r0, #0]
 800d224:	6042      	str	r2, [r0, #4]
 800d226:	ed80 2a02 	vstr	s4, [r0, #8]
 800d22a:	e736      	b.n	800d09a <__kernel_rem_pio2f+0x74e>
 800d22c:	f1b9 0f00 	cmp.w	r9, #0
 800d230:	f2c0 80a2 	blt.w	800d378 <__kernel_rem_pio2f+0xa2c>
 800d234:	ad2e      	add	r5, sp, #184	; 0xb8
 800d236:	f109 0101 	add.w	r1, r9, #1
 800d23a:	eb05 0081 	add.w	r0, r5, r1, lsl #2
 800d23e:	4603      	mov	r3, r0
 800d240:	ed33 0a01 	vldmdb	r3!, {s0}
 800d244:	1b42      	subs	r2, r0, r5
 800d246:	ed1f 6a64 	vldr	s12, [pc, #-400]	; 800d0b8 <__kernel_rem_pio2f+0x76c>
 800d24a:	1f11      	subs	r1, r2, #4
 800d24c:	42ab      	cmp	r3, r5
 800d24e:	f3c1 0080 	ubfx	r0, r1, #2, #1
 800d252:	ee76 7a00 	vadd.f32	s15, s12, s0
 800d256:	d011      	beq.n	800d27c <__kernel_rem_pio2f+0x930>
 800d258:	b128      	cbz	r0, 800d266 <__kernel_rem_pio2f+0x91a>
 800d25a:	ed33 5a01 	vldmdb	r3!, {s10}
 800d25e:	42ab      	cmp	r3, r5
 800d260:	ee77 7a85 	vadd.f32	s15, s15, s10
 800d264:	d00a      	beq.n	800d27c <__kernel_rem_pio2f+0x930>
 800d266:	ed13 7a01 	vldr	s14, [r3, #-4]
 800d26a:	ed53 1a02 	vldr	s3, [r3, #-8]
 800d26e:	ee37 1a87 	vadd.f32	s2, s15, s14
 800d272:	3b08      	subs	r3, #8
 800d274:	42ab      	cmp	r3, r5
 800d276:	ee71 7a21 	vadd.f32	s15, s2, s3
 800d27a:	d1f4      	bne.n	800d266 <__kernel_rem_pio2f+0x91a>
 800d27c:	f1ba 0f00 	cmp.w	sl, #0
 800d280:	d06a      	beq.n	800d358 <__kernel_rem_pio2f+0xa0c>
 800d282:	eeb1 2a67 	vneg.f32	s4, s15
 800d286:	9d02      	ldr	r5, [sp, #8]
 800d288:	eddd 6a2e 	vldr	s13, [sp, #184]	; 0xb8
 800d28c:	f1b9 0f00 	cmp.w	r9, #0
 800d290:	ed85 2a00 	vstr	s4, [r5]
 800d294:	ee76 3ae7 	vsub.f32	s7, s13, s15
 800d298:	dd22      	ble.n	800d2e0 <__kernel_rem_pio2f+0x994>
 800d29a:	ac2e      	add	r4, sp, #184	; 0xb8
 800d29c:	eb04 0989 	add.w	r9, r4, r9, lsl #2
 800d2a0:	ab2f      	add	r3, sp, #188	; 0xbc
 800d2a2:	ebc4 0209 	rsb	r2, r4, r9
 800d2a6:	edd3 2a00 	vldr	s5, [r3]
 800d2aa:	1f11      	subs	r1, r2, #4
 800d2ac:	454b      	cmp	r3, r9
 800d2ae:	461c      	mov	r4, r3
 800d2b0:	f3c1 0080 	ubfx	r0, r1, #2, #1
 800d2b4:	ee73 3aa2 	vadd.f32	s7, s7, s5
 800d2b8:	d012      	beq.n	800d2e0 <__kernel_rem_pio2f+0x994>
 800d2ba:	b130      	cbz	r0, 800d2ca <__kernel_rem_pio2f+0x97e>
 800d2bc:	ab30      	add	r3, sp, #192	; 0xc0
 800d2be:	ed93 3a00 	vldr	s6, [r3]
 800d2c2:	454b      	cmp	r3, r9
 800d2c4:	ee73 3a83 	vadd.f32	s7, s7, s6
 800d2c8:	d00a      	beq.n	800d2e0 <__kernel_rem_pio2f+0x994>
 800d2ca:	ed93 4a01 	vldr	s8, [r3, #4]
 800d2ce:	edd3 5a02 	vldr	s11, [r3, #8]
 800d2d2:	ee73 4a84 	vadd.f32	s9, s7, s8
 800d2d6:	3308      	adds	r3, #8
 800d2d8:	454b      	cmp	r3, r9
 800d2da:	ee74 3aa5 	vadd.f32	s7, s9, s11
 800d2de:	d1f4      	bne.n	800d2ca <__kernel_rem_pio2f+0x97e>
 800d2e0:	f1ba 0f00 	cmp.w	sl, #0
 800d2e4:	d001      	beq.n	800d2ea <__kernel_rem_pio2f+0x99e>
 800d2e6:	eef1 3a63 	vneg.f32	s7, s7
 800d2ea:	9d02      	ldr	r5, [sp, #8]
 800d2ec:	edc5 3a01 	vstr	s7, [r5, #4]
 800d2f0:	e6d3      	b.n	800d09a <__kernel_rem_pio2f+0x74e>
 800d2f2:	f1b9 0f00 	cmp.w	r9, #0
 800d2f6:	db3c      	blt.n	800d372 <__kernel_rem_pio2f+0xa26>
 800d2f8:	aa2e      	add	r2, sp, #184	; 0xb8
 800d2fa:	f109 0101 	add.w	r1, r9, #1
 800d2fe:	eb02 0081 	add.w	r0, r2, r1, lsl #2
 800d302:	4603      	mov	r3, r0
 800d304:	ed73 0a01 	vldmdb	r3!, {s1}
 800d308:	1a85      	subs	r5, r0, r2
 800d30a:	ed1f 0a95 	vldr	s0, [pc, #-596]	; 800d0b8 <__kernel_rem_pio2f+0x76c>
 800d30e:	1f29      	subs	r1, r5, #4
 800d310:	4293      	cmp	r3, r2
 800d312:	f3c1 0080 	ubfx	r0, r1, #2, #1
 800d316:	ee30 5a20 	vadd.f32	s10, s0, s1
 800d31a:	d011      	beq.n	800d340 <__kernel_rem_pio2f+0x9f4>
 800d31c:	b128      	cbz	r0, 800d32a <__kernel_rem_pio2f+0x9de>
 800d31e:	ed33 6a01 	vldmdb	r3!, {s12}
 800d322:	4293      	cmp	r3, r2
 800d324:	ee35 5a06 	vadd.f32	s10, s10, s12
 800d328:	d00a      	beq.n	800d340 <__kernel_rem_pio2f+0x9f4>
 800d32a:	ed53 7a01 	vldr	s15, [r3, #-4]
 800d32e:	ed13 7a02 	vldr	s14, [r3, #-8]
 800d332:	ee35 1a27 	vadd.f32	s2, s10, s15
 800d336:	3b08      	subs	r3, #8
 800d338:	4293      	cmp	r3, r2
 800d33a:	ee31 5a07 	vadd.f32	s10, s2, s14
 800d33e:	d1f4      	bne.n	800d32a <__kernel_rem_pio2f+0x9de>
 800d340:	f1ba 0f00 	cmp.w	sl, #0
 800d344:	d001      	beq.n	800d34a <__kernel_rem_pio2f+0x9fe>
 800d346:	eeb1 5a45 	vneg.f32	s10, s10
 800d34a:	9a02      	ldr	r2, [sp, #8]
 800d34c:	ed82 5a00 	vstr	s10, [r2]
 800d350:	e6a3      	b.n	800d09a <__kernel_rem_pio2f+0x74e>
 800d352:	ed5f 3aa7 	vldr	s7, [pc, #-668]	; 800d0b8 <__kernel_rem_pio2f+0x76c>
 800d356:	e678      	b.n	800d04a <__kernel_rem_pio2f+0x6fe>
 800d358:	eeb0 2a67 	vmov.f32	s4, s15
 800d35c:	e793      	b.n	800d286 <__kernel_rem_pio2f+0x93a>
 800d35e:	46e1      	mov	r9, ip
 800d360:	e5ef      	b.n	800cf42 <__kernel_rem_pio2f+0x5f6>
 800d362:	eebd 7ac0 	vcvt.s32.f32	s14, s0
 800d366:	aa06      	add	r2, sp, #24
 800d368:	ee17 4a10 	vmov	r4, s14
 800d36c:	f842 4029 	str.w	r4, [r2, r9, lsl #2]
 800d370:	e5e7      	b.n	800cf42 <__kernel_rem_pio2f+0x5f6>
 800d372:	ed1f 5aaf 	vldr	s10, [pc, #-700]	; 800d0b8 <__kernel_rem_pio2f+0x76c>
 800d376:	e7e3      	b.n	800d340 <__kernel_rem_pio2f+0x9f4>
 800d378:	ed5f 7ab1 	vldr	s15, [pc, #-708]	; 800d0b8 <__kernel_rem_pio2f+0x76c>
 800d37c:	e77e      	b.n	800d27c <__kernel_rem_pio2f+0x930>
 800d37e:	bf00      	nop

0800d380 <__kernel_sinf>:
 800d380:	ee10 2a10 	vmov	r2, s0
 800d384:	f022 4300 	bic.w	r3, r2, #2147483648	; 0x80000000
 800d388:	f1b3 5f48 	cmp.w	r3, #838860800	; 0x32000000
 800d38c:	da04      	bge.n	800d398 <__kernel_sinf+0x18>
 800d38e:	eefd 7ac0 	vcvt.s32.f32	s15, s0
 800d392:	ee17 1a90 	vmov	r1, s15
 800d396:	b321      	cbz	r1, 800d3e2 <__kernel_sinf+0x62>
 800d398:	ee20 1a00 	vmul.f32	s2, s0, s0
 800d39c:	ed9f 7a15 	vldr	s14, [pc, #84]	; 800d3f4 <__kernel_sinf+0x74>
 800d3a0:	eddf 6a15 	vldr	s13, [pc, #84]	; 800d3f8 <__kernel_sinf+0x78>
 800d3a4:	ee11 7a26 	vnmls.f32	s14, s2, s13
 800d3a8:	eddf 1a14 	vldr	s3, [pc, #80]	; 800d3fc <__kernel_sinf+0x7c>
 800d3ac:	ee47 1a01 	vmla.f32	s3, s14, s2
 800d3b0:	ed9f 2a13 	vldr	s4, [pc, #76]	; 800d400 <__kernel_sinf+0x80>
 800d3b4:	ee11 2a81 	vnmls.f32	s4, s3, s2
 800d3b8:	eddf 2a12 	vldr	s5, [pc, #72]	; 800d404 <__kernel_sinf+0x84>
 800d3bc:	ee21 6a00 	vmul.f32	s12, s2, s0
 800d3c0:	ee42 2a01 	vmla.f32	s5, s4, s2
 800d3c4:	b170      	cbz	r0, 800d3e4 <__kernel_sinf+0x64>
 800d3c6:	ee26 3a22 	vmul.f32	s6, s12, s5
 800d3ca:	eef6 3a00 	vmov.f32	s7, #96	; 0x60
 800d3ce:	ee10 3aa3 	vnmls.f32	s6, s1, s7
 800d3d2:	ed9f 4a0d 	vldr	s8, [pc, #52]	; 800d408 <__kernel_sinf+0x88>
 800d3d6:	ee53 0a01 	vnmls.f32	s1, s6, s2
 800d3da:	ee46 0a04 	vmla.f32	s1, s12, s8
 800d3de:	ee30 0a60 	vsub.f32	s0, s0, s1
 800d3e2:	4770      	bx	lr
 800d3e4:	eddf 0a08 	vldr	s1, [pc, #32]	; 800d408 <__kernel_sinf+0x88>
 800d3e8:	ee51 0a22 	vnmls.f32	s1, s2, s5
 800d3ec:	ee00 0a86 	vmla.f32	s0, s1, s12
 800d3f0:	4770      	bx	lr
 800d3f2:	bf00      	nop
 800d3f4:	32d72f34 	.word	0x32d72f34
 800d3f8:	2f2ec9d3 	.word	0x2f2ec9d3
 800d3fc:	3638ef1b 	.word	0x3638ef1b
 800d400:	39500d01 	.word	0x39500d01
 800d404:	3c088889 	.word	0x3c088889
 800d408:	3e2aaaab 	.word	0x3e2aaaab

0800d40c <fabsf>:
 800d40c:	ee10 2a10 	vmov	r2, s0
 800d410:	f022 4300 	bic.w	r3, r2, #2147483648	; 0x80000000
 800d414:	ee00 3a10 	vmov	s0, r3
 800d418:	4770      	bx	lr
 800d41a:	bf00      	nop

0800d41c <floorf>:
 800d41c:	ee10 3a10 	vmov	r3, s0
 800d420:	f023 4100 	bic.w	r1, r3, #2147483648	; 0x80000000
 800d424:	0dca      	lsrs	r2, r1, #23
 800d426:	3a7f      	subs	r2, #127	; 0x7f
 800d428:	2a16      	cmp	r2, #22
 800d42a:	dc1b      	bgt.n	800d464 <floorf+0x48>
 800d42c:	2a00      	cmp	r2, #0
 800d42e:	ee10 0a10 	vmov	r0, s0
 800d432:	db1d      	blt.n	800d470 <floorf+0x54>
 800d434:	f64f 71ff 	movw	r1, #65535	; 0xffff
 800d438:	f2c0 017f 	movt	r1, #127	; 0x7f
 800d43c:	fa41 f102 	asr.w	r1, r1, r2
 800d440:	4219      	tst	r1, r3
 800d442:	d00e      	beq.n	800d462 <floorf+0x46>
 800d444:	eddf 7a17 	vldr	s15, [pc, #92]	; 800d4a4 <floorf+0x88>
 800d448:	ee30 0a27 	vadd.f32	s0, s0, s15
 800d44c:	eeb5 0ac0 	vcmpe.f32	s0, #0.0
 800d450:	eef1 fa10 	vmrs	APSR_nzcv, fpscr
 800d454:	dd03      	ble.n	800d45e <floorf+0x42>
 800d456:	2b00      	cmp	r3, #0
 800d458:	db17      	blt.n	800d48a <floorf+0x6e>
 800d45a:	ea20 0301 	bic.w	r3, r0, r1
 800d45e:	ee00 3a10 	vmov	s0, r3
 800d462:	4770      	bx	lr
 800d464:	f1b1 4fff 	cmp.w	r1, #2139095040	; 0x7f800000
 800d468:	d3fb      	bcc.n	800d462 <floorf+0x46>
 800d46a:	ee30 0a00 	vadd.f32	s0, s0, s0
 800d46e:	4770      	bx	lr
 800d470:	eddf 0a0c 	vldr	s1, [pc, #48]	; 800d4a4 <floorf+0x88>
 800d474:	ee30 1a20 	vadd.f32	s2, s0, s1
 800d478:	eeb5 1ac0 	vcmpe.f32	s2, #0.0
 800d47c:	eef1 fa10 	vmrs	APSR_nzcv, fpscr
 800d480:	dded      	ble.n	800d45e <floorf+0x42>
 800d482:	2b00      	cmp	r3, #0
 800d484:	db07      	blt.n	800d496 <floorf+0x7a>
 800d486:	2300      	movs	r3, #0
 800d488:	e7e9      	b.n	800d45e <floorf+0x42>
 800d48a:	f44f 0300 	mov.w	r3, #8388608	; 0x800000
 800d48e:	fa43 f202 	asr.w	r2, r3, r2
 800d492:	1880      	adds	r0, r0, r2
 800d494:	e7e1      	b.n	800d45a <floorf+0x3e>
 800d496:	2200      	movs	r2, #0
 800d498:	f6cb 7280 	movt	r2, #49024	; 0xbf80
 800d49c:	2900      	cmp	r1, #0
 800d49e:	bf18      	it	ne
 800d4a0:	4613      	movne	r3, r2
 800d4a2:	e7dc      	b.n	800d45e <floorf+0x42>
 800d4a4:	7149f2ca 	.word	0x7149f2ca

0800d4a8 <scalbnf>:
 800d4a8:	b508      	push	{r3, lr}
 800d4aa:	ee10 3a10 	vmov	r3, s0
 800d4ae:	f033 4200 	bics.w	r2, r3, #2147483648	; 0x80000000
 800d4b2:	ed2d 8b02 	vpush	{d8}
 800d4b6:	d011      	beq.n	800d4dc <scalbnf+0x34>
 800d4b8:	f1b2 4fff 	cmp.w	r2, #2139095040	; 0x7f800000
 800d4bc:	d211      	bcs.n	800d4e2 <scalbnf+0x3a>
 800d4be:	f5b2 0f00 	cmp.w	r2, #8388608	; 0x800000
 800d4c2:	d311      	bcc.n	800d4e8 <scalbnf+0x40>
 800d4c4:	0dd1      	lsrs	r1, r2, #23
 800d4c6:	180a      	adds	r2, r1, r0
 800d4c8:	2afe      	cmp	r2, #254	; 0xfe
 800d4ca:	dc2f      	bgt.n	800d52c <scalbnf+0x84>
 800d4cc:	2a00      	cmp	r2, #0
 800d4ce:	dd1b      	ble.n	800d508 <scalbnf+0x60>
 800d4d0:	f023 40ff 	bic.w	r0, r3, #2139095040	; 0x7f800000
 800d4d4:	ea40 52c2 	orr.w	r2, r0, r2, lsl #23
 800d4d8:	ee00 2a10 	vmov	s0, r2
 800d4dc:	ecbd 8b02 	vpop	{d8}
 800d4e0:	bd08      	pop	{r3, pc}
 800d4e2:	ee30 0a00 	vadd.f32	s0, s0, s0
 800d4e6:	e7f9      	b.n	800d4dc <scalbnf+0x34>
 800d4e8:	f643 43b0 	movw	r3, #15536	; 0x3cb0
 800d4ec:	f6cf 73ff 	movt	r3, #65535	; 0xffff
 800d4f0:	eddf 7a1c 	vldr	s15, [pc, #112]	; 800d564 <scalbnf+0xbc>
 800d4f4:	4298      	cmp	r0, r3
 800d4f6:	ee20 0a27 	vmul.f32	s0, s0, s15
 800d4fa:	db22      	blt.n	800d542 <scalbnf+0x9a>
 800d4fc:	ee10 3a10 	vmov	r3, s0
 800d500:	f3c3 51c7 	ubfx	r1, r3, #23, #8
 800d504:	3919      	subs	r1, #25
 800d506:	e7de      	b.n	800d4c6 <scalbnf+0x1e>
 800d508:	f112 0f16 	cmn.w	r2, #22
 800d50c:	da1e      	bge.n	800d54c <scalbnf+0xa4>
 800d50e:	f24c 3350 	movw	r3, #50000	; 0xc350
 800d512:	4298      	cmp	r0, r3
 800d514:	dc0a      	bgt.n	800d52c <scalbnf+0x84>
 800d516:	ed9f 8a14 	vldr	s16, [pc, #80]	; 800d568 <scalbnf+0xc0>
 800d51a:	eef0 0a40 	vmov.f32	s1, s0
 800d51e:	eeb0 0a48 	vmov.f32	s0, s16
 800d522:	f000 f827 	bl	800d574 <copysignf>
 800d526:	ee20 0a08 	vmul.f32	s0, s0, s16
 800d52a:	e7d7      	b.n	800d4dc <scalbnf+0x34>
 800d52c:	ed9f 8a0f 	vldr	s16, [pc, #60]	; 800d56c <scalbnf+0xc4>
 800d530:	eef0 0a40 	vmov.f32	s1, s0
 800d534:	eeb0 0a48 	vmov.f32	s0, s16
 800d538:	f000 f81c 	bl	800d574 <copysignf>
 800d53c:	ee20 0a08 	vmul.f32	s0, s0, s16
 800d540:	e7cc      	b.n	800d4dc <scalbnf+0x34>
 800d542:	eddf 0a09 	vldr	s1, [pc, #36]	; 800d568 <scalbnf+0xc0>
 800d546:	ee20 0a20 	vmul.f32	s0, s0, s1
 800d54a:	e7c7      	b.n	800d4dc <scalbnf+0x34>
 800d54c:	3219      	adds	r2, #25
 800d54e:	f023 40ff 	bic.w	r0, r3, #2139095040	; 0x7f800000
 800d552:	ea40 51c2 	orr.w	r1, r0, r2, lsl #23
 800d556:	ed9f 0a06 	vldr	s0, [pc, #24]	; 800d570 <scalbnf+0xc8>
 800d55a:	ee07 1a10 	vmov	s14, r1
 800d55e:	ee27 0a00 	vmul.f32	s0, s14, s0
 800d562:	e7bb      	b.n	800d4dc <scalbnf+0x34>
 800d564:	4c000000 	.word	0x4c000000
 800d568:	0da24260 	.word	0x0da24260
 800d56c:	7149f2ca 	.word	0x7149f2ca
 800d570:	33000000 	.word	0x33000000

0800d574 <copysignf>:
 800d574:	ee10 1a10 	vmov	r1, s0
 800d578:	ee10 0a90 	vmov	r0, s1
 800d57c:	f021 4300 	bic.w	r3, r1, #2147483648	; 0x80000000
 800d580:	f000 4200 	and.w	r2, r0, #2147483648	; 0x80000000
 800d584:	ea42 0103 	orr.w	r1, r2, r3
 800d588:	ee00 1a10 	vmov	s0, r1
 800d58c:	4770      	bx	lr
 800d58e:	bf00      	nop
 800d590:	656d6974 	.word	0x656d6974
 800d594:	25203d20 	.word	0x25203d20
 800d598:	756c3330 	.word	0x756c3330
 800d59c:	6e696d20 	.word	0x6e696d20
 800d5a0:	32302520 	.word	0x32302520
 800d5a4:	7320756c 	.word	0x7320756c
 800d5a8:	00000000 	.word	0x00000000
 800d5ac:	6e617274 	.word	0x6e617274
 800d5b0:	74696d73 	.word	0x74696d73
 800d5b4:	00726574 	.word	0x00726574
 800d5b8:	6f6d656d 	.word	0x6f6d656d
 800d5bc:	65207972 	.word	0x65207972
 800d5c0:	726f7272 	.word	0x726f7272
 800d5c4:	00000000 	.word	0x00000000

0800d5c8 <_ZTV10abc_bitmapIhE>:
	...
 800d5d0:	08005325 08005325 08005325 0800242d     %S..%S..%S..-$..
 800d5e0:	08003029 00000000                       )0......

0800d5e8 <_ZN12_GLOBAL__N_112fontchar_2_t4dataE>:
 800d5e8:	ffffffff ffffffff ffffffff ffffffff     ................
 800d5f8:	aabfffff f9556ffe 5be5555b 6e5be5aa     .....oU.[U.[..[n
 800d608:	f95bafe5 bffe56ff a56fff95 e5555bfa     ..[..V....o..[U.
 800d618:	afe5555b 0000faaa                       [U......

0800d620 <_ZN12_GLOBAL__N_112fontchar_u_t4dataE>:
 800d620:	ffffffff ffffffff ffffffff ffffffff     ................
 800d630:	ffffffff eabeabff 5be5be5b be5be5be     ........[..[..[.
 800d640:	e5be5be5 5be5be5b aa5be5be e5555be5     .[..[..[..[..[U.
 800d650:	bff9556f 0000feaa                       oU......

0800d658 <_ZTVN12_GLOBAL__N_112fontchar_C_tE>:
	...
 800d660:	080028ad 080028b9 08001fd1 08002889     .(...(.......(..
 800d670:	08002fed 00000000                       ./......

0800d678 <_ZTVN12_GLOBAL__N_112fontchar_L_tE>:
	...
 800d680:	080028ad 080028b9 0800203d 0800281d     .(...(..= ...(..
 800d690:	08002f39 00000000                       9/......

0800d698 <_ZN12_GLOBAL__N_115fontchar_star_t4dataE>:
 800d698:	ffffffff fffbffff 9bffe6ef 5b96ff96     ...............[
 800d6a8:	696fe5be ea55abf9 ab955556 696fea55     ..oi..U.VU..U.oi
 800d6b8:	e5be5bf9 e696ff96 fffb9bff ffffffef     .[..............
 800d6c8:	ffffffff 0000ffff                       ........

0800d6d0 <_ZTVN12_GLOBAL__N_112fontchar_U_tE>:
	...
 800d6d8:	080028ad 080028b9 080020a9 080027b1     .(...(... ...'..
 800d6e8:	08002e85 00000000                       ........

0800d6f0 <_ZN12_GLOBAL__N_113fontchar_up_t4dataE>:
 800d6f0:	ffffffff ffffffff ffebffff bfff96ff     ................
 800d700:	696ffe55 f9be6ff9 fffaffaf ffffffff     U.oi.o..........
 800d710:	ffffffff ffffffff ffffffff ffffffff     ................
 800d720:	ffffffff 0000ffff                       ........

0800d728 <_ZTVN12_GLOBAL__N_117fontchar_rcurly_tE>:
	...
 800d730:	080028ad 080028b9 08002355 08002505     .(...(..U#...%..
 800d740:	08002a11 00000000                       .*......

0800d748 <_ZN12_GLOBAL__N_112fontchar_M_t4dataE>:
 800d748:	ffffffff ffafffff e5be5bfa 5be5695b     .........[..[i.[
 800d758:	555be555 e5965be5 5be5965b be5be5aa     U.[U.[..[..[..[.
 800d768:	e5be5be5 5be5be5b be5be5be e5be5be5     .[..[..[..[..[..
 800d778:	afe5be5b 0000faff                       [.......

0800d780 <_ZTVN12_GLOBAL__N_116fontchar_dquot_tE>:
	...
 800d788:	080028ad 080028b9 080022ad 080025ad     .(...(..."...%..
 800d798:	08002b29 00000000                       )+......

0800d7a0 <_ZN12_GLOBAL__N_112fontchar_a_t4dataE>:
 800d7a0:	ffffffff ffffffff ffffffff bfffffff     ................
 800d7b0:	556ffeaa e5696ff9 ffe5beaf 55afe5aa     ..oU.oi........U
 800d7c0:	e5555be5 5be5a95b a95be5be e5555be5     .[U.[..[..[..[U.
 800d7d0:	bfe5556f 0000eaaa                       oU......

0800d7d8 <_ZN12_GLOBAL__N_116fontchar_bquot_t4dataE>:
 800d7d8:	afffffff fe5bffff fff96fff ffffe5bf     ......[..o......
 800d7e8:	ebffff96 ffffffff ffffffff ffffffff     ................
 800d7f8:	ffffffff ffffffff ffffffff ffffffff     ................
 800d808:	ffffffff 0000ffff                       ........

0800d810 <_ZTVN12_GLOBAL__N_112fontchar_p_tE>:
	...
 800d818:	080028ad 080028b9 080021a5 080026b5     .(...(...!...&..
 800d828:	08002ce1 00000000                       .,......

0800d830 <_ZN12_GLOBAL__N_112fontchar_h_t4dataE>:
 800d830:	ffffffff ffffffff fffeabff 5bfffe5b     ............[..[
 800d840:	fe5bfffe feaa5bff 5bf9555b 695be555     ..[..[..[U.[U.[i
 800d850:	e5be5be5 5be5be5b be5be5be e5be5be5     .[..[..[..[..[..
 800d860:	abe5be5b 0000eabe                       [.......

0800d868 <_ZTVN12_GLOBAL__N_112fontchar_y_tE>:
	...
 800d870:	080028ad 080028b9 08002211 08002649     .(...(..."..I&..
 800d880:	08002c2d 00000000                       -,......

0800d888 <_ZN12_GLOBAL__N_116fontchar_squot_t4dataE>:
 800d888:	ffffffff 9bffffef fe56ffff fffe5bff     ..........V..[..
 800d898:	6ffffe6f ff9bfffe ffffefff ffffffff     o..o............
 800d8a8:	ffffffff ffffffff ffffffff ffffffff     ................
 800d8b8:	ffffffff 0000ffff                       ........

0800d8c0 <_ZN12_GLOBAL__N_112fontchar_F_t4dataE>:
 800d8c0:	ffffffff aaafffff e5555bfa 5be5555b     .........[U.[U.[
 800d8d0:	fe5bfaaa fffe5bff 5bffaa5b 555bfe55     ..[..[..[..[U.[U
 800d8e0:	ffaa5bfe 5bfffe5b fe5bfffe fffe5bff     .[..[..[..[..[..
 800d8f0:	affffe5b 0000ffff                       [.......

0800d8f8 <_ZN12_GLOBAL__N_112fontchar_T_t4dataE>:
 800d8f8:	ffffffff aaafffff e5555bfa afe5555b     .........[U.[U..
 800d908:	96fffa96 ff96ffff ffff96ff 96ffff96     ................
 800d918:	ff96ffff ffff96ff 96ffff96 ff96ffff     ................
 800d928:	ffff96ff 0000ffeb                       ........

0800d930 <_ZN12_GLOBAL__N_116fontchar_tilde_t4dataE>:
 800d930:	ffffffff ffffffff ffffffff ffffffff     ................
 800d940:	e5bfeffa 96956f9b 96e55a5b bfebf96f     .....o..[Z..o...
 800d950:	fffffffe ffffffff ffffffff ffffffff     ................
 800d960:	ffffffff 0000ffff                       ........

0800d968 <_ZTVN12_GLOBAL__N_112fontchar_0_tE>:
	...
 800d970:	080028ad 080028b9 08002295 080025c5     .(...(..."...%..
 800d980:	08002b51 00000000                       Q+......

0800d988 <_ZTVN12_GLOBAL__N_116fontchar_squot_tE>:
	...
 800d990:	080028ad 080028b9 08002391 080024c9     .(...(...#...$..
 800d9a0:	080029ad 00000000                       .)......

0800d9a8 <_ZTVN12_GLOBAL__N_120fontchar_semicolon_tE>:
	...
 800d9b0:	080028ad 080028b9 08002385 080024d5     .(...(...#...$..
 800d9c0:	080029c1 00000000                       .)......

0800d9c8 <_ZN12_GLOBAL__N_112fontchar_o_t4dataE>:
 800d9c8:	ffffffff ffffffff ffffffff ffffffff     ................
 800d9d8:	ffffffff feaabfff 5bf9556f aa5be555     ........oU.[U.[.
 800d9e8:	e5be5be5 5be5be5b aa5be5be e5555be5     .[..[..[..[..[U.
 800d9f8:	bff9556f 0000feaa                       oU......

0800da00 <_ZN12_GLOBAL__N_121fontchar_rsqbracket_t4dataE>:
 800da00:	ffffffff eabfffff ff956fff bfff956f     .........o..o...
 800da10:	96ffff96 ff96ffff ffff96ff 96ffff96     ................
 800da20:	ff96ffff 6fff96bf 956fff95 ffeabfff     .......o..o.....
 800da30:	ffffffff 0000ffff                       ........

0800da38 <_ZTVN12_GLOBAL__N_112fontchar_B_tE>:
	...
 800da40:	080028ad 080028b9 08001fc5 08002895     .(...(.......(..
 800da50:	08003001 00000000                       .0......

0800da58 <_ZTVN12_GLOBAL__N_112fontchar_K_tE>:
	...
 800da60:	080028ad 080028b9 08002031 08002829     .(...(..1 ..)(..
 800da70:	08002f4d 00000000                       M/......

0800da78 <_ZTVN12_GLOBAL__N_117fontchar_lcurly_tE>:
	...
 800da80:	080028ad 080028b9 08002349 08002511     .(...(..I#...%..
 800da90:	08002a25 00000000                       %*......

0800da98 <_ZN12_GLOBAL__N_112fontchar_G_t4dataE>:
 800da98:	ffffffff aabfffff fe556fff 5bf9555b     .........oU.[U.[
 800daa8:	be5be569 e5be5be5 5bfafe5b 5a5bfaae     i.[..[..[..[..[Z
 800dab8:	e55a5be5 5be5ae5b aa5be5be e5555be5     .[Z.[..[..[..[U.
 800dac8:	bfe5556f 0000faaa                       oU......

0800dad0 <_ZTVN12_GLOBAL__N_116fontchar_space_tE>:
	...
 800dad8:	080028ad 080028b9 080022c5 08002595     .(...(..."...%..
 800dae8:	08002b01 00000000                       .+......

0800daf0 <_ZN12_GLOBAL__N_112fontchar_3_t4dataE>:
 800daf0:	ffffffff ffffffff ffffffff ffffffff     ................
 800db00:	aaafffff f9555bfe afe5555b aaffe5aa     .....[U.[U......
 800db10:	f955bfe5 fff955bf aaafe5aa e5555be5     ..U..U.......[U.
 800db20:	aff9555b 0000feaa                       [U......

0800db28 <_ZN12_GLOBAL__N_112fontchar_v_t4dataE>:
 800db28:	ffffffff ffffffff ffffffff ffffffff     ................
 800db38:	ffffffff eabeabff 5be5be5b be5be5be     ........[..[..[.
 800db48:	e5be5be5 5be5be5b 556fe569 fe55bff9     .[..[..[i.oU..U.
 800db58:	ffff96ff 0000ffeb                       ........

0800db60 <_ZN12_GLOBAL__N_120fontchar_backslash_t4dataE>:
 800db60:	ffffffff ffffffff ffffffff 96ffffeb     ................
 800db70:	fe56ffff fff95bff bfffe56f 56ffff95     ..V..[..o......V
 800db80:	f95bfffe ffe56fff ffff95bf ebffff96     ..[..o..........
 800db90:	ffffffff 0000ffff                       ........

0800db98 <_ZTVN12_GLOBAL__N_112fontchar_o_tE>:
	...
 800dba0:	080028ad 080028b9 08002199 080026c1     .(...(...!...&..
 800dbb0:	08002cf5 00000000                       .,......

0800dbb8 <_ZN12_GLOBAL__N_112fontchar_b_t4dataE>:
 800dbb8:	ffffffff ffffffff fffeabff 5bfffe5b     ............[..[
 800dbc8:	fe5bfffe feaa5bff 5bf9555b 6a5be555     ..[..[..[U.[U.[j
 800dbd8:	e5be5be5 5be5be5b 6a5be5be e5555be5     .[..[..[..[j.[U.
 800dbe8:	abf9555b 0000feaa                       [U......

0800dbf0 <_ZTVN12_GLOBAL__N_112fontchar_x_tE>:
	...
 800dbf8:	080028ad 080028b9 08002205 08002655     .(...(..."..U&..
 800dc08:	08002c41 00000000                       A,......

0800dc10 <_ZN12_GLOBAL__N_112fontchar_N_t4dataE>:
 800dc10:	ffffffff ffafffff e5be5bfa 5be5be5b     .........[..[..[
 800dc20:	b95be5be e5b95be5 5be5a55b 565be595     ..[..[..[..[..[V
 800dc30:	e55a5be5 5be56e5b be5be56e e5be5be5     .[Z.[n.[n.[..[..
 800dc40:	afe5be5b 0000faff                       [.......

0800dc48 <_ZN12_GLOBAL__N_112fontchar_q_t4dataE>:
 800dc48:	ffffffff ffffffff ffffffff ffffffff     ................
 800dc58:	ffffffff eaaabfff 5be5556f aa5be555     ........oU.[U.[.
 800dc68:	e5aa5be5 6fe5555b aabfe555 e5bfffe5     .[..[U.oU.......
 800dc78:	ffe5bfff 0000eabf                       ........

0800dc80 <_ZTVN12_GLOBAL__N_117fontchar_lbrace_tE>:
	...
 800dc88:	080028ad 080028b9 08002301 08002559     .(...(...#..Y%..
 800dc98:	08002a9d 00000000                       .*......

0800dca0 <_ZN12_GLOBAL__N_112fontchar_i_t4dataE>:
 800dca0:	ffffffff ffffffff ffffffff ffffebff     ................
 800dcb0:	96ffff96 ffebffff ffffaaff 96ffff96     ................
 800dcc0:	ff96ffff ffff96ff 96ffff96 fe55bfff     ..............U.
 800dcd0:	fffe55bf 0000ffaa                       .U......

0800dcd8 <_ZN12_GLOBAL__N_1L6lookupE>:
 800dcd8:	100000fc 1000008c 1000014c 100000d8     ........L.......
 800dce8:	10000188 10000178 10000024 10000150     ....x...$...P...
 800dcf8:	10000030 1000004c 1000017c 100000c0     0...L...|.......
 800dd08:	1000013c 10000020 10000104 10000184     <... ...........
 800dd18:	10000114 100000f8 100000cc 10000034     ............4...
 800dd28:	1000006c 10000098 100000c8 10000144     l...........D...
 800dd38:	1000012c 10000138 1000002c 10000168     ,...8...,...h...
 800dd48:	100000ac 10000078 10000090 100000d4     ....x...........
 800dd58:	100000a4 10000170 10000028 1000005c     ....p...(...\...
 800dd68:	10000094 100000e8 100000ec 1000011c     ................
 800dd78:	10000124 1000018c 1000003c 10000160     $.......<...`...
 800dd88:	1000009c 100000f4 10000154 10000130     ........T...0...
 800dd98:	1000015c 10000164 1000016c 10000058     \...d...l...X...
 800dda8:	100000b8 100000e0 10000118 10000070     ............p...
 800ddb8:	10000180 10000038 10000018 10000148     ....8.......H...
 800ddc8:	1000010c 10000040 10000080 100000e4     ....@...........
 800ddd8:	10000084 10000048 10000088 100000a8     ....H...........
 800dde8:	100000d0 10000108 10000140 10000174     ........@...t...
 800ddf8:	10000128 10000060 1000007c 100000c4     (...`...|.......
 800de08:	100000f0 10000120 10000110 10000190     .... ...........
 800de18:	100000dc 10000074 100000a0 10000100     ....t...........
 800de28:	10000158 10000134 100000b0 1000001c     X...4...........
 800de38:	10000050 10000068 100000bc 100000b4     P...h...........
 800de48:	10000054 10000044 10000064 00000000     T...D...d.......

0800de58 <_ZTVN12_GLOBAL__N_112fontchar_8_tE>:
	...
 800de60:	080028ad 080028b9 0800227d 080025dd     .(...(..}"...%..
 800de70:	08002b79 00000000                       y+......

0800de78 <_ZN12_GLOBAL__N_113fontchar_lt_t4dataE>:
 800de78:	ffffffff ffffffff ffffffff ffffffff     ................
 800de88:	bfffffff f96ffffe fffe5bff e5bfff96     ......o..[......
 800de98:	fff96fff bffff96f 96ffffe5 fe5bffff     .o..o.........[.
 800dea8:	fff96fff 0000febf                       .o......

0800deb0 <_ZN12_GLOBAL__N_112fontchar_U_t4dataE>:
 800deb0:	ffffffff ffafffff e5be5bfa 5be5be5b     .........[..[..[
 800dec0:	be5be5be e5be5be5 5be5be5b be5be5be     ..[..[..[..[..[.
 800ded0:	e5be5be5 5be5be5b 695be5be f9556fe5     .[..[..[..[i.oU.
 800dee0:	fffe55bf 0000ffaa                       .U......

0800dee8 <_ZTVN12_GLOBAL__N_112fontchar_J_tE>:
	...
 800def0:	080028ad 080028b9 08002025 08002835     .(...(..% ..5(..
 800df00:	08002f61 00000000                       a/......

0800df08 <_ZTVN12_GLOBAL__N_114fontchar_not_tE>:
	...
 800df10:	080028ad 080028b9 080022a1 080025b9     .(...(..."...%..
 800df20:	08002b3d 00000000                       =+......

0800df28 <_ZN12_GLOBAL__N_112fontchar_A_t4dataE>:
 800df28:	ffffffff aaffffff fe55bfff 5bf9556f     ..........U.oU.[
 800df38:	695be555 e5be5be5 5be5be5b aa5be5be     U.[i.[..[..[..[.
 800df48:	e5555be5 5be5555b be5be5aa e5be5be5     .[U.[U.[..[..[..
 800df58:	afe5be5b 0000faff                       [.......

0800df60 <_ZTVN12_GLOBAL__N_112fontchar_S_tE>:
	...
 800df68:	080028ad 080028b9 08002091 080027c9     .(...(... ...'..
 800df78:	08002ead 00000000                       ........

0800df80 <_ZN12_GLOBAL__N_112fontchar_p_t4dataE>:
 800df80:	ffffffff ffffffff ffffffff ffffffff     ................
 800df90:	ffffffff feaaabff 5bf9555b aa5be555     ........[U.[U.[.
 800dfa0:	e5aa5be5 5be5555b aa5bf955 fffe5bfe     .[..[U.[U.[..[..
 800dfb0:	abfffe5b 0000fffe                       [.......

0800dfb8 <_ZTVN12_GLOBAL__N_116fontchar_comma_tE>:
	...
 800dfc0:	080028ad 080028b9 080023d9 08002481     .(...(...#...$..
 800dfd0:	08002935 00000000                       5)......

0800dfd8 <_ZTVN12_GLOBAL__N_112fontchar_e_tE>:
	...
 800dfe0:	080028ad 080028b9 08002121 08002739     .(...(..!!..9'..
 800dff0:	08002dbd 00000000                       .-......

0800dff8 <_ZN12_GLOBAL__N_112fontchar_Z_t4dataE>:
 800dff8:	ffffffff aaafffff e5555bfa afe5555b     .........[U.[U..
 800e008:	bfffe5aa e56fffe5 fff95bff 95bffe56     ......o..[..V...
 800e018:	ffe56fff 5bfff95b aa5bfffe e5555bfa     .o..[..[..[..[U.
 800e028:	afe5555b 0000faaa                       [U......

0800e030 <_ZTVN12_GLOBAL__N_112fontchar_n_tE>:
	...
 800e038:	080028ad 080028b9 0800218d 080026cd     .(...(...!...&..
 800e048:	08002d09 00000000                       .-......

0800e050 <_ZTVN12_GLOBAL__N_119fontchar_question_tE>:
	...
 800e058:	080028ad 080028b9 08002409 08002451     .(...(...$..Q$..
 800e068:	080028e5 00000000                       .(......

0800e070 <_ZN12_GLOBAL__N_117fontchar_dollar_t4dataE>:
 800e070:	ffffffff 96ffffeb fe96bfff 5bf9556f     ............oU.[
 800e080:	965be555 fa965be5 6ffe555b 96aff955     U.[..[..[U.oU...
 800e090:	e5965be5 6fe5555b 96bff955 ff96fffe     .[..[U.oU.......
 800e0a0:	ffffebff 0000ffff                       ........

0800e0a8 <_ZN12_GLOBAL__N_112fontchar_H_t4dataE>:
 800e0a8:	ffffffff ffafffff e5be5bfa 5be5be5b     .........[..[..[
 800e0b8:	be5be5be e5be5be5 5be5aa5b 555be555     ..[..[..[..[U.[U
 800e0c8:	e5aa5be5 5be5be5b be5be5be e5be5be5     .[..[..[..[..[..
 800e0d8:	afe5be5b 0000faff                       [.......

0800e0e0 <_ZN12_GLOBAL__N_113fontchar_at_t4dataE>:
 800e0e0:	ffffffff ffffffff ffffffff bfffaaff     ................
 800e0f0:	aa6ffe55 e6ba9bf9 669a65a6 6a669a5a     U.o......e.fZ.fj
 800e100:	9a5a669a e6e665a6 ff9bf9ba e6aa6ffa     .fZ..e.......o..
 800e110:	fff955bf 0000feaa                       .U......

0800e118 <_ZN12_GLOBAL__N_119fontchar_underbar_t4dataE>:
 800e118:	ffffffff ffffffff ffffffff ffffffff     ................
 800e128:	ffffffff ffffffff ffffffff ffffffff     ................
 800e138:	ffffffff abffffff 5556eaaa 95555695     ..........VU.VU.
 800e148:	ffeaaaab 0000ffff                       ........

0800e150 <_ZN12_GLOBAL__N_112fontchar_4_t4dataE>:
 800e150:	ffffffff ffffffff ffffffff ffffffff     ................
 800e160:	afffffff f95bfffe bff956ff 696ff965     ......[..V..e.oi
 800e170:	f96a5bf9 5be5555b 6aafe555 f96ffff9     .[j.[U.[U..j..o.
 800e180:	fff96fff 0000febf                       .o......

0800e188 <_ZTVN12_GLOBAL__N_112fontchar_Y_tE>:
	...
 800e190:	080028ad 080028b9 080020d9 08002781     .(...(... ...'..
 800e1a0:	08002e35 00000000                       5.......

0800e1a8 <_ZN12_GLOBAL__N_112fontchar_w_t4dataE>:
 800e1a8:	ffffffff ffffffff ffffffff ffffffff     ................
 800e1b8:	ffffffff eabeabff 5be5be5b be5be5be     ........[..[..[.
 800e1c8:	e5aa5be5 5be5965b 555be596 f9556fe5     .[..[..[..[U.oU.
 800e1d8:	bff9696f 0000febe                       oi......

0800e1e0 <_ZN12_GLOBAL__N_113fontchar_gt_t4dataE>:
 800e1e0:	ffffffff ffffffff ffffffff ffffffff     ................
 800e1f0:	ffafffff fffe5bff bffff96f 96ffffe5     .....[..o.......
 800e200:	fe5bffff fffe5bff e5bfff96 fff96fff     ..[..[.......o..
 800e210:	affffe5b 0000ffff                       [.......

0800e218 <_ZN12_GLOBAL__N_112fontchar_c_t4dataE>:
 800e218:	ffffffff ffffffff ffffffff ffffffff     ................
 800e228:	aabfffff f9556ffe 5be5555b fe5be5aa     .....oU.[U.[..[.
 800e238:	fffe5bfa 5bfffe5b aa5bfafe e5555be5     .[..[..[..[..[U.
 800e248:	bff9556f 0000feaa                       oU......

0800e250 <_ZTVN12_GLOBAL__N_112fontchar_7_tE>:
	...
 800e258:	080028ad 080028b9 08002271 080025e9     .(...(..q"...%..
 800e268:	08002b8d 00000000                       .+......

0800e270 <_ZN12_GLOBAL__N_112fontchar_O_t4dataE>:
 800e270:	ffffffff aaffffff fe55bfff 5bf9556f     ..........U.oU.[
 800e280:	be5be569 e5be5be5 5be5be5b be5be5be     i.[..[..[..[..[.
 800e290:	e5be5be5 5be5be5b 695be5be f9556fe5     .[..[..[..[i.oU.
 800e2a0:	fffe55bf 0000ffaa                       .U......

0800e2a8 <_ZN12_GLOBAL__N_119fontchar_question_t4dataE>:
 800e2a8:	ffffffff aabfffff f9556ffe 56e5555b     .........oU.[U.V
 800e2b8:	ff9695aa 96ffeb96 ff95bfff 5bffe56f     ............o..[
 800e2c8:	fe56fff9 ffff96ff ebffffeb ff96ffff     ..V.............
 800e2d8:	ffff96ff 0000ffeb                       ........

0800e2e0 <_ZTVN12_GLOBAL__N_114fontchar_and_tE>:
	...
 800e2e8:	080028ad 080028b9 080022e9 08002571     .(...(..."..q%..
 800e2f8:	08002ac5 00000000                       .*......

0800e300 <_ZN12_GLOBAL__N_114fontchar_and_t4dataE>:
 800e300:	ffffffff ffffffff ffeaffff 6fff95bf     ...............o
 800e310:	6e6ffe69 fe6e6ffe bfff9a6f e5bfffe5     i.on.on.o.......
 800e320:	fa9a6fff 9be66f9b 6a9bf9bf 9b956fe6     .o...o.....j.o..
 800e330:	ffefeabf 0000ffff                       ........

0800e338 <_ZTVN12_GLOBAL__N_113fontchar_gt_tE>:
	...
 800e340:	080028ad 080028b9 080023f1 08002469     .(...(...#..i$..
 800e350:	0800290d 00000000                       .)......

0800e358 <_ZTVN12_GLOBAL__N_112fontchar_I_tE>:
	...
 800e360:	080028ad 080028b9 08002019 08002841     .(...(... ..A(..
 800e370:	08002f75 00000000                       u/......

0800e378 <_ZTVN12_GLOBAL__N_115fontchar_vbar_tE>:
	...
 800e380:	080028ad 080028b9 080023c1 08002499     .(...(...#...$..
 800e390:	0800295d 00000000                       ])......

0800e398 <_ZN12_GLOBAL__N_112fontchar_m_t4dataE>:
 800e398:	ffffffff ffffffff ffffffff ffffffff     ................
 800e3a8:	ffffffff febebfff 5bf9696f 965be555     ........oi.[U.[.
 800e3b8:	e5965be5 5be5965b be5be5aa e5be5be5     .[..[..[..[..[..
 800e3c8:	abe5be5b 0000eabe                       [.......

0800e3d0 <_ZTVN12_GLOBAL__N_112fontchar_T_tE>:
	...
 800e3d8:	080028ad 080028b9 0800209d 080027bd     .(...(... ...'..
 800e3e8:	08002e99 00000000                       ........

0800e3f0 <_ZTVN12_GLOBAL__N_120fontchar_lsqbacket_tE>:
	...
 800e3f8:	080028ad 080028b9 08002361 080024f9     .(...(..a#...$..
 800e408:	080029fd 00000000                       .)......

0800e410 <_ZN12_GLOBAL__N_112fontchar_j_t4dataE>:
 800e410:	ffffffff ffffffff ffffffff fffebfff     ................
 800e420:	6ffff96f febffff9 fffaafff 6ffff96f     o..o........o..o
 800e430:	f96ffff9 bff96fff 696ff96e f9556ff9     ..o..o..n.oi.oU.
 800e440:	fffe55bf 0000ffaa                       .U......

0800e448 <_ZTVN12_GLOBAL__N_112fontchar_d_tE>:
	...
 800e450:	080028ad 080028b9 08002115 08002745     .(...(...!..E'..
 800e460:	08002dd1 00000000                       .-......

0800e468 <_ZN12_GLOBAL__N_114fontchar_dot_t4dataE>:
 800e468:	ffffffff ffffffff ffffffff ffffffff     ................
 800e478:	ffffffff ffffffff ffffffff ffffffff     ................
 800e488:	ffffffff ffffffff ebffffff ff96ffff     ................
 800e498:	ffff96ff 0000ffeb                       ........

0800e4a0 <_ZTVN12_GLOBAL__N_112fontchar_m_tE>:
	...
 800e4a8:	080028ad 080028b9 08002181 080026d9     .(...(...!...&..
 800e4b8:	08002d1d 00000000                       .-......

0800e4c0 <_ZN12_GLOBAL__N_112fontchar_B_t4dataE>:
 800e4c0:	ffffffff aaafffff fe555bff 5bf9555b     .........[U.[U.[
 800e4d0:	be5be56a e5be5be5 5be56a5b 555bf955     j.[..[..[j.[U.[U
 800e4e0:	e56a5bf9 5be5be5b 6a5be5be f9555be5     .[j.[..[..[j.[U.
 800e4f0:	affe555b 0000ffaa                       [U......

0800e4f8 <_ZTVN12_GLOBAL__N_112fontchar_v_tE>:
	...
 800e500:	080028ad 080028b9 080021ed 0800266d     .(...(...!..m&..
 800e510:	08002c69 00000000                       i,......

0800e518 <_ZTVN12_GLOBAL__N_119fontchar_underbar_tE>:
	...
 800e520:	080028ad 080028b9 08002319 08002541     .(...(...#..A%..
 800e530:	08002a75 00000000                       u*......

0800e538 <_ZN12_GLOBAL__N_124fontchar_forward_slash_t4dataE>:
 800e538:	ffffffff ffffffff ffffffff ffebffff     ................
 800e548:	bfff96ff e56fff95 fff95bff 95bffe56     ......o..[..V...
 800e558:	ffe56fff 56fff95b ff96fffe ffffebff     .o..[..V........
 800e568:	ffffffff 0000ffff                       ........

0800e570 <_ZTVN12_GLOBAL__N_112fontchar_c_tE>:
	...
 800e578:	080028ad 080028b9 08002109 08002751     .(...(...!..Q'..
 800e588:	08002de5 00000000                       .-......

0800e590 <_ZTVN12_GLOBAL__N_112fontchar_Z_tE>:
	...
 800e598:	080028ad 080028b9 080020e5 08002775     .(...(... ..u'..
 800e5a8:	08002e21 00000000                       !.......

0800e5b0 <_ZTVN12_GLOBAL__N_112fontchar_Q_tE>:
	...
 800e5b8:	080028ad 080028b9 08002079 080027e1     .(...(..y ...'..
 800e5c8:	08002ed5 00000000                       ........

0800e5d0 <_ZTVN12_GLOBAL__N_120fontchar_backslash_tE>:
	...
 800e5d8:	080028ad 080028b9 080023cd 0800248d     .(...(...#...$..
 800e5e8:	08002949 00000000                       I)......

0800e5f0 <_ZTVN12_GLOBAL__N_118fontchar_percent_tE>:
	...
 800e5f8:	080028ad 080028b9 080022d1 08002589     .(...(..."...%..
 800e608:	08002aed 00000000                       .*......

0800e610 <_ZN12_GLOBAL__N_112fontchar_7_t4dataE>:
 800e610:	ffffffff ffffffff ffffffff ffffffff     ................
 800e620:	aaafffff e5555bfa afe5555b 6fffe5aa     .....[U.[U.....o
 800e630:	f95bffe5 fffe56ff 96ffff96 ff96ffff     ..[..V..........
 800e640:	ffff96ff 0000ffeb                       ........

0800e648 <_ZN12_GLOBAL__N_112fontchar_I_t4dataE>:
 800e648:	ffffffff aabfffff f9556ffe bff9556f     .........oU.oU..
 800e658:	96fffe96 ff96ffff ffff96ff 96ffff96     ................
 800e668:	ff96ffff ffff96ff 96bfff96 f9556ffe     .............oU.
 800e678:	bff9556f 0000feaa                       oU......

0800e680 <_ZTVN12_GLOBAL__N_112fontchar_6_tE>:
	...
 800e688:	080028ad 080028b9 08002265 080025f5     .(...(..e"...%..
 800e698:	08002ba1 00000000                       .+......

0800e6a0 <_ZN12_GLOBAL__N_112fontchar_5_t4dataE>:
 800e6a0:	ffffffff ffffffff ffffffff ffffffff     ................
 800e6b0:	aaafffff e5555bfa 5be5555b 555bfaaa     .....[U.[U.[..[U
 800e6c0:	e5555bf9 afe5aaaf aa5be5bf e5555be5     .[U.......[..[U.
 800e6d0:	bff9556b 0000feaa                       kU......

0800e6d8 <_ZN12_GLOBAL__N_112fontchar_x_t4dataE>:
 800e6d8:	ffffffff ffffffff ffffffff ffffffff     ................
 800e6e8:	ffefffff e6ff9bfb 5be5be5b 556fe569     ........[..[i.oU
 800e6f8:	fe55bff9 bfff96ff 556ffe55 e5695bf9     ..U.....U.oU.[i.
 800e708:	afe5be5b 0000faff                       [.......

0800e710 <_ZTVN12_GLOBAL__N_112fontchar_H_tE>:
	...
 800e718:	080028ad 080028b9 0800200d 0800284d     .(...(... ..M(..
 800e728:	08002f89 00000000                       ./......

0800e730 <_ZN12_GLOBAL__N_120fontchar_semicolon_t4dataE>:
 800e730:	ffffffff ffffffff ffffffff ffffffff     ................
 800e740:	ffffffff ffebffff ffff96ff ebffff96     ................
 800e750:	ffffffff ffffffff 96ffffeb ff96ffff     ................
 800e760:	ffffe5bf 0000fffa                       ........

0800e768 <_ZN12_GLOBAL__N_112fontchar_d_t4dataE>:
 800e768:	ffffffff ffffffff eabfffff ffe5bfff     ................
 800e778:	bfffe5bf e5aabfe5 5be5556f 695be555     ........oU.[U.[i
 800e788:	e5be5be5 5be5be5b aa5be5be e5555be5     .[..[..[..[..[U.
 800e798:	bfe9556f 0000faaa                       oU......

0800e7a0 <_ZN12_GLOBAL__N_112fontchar_e_t4dataE>:
 800e7a0:	ffffffff ffffffff ffffffff ffffffff     ................
 800e7b0:	aabfffff f9556ffe 5be5555b aa5be5aa     .....oU.[U.[..[.
 800e7c0:	e5555be5 5be5555b aa5beaaa e5555bfa     .[U.[U.[..[..[U.
 800e7d0:	bff9556f 0000feaa                       oU......

0800e7d8 <_ZN12_GLOBAL__N_112fontchar_P_t4dataE>:
 800e7d8:	ffffffff aaafffff fe555bff 5bf9555b     .........[U.[U.[
 800e7e8:	be5be56a e5be5be5 5be56a5b 555bf955     j.[..[..[j.[U.[U
 800e7f8:	ffaa5bfe 5bfffe5b fe5bfffe fffe5bff     .[..[..[..[..[..
 800e808:	affffe5b 0000ffff                       [.......

0800e810 <_ZN12_GLOBAL__N_120fontchar_lsqbacket_t4dataE>:
 800e810:	ffffffff abffffff f956fffe fff956ff     ..........V..V..
 800e820:	96fffe96 ff96ffff ffff96ff 96ffff96     ................
 800e830:	ff96ffff fffe96ff 56fff956 feabfff9     ........V..V....
 800e840:	ffffffff 0000ffff                       ........

0800e848 <_ZTVN12_GLOBAL__N_113fontchar_lt_tE>:
	...
 800e850:	080028ad 080028b9 080023e5 08002475     .(...(...#..u$..
 800e860:	08002921 00000000                       !)......

0800e868 <_ZN12_GLOBAL__N_116fontchar_minus_t4dataE>:
 800e868:	ffffffff ffffffff ffffffff ffffffff     ................
 800e878:	ffffffff ffffffff ffffffff ffffffff     ................
 800e888:	feaabfff 6ff9556f aabff955 fffffffe     ....oU.oU.......
 800e898:	ffffffff 0000ffff                       ........

0800e8a0 <_ZTVN12_GLOBAL__N_112fontchar_l_tE>:
	...
 800e8a8:	080028ad 080028b9 08002175 080026e5     .(...(..u!...&..
 800e8b8:	08002d31 00000000                       1-......

0800e8c0 <_ZTVN12_GLOBAL__N_117fontchar_dollar_tE>:
	...
 800e8c8:	080028ad 080028b9 080022b9 080025a1     .(...(..."...%..
 800e8d8:	08002b15 00000000                       .+......

0800e8e0 <_ZTVN12_GLOBAL__N_112fontchar_u_tE>:
	...
 800e8e8:	080028ad 080028b9 080021e1 08002679     .(...(...!..y&..
 800e8f8:	08002c7d 00000000                       },......

0800e900 <_ZN12_GLOBAL__N_117fontchar_equals_t4dataE>:
 800e900:	ffffffff ffffffff ffffffff ffffffff     ................
 800e910:	ffffffff feaabfff 6ff9556f aabff955     ........oU.oU...
 800e920:	fffffffe bfffffff 556ffeaa f9556ff9     ..........oU.oU.
 800e930:	fffeaabf 0000ffff                       ........

0800e938 <_ZN12_GLOBAL__N_116fontchar_colon_t4dataE>:
 800e938:	ffffffff ffffffff ffffffff ffffffff     ................
 800e948:	ffffffff ffebffff ffff96ff ebffff96     ................
 800e958:	ffffffff ffffffff 96ffffeb ff96ffff     ................
 800e968:	ffffebff 0000ffff                       ........

0800e970 <_ZN12_GLOBAL__N_112fontchar_k_t4dataE>:
 800e970:	ffffffff ffffffff fffeabff 5bfffe5b     ............[..[
 800e980:	fe5bfffe febe5bff 5bf96e5b 565bf95a     ..[..[..[n.[Z.[V
 800e990:	ff955bfe 5bff955b 5a5bfe55 e56e5bf9     .[..[..[U.[Z.[n.
 800e9a0:	abe5be5b 0000fafe                       [.......

0800e9a8 <_ZTVN12_GLOBAL__N_115fontchar_star_tE>:
	...
 800e9b0:	080028ad 080028b9 080022f5 08002565     .(...(..."..e%..
 800e9c0:	08002ab1 00000000                       .*......

0800e9c8 <_ZN12_GLOBAL__N_117fontchar_lcurly_t4dataE>:
 800e9c8:	ffffffff 5bfffeaf f95bfff9 fff956ff     .......[..[..V..
 800e9d8:	96fffe96 ff96ffff bfffe5bf 96ffffe5     ................
 800e9e8:	ff96ffff fffe96ff 5bfff956 f95bfff9     ........V..[..[.
 800e9f8:	fffeafff 0000ffff                       ........

0800ea00 <_ZN12_GLOBAL__N_112fontchar_W_t4dataE>:
 800ea00:	ffffffff ffafffff e5be5bfa 5be5be5b     .........[..[..[
 800ea10:	be5be5be e5aa5be5 5be5965b 965be596     ..[..[..[..[..[.
 800ea20:	e5965be5 5be5965b 555be596 f9556fe5     .[..[..[..[U.oU.
 800ea30:	bff9696f 0000febe                       oi......

0800ea38 <_ZTVN12_GLOBAL__N_112fontchar_R_tE>:
	...
 800ea40:	080028ad 080028b9 08002085 080027d5     .(...(... ...'..
 800ea50:	08002ec1 00000000                       ........

0800ea58 <_ZTVN12_GLOBAL__N_117fontchar_equals_tE>:
	...
 800ea60:	080028ad 080028b9 0800233d 0800251d     .(...(..=#...%..
 800ea70:	08002a39 00000000                       9*......

0800ea78 <_ZN12_GLOBAL__N_112fontchar_C_t4dataE>:
 800ea78:	ffffffff aaffffff fe55bfff 5bf9556f     ..........U.oU.[
 800ea88:	be5be569 fafe5be5 5bfffe5b fe5bfffe     i.[..[..[..[..[.
 800ea98:	fffe5bff 5bfafe5b 695be5be f9556fe5     .[..[..[..[i.oU.
 800eaa8:	fffe55bf 0000ffaa                       .U......

0800eab0 <_ZTVN12_GLOBAL__N_112fontchar_5_tE>:
	...
 800eab8:	080028ad 080028b9 08002259 08002601     .(...(..Y"...&..
 800eac8:	08002bb5 00000000                       .+......

0800ead0 <_ZN12_GLOBAL__N_115fontchar_hash_t4dataE>:
 800ead0:	ffffffff bebfffff f9696ffe 6bf9696f     .........oi.oi.k
 800eae0:	5556e969 95555695 6be9696b 5556e969     i.VU.VU.ki.ki.VU
 800eaf0:	95555695 6fe9696b 696ff969 febebff9     .VU.ki.oi.oi....
 800eb00:	ffffffff 0000ffff                       ........

0800eb08 <_ZN12_GLOBAL__N_112fontchar_r_t4dataE>:
 800eb08:	ffffffff ffffffff ffffffff ffffffff     ................
 800eb18:	ffffffff faaaabff 5be9555b aa5be555     ........[U.[U.[.
 800eb28:	eafe5be5 5bfffe5b fe5bfffe fffe5bff     .[..[..[..[..[..
 800eb38:	abfffe5b 0000fffe                       [.......

0800eb40 <_ZTVN12_GLOBAL__N_116fontchar_tilde_tE>:
	...
 800eb48:	080028ad 080028b9 080023b5 080024a5     .(...(...#...$..
 800eb58:	08002971 00000000                       q)......

0800eb60 <_ZTVN12_GLOBAL__N_112fontchar_G_tE>:
	...
 800eb68:	080028ad 080028b9 08002001 08002859     .(...(... ..Y(..
 800eb78:	08002f9d 00000000                       ./......

0800eb80 <_ZTVN12_GLOBAL__N_114fontchar_dot_tE>:
	...
 800eb88:	080028ad 080028b9 080023fd 0800245d     .(...(...#..]$..
 800eb98:	080028f9 00000000                       .(......

0800eba0 <_ZTVN12_GLOBAL__N_112fontchar_P_tE>:
	...
 800eba8:	080028ad 080028b9 0800206d 080027ed     .(...(..m ...'..
 800ebb8:	08002ee9 00000000                       ........

0800ebc0 <_ZN12_GLOBAL__N_112fontchar_J_t4dataE>:
 800ebc0:	ffffffff aaffffff e555bffa ffe555bf     ..........U..U..
 800ebd0:	5bfffa5a fe5bfffe affe5bff 5a5bfe5b     Z..[..[..[..[.[Z
 800ebe0:	fe5a5bfe 5bfe5a5b 5a5bfe5a fe555bfe     .[Z.[Z.[Z.[Z.[U.
 800ebf0:	bfff956f 0000ffea                       o.......

0800ebf8 <_ZTVN12_GLOBAL__N_113fontchar_up_tE>:
	...
 800ec00:	080028ad 080028b9 080022dd 0800257d     .(...(..."..}%..
 800ec10:	08002ad9 00000000                       .*......

0800ec18 <_ZTVN12_GLOBAL__N_112fontchar_b_tE>:
	...
 800ec20:	080028ad 080028b9 080020fd 0800275d     .(...(... ..]'..
 800ec30:	08002df9 00000000                       .-......

0800ec38 <_ZN12_GLOBAL__N_112fontchar_6_t4dataE>:
 800ec38:	ffffffff ffffffff ffffffff ffffffff     ................
 800ec48:	aabfffff f9556ffe 5bf9555b aa5bfeaa     .....oU.[U.[..[.
 800ec58:	f9555bfe 5be5555b aa5be5aa e5555be5     .[U.[U.[..[..[U.
 800ec68:	bff9556f 0000feaa                       oU......

0800ec70 <_ZN12_GLOBAL__N_112fontchar_y_t4dataE>:
 800ec70:	ffffffff ffffffff ffffffff ffffffff     ................
 800ec80:	ffffffff eabeabff 5be5be5b 695be5be     ........[..[..[i
 800ec90:	f9556fe5 fffe55bf 96ffff96 ff96ffff     .oU..U..........
 800eca0:	ffff96ff 0000ffaa                       ........

0800eca8 <_ZTVN12_GLOBAL__N_112fontchar_k_tE>:
	...
 800ecb0:	080028ad 080028b9 08002169 080026f1     .(...(..i!...&..
 800ecc0:	08002d45 00000000                       E-......

0800ecc8 <_ZTVN12_GLOBAL__N_115fontchar_plus_tE>:
	...
 800ecd0:	080028ad 080028b9 08002331 08002529     .(...(..1#..)%..
 800ece0:	08002a4d 00000000                       M*......

0800ece8 <_ZTVN12_GLOBAL__N_112fontchar_t_tE>:
	...
 800ecf0:	080028ad 080028b9 080021d5 08002685     .(...(...!...&..
 800ed00:	08002c91 00000000                       .,......

0800ed08 <_ZTVN12_GLOBAL__N_116fontchar_minus_tE>:
	...
 800ed10:	080028ad 080028b9 08002325 08002535     .(...(..%#..5%..
 800ed20:	08002a61 00000000                       a*......

0800ed28 <_ZN12_GLOBAL__N_112fontchar_Q_t4dataE>:
 800ed28:	ffffffff aaffffff fe55bfff 5bf9556f     ..........U.oU.[
 800ed38:	be5be569 e5be5be5 5be5be5b be5be5be     i.[..[..[..[..[.
 800ed48:	e5aa5be5 5be5965b 595be556 e5556ff9     .[..[..[V.[Y.oU.
 800ed58:	ffe595bf 0000faea                       ........

0800ed60 <_ZN12_GLOBAL__N_112fontchar_s_t4dataE>:
 800ed60:	ffffffff ffffffff ffffffff ffffffff     ................
 800ed70:	aabfffff f9556ffe 5be5555b aa5be5aa     .....oU.[U.[..[.
 800ed80:	f9555bfa afe5556f aa5be5aa e5555be5     .[U.oU....[..[U.
 800ed90:	bff9556f 0000feaa                       oU......

0800ed98 <_ZTVN12_GLOBAL__N_112fontchar_A_tE>:
	...
 800eda0:	080028ad 080028b9 08001fb9 080028a1     .(...(.......(..
 800edb0:	08003015 00000000                       .0......

0800edb8 <_ZN12_GLOBAL__N_112fontchar_9_t4dataE>:
 800edb8:	ffffffff ffffffff ffffffff ffffffff     ................
 800edc8:	aabfffff f9556ffe 5be5555b aa5be5aa     .....oU.[U.[..[.
 800edd8:	e5555be5 bfe5556f aaafe5aa e5555be5     .[U.oU.......[U.
 800ede8:	aff9555b 0000feaa                       [U......

0800edf0 <_ZN12_GLOBAL__N_112fontchar_0_t4dataE>:
 800edf0:	ffffffff ffffffff ffffffff ffffffff     ................
 800ee00:	aabfffff f9556ffe 5be5555b be5be5aa     .....oU.[U.[..[.
 800ee10:	e5be5be5 5be5be5b aa5be5be e5555be5     .[..[..[..[..[U.
 800ee20:	bff9556f 0000feaa                       oU......

0800ee28 <_ZTVN12_GLOBAL__N_112fontchar_4_tE>:
	...
 800ee30:	080028ad 080028b9 0800224d 0800260d     .(...(..M"...&..
 800ee40:	08002bc9 00000000                       .+......

0800ee48 <_ZN12_GLOBAL__N_115fontchar_plus_t4dataE>:
 800ee48:	ffffffff ffffffff ffffffff ffffffff     ................
 800ee58:	ffffffff ffffffff ffffffff 96ffffeb     ................
 800ee68:	fe96bfff 6ff9556f 96bff955 ff96fffe     ....oU.oU.......
 800ee78:	ffffebff 0000ffff                       ........

0800ee80 <_ZN12_GLOBAL__N_112fontchar_l_t4dataE>:
 800ee80:	ffffffff ffffffff fffaffff bfffe5bf     ................
 800ee90:	e5bfffe5 ffe5bfff bfffe5bf e5bfffe5     ................
 800eea0:	ffe5bfff bfffe5bf 95bfffe5 f955bffa     ..............U.
 800eeb0:	fff956ff 0000faab                       .V......

0800eeb8 <_ZN12_GLOBAL__N_112fontchar_X_t4dataE>:
 800eeb8:	ffffffff ffafffff e5be5bfa 5be5be5b     .........[..[..[
 800eec8:	be5be5be f9696fe5 fffe55bf 96ffff96     ..[..oi..U......
 800eed8:	fe55bfff 5bf9696f be5be5be e5be5be5     ..U.oi.[..[..[..
 800eee8:	afe5be5b 0000faff                       [.......

0800eef0 <_ZTVN12_GLOBAL__N_112fontchar_F_tE>:
	...
 800eef8:	080028ad 080028b9 08001ff5 08002865     .(...(......e(..
 800ef08:	08002fb1 00000000                       ./......

0800ef10 <_ZN12_GLOBAL__N_117fontchar_rbrace_t4dataE>:
 800ef10:	ffffffff ffffffff fffebfff bffff96f     ............o...
 800ef20:	96ffffe5 fe5bffff fffe5bff 5bfffe5b     ......[..[..[..[
 800ef30:	fe5bfffe fffe5bff 96fffe5b ffe5bfff     ..[..[..[.......
 800ef40:	bffff96f 0000fffe                       o.......

0800ef48 <_ZTVN12_GLOBAL__N_112fontchar_O_tE>:
	...
 800ef50:	080028ad 080028b9 08002061 080027f9     .(...(..a ...'..
 800ef60:	08002efd 00000000                       ........

0800ef68 <_ZN12_GLOBAL__N_112fontchar_D_t4dataE>:
 800ef68:	ffffffff aaafffff fe555bff 5bf9555b     .........[U.[U.[
 800ef78:	be5be56a e5be5be5 5be5be5b be5be5be     j.[..[..[..[..[.
 800ef88:	e5be5be5 5be5be5b 6a5be5be f9555be5     .[..[..[..[j.[U.
 800ef98:	affe555b 0000ffaa                       [U......

0800efa0 <_ZTVN12_GLOBAL__N_112fontchar_X_tE>:
	...
 800efa8:	080028ad 080028b9 080020cd 0800278d     .(...(... ...'..
 800efb8:	08002e49 00000000                       I.......

0800efc0 <_ZN12_GLOBAL__N_118fontchar_percent_t4dataE>:
 800efc0:	ffffffff ffffffff ffffffff ffffffff     ................
 800efd0:	ffffffff faffafff 5be5be5b 5bafe56e     ........[..[n..[
 800efe0:	fe56fff9 6fff95bf b95bfae5 e5be5be5     ..V....o..[..[..
 800eff0:	fffaffaf 0000ffff                       ........

0800eff8 <_ZTVN12_GLOBAL__N_112fontchar_a_tE>:
	...
 800f000:	080028ad 080028b9 080020f1 08002769     .(...(... ..i'..
 800f010:	08002e0d 00000000                       ........

0800f018 <_ZTVN12_GLOBAL__N_112fontchar_j_tE>:
	...
 800f020:	080028ad 080028b9 0800215d 080026fd     .(...(..]!...&..
 800f030:	08002d59 00000000                       Y-......

0800f038 <_ZTVN12_GLOBAL__N_112fontchar_s_tE>:
	...
 800f040:	080028ad 080028b9 080021c9 08002691     .(...(...!...&..
 800f050:	08002ca5 00000000                       .,......

0800f058 <_ZN12_GLOBAL__N_112fontchar_K_t4dataE>:
 800f058:	ffffffff ffafffff fafe5bff 5be5be5b     .........[..[..[
 800f068:	5a5be56e fe565bf9 5bff955b f95bffe5     n.[Z.[V.[..[..[.
 800f078:	ffe55bff 5bff955b 5a5bfe56 e56e5bf9     .[..[..[V.[Z.[n.
 800f088:	afe5be5b 0000faff                       [.......

0800f090 <_ZTVN12_GLOBAL__N_112fontchar_f_tE>:
	...
 800f098:	080028ad 080028b9 0800212d 0800272d     .(...(..-!..-'..
 800f0a8:	08002da9 00000000                       .-......

0800f0b0 <_ZTVN12_GLOBAL__N_117fontchar_rbrace_tE>:
	...
 800f0b8:	080028ad 080028b9 0800230d 0800254d     .(...(...#..M%..
 800f0c8:	08002a89 00000000                       .*......

0800f0d0 <_ZTVN12_GLOBAL__N_121fontchar_rsqbracket_tE>:
	...
 800f0d8:	080028ad 080028b9 0800236d 080024ed     .(...(..m#...$..
 800f0e8:	080029e9 00000000                       .)......

0800f0f0 <_ZTVN12_GLOBAL__N_112fontchar_9_tE>:
	...
 800f0f8:	080028ad 080028b9 08002289 080025d1     .(...(..."...%..
 800f108:	08002b65 00000000                       e+......

0800f110 <_ZTVN12_GLOBAL__N_115fontchar_hash_tE>:
	...
 800f118:	080028ad 080028b9 080023a9 080024b1     .(...(...#...$..
 800f128:	08002985 00000000                       .)......

0800f130 <_ZN12_GLOBAL__N_112fontchar_f_t4dataE>:
 800f130:	ffffffff ffffffff feaaffff 6ff955bf     .............U.o
 800f140:	a96fe555 eab96fe5 5bffa96b 955bff95     U.o..o..k..[..[.
 800f150:	ffa96bff 6ffff96f f96ffff9 fff96fff     .k..o..o..o..o..
 800f160:	affff96f 0000fffa                       o.......

0800f168 <_ZTVN12_GLOBAL__N_112fontchar_3_tE>:
	...
 800f170:	080028ad 080028b9 08002241 08002619     .(...(..A"...&..
 800f180:	08002bdd 00000000                       .+......

0800f188 <_ZN12_GLOBAL__N_114fontchar_not_t4dataE>:
 800f188:	ffffffff 96ffffeb ff96ffff ffff96ff     ................
 800f198:	96ffff96 ff96ffff ffff96ff 96ffff96     ................
 800f1a8:	ff96ffff ffffebff 96ffffeb ff96ffff     ................
 800f1b8:	ffffebff 0000ffff                       ........

0800f1c0 <_ZN12_GLOBAL__N_112fontchar_R_t4dataE>:
 800f1c0:	ffffffff aaafffff fe555bff 5bf9555b     .........[U.[U.[
 800f1d0:	be5be56a e5be5be5 5be56a5b 955bf955     j.[..[..[j.[U.[.
 800f1e0:	ff955bfe 5bfe565b 6e5bf95a e5be5be5     .[..[V.[Z.[n.[..
 800f1f0:	afe5be5b 0000faff                       [.......

0800f1f8 <_ZTVN12_GLOBAL__N_112fontchar_E_tE>:
	...
 800f200:	080028ad 080028b9 08001fe9 08002871     .(...(......q(..
 800f210:	08002fc5 00000000                       ./......

0800f218 <_ZTVN12_GLOBAL__N_112fontchar_N_tE>:
	...
 800f220:	080028ad 080028b9 08002055 08002805     .(...(..U ...(..
 800f230:	08002f11 00000000                       ./......

0800f238 <_ZN12_GLOBAL__N_115fontchar_vbar_t4dataE>:
 800f238:	ffffffff ebffffff ff96ffff ffff96ff     ................
 800f248:	96ffff96 ff96ffff ffff96ff 96ffff96     ................
 800f258:	ff96ffff ffff96ff 96ffff96 ffebffff     ................
 800f268:	ffffffff 0000ffff                       ........

0800f270 <_ZTVN12_GLOBAL__N_112fontchar_W_tE>:
	...
 800f278:	080028ad 080028b9 080020c1 08002799     .(...(... ...'..
 800f288:	08002e5d 00000000                       ].......

0800f290 <_ZN12_GLOBAL__N_117fontchar_rcurly_t4dataE>:
 800f290:	bfffffff e56ffffa ff956fff bfff956f     ......o..o..o...
 800f2a0:	96ffff96 ff96ffff fffe5bff 96fffe5b     .........[..[...
 800f2b0:	ff96ffff 6fff96bf 956fff95 ffe56fff     .......o..o..o..
 800f2c0:	fffffabf 0000ffff                       ........

0800f2c8 <_ZN12_GLOBAL__N_112fontchar_z_t4dataE>:
 800f2c8:	ffffffff ffffffff ffffffff ffffffff     ................
 800f2d8:	ffffffff eaaaabff 5be5555b 5aabe555     ........[U.[U..Z
 800f2e8:	fe56fff9 6fff95bf a95bffe5 e5555bfa     ..V....o..[..[U.
 800f2f8:	abe5555b 0000eaaa                       [U......

0800f300 <_ZN12_GLOBAL__N_112fontchar_Y_t4dataE>:
 800f300:	ffffffff ffafffff e5be5bfa 5be5be5b     .........[..[..[
 800f310:	be5be5be e5be5be5 6fe5695b 55bff955     ..[..[..[i.oU..U
 800f320:	ff96fffe ffff96ff 96ffff96 ff96ffff     ................
 800f330:	ffff96ff 0000ffeb                       ........

0800f338 <_ZTVN12_GLOBAL__N_112fontchar_i_tE>:
	...
 800f340:	080028ad 080028b9 08002151 08002709     .(...(..Q!...'..
 800f350:	08002d6d 00000000                       m-......

0800f358 <_ZN12_GLOBAL__N_112fontchar_V_t4dataE>:
 800f358:	ffffffff ffafffff e5be5bfa 5be5be5b     .........[..[..[
 800f368:	be5be5be e5be5be5 5be5be5b be5be5be     ..[..[..[..[..[.
 800f378:	e5be5be5 6fe5695b 556ff969 fe55bff9     .[..[i.oi.oU..U.
 800f388:	ffff96ff 0000ffeb                       ........

0800f390 <_ZN12_GLOBAL__N_116fontchar_comma_t4dataE>:
 800f390:	ffffffff ffffffff ffffffff ffffffff     ................
 800f3a0:	ffffffff ffffffff ffffffff ffffffff     ................
 800f3b0:	ffffffff ffffebff 96ffff96 ffe5bfff     ................
 800f3c0:	bffff96f 0000fffe                       o.......

0800f3c8 <_ZTVN12_GLOBAL__N_112fontchar_r_tE>:
	...
 800f3d0:	080028ad 080028b9 080021bd 0800269d     .(...(...!...&..
 800f3e0:	08002cb9 00000000                       .,......

0800f3e8 <_ZN12_GLOBAL__N_112fontchar_E_t4dataE>:
 800f3e8:	ffffffff aaafffff e5555bfa 5be5555b     .........[U.[U.[
 800f3f8:	fe5bfaaa fffe5bff 5bffaa5b 555bfe55     ..[..[..[..[U.[U
 800f408:	ffaa5bfe 5bfffe5b aa5bfffe e5555bfa     .[..[..[..[..[U.
 800f418:	afe5555b 0000faaa                       [U......

0800f420 <_ZTVN12_GLOBAL__N_124fontchar_forward_slash_tE>:
	...
 800f428:	080028ad 080028b9 08002415 08002445     .(...(...$..E$..
 800f438:	080028d1 00000000                       .(......

0800f440 <_ZN12_GLOBAL__N_117fontchar_lbrace_t4dataE>:
 800f440:	ffffffff ffffffff faffffff ffe5bfff     ................
 800f450:	5bfff96f ff96fffe ffff96ff 96ffff96     o..[............
 800f460:	ff96ffff ffff96ff 5bffff96 f96ffffe     ...........[..o.
 800f470:	ffe5bfff 0000faff                       ........

0800f478 <_ZN12_GLOBAL__N_116fontchar_dquot_t4dataE>:
 800f478:	bfffffff be6ffeff e5695bf9 bfe5b96f     ......o..[i.o...
 800f488:	f9bfe6f9 f9be6fe6 fffeffbf ffffffff     .....o..........
 800f498:	ffffffff ffffffff ffffffff ffffffff     ................
 800f4a8:	ffffffff 0000ffff                       ........

0800f4b0 <_ZN12_GLOBAL__N_112fontchar_1_t4dataE>:
 800f4b0:	ffffffff ffffffff ffffffff ffffffff     ................
 800f4c0:	ebffffff ff96ffff 6fff95bf 956fff95     ...........o..o.
 800f4d0:	ff96bfff ffff96ff 96bfff96 f9556ffe     .............oU.
 800f4e0:	bff9556f 0000feaa                       oU......

0800f4e8 <_ZTVN12_GLOBAL__N_112fontchar_g_tE>:
	...
 800f4f0:	080028ad 080028b9 08002139 08002721     .(...(..9!..!'..
 800f500:	08002d95 00000000                       .-......

0800f508 <_ZN12_GLOBAL__N_112fontchar_t_t4dataE>:
 800f508:	ffffffff ffffffff ffffffff ffffffff     ................
 800f518:	eabfffff ffe5bfff 5beaa5ab 555be555     ...........[U.[U
 800f528:	eaa5abe5 bfffe5bf a5bffae5 f955bff9     ..............U.
 800f538:	fff956ff 0000feaa                       .V......

0800f540 <_ZTVN12_GLOBAL__N_112fontchar_1_tE>:
	...
 800f548:	080028ad 080028b9 08002229 08002631     .(...(..)"..1&..
 800f558:	08002c05 00000000                       .,......

0800f560 <_ZTVN12_GLOBAL__N_112fontchar_2_tE>:
	...
 800f568:	080028ad 080028b9 08002235 08002625     .(...(..5"..%&..
 800f578:	08002bf1 00000000                       .+......

0800f580 <_ZN12_GLOBAL__N_112fontchar_L_t4dataE>:
 800f580:	ffffffff ffafffff fffe5bff 5bfffe5b     .........[..[..[
 800f590:	fe5bfffe fffe5bff 5bfffe5b fe5bfffe     ..[..[..[..[..[.
 800f5a0:	fffe5bff 5bfffe5b aa5bfffe e5555bfa     .[..[..[..[..[U.
 800f5b0:	afe5555b 0000faaa                       [U......

0800f5b8 <_ZN12_GLOBAL__N_112fontchar_8_t4dataE>:
 800f5b8:	ffffffff ffffffff ffffffff ffffffff     ................
 800f5c8:	aabfffff f9556ffe 5be5555b aa5be5aa     .....oU.[U.[..[.
 800f5d8:	f9556fe5 5bf9556f aa5be5aa e5555be5     .oU.oU.[..[..[U.
 800f5e8:	bff9556f 0000feaa                       oU......

0800f5f0 <_ZTVN12_GLOBAL__N_113fontchar_at_tE>:
	...
 800f5f8:	080028ad 080028b9 0800239d 080024bd     .(...(...#...$..
 800f608:	08002999 00000000                       .)......

0800f610 <_ZTVN12_GLOBAL__N_112fontchar_M_tE>:
	...
 800f618:	080028ad 080028b9 08002049 08002811     .(...(..I ...(..
 800f628:	08002f25 00000000                       %/......

0800f630 <_ZN12_GLOBAL__N_112fontchar_g_t4dataE>:
 800f630:	ffffffff ffffffff ffffffff ffffffff     ................
 800f640:	aabfffff f9556ffe 5be56a5b aa5be5be     .....oU.[j.[..[.
 800f650:	e5695be5 abe5556f aa5be5aa e5555be5     .[i.oU....[..[U.
 800f660:	bff9556f 0000feaa                       oU......

0800f668 <_ZTVN12_GLOBAL__N_112fontchar_V_tE>:
	...
 800f670:	080028ad 080028b9 080020b5 080027a5     .(...(... ...'..
 800f680:	08002e71 00000000                       q.......

0800f688 <_ZN12_GLOBAL__N_112fontchar_S_t4dataE>:
 800f688:	ffffffff aaffffff f955bffe 5be5556f     ..........U.oU.[
 800f698:	fe5be5a9 fffe5bfa 6fffa95b 55bffe55     ..[..[..[..oU..U
 800f6a8:	e56afff9 afe5bfff 6a5be5bf f9555be5     ..j.......[j.[U.
 800f6b8:	bffe556f 0000ffaa                       oU......

0800f6c0 <_ZTVN12_GLOBAL__N_112fontchar_h_tE>:
	...
 800f6c8:	080028ad 080028b9 08002145 08002715     .(...(..E!...'..
 800f6d8:	08002d81 00000000                       .-......

0800f6e0 <_ZTVN12_GLOBAL__N_112fontchar_q_tE>:
	...
 800f6e8:	080028ad 080028b9 080021b1 080026a9     .(...(...!...&..
 800f6f8:	08002ccd 00000000                       .,......

0800f700 <_ZTVN12_GLOBAL__N_112fontchar_z_tE>:
	...
 800f708:	080028ad 080028b9 0800221d 0800263d     .(...(..."..=&..
 800f718:	08002c19 00000000                       .,......

0800f720 <_ZN12_GLOBAL__N_112fontchar_n_t4dataE>:
 800f720:	ffffffff ffffffff ffffffff ffffffff     ................
 800f730:	feabffff feaa5bff 5bf9555b aa5be555     .....[..[U.[U.[.
 800f740:	e5be5be5 5be5be5b be5be5be e5be5be5     .[..[..[..[..[..
 800f750:	abe5be5b 0000eabe                       [.......

0800f758 <_ZTVN12_GLOBAL__N_116fontchar_colon_tE>:
	...
 800f760:	080028ad 080028b9 08002379 080024e1     .(...(..y#...$..
 800f770:	080029d5 00000000                       .)......

0800f778 <_ZTVN12_GLOBAL__N_116fontchar_bquot_tE>:
	...
 800f780:	080028ad 080028b9 08002421 08002439     .(...(..!$..9$..
 800f790:	080028bd 00000000                       .(......

0800f798 <_ZTVN12_GLOBAL__N_112fontchar_w_tE>:
	...
 800f7a0:	080028ad 080028b9 080021f9 08002661     .(...(...!..a&..
 800f7b0:	08002c55 00000000                       U,......

0800f7b8 <_ZTVN12_GLOBAL__N_112fontchar_D_tE>:
	...
 800f7c0:	080028ad 080028b9 08001fdd 0800287d     .(...(......}(..
 800f7d0:	08002fd9 00000000                       ./......

0800f7d8 <_ZN12_GLOBAL__N_116fontchar_space_t4dataE>:
 800f7d8:	ffffffff ffffffff ffffffff ffffffff     ................
 800f7e8:	ffffffff ffffffff ffffffff ffffffff     ................
 800f7f8:	ffffffff ffffffff ffffffff ffffffff     ................
 800f808:	ffffffff 0000ffff 77617264 7361745f     ........draw_tas
 800f818:	0000006b                                k...

0800f81c <_ZN12_GLOBAL__N_1L9sin_arrayE>:
 800f81c:	082b07ff 08830857 08da08af 092f0905     ..+.W........./.
 800f82c:	09820959 09d009a9 0a1b09f6 0a600a3e     Y...........>.`.
 800f83c:	0aa10a81 0adb0abe 0b0e0af5 0b3a0b25     ............%.:.
 800f84c:	0b5f0b4e 0b7c0b6e 0b910b87 0b9d0b98     N._.n.|.........
 800f85c:	0ba20ba1 0b9d0ba1 0b910b98 0b7c0b87     ..............|.
 800f86c:	0b5f0b6e 0b3a0b4e 0b0e0b25 0adb0af5     n._.N.:.%.......
 800f87c:	0aa10abe 0a600a81 0a1b0a3e 09d009f6     ......`.>.......
 800f88c:	098209a9 092f0959 08da0905 088308af     ....Y./.........
 800f89c:	082b0857 07d307ff 077b07a7 0724074f     W.+.......{.O.$.
 800f8ac:	06cf06f9 067c06a5 062e0655 05e30608     ......|.U.......
 800f8bc:	059e05c0 055d057d 05230540 04f00509     ....}.].@.#.....
 800f8cc:	04c404d9 049f04b0 04820490 046d0477     ............w.m.
 800f8dc:	04610466 045c045d 0461045d 046d0466     f.a.].\.].a.f.m.
 800f8ec:	04820477 049f0490 04c404b0 04f004d9     w...............
 800f8fc:	05230509 055d0540 059e057d 05e305c0     ..#.@.].}.......
 800f90c:	062e0608 067c0655 06cf06a5 072406f9     ....U.|.......$.
 800f91c:	077b074f 07d307a7                       O.{.....

0800f924 <ucExpectedStackBytes.5285>:
 800f924:	a5a5a5a5 a5a5a5a5 a5a5a5a5 a5a5a5a5     ................
 800f934:	a5a5a5a5 454c4449 00000000 51726d54     ....IDLE....TmrQ
 800f944:	00000000 20726d54 00637653 00000043     ....Tmr Svc.C...

0800f954 <_global_impure_ptr>:
 800f954:	100001b0 00464e49 00666e69 004e414e     ....INF.inf.NAN.
 800f964:	006e616e 33323130 37363534 42413938     nan.0123456789AB
 800f974:	46454443 00000000 33323130 37363534     CDEF....01234567
 800f984:	62613938 66656463 00000000 6c756e28     89abcdef....(nul
 800f994:	0000296c 00000030                       l)..0...

0800f99c <zeroes.6721>:
 800f99c:	30303030 30303030 30303030 30303030     0000000000000000

0800f9ac <blanks.6720>:
 800f9ac:	20202020 20202020 20202020 20202020                     
 800f9bc:	69666e49 7974696e 00000000 004e614e     Infinity....NaN.
 800f9cc:	49534f50 00000058 0000002e              POSIX.......

0800f9d8 <p05.5242>:
 800f9d8:	00000005 00000019 0000007d 00000000     ........}.......

0800f9e8 <__mprec_tens>:
 800f9e8:	00000000 3ff00000 00000000 40240000     .......?......$@
 800f9f8:	00000000 40590000 00000000 408f4000     ......Y@.....@.@
 800fa08:	00000000 40c38800 00000000 40f86a00     .......@.....j.@
 800fa18:	00000000 412e8480 00000000 416312d0     .......A......cA
 800fa28:	00000000 4197d784 00000000 41cdcd65     .......A....e..A
 800fa38:	20000000 4202a05f e8000000 42374876     ... _..B....vH7B
 800fa48:	a2000000 426d1a94 e5400000 42a2309c     ......mB..@..0.B
 800fa58:	1e900000 42d6bcc4 26340000 430c6bf5     .......B..4&.k.C
 800fa68:	37e08000 4341c379 85d8a000 43763457     ...7y.AC....W4vC
 800fa78:	674ec800 43abc16d 60913d00 43e158e4     ..Ngm..C.=.`.X.C
 800fa88:	78b58c40 4415af1d d6e2ef50 444b1ae4     @..x...DP.....KD
 800fa98:	064dd592 4480f0cf c7e14af6 44b52d02     ..M....D.J...-.D
 800faa8:	79d99db4 44ea7843                       ...yCx.D

0800fab0 <__mprec_bigtens>:
 800fab0:	37e08000 4341c379 b5056e17 4693b8b5     ...7y.AC.n.....F
 800fac0:	e93ff9f5 4d384f03 f9301d32 5a827748     ..?..O8M2.0.Hw.Z
 800fad0:	7f73bf3c 75154fdd                       <.s..O.u

0800fad8 <npio2_hw>:
 800fad8:	3fc90f00 40490f00 4096cb00 40c90f00     ...?..I@...@...@
 800fae8:	40fb5300 4116cb00 412fed00 41490f00     .S.@...A../A..IA
 800faf8:	41623100 417b5300 418a3a00 4196cb00     .1bA.S{A.:.A...A
 800fb08:	41a35c00 41afed00 41bc7e00 41c90f00     .\.A...A.~.A...A
 800fb18:	41d5a000 41e23100 41eec200 41fb5300     ...A.1.A...A.S.A
 800fb28:	4203f200 420a3a00 42108300 4216cb00     ...B.:.B...B...B
 800fb38:	421d1400 42235c00 4229a500 422fed00     ...B.\#B..)B../B
 800fb48:	42363600 423c7e00 4242c700 42490f00     .66B.~<B..BB..IB

0800fb58 <two_over_pi>:
 800fb58:	000000a2 000000f9 00000083 0000006e     ............n...
 800fb68:	0000004e 00000044 00000015 00000029     N...D.......)...
 800fb78:	000000fc 00000027 00000057 000000d1     ....'...W.......
 800fb88:	000000f5 00000034 000000dd 000000c0     ....4...........
 800fb98:	000000db 00000062 00000095 00000099     ....b...........
 800fba8:	0000003c 00000043 00000090 00000041     <...C.......A...
 800fbb8:	000000fe 00000051 00000063 000000ab     ....Q...c.......
 800fbc8:	000000de 000000bb 000000c5 00000061     ............a...
 800fbd8:	000000b7 00000024 0000006e 0000003a     ....$...n...:...
 800fbe8:	00000042 0000004d 000000d2 000000e0     B...M...........
 800fbf8:	00000006 00000049 0000002e 000000ea     ....I...........
 800fc08:	00000009 000000d1 00000092 0000001c     ................
 800fc18:	000000fe 0000001d 000000eb 0000001c     ................
 800fc28:	000000b1 00000029 000000a7 0000003e     ....).......>...
 800fc38:	000000e8 00000082 00000035 000000f5     ........5.......
 800fc48:	0000002e 000000bb 00000044 00000084     ........D.......
 800fc58:	000000e9 0000009c 00000070 00000026     ........p...&...
 800fc68:	000000b4 0000005f 0000007e 00000041     ...._...~...A...
 800fc78:	00000039 00000091 000000d6 00000039     9...........9...
 800fc88:	00000083 00000053 00000039 000000f4     ....S...9.......
 800fc98:	0000009c 00000084 0000005f 0000008b     ........_.......
 800fca8:	000000bd 000000f9 00000028 0000003b     ........(...;...
 800fcb8:	0000001f 000000f8 00000097 000000ff     ................
 800fcc8:	000000de 00000005 00000098 0000000f     ................
 800fcd8:	000000ef 0000002f 00000011 0000008b     ..../...........
 800fce8:	0000005a 0000000a 0000006d 0000001f     Z.......m.......
 800fcf8:	0000006d 00000036 0000007e 000000cf     m...6...~.......
 800fd08:	00000027 000000cb 00000009 000000b7     '...............
 800fd18:	0000004f 00000046 0000003f 00000066     O...F...?...f...
 800fd28:	0000009e 0000005f 000000ea 0000002d     ...._.......-...
 800fd38:	00000075 00000027 000000ba 000000c7     u...'...........
 800fd48:	000000eb 000000e5 000000f1 0000007b     ............{...
 800fd58:	0000003d 00000007 00000039 000000f7     =.......9.......
 800fd68:	0000008a 00000052 00000092 000000ea     ....R...........
 800fd78:	0000006b 000000fb 0000005f 000000b1     k......._.......
 800fd88:	0000001f 0000008d 0000005d 00000008     ........].......
 800fd98:	00000056 00000003 00000030 00000046     V.......0...F...
 800fda8:	000000fc 0000007b 0000006b 000000ab     ....{...k.......
 800fdb8:	000000f0 000000cf 000000bc 00000020     ............ ...
 800fdc8:	0000009a 000000f4 00000036 0000001d     ........6.......
 800fdd8:	000000a9 000000e3 00000091 00000061     ............a...
 800fde8:	0000005e 000000e6 0000001b 00000008     ^...............
 800fdf8:	00000065 00000099 00000085 0000005f     e..........._...
 800fe08:	00000014 000000a0 00000068 00000040     ........h...@...
 800fe18:	0000008d 000000ff 000000d8 00000080     ................
 800fe28:	0000004d 00000073 00000027 00000031     M...s...'...1...
 800fe38:	00000006 00000006 00000015 00000056     ............V...
 800fe48:	000000ca 00000073 000000a8 000000c9     ....s...........
 800fe58:	00000060 000000e2 0000007b 000000c0     `.......{.......
 800fe68:	0000008c 0000006b                       ....k...

0800fe70 <init_jk>:
 800fe70:	00000004 00000007 00000009              ............

0800fe7c <PIo2>:
 800fe7c:	3fc90000 39f00000 37da0000 33a20000     ...?...9...7...3
 800fe8c:	2e840000 2b500000 27c20000 22d00000     ......P+...'..."
 800fe9c:	1fc40000 1bc60000 17440000              ..........D.

0800fea8 <_init>:
 800fea8:	b5f8      	push	{r3, r4, r5, r6, r7, lr}
 800feaa:	bf00      	nop
 800feac:	bcf8      	pop	{r3, r4, r5, r6, r7}
 800feae:	bc08      	pop	{r3}
 800feb0:	469e      	mov	lr, r3
 800feb2:	4770      	bx	lr

0800feb4 <_fini>:
 800feb4:	b5f8      	push	{r3, r4, r5, r6, r7, lr}
 800feb6:	bf00      	nop
 800feb8:	bcf8      	pop	{r3, r4, r5, r6, r7}
 800feba:	bc08      	pop	{r3}
 800febc:	469e      	mov	lr, r3
 800febe:	4770      	bx	lr
