
main.elf:     file format elf32-littlearm


Disassembly of section .text:

080000c8 <__cxa_pure_virtual>:
 80000c8:	e7fe      	b.n	80000c8 <__cxa_pure_virtual>

080000ca <_ZdlPv>:
 80000ca:	4770      	bx	lr

080000cc <_Z13setup_outputsv>:
 80000cc:	b508      	push	{r3, lr}
 80000ce:	f000 fa73 	bl	80005b8 <_ZN5frsky5setupEv>
 80000d2:	f000 f9a2 	bl	800041a <_ZN3fsk5setupEv>
 80000d6:	bd08      	pop	{r3, pc}

080000d8 <_Z12setup_eventsv>:
 80000d8:	b508      	push	{r3, lr}
 80000da:	f000 fa69 	bl	80005b0 <_ZN5frsky11setup_eventEv>
 80000de:	f000 fa5b 	bl	8000598 <_ZN3fsk11setup_eventEv>
 80000e2:	f000 fef1 	bl	8000ec8 <_Z21setup_heartbeat_eventv>
 80000e6:	4b0b      	ldr	r3, [pc, #44]	; (8000114 <_Z12setup_eventsv+0x3c>)
 80000e8:	21fa      	movs	r1, #250	; 0xfa
 80000ea:	6818      	ldr	r0, [r3, #0]
 80000ec:	0089      	lsls	r1, r1, #2
 80000ee:	f000 ff1f 	bl	8000f30 <__aeabi_uidiv>
 80000f2:	4b09      	ldr	r3, [pc, #36]	; (8000118 <_Z12setup_eventsv+0x40>)
 80000f4:	4a09      	ldr	r2, [pc, #36]	; (800011c <_Z12setup_eventsv+0x44>)
 80000f6:	3801      	subs	r0, #1
 80000f8:	6058      	str	r0, [r3, #4]
 80000fa:	6a10      	ldr	r0, [r2, #32]
 80000fc:	0201      	lsls	r1, r0, #8
 80000fe:	0a08      	lsrs	r0, r1, #8
 8000100:	21c0      	movs	r1, #192	; 0xc0
 8000102:	0609      	lsls	r1, r1, #24
 8000104:	4301      	orrs	r1, r0
 8000106:	6211      	str	r1, [r2, #32]
 8000108:	2007      	movs	r0, #7
 800010a:	2200      	movs	r2, #0
 800010c:	609a      	str	r2, [r3, #8]
 800010e:	6018      	str	r0, [r3, #0]
 8000110:	bd08      	pop	{r3, pc}
 8000112:	46c0      	nop			; (mov r8, r8)
 8000114:	20000004 	.word	0x20000004
 8000118:	e000e010 	.word	0xe000e010
 800011c:	e000ed00 	.word	0xe000ed00

08000120 <_Z12setup_inputsv>:
 8000120:	b510      	push	{r4, lr}
 8000122:	4c13      	ldr	r4, [pc, #76]	; (8000170 <_Z12setup_inputsv+0x50>)
 8000124:	f001 fc54 	bl	80019d0 <_ZN4quan5stm3211serial_portINS0_5usart6moduleILm1073821696EEELj200ELj200ENS_3mcu3pinINS0_4gpio6moduleILm1207959552EEELm9EEENS6_IS9_Lm10EEEE4initEv>
 8000128:	6823      	ldr	r3, [r4, #0]
 800012a:	2201      	movs	r2, #1
 800012c:	4013      	ands	r3, r2
 800012e:	d002      	beq.n	8000136 <_Z12setup_inputsv+0x16>
 8000130:	6821      	ldr	r1, [r4, #0]
 8000132:	4391      	bics	r1, r2
 8000134:	6021      	str	r1, [r4, #0]
 8000136:	6861      	ldr	r1, [r4, #4]
 8000138:	2280      	movs	r2, #128	; 0x80
 800013a:	0290      	lsls	r0, r2, #10
 800013c:	4308      	orrs	r0, r1
 800013e:	6060      	str	r0, [r4, #4]
 8000140:	2b00      	cmp	r3, #0
 8000142:	d001      	beq.n	8000148 <_Z12setup_inputsv+0x28>
 8000144:	f001 fbee 	bl	8001924 <_ZN4quan5stm326enableINS0_5usart6moduleILm1073821696EEEEENS_6where_INS_11is_model_ofINS0_5UsartET_EEvE4typeEv>
 8000148:	6823      	ldr	r3, [r4, #0]
 800014a:	2101      	movs	r1, #1
 800014c:	4a08      	ldr	r2, [pc, #32]	; (8000170 <_Z12setup_inputsv+0x50>)
 800014e:	400b      	ands	r3, r1
 8000150:	d002      	beq.n	8000158 <_Z12setup_inputsv+0x38>
 8000152:	6810      	ldr	r0, [r2, #0]
 8000154:	4388      	bics	r0, r1
 8000156:	6010      	str	r0, [r2, #0]
 8000158:	6820      	ldr	r0, [r4, #0]
 800015a:	4a06      	ldr	r2, [pc, #24]	; (8000174 <_Z12setup_inputsv+0x54>)
 800015c:	4906      	ldr	r1, [pc, #24]	; (8000178 <_Z12setup_inputsv+0x58>)
 800015e:	4002      	ands	r2, r0
 8000160:	6022      	str	r2, [r4, #0]
 8000162:	60e1      	str	r1, [r4, #12]
 8000164:	2b00      	cmp	r3, #0
 8000166:	d001      	beq.n	800016c <_Z12setup_inputsv+0x4c>
 8000168:	f001 fbdc 	bl	8001924 <_ZN4quan5stm326enableINS0_5usart6moduleILm1073821696EEEEENS_6where_INS_11is_model_ofINS0_5UsartET_EEvE4typeEv>
 800016c:	bd10      	pop	{r4, pc}
 800016e:	46c0      	nop			; (mov r8, r8)
 8000170:	40013800 	.word	0x40013800
 8000174:	ffff7fff 	.word	0xffff7fff
 8000178:	00000341 	.word	0x00000341

0800017c <setup>:
 800017c:	b508      	push	{r3, lr}
 800017e:	f7ff ffa5 	bl	80000cc <_Z13setup_outputsv>
 8000182:	f7ff ffa9 	bl	80000d8 <_Z12setup_eventsv>
 8000186:	f7ff ffcb 	bl	8000120 <_Z12setup_inputsv>
 800018a:	bd08      	pop	{r3, pc}

0800018c <_sbrk>:
 800018c:	4a08      	ldr	r2, [pc, #32]	; (80001b0 <_sbrk+0x24>)
 800018e:	b508      	push	{r3, lr}
 8000190:	6813      	ldr	r3, [r2, #0]
 8000192:	4908      	ldr	r1, [pc, #32]	; (80001b4 <_sbrk+0x28>)
 8000194:	1818      	adds	r0, r3, r0
 8000196:	4288      	cmp	r0, r1
 8000198:	d906      	bls.n	80001a8 <_sbrk+0x1c>
 800019a:	f001 ffb3 	bl	8002104 <__errno>
 800019e:	220c      	movs	r2, #12
 80001a0:	2301      	movs	r3, #1
 80001a2:	6002      	str	r2, [r0, #0]
 80001a4:	425b      	negs	r3, r3
 80001a6:	e000      	b.n	80001aa <_sbrk+0x1e>
 80001a8:	6010      	str	r0, [r2, #0]
 80001aa:	1c18      	adds	r0, r3, #0
 80001ac:	bd08      	pop	{r3, pc}
 80001ae:	46c0      	nop			; (mov r8, r8)
 80001b0:	20000000 	.word	0x20000000
 80001b4:	20000a30 	.word	0x20000a30

080001b8 <SystemInit>:
 80001b8:	4b33      	ldr	r3, [pc, #204]	; (8000288 <SystemInit+0xd0>)
 80001ba:	b513      	push	{r0, r1, r4, lr}
 80001bc:	6819      	ldr	r1, [r3, #0]
 80001be:	2201      	movs	r2, #1
 80001c0:	4311      	orrs	r1, r2
 80001c2:	6019      	str	r1, [r3, #0]
 80001c4:	6858      	ldr	r0, [r3, #4]
 80001c6:	4c31      	ldr	r4, [pc, #196]	; (800028c <SystemInit+0xd4>)
 80001c8:	4931      	ldr	r1, [pc, #196]	; (8000290 <SystemInit+0xd8>)
 80001ca:	4004      	ands	r4, r0
 80001cc:	605c      	str	r4, [r3, #4]
 80001ce:	6818      	ldr	r0, [r3, #0]
 80001d0:	4001      	ands	r1, r0
 80001d2:	6019      	str	r1, [r3, #0]
 80001d4:	681c      	ldr	r4, [r3, #0]
 80001d6:	482f      	ldr	r0, [pc, #188]	; (8000294 <SystemInit+0xdc>)
 80001d8:	492f      	ldr	r1, [pc, #188]	; (8000298 <SystemInit+0xe0>)
 80001da:	4020      	ands	r0, r4
 80001dc:	6018      	str	r0, [r3, #0]
 80001de:	685c      	ldr	r4, [r3, #4]
 80001e0:	400c      	ands	r4, r1
 80001e2:	605c      	str	r4, [r3, #4]
 80001e4:	6ad8      	ldr	r0, [r3, #44]	; 0x2c
 80001e6:	240f      	movs	r4, #15
 80001e8:	43a0      	bics	r0, r4
 80001ea:	62d8      	str	r0, [r3, #44]	; 0x2c
 80001ec:	6b1c      	ldr	r4, [r3, #48]	; 0x30
 80001ee:	482b      	ldr	r0, [pc, #172]	; (800029c <SystemInit+0xe4>)
 80001f0:	4020      	ands	r0, r4
 80001f2:	6318      	str	r0, [r3, #48]	; 0x30
 80001f4:	6b5c      	ldr	r4, [r3, #52]	; 0x34
 80001f6:	2000      	movs	r0, #0
 80001f8:	4394      	bics	r4, r2
 80001fa:	635c      	str	r4, [r3, #52]	; 0x34
 80001fc:	6098      	str	r0, [r3, #8]
 80001fe:	9000      	str	r0, [sp, #0]
 8000200:	9001      	str	r0, [sp, #4]
 8000202:	681c      	ldr	r4, [r3, #0]
 8000204:	2280      	movs	r2, #128	; 0x80
 8000206:	0250      	lsls	r0, r2, #9
 8000208:	4320      	orrs	r0, r4
 800020a:	6018      	str	r0, [r3, #0]
 800020c:	681c      	ldr	r4, [r3, #0]
 800020e:	2280      	movs	r2, #128	; 0x80
 8000210:	0292      	lsls	r2, r2, #10
 8000212:	4014      	ands	r4, r2
 8000214:	9401      	str	r4, [sp, #4]
 8000216:	9800      	ldr	r0, [sp, #0]
 8000218:	3001      	adds	r0, #1
 800021a:	9000      	str	r0, [sp, #0]
 800021c:	9c01      	ldr	r4, [sp, #4]
 800021e:	2c00      	cmp	r4, #0
 8000220:	d104      	bne.n	800022c <SystemInit+0x74>
 8000222:	9c00      	ldr	r4, [sp, #0]
 8000224:	20a0      	movs	r0, #160	; 0xa0
 8000226:	01c0      	lsls	r0, r0, #7
 8000228:	4284      	cmp	r4, r0
 800022a:	d1ef      	bne.n	800020c <SystemInit+0x54>
 800022c:	681c      	ldr	r4, [r3, #0]
 800022e:	4022      	ands	r2, r4
 8000230:	d000      	beq.n	8000234 <SystemInit+0x7c>
 8000232:	2201      	movs	r2, #1
 8000234:	9201      	str	r2, [sp, #4]
 8000236:	9a01      	ldr	r2, [sp, #4]
 8000238:	2a01      	cmp	r2, #1
 800023a:	d124      	bne.n	8000286 <SystemInit+0xce>
 800023c:	4c18      	ldr	r4, [pc, #96]	; (80002a0 <SystemInit+0xe8>)
 800023e:	2011      	movs	r0, #17
 8000240:	6020      	str	r0, [r4, #0]
 8000242:	685a      	ldr	r2, [r3, #4]
 8000244:	605a      	str	r2, [r3, #4]
 8000246:	685c      	ldr	r4, [r3, #4]
 8000248:	605c      	str	r4, [r3, #4]
 800024a:	685a      	ldr	r2, [r3, #4]
 800024c:	2488      	movs	r4, #136	; 0x88
 800024e:	4011      	ands	r1, r2
 8000250:	6059      	str	r1, [r3, #4]
 8000252:	6859      	ldr	r1, [r3, #4]
 8000254:	0362      	lsls	r2, r4, #13
 8000256:	430a      	orrs	r2, r1
 8000258:	605a      	str	r2, [r3, #4]
 800025a:	6819      	ldr	r1, [r3, #0]
 800025c:	2480      	movs	r4, #128	; 0x80
 800025e:	4084      	lsls	r4, r0
 8000260:	430c      	orrs	r4, r1
 8000262:	601c      	str	r4, [r3, #0]
 8000264:	6818      	ldr	r0, [r3, #0]
 8000266:	4a08      	ldr	r2, [pc, #32]	; (8000288 <SystemInit+0xd0>)
 8000268:	0180      	lsls	r0, r0, #6
 800026a:	d5fb      	bpl.n	8000264 <SystemInit+0xac>
 800026c:	6851      	ldr	r1, [r2, #4]
 800026e:	2403      	movs	r4, #3
 8000270:	43a1      	bics	r1, r4
 8000272:	6051      	str	r1, [r2, #4]
 8000274:	6851      	ldr	r1, [r2, #4]
 8000276:	2002      	movs	r0, #2
 8000278:	4301      	orrs	r1, r0
 800027a:	6051      	str	r1, [r2, #4]
 800027c:	685c      	ldr	r4, [r3, #4]
 800027e:	220c      	movs	r2, #12
 8000280:	4022      	ands	r2, r4
 8000282:	2a08      	cmp	r2, #8
 8000284:	d1fa      	bne.n	800027c <SystemInit+0xc4>
 8000286:	bd13      	pop	{r0, r1, r4, pc}
 8000288:	40021000 	.word	0x40021000
 800028c:	f8ffb80c 	.word	0xf8ffb80c
 8000290:	fef6ffff 	.word	0xfef6ffff
 8000294:	fffbffff 	.word	0xfffbffff
 8000298:	ffc0ffff 	.word	0xffc0ffff
 800029c:	fffffeac 	.word	0xfffffeac
 80002a0:	40022000 	.word	0x40022000

080002a4 <SystemCoreClockUpdate>:
 80002a4:	b570      	push	{r4, r5, r6, lr}
 80002a6:	4d14      	ldr	r5, [pc, #80]	; (80002f8 <SystemCoreClockUpdate+0x54>)
 80002a8:	230c      	movs	r3, #12
 80002aa:	686a      	ldr	r2, [r5, #4]
 80002ac:	4c13      	ldr	r4, [pc, #76]	; (80002fc <SystemCoreClockUpdate+0x58>)
 80002ae:	4013      	ands	r3, r2
 80002b0:	2b04      	cmp	r3, #4
 80002b2:	d001      	beq.n	80002b8 <SystemCoreClockUpdate+0x14>
 80002b4:	2b08      	cmp	r3, #8
 80002b6:	d002      	beq.n	80002be <SystemCoreClockUpdate+0x1a>
 80002b8:	4811      	ldr	r0, [pc, #68]	; (8000300 <SystemCoreClockUpdate+0x5c>)
 80002ba:	6020      	str	r0, [r4, #0]
 80002bc:	e012      	b.n	80002e4 <SystemCoreClockUpdate+0x40>
 80002be:	686e      	ldr	r6, [r5, #4]
 80002c0:	6868      	ldr	r0, [r5, #4]
 80002c2:	02b1      	lsls	r1, r6, #10
 80002c4:	0f0e      	lsrs	r6, r1, #28
 80002c6:	3602      	adds	r6, #2
 80002c8:	03c2      	lsls	r2, r0, #15
 80002ca:	d402      	bmi.n	80002d2 <SystemCoreClockUpdate+0x2e>
 80002cc:	4b0d      	ldr	r3, [pc, #52]	; (8000304 <SystemCoreClockUpdate+0x60>)
 80002ce:	435e      	muls	r6, r3
 80002d0:	e007      	b.n	80002e2 <SystemCoreClockUpdate+0x3e>
 80002d2:	6ae9      	ldr	r1, [r5, #44]	; 0x2c
 80002d4:	220f      	movs	r2, #15
 80002d6:	4011      	ands	r1, r2
 80002d8:	3101      	adds	r1, #1
 80002da:	4809      	ldr	r0, [pc, #36]	; (8000300 <SystemCoreClockUpdate+0x5c>)
 80002dc:	f000 fe28 	bl	8000f30 <__aeabi_uidiv>
 80002e0:	4346      	muls	r6, r0
 80002e2:	6026      	str	r6, [r4, #0]
 80002e4:	686d      	ldr	r5, [r5, #4]
 80002e6:	6820      	ldr	r0, [r4, #0]
 80002e8:	0629      	lsls	r1, r5, #24
 80002ea:	0f0e      	lsrs	r6, r1, #28
 80002ec:	19a2      	adds	r2, r4, r6
 80002ee:	7913      	ldrb	r3, [r2, #4]
 80002f0:	40d8      	lsrs	r0, r3
 80002f2:	6020      	str	r0, [r4, #0]
 80002f4:	bd70      	pop	{r4, r5, r6, pc}
 80002f6:	46c0      	nop			; (mov r8, r8)
 80002f8:	40021000 	.word	0x40021000
 80002fc:	20000004 	.word	0x20000004
 8000300:	007a1200 	.word	0x007a1200
 8000304:	003d0900 	.word	0x003d0900

08000308 <USART2_IRQHandler>:
 8000308:	b508      	push	{r3, lr}
 800030a:	f001 fc17 	bl	8001b3c <_ZN4quan5stm325usart11irq_handlerINS0_11serial_portINS1_6moduleILm1073759232EEELj200ELj200ENS_3mcu3pinINS0_4gpio6moduleILm1207959552EEELm2EEENS7_ISA_Lm3EEEEEEEvv>
 800030e:	bd08      	pop	{r3, pc}

08000310 <USART1_IRQHandler>:
 8000310:	b508      	push	{r3, lr}
 8000312:	f001 fc49 	bl	8001ba8 <_ZN4quan5stm325usart11irq_handlerINS0_11serial_portINS1_6moduleILm1073821696EEELj200ELj200ENS_3mcu3pinINS0_4gpio6moduleILm1207959552EEELm9EEENS7_ISA_Lm10EEEEEEEvv>
 8000316:	bd08      	pop	{r3, pc}

08000318 <_ZN12_GLOBAL__N_113advance_spaceEv>:
 8000318:	b510      	push	{r4, lr}
 800031a:	4c07      	ldr	r4, [pc, #28]	; (8000338 <_ZN12_GLOBAL__N_113advance_spaceEv+0x20>)
 800031c:	4b07      	ldr	r3, [pc, #28]	; (800033c <_ZN12_GLOBAL__N_113advance_spaceEv+0x24>)
 800031e:	6820      	ldr	r0, [r4, #0]
 8000320:	0042      	lsls	r2, r0, #1
 8000322:	5ad1      	ldrh	r1, [r2, r3]
 8000324:	4a06      	ldr	r2, [pc, #24]	; (8000340 <_ZN12_GLOBAL__N_113advance_spaceEv+0x28>)
 8000326:	2384      	movs	r3, #132	; 0x84
 8000328:	6091      	str	r1, [r2, #8]
 800032a:	3016      	adds	r0, #22
 800032c:	0059      	lsls	r1, r3, #1
 800032e:	f000 fe43 	bl	8000fb8 <__aeabi_uidivmod>
 8000332:	6021      	str	r1, [r4, #0]
 8000334:	bd10      	pop	{r4, pc}
 8000336:	46c0      	nop			; (mov r8, r8)
 8000338:	20000464 	.word	0x20000464
 800033c:	080023fc 	.word	0x080023fc
 8000340:	40007400 	.word	0x40007400

08000344 <_ZN12_GLOBAL__N_112advance_markEv>:
 8000344:	b510      	push	{r4, lr}
 8000346:	4c07      	ldr	r4, [pc, #28]	; (8000364 <_ZN12_GLOBAL__N_112advance_markEv+0x20>)
 8000348:	4b07      	ldr	r3, [pc, #28]	; (8000368 <_ZN12_GLOBAL__N_112advance_markEv+0x24>)
 800034a:	6820      	ldr	r0, [r4, #0]
 800034c:	0042      	lsls	r2, r0, #1
 800034e:	5ad1      	ldrh	r1, [r2, r3]
 8000350:	4a06      	ldr	r2, [pc, #24]	; (800036c <_ZN12_GLOBAL__N_112advance_markEv+0x28>)
 8000352:	2384      	movs	r3, #132	; 0x84
 8000354:	6091      	str	r1, [r2, #8]
 8000356:	300c      	adds	r0, #12
 8000358:	0059      	lsls	r1, r3, #1
 800035a:	f000 fe2d 	bl	8000fb8 <__aeabi_uidivmod>
 800035e:	6021      	str	r1, [r4, #0]
 8000360:	bd10      	pop	{r4, pc}
 8000362:	46c0      	nop			; (mov r8, r8)
 8000364:	20000464 	.word	0x20000464
 8000368:	080023fc 	.word	0x080023fc
 800036c:	40007400 	.word	0x40007400

08000370 <_ZN12_GLOBAL__N_110mark_spaceEv>:
 8000370:	b510      	push	{r4, lr}
 8000372:	4c0d      	ldr	r4, [pc, #52]	; (80003a8 <_ZN12_GLOBAL__N_110mark_spaceEv+0x38>)
 8000374:	7923      	ldrb	r3, [r4, #4]
 8000376:	3301      	adds	r3, #1
 8000378:	b2d8      	uxtb	r0, r3
 800037a:	7120      	strb	r0, [r4, #4]
 800037c:	2808      	cmp	r0, #8
 800037e:	d103      	bne.n	8000388 <_ZN12_GLOBAL__N_110mark_spaceEv+0x18>
 8000380:	f7ff ffe0 	bl	8000344 <_ZN12_GLOBAL__N_112advance_markEv>
 8000384:	2300      	movs	r3, #0
 8000386:	e00b      	b.n	80003a0 <_ZN12_GLOBAL__N_110mark_spaceEv+0x30>
 8000388:	79a2      	ldrb	r2, [r4, #6]
 800038a:	4102      	asrs	r2, r0
 800038c:	1c11      	adds	r1, r2, #0
 800038e:	07ca      	lsls	r2, r1, #31
 8000390:	d503      	bpl.n	800039a <_ZN12_GLOBAL__N_110mark_spaceEv+0x2a>
 8000392:	f7ff ffd7 	bl	8000344 <_ZN12_GLOBAL__N_112advance_markEv>
 8000396:	2302      	movs	r3, #2
 8000398:	e002      	b.n	80003a0 <_ZN12_GLOBAL__N_110mark_spaceEv+0x30>
 800039a:	f7ff ffbd 	bl	8000318 <_ZN12_GLOBAL__N_113advance_spaceEv>
 800039e:	2303      	movs	r3, #3
 80003a0:	2001      	movs	r0, #1
 80003a2:	7163      	strb	r3, [r4, #5]
 80003a4:	8120      	strh	r0, [r4, #8]
 80003a6:	bd10      	pop	{r4, pc}
 80003a8:	20000464 	.word	0x20000464

080003ac <_ZN3fsk3putEc>:
 80003ac:	4913      	ldr	r1, [pc, #76]	; (80003fc <_ZN3fsk3putEc+0x50>)
 80003ae:	2201      	movs	r2, #1
 80003b0:	68cb      	ldr	r3, [r1, #12]
 80003b2:	b510      	push	{r4, lr}
 80003b4:	4393      	bics	r3, r2
 80003b6:	60cb      	str	r3, [r1, #12]
 80003b8:	4b11      	ldr	r3, [pc, #68]	; (8000400 <_ZN3fsk3putEc+0x54>)
 80003ba:	68dc      	ldr	r4, [r3, #12]
 80003bc:	2c00      	cmp	r4, #0
 80003be:	d017      	beq.n	80003f0 <_ZN3fsk3putEc+0x44>
 80003c0:	7020      	strb	r0, [r4, #0]
 80003c2:	6918      	ldr	r0, [r3, #16]
 80003c4:	2800      	cmp	r0, #0
 80003c6:	d101      	bne.n	80003cc <_ZN3fsk3putEc+0x20>
 80003c8:	68da      	ldr	r2, [r3, #12]
 80003ca:	611a      	str	r2, [r3, #16]
 80003cc:	68dc      	ldr	r4, [r3, #12]
 80003ce:	1c18      	adds	r0, r3, #0
 80003d0:	3401      	adds	r4, #1
 80003d2:	308c      	adds	r0, #140	; 0x8c
 80003d4:	60dc      	str	r4, [r3, #12]
 80003d6:	4284      	cmp	r4, r0
 80003d8:	d102      	bne.n	80003e0 <_ZN3fsk3putEc+0x34>
 80003da:	1c1a      	adds	r2, r3, #0
 80003dc:	3214      	adds	r2, #20
 80003de:	60da      	str	r2, [r3, #12]
 80003e0:	68da      	ldr	r2, [r3, #12]
 80003e2:	691c      	ldr	r4, [r3, #16]
 80003e4:	2001      	movs	r0, #1
 80003e6:	42a2      	cmp	r2, r4
 80003e8:	d103      	bne.n	80003f2 <_ZN3fsk3putEc+0x46>
 80003ea:	2200      	movs	r2, #0
 80003ec:	60da      	str	r2, [r3, #12]
 80003ee:	e000      	b.n	80003f2 <_ZN3fsk3putEc+0x46>
 80003f0:	1c20      	adds	r0, r4, #0
 80003f2:	68cb      	ldr	r3, [r1, #12]
 80003f4:	2401      	movs	r4, #1
 80003f6:	4323      	orrs	r3, r4
 80003f8:	60cb      	str	r3, [r1, #12]
 80003fa:	bd10      	pop	{r4, pc}
 80003fc:	40001000 	.word	0x40001000
 8000400:	20000464 	.word	0x20000464

08000404 <_ZN3fsk5writeEPKcj>:
 8000404:	b538      	push	{r3, r4, r5, lr}
 8000406:	1c04      	adds	r4, r0, #0
 8000408:	1845      	adds	r5, r0, r1
 800040a:	42ac      	cmp	r4, r5
 800040c:	d004      	beq.n	8000418 <_ZN3fsk5writeEPKcj+0x14>
 800040e:	7820      	ldrb	r0, [r4, #0]
 8000410:	f7ff ffcc 	bl	80003ac <_ZN3fsk3putEc>
 8000414:	3401      	adds	r4, #1
 8000416:	e7f8      	b.n	800040a <_ZN3fsk5writeEPKcj+0x6>
 8000418:	bd38      	pop	{r3, r4, r5, pc}

0800041a <_ZN3fsk5setupEv>:
 800041a:	4a20      	ldr	r2, [pc, #128]	; (800049c <_ZN3fsk5setupEv+0x82>)
 800041c:	b570      	push	{r4, r5, r6, lr}
 800041e:	6953      	ldr	r3, [r2, #20]
 8000420:	2480      	movs	r4, #128	; 0x80
 8000422:	02a4      	lsls	r4, r4, #10
 8000424:	4323      	orrs	r3, r4
 8000426:	2090      	movs	r0, #144	; 0x90
 8000428:	6153      	str	r3, [r2, #20]
 800042a:	05c5      	lsls	r5, r0, #23
 800042c:	682e      	ldr	r6, [r5, #0]
 800042e:	21c0      	movs	r1, #192	; 0xc0
 8000430:	008b      	lsls	r3, r1, #2
 8000432:	4333      	orrs	r3, r6
 8000434:	602b      	str	r3, [r5, #0]
 8000436:	68e8      	ldr	r0, [r5, #12]
 8000438:	4e19      	ldr	r6, [pc, #100]	; (80004a0 <_ZN3fsk5setupEv+0x86>)
 800043a:	2180      	movs	r1, #128	; 0x80
 800043c:	4006      	ands	r6, r0
 800043e:	60ee      	str	r6, [r5, #12]
 8000440:	69d5      	ldr	r5, [r2, #28]
 8000442:	058b      	lsls	r3, r1, #22
 8000444:	432b      	orrs	r3, r5
 8000446:	61d3      	str	r3, [r2, #28]
 8000448:	4b16      	ldr	r3, [pc, #88]	; (80004a4 <_ZN3fsk5setupEv+0x8a>)
 800044a:	2000      	movs	r0, #0
 800044c:	6358      	str	r0, [r3, #52]	; 0x34
 800044e:	681e      	ldr	r6, [r3, #0]
 8000450:	2504      	movs	r5, #4
 8000452:	432e      	orrs	r6, r5
 8000454:	601e      	str	r6, [r3, #0]
 8000456:	6819      	ldr	r1, [r3, #0]
 8000458:	2638      	movs	r6, #56	; 0x38
 800045a:	43b1      	bics	r1, r6
 800045c:	6019      	str	r1, [r3, #0]
 800045e:	4912      	ldr	r1, [pc, #72]	; (80004a8 <_ZN3fsk5setupEv+0x8e>)
 8000460:	6099      	str	r1, [r3, #8]
 8000462:	681e      	ldr	r6, [r3, #0]
 8000464:	2101      	movs	r1, #1
 8000466:	430e      	orrs	r6, r1
 8000468:	601e      	str	r6, [r3, #0]
 800046a:	69d3      	ldr	r3, [r2, #28]
 800046c:	2610      	movs	r6, #16
 800046e:	4333      	orrs	r3, r6
 8000470:	61d3      	str	r3, [r2, #28]
 8000472:	4b0e      	ldr	r3, [pc, #56]	; (80004ac <_ZN3fsk5setupEv+0x92>)
 8000474:	4a0e      	ldr	r2, [pc, #56]	; (80004b0 <_ZN3fsk5setupEv+0x96>)
 8000476:	6258      	str	r0, [r3, #36]	; 0x24
 8000478:	6298      	str	r0, [r3, #40]	; 0x28
 800047a:	2020      	movs	r0, #32
 800047c:	62da      	str	r2, [r3, #44]	; 0x2c
 800047e:	601d      	str	r5, [r3, #0]
 8000480:	6058      	str	r0, [r3, #4]
 8000482:	691d      	ldr	r5, [r3, #16]
 8000484:	4e0b      	ldr	r6, [pc, #44]	; (80004b4 <_ZN3fsk5setupEv+0x9a>)
 8000486:	438d      	bics	r5, r1
 8000488:	611d      	str	r5, [r3, #16]
 800048a:	6034      	str	r4, [r6, #0]
 800048c:	68dc      	ldr	r4, [r3, #12]
 800048e:	430c      	orrs	r4, r1
 8000490:	60dc      	str	r4, [r3, #12]
 8000492:	681a      	ldr	r2, [r3, #0]
 8000494:	4311      	orrs	r1, r2
 8000496:	6019      	str	r1, [r3, #0]
 8000498:	bd70      	pop	{r4, r5, r6, pc}
 800049a:	46c0      	nop			; (mov r8, r8)
 800049c:	40021000 	.word	0x40021000
 80004a0:	fffffcff 	.word	0xfffffcff
 80004a4:	40007400 	.word	0x40007400
 80004a8:	000007ff 	.word	0x000007ff
 80004ac:	40001000 	.word	0x40001000
 80004b0:	00000719 	.word	0x00000719
 80004b4:	e000e100 	.word	0xe000e100

080004b8 <TIM6_DAC_IRQHandler>:
 80004b8:	4b2a      	ldr	r3, [pc, #168]	; (8000564 <TIM6_DAC_IRQHandler+0xac>)
 80004ba:	b510      	push	{r4, lr}
 80004bc:	4c2a      	ldr	r4, [pc, #168]	; (8000568 <TIM6_DAC_IRQHandler+0xb0>)
 80004be:	691a      	ldr	r2, [r3, #16]
 80004c0:	2101      	movs	r1, #1
 80004c2:	7960      	ldrb	r0, [r4, #5]
 80004c4:	438a      	bics	r2, r1
 80004c6:	611a      	str	r2, [r3, #16]
 80004c8:	2803      	cmp	r0, #3
 80004ca:	d849      	bhi.n	8000560 <TIM6_DAC_IRQHandler+0xa8>
 80004cc:	8923      	ldrh	r3, [r4, #8]
 80004ce:	3301      	adds	r3, #1
 80004d0:	b29a      	uxth	r2, r3
 80004d2:	8122      	strh	r2, [r4, #8]
 80004d4:	f000 fd22 	bl	8000f1c <__gnu_thumb1_case_uqi>
 80004d8:	413c2702 	.word	0x413c2702
 80004dc:	2a15      	cmp	r2, #21
 80004de:	d802      	bhi.n	80004e6 <TIM6_DAC_IRQHandler+0x2e>
 80004e0:	f7ff ff30 	bl	8000344 <_ZN12_GLOBAL__N_112advance_markEv>
 80004e4:	e03c      	b.n	8000560 <TIM6_DAC_IRQHandler+0xa8>
 80004e6:	6920      	ldr	r0, [r4, #16]
 80004e8:	2800      	cmp	r0, #0
 80004ea:	d102      	bne.n	80004f2 <TIM6_DAC_IRQHandler+0x3a>
 80004ec:	f7ff ff2a 	bl	8000344 <_ZN12_GLOBAL__N_112advance_markEv>
 80004f0:	e02b      	b.n	800054a <TIM6_DAC_IRQHandler+0x92>
 80004f2:	7802      	ldrb	r2, [r0, #0]
 80004f4:	68e1      	ldr	r1, [r4, #12]
 80004f6:	71a2      	strb	r2, [r4, #6]
 80004f8:	2900      	cmp	r1, #0
 80004fa:	d100      	bne.n	80004fe <TIM6_DAC_IRQHandler+0x46>
 80004fc:	60e0      	str	r0, [r4, #12]
 80004fe:	1c23      	adds	r3, r4, #0
 8000500:	3001      	adds	r0, #1
 8000502:	338c      	adds	r3, #140	; 0x8c
 8000504:	6120      	str	r0, [r4, #16]
 8000506:	4298      	cmp	r0, r3
 8000508:	d102      	bne.n	8000510 <TIM6_DAC_IRQHandler+0x58>
 800050a:	1c20      	adds	r0, r4, #0
 800050c:	3014      	adds	r0, #20
 800050e:	6120      	str	r0, [r4, #16]
 8000510:	6921      	ldr	r1, [r4, #16]
 8000512:	68e2      	ldr	r2, [r4, #12]
 8000514:	4291      	cmp	r1, r2
 8000516:	d101      	bne.n	800051c <TIM6_DAC_IRQHandler+0x64>
 8000518:	2300      	movs	r3, #0
 800051a:	6123      	str	r3, [r4, #16]
 800051c:	f7ff fefc 	bl	8000318 <_ZN12_GLOBAL__N_113advance_spaceEv>
 8000520:	2001      	movs	r0, #1
 8000522:	7160      	strb	r0, [r4, #5]
 8000524:	e011      	b.n	800054a <TIM6_DAC_IRQHandler+0x92>
 8000526:	2a15      	cmp	r2, #21
 8000528:	d802      	bhi.n	8000530 <TIM6_DAC_IRQHandler+0x78>
 800052a:	f7ff fef5 	bl	8000318 <_ZN12_GLOBAL__N_113advance_spaceEv>
 800052e:	e017      	b.n	8000560 <TIM6_DAC_IRQHandler+0xa8>
 8000530:	79a0      	ldrb	r0, [r4, #6]
 8000532:	07c2      	lsls	r2, r0, #31
 8000534:	d503      	bpl.n	800053e <TIM6_DAC_IRQHandler+0x86>
 8000536:	f7ff ff05 	bl	8000344 <_ZN12_GLOBAL__N_112advance_markEv>
 800053a:	2102      	movs	r1, #2
 800053c:	e002      	b.n	8000544 <TIM6_DAC_IRQHandler+0x8c>
 800053e:	f7ff feeb 	bl	8000318 <_ZN12_GLOBAL__N_113advance_spaceEv>
 8000542:	2103      	movs	r1, #3
 8000544:	2300      	movs	r3, #0
 8000546:	7161      	strb	r1, [r4, #5]
 8000548:	7123      	strb	r3, [r4, #4]
 800054a:	2101      	movs	r1, #1
 800054c:	8121      	strh	r1, [r4, #8]
 800054e:	e007      	b.n	8000560 <TIM6_DAC_IRQHandler+0xa8>
 8000550:	2a15      	cmp	r2, #21
 8000552:	d9c5      	bls.n	80004e0 <TIM6_DAC_IRQHandler+0x28>
 8000554:	f7ff ff0c 	bl	8000370 <_ZN12_GLOBAL__N_110mark_spaceEv>
 8000558:	e002      	b.n	8000560 <TIM6_DAC_IRQHandler+0xa8>
 800055a:	2a15      	cmp	r2, #21
 800055c:	d8fa      	bhi.n	8000554 <TIM6_DAC_IRQHandler+0x9c>
 800055e:	e7e4      	b.n	800052a <TIM6_DAC_IRQHandler+0x72>
 8000560:	bd10      	pop	{r4, pc}
 8000562:	46c0      	nop			; (mov r8, r8)
 8000564:	40001000 	.word	0x40001000
 8000568:	20000464 	.word	0x20000464

0800056c <_ZN3fsk12send_messageEv>:
 800056c:	b500      	push	{lr}
 800056e:	4b09      	ldr	r3, [pc, #36]	; (8000594 <_ZN3fsk12send_messageEv+0x28>)
 8000570:	b089      	sub	sp, #36	; 0x24
 8000572:	68d8      	ldr	r0, [r3, #12]
 8000574:	6959      	ldr	r1, [r3, #20]
 8000576:	689a      	ldr	r2, [r3, #8]
 8000578:	9002      	str	r0, [sp, #8]
 800057a:	9103      	str	r1, [sp, #12]
 800057c:	a801      	add	r0, sp, #4
 800057e:	a904      	add	r1, sp, #16
 8000580:	9201      	str	r2, [sp, #4]
 8000582:	f001 fb91 	bl	8001ca8 <_ZN4quan7tracker12zapp3_encodeERKNS_3uav8positionINS_22fraction_of_revolutionINS_4meta8rationalILx1ELx1EEENS5_ILx3600000000ELx1EEElEENS_14fixed_quantityINS4_4unitINS4_17abstract_quantityINS4_9dimensionIS6_NS5_ILx0ELx1EEESD_SD_SD_SD_SD_EENS4_10components9of_lengthEEENS4_17conversion_factorINS5_ILxn3ELx1EEES6_NS4_5int32ILl0EEEEEEElEEEERA16_h>
 8000586:	a804      	add	r0, sp, #16
 8000588:	2110      	movs	r1, #16
 800058a:	f7ff ff3b 	bl	8000404 <_ZN3fsk5writeEPKcj>
 800058e:	b009      	add	sp, #36	; 0x24
 8000590:	bd00      	pop	{pc}
 8000592:	46c0      	nop			; (mov r8, r8)
 8000594:	20000530 	.word	0x20000530

08000598 <_ZN3fsk11setup_eventEv>:
 8000598:	b508      	push	{r3, lr}
 800059a:	2001      	movs	r0, #1
 800059c:	4901      	ldr	r1, [pc, #4]	; (80005a4 <_ZN3fsk11setup_eventEv+0xc>)
 800059e:	f000 fc21 	bl	8000de4 <_Z9set_eventmP14periodic_event>
 80005a2:	bd08      	pop	{r3, pc}
 80005a4:	200004f0 	.word	0x200004f0

080005a8 <_ZN5frsky12send_messageEv>:
 80005a8:	b508      	push	{r3, lr}
 80005aa:	f000 f835 	bl	8000618 <_ZN5zapp118frsky_send_messageEv>
 80005ae:	bd08      	pop	{r3, pc}

080005b0 <_ZN5frsky11setup_eventEv>:
 80005b0:	b508      	push	{r3, lr}
 80005b2:	f000 f876 	bl	80006a2 <_ZN5zapp117setup_frsky_eventEv>
 80005b6:	bd08      	pop	{r3, pc}

080005b8 <_ZN5frsky5setupEv>:
 80005b8:	b510      	push	{r4, lr}
 80005ba:	4c13      	ldr	r4, [pc, #76]	; (8000608 <_ZN5frsky5setupEv+0x50>)
 80005bc:	f001 fc3c 	bl	8001e38 <_ZN4quan5stm3211serial_portINS0_5usart6moduleILm1073759232EEELj200ELj200ENS_3mcu3pinINS0_4gpio6moduleILm1207959552EEELm2EEENS6_IS9_Lm3EEEE4initEv>
 80005c0:	6823      	ldr	r3, [r4, #0]
 80005c2:	2201      	movs	r2, #1
 80005c4:	4013      	ands	r3, r2
 80005c6:	d002      	beq.n	80005ce <_ZN5frsky5setupEv+0x16>
 80005c8:	6821      	ldr	r1, [r4, #0]
 80005ca:	4391      	bics	r1, r2
 80005cc:	6021      	str	r1, [r4, #0]
 80005ce:	6861      	ldr	r1, [r4, #4]
 80005d0:	2280      	movs	r2, #128	; 0x80
 80005d2:	0290      	lsls	r0, r2, #10
 80005d4:	4308      	orrs	r0, r1
 80005d6:	6060      	str	r0, [r4, #4]
 80005d8:	2b00      	cmp	r3, #0
 80005da:	d001      	beq.n	80005e0 <_ZN5frsky5setupEv+0x28>
 80005dc:	f001 fbf0 	bl	8001dc0 <_ZN4quan5stm326enableINS0_5usart6moduleILm1073759232EEEEENS_6where_INS_11is_model_ofINS0_5UsartET_EEvE4typeEv>
 80005e0:	6823      	ldr	r3, [r4, #0]
 80005e2:	2101      	movs	r1, #1
 80005e4:	4a08      	ldr	r2, [pc, #32]	; (8000608 <_ZN5frsky5setupEv+0x50>)
 80005e6:	400b      	ands	r3, r1
 80005e8:	d002      	beq.n	80005f0 <_ZN5frsky5setupEv+0x38>
 80005ea:	6810      	ldr	r0, [r2, #0]
 80005ec:	4388      	bics	r0, r1
 80005ee:	6010      	str	r0, [r2, #0]
 80005f0:	6820      	ldr	r0, [r4, #0]
 80005f2:	4a06      	ldr	r2, [pc, #24]	; (800060c <_ZN5frsky5setupEv+0x54>)
 80005f4:	4906      	ldr	r1, [pc, #24]	; (8000610 <_ZN5frsky5setupEv+0x58>)
 80005f6:	4002      	ands	r2, r0
 80005f8:	6022      	str	r2, [r4, #0]
 80005fa:	60e1      	str	r1, [r4, #12]
 80005fc:	2b00      	cmp	r3, #0
 80005fe:	d001      	beq.n	8000604 <_ZN5frsky5setupEv+0x4c>
 8000600:	f001 fbde 	bl	8001dc0 <_ZN4quan5stm326enableINS0_5usart6moduleILm1073759232EEEEENS_6where_INS_11is_model_ofINS0_5UsartET_EEvE4typeEv>
 8000604:	bd10      	pop	{r4, pc}
 8000606:	46c0      	nop			; (mov r8, r8)
 8000608:	40004400 	.word	0x40004400
 800060c:	ffff7fff 	.word	0xffff7fff
 8000610:	00001388 	.word	0x00001388
 8000614:	00000000 	.word	0x00000000

08000618 <_ZN5zapp118frsky_send_messageEv>:
 8000618:	b538      	push	{r3, r4, r5, lr}
 800061a:	4c15      	ldr	r4, [pc, #84]	; (8000670 <_ZN5zapp118frsky_send_messageEv+0x58>)
 800061c:	8865      	ldrh	r5, [r4, #2]
 800061e:	b22b      	sxth	r3, r5
 8000620:	2b00      	cmp	r3, #0
 8000622:	dc0f      	bgt.n	8000644 <_ZN5zapp118frsky_send_messageEv+0x2c>
 8000624:	7820      	ldrb	r0, [r4, #0]
 8000626:	4d13      	ldr	r5, [pc, #76]	; (8000674 <_ZN5zapp118frsky_send_messageEv+0x5c>)
 8000628:	0082      	lsls	r2, r0, #2
 800062a:	5953      	ldr	r3, [r2, r5]
 800062c:	4798      	blx	r3
 800062e:	2202      	movs	r2, #2
 8000630:	5ea1      	ldrsh	r1, [r4, r2]
 8000632:	1808      	adds	r0, r1, r0
 8000634:	8060      	strh	r0, [r4, #2]
 8000636:	7820      	ldrb	r0, [r4, #0]
 8000638:	2109      	movs	r1, #9
 800063a:	3001      	adds	r0, #1
 800063c:	f000 fcbc 	bl	8000fb8 <__aeabi_uidivmod>
 8000640:	7021      	strb	r1, [r4, #0]
 8000642:	e7ea      	b.n	800061a <_ZN5zapp118frsky_send_messageEv+0x2>
 8000644:	7920      	ldrb	r0, [r4, #4]
 8000646:	2103      	movs	r1, #3
 8000648:	3001      	adds	r0, #1
 800064a:	f000 fd15 	bl	8001078 <__aeabi_idivmod>
 800064e:	b2c9      	uxtb	r1, r1
 8000650:	7121      	strb	r1, [r4, #4]
 8000652:	3902      	subs	r1, #2
 8000654:	1e4b      	subs	r3, r1, #1
 8000656:	4199      	sbcs	r1, r3
 8000658:	1868      	adds	r0, r5, r1
 800065a:	3803      	subs	r0, #3
 800065c:	b282      	uxth	r2, r0
 800065e:	b215      	sxth	r5, r2
 8000660:	3540      	adds	r5, #64	; 0x40
 8000662:	db01      	blt.n	8000668 <_ZN5zapp118frsky_send_messageEv+0x50>
 8000664:	8062      	strh	r2, [r4, #2]
 8000666:	e002      	b.n	800066e <_ZN5zapp118frsky_send_messageEv+0x56>
 8000668:	2340      	movs	r3, #64	; 0x40
 800066a:	4259      	negs	r1, r3
 800066c:	8061      	strh	r1, [r4, #2]
 800066e:	bd38      	pop	{r3, r4, r5, pc}
 8000670:	20000500 	.word	0x20000500
 8000674:	0800260c 	.word	0x0800260c

08000678 <_ZN12_GLOBAL__N_110zapp1_impl14create_messageIlE6assignERKl.isra.0>:
 8000678:	b510      	push	{r4, lr}
 800067a:	0a0b      	lsrs	r3, r1, #8
 800067c:	0c0a      	lsrs	r2, r1, #16
 800067e:	7081      	strb	r1, [r0, #2]
 8000680:	70c3      	strb	r3, [r0, #3]
 8000682:	0e09      	lsrs	r1, r1, #24
 8000684:	7803      	ldrb	r3, [r0, #0]
 8000686:	7102      	strb	r2, [r0, #4]
 8000688:	7141      	strb	r1, [r0, #5]
 800068a:	2201      	movs	r2, #1
 800068c:	5c84      	ldrb	r4, [r0, r2]
 800068e:	3201      	adds	r2, #1
 8000690:	1919      	adds	r1, r3, r4
 8000692:	120c      	asrs	r4, r1, #8
 8000694:	1909      	adds	r1, r1, r4
 8000696:	185b      	adds	r3, r3, r1
 8000698:	b2db      	uxtb	r3, r3
 800069a:	2a06      	cmp	r2, #6
 800069c:	d1f6      	bne.n	800068c <_ZN12_GLOBAL__N_110zapp1_impl14create_messageIlE6assignERKl.isra.0+0x14>
 800069e:	7183      	strb	r3, [r0, #6]
 80006a0:	bd10      	pop	{r4, pc}

080006a2 <_ZN5zapp117setup_frsky_eventEv>:
 80006a2:	b508      	push	{r3, lr}
 80006a4:	4902      	ldr	r1, [pc, #8]	; (80006b0 <_ZN5zapp117setup_frsky_eventEv+0xe>)
 80006a6:	2000      	movs	r0, #0
 80006a8:	3108      	adds	r1, #8
 80006aa:	f000 fb9b 	bl	8000de4 <_Z9set_eventmP14periodic_event>
 80006ae:	bd08      	pop	{r3, pc}
 80006b0:	20000500 	.word	0x20000500

080006b4 <_ZN12_GLOBAL__N_110zapp1_impl12esc_write_spEPcsb>:
 80006b4:	b5f7      	push	{r0, r1, r2, r4, r5, r6, r7, lr}
 80006b6:	2500      	movs	r5, #0
 80006b8:	9000      	str	r0, [sp, #0]
 80006ba:	9101      	str	r1, [sp, #4]
 80006bc:	42aa      	cmp	r2, r5
 80006be:	d003      	beq.n	80006c8 <_ZN12_GLOBAL__N_110zapp1_impl12esc_write_spEPcsb+0x14>
 80006c0:	205e      	movs	r0, #94	; 0x5e
 80006c2:	f001 fc3b 	bl	8001f3c <_ZN4quan5stm3211serial_portINS0_5usart6moduleILm1073759232EEELj200ELj200ENS_3mcu3pinINS0_4gpio6moduleILm1207959552EEELm2EEENS6_IS9_Lm3EEEE3putEc>
 80006c6:	2501      	movs	r5, #1
 80006c8:	1c2c      	adds	r4, r5, #0
 80006ca:	2600      	movs	r6, #0
 80006cc:	1973      	adds	r3, r6, r5
 80006ce:	9a01      	ldr	r2, [sp, #4]
 80006d0:	b218      	sxth	r0, r3
 80006d2:	4290      	cmp	r0, r2
 80006d4:	da16      	bge.n	8000704 <_ZN12_GLOBAL__N_110zapp1_impl12esc_write_spEPcsb+0x50>
 80006d6:	9900      	ldr	r1, [sp, #0]
 80006d8:	194f      	adds	r7, r1, r5
 80006da:	5dbf      	ldrb	r7, [r7, r6]
 80006dc:	1c3b      	adds	r3, r7, #0
 80006de:	3b5d      	subs	r3, #93	; 0x5d
 80006e0:	2b01      	cmp	r3, #1
 80006e2:	d808      	bhi.n	80006f6 <_ZN12_GLOBAL__N_110zapp1_impl12esc_write_spEPcsb+0x42>
 80006e4:	205d      	movs	r0, #93	; 0x5d
 80006e6:	f001 fc29 	bl	8001f3c <_ZN4quan5stm3211serial_portINS0_5usart6moduleILm1073759232EEELj200ELj200ENS_3mcu3pinINS0_4gpio6moduleILm1207959552EEELm2EEENS6_IS9_Lm3EEEE3putEc>
 80006ea:	2060      	movs	r0, #96	; 0x60
 80006ec:	4078      	eors	r0, r7
 80006ee:	f001 fc25 	bl	8001f3c <_ZN4quan5stm3211serial_portINS0_5usart6moduleILm1073759232EEELj200ELj200ENS_3mcu3pinINS0_4gpio6moduleILm1207959552EEELm2EEENS6_IS9_Lm3EEEE3putEc>
 80006f2:	3402      	adds	r4, #2
 80006f4:	e003      	b.n	80006fe <_ZN12_GLOBAL__N_110zapp1_impl12esc_write_spEPcsb+0x4a>
 80006f6:	1c38      	adds	r0, r7, #0
 80006f8:	f001 fc20 	bl	8001f3c <_ZN4quan5stm3211serial_portINS0_5usart6moduleILm1073759232EEELj200ELj200ENS_3mcu3pinINS0_4gpio6moduleILm1207959552EEELm2EEENS6_IS9_Lm3EEEE3putEc>
 80006fc:	3401      	adds	r4, #1
 80006fe:	b2a4      	uxth	r4, r4
 8000700:	3601      	adds	r6, #1
 8000702:	e7e3      	b.n	80006cc <_ZN12_GLOBAL__N_110zapp1_impl12esc_write_spEPcsb+0x18>
 8000704:	b220      	sxth	r0, r4
 8000706:	bdfe      	pop	{r1, r2, r3, r4, r5, r6, r7, pc}

08000708 <_ZN12_GLOBAL__N_110zapp1_impl15update_alt_msg3Ev>:
 8000708:	b508      	push	{r3, lr}
 800070a:	4803      	ldr	r0, [pc, #12]	; (8000718 <_ZN12_GLOBAL__N_110zapp1_impl15update_alt_msg3Ev+0x10>)
 800070c:	2103      	movs	r1, #3
 800070e:	301c      	adds	r0, #28
 8000710:	2200      	movs	r2, #0
 8000712:	f7ff ffcf 	bl	80006b4 <_ZN12_GLOBAL__N_110zapp1_impl12esc_write_spEPcsb>
 8000716:	bd08      	pop	{r3, pc}
 8000718:	20000500 	.word	0x20000500

0800071c <_ZN12_GLOBAL__N_110zapp1_impl15update_alt_msg2Ev>:
 800071c:	b508      	push	{r3, lr}
 800071e:	4803      	ldr	r0, [pc, #12]	; (800072c <_ZN12_GLOBAL__N_110zapp1_impl15update_alt_msg2Ev+0x10>)
 8000720:	2102      	movs	r1, #2
 8000722:	301a      	adds	r0, #26
 8000724:	2200      	movs	r2, #0
 8000726:	f7ff ffc5 	bl	80006b4 <_ZN12_GLOBAL__N_110zapp1_impl12esc_write_spEPcsb>
 800072a:	bd08      	pop	{r3, pc}
 800072c:	20000500 	.word	0x20000500

08000730 <_ZN12_GLOBAL__N_110zapp1_impl15update_alt_msg1Ev>:
 8000730:	b538      	push	{r3, r4, r5, lr}
 8000732:	4b0e      	ldr	r3, [pc, #56]	; (800076c <_ZN12_GLOBAL__N_110zapp1_impl15update_alt_msg1Ev+0x3c>)
 8000734:	4c0e      	ldr	r4, [pc, #56]	; (8000770 <_ZN12_GLOBAL__N_110zapp1_impl15update_alt_msg1Ev+0x40>)
 8000736:	681a      	ldr	r2, [r3, #0]
 8000738:	1c25      	adds	r5, r4, #0
 800073a:	480e      	ldr	r0, [pc, #56]	; (8000774 <_ZN12_GLOBAL__N_110zapp1_impl15update_alt_msg1Ev+0x44>)
 800073c:	3518      	adds	r5, #24
 800073e:	2a00      	cmp	r2, #0
 8000740:	d105      	bne.n	800074e <_ZN12_GLOBAL__N_110zapp1_impl15update_alt_msg1Ev+0x1e>
 8000742:	21fa      	movs	r1, #250	; 0xfa
 8000744:	6940      	ldr	r0, [r0, #20]
 8000746:	0089      	lsls	r1, r1, #2
 8000748:	f000 fc40 	bl	8000fcc <__aeabi_idiv>
 800074c:	e002      	b.n	8000754 <_ZN12_GLOBAL__N_110zapp1_impl15update_alt_msg1Ev+0x24>
 800074e:	6c80      	ldr	r0, [r0, #72]	; 0x48
 8000750:	f000 fffa 	bl	8001748 <__aeabi_f2iz>
 8000754:	1c01      	adds	r1, r0, #0
 8000756:	1c28      	adds	r0, r5, #0
 8000758:	f7ff ff8e 	bl	8000678 <_ZN12_GLOBAL__N_110zapp1_impl14create_messageIlE6assignERKl.isra.0>
 800075c:	1c20      	adds	r0, r4, #0
 800075e:	2102      	movs	r1, #2
 8000760:	2201      	movs	r2, #1
 8000762:	3018      	adds	r0, #24
 8000764:	f7ff ffa6 	bl	80006b4 <_ZN12_GLOBAL__N_110zapp1_impl12esc_write_spEPcsb>
 8000768:	bd38      	pop	{r3, r4, r5, pc}
 800076a:	46c0      	nop			; (mov r8, r8)
 800076c:	20000028 	.word	0x20000028
 8000770:	20000500 	.word	0x20000500
 8000774:	20000530 	.word	0x20000530

08000778 <_ZN12_GLOBAL__N_110zapp1_impl15update_lon_msg3Ev>:
 8000778:	b508      	push	{r3, lr}
 800077a:	4803      	ldr	r0, [pc, #12]	; (8000788 <_ZN12_GLOBAL__N_110zapp1_impl15update_lon_msg3Ev+0x10>)
 800077c:	2103      	movs	r1, #3
 800077e:	3023      	adds	r0, #35	; 0x23
 8000780:	2200      	movs	r2, #0
 8000782:	f7ff ff97 	bl	80006b4 <_ZN12_GLOBAL__N_110zapp1_impl12esc_write_spEPcsb>
 8000786:	bd08      	pop	{r3, pc}
 8000788:	20000500 	.word	0x20000500

0800078c <_ZN12_GLOBAL__N_110zapp1_impl15update_lon_msg2Ev>:
 800078c:	b508      	push	{r3, lr}
 800078e:	4803      	ldr	r0, [pc, #12]	; (800079c <_ZN12_GLOBAL__N_110zapp1_impl15update_lon_msg2Ev+0x10>)
 8000790:	2102      	movs	r1, #2
 8000792:	3021      	adds	r0, #33	; 0x21
 8000794:	2200      	movs	r2, #0
 8000796:	f7ff ff8d 	bl	80006b4 <_ZN12_GLOBAL__N_110zapp1_impl12esc_write_spEPcsb>
 800079a:	bd08      	pop	{r3, pc}
 800079c:	20000500 	.word	0x20000500

080007a0 <_ZN12_GLOBAL__N_110zapp1_impl15update_lon_msg1Ev>:
 80007a0:	4b15      	ldr	r3, [pc, #84]	; (80007f8 <_ZN12_GLOBAL__N_110zapp1_impl15update_lon_msg1Ev+0x58>)
 80007a2:	b510      	push	{r4, lr}
 80007a4:	68d9      	ldr	r1, [r3, #12]
 80007a6:	1c0a      	adds	r2, r1, #0
 80007a8:	17cb      	asrs	r3, r1, #31
 80007aa:	d105      	bne.n	80007b8 <_ZN12_GLOBAL__N_110zapp1_impl15update_lon_msg1Ev+0x18>
 80007ac:	4813      	ldr	r0, [pc, #76]	; (80007fc <_ZN12_GLOBAL__N_110zapp1_impl15update_lon_msg1Ev+0x5c>)
 80007ae:	4281      	cmp	r1, r0
 80007b0:	d902      	bls.n	80007b8 <_ZN12_GLOBAL__N_110zapp1_impl15update_lon_msg1Ev+0x18>
 80007b2:	490e      	ldr	r1, [pc, #56]	; (80007ec <_ZN12_GLOBAL__N_110zapp1_impl15update_lon_msg1Ev+0x4c>)
 80007b4:	480c      	ldr	r0, [pc, #48]	; (80007e8 <_ZN12_GLOBAL__N_110zapp1_impl15update_lon_msg1Ev+0x48>)
 80007b6:	e008      	b.n	80007ca <_ZN12_GLOBAL__N_110zapp1_impl15update_lon_msg1Ev+0x2a>
 80007b8:	1c59      	adds	r1, r3, #1
 80007ba:	db04      	blt.n	80007c6 <_ZN12_GLOBAL__N_110zapp1_impl15update_lon_msg1Ev+0x26>
 80007bc:	1c59      	adds	r1, r3, #1
 80007be:	d106      	bne.n	80007ce <_ZN12_GLOBAL__N_110zapp1_impl15update_lon_msg1Ev+0x2e>
 80007c0:	4c0f      	ldr	r4, [pc, #60]	; (8000800 <_ZN12_GLOBAL__N_110zapp1_impl15update_lon_msg1Ev+0x60>)
 80007c2:	42a2      	cmp	r2, r4
 80007c4:	d203      	bcs.n	80007ce <_ZN12_GLOBAL__N_110zapp1_impl15update_lon_msg1Ev+0x2e>
 80007c6:	480a      	ldr	r0, [pc, #40]	; (80007f0 <_ZN12_GLOBAL__N_110zapp1_impl15update_lon_msg1Ev+0x50>)
 80007c8:	490a      	ldr	r1, [pc, #40]	; (80007f4 <_ZN12_GLOBAL__N_110zapp1_impl15update_lon_msg1Ev+0x54>)
 80007ca:	1812      	adds	r2, r2, r0
 80007cc:	414b      	adcs	r3, r1
 80007ce:	4c0d      	ldr	r4, [pc, #52]	; (8000804 <_ZN12_GLOBAL__N_110zapp1_impl15update_lon_msg1Ev+0x64>)
 80007d0:	1c11      	adds	r1, r2, #0
 80007d2:	341f      	adds	r4, #31
 80007d4:	1c20      	adds	r0, r4, #0
 80007d6:	f7ff ff4f 	bl	8000678 <_ZN12_GLOBAL__N_110zapp1_impl14create_messageIlE6assignERKl.isra.0>
 80007da:	1c20      	adds	r0, r4, #0
 80007dc:	2102      	movs	r1, #2
 80007de:	2201      	movs	r2, #1
 80007e0:	f7ff ff68 	bl	80006b4 <_ZN12_GLOBAL__N_110zapp1_impl12esc_write_spEPcsb>
 80007e4:	bd10      	pop	{r4, pc}
 80007e6:	46c0      	nop			; (mov r8, r8)
 80007e8:	296c5c00 	.word	0x296c5c00
 80007ec:	ffffffff 	.word	0xffffffff
 80007f0:	d693a400 	.word	0xd693a400
 80007f4:	00000000 	.word	0x00000000
 80007f8:	20000530 	.word	0x20000530
 80007fc:	6b49d200 	.word	0x6b49d200
 8000800:	94b62e01 	.word	0x94b62e01
 8000804:	20000500 	.word	0x20000500

08000808 <_ZN12_GLOBAL__N_110zapp1_impl15update_lat_msg3Ev>:
 8000808:	b508      	push	{r3, lr}
 800080a:	4803      	ldr	r0, [pc, #12]	; (8000818 <_ZN12_GLOBAL__N_110zapp1_impl15update_lat_msg3Ev+0x10>)
 800080c:	2103      	movs	r1, #3
 800080e:	302a      	adds	r0, #42	; 0x2a
 8000810:	2200      	movs	r2, #0
 8000812:	f7ff ff4f 	bl	80006b4 <_ZN12_GLOBAL__N_110zapp1_impl12esc_write_spEPcsb>
 8000816:	bd08      	pop	{r3, pc}
 8000818:	20000500 	.word	0x20000500

0800081c <_ZN12_GLOBAL__N_110zapp1_impl15update_lat_msg2Ev>:
 800081c:	b508      	push	{r3, lr}
 800081e:	4803      	ldr	r0, [pc, #12]	; (800082c <_ZN12_GLOBAL__N_110zapp1_impl15update_lat_msg2Ev+0x10>)
 8000820:	2102      	movs	r1, #2
 8000822:	3028      	adds	r0, #40	; 0x28
 8000824:	2200      	movs	r2, #0
 8000826:	f7ff ff45 	bl	80006b4 <_ZN12_GLOBAL__N_110zapp1_impl12esc_write_spEPcsb>
 800082a:	bd08      	pop	{r3, pc}
 800082c:	20000500 	.word	0x20000500

08000830 <_ZN12_GLOBAL__N_110zapp1_impl15update_lat_msg1Ev>:
 8000830:	4b15      	ldr	r3, [pc, #84]	; (8000888 <_ZN12_GLOBAL__N_110zapp1_impl15update_lat_msg1Ev+0x58>)
 8000832:	b510      	push	{r4, lr}
 8000834:	6899      	ldr	r1, [r3, #8]
 8000836:	1c0a      	adds	r2, r1, #0
 8000838:	17cb      	asrs	r3, r1, #31
 800083a:	d105      	bne.n	8000848 <_ZN12_GLOBAL__N_110zapp1_impl15update_lat_msg1Ev+0x18>
 800083c:	4813      	ldr	r0, [pc, #76]	; (800088c <_ZN12_GLOBAL__N_110zapp1_impl15update_lat_msg1Ev+0x5c>)
 800083e:	4281      	cmp	r1, r0
 8000840:	d902      	bls.n	8000848 <_ZN12_GLOBAL__N_110zapp1_impl15update_lat_msg1Ev+0x18>
 8000842:	490e      	ldr	r1, [pc, #56]	; (800087c <_ZN12_GLOBAL__N_110zapp1_impl15update_lat_msg1Ev+0x4c>)
 8000844:	480c      	ldr	r0, [pc, #48]	; (8000878 <_ZN12_GLOBAL__N_110zapp1_impl15update_lat_msg1Ev+0x48>)
 8000846:	e008      	b.n	800085a <_ZN12_GLOBAL__N_110zapp1_impl15update_lat_msg1Ev+0x2a>
 8000848:	1c59      	adds	r1, r3, #1
 800084a:	db04      	blt.n	8000856 <_ZN12_GLOBAL__N_110zapp1_impl15update_lat_msg1Ev+0x26>
 800084c:	1c59      	adds	r1, r3, #1
 800084e:	d106      	bne.n	800085e <_ZN12_GLOBAL__N_110zapp1_impl15update_lat_msg1Ev+0x2e>
 8000850:	4c0f      	ldr	r4, [pc, #60]	; (8000890 <_ZN12_GLOBAL__N_110zapp1_impl15update_lat_msg1Ev+0x60>)
 8000852:	42a2      	cmp	r2, r4
 8000854:	d203      	bcs.n	800085e <_ZN12_GLOBAL__N_110zapp1_impl15update_lat_msg1Ev+0x2e>
 8000856:	480a      	ldr	r0, [pc, #40]	; (8000880 <_ZN12_GLOBAL__N_110zapp1_impl15update_lat_msg1Ev+0x50>)
 8000858:	490a      	ldr	r1, [pc, #40]	; (8000884 <_ZN12_GLOBAL__N_110zapp1_impl15update_lat_msg1Ev+0x54>)
 800085a:	1812      	adds	r2, r2, r0
 800085c:	414b      	adcs	r3, r1
 800085e:	4c0d      	ldr	r4, [pc, #52]	; (8000894 <_ZN12_GLOBAL__N_110zapp1_impl15update_lat_msg1Ev+0x64>)
 8000860:	1c11      	adds	r1, r2, #0
 8000862:	3426      	adds	r4, #38	; 0x26
 8000864:	1c20      	adds	r0, r4, #0
 8000866:	f7ff ff07 	bl	8000678 <_ZN12_GLOBAL__N_110zapp1_impl14create_messageIlE6assignERKl.isra.0>
 800086a:	1c20      	adds	r0, r4, #0
 800086c:	2102      	movs	r1, #2
 800086e:	2201      	movs	r2, #1
 8000870:	f7ff ff20 	bl	80006b4 <_ZN12_GLOBAL__N_110zapp1_impl12esc_write_spEPcsb>
 8000874:	bd10      	pop	{r4, pc}
 8000876:	46c0      	nop			; (mov r8, r8)
 8000878:	296c5c00 	.word	0x296c5c00
 800087c:	ffffffff 	.word	0xffffffff
 8000880:	d693a400 	.word	0xd693a400
 8000884:	00000000 	.word	0x00000000
 8000888:	20000530 	.word	0x20000530
 800088c:	6b49d200 	.word	0x6b49d200
 8000890:	94b62e01 	.word	0x94b62e01
 8000894:	20000500 	.word	0x20000500

08000898 <crc_accumulate>:
 8000898:	880b      	ldrh	r3, [r1, #0]
 800089a:	b510      	push	{r4, lr}
 800089c:	4058      	eors	r0, r3
 800089e:	b2c0      	uxtb	r0, r0
 80008a0:	0102      	lsls	r2, r0, #4
 80008a2:	4050      	eors	r0, r2
 80008a4:	b2c0      	uxtb	r0, r0
 80008a6:	00c2      	lsls	r2, r0, #3
 80008a8:	0204      	lsls	r4, r0, #8
 80008aa:	4054      	eors	r4, r2
 80008ac:	121a      	asrs	r2, r3, #8
 80008ae:	1c23      	adds	r3, r4, #0
 80008b0:	4053      	eors	r3, r2
 80008b2:	1104      	asrs	r4, r0, #4
 80008b4:	1c18      	adds	r0, r3, #0
 80008b6:	4060      	eors	r0, r4
 80008b8:	8008      	strh	r0, [r1, #0]
 80008ba:	bd10      	pop	{r4, pc}

080008bc <_Z18get_num_heartbeatsv>:
 80008bc:	4b01      	ldr	r3, [pc, #4]	; (80008c4 <_Z18get_num_heartbeatsv+0x8>)
 80008be:	6818      	ldr	r0, [r3, #0]
 80008c0:	4770      	bx	lr
 80008c2:	46c0      	nop			; (mov r8, r8)
 80008c4:	20000588 	.word	0x20000588

080008c8 <comm_send_ch>:
 80008c8:	b537      	push	{r0, r1, r2, r4, r5, lr}
 80008ca:	4c08      	ldr	r4, [pc, #32]	; (80008ec <comm_send_ch+0x24>)
 80008cc:	466b      	mov	r3, sp
 80008ce:	71d9      	strb	r1, [r3, #7]
 80008d0:	6822      	ldr	r2, [r4, #0]
 80008d2:	2580      	movs	r5, #128	; 0x80
 80008d4:	43aa      	bics	r2, r5
 80008d6:	3307      	adds	r3, #7
 80008d8:	6022      	str	r2, [r4, #0]
 80008da:	1c19      	adds	r1, r3, #0
 80008dc:	4804      	ldr	r0, [pc, #16]	; (80008f0 <comm_send_ch+0x28>)
 80008de:	f001 f90e 	bl	8001afe <_ZN4quan4fifoIcLi200ELb1EE3putERKc>
 80008e2:	6820      	ldr	r0, [r4, #0]
 80008e4:	4305      	orrs	r5, r0
 80008e6:	6025      	str	r5, [r4, #0]
 80008e8:	bd37      	pop	{r0, r1, r2, r4, r5, pc}
 80008ea:	46c0      	nop			; (mov r8, r8)
 80008ec:	40013800 	.word	0x40013800
 80008f0:	200006e0 	.word	0x200006e0

080008f4 <_mavlink_send_uart.isra.33>:
 80008f4:	b5f0      	push	{r4, r5, r6, r7, lr}
 80008f6:	b085      	sub	sp, #20
 80008f8:	1c06      	adds	r6, r0, #0
 80008fa:	9101      	str	r1, [sp, #4]
 80008fc:	1c04      	adds	r4, r0, #0
 80008fe:	1ba3      	subs	r3, r4, r6
 8000900:	9a01      	ldr	r2, [sp, #4]
 8000902:	b298      	uxth	r0, r3
 8000904:	4290      	cmp	r0, r2
 8000906:	d210      	bcs.n	800092a <_mavlink_send_uart.isra.33+0x36>
 8000908:	7825      	ldrb	r5, [r4, #0]
 800090a:	4669      	mov	r1, sp
 800090c:	310f      	adds	r1, #15
 800090e:	700d      	strb	r5, [r1, #0]
 8000910:	4d07      	ldr	r5, [pc, #28]	; (8000930 <_mavlink_send_uart.isra.33+0x3c>)
 8000912:	2780      	movs	r7, #128	; 0x80
 8000914:	682b      	ldr	r3, [r5, #0]
 8000916:	4807      	ldr	r0, [pc, #28]	; (8000934 <_mavlink_send_uart.isra.33+0x40>)
 8000918:	43bb      	bics	r3, r7
 800091a:	602b      	str	r3, [r5, #0]
 800091c:	f001 f8ef 	bl	8001afe <_ZN4quan4fifoIcLi200ELb1EE3putERKc>
 8000920:	6829      	ldr	r1, [r5, #0]
 8000922:	3401      	adds	r4, #1
 8000924:	430f      	orrs	r7, r1
 8000926:	602f      	str	r7, [r5, #0]
 8000928:	e7e9      	b.n	80008fe <_mavlink_send_uart.isra.33+0xa>
 800092a:	b005      	add	sp, #20
 800092c:	bdf0      	pop	{r4, r5, r6, r7, pc}
 800092e:	46c0      	nop			; (mov r8, r8)
 8000930:	40013800 	.word	0x40013800
 8000934:	200006e0 	.word	0x200006e0

08000938 <_Z12read_mavlinkv>:
 8000938:	b5f0      	push	{r4, r5, r6, r7, lr}
 800093a:	b0d7      	sub	sp, #348	; 0x15c
 800093c:	4abd      	ldr	r2, [pc, #756]	; (8000c34 <_Z12read_mavlinkv+0x2fc>)
 800093e:	2120      	movs	r1, #32
 8000940:	6813      	ldr	r3, [r2, #0]
 8000942:	4cbd      	ldr	r4, [pc, #756]	; (8000c38 <_Z12read_mavlinkv+0x300>)
 8000944:	438b      	bics	r3, r1
 8000946:	6013      	str	r3, [r2, #0]
 8000948:	6860      	ldr	r0, [r4, #4]
 800094a:	2800      	cmp	r0, #0
 800094c:	d010      	beq.n	8000970 <_Z12read_mavlinkv+0x38>
 800094e:	6825      	ldr	r5, [r4, #0]
 8000950:	2d00      	cmp	r5, #0
 8000952:	d00f      	beq.n	8000974 <_Z12read_mavlinkv+0x3c>
 8000954:	6826      	ldr	r6, [r4, #0]
 8000956:	6863      	ldr	r3, [r4, #4]
 8000958:	429e      	cmp	r6, r3
 800095a:	d903      	bls.n	8000964 <_Z12read_mavlinkv+0x2c>
 800095c:	6825      	ldr	r5, [r4, #0]
 800095e:	6866      	ldr	r6, [r4, #4]
 8000960:	1bab      	subs	r3, r5, r6
 8000962:	e008      	b.n	8000976 <_Z12read_mavlinkv+0x3e>
 8000964:	6820      	ldr	r0, [r4, #0]
 8000966:	6861      	ldr	r1, [r4, #4]
 8000968:	1c04      	adds	r4, r0, #0
 800096a:	34c8      	adds	r4, #200	; 0xc8
 800096c:	1a63      	subs	r3, r4, r1
 800096e:	e002      	b.n	8000976 <_Z12read_mavlinkv+0x3e>
 8000970:	1c03      	adds	r3, r0, #0
 8000972:	e000      	b.n	8000976 <_Z12read_mavlinkv+0x3e>
 8000974:	23c8      	movs	r3, #200	; 0xc8
 8000976:	6814      	ldr	r4, [r2, #0]
 8000978:	2120      	movs	r1, #32
 800097a:	430c      	orrs	r4, r1
 800097c:	48ad      	ldr	r0, [pc, #692]	; (8000c34 <_Z12read_mavlinkv+0x2fc>)
 800097e:	6014      	str	r4, [r2, #0]
 8000980:	2b00      	cmp	r3, #0
 8000982:	d100      	bne.n	8000986 <_Z12read_mavlinkv+0x4e>
 8000984:	e20c      	b.n	8000da0 <_Z12read_mavlinkv+0x468>
 8000986:	6803      	ldr	r3, [r0, #0]
 8000988:	4eab      	ldr	r6, [pc, #684]	; (8000c38 <_Z12read_mavlinkv+0x300>)
 800098a:	438b      	bics	r3, r1
 800098c:	6003      	str	r3, [r0, #0]
 800098e:	6875      	ldr	r5, [r6, #4]
 8000990:	1c31      	adds	r1, r6, #0
 8000992:	2d00      	cmp	r5, #0
 8000994:	d017      	beq.n	80009c6 <_Z12read_mavlinkv+0x8e>
 8000996:	6870      	ldr	r0, [r6, #4]
 8000998:	6834      	ldr	r4, [r6, #0]
 800099a:	7805      	ldrb	r5, [r0, #0]
 800099c:	2c00      	cmp	r4, #0
 800099e:	d101      	bne.n	80009a4 <_Z12read_mavlinkv+0x6c>
 80009a0:	6873      	ldr	r3, [r6, #4]
 80009a2:	6033      	str	r3, [r6, #0]
 80009a4:	6870      	ldr	r0, [r6, #4]
 80009a6:	1c0b      	adds	r3, r1, #0
 80009a8:	3001      	adds	r0, #1
 80009aa:	6070      	str	r0, [r6, #4]
 80009ac:	6874      	ldr	r4, [r6, #4]
 80009ae:	33d0      	adds	r3, #208	; 0xd0
 80009b0:	429c      	cmp	r4, r3
 80009b2:	d101      	bne.n	80009b8 <_Z12read_mavlinkv+0x80>
 80009b4:	3108      	adds	r1, #8
 80009b6:	6071      	str	r1, [r6, #4]
 80009b8:	4e9f      	ldr	r6, [pc, #636]	; (8000c38 <_Z12read_mavlinkv+0x300>)
 80009ba:	6870      	ldr	r0, [r6, #4]
 80009bc:	6831      	ldr	r1, [r6, #0]
 80009be:	4288      	cmp	r0, r1
 80009c0:	d101      	bne.n	80009c6 <_Z12read_mavlinkv+0x8e>
 80009c2:	2400      	movs	r4, #0
 80009c4:	6074      	str	r4, [r6, #4]
 80009c6:	6813      	ldr	r3, [r2, #0]
 80009c8:	2620      	movs	r6, #32
 80009ca:	4c9c      	ldr	r4, [pc, #624]	; (8000c3c <_Z12read_mavlinkv+0x304>)
 80009cc:	4333      	orrs	r3, r6
 80009ce:	6013      	str	r3, [r2, #0]
 80009d0:	79e0      	ldrb	r0, [r4, #7]
 80009d2:	2200      	movs	r2, #0
 80009d4:	7122      	strb	r2, [r4, #4]
 80009d6:	1c26      	adds	r6, r4, #0
 80009d8:	2809      	cmp	r0, #9
 80009da:	d900      	bls.n	80009de <_Z12read_mavlinkv+0xa6>
 80009dc:	e0a1      	b.n	8000b22 <_Z12read_mavlinkv+0x1ea>
 80009de:	f000 fa9d 	bl	8000f1c <__gnu_thumb1_case_uqi>
 80009e2:	0505      	.short	0x0505
 80009e4:	2818200e 	.word	0x2818200e
 80009e8:	694b3b30 	.word	0x694b3b30
 80009ec:	2dfe      	cmp	r5, #254	; 0xfe
 80009ee:	d000      	beq.n	80009f2 <_Z12read_mavlinkv+0xba>
 80009f0:	e097      	b.n	8000b22 <_Z12read_mavlinkv+0x1ea>
 80009f2:	2302      	movs	r3, #2
 80009f4:	2200      	movs	r2, #0
 80009f6:	71e3      	strb	r3, [r4, #7]
 80009f8:	74e2      	strb	r2, [r4, #19]
 80009fa:	74a5      	strb	r5, [r4, #18]
 80009fc:	e050      	b.n	8000aa0 <_Z12read_mavlinkv+0x168>
 80009fe:	2100      	movs	r1, #0
 8000a00:	7221      	strb	r1, [r4, #8]
 8000a02:	1c21      	adds	r1, r4, #0
 8000a04:	3110      	adds	r1, #16
 8000a06:	74e5      	strb	r5, [r4, #19]
 8000a08:	1c28      	adds	r0, r5, #0
 8000a0a:	f7ff ff45 	bl	8000898 <crc_accumulate>
 8000a0e:	2104      	movs	r1, #4
 8000a10:	e05a      	b.n	8000ac8 <_Z12read_mavlinkv+0x190>
 8000a12:	1c21      	adds	r1, r4, #0
 8000a14:	3110      	adds	r1, #16
 8000a16:	7525      	strb	r5, [r4, #20]
 8000a18:	1c28      	adds	r0, r5, #0
 8000a1a:	f7ff ff3d 	bl	8000898 <crc_accumulate>
 8000a1e:	2103      	movs	r1, #3
 8000a20:	e052      	b.n	8000ac8 <_Z12read_mavlinkv+0x190>
 8000a22:	1c21      	adds	r1, r4, #0
 8000a24:	3110      	adds	r1, #16
 8000a26:	7565      	strb	r5, [r4, #21]
 8000a28:	1c28      	adds	r0, r5, #0
 8000a2a:	f7ff ff35 	bl	8000898 <crc_accumulate>
 8000a2e:	2105      	movs	r1, #5
 8000a30:	e04a      	b.n	8000ac8 <_Z12read_mavlinkv+0x190>
 8000a32:	1c21      	adds	r1, r4, #0
 8000a34:	3110      	adds	r1, #16
 8000a36:	75a5      	strb	r5, [r4, #22]
 8000a38:	1c28      	adds	r0, r5, #0
 8000a3a:	f7ff ff2d 	bl	8000898 <crc_accumulate>
 8000a3e:	2106      	movs	r1, #6
 8000a40:	e042      	b.n	8000ac8 <_Z12read_mavlinkv+0x190>
 8000a42:	1c21      	adds	r1, r4, #0
 8000a44:	1c28      	adds	r0, r5, #0
 8000a46:	75e5      	strb	r5, [r4, #23]
 8000a48:	3110      	adds	r1, #16
 8000a4a:	f7ff ff25 	bl	8000898 <crc_accumulate>
 8000a4e:	7ce0      	ldrb	r0, [r4, #19]
 8000a50:	2800      	cmp	r0, #0
 8000a52:	d00f      	beq.n	8000a74 <_Z12read_mavlinkv+0x13c>
 8000a54:	2107      	movs	r1, #7
 8000a56:	e037      	b.n	8000ac8 <_Z12read_mavlinkv+0x190>
 8000a58:	7a21      	ldrb	r1, [r4, #8]
 8000a5a:	1c28      	adds	r0, r5, #0
 8000a5c:	1863      	adds	r3, r4, r1
 8000a5e:	3101      	adds	r1, #1
 8000a60:	7221      	strb	r1, [r4, #8]
 8000a62:	1c21      	adds	r1, r4, #0
 8000a64:	761d      	strb	r5, [r3, #24]
 8000a66:	3110      	adds	r1, #16
 8000a68:	f7ff ff16 	bl	8000898 <crc_accumulate>
 8000a6c:	7a22      	ldrb	r2, [r4, #8]
 8000a6e:	7ce6      	ldrb	r6, [r4, #19]
 8000a70:	42b2      	cmp	r2, r6
 8000a72:	d156      	bne.n	8000b22 <_Z12read_mavlinkv+0x1ea>
 8000a74:	2108      	movs	r1, #8
 8000a76:	e027      	b.n	8000ac8 <_Z12read_mavlinkv+0x190>
 8000a78:	4971      	ldr	r1, [pc, #452]	; (8000c40 <_Z12read_mavlinkv+0x308>)
 8000a7a:	7de0      	ldrb	r0, [r4, #23]
 8000a7c:	5c08      	ldrb	r0, [r1, r0]
 8000a7e:	1c21      	adds	r1, r4, #0
 8000a80:	3110      	adds	r1, #16
 8000a82:	f7ff ff09 	bl	8000898 <crc_accumulate>
 8000a86:	7c23      	ldrb	r3, [r4, #16]
 8000a88:	429d      	cmp	r5, r3
 8000a8a:	d00d      	beq.n	8000aa8 <_Z12read_mavlinkv+0x170>
 8000a8c:	79a0      	ldrb	r0, [r4, #6]
 8000a8e:	2200      	movs	r2, #0
 8000a90:	3001      	adds	r0, #1
 8000a92:	71a0      	strb	r0, [r4, #6]
 8000a94:	7122      	strb	r2, [r4, #4]
 8000a96:	2dfe      	cmp	r5, #254	; 0xfe
 8000a98:	d115      	bne.n	8000ac6 <_Z12read_mavlinkv+0x18e>
 8000a9a:	2502      	movs	r5, #2
 8000a9c:	71e5      	strb	r5, [r4, #7]
 8000a9e:	74e2      	strb	r2, [r4, #19]
 8000aa0:	2501      	movs	r5, #1
 8000aa2:	426e      	negs	r6, r5
 8000aa4:	8226      	strh	r6, [r4, #16]
 8000aa6:	e03c      	b.n	8000b22 <_Z12read_mavlinkv+0x1ea>
 8000aa8:	2209      	movs	r2, #9
 8000aaa:	71e2      	strb	r2, [r4, #7]
 8000aac:	7a24      	ldrb	r4, [r4, #8]
 8000aae:	1936      	adds	r6, r6, r4
 8000ab0:	7635      	strb	r5, [r6, #24]
 8000ab2:	e036      	b.n	8000b22 <_Z12read_mavlinkv+0x1ea>
 8000ab4:	8a20      	ldrh	r0, [r4, #16]
 8000ab6:	1201      	asrs	r1, r0, #8
 8000ab8:	428d      	cmp	r5, r1
 8000aba:	d00b      	beq.n	8000ad4 <_Z12read_mavlinkv+0x19c>
 8000abc:	79a0      	ldrb	r0, [r4, #6]
 8000abe:	3001      	adds	r0, #1
 8000ac0:	71a0      	strb	r0, [r4, #6]
 8000ac2:	2dfe      	cmp	r5, #254	; 0xfe
 8000ac4:	d002      	beq.n	8000acc <_Z12read_mavlinkv+0x194>
 8000ac6:	2101      	movs	r1, #1
 8000ac8:	71e1      	strb	r1, [r4, #7]
 8000aca:	e02a      	b.n	8000b22 <_Z12read_mavlinkv+0x1ea>
 8000acc:	2302      	movs	r3, #2
 8000ace:	71e3      	strb	r3, [r4, #7]
 8000ad0:	2200      	movs	r2, #0
 8000ad2:	e7e4      	b.n	8000a9e <_Z12read_mavlinkv+0x166>
 8000ad4:	7a23      	ldrb	r3, [r4, #8]
 8000ad6:	2701      	movs	r7, #1
 8000ad8:	18e2      	adds	r2, r4, r3
 8000ada:	7655      	strb	r5, [r2, #25]
 8000adc:	1c21      	adds	r1, r4, #0
 8000ade:	2588      	movs	r5, #136	; 0x88
 8000ae0:	7127      	strb	r7, [r4, #4]
 8000ae2:	71e7      	strb	r7, [r4, #7]
 8000ae4:	006a      	lsls	r2, r5, #1
 8000ae6:	3110      	adds	r1, #16
 8000ae8:	a812      	add	r0, sp, #72	; 0x48
 8000aea:	f001 fb59 	bl	80021a0 <memcpy>
 8000aee:	7d60      	ldrb	r0, [r4, #21]
 8000af0:	8da2      	ldrh	r2, [r4, #44]	; 0x2c
 8000af2:	9003      	str	r0, [sp, #12]
 8000af4:	7da1      	ldrb	r1, [r4, #22]
 8000af6:	6a23      	ldr	r3, [r4, #32]
 8000af8:	9102      	str	r1, [sp, #8]
 8000afa:	7de7      	ldrb	r7, [r4, #23]
 8000afc:	8de5      	ldrh	r5, [r4, #46]	; 0x2e
 8000afe:	1c31      	adds	r1, r6, #0
 8000b00:	9209      	str	r2, [sp, #36]	; 0x24
 8000b02:	1c32      	adds	r2, r6, #0
 8000b04:	3134      	adds	r1, #52	; 0x34
 8000b06:	3235      	adds	r2, #53	; 0x35
 8000b08:	3636      	adds	r6, #54	; 0x36
 8000b0a:	8e20      	ldrh	r0, [r4, #48]	; 0x30
 8000b0c:	9301      	str	r3, [sp, #4]
 8000b0e:	950b      	str	r5, [sp, #44]	; 0x2c
 8000b10:	8e64      	ldrh	r4, [r4, #50]	; 0x32
 8000b12:	780b      	ldrb	r3, [r1, #0]
 8000b14:	7815      	ldrb	r5, [r2, #0]
 8000b16:	7836      	ldrb	r6, [r6, #0]
 8000b18:	9008      	str	r0, [sp, #32]
 8000b1a:	940a      	str	r4, [sp, #40]	; 0x28
 8000b1c:	9307      	str	r3, [sp, #28]
 8000b1e:	9504      	str	r5, [sp, #16]
 8000b20:	9605      	str	r6, [sp, #20]
 8000b22:	4b46      	ldr	r3, [pc, #280]	; (8000c3c <_Z12read_mavlinkv+0x304>)
 8000b24:	7918      	ldrb	r0, [r3, #4]
 8000b26:	2801      	cmp	r0, #1
 8000b28:	d107      	bne.n	8000b3a <_Z12read_mavlinkv+0x202>
 8000b2a:	7d1c      	ldrb	r4, [r3, #20]
 8000b2c:	8999      	ldrh	r1, [r3, #12]
 8000b2e:	725c      	strb	r4, [r3, #9]
 8000b30:	2900      	cmp	r1, #0
 8000b32:	d100      	bne.n	8000b36 <_Z12read_mavlinkv+0x1fe>
 8000b34:	81d9      	strh	r1, [r3, #14]
 8000b36:	3101      	adds	r1, #1
 8000b38:	8199      	strh	r1, [r3, #12]
 8000b3a:	799a      	ldrb	r2, [r3, #6]
 8000b3c:	2500      	movs	r5, #0
 8000b3e:	9206      	str	r2, [sp, #24]
 8000b40:	719d      	strb	r5, [r3, #6]
 8000b42:	42a8      	cmp	r0, r5
 8000b44:	d100      	bne.n	8000b48 <_Z12read_mavlinkv+0x210>
 8000b46:	e6f9      	b.n	800093c <_Z12read_mavlinkv+0x4>
 8000b48:	4e3e      	ldr	r6, [pc, #248]	; (8000c44 <_Z12read_mavlinkv+0x30c>)
 8000b4a:	2001      	movs	r0, #1
 8000b4c:	1c74      	adds	r4, r6, #1
 8000b4e:	77e0      	strb	r0, [r4, #31]
 8000b50:	2f18      	cmp	r7, #24
 8000b52:	d100      	bne.n	8000b56 <_Z12read_mavlinkv+0x21e>
 8000b54:	e0aa      	b.n	8000cac <_Z12read_mavlinkv+0x374>
 8000b56:	d815      	bhi.n	8000b84 <_Z12read_mavlinkv+0x24c>
 8000b58:	2f00      	cmp	r7, #0
 8000b5a:	d01a      	beq.n	8000b92 <_Z12read_mavlinkv+0x25a>
 8000b5c:	4287      	cmp	r7, r0
 8000b5e:	d000      	beq.n	8000b62 <_Z12read_mavlinkv+0x22a>
 8000b60:	e6ec      	b.n	800093c <_Z12read_mavlinkv+0x4>
 8000b62:	466b      	mov	r3, sp
 8000b64:	335e      	adds	r3, #94	; 0x5e
 8000b66:	8818      	ldrh	r0, [r3, #0]
 8000b68:	f000 fe62 	bl	8001830 <__aeabi_ui2f>
 8000b6c:	4936      	ldr	r1, [pc, #216]	; (8000c48 <_Z12read_mavlinkv+0x310>)
 8000b6e:	f000 fac9 	bl	8001104 <__aeabi_fdiv>
 8000b72:	4d36      	ldr	r5, [pc, #216]	; (8000c4c <_Z12read_mavlinkv+0x314>)
 8000b74:	4669      	mov	r1, sp
 8000b76:	2214      	movs	r2, #20
 8000b78:	63e8      	str	r0, [r5, #60]	; 0x3c
 8000b7a:	5650      	ldrsb	r0, [r2, r1]
 8000b7c:	f000 fe04 	bl	8001788 <__aeabi_i2f>
 8000b80:	6468      	str	r0, [r5, #68]	; 0x44
 8000b82:	e6db      	b.n	800093c <_Z12read_mavlinkv+0x4>
 8000b84:	2f1e      	cmp	r7, #30
 8000b86:	d100      	bne.n	8000b8a <_Z12read_mavlinkv+0x252>
 8000b88:	e0f0      	b.n	8000d6c <_Z12read_mavlinkv+0x434>
 8000b8a:	2f4a      	cmp	r7, #74	; 0x4a
 8000b8c:	d000      	beq.n	8000b90 <_Z12read_mavlinkv+0x258>
 8000b8e:	e6d5      	b.n	800093c <_Z12read_mavlinkv+0x4>
 8000b90:	e0b2      	b.n	8000cf8 <_Z12read_mavlinkv+0x3c0>
 8000b92:	4668      	mov	r0, sp
 8000b94:	240c      	movs	r4, #12
 8000b96:	5c21      	ldrb	r1, [r4, r0]
 8000b98:	1cb5      	adds	r5, r6, #2
 8000b9a:	77e9      	strb	r1, [r5, #31]
 8000b9c:	2008      	movs	r0, #8
 8000b9e:	466d      	mov	r5, sp
 8000ba0:	5d44      	ldrb	r4, [r0, r5]
 8000ba2:	1cf2      	adds	r2, r6, #3
 8000ba4:	77d4      	strb	r4, [r2, #31]
 8000ba6:	aa15      	add	r2, sp, #84	; 0x54
 8000ba8:	7815      	ldrb	r5, [r2, #0]
 8000baa:	1d31      	adds	r1, r6, #4
 8000bac:	77cd      	strb	r5, [r1, #31]
 8000bae:	4927      	ldr	r1, [pc, #156]	; (8000c4c <_Z12read_mavlinkv+0x314>)
 8000bb0:	681d      	ldr	r5, [r3, #0]
 8000bb2:	ac14      	add	r4, sp, #80	; 0x50
 8000bb4:	3605      	adds	r6, #5
 8000bb6:	1c08      	adds	r0, r1, #0
 8000bb8:	7822      	ldrb	r2, [r4, #0]
 8000bba:	7ff6      	ldrb	r6, [r6, #31]
 8000bbc:	304e      	adds	r0, #78	; 0x4e
 8000bbe:	314c      	adds	r1, #76	; 0x4c
 8000bc0:	3501      	adds	r5, #1
 8000bc2:	7002      	strb	r2, [r0, #0]
 8000bc4:	800f      	strh	r7, [r1, #0]
 8000bc6:	601d      	str	r5, [r3, #0]
 8000bc8:	2e00      	cmp	r6, #0
 8000bca:	d000      	beq.n	8000bce <_Z12read_mavlinkv+0x296>
 8000bcc:	e6b6      	b.n	800093c <_Z12read_mavlinkv+0x4>
 8000bce:	1c3d      	adds	r5, r7, #0
 8000bd0:	481f      	ldr	r0, [pc, #124]	; (8000c50 <_Z12read_mavlinkv+0x318>)
 8000bd2:	ab0e      	add	r3, sp, #56	; 0x38
 8000bd4:	1944      	adds	r4, r0, r5
 8000bd6:	8862      	ldrh	r2, [r4, #2]
 8000bd8:	5c29      	ldrb	r1, [r5, r0]
 8000bda:	466e      	mov	r6, sp
 8000bdc:	200c      	movs	r0, #12
 8000bde:	801a      	strh	r2, [r3, #0]
 8000be0:	5d84      	ldrb	r4, [r0, r6]
 8000be2:	466a      	mov	r2, sp
 8000be4:	2608      	movs	r6, #8
 8000be6:	5cb0      	ldrb	r0, [r6, r2]
 8000be8:	7119      	strb	r1, [r3, #4]
 8000bea:	2101      	movs	r1, #1
 8000bec:	709c      	strb	r4, [r3, #2]
 8000bee:	70d8      	strb	r0, [r3, #3]
 8000bf0:	7159      	strb	r1, [r3, #5]
 8000bf2:	4e12      	ldr	r6, [pc, #72]	; (8000c3c <_Z12read_mavlinkv+0x304>)
 8000bf4:	ab10      	add	r3, sp, #64	; 0x40
 8000bf6:	24fe      	movs	r4, #254	; 0xfe
 8000bf8:	2206      	movs	r2, #6
 8000bfa:	701c      	strb	r4, [r3, #0]
 8000bfc:	705a      	strb	r2, [r3, #1]
 8000bfe:	7ab1      	ldrb	r1, [r6, #10]
 8000c00:	4814      	ldr	r0, [pc, #80]	; (8000c54 <_Z12read_mavlinkv+0x31c>)
 8000c02:	7099      	strb	r1, [r3, #2]
 8000c04:	7804      	ldrb	r4, [r0, #0]
 8000c06:	3101      	adds	r1, #1
 8000c08:	70dc      	strb	r4, [r3, #3]
 8000c0a:	7842      	ldrb	r2, [r0, #1]
 8000c0c:	2042      	movs	r0, #66	; 0x42
 8000c0e:	711a      	strb	r2, [r3, #4]
 8000c10:	7158      	strb	r0, [r3, #5]
 8000c12:	2301      	movs	r3, #1
 8000c14:	72b1      	strb	r1, [r6, #10]
 8000c16:	425e      	negs	r6, r3
 8000c18:	4669      	mov	r1, sp
 8000c1a:	86ce      	strh	r6, [r1, #54]	; 0x36
 8000c1c:	2600      	movs	r6, #0
 8000c1e:	3601      	adds	r6, #1
 8000c20:	2e06      	cmp	r6, #6
 8000c22:	d019      	beq.n	8000c58 <_Z12read_mavlinkv+0x320>
 8000c24:	a810      	add	r0, sp, #64	; 0x40
 8000c26:	4669      	mov	r1, sp
 8000c28:	5c30      	ldrb	r0, [r6, r0]
 8000c2a:	3136      	adds	r1, #54	; 0x36
 8000c2c:	f7ff fe34 	bl	8000898 <crc_accumulate>
 8000c30:	e7f5      	b.n	8000c1e <_Z12read_mavlinkv+0x2e6>
 8000c32:	46c0      	nop			; (mov r8, r8)
 8000c34:	40013800 	.word	0x40013800
 8000c38:	200007b0 	.word	0x200007b0
 8000c3c:	20000588 	.word	0x20000588
 8000c40:	08002630 	.word	0x08002630
 8000c44:	20000688 	.word	0x20000688
 8000c48:	447a0000 	.word	0x447a0000
 8000c4c:	20000530 	.word	0x20000530
 8000c50:	08002730 	.word	0x08002730
 8000c54:	20000018 	.word	0x20000018
 8000c58:	2400      	movs	r4, #0
 8000c5a:	2238      	movs	r2, #56	; 0x38
 8000c5c:	466e      	mov	r6, sp
 8000c5e:	1910      	adds	r0, r2, r4
 8000c60:	466b      	mov	r3, sp
 8000c62:	3636      	adds	r6, #54	; 0x36
 8000c64:	5cc0      	ldrb	r0, [r0, r3]
 8000c66:	1c31      	adds	r1, r6, #0
 8000c68:	3401      	adds	r4, #1
 8000c6a:	f7ff fe15 	bl	8000898 <crc_accumulate>
 8000c6e:	2c06      	cmp	r4, #6
 8000c70:	d1f3      	bne.n	8000c5a <_Z12read_mavlinkv+0x322>
 8000c72:	1c31      	adds	r1, r6, #0
 8000c74:	2094      	movs	r0, #148	; 0x94
 8000c76:	f7ff fe0f 	bl	8000898 <crc_accumulate>
 8000c7a:	8831      	ldrh	r1, [r6, #0]
 8000c7c:	ae0d      	add	r6, sp, #52	; 0x34
 8000c7e:	120a      	asrs	r2, r1, #8
 8000c80:	7031      	strb	r1, [r6, #0]
 8000c82:	a810      	add	r0, sp, #64	; 0x40
 8000c84:	1c21      	adds	r1, r4, #0
 8000c86:	7072      	strb	r2, [r6, #1]
 8000c88:	f7ff fe34 	bl	80008f4 <_mavlink_send_uart.isra.33>
 8000c8c:	a80e      	add	r0, sp, #56	; 0x38
 8000c8e:	1c21      	adds	r1, r4, #0
 8000c90:	f7ff fe30 	bl	80008f4 <_mavlink_send_uart.isra.33>
 8000c94:	3504      	adds	r5, #4
 8000c96:	1c30      	adds	r0, r6, #0
 8000c98:	2102      	movs	r1, #2
 8000c9a:	f7ff fe2b 	bl	80008f4 <_mavlink_send_uart.isra.33>
 8000c9e:	2d18      	cmp	r5, #24
 8000ca0:	d196      	bne.n	8000bd0 <_Z12read_mavlinkv+0x298>
 8000ca2:	4c43      	ldr	r4, [pc, #268]	; (8000db0 <_Z12read_mavlinkv+0x478>)
 8000ca4:	2501      	movs	r5, #1
 8000ca6:	3405      	adds	r4, #5
 8000ca8:	77e5      	strb	r5, [r4, #31]
 8000caa:	e647      	b.n	800093c <_Z12read_mavlinkv+0x4>
 8000cac:	4b41      	ldr	r3, [pc, #260]	; (8000db4 <_Z12read_mavlinkv+0x47c>)
 8000cae:	9d14      	ldr	r5, [sp, #80]	; 0x50
 8000cb0:	9e15      	ldr	r6, [sp, #84]	; 0x54
 8000cb2:	9901      	ldr	r1, [sp, #4]
 8000cb4:	601d      	str	r5, [r3, #0]
 8000cb6:	605e      	str	r6, [r3, #4]
 8000cb8:	9817      	ldr	r0, [sp, #92]	; 0x5c
 8000cba:	466e      	mov	r6, sp
 8000cbc:	2420      	movs	r4, #32
 8000cbe:	5ba5      	ldrh	r5, [r4, r6]
 8000cc0:	9a18      	ldr	r2, [sp, #96]	; 0x60
 8000cc2:	6099      	str	r1, [r3, #8]
 8000cc4:	60d8      	str	r0, [r3, #12]
 8000cc6:	4669      	mov	r1, sp
 8000cc8:	2028      	movs	r0, #40	; 0x28
 8000cca:	2424      	movs	r4, #36	; 0x24
 8000ccc:	615a      	str	r2, [r3, #20]
 8000cce:	821d      	strh	r5, [r3, #16]
 8000cd0:	5b82      	ldrh	r2, [r0, r6]
 8000cd2:	5a65      	ldrh	r5, [r4, r1]
 8000cd4:	466e      	mov	r6, sp
 8000cd6:	202c      	movs	r0, #44	; 0x2c
 8000cd8:	825a      	strh	r2, [r3, #18]
 8000cda:	831d      	strh	r5, [r3, #24]
 8000cdc:	5b82      	ldrh	r2, [r0, r6]
 8000cde:	4669      	mov	r1, sp
 8000ce0:	251c      	movs	r5, #28
 8000ce2:	1c1e      	adds	r6, r3, #0
 8000ce4:	5c69      	ldrb	r1, [r5, r1]
 8000ce6:	835a      	strh	r2, [r3, #26]
 8000ce8:	3650      	adds	r6, #80	; 0x50
 8000cea:	466c      	mov	r4, sp
 8000cec:	2210      	movs	r2, #16
 8000cee:	7031      	strb	r1, [r6, #0]
 8000cf0:	5d16      	ldrb	r6, [r2, r4]
 8000cf2:	334f      	adds	r3, #79	; 0x4f
 8000cf4:	701e      	strb	r6, [r3, #0]
 8000cf6:	e621      	b.n	800093c <_Z12read_mavlinkv+0x4>
 8000cf8:	9b15      	ldr	r3, [sp, #84]	; 0x54
 8000cfa:	9914      	ldr	r1, [sp, #80]	; 0x50
 8000cfc:	4d2d      	ldr	r5, [pc, #180]	; (8000db4 <_Z12read_mavlinkv+0x47c>)
 8000cfe:	aa18      	add	r2, sp, #96	; 0x60
 8000d00:	2400      	movs	r4, #0
 8000d02:	5f10      	ldrsh	r0, [r2, r4]
 8000d04:	63ab      	str	r3, [r5, #56]	; 0x38
 8000d06:	6369      	str	r1, [r5, #52]	; 0x34
 8000d08:	f000 fd3e 	bl	8001788 <__aeabi_i2f>
 8000d0c:	466c      	mov	r4, sp
 8000d0e:	3462      	adds	r4, #98	; 0x62
 8000d10:	6328      	str	r0, [r5, #48]	; 0x30
 8000d12:	8820      	ldrh	r0, [r4, #0]
 8000d14:	f000 fd38 	bl	8001788 <__aeabi_i2f>
 8000d18:	4927      	ldr	r1, [pc, #156]	; (8000db8 <_Z12read_mavlinkv+0x480>)
 8000d1a:	f000 f9f3 	bl	8001104 <__aeabi_fdiv>
 8000d1e:	26fe      	movs	r6, #254	; 0xfe
 8000d20:	05b6      	lsls	r6, r6, #22
 8000d22:	1c31      	adds	r1, r6, #0
 8000d24:	1c04      	adds	r4, r0, #0
 8000d26:	f000 f9d9 	bl	80010dc <__aeabi_fcmpgt>
 8000d2a:	2800      	cmp	r0, #0
 8000d2c:	d008      	beq.n	8000d40 <_Z12read_mavlinkv+0x408>
 8000d2e:	23ff      	movs	r3, #255	; 0xff
 8000d30:	1c20      	adds	r0, r4, #0
 8000d32:	0599      	lsls	r1, r3, #22
 8000d34:	f000 f9be 	bl	80010b4 <__aeabi_fcmplt>
 8000d38:	2800      	cmp	r0, #0
 8000d3a:	d001      	beq.n	8000d40 <_Z12read_mavlinkv+0x408>
 8000d3c:	62ee      	str	r6, [r5, #44]	; 0x2c
 8000d3e:	e011      	b.n	8000d64 <_Z12read_mavlinkv+0x42c>
 8000d40:	1c20      	adds	r0, r4, #0
 8000d42:	2100      	movs	r1, #0
 8000d44:	f000 f9b6 	bl	80010b4 <__aeabi_fcmplt>
 8000d48:	4d1a      	ldr	r5, [pc, #104]	; (8000db4 <_Z12read_mavlinkv+0x47c>)
 8000d4a:	2800      	cmp	r0, #0
 8000d4c:	d108      	bne.n	8000d60 <_Z12read_mavlinkv+0x428>
 8000d4e:	21ff      	movs	r1, #255	; 0xff
 8000d50:	1c20      	adds	r0, r4, #0
 8000d52:	0589      	lsls	r1, r1, #22
 8000d54:	f000 f9c2 	bl	80010dc <__aeabi_fcmpgt>
 8000d58:	2800      	cmp	r0, #0
 8000d5a:	d101      	bne.n	8000d60 <_Z12read_mavlinkv+0x428>
 8000d5c:	62ec      	str	r4, [r5, #44]	; 0x2c
 8000d5e:	e001      	b.n	8000d64 <_Z12read_mavlinkv+0x42c>
 8000d60:	2000      	movs	r0, #0
 8000d62:	62e8      	str	r0, [r5, #44]	; 0x2c
 8000d64:	9a01      	ldr	r2, [sp, #4]
 8000d66:	4c13      	ldr	r4, [pc, #76]	; (8000db4 <_Z12read_mavlinkv+0x47c>)
 8000d68:	64a2      	str	r2, [r4, #72]	; 0x48
 8000d6a:	e5e7      	b.n	800093c <_Z12read_mavlinkv+0x4>
 8000d6c:	4913      	ldr	r1, [pc, #76]	; (8000dbc <_Z12read_mavlinkv+0x484>)
 8000d6e:	9801      	ldr	r0, [sp, #4]
 8000d70:	f000 fbba 	bl	80014e8 <__aeabi_fmul>
 8000d74:	4912      	ldr	r1, [pc, #72]	; (8000dc0 <_Z12read_mavlinkv+0x488>)
 8000d76:	f000 f9c5 	bl	8001104 <__aeabi_fdiv>
 8000d7a:	4e0e      	ldr	r6, [pc, #56]	; (8000db4 <_Z12read_mavlinkv+0x47c>)
 8000d7c:	490f      	ldr	r1, [pc, #60]	; (8000dbc <_Z12read_mavlinkv+0x484>)
 8000d7e:	6230      	str	r0, [r6, #32]
 8000d80:	9815      	ldr	r0, [sp, #84]	; 0x54
 8000d82:	f000 fbb1 	bl	80014e8 <__aeabi_fmul>
 8000d86:	490e      	ldr	r1, [pc, #56]	; (8000dc0 <_Z12read_mavlinkv+0x488>)
 8000d88:	f000 f9bc 	bl	8001104 <__aeabi_fdiv>
 8000d8c:	490b      	ldr	r1, [pc, #44]	; (8000dbc <_Z12read_mavlinkv+0x484>)
 8000d8e:	6270      	str	r0, [r6, #36]	; 0x24
 8000d90:	9817      	ldr	r0, [sp, #92]	; 0x5c
 8000d92:	f000 fba9 	bl	80014e8 <__aeabi_fmul>
 8000d96:	490a      	ldr	r1, [pc, #40]	; (8000dc0 <_Z12read_mavlinkv+0x488>)
 8000d98:	f000 f9b4 	bl	8001104 <__aeabi_fdiv>
 8000d9c:	62b0      	str	r0, [r6, #40]	; 0x28
 8000d9e:	e5cd      	b.n	800093c <_Z12read_mavlinkv+0x4>
 8000da0:	4f03      	ldr	r7, [pc, #12]	; (8000db0 <_Z12read_mavlinkv+0x478>)
 8000da2:	9d06      	ldr	r5, [sp, #24]
 8000da4:	6aba      	ldr	r2, [r7, #40]	; 0x28
 8000da6:	1956      	adds	r6, r2, r5
 8000da8:	62be      	str	r6, [r7, #40]	; 0x28
 8000daa:	b057      	add	sp, #348	; 0x15c
 8000dac:	bdf0      	pop	{r4, r5, r6, r7, pc}
 8000dae:	46c0      	nop			; (mov r8, r8)
 8000db0:	20000688 	.word	0x20000688
 8000db4:	20000530 	.word	0x20000530
 8000db8:	42c80000 	.word	0x42c80000
 8000dbc:	43b40000 	.word	0x43b40000
 8000dc0:	40c90fdb 	.word	0x40c90fdb

08000dc4 <_Z6millisv>:
 8000dc4:	4b01      	ldr	r3, [pc, #4]	; (8000dcc <_Z6millisv+0x8>)
 8000dc6:	6818      	ldr	r0, [r3, #0]
 8000dc8:	4770      	bx	lr
 8000dca:	46c0      	nop			; (mov r8, r8)
 8000dcc:	200006b8 	.word	0x200006b8

08000dd0 <SysTick_Handler>:
 8000dd0:	b508      	push	{r3, lr}
 8000dd2:	4b03      	ldr	r3, [pc, #12]	; (8000de0 <SysTick_Handler+0x10>)
 8000dd4:	681a      	ldr	r2, [r3, #0]
 8000dd6:	3201      	adds	r2, #1
 8000dd8:	601a      	str	r2, [r3, #0]
 8000dda:	f000 f809 	bl	8000df0 <_Z14do_event_ticksv>
 8000dde:	bd08      	pop	{r3, pc}
 8000de0:	200006b8 	.word	0x200006b8

08000de4 <_Z9set_eventmP14periodic_event>:
 8000de4:	4b01      	ldr	r3, [pc, #4]	; (8000dec <_Z9set_eventmP14periodic_event+0x8>)
 8000de6:	0080      	lsls	r0, r0, #2
 8000de8:	50c1      	str	r1, [r0, r3]
 8000dea:	4770      	bx	lr
 8000dec:	200006c0 	.word	0x200006c0

08000df0 <_Z14do_event_ticksv>:
 8000df0:	b510      	push	{r4, lr}
 8000df2:	4a0b      	ldr	r2, [pc, #44]	; (8000e20 <_Z14do_event_ticksv+0x30>)
 8000df4:	1c10      	adds	r0, r2, #0
 8000df6:	ca08      	ldmia	r2!, {r3}
 8000df8:	2b00      	cmp	r3, #0
 8000dfa:	d00c      	beq.n	8000e16 <_Z14do_event_ticksv+0x26>
 8000dfc:	7b59      	ldrb	r1, [r3, #13]
 8000dfe:	2900      	cmp	r1, #0
 8000e00:	d009      	beq.n	8000e16 <_Z14do_event_ticksv+0x26>
 8000e02:	6819      	ldr	r1, [r3, #0]
 8000e04:	685c      	ldr	r4, [r3, #4]
 8000e06:	3101      	adds	r1, #1
 8000e08:	6019      	str	r1, [r3, #0]
 8000e0a:	42a1      	cmp	r1, r4
 8000e0c:	d303      	bcc.n	8000e16 <_Z14do_event_ticksv+0x26>
 8000e0e:	2101      	movs	r1, #1
 8000e10:	2400      	movs	r4, #0
 8000e12:	7319      	strb	r1, [r3, #12]
 8000e14:	601c      	str	r4, [r3, #0]
 8000e16:	1c03      	adds	r3, r0, #0
 8000e18:	330c      	adds	r3, #12
 8000e1a:	429a      	cmp	r2, r3
 8000e1c:	d1eb      	bne.n	8000df6 <_Z14do_event_ticksv+0x6>
 8000e1e:	bd10      	pop	{r4, pc}
 8000e20:	200006c0 	.word	0x200006c0

08000e24 <_Z14service_eventsv>:
 8000e24:	b538      	push	{r3, r4, r5, lr}
 8000e26:	4c0a      	ldr	r4, [pc, #40]	; (8000e50 <_Z14service_eventsv+0x2c>)
 8000e28:	1c25      	adds	r5, r4, #0
 8000e2a:	cc08      	ldmia	r4!, {r3}
 8000e2c:	2b00      	cmp	r3, #0
 8000e2e:	d009      	beq.n	8000e44 <_Z14service_eventsv+0x20>
 8000e30:	7b5a      	ldrb	r2, [r3, #13]
 8000e32:	2a00      	cmp	r2, #0
 8000e34:	d006      	beq.n	8000e44 <_Z14service_eventsv+0x20>
 8000e36:	7b18      	ldrb	r0, [r3, #12]
 8000e38:	2800      	cmp	r0, #0
 8000e3a:	d003      	beq.n	8000e44 <_Z14service_eventsv+0x20>
 8000e3c:	2100      	movs	r1, #0
 8000e3e:	7319      	strb	r1, [r3, #12]
 8000e40:	689b      	ldr	r3, [r3, #8]
 8000e42:	4798      	blx	r3
 8000e44:	1c2a      	adds	r2, r5, #0
 8000e46:	320c      	adds	r2, #12
 8000e48:	4294      	cmp	r4, r2
 8000e4a:	d1ee      	bne.n	8000e2a <_Z14service_eventsv+0x6>
 8000e4c:	bd38      	pop	{r3, r4, r5, pc}
 8000e4e:	46c0      	nop			; (mov r8, r8)
 8000e50:	200006c0 	.word	0x200006c0

08000e54 <_Z16on_new_heartbeatv>:
 8000e54:	b508      	push	{r3, lr}
 8000e56:	f7ff fd31 	bl	80008bc <_Z18get_num_heartbeatsv>
 8000e5a:	4b0b      	ldr	r3, [pc, #44]	; (8000e88 <_Z16on_new_heartbeatv+0x34>)
 8000e5c:	681a      	ldr	r2, [r3, #0]
 8000e5e:	4290      	cmp	r0, r2
 8000e60:	d910      	bls.n	8000e84 <_Z16on_new_heartbeatv+0x30>
 8000e62:	6018      	str	r0, [r3, #0]
 8000e64:	2090      	movs	r0, #144	; 0x90
 8000e66:	05c2      	lsls	r2, r0, #23
 8000e68:	6951      	ldr	r1, [r2, #20]
 8000e6a:	2001      	movs	r0, #1
 8000e6c:	4301      	orrs	r1, r0
 8000e6e:	6151      	str	r1, [r2, #20]
 8000e70:	2280      	movs	r2, #128	; 0x80
 8000e72:	4906      	ldr	r1, [pc, #24]	; (8000e8c <_Z16on_new_heartbeatv+0x38>)
 8000e74:	0610      	lsls	r0, r2, #24
 8000e76:	67c8      	str	r0, [r1, #124]	; 0x7c
 8000e78:	4905      	ldr	r1, [pc, #20]	; (8000e90 <_Z16on_new_heartbeatv+0x3c>)
 8000e7a:	22fa      	movs	r2, #250	; 0xfa
 8000e7c:	609a      	str	r2, [r3, #8]
 8000e7e:	60d9      	str	r1, [r3, #12]
 8000e80:	4b04      	ldr	r3, [pc, #16]	; (8000e94 <_Z16on_new_heartbeatv+0x40>)
 8000e82:	6018      	str	r0, [r3, #0]
 8000e84:	bd08      	pop	{r3, pc}
 8000e86:	46c0      	nop			; (mov r8, r8)
 8000e88:	200006cc 	.word	0x200006cc
 8000e8c:	e000e104 	.word	0xe000e104
 8000e90:	08000e99 	.word	0x08000e99
 8000e94:	e000e100 	.word	0xe000e100

08000e98 <_Z17on_heartbeat_donev>:
 8000e98:	2390      	movs	r3, #144	; 0x90
 8000e9a:	05d8      	lsls	r0, r3, #23
 8000e9c:	6942      	ldr	r2, [r0, #20]
 8000e9e:	2101      	movs	r1, #1
 8000ea0:	438a      	bics	r2, r1
 8000ea2:	4b06      	ldr	r3, [pc, #24]	; (8000ebc <_Z17on_heartbeat_donev+0x24>)
 8000ea4:	6142      	str	r2, [r0, #20]
 8000ea6:	2280      	movs	r2, #128	; 0x80
 8000ea8:	1d18      	adds	r0, r3, #4
 8000eaa:	0612      	lsls	r2, r2, #24
 8000eac:	4904      	ldr	r1, [pc, #16]	; (8000ec0 <_Z17on_heartbeat_donev+0x28>)
 8000eae:	67c2      	str	r2, [r0, #124]	; 0x7c
 8000eb0:	200a      	movs	r0, #10
 8000eb2:	6088      	str	r0, [r1, #8]
 8000eb4:	4803      	ldr	r0, [pc, #12]	; (8000ec4 <_Z17on_heartbeat_donev+0x2c>)
 8000eb6:	60c8      	str	r0, [r1, #12]
 8000eb8:	601a      	str	r2, [r3, #0]
 8000eba:	4770      	bx	lr
 8000ebc:	e000e100 	.word	0xe000e100
 8000ec0:	200006cc 	.word	0x200006cc
 8000ec4:	08000e55 	.word	0x08000e55

08000ec8 <_Z21setup_heartbeat_eventv>:
 8000ec8:	4b0d      	ldr	r3, [pc, #52]	; (8000f00 <_Z21setup_heartbeat_eventv+0x38>)
 8000eca:	b507      	push	{r0, r1, r2, lr}
 8000ecc:	6959      	ldr	r1, [r3, #20]
 8000ece:	2280      	movs	r2, #128	; 0x80
 8000ed0:	0290      	lsls	r0, r2, #10
 8000ed2:	4308      	orrs	r0, r1
 8000ed4:	6158      	str	r0, [r3, #20]
 8000ed6:	2390      	movs	r3, #144	; 0x90
 8000ed8:	05d8      	lsls	r0, r3, #23
 8000eda:	6801      	ldr	r1, [r0, #0]
 8000edc:	2203      	movs	r2, #3
 8000ede:	2301      	movs	r3, #1
 8000ee0:	4391      	bics	r1, r2
 8000ee2:	4319      	orrs	r1, r3
 8000ee4:	6001      	str	r1, [r0, #0]
 8000ee6:	6841      	ldr	r1, [r0, #4]
 8000ee8:	4399      	bics	r1, r3
 8000eea:	6041      	str	r1, [r0, #4]
 8000eec:	a801      	add	r0, sp, #4
 8000eee:	f001 f8c1 	bl	8002074 <_ZNK4quan4meta4impl27for_each_type_sequence_implINS0_13type_sequenceIINS_5stm3210periph_regINS4_4gpio6moduleILm1207959552EEELm8EmEENS5_IS8_Lm12EmEENS5_IS8_Lm16EmEENS5_IS8_Lm20EmEENS5_IS8_Lm24EmEENS5_IS8_Lm28EmEENS5_IS8_Lm32EmEENS5_IS8_Lm36EmEEEEENS4_6detail24apply_periph_reg_actionsIS8_NS3_IINSI_17periph_reg_actionINS5_IS8_Lm0EmEENS0_6bit_orELm1EEENSK_ISL_NS0_7bit_andELm4294967293EEENSK_INS5_IS8_Lm4EmEESM_Lm0EEENSK_ISQ_SO_Lm4294967294EEENSK_ISA_SM_Lm0EEENSK_ISA_SO_Lm4294967292EEENSK_IS9_SM_Lm0EEENSK_IS9_SO_Lm4294967292EEENSK_ISC_SO_Lm4294967294EEEEEEEELb1EvEclEv>
 8000ef2:	4904      	ldr	r1, [pc, #16]	; (8000f04 <_Z21setup_heartbeat_eventv+0x3c>)
 8000ef4:	2002      	movs	r0, #2
 8000ef6:	3104      	adds	r1, #4
 8000ef8:	f7ff ff74 	bl	8000de4 <_Z9set_eventmP14periodic_event>
 8000efc:	bd07      	pop	{r0, r1, r2, pc}
 8000efe:	46c0      	nop			; (mov r8, r8)
 8000f00:	40021000 	.word	0x40021000
 8000f04:	200006cc 	.word	0x200006cc
 8000f08:	0800280c 	.word	0x0800280c
 8000f0c:	20000000 	.word	0x20000000
 8000f10:	2000045c 	.word	0x2000045c
 8000f14:	20000460 	.word	0x20000460
 8000f18:	20000a30 	.word	0x20000a30

08000f1c <__gnu_thumb1_case_uqi>:
 8000f1c:	b402      	push	{r1}
 8000f1e:	4671      	mov	r1, lr
 8000f20:	0849      	lsrs	r1, r1, #1
 8000f22:	0049      	lsls	r1, r1, #1
 8000f24:	5c09      	ldrb	r1, [r1, r0]
 8000f26:	0049      	lsls	r1, r1, #1
 8000f28:	448e      	add	lr, r1
 8000f2a:	bc02      	pop	{r1}
 8000f2c:	4770      	bx	lr
 8000f2e:	46c0      	nop			; (mov r8, r8)

08000f30 <__aeabi_uidiv>:
 8000f30:	2900      	cmp	r1, #0
 8000f32:	d034      	beq.n	8000f9e <.udivsi3_skip_div0_test+0x6a>

08000f34 <.udivsi3_skip_div0_test>:
 8000f34:	2301      	movs	r3, #1
 8000f36:	2200      	movs	r2, #0
 8000f38:	b410      	push	{r4}
 8000f3a:	4288      	cmp	r0, r1
 8000f3c:	d32c      	bcc.n	8000f98 <.udivsi3_skip_div0_test+0x64>
 8000f3e:	2401      	movs	r4, #1
 8000f40:	0724      	lsls	r4, r4, #28
 8000f42:	42a1      	cmp	r1, r4
 8000f44:	d204      	bcs.n	8000f50 <.udivsi3_skip_div0_test+0x1c>
 8000f46:	4281      	cmp	r1, r0
 8000f48:	d202      	bcs.n	8000f50 <.udivsi3_skip_div0_test+0x1c>
 8000f4a:	0109      	lsls	r1, r1, #4
 8000f4c:	011b      	lsls	r3, r3, #4
 8000f4e:	e7f8      	b.n	8000f42 <.udivsi3_skip_div0_test+0xe>
 8000f50:	00e4      	lsls	r4, r4, #3
 8000f52:	42a1      	cmp	r1, r4
 8000f54:	d204      	bcs.n	8000f60 <.udivsi3_skip_div0_test+0x2c>
 8000f56:	4281      	cmp	r1, r0
 8000f58:	d202      	bcs.n	8000f60 <.udivsi3_skip_div0_test+0x2c>
 8000f5a:	0049      	lsls	r1, r1, #1
 8000f5c:	005b      	lsls	r3, r3, #1
 8000f5e:	e7f8      	b.n	8000f52 <.udivsi3_skip_div0_test+0x1e>
 8000f60:	4288      	cmp	r0, r1
 8000f62:	d301      	bcc.n	8000f68 <.udivsi3_skip_div0_test+0x34>
 8000f64:	1a40      	subs	r0, r0, r1
 8000f66:	431a      	orrs	r2, r3
 8000f68:	084c      	lsrs	r4, r1, #1
 8000f6a:	42a0      	cmp	r0, r4
 8000f6c:	d302      	bcc.n	8000f74 <.udivsi3_skip_div0_test+0x40>
 8000f6e:	1b00      	subs	r0, r0, r4
 8000f70:	085c      	lsrs	r4, r3, #1
 8000f72:	4322      	orrs	r2, r4
 8000f74:	088c      	lsrs	r4, r1, #2
 8000f76:	42a0      	cmp	r0, r4
 8000f78:	d302      	bcc.n	8000f80 <.udivsi3_skip_div0_test+0x4c>
 8000f7a:	1b00      	subs	r0, r0, r4
 8000f7c:	089c      	lsrs	r4, r3, #2
 8000f7e:	4322      	orrs	r2, r4
 8000f80:	08cc      	lsrs	r4, r1, #3
 8000f82:	42a0      	cmp	r0, r4
 8000f84:	d302      	bcc.n	8000f8c <.udivsi3_skip_div0_test+0x58>
 8000f86:	1b00      	subs	r0, r0, r4
 8000f88:	08dc      	lsrs	r4, r3, #3
 8000f8a:	4322      	orrs	r2, r4
 8000f8c:	2800      	cmp	r0, #0
 8000f8e:	d003      	beq.n	8000f98 <.udivsi3_skip_div0_test+0x64>
 8000f90:	091b      	lsrs	r3, r3, #4
 8000f92:	d001      	beq.n	8000f98 <.udivsi3_skip_div0_test+0x64>
 8000f94:	0909      	lsrs	r1, r1, #4
 8000f96:	e7e3      	b.n	8000f60 <.udivsi3_skip_div0_test+0x2c>
 8000f98:	1c10      	adds	r0, r2, #0
 8000f9a:	bc10      	pop	{r4}
 8000f9c:	4770      	bx	lr
 8000f9e:	2800      	cmp	r0, #0
 8000fa0:	d001      	beq.n	8000fa6 <.udivsi3_skip_div0_test+0x72>
 8000fa2:	2000      	movs	r0, #0
 8000fa4:	43c0      	mvns	r0, r0
 8000fa6:	b407      	push	{r0, r1, r2}
 8000fa8:	4802      	ldr	r0, [pc, #8]	; (8000fb4 <.udivsi3_skip_div0_test+0x80>)
 8000faa:	a102      	add	r1, pc, #8	; (adr r1, 8000fb4 <.udivsi3_skip_div0_test+0x80>)
 8000fac:	1840      	adds	r0, r0, r1
 8000fae:	9002      	str	r0, [sp, #8]
 8000fb0:	bd03      	pop	{r0, r1, pc}
 8000fb2:	46c0      	nop			; (mov r8, r8)
 8000fb4:	000000d9 	.word	0x000000d9

08000fb8 <__aeabi_uidivmod>:
 8000fb8:	2900      	cmp	r1, #0
 8000fba:	d0f0      	beq.n	8000f9e <.udivsi3_skip_div0_test+0x6a>
 8000fbc:	b503      	push	{r0, r1, lr}
 8000fbe:	f7ff ffb9 	bl	8000f34 <.udivsi3_skip_div0_test>
 8000fc2:	bc0e      	pop	{r1, r2, r3}
 8000fc4:	4342      	muls	r2, r0
 8000fc6:	1a89      	subs	r1, r1, r2
 8000fc8:	4718      	bx	r3
 8000fca:	46c0      	nop			; (mov r8, r8)

08000fcc <__aeabi_idiv>:
 8000fcc:	2900      	cmp	r1, #0
 8000fce:	d041      	beq.n	8001054 <.divsi3_skip_div0_test+0x84>

08000fd0 <.divsi3_skip_div0_test>:
 8000fd0:	b410      	push	{r4}
 8000fd2:	1c04      	adds	r4, r0, #0
 8000fd4:	404c      	eors	r4, r1
 8000fd6:	46a4      	mov	ip, r4
 8000fd8:	2301      	movs	r3, #1
 8000fda:	2200      	movs	r2, #0
 8000fdc:	2900      	cmp	r1, #0
 8000fde:	d500      	bpl.n	8000fe2 <.divsi3_skip_div0_test+0x12>
 8000fe0:	4249      	negs	r1, r1
 8000fe2:	2800      	cmp	r0, #0
 8000fe4:	d500      	bpl.n	8000fe8 <.divsi3_skip_div0_test+0x18>
 8000fe6:	4240      	negs	r0, r0
 8000fe8:	4288      	cmp	r0, r1
 8000fea:	d32c      	bcc.n	8001046 <.divsi3_skip_div0_test+0x76>
 8000fec:	2401      	movs	r4, #1
 8000fee:	0724      	lsls	r4, r4, #28
 8000ff0:	42a1      	cmp	r1, r4
 8000ff2:	d204      	bcs.n	8000ffe <.divsi3_skip_div0_test+0x2e>
 8000ff4:	4281      	cmp	r1, r0
 8000ff6:	d202      	bcs.n	8000ffe <.divsi3_skip_div0_test+0x2e>
 8000ff8:	0109      	lsls	r1, r1, #4
 8000ffa:	011b      	lsls	r3, r3, #4
 8000ffc:	e7f8      	b.n	8000ff0 <.divsi3_skip_div0_test+0x20>
 8000ffe:	00e4      	lsls	r4, r4, #3
 8001000:	42a1      	cmp	r1, r4
 8001002:	d204      	bcs.n	800100e <.divsi3_skip_div0_test+0x3e>
 8001004:	4281      	cmp	r1, r0
 8001006:	d202      	bcs.n	800100e <.divsi3_skip_div0_test+0x3e>
 8001008:	0049      	lsls	r1, r1, #1
 800100a:	005b      	lsls	r3, r3, #1
 800100c:	e7f8      	b.n	8001000 <.divsi3_skip_div0_test+0x30>
 800100e:	4288      	cmp	r0, r1
 8001010:	d301      	bcc.n	8001016 <.divsi3_skip_div0_test+0x46>
 8001012:	1a40      	subs	r0, r0, r1
 8001014:	431a      	orrs	r2, r3
 8001016:	084c      	lsrs	r4, r1, #1
 8001018:	42a0      	cmp	r0, r4
 800101a:	d302      	bcc.n	8001022 <.divsi3_skip_div0_test+0x52>
 800101c:	1b00      	subs	r0, r0, r4
 800101e:	085c      	lsrs	r4, r3, #1
 8001020:	4322      	orrs	r2, r4
 8001022:	088c      	lsrs	r4, r1, #2
 8001024:	42a0      	cmp	r0, r4
 8001026:	d302      	bcc.n	800102e <.divsi3_skip_div0_test+0x5e>
 8001028:	1b00      	subs	r0, r0, r4
 800102a:	089c      	lsrs	r4, r3, #2
 800102c:	4322      	orrs	r2, r4
 800102e:	08cc      	lsrs	r4, r1, #3
 8001030:	42a0      	cmp	r0, r4
 8001032:	d302      	bcc.n	800103a <.divsi3_skip_div0_test+0x6a>
 8001034:	1b00      	subs	r0, r0, r4
 8001036:	08dc      	lsrs	r4, r3, #3
 8001038:	4322      	orrs	r2, r4
 800103a:	2800      	cmp	r0, #0
 800103c:	d003      	beq.n	8001046 <.divsi3_skip_div0_test+0x76>
 800103e:	091b      	lsrs	r3, r3, #4
 8001040:	d001      	beq.n	8001046 <.divsi3_skip_div0_test+0x76>
 8001042:	0909      	lsrs	r1, r1, #4
 8001044:	e7e3      	b.n	800100e <.divsi3_skip_div0_test+0x3e>
 8001046:	1c10      	adds	r0, r2, #0
 8001048:	4664      	mov	r4, ip
 800104a:	2c00      	cmp	r4, #0
 800104c:	d500      	bpl.n	8001050 <.divsi3_skip_div0_test+0x80>
 800104e:	4240      	negs	r0, r0
 8001050:	bc10      	pop	{r4}
 8001052:	4770      	bx	lr
 8001054:	2800      	cmp	r0, #0
 8001056:	d006      	beq.n	8001066 <.divsi3_skip_div0_test+0x96>
 8001058:	db03      	blt.n	8001062 <.divsi3_skip_div0_test+0x92>
 800105a:	2000      	movs	r0, #0
 800105c:	43c0      	mvns	r0, r0
 800105e:	0840      	lsrs	r0, r0, #1
 8001060:	e001      	b.n	8001066 <.divsi3_skip_div0_test+0x96>
 8001062:	2080      	movs	r0, #128	; 0x80
 8001064:	0600      	lsls	r0, r0, #24
 8001066:	b407      	push	{r0, r1, r2}
 8001068:	4802      	ldr	r0, [pc, #8]	; (8001074 <.divsi3_skip_div0_test+0xa4>)
 800106a:	a102      	add	r1, pc, #8	; (adr r1, 8001074 <.divsi3_skip_div0_test+0xa4>)
 800106c:	1840      	adds	r0, r0, r1
 800106e:	9002      	str	r0, [sp, #8]
 8001070:	bd03      	pop	{r0, r1, pc}
 8001072:	46c0      	nop			; (mov r8, r8)
 8001074:	00000019 	.word	0x00000019

08001078 <__aeabi_idivmod>:
 8001078:	2900      	cmp	r1, #0
 800107a:	d0eb      	beq.n	8001054 <.divsi3_skip_div0_test+0x84>
 800107c:	b503      	push	{r0, r1, lr}
 800107e:	f7ff ffa7 	bl	8000fd0 <.divsi3_skip_div0_test>
 8001082:	bc0e      	pop	{r1, r2, r3}
 8001084:	4342      	muls	r2, r0
 8001086:	1a89      	subs	r1, r1, r2
 8001088:	4718      	bx	r3
 800108a:	46c0      	nop			; (mov r8, r8)

0800108c <__aeabi_idiv0>:
 800108c:	4770      	bx	lr
 800108e:	46c0      	nop			; (mov r8, r8)

08001090 <__aeabi_cfrcmple>:
 8001090:	4684      	mov	ip, r0
 8001092:	1c08      	adds	r0, r1, #0
 8001094:	4661      	mov	r1, ip
 8001096:	e7ff      	b.n	8001098 <__aeabi_cfcmpeq>

08001098 <__aeabi_cfcmpeq>:
 8001098:	b51f      	push	{r0, r1, r2, r3, r4, lr}
 800109a:	f000 f9dd 	bl	8001458 <__lesf2>
 800109e:	2800      	cmp	r0, #0
 80010a0:	d401      	bmi.n	80010a6 <__aeabi_cfcmpeq+0xe>
 80010a2:	2100      	movs	r1, #0
 80010a4:	42c8      	cmn	r0, r1
 80010a6:	bd1f      	pop	{r0, r1, r2, r3, r4, pc}

080010a8 <__aeabi_fcmpeq>:
 80010a8:	b510      	push	{r4, lr}
 80010aa:	f000 f965 	bl	8001378 <__eqsf2>
 80010ae:	4240      	negs	r0, r0
 80010b0:	3001      	adds	r0, #1
 80010b2:	bd10      	pop	{r4, pc}

080010b4 <__aeabi_fcmplt>:
 80010b4:	b510      	push	{r4, lr}
 80010b6:	f000 f9cf 	bl	8001458 <__lesf2>
 80010ba:	2800      	cmp	r0, #0
 80010bc:	db01      	blt.n	80010c2 <__aeabi_fcmplt+0xe>
 80010be:	2000      	movs	r0, #0
 80010c0:	bd10      	pop	{r4, pc}
 80010c2:	2001      	movs	r0, #1
 80010c4:	bd10      	pop	{r4, pc}
 80010c6:	46c0      	nop			; (mov r8, r8)

080010c8 <__aeabi_fcmple>:
 80010c8:	b510      	push	{r4, lr}
 80010ca:	f000 f9c5 	bl	8001458 <__lesf2>
 80010ce:	2800      	cmp	r0, #0
 80010d0:	dd01      	ble.n	80010d6 <__aeabi_fcmple+0xe>
 80010d2:	2000      	movs	r0, #0
 80010d4:	bd10      	pop	{r4, pc}
 80010d6:	2001      	movs	r0, #1
 80010d8:	bd10      	pop	{r4, pc}
 80010da:	46c0      	nop			; (mov r8, r8)

080010dc <__aeabi_fcmpgt>:
 80010dc:	b510      	push	{r4, lr}
 80010de:	f000 f973 	bl	80013c8 <__gesf2>
 80010e2:	2800      	cmp	r0, #0
 80010e4:	dc01      	bgt.n	80010ea <__aeabi_fcmpgt+0xe>
 80010e6:	2000      	movs	r0, #0
 80010e8:	bd10      	pop	{r4, pc}
 80010ea:	2001      	movs	r0, #1
 80010ec:	bd10      	pop	{r4, pc}
 80010ee:	46c0      	nop			; (mov r8, r8)

080010f0 <__aeabi_fcmpge>:
 80010f0:	b510      	push	{r4, lr}
 80010f2:	f000 f969 	bl	80013c8 <__gesf2>
 80010f6:	2800      	cmp	r0, #0
 80010f8:	da01      	bge.n	80010fe <__aeabi_fcmpge+0xe>
 80010fa:	2000      	movs	r0, #0
 80010fc:	bd10      	pop	{r4, pc}
 80010fe:	2001      	movs	r0, #1
 8001100:	bd10      	pop	{r4, pc}
 8001102:	46c0      	nop			; (mov r8, r8)

08001104 <__aeabi_fdiv>:
 8001104:	b5f0      	push	{r4, r5, r6, r7, lr}
 8001106:	465f      	mov	r7, fp
 8001108:	4656      	mov	r6, sl
 800110a:	464d      	mov	r5, r9
 800110c:	4644      	mov	r4, r8
 800110e:	b4f0      	push	{r4, r5, r6, r7}
 8001110:	0245      	lsls	r5, r0, #9
 8001112:	0044      	lsls	r4, r0, #1
 8001114:	b083      	sub	sp, #12
 8001116:	1c0e      	adds	r6, r1, #0
 8001118:	0a6d      	lsrs	r5, r5, #9
 800111a:	0e24      	lsrs	r4, r4, #24
 800111c:	0fc7      	lsrs	r7, r0, #31
 800111e:	2c00      	cmp	r4, #0
 8001120:	d107      	bne.n	8001132 <__aeabi_fdiv+0x2e>
 8001122:	2d00      	cmp	r5, #0
 8001124:	d000      	beq.n	8001128 <__aeabi_fdiv+0x24>
 8001126:	e091      	b.n	800124c <__aeabi_fdiv+0x148>
 8001128:	2104      	movs	r1, #4
 800112a:	2201      	movs	r2, #1
 800112c:	4688      	mov	r8, r1
 800112e:	4692      	mov	sl, r2
 8001130:	e009      	b.n	8001146 <__aeabi_fdiv+0x42>
 8001132:	2cff      	cmp	r4, #255	; 0xff
 8001134:	d055      	beq.n	80011e2 <__aeabi_fdiv+0xde>
 8001136:	2380      	movs	r3, #128	; 0x80
 8001138:	0418      	lsls	r0, r3, #16
 800113a:	2100      	movs	r1, #0
 800113c:	4305      	orrs	r5, r0
 800113e:	00ed      	lsls	r5, r5, #3
 8001140:	3c7f      	subs	r4, #127	; 0x7f
 8001142:	4688      	mov	r8, r1
 8001144:	468a      	mov	sl, r1
 8001146:	1c33      	adds	r3, r6, #0
 8001148:	0058      	lsls	r0, r3, #1
 800114a:	0276      	lsls	r6, r6, #9
 800114c:	0fd9      	lsrs	r1, r3, #31
 800114e:	0a76      	lsrs	r6, r6, #9
 8001150:	0e00      	lsrs	r0, r0, #24
 8001152:	468b      	mov	fp, r1
 8001154:	d14c      	bne.n	80011f0 <__aeabi_fdiv+0xec>
 8001156:	2201      	movs	r2, #1
 8001158:	4694      	mov	ip, r2
 800115a:	2e00      	cmp	r6, #0
 800115c:	d000      	beq.n	8001160 <__aeabi_fdiv+0x5c>
 800115e:	e081      	b.n	8001264 <__aeabi_fdiv+0x160>
 8001160:	465b      	mov	r3, fp
 8001162:	407b      	eors	r3, r7
 8001164:	4662      	mov	r2, ip
 8001166:	4641      	mov	r1, r8
 8001168:	9301      	str	r3, [sp, #4]
 800116a:	430a      	orrs	r2, r1
 800116c:	2a0f      	cmp	r2, #15
 800116e:	d950      	bls.n	8001212 <__aeabi_fdiv+0x10e>
 8001170:	1a20      	subs	r0, r4, r0
 8001172:	0169      	lsls	r1, r5, #5
 8001174:	4681      	mov	r9, r0
 8001176:	0175      	lsls	r5, r6, #5
 8001178:	42a9      	cmp	r1, r5
 800117a:	d300      	bcc.n	800117e <__aeabi_fdiv+0x7a>
 800117c:	e0b3      	b.n	80012e6 <__aeabi_fdiv+0x1e2>
 800117e:	2201      	movs	r2, #1
 8001180:	4253      	negs	r3, r2
 8001182:	4499      	add	r9, r3
 8001184:	241b      	movs	r4, #27
 8001186:	2600      	movs	r6, #0
 8001188:	2701      	movs	r7, #1
 800118a:	1e62      	subs	r2, r4, #1
 800118c:	1c38      	adds	r0, r7, #0
 800118e:	4010      	ands	r0, r2
 8001190:	004b      	lsls	r3, r1, #1
 8001192:	0076      	lsls	r6, r6, #1
 8001194:	2900      	cmp	r1, #0
 8001196:	da00      	bge.n	800119a <__aeabi_fdiv+0x96>
 8001198:	e0a9      	b.n	80012ee <__aeabi_fdiv+0x1ea>
 800119a:	429d      	cmp	r5, r3
 800119c:	d800      	bhi.n	80011a0 <__aeabi_fdiv+0x9c>
 800119e:	e0a6      	b.n	80012ee <__aeabi_fdiv+0x1ea>
 80011a0:	3c01      	subs	r4, #1
 80011a2:	2c00      	cmp	r4, #0
 80011a4:	dc00      	bgt.n	80011a8 <__aeabi_fdiv+0xa4>
 80011a6:	e0ab      	b.n	8001300 <__aeabi_fdiv+0x1fc>
 80011a8:	2800      	cmp	r0, #0
 80011aa:	d00c      	beq.n	80011c6 <__aeabi_fdiv+0xc2>
 80011ac:	1c19      	adds	r1, r3, #0
 80011ae:	0076      	lsls	r6, r6, #1
 80011b0:	005b      	lsls	r3, r3, #1
 80011b2:	2900      	cmp	r1, #0
 80011b4:	db01      	blt.n	80011ba <__aeabi_fdiv+0xb6>
 80011b6:	429d      	cmp	r5, r3
 80011b8:	d801      	bhi.n	80011be <__aeabi_fdiv+0xba>
 80011ba:	1b5b      	subs	r3, r3, r5
 80011bc:	433e      	orrs	r6, r7
 80011be:	3c01      	subs	r4, #1
 80011c0:	2c00      	cmp	r4, #0
 80011c2:	dc00      	bgt.n	80011c6 <__aeabi_fdiv+0xc2>
 80011c4:	e09c      	b.n	8001300 <__aeabi_fdiv+0x1fc>
 80011c6:	0059      	lsls	r1, r3, #1
 80011c8:	0072      	lsls	r2, r6, #1
 80011ca:	2b00      	cmp	r3, #0
 80011cc:	db01      	blt.n	80011d2 <__aeabi_fdiv+0xce>
 80011ce:	428d      	cmp	r5, r1
 80011d0:	d801      	bhi.n	80011d6 <__aeabi_fdiv+0xd2>
 80011d2:	1b49      	subs	r1, r1, r5
 80011d4:	433a      	orrs	r2, r7
 80011d6:	3c01      	subs	r4, #1
 80011d8:	004b      	lsls	r3, r1, #1
 80011da:	0056      	lsls	r6, r2, #1
 80011dc:	2900      	cmp	r1, #0
 80011de:	daea      	bge.n	80011b6 <__aeabi_fdiv+0xb2>
 80011e0:	e7eb      	b.n	80011ba <__aeabi_fdiv+0xb6>
 80011e2:	2d00      	cmp	r5, #0
 80011e4:	d12d      	bne.n	8001242 <__aeabi_fdiv+0x13e>
 80011e6:	2008      	movs	r0, #8
 80011e8:	2102      	movs	r1, #2
 80011ea:	4680      	mov	r8, r0
 80011ec:	468a      	mov	sl, r1
 80011ee:	e7aa      	b.n	8001146 <__aeabi_fdiv+0x42>
 80011f0:	28ff      	cmp	r0, #255	; 0xff
 80011f2:	d020      	beq.n	8001236 <__aeabi_fdiv+0x132>
 80011f4:	2280      	movs	r2, #128	; 0x80
 80011f6:	0413      	lsls	r3, r2, #16
 80011f8:	2100      	movs	r1, #0
 80011fa:	431e      	orrs	r6, r3
 80011fc:	468c      	mov	ip, r1
 80011fe:	465b      	mov	r3, fp
 8001200:	407b      	eors	r3, r7
 8001202:	4662      	mov	r2, ip
 8001204:	4641      	mov	r1, r8
 8001206:	00f6      	lsls	r6, r6, #3
 8001208:	387f      	subs	r0, #127	; 0x7f
 800120a:	9301      	str	r3, [sp, #4]
 800120c:	430a      	orrs	r2, r1
 800120e:	2a0f      	cmp	r2, #15
 8001210:	d8ae      	bhi.n	8001170 <__aeabi_fdiv+0x6c>
 8001212:	4956      	ldr	r1, [pc, #344]	; (800136c <__aeabi_fdiv+0x268>)
 8001214:	0092      	lsls	r2, r2, #2
 8001216:	588a      	ldr	r2, [r1, r2]
 8001218:	4697      	mov	pc, r2
 800121a:	9b01      	ldr	r3, [sp, #4]
 800121c:	26ff      	movs	r6, #255	; 0xff
 800121e:	2500      	movs	r5, #0
 8001220:	05f0      	lsls	r0, r6, #23
 8001222:	4328      	orrs	r0, r5
 8001224:	07de      	lsls	r6, r3, #31
 8001226:	4330      	orrs	r0, r6
 8001228:	b003      	add	sp, #12
 800122a:	bc3c      	pop	{r2, r3, r4, r5}
 800122c:	4690      	mov	r8, r2
 800122e:	4699      	mov	r9, r3
 8001230:	46a2      	mov	sl, r4
 8001232:	46ab      	mov	fp, r5
 8001234:	bdf0      	pop	{r4, r5, r6, r7, pc}
 8001236:	1c33      	adds	r3, r6, #0
 8001238:	1e5a      	subs	r2, r3, #1
 800123a:	4193      	sbcs	r3, r2
 800123c:	3302      	adds	r3, #2
 800123e:	469c      	mov	ip, r3
 8001240:	e78e      	b.n	8001160 <__aeabi_fdiv+0x5c>
 8001242:	220c      	movs	r2, #12
 8001244:	2303      	movs	r3, #3
 8001246:	4690      	mov	r8, r2
 8001248:	469a      	mov	sl, r3
 800124a:	e77c      	b.n	8001146 <__aeabi_fdiv+0x42>
 800124c:	1c28      	adds	r0, r5, #0
 800124e:	f000 fb43 	bl	80018d8 <__clzsi2>
 8001252:	2276      	movs	r2, #118	; 0x76
 8001254:	1f44      	subs	r4, r0, #5
 8001256:	4253      	negs	r3, r2
 8001258:	40a5      	lsls	r5, r4
 800125a:	1a1c      	subs	r4, r3, r0
 800125c:	2000      	movs	r0, #0
 800125e:	4680      	mov	r8, r0
 8001260:	4682      	mov	sl, r0
 8001262:	e770      	b.n	8001146 <__aeabi_fdiv+0x42>
 8001264:	1c30      	adds	r0, r6, #0
 8001266:	f000 fb37 	bl	80018d8 <__clzsi2>
 800126a:	2376      	movs	r3, #118	; 0x76
 800126c:	1f41      	subs	r1, r0, #5
 800126e:	408e      	lsls	r6, r1
 8001270:	425a      	negs	r2, r3
 8001272:	2100      	movs	r1, #0
 8001274:	1a10      	subs	r0, r2, r0
 8001276:	468c      	mov	ip, r1
 8001278:	e772      	b.n	8001160 <__aeabi_fdiv+0x5c>
 800127a:	2300      	movs	r3, #0
 800127c:	4d3c      	ldr	r5, [pc, #240]	; (8001370 <__aeabi_fdiv+0x26c>)
 800127e:	26ff      	movs	r6, #255	; 0xff
 8001280:	e7ce      	b.n	8001220 <__aeabi_fdiv+0x11c>
 8001282:	465f      	mov	r7, fp
 8001284:	1c35      	adds	r5, r6, #0
 8001286:	9701      	str	r7, [sp, #4]
 8001288:	4663      	mov	r3, ip
 800128a:	2b02      	cmp	r3, #2
 800128c:	d0c5      	beq.n	800121a <__aeabi_fdiv+0x116>
 800128e:	2b03      	cmp	r3, #3
 8001290:	d063      	beq.n	800135a <__aeabi_fdiv+0x256>
 8001292:	2b01      	cmp	r3, #1
 8001294:	d043      	beq.n	800131e <__aeabi_fdiv+0x21a>
 8001296:	4649      	mov	r1, r9
 8001298:	317f      	adds	r1, #127	; 0x7f
 800129a:	2900      	cmp	r1, #0
 800129c:	dd35      	ble.n	800130a <__aeabi_fdiv+0x206>
 800129e:	270f      	movs	r7, #15
 80012a0:	402f      	ands	r7, r5
 80012a2:	2f04      	cmp	r7, #4
 80012a4:	d000      	beq.n	80012a8 <__aeabi_fdiv+0x1a4>
 80012a6:	3504      	adds	r5, #4
 80012a8:	012b      	lsls	r3, r5, #4
 80012aa:	d503      	bpl.n	80012b4 <__aeabi_fdiv+0x1b0>
 80012ac:	4a31      	ldr	r2, [pc, #196]	; (8001374 <__aeabi_fdiv+0x270>)
 80012ae:	4649      	mov	r1, r9
 80012b0:	4015      	ands	r5, r2
 80012b2:	3180      	adds	r1, #128	; 0x80
 80012b4:	29fe      	cmp	r1, #254	; 0xfe
 80012b6:	dcb0      	bgt.n	800121a <__aeabi_fdiv+0x116>
 80012b8:	01a8      	lsls	r0, r5, #6
 80012ba:	0a45      	lsrs	r5, r0, #9
 80012bc:	b2ce      	uxtb	r6, r1
 80012be:	9b01      	ldr	r3, [sp, #4]
 80012c0:	e7ae      	b.n	8001220 <__aeabi_fdiv+0x11c>
 80012c2:	2600      	movs	r6, #0
 80012c4:	2500      	movs	r5, #0
 80012c6:	e7ab      	b.n	8001220 <__aeabi_fdiv+0x11c>
 80012c8:	2080      	movs	r0, #128	; 0x80
 80012ca:	03c1      	lsls	r1, r0, #15
 80012cc:	420d      	tst	r5, r1
 80012ce:	d011      	beq.n	80012f4 <__aeabi_fdiv+0x1f0>
 80012d0:	420e      	tst	r6, r1
 80012d2:	d10f      	bne.n	80012f4 <__aeabi_fdiv+0x1f0>
 80012d4:	430e      	orrs	r6, r1
 80012d6:	0273      	lsls	r3, r6, #9
 80012d8:	0a5d      	lsrs	r5, r3, #9
 80012da:	26ff      	movs	r6, #255	; 0xff
 80012dc:	465b      	mov	r3, fp
 80012de:	e79f      	b.n	8001220 <__aeabi_fdiv+0x11c>
 80012e0:	9701      	str	r7, [sp, #4]
 80012e2:	4653      	mov	r3, sl
 80012e4:	e7d1      	b.n	800128a <__aeabi_fdiv+0x186>
 80012e6:	1b49      	subs	r1, r1, r5
 80012e8:	241a      	movs	r4, #26
 80012ea:	2601      	movs	r6, #1
 80012ec:	e74c      	b.n	8001188 <__aeabi_fdiv+0x84>
 80012ee:	1b5b      	subs	r3, r3, r5
 80012f0:	433e      	orrs	r6, r7
 80012f2:	e755      	b.n	80011a0 <__aeabi_fdiv+0x9c>
 80012f4:	430d      	orrs	r5, r1
 80012f6:	026a      	lsls	r2, r5, #9
 80012f8:	0a55      	lsrs	r5, r2, #9
 80012fa:	1c3b      	adds	r3, r7, #0
 80012fc:	26ff      	movs	r6, #255	; 0xff
 80012fe:	e78f      	b.n	8001220 <__aeabi_fdiv+0x11c>
 8001300:	1c1d      	adds	r5, r3, #0
 8001302:	1e6b      	subs	r3, r5, #1
 8001304:	419d      	sbcs	r5, r3
 8001306:	4335      	orrs	r5, r6
 8001308:	e7c5      	b.n	8001296 <__aeabi_fdiv+0x192>
 800130a:	247e      	movs	r4, #126	; 0x7e
 800130c:	4267      	negs	r7, r4
 800130e:	464a      	mov	r2, r9
 8001310:	1ab9      	subs	r1, r7, r2
 8001312:	291b      	cmp	r1, #27
 8001314:	dd08      	ble.n	8001328 <__aeabi_fdiv+0x224>
 8001316:	9b01      	ldr	r3, [sp, #4]
 8001318:	2600      	movs	r6, #0
 800131a:	2500      	movs	r5, #0
 800131c:	e780      	b.n	8001220 <__aeabi_fdiv+0x11c>
 800131e:	9d01      	ldr	r5, [sp, #4]
 8001320:	2600      	movs	r6, #0
 8001322:	402b      	ands	r3, r5
 8001324:	2500      	movs	r5, #0
 8001326:	e77b      	b.n	8001220 <__aeabi_fdiv+0x11c>
 8001328:	464e      	mov	r6, r9
 800132a:	369e      	adds	r6, #158	; 0x9e
 800132c:	1c28      	adds	r0, r5, #0
 800132e:	40b5      	lsls	r5, r6
 8001330:	1c2b      	adds	r3, r5, #0
 8001332:	1e5d      	subs	r5, r3, #1
 8001334:	41ab      	sbcs	r3, r5
 8001336:	40c8      	lsrs	r0, r1
 8001338:	4303      	orrs	r3, r0
 800133a:	250f      	movs	r5, #15
 800133c:	401d      	ands	r5, r3
 800133e:	2d04      	cmp	r5, #4
 8001340:	d000      	beq.n	8001344 <__aeabi_fdiv+0x240>
 8001342:	3304      	adds	r3, #4
 8001344:	015a      	lsls	r2, r3, #5
 8001346:	d503      	bpl.n	8001350 <__aeabi_fdiv+0x24c>
 8001348:	9b01      	ldr	r3, [sp, #4]
 800134a:	2601      	movs	r6, #1
 800134c:	2500      	movs	r5, #0
 800134e:	e767      	b.n	8001220 <__aeabi_fdiv+0x11c>
 8001350:	019c      	lsls	r4, r3, #6
 8001352:	0a65      	lsrs	r5, r4, #9
 8001354:	9b01      	ldr	r3, [sp, #4]
 8001356:	2600      	movs	r6, #0
 8001358:	e762      	b.n	8001220 <__aeabi_fdiv+0x11c>
 800135a:	2780      	movs	r7, #128	; 0x80
 800135c:	03fc      	lsls	r4, r7, #15
 800135e:	4325      	orrs	r5, r4
 8001360:	026e      	lsls	r6, r5, #9
 8001362:	0a75      	lsrs	r5, r6, #9
 8001364:	9b01      	ldr	r3, [sp, #4]
 8001366:	26ff      	movs	r6, #255	; 0xff
 8001368:	e75a      	b.n	8001220 <__aeabi_fdiv+0x11c>
 800136a:	46c0      	nop			; (mov r8, r8)
 800136c:	08002748 	.word	0x08002748
 8001370:	007fffff 	.word	0x007fffff
 8001374:	f7ffffff 	.word	0xf7ffffff

08001378 <__eqsf2>:
 8001378:	0243      	lsls	r3, r0, #9
 800137a:	0042      	lsls	r2, r0, #1
 800137c:	b570      	push	{r4, r5, r6, lr}
 800137e:	0a5c      	lsrs	r4, r3, #9
 8001380:	0fc6      	lsrs	r6, r0, #31
 8001382:	0e13      	lsrs	r3, r2, #24
 8001384:	0248      	lsls	r0, r1, #9
 8001386:	004a      	lsls	r2, r1, #1
 8001388:	0a45      	lsrs	r5, r0, #9
 800138a:	0e12      	lsrs	r2, r2, #24
 800138c:	0fc9      	lsrs	r1, r1, #31
 800138e:	2bff      	cmp	r3, #255	; 0xff
 8001390:	d005      	beq.n	800139e <__eqsf2+0x26>
 8001392:	2aff      	cmp	r2, #255	; 0xff
 8001394:	d008      	beq.n	80013a8 <__eqsf2+0x30>
 8001396:	2001      	movs	r0, #1
 8001398:	4293      	cmp	r3, r2
 800139a:	d00b      	beq.n	80013b4 <__eqsf2+0x3c>
 800139c:	bd70      	pop	{r4, r5, r6, pc}
 800139e:	2001      	movs	r0, #1
 80013a0:	2c00      	cmp	r4, #0
 80013a2:	d1fb      	bne.n	800139c <__eqsf2+0x24>
 80013a4:	2aff      	cmp	r2, #255	; 0xff
 80013a6:	d1f6      	bne.n	8001396 <__eqsf2+0x1e>
 80013a8:	2001      	movs	r0, #1
 80013aa:	2d00      	cmp	r5, #0
 80013ac:	d1f6      	bne.n	800139c <__eqsf2+0x24>
 80013ae:	2001      	movs	r0, #1
 80013b0:	4293      	cmp	r3, r2
 80013b2:	d1f3      	bne.n	800139c <__eqsf2+0x24>
 80013b4:	42ac      	cmp	r4, r5
 80013b6:	d1f1      	bne.n	800139c <__eqsf2+0x24>
 80013b8:	428e      	cmp	r6, r1
 80013ba:	d003      	beq.n	80013c4 <__eqsf2+0x4c>
 80013bc:	2b00      	cmp	r3, #0
 80013be:	d1ed      	bne.n	800139c <__eqsf2+0x24>
 80013c0:	2c00      	cmp	r4, #0
 80013c2:	d1eb      	bne.n	800139c <__eqsf2+0x24>
 80013c4:	2000      	movs	r0, #0
 80013c6:	e7e9      	b.n	800139c <__eqsf2+0x24>

080013c8 <__gesf2>:
 80013c8:	b5f0      	push	{r4, r5, r6, r7, lr}
 80013ca:	0243      	lsls	r3, r0, #9
 80013cc:	0042      	lsls	r2, r0, #1
 80013ce:	004f      	lsls	r7, r1, #1
 80013d0:	0fc6      	lsrs	r6, r0, #31
 80013d2:	0248      	lsls	r0, r1, #9
 80013d4:	0a5c      	lsrs	r4, r3, #9
 80013d6:	0a45      	lsrs	r5, r0, #9
 80013d8:	0e13      	lsrs	r3, r2, #24
 80013da:	0fc9      	lsrs	r1, r1, #31
 80013dc:	0e3a      	lsrs	r2, r7, #24
 80013de:	2bff      	cmp	r3, #255	; 0xff
 80013e0:	d026      	beq.n	8001430 <__gesf2+0x68>
 80013e2:	2aff      	cmp	r2, #255	; 0xff
 80013e4:	d029      	beq.n	800143a <__gesf2+0x72>
 80013e6:	2b00      	cmp	r3, #0
 80013e8:	d10c      	bne.n	8001404 <__gesf2+0x3c>
 80013ea:	4260      	negs	r0, r4
 80013ec:	4160      	adcs	r0, r4
 80013ee:	4684      	mov	ip, r0
 80013f0:	2a00      	cmp	r2, #0
 80013f2:	d00a      	beq.n	800140a <__gesf2+0x42>
 80013f4:	2800      	cmp	r0, #0
 80013f6:	d116      	bne.n	8001426 <__gesf2+0x5e>
 80013f8:	428e      	cmp	r6, r1
 80013fa:	d021      	beq.n	8001440 <__gesf2+0x78>
 80013fc:	2e00      	cmp	r6, #0
 80013fe:	d114      	bne.n	800142a <__gesf2+0x62>
 8001400:	2001      	movs	r0, #1
 8001402:	e014      	b.n	800142e <__gesf2+0x66>
 8001404:	2a00      	cmp	r2, #0
 8001406:	d1f7      	bne.n	80013f8 <__gesf2+0x30>
 8001408:	4694      	mov	ip, r2
 800140a:	426f      	negs	r7, r5
 800140c:	416f      	adcs	r7, r5
 800140e:	4660      	mov	r0, ip
 8001410:	2800      	cmp	r0, #0
 8001412:	d105      	bne.n	8001420 <__gesf2+0x58>
 8001414:	2f00      	cmp	r7, #0
 8001416:	d0ef      	beq.n	80013f8 <__gesf2+0x30>
 8001418:	2001      	movs	r0, #1
 800141a:	2e00      	cmp	r6, #0
 800141c:	d007      	beq.n	800142e <__gesf2+0x66>
 800141e:	e004      	b.n	800142a <__gesf2+0x62>
 8001420:	2000      	movs	r0, #0
 8001422:	2f00      	cmp	r7, #0
 8001424:	d103      	bne.n	800142e <__gesf2+0x66>
 8001426:	2900      	cmp	r1, #0
 8001428:	d1ea      	bne.n	8001400 <__gesf2+0x38>
 800142a:	2101      	movs	r1, #1
 800142c:	4248      	negs	r0, r1
 800142e:	bdf0      	pop	{r4, r5, r6, r7, pc}
 8001430:	2c00      	cmp	r4, #0
 8001432:	d0d6      	beq.n	80013e2 <__gesf2+0x1a>
 8001434:	2202      	movs	r2, #2
 8001436:	4250      	negs	r0, r2
 8001438:	e7f9      	b.n	800142e <__gesf2+0x66>
 800143a:	2d00      	cmp	r5, #0
 800143c:	d0d3      	beq.n	80013e6 <__gesf2+0x1e>
 800143e:	e7f9      	b.n	8001434 <__gesf2+0x6c>
 8001440:	4293      	cmp	r3, r2
 8001442:	dcdb      	bgt.n	80013fc <__gesf2+0x34>
 8001444:	db04      	blt.n	8001450 <__gesf2+0x88>
 8001446:	42ac      	cmp	r4, r5
 8001448:	d8d8      	bhi.n	80013fc <__gesf2+0x34>
 800144a:	2000      	movs	r0, #0
 800144c:	42ac      	cmp	r4, r5
 800144e:	d2ee      	bcs.n	800142e <__gesf2+0x66>
 8001450:	2e00      	cmp	r6, #0
 8001452:	d0ea      	beq.n	800142a <__gesf2+0x62>
 8001454:	2001      	movs	r0, #1
 8001456:	e7ea      	b.n	800142e <__gesf2+0x66>

08001458 <__lesf2>:
 8001458:	b5f0      	push	{r4, r5, r6, r7, lr}
 800145a:	0243      	lsls	r3, r0, #9
 800145c:	0042      	lsls	r2, r0, #1
 800145e:	004f      	lsls	r7, r1, #1
 8001460:	0fc6      	lsrs	r6, r0, #31
 8001462:	0248      	lsls	r0, r1, #9
 8001464:	0a5c      	lsrs	r4, r3, #9
 8001466:	0a45      	lsrs	r5, r0, #9
 8001468:	0e13      	lsrs	r3, r2, #24
 800146a:	0fc9      	lsrs	r1, r1, #31
 800146c:	0e3a      	lsrs	r2, r7, #24
 800146e:	2bff      	cmp	r3, #255	; 0xff
 8001470:	d026      	beq.n	80014c0 <__lesf2+0x68>
 8001472:	2aff      	cmp	r2, #255	; 0xff
 8001474:	d028      	beq.n	80014c8 <__lesf2+0x70>
 8001476:	2b00      	cmp	r3, #0
 8001478:	d00f      	beq.n	800149a <__lesf2+0x42>
 800147a:	2a00      	cmp	r2, #0
 800147c:	d114      	bne.n	80014a8 <__lesf2+0x50>
 800147e:	4694      	mov	ip, r2
 8001480:	426f      	negs	r7, r5
 8001482:	416f      	adcs	r7, r5
 8001484:	4660      	mov	r0, ip
 8001486:	2800      	cmp	r0, #0
 8001488:	d014      	beq.n	80014b4 <__lesf2+0x5c>
 800148a:	2000      	movs	r0, #0
 800148c:	2f00      	cmp	r7, #0
 800148e:	d103      	bne.n	8001498 <__lesf2+0x40>
 8001490:	2900      	cmp	r1, #0
 8001492:	d10d      	bne.n	80014b0 <__lesf2+0x58>
 8001494:	2101      	movs	r1, #1
 8001496:	4248      	negs	r0, r1
 8001498:	bdf0      	pop	{r4, r5, r6, r7, pc}
 800149a:	4260      	negs	r0, r4
 800149c:	4160      	adcs	r0, r4
 800149e:	4684      	mov	ip, r0
 80014a0:	2a00      	cmp	r2, #0
 80014a2:	d0ed      	beq.n	8001480 <__lesf2+0x28>
 80014a4:	2800      	cmp	r0, #0
 80014a6:	d1f3      	bne.n	8001490 <__lesf2+0x38>
 80014a8:	428e      	cmp	r6, r1
 80014aa:	d011      	beq.n	80014d0 <__lesf2+0x78>
 80014ac:	2e00      	cmp	r6, #0
 80014ae:	d1f1      	bne.n	8001494 <__lesf2+0x3c>
 80014b0:	2001      	movs	r0, #1
 80014b2:	e7f1      	b.n	8001498 <__lesf2+0x40>
 80014b4:	2f00      	cmp	r7, #0
 80014b6:	d0f7      	beq.n	80014a8 <__lesf2+0x50>
 80014b8:	2001      	movs	r0, #1
 80014ba:	2e00      	cmp	r6, #0
 80014bc:	d0ec      	beq.n	8001498 <__lesf2+0x40>
 80014be:	e7e9      	b.n	8001494 <__lesf2+0x3c>
 80014c0:	2002      	movs	r0, #2
 80014c2:	2c00      	cmp	r4, #0
 80014c4:	d1e8      	bne.n	8001498 <__lesf2+0x40>
 80014c6:	e7d4      	b.n	8001472 <__lesf2+0x1a>
 80014c8:	2002      	movs	r0, #2
 80014ca:	2d00      	cmp	r5, #0
 80014cc:	d1e4      	bne.n	8001498 <__lesf2+0x40>
 80014ce:	e7d2      	b.n	8001476 <__lesf2+0x1e>
 80014d0:	4293      	cmp	r3, r2
 80014d2:	dceb      	bgt.n	80014ac <__lesf2+0x54>
 80014d4:	db04      	blt.n	80014e0 <__lesf2+0x88>
 80014d6:	42ac      	cmp	r4, r5
 80014d8:	d8e8      	bhi.n	80014ac <__lesf2+0x54>
 80014da:	2000      	movs	r0, #0
 80014dc:	42ac      	cmp	r4, r5
 80014de:	d2db      	bcs.n	8001498 <__lesf2+0x40>
 80014e0:	2e00      	cmp	r6, #0
 80014e2:	d0d7      	beq.n	8001494 <__lesf2+0x3c>
 80014e4:	2001      	movs	r0, #1
 80014e6:	e7d7      	b.n	8001498 <__lesf2+0x40>

080014e8 <__aeabi_fmul>:
 80014e8:	b5f0      	push	{r4, r5, r6, r7, lr}
 80014ea:	465f      	mov	r7, fp
 80014ec:	4656      	mov	r6, sl
 80014ee:	464d      	mov	r5, r9
 80014f0:	4644      	mov	r4, r8
 80014f2:	b4f0      	push	{r4, r5, r6, r7}
 80014f4:	0245      	lsls	r5, r0, #9
 80014f6:	0046      	lsls	r6, r0, #1
 80014f8:	b083      	sub	sp, #12
 80014fa:	1c0f      	adds	r7, r1, #0
 80014fc:	0a6d      	lsrs	r5, r5, #9
 80014fe:	0e36      	lsrs	r6, r6, #24
 8001500:	0fc4      	lsrs	r4, r0, #31
 8001502:	2e00      	cmp	r6, #0
 8001504:	d106      	bne.n	8001514 <__aeabi_fmul+0x2c>
 8001506:	2d00      	cmp	r5, #0
 8001508:	d170      	bne.n	80015ec <__aeabi_fmul+0x104>
 800150a:	2104      	movs	r1, #4
 800150c:	2201      	movs	r2, #1
 800150e:	4688      	mov	r8, r1
 8001510:	4692      	mov	sl, r2
 8001512:	e009      	b.n	8001528 <__aeabi_fmul+0x40>
 8001514:	2eff      	cmp	r6, #255	; 0xff
 8001516:	d043      	beq.n	80015a0 <__aeabi_fmul+0xb8>
 8001518:	2380      	movs	r3, #128	; 0x80
 800151a:	0418      	lsls	r0, r3, #16
 800151c:	2100      	movs	r1, #0
 800151e:	4305      	orrs	r5, r0
 8001520:	00ed      	lsls	r5, r5, #3
 8001522:	3e7f      	subs	r6, #127	; 0x7f
 8001524:	4688      	mov	r8, r1
 8001526:	468a      	mov	sl, r1
 8001528:	1c38      	adds	r0, r7, #0
 800152a:	0043      	lsls	r3, r0, #1
 800152c:	027f      	lsls	r7, r7, #9
 800152e:	0fc1      	lsrs	r1, r0, #31
 8001530:	0a7f      	lsrs	r7, r7, #9
 8001532:	0e1b      	lsrs	r3, r3, #24
 8001534:	468b      	mov	fp, r1
 8001536:	d13a      	bne.n	80015ae <__aeabi_fmul+0xc6>
 8001538:	2101      	movs	r1, #1
 800153a:	2f00      	cmp	r7, #0
 800153c:	d162      	bne.n	8001604 <__aeabi_fmul+0x11c>
 800153e:	4658      	mov	r0, fp
 8001540:	4060      	eors	r0, r4
 8001542:	4642      	mov	r2, r8
 8001544:	9001      	str	r0, [sp, #4]
 8001546:	430a      	orrs	r2, r1
 8001548:	2a0f      	cmp	r2, #15
 800154a:	d93f      	bls.n	80015cc <__aeabi_fmul+0xe4>
 800154c:	042c      	lsls	r4, r5, #16
 800154e:	18f0      	adds	r0, r6, r3
 8001550:	0c26      	lsrs	r6, r4, #16
 8001552:	043b      	lsls	r3, r7, #16
 8001554:	0c1a      	lsrs	r2, r3, #16
 8001556:	1c31      	adds	r1, r6, #0
 8001558:	4351      	muls	r1, r2
 800155a:	0c3f      	lsrs	r7, r7, #16
 800155c:	0c2d      	lsrs	r5, r5, #16
 800155e:	437e      	muls	r6, r7
 8001560:	436a      	muls	r2, r5
 8001562:	4681      	mov	r9, r0
 8001564:	0c08      	lsrs	r0, r1, #16
 8001566:	1836      	adds	r6, r6, r0
 8001568:	1c2c      	adds	r4, r5, #0
 800156a:	18b3      	adds	r3, r6, r2
 800156c:	437c      	muls	r4, r7
 800156e:	429a      	cmp	r2, r3
 8001570:	d900      	bls.n	8001574 <__aeabi_fmul+0x8c>
 8001572:	e09a      	b.n	80016aa <__aeabi_fmul+0x1c2>
 8001574:	0409      	lsls	r1, r1, #16
 8001576:	041d      	lsls	r5, r3, #16
 8001578:	0c08      	lsrs	r0, r1, #16
 800157a:	182e      	adds	r6, r5, r0
 800157c:	01b5      	lsls	r5, r6, #6
 800157e:	0c1b      	lsrs	r3, r3, #16
 8001580:	1e69      	subs	r1, r5, #1
 8001582:	418d      	sbcs	r5, r1
 8001584:	0eb2      	lsrs	r2, r6, #26
 8001586:	18e7      	adds	r7, r4, r3
 8001588:	4315      	orrs	r5, r2
 800158a:	01bc      	lsls	r4, r7, #6
 800158c:	4325      	orrs	r5, r4
 800158e:	012b      	lsls	r3, r5, #4
 8001590:	d54b      	bpl.n	800162a <__aeabi_fmul+0x142>
 8001592:	2001      	movs	r0, #1
 8001594:	4028      	ands	r0, r5
 8001596:	2101      	movs	r1, #1
 8001598:	086d      	lsrs	r5, r5, #1
 800159a:	4489      	add	r9, r1
 800159c:	4305      	orrs	r5, r0
 800159e:	e044      	b.n	800162a <__aeabi_fmul+0x142>
 80015a0:	2d00      	cmp	r5, #0
 80015a2:	d11e      	bne.n	80015e2 <__aeabi_fmul+0xfa>
 80015a4:	2008      	movs	r0, #8
 80015a6:	2102      	movs	r1, #2
 80015a8:	4680      	mov	r8, r0
 80015aa:	468a      	mov	sl, r1
 80015ac:	e7bc      	b.n	8001528 <__aeabi_fmul+0x40>
 80015ae:	2bff      	cmp	r3, #255	; 0xff
 80015b0:	d012      	beq.n	80015d8 <__aeabi_fmul+0xf0>
 80015b2:	2280      	movs	r2, #128	; 0x80
 80015b4:	0410      	lsls	r0, r2, #16
 80015b6:	4307      	orrs	r7, r0
 80015b8:	4658      	mov	r0, fp
 80015ba:	2100      	movs	r1, #0
 80015bc:	4060      	eors	r0, r4
 80015be:	4642      	mov	r2, r8
 80015c0:	00ff      	lsls	r7, r7, #3
 80015c2:	3b7f      	subs	r3, #127	; 0x7f
 80015c4:	9001      	str	r0, [sp, #4]
 80015c6:	430a      	orrs	r2, r1
 80015c8:	2a0f      	cmp	r2, #15
 80015ca:	d8bf      	bhi.n	800154c <__aeabi_fmul+0x64>
 80015cc:	0090      	lsls	r0, r2, #2
 80015ce:	4a5b      	ldr	r2, [pc, #364]	; (800173c <__aeabi_fmul+0x254>)
 80015d0:	4684      	mov	ip, r0
 80015d2:	4462      	add	r2, ip
 80015d4:	6810      	ldr	r0, [r2, #0]
 80015d6:	4687      	mov	pc, r0
 80015d8:	1c39      	adds	r1, r7, #0
 80015da:	1e4a      	subs	r2, r1, #1
 80015dc:	4191      	sbcs	r1, r2
 80015de:	3102      	adds	r1, #2
 80015e0:	e7ad      	b.n	800153e <__aeabi_fmul+0x56>
 80015e2:	220c      	movs	r2, #12
 80015e4:	2303      	movs	r3, #3
 80015e6:	4690      	mov	r8, r2
 80015e8:	469a      	mov	sl, r3
 80015ea:	e79d      	b.n	8001528 <__aeabi_fmul+0x40>
 80015ec:	1c28      	adds	r0, r5, #0
 80015ee:	f000 f973 	bl	80018d8 <__clzsi2>
 80015f2:	2276      	movs	r2, #118	; 0x76
 80015f4:	1f46      	subs	r6, r0, #5
 80015f6:	4253      	negs	r3, r2
 80015f8:	40b5      	lsls	r5, r6
 80015fa:	1a1e      	subs	r6, r3, r0
 80015fc:	2000      	movs	r0, #0
 80015fe:	4680      	mov	r8, r0
 8001600:	4682      	mov	sl, r0
 8001602:	e791      	b.n	8001528 <__aeabi_fmul+0x40>
 8001604:	1c38      	adds	r0, r7, #0
 8001606:	f000 f967 	bl	80018d8 <__clzsi2>
 800160a:	2176      	movs	r1, #118	; 0x76
 800160c:	1f43      	subs	r3, r0, #5
 800160e:	424a      	negs	r2, r1
 8001610:	409f      	lsls	r7, r3
 8001612:	2100      	movs	r1, #0
 8001614:	1a13      	subs	r3, r2, r0
 8001616:	e792      	b.n	800153e <__aeabi_fmul+0x56>
 8001618:	9401      	str	r4, [sp, #4]
 800161a:	4651      	mov	r1, sl
 800161c:	2902      	cmp	r1, #2
 800161e:	d02c      	beq.n	800167a <__aeabi_fmul+0x192>
 8001620:	2903      	cmp	r1, #3
 8001622:	d100      	bne.n	8001626 <__aeabi_fmul+0x13e>
 8001624:	e080      	b.n	8001728 <__aeabi_fmul+0x240>
 8001626:	2901      	cmp	r1, #1
 8001628:	d048      	beq.n	80016bc <__aeabi_fmul+0x1d4>
 800162a:	464e      	mov	r6, r9
 800162c:	367f      	adds	r6, #127	; 0x7f
 800162e:	2e00      	cmp	r6, #0
 8001630:	dd51      	ble.n	80016d6 <__aeabi_fmul+0x1ee>
 8001632:	240f      	movs	r4, #15
 8001634:	402c      	ands	r4, r5
 8001636:	2c04      	cmp	r4, #4
 8001638:	d000      	beq.n	800163c <__aeabi_fmul+0x154>
 800163a:	3504      	adds	r5, #4
 800163c:	012a      	lsls	r2, r5, #4
 800163e:	d503      	bpl.n	8001648 <__aeabi_fmul+0x160>
 8001640:	493f      	ldr	r1, [pc, #252]	; (8001740 <__aeabi_fmul+0x258>)
 8001642:	464e      	mov	r6, r9
 8001644:	400d      	ands	r5, r1
 8001646:	3680      	adds	r6, #128	; 0x80
 8001648:	2efe      	cmp	r6, #254	; 0xfe
 800164a:	dd3d      	ble.n	80016c8 <__aeabi_fmul+0x1e0>
 800164c:	9b01      	ldr	r3, [sp, #4]
 800164e:	2401      	movs	r4, #1
 8001650:	401c      	ands	r4, r3
 8001652:	21ff      	movs	r1, #255	; 0xff
 8001654:	2500      	movs	r5, #0
 8001656:	05c8      	lsls	r0, r1, #23
 8001658:	07e2      	lsls	r2, r4, #31
 800165a:	4328      	orrs	r0, r5
 800165c:	4310      	orrs	r0, r2
 800165e:	b003      	add	sp, #12
 8001660:	bc3c      	pop	{r2, r3, r4, r5}
 8001662:	4690      	mov	r8, r2
 8001664:	4699      	mov	r9, r3
 8001666:	46a2      	mov	sl, r4
 8001668:	46ab      	mov	fp, r5
 800166a:	bdf0      	pop	{r4, r5, r6, r7, pc}
 800166c:	2400      	movs	r4, #0
 800166e:	4d35      	ldr	r5, [pc, #212]	; (8001744 <__aeabi_fmul+0x25c>)
 8001670:	21ff      	movs	r1, #255	; 0xff
 8001672:	e7f0      	b.n	8001656 <__aeabi_fmul+0x16e>
 8001674:	4651      	mov	r1, sl
 8001676:	2902      	cmp	r1, #2
 8001678:	d1d2      	bne.n	8001620 <__aeabi_fmul+0x138>
 800167a:	9d01      	ldr	r5, [sp, #4]
 800167c:	2401      	movs	r4, #1
 800167e:	402c      	ands	r4, r5
 8001680:	21ff      	movs	r1, #255	; 0xff
 8001682:	2500      	movs	r5, #0
 8001684:	e7e7      	b.n	8001656 <__aeabi_fmul+0x16e>
 8001686:	465e      	mov	r6, fp
 8001688:	1c3d      	adds	r5, r7, #0
 800168a:	9601      	str	r6, [sp, #4]
 800168c:	e7c6      	b.n	800161c <__aeabi_fmul+0x134>
 800168e:	1c3d      	adds	r5, r7, #0
 8001690:	e7c4      	b.n	800161c <__aeabi_fmul+0x134>
 8001692:	2680      	movs	r6, #128	; 0x80
 8001694:	03f3      	lsls	r3, r6, #15
 8001696:	421d      	tst	r5, r3
 8001698:	d00b      	beq.n	80016b2 <__aeabi_fmul+0x1ca>
 800169a:	421f      	tst	r7, r3
 800169c:	d109      	bne.n	80016b2 <__aeabi_fmul+0x1ca>
 800169e:	431f      	orrs	r7, r3
 80016a0:	027a      	lsls	r2, r7, #9
 80016a2:	0a55      	lsrs	r5, r2, #9
 80016a4:	465c      	mov	r4, fp
 80016a6:	21ff      	movs	r1, #255	; 0xff
 80016a8:	e7d5      	b.n	8001656 <__aeabi_fmul+0x16e>
 80016aa:	2280      	movs	r2, #128	; 0x80
 80016ac:	0257      	lsls	r7, r2, #9
 80016ae:	19e4      	adds	r4, r4, r7
 80016b0:	e760      	b.n	8001574 <__aeabi_fmul+0x8c>
 80016b2:	431d      	orrs	r5, r3
 80016b4:	026f      	lsls	r7, r5, #9
 80016b6:	0a7d      	lsrs	r5, r7, #9
 80016b8:	21ff      	movs	r1, #255	; 0xff
 80016ba:	e7cc      	b.n	8001656 <__aeabi_fmul+0x16e>
 80016bc:	9b01      	ldr	r3, [sp, #4]
 80016be:	2500      	movs	r5, #0
 80016c0:	4019      	ands	r1, r3
 80016c2:	b2cc      	uxtb	r4, r1
 80016c4:	2100      	movs	r1, #0
 80016c6:	e7c6      	b.n	8001656 <__aeabi_fmul+0x16e>
 80016c8:	9801      	ldr	r0, [sp, #4]
 80016ca:	01ad      	lsls	r5, r5, #6
 80016cc:	2401      	movs	r4, #1
 80016ce:	0a6d      	lsrs	r5, r5, #9
 80016d0:	b2f1      	uxtb	r1, r6
 80016d2:	4004      	ands	r4, r0
 80016d4:	e7bf      	b.n	8001656 <__aeabi_fmul+0x16e>
 80016d6:	267e      	movs	r6, #126	; 0x7e
 80016d8:	4273      	negs	r3, r6
 80016da:	464a      	mov	r2, r9
 80016dc:	1a9f      	subs	r7, r3, r2
 80016de:	2f1b      	cmp	r7, #27
 80016e0:	dd05      	ble.n	80016ee <__aeabi_fmul+0x206>
 80016e2:	9d01      	ldr	r5, [sp, #4]
 80016e4:	2401      	movs	r4, #1
 80016e6:	402c      	ands	r4, r5
 80016e8:	2100      	movs	r1, #0
 80016ea:	2500      	movs	r5, #0
 80016ec:	e7b3      	b.n	8001656 <__aeabi_fmul+0x16e>
 80016ee:	4649      	mov	r1, r9
 80016f0:	319e      	adds	r1, #158	; 0x9e
 80016f2:	1c2c      	adds	r4, r5, #0
 80016f4:	408d      	lsls	r5, r1
 80016f6:	1c2e      	adds	r6, r5, #0
 80016f8:	40fc      	lsrs	r4, r7
 80016fa:	1e75      	subs	r5, r6, #1
 80016fc:	41ae      	sbcs	r6, r5
 80016fe:	4326      	orrs	r6, r4
 8001700:	200f      	movs	r0, #15
 8001702:	4030      	ands	r0, r6
 8001704:	2804      	cmp	r0, #4
 8001706:	d000      	beq.n	800170a <__aeabi_fmul+0x222>
 8001708:	3604      	adds	r6, #4
 800170a:	0170      	lsls	r0, r6, #5
 800170c:	d505      	bpl.n	800171a <__aeabi_fmul+0x232>
 800170e:	9f01      	ldr	r7, [sp, #4]
 8001710:	2401      	movs	r4, #1
 8001712:	403c      	ands	r4, r7
 8001714:	2101      	movs	r1, #1
 8001716:	2500      	movs	r5, #0
 8001718:	e79d      	b.n	8001656 <__aeabi_fmul+0x16e>
 800171a:	9a01      	ldr	r2, [sp, #4]
 800171c:	01b3      	lsls	r3, r6, #6
 800171e:	2401      	movs	r4, #1
 8001720:	0a5d      	lsrs	r5, r3, #9
 8001722:	4014      	ands	r4, r2
 8001724:	2100      	movs	r1, #0
 8001726:	e796      	b.n	8001656 <__aeabi_fmul+0x16e>
 8001728:	2280      	movs	r2, #128	; 0x80
 800172a:	03d0      	lsls	r0, r2, #15
 800172c:	4305      	orrs	r5, r0
 800172e:	026c      	lsls	r4, r5, #9
 8001730:	9901      	ldr	r1, [sp, #4]
 8001732:	0a65      	lsrs	r5, r4, #9
 8001734:	2401      	movs	r4, #1
 8001736:	400c      	ands	r4, r1
 8001738:	21ff      	movs	r1, #255	; 0xff
 800173a:	e78c      	b.n	8001656 <__aeabi_fmul+0x16e>
 800173c:	08002788 	.word	0x08002788
 8001740:	f7ffffff 	.word	0xf7ffffff
 8001744:	007fffff 	.word	0x007fffff

08001748 <__aeabi_f2iz>:
 8001748:	0243      	lsls	r3, r0, #9
 800174a:	0042      	lsls	r2, r0, #1
 800174c:	0a59      	lsrs	r1, r3, #9
 800174e:	0e13      	lsrs	r3, r2, #24
 8001750:	0fc2      	lsrs	r2, r0, #31
 8001752:	2000      	movs	r0, #0
 8001754:	2b7e      	cmp	r3, #126	; 0x7e
 8001756:	dd0d      	ble.n	8001774 <__aeabi_f2iz+0x2c>
 8001758:	2b9d      	cmp	r3, #157	; 0x9d
 800175a:	dc0c      	bgt.n	8001776 <__aeabi_f2iz+0x2e>
 800175c:	2080      	movs	r0, #128	; 0x80
 800175e:	0400      	lsls	r0, r0, #16
 8001760:	4301      	orrs	r1, r0
 8001762:	2b95      	cmp	r3, #149	; 0x95
 8001764:	dc0a      	bgt.n	800177c <__aeabi_f2iz+0x34>
 8001766:	2096      	movs	r0, #150	; 0x96
 8001768:	1ac3      	subs	r3, r0, r3
 800176a:	40d9      	lsrs	r1, r3
 800176c:	4248      	negs	r0, r1
 800176e:	2a00      	cmp	r2, #0
 8001770:	d100      	bne.n	8001774 <__aeabi_f2iz+0x2c>
 8001772:	1c08      	adds	r0, r1, #0
 8001774:	4770      	bx	lr
 8001776:	4903      	ldr	r1, [pc, #12]	; (8001784 <__aeabi_f2iz+0x3c>)
 8001778:	1850      	adds	r0, r2, r1
 800177a:	e7fb      	b.n	8001774 <__aeabi_f2iz+0x2c>
 800177c:	3b96      	subs	r3, #150	; 0x96
 800177e:	4099      	lsls	r1, r3
 8001780:	e7f4      	b.n	800176c <__aeabi_f2iz+0x24>
 8001782:	46c0      	nop			; (mov r8, r8)
 8001784:	7fffffff 	.word	0x7fffffff

08001788 <__aeabi_i2f>:
 8001788:	b570      	push	{r4, r5, r6, lr}
 800178a:	1e04      	subs	r4, r0, #0
 800178c:	d03c      	beq.n	8001808 <__aeabi_i2f+0x80>
 800178e:	0fc5      	lsrs	r5, r0, #31
 8001790:	d000      	beq.n	8001794 <__aeabi_i2f+0xc>
 8001792:	4244      	negs	r4, r0
 8001794:	1c20      	adds	r0, r4, #0
 8001796:	f000 f89f 	bl	80018d8 <__clzsi2>
 800179a:	219e      	movs	r1, #158	; 0x9e
 800179c:	1c26      	adds	r6, r4, #0
 800179e:	1a0b      	subs	r3, r1, r0
 80017a0:	2b96      	cmp	r3, #150	; 0x96
 80017a2:	dc0a      	bgt.n	80017ba <__aeabi_i2f+0x32>
 80017a4:	3808      	subs	r0, #8
 80017a6:	4084      	lsls	r4, r0
 80017a8:	0261      	lsls	r1, r4, #9
 80017aa:	0a4c      	lsrs	r4, r1, #9
 80017ac:	b2db      	uxtb	r3, r3
 80017ae:	05db      	lsls	r3, r3, #23
 80017b0:	431c      	orrs	r4, r3
 80017b2:	07ed      	lsls	r5, r5, #31
 80017b4:	1c20      	adds	r0, r4, #0
 80017b6:	4328      	orrs	r0, r5
 80017b8:	bd70      	pop	{r4, r5, r6, pc}
 80017ba:	2b99      	cmp	r3, #153	; 0x99
 80017bc:	dd0a      	ble.n	80017d4 <__aeabi_i2f+0x4c>
 80017be:	2205      	movs	r2, #5
 80017c0:	1a14      	subs	r4, r2, r0
 80017c2:	1c31      	adds	r1, r6, #0
 80017c4:	40e1      	lsrs	r1, r4
 80017c6:	1c04      	adds	r4, r0, #0
 80017c8:	341b      	adds	r4, #27
 80017ca:	40a6      	lsls	r6, r4
 80017cc:	1c0a      	adds	r2, r1, #0
 80017ce:	1e71      	subs	r1, r6, #1
 80017d0:	418e      	sbcs	r6, r1
 80017d2:	4316      	orrs	r6, r2
 80017d4:	2805      	cmp	r0, #5
 80017d6:	dc1b      	bgt.n	8001810 <__aeabi_i2f+0x88>
 80017d8:	4c14      	ldr	r4, [pc, #80]	; (800182c <__aeabi_i2f+0xa4>)
 80017da:	220f      	movs	r2, #15
 80017dc:	4034      	ands	r4, r6
 80017de:	4016      	ands	r6, r2
 80017e0:	2e04      	cmp	r6, #4
 80017e2:	d000      	beq.n	80017e6 <__aeabi_i2f+0x5e>
 80017e4:	3404      	adds	r4, #4
 80017e6:	0162      	lsls	r2, r4, #5
 80017e8:	d505      	bpl.n	80017f6 <__aeabi_i2f+0x6e>
 80017ea:	239f      	movs	r3, #159	; 0x9f
 80017ec:	1a1b      	subs	r3, r3, r0
 80017ee:	2bff      	cmp	r3, #255	; 0xff
 80017f0:	d00c      	beq.n	800180c <__aeabi_i2f+0x84>
 80017f2:	480e      	ldr	r0, [pc, #56]	; (800182c <__aeabi_i2f+0xa4>)
 80017f4:	4004      	ands	r4, r0
 80017f6:	1c5e      	adds	r6, r3, #1
 80017f8:	b2f1      	uxtb	r1, r6
 80017fa:	08e4      	lsrs	r4, r4, #3
 80017fc:	2901      	cmp	r1, #1
 80017fe:	dd0a      	ble.n	8001816 <__aeabi_i2f+0x8e>
 8001800:	0264      	lsls	r4, r4, #9
 8001802:	0a64      	lsrs	r4, r4, #9
 8001804:	b2db      	uxtb	r3, r3
 8001806:	e7d2      	b.n	80017ae <__aeabi_i2f+0x26>
 8001808:	2500      	movs	r5, #0
 800180a:	2300      	movs	r3, #0
 800180c:	2400      	movs	r4, #0
 800180e:	e7ce      	b.n	80017ae <__aeabi_i2f+0x26>
 8001810:	1f41      	subs	r1, r0, #5
 8001812:	408e      	lsls	r6, r1
 8001814:	e7e0      	b.n	80017d8 <__aeabi_i2f+0x50>
 8001816:	2c00      	cmp	r4, #0
 8001818:	d0f4      	beq.n	8001804 <__aeabi_i2f+0x7c>
 800181a:	2b00      	cmp	r3, #0
 800181c:	d003      	beq.n	8001826 <__aeabi_i2f+0x9e>
 800181e:	2280      	movs	r2, #128	; 0x80
 8001820:	03d0      	lsls	r0, r2, #15
 8001822:	4304      	orrs	r4, r0
 8001824:	e7ec      	b.n	8001800 <__aeabi_i2f+0x78>
 8001826:	0266      	lsls	r6, r4, #9
 8001828:	0a74      	lsrs	r4, r6, #9
 800182a:	e7c0      	b.n	80017ae <__aeabi_i2f+0x26>
 800182c:	fbffffff 	.word	0xfbffffff

08001830 <__aeabi_ui2f>:
 8001830:	b510      	push	{r4, lr}
 8001832:	1e04      	subs	r4, r0, #0
 8001834:	d034      	beq.n	80018a0 <__aeabi_ui2f+0x70>
 8001836:	f000 f84f 	bl	80018d8 <__clzsi2>
 800183a:	239e      	movs	r3, #158	; 0x9e
 800183c:	1a1b      	subs	r3, r3, r0
 800183e:	2b96      	cmp	r3, #150	; 0x96
 8001840:	dc07      	bgt.n	8001852 <__aeabi_ui2f+0x22>
 8001842:	3808      	subs	r0, #8
 8001844:	4084      	lsls	r4, r0
 8001846:	0264      	lsls	r4, r4, #9
 8001848:	0a61      	lsrs	r1, r4, #9
 800184a:	b2db      	uxtb	r3, r3
 800184c:	05d8      	lsls	r0, r3, #23
 800184e:	4308      	orrs	r0, r1
 8001850:	bd10      	pop	{r4, pc}
 8001852:	2b99      	cmp	r3, #153	; 0x99
 8001854:	dd0a      	ble.n	800186c <__aeabi_ui2f+0x3c>
 8001856:	1c02      	adds	r2, r0, #0
 8001858:	321b      	adds	r2, #27
 800185a:	1c21      	adds	r1, r4, #0
 800185c:	4091      	lsls	r1, r2
 800185e:	1c0a      	adds	r2, r1, #0
 8001860:	1e51      	subs	r1, r2, #1
 8001862:	418a      	sbcs	r2, r1
 8001864:	2105      	movs	r1, #5
 8001866:	1a09      	subs	r1, r1, r0
 8001868:	40cc      	lsrs	r4, r1
 800186a:	4314      	orrs	r4, r2
 800186c:	2805      	cmp	r0, #5
 800186e:	dc1a      	bgt.n	80018a6 <__aeabi_ui2f+0x76>
 8001870:	4a18      	ldr	r2, [pc, #96]	; (80018d4 <__aeabi_ui2f+0xa4>)
 8001872:	210f      	movs	r1, #15
 8001874:	4022      	ands	r2, r4
 8001876:	400c      	ands	r4, r1
 8001878:	2c04      	cmp	r4, #4
 800187a:	d000      	beq.n	800187e <__aeabi_ui2f+0x4e>
 800187c:	3204      	adds	r2, #4
 800187e:	0151      	lsls	r1, r2, #5
 8001880:	d505      	bpl.n	800188e <__aeabi_ui2f+0x5e>
 8001882:	249f      	movs	r4, #159	; 0x9f
 8001884:	1a23      	subs	r3, r4, r0
 8001886:	2bff      	cmp	r3, #255	; 0xff
 8001888:	d021      	beq.n	80018ce <__aeabi_ui2f+0x9e>
 800188a:	4812      	ldr	r0, [pc, #72]	; (80018d4 <__aeabi_ui2f+0xa4>)
 800188c:	4002      	ands	r2, r0
 800188e:	1c59      	adds	r1, r3, #1
 8001890:	b2cc      	uxtb	r4, r1
 8001892:	08d2      	lsrs	r2, r2, #3
 8001894:	2c01      	cmp	r4, #1
 8001896:	dd09      	ble.n	80018ac <__aeabi_ui2f+0x7c>
 8001898:	0250      	lsls	r0, r2, #9
 800189a:	0a41      	lsrs	r1, r0, #9
 800189c:	b2db      	uxtb	r3, r3
 800189e:	e7d5      	b.n	800184c <__aeabi_ui2f+0x1c>
 80018a0:	2300      	movs	r3, #0
 80018a2:	2100      	movs	r1, #0
 80018a4:	e7d2      	b.n	800184c <__aeabi_ui2f+0x1c>
 80018a6:	1f42      	subs	r2, r0, #5
 80018a8:	4094      	lsls	r4, r2
 80018aa:	e7e1      	b.n	8001870 <__aeabi_ui2f+0x40>
 80018ac:	2a00      	cmp	r2, #0
 80018ae:	d00b      	beq.n	80018c8 <__aeabi_ui2f+0x98>
 80018b0:	2b00      	cmp	r3, #0
 80018b2:	d006      	beq.n	80018c2 <__aeabi_ui2f+0x92>
 80018b4:	2180      	movs	r1, #128	; 0x80
 80018b6:	03cc      	lsls	r4, r1, #15
 80018b8:	4322      	orrs	r2, r4
 80018ba:	0252      	lsls	r2, r2, #9
 80018bc:	0a51      	lsrs	r1, r2, #9
 80018be:	b2db      	uxtb	r3, r3
 80018c0:	e7c4      	b.n	800184c <__aeabi_ui2f+0x1c>
 80018c2:	0250      	lsls	r0, r2, #9
 80018c4:	0a41      	lsrs	r1, r0, #9
 80018c6:	e7c1      	b.n	800184c <__aeabi_ui2f+0x1c>
 80018c8:	b2db      	uxtb	r3, r3
 80018ca:	2100      	movs	r1, #0
 80018cc:	e7be      	b.n	800184c <__aeabi_ui2f+0x1c>
 80018ce:	23ff      	movs	r3, #255	; 0xff
 80018d0:	2100      	movs	r1, #0
 80018d2:	e7bb      	b.n	800184c <__aeabi_ui2f+0x1c>
 80018d4:	fbffffff 	.word	0xfbffffff

080018d8 <__clzsi2>:
 80018d8:	211c      	movs	r1, #28
 80018da:	2301      	movs	r3, #1
 80018dc:	041b      	lsls	r3, r3, #16
 80018de:	4298      	cmp	r0, r3
 80018e0:	d301      	bcc.n	80018e6 <__clzsi2+0xe>
 80018e2:	0c00      	lsrs	r0, r0, #16
 80018e4:	3910      	subs	r1, #16
 80018e6:	0a1b      	lsrs	r3, r3, #8
 80018e8:	4298      	cmp	r0, r3
 80018ea:	d301      	bcc.n	80018f0 <__clzsi2+0x18>
 80018ec:	0a00      	lsrs	r0, r0, #8
 80018ee:	3908      	subs	r1, #8
 80018f0:	091b      	lsrs	r3, r3, #4
 80018f2:	4298      	cmp	r0, r3
 80018f4:	d301      	bcc.n	80018fa <__clzsi2+0x22>
 80018f6:	0900      	lsrs	r0, r0, #4
 80018f8:	3904      	subs	r1, #4
 80018fa:	a202      	add	r2, pc, #8	; (adr r2, 8001904 <__clzsi2+0x2c>)
 80018fc:	5c10      	ldrb	r0, [r2, r0]
 80018fe:	1840      	adds	r0, r0, r1
 8001900:	4770      	bx	lr
 8001902:	46c0      	nop			; (mov r8, r8)
 8001904:	02020304 	.word	0x02020304
 8001908:	01010101 	.word	0x01010101
	...

08001914 <main>:
 8001914:	b508      	push	{r3, lr}
 8001916:	f7fe fc31 	bl	800017c <setup>
 800191a:	f7ff f80d 	bl	8000938 <_Z12read_mavlinkv>
 800191e:	f7ff fa81 	bl	8000e24 <_Z14service_eventsv>
 8001922:	e7fa      	b.n	800191a <main+0x6>

08001924 <_ZN4quan5stm326enableINS0_5usart6moduleILm1073821696EEEEENS_6where_INS_11is_model_ofINS0_5UsartET_EEvE4typeEv>:
 8001924:	4b02      	ldr	r3, [pc, #8]	; (8001930 <_ZN4quan5stm326enableINS0_5usart6moduleILm1073821696EEEEENS_6where_INS_11is_model_ofINS0_5UsartET_EEvE4typeEv+0xc>)
 8001926:	2101      	movs	r1, #1
 8001928:	681a      	ldr	r2, [r3, #0]
 800192a:	430a      	orrs	r2, r1
 800192c:	601a      	str	r2, [r3, #0]
 800192e:	4770      	bx	lr
 8001930:	40013800 	.word	0x40013800

08001934 <_ZNK4quan4meta4impl27for_each_type_sequence_implINS0_13type_sequenceIINS_5stm3210periph_regINS4_4gpio6moduleILm1207959552EEELm8EmEENS5_IS8_Lm12EmEENS5_IS8_Lm16EmEENS5_IS8_Lm20EmEENS5_IS8_Lm24EmEENS5_IS8_Lm28EmEENS5_IS8_Lm32EmEENS5_IS8_Lm36EmEEEEENS4_6detail24apply_periph_reg_actionsIS8_NS3_IINSI_17periph_reg_actionINS5_IS8_Lm0EmEENS0_6bit_orELm524288EEENSK_ISL_NS0_7bit_andELm4294705151EEENSK_ISG_SM_Lm16EEENSK_ISG_SO_Lm4294967071EEENSK_INS5_IS8_Lm4EmEESM_Lm0EEENSK_ISS_SO_Lm4294966783EEENSK_ISA_SM_Lm0EEENSK_ISA_SO_Lm4294180863EEENSK_IS9_SM_Lm0EEENSK_IS9_SO_Lm4294180863EEEEEEEELb1EvEclEv>:
 8001934:	2390      	movs	r3, #144	; 0x90
 8001936:	05d8      	lsls	r0, r3, #23
 8001938:	6881      	ldr	r1, [r0, #8]
 800193a:	4a06      	ldr	r2, [pc, #24]	; (8001954 <_ZNK4quan4meta4impl27for_each_type_sequence_implINS0_13type_sequenceIINS_5stm3210periph_regINS4_4gpio6moduleILm1207959552EEELm8EmEENS5_IS8_Lm12EmEENS5_IS8_Lm16EmEENS5_IS8_Lm20EmEENS5_IS8_Lm24EmEENS5_IS8_Lm28EmEENS5_IS8_Lm32EmEENS5_IS8_Lm36EmEEEEENS4_6detail24apply_periph_reg_actionsIS8_NS3_IINSI_17periph_reg_actionINS5_IS8_Lm0EmEENS0_6bit_orELm524288EEENSK_ISL_NS0_7bit_andELm4294705151EEENSK_ISG_SM_Lm16EEENSK_ISG_SO_Lm4294967071EEENSK_INS5_IS8_Lm4EmEESM_Lm0EEENSK_ISS_SO_Lm4294966783EEENSK_ISA_SM_Lm0EEENSK_ISA_SO_Lm4294180863EEENSK_IS9_SM_Lm0EEENSK_IS9_SO_Lm4294180863EEEEEEEELb1EvEclEv+0x20>)
 800193c:	4011      	ands	r1, r2
 800193e:	6081      	str	r1, [r0, #8]
 8001940:	68c3      	ldr	r3, [r0, #12]
 8001942:	21f0      	movs	r1, #240	; 0xf0
 8001944:	401a      	ands	r2, r3
 8001946:	60c2      	str	r2, [r0, #12]
 8001948:	6a42      	ldr	r2, [r0, #36]	; 0x24
 800194a:	2310      	movs	r3, #16
 800194c:	438a      	bics	r2, r1
 800194e:	431a      	orrs	r2, r3
 8001950:	6242      	str	r2, [r0, #36]	; 0x24
 8001952:	4770      	bx	lr
 8001954:	fff3ffff 	.word	0xfff3ffff

08001958 <_ZNK4quan4meta4impl27for_each_type_sequence_implINS0_13type_sequenceIINS_5stm3210periph_regINS4_4gpio6moduleILm1207959552EEELm8EmEENS5_IS8_Lm12EmEENS5_IS8_Lm16EmEENS5_IS8_Lm20EmEENS5_IS8_Lm24EmEENS5_IS8_Lm28EmEENS5_IS8_Lm32EmEENS5_IS8_Lm36EmEEEEENS4_6detail24apply_periph_reg_actionsIS8_NS3_IINSI_17periph_reg_actionINS5_IS8_Lm0EmEENS0_6bit_orELm2097152EEENSK_ISL_NS0_7bit_andELm4293918719EEENSK_ISG_SM_Lm256EEENSK_ISG_SO_Lm4294963711EEENSK_ISA_SM_Lm1048576EEENSK_ISA_SO_Lm4292870143EEENSK_IS9_SM_Lm0EEENSK_IS9_SO_Lm4291821567EEEEEEEELb1EvEclEv>:
 8001958:	2390      	movs	r3, #144	; 0x90
 800195a:	05d8      	lsls	r0, r3, #23
 800195c:	6881      	ldr	r1, [r0, #8]
 800195e:	4a08      	ldr	r2, [pc, #32]	; (8001980 <_ZNK4quan4meta4impl27for_each_type_sequence_implINS0_13type_sequenceIINS_5stm3210periph_regINS4_4gpio6moduleILm1207959552EEELm8EmEENS5_IS8_Lm12EmEENS5_IS8_Lm16EmEENS5_IS8_Lm20EmEENS5_IS8_Lm24EmEENS5_IS8_Lm28EmEENS5_IS8_Lm32EmEENS5_IS8_Lm36EmEEEEENS4_6detail24apply_periph_reg_actionsIS8_NS3_IINSI_17periph_reg_actionINS5_IS8_Lm0EmEENS0_6bit_orELm2097152EEENSK_ISL_NS0_7bit_andELm4293918719EEENSK_ISG_SM_Lm256EEENSK_ISG_SO_Lm4294963711EEENSK_ISA_SM_Lm1048576EEENSK_ISA_SO_Lm4292870143EEENSK_IS9_SM_Lm0EEENSK_IS9_SO_Lm4291821567EEEEEEEELb1EvEclEv+0x28>)
 8001960:	4011      	ands	r1, r2
 8001962:	6081      	str	r1, [r0, #8]
 8001964:	68c3      	ldr	r3, [r0, #12]
 8001966:	2180      	movs	r1, #128	; 0x80
 8001968:	401a      	ands	r2, r3
 800196a:	034b      	lsls	r3, r1, #13
 800196c:	431a      	orrs	r2, r3
 800196e:	60c2      	str	r2, [r0, #12]
 8001970:	6a41      	ldr	r1, [r0, #36]	; 0x24
 8001972:	4a04      	ldr	r2, [pc, #16]	; (8001984 <_ZNK4quan4meta4impl27for_each_type_sequence_implINS0_13type_sequenceIINS_5stm3210periph_regINS4_4gpio6moduleILm1207959552EEELm8EmEENS5_IS8_Lm12EmEENS5_IS8_Lm16EmEENS5_IS8_Lm20EmEENS5_IS8_Lm24EmEENS5_IS8_Lm28EmEENS5_IS8_Lm32EmEENS5_IS8_Lm36EmEEEEENS4_6detail24apply_periph_reg_actionsIS8_NS3_IINSI_17periph_reg_actionINS5_IS8_Lm0EmEENS0_6bit_orELm2097152EEENSK_ISL_NS0_7bit_andELm4293918719EEENSK_ISG_SM_Lm256EEENSK_ISG_SO_Lm4294963711EEENSK_ISA_SM_Lm1048576EEENSK_ISA_SO_Lm4292870143EEENSK_IS9_SM_Lm0EEENSK_IS9_SO_Lm4291821567EEEEEEEELb1EvEclEv+0x2c>)
 8001974:	2380      	movs	r3, #128	; 0x80
 8001976:	400a      	ands	r2, r1
 8001978:	0059      	lsls	r1, r3, #1
 800197a:	430a      	orrs	r2, r1
 800197c:	6242      	str	r2, [r0, #36]	; 0x24
 800197e:	4770      	bx	lr
 8001980:	ffcfffff 	.word	0xffcfffff
 8001984:	fffff0ff 	.word	0xfffff0ff

08001988 <_ZN4quan5stm326detail26periph_reg_combined_actionINS0_10periph_regINS0_5usart6moduleILm1073821696EEELm0EmEELm12ELm4294928911EE11with_or_fun5applyEv>:
 8001988:	4b03      	ldr	r3, [pc, #12]	; (8001998 <_ZN4quan5stm326detail26periph_reg_combined_actionINS0_10periph_regINS0_5usart6moduleILm1073821696EEELm0EmEELm12ELm4294928911EE11with_or_fun5applyEv+0x10>)
 800198a:	4a04      	ldr	r2, [pc, #16]	; (800199c <_ZN4quan5stm326detail26periph_reg_combined_actionINS0_10periph_regINS0_5usart6moduleILm1073821696EEELm0EmEELm12ELm4294928911EE11with_or_fun5applyEv+0x14>)
 800198c:	6819      	ldr	r1, [r3, #0]
 800198e:	200c      	movs	r0, #12
 8001990:	400a      	ands	r2, r1
 8001992:	4302      	orrs	r2, r0
 8001994:	601a      	str	r2, [r3, #0]
 8001996:	4770      	bx	lr
 8001998:	40013800 	.word	0x40013800
 800199c:	ffff6a03 	.word	0xffff6a03

080019a0 <_ZN4quan5stm326detail26periph_reg_combined_actionINS0_10periph_regINS0_4gpio6moduleILm1207959552EEELm0EmEELm524288ELm4294705151EE11with_or_fun5applyEv>:
 80019a0:	2390      	movs	r3, #144	; 0x90
 80019a2:	05d8      	lsls	r0, r3, #23
 80019a4:	6801      	ldr	r1, [r0, #0]
 80019a6:	4a03      	ldr	r2, [pc, #12]	; (80019b4 <_ZN4quan5stm326detail26periph_reg_combined_actionINS0_10periph_regINS0_4gpio6moduleILm1207959552EEELm0EmEELm524288ELm4294705151EE11with_or_fun5applyEv+0x14>)
 80019a8:	2380      	movs	r3, #128	; 0x80
 80019aa:	400a      	ands	r2, r1
 80019ac:	0319      	lsls	r1, r3, #12
 80019ae:	430a      	orrs	r2, r1
 80019b0:	6002      	str	r2, [r0, #0]
 80019b2:	4770      	bx	lr
 80019b4:	fff3ffff 	.word	0xfff3ffff

080019b8 <_ZN4quan5stm326detail26periph_reg_combined_actionINS0_10periph_regINS0_4gpio6moduleILm1207959552EEELm0EmEELm2097152ELm4293918719EE11with_or_fun5applyEv>:
 80019b8:	2390      	movs	r3, #144	; 0x90
 80019ba:	05d8      	lsls	r0, r3, #23
 80019bc:	6801      	ldr	r1, [r0, #0]
 80019be:	4a03      	ldr	r2, [pc, #12]	; (80019cc <_ZN4quan5stm326detail26periph_reg_combined_actionINS0_10periph_regINS0_4gpio6moduleILm1207959552EEELm0EmEELm2097152ELm4293918719EE11with_or_fun5applyEv+0x14>)
 80019c0:	2380      	movs	r3, #128	; 0x80
 80019c2:	400a      	ands	r2, r1
 80019c4:	0399      	lsls	r1, r3, #14
 80019c6:	430a      	orrs	r2, r1
 80019c8:	6002      	str	r2, [r0, #0]
 80019ca:	4770      	bx	lr
 80019cc:	ffcfffff 	.word	0xffcfffff

080019d0 <_ZN4quan5stm3211serial_portINS0_5usart6moduleILm1073821696EEELj200ELj200ENS_3mcu3pinINS0_4gpio6moduleILm1207959552EEELm9EEENS6_IS9_Lm10EEEE4initEv>:
 80019d0:	b537      	push	{r0, r1, r2, r4, r5, lr}
 80019d2:	4b24      	ldr	r3, [pc, #144]	; (8001a64 <_ZN4quan5stm3211serial_portINS0_5usart6moduleILm1073821696EEELj200ELj200ENS_3mcu3pinINS0_4gpio6moduleILm1207959552EEELm9EEENS6_IS9_Lm10EEEE4initEv+0x94>)
 80019d4:	4c24      	ldr	r4, [pc, #144]	; (8001a68 <_ZN4quan5stm3211serial_portINS0_5usart6moduleILm1073821696EEELj200ELj200ENS_3mcu3pinINS0_4gpio6moduleILm1207959552EEELm9EEENS6_IS9_Lm10EEEE4initEv+0x98>)
 80019d6:	1c1a      	adds	r2, r3, #0
 80019d8:	1c21      	adds	r1, r4, #0
 80019da:	2000      	movs	r0, #0
 80019dc:	3208      	adds	r2, #8
 80019de:	3108      	adds	r1, #8
 80019e0:	601a      	str	r2, [r3, #0]
 80019e2:	6058      	str	r0, [r3, #4]
 80019e4:	6021      	str	r1, [r4, #0]
 80019e6:	6060      	str	r0, [r4, #4]
 80019e8:	4c20      	ldr	r4, [pc, #128]	; (8001a6c <_ZN4quan5stm3211serial_portINS0_5usart6moduleILm1073821696EEELj200ELj200ENS_3mcu3pinINS0_4gpio6moduleILm1207959552EEELm9EEENS6_IS9_Lm10EEEE4initEv+0x9c>)
 80019ea:	2380      	movs	r3, #128	; 0x80
 80019ec:	68e5      	ldr	r5, [r4, #12]
 80019ee:	01d8      	lsls	r0, r3, #7
 80019f0:	4305      	orrs	r5, r0
 80019f2:	60e5      	str	r5, [r4, #12]
 80019f4:	68e1      	ldr	r1, [r4, #12]
 80019f6:	4a1e      	ldr	r2, [pc, #120]	; (8001a70 <_ZN4quan5stm3211serial_portINS0_5usart6moduleILm1073821696EEELj200ELj200ENS_3mcu3pinINS0_4gpio6moduleILm1207959552EEELm9EEENS6_IS9_Lm10EEEE4initEv+0xa0>)
 80019f8:	400a      	ands	r2, r1
 80019fa:	60e2      	str	r2, [r4, #12]
 80019fc:	69a5      	ldr	r5, [r4, #24]
 80019fe:	4328      	orrs	r0, r5
 8001a00:	61a0      	str	r0, [r4, #24]
 8001a02:	6963      	ldr	r3, [r4, #20]
 8001a04:	2080      	movs	r0, #128	; 0x80
 8001a06:	0285      	lsls	r5, r0, #10
 8001a08:	432b      	orrs	r3, r5
 8001a0a:	6163      	str	r3, [r4, #20]
 8001a0c:	f7ff ffc8 	bl	80019a0 <_ZN4quan5stm326detail26periph_reg_combined_actionINS0_10periph_regINS0_4gpio6moduleILm1207959552EEELm0EmEELm524288ELm4294705151EE11with_or_fun5applyEv>
 8001a10:	2190      	movs	r1, #144	; 0x90
 8001a12:	05cb      	lsls	r3, r1, #23
 8001a14:	6858      	ldr	r0, [r3, #4]
 8001a16:	4a17      	ldr	r2, [pc, #92]	; (8001a74 <_ZN4quan5stm3211serial_portINS0_5usart6moduleILm1073821696EEELj200ELj200ENS_3mcu3pinINS0_4gpio6moduleILm1207959552EEELm9EEENS6_IS9_Lm10EEEE4initEv+0xa4>)
 8001a18:	4002      	ands	r2, r0
 8001a1a:	605a      	str	r2, [r3, #4]
 8001a1c:	4668      	mov	r0, sp
 8001a1e:	f7ff ff89 	bl	8001934 <_ZNK4quan4meta4impl27for_each_type_sequence_implINS0_13type_sequenceIINS_5stm3210periph_regINS4_4gpio6moduleILm1207959552EEELm8EmEENS5_IS8_Lm12EmEENS5_IS8_Lm16EmEENS5_IS8_Lm20EmEENS5_IS8_Lm24EmEENS5_IS8_Lm28EmEENS5_IS8_Lm32EmEENS5_IS8_Lm36EmEEEEENS4_6detail24apply_periph_reg_actionsIS8_NS3_IINSI_17periph_reg_actionINS5_IS8_Lm0EmEENS0_6bit_orELm524288EEENSK_ISL_NS0_7bit_andELm4294705151EEENSK_ISG_SM_Lm16EEENSK_ISG_SO_Lm4294967071EEENSK_INS5_IS8_Lm4EmEESM_Lm0EEENSK_ISS_SO_Lm4294966783EEENSK_ISA_SM_Lm0EEENSK_ISA_SO_Lm4294180863EEENSK_IS9_SM_Lm0EEENSK_IS9_SO_Lm4294180863EEEEEEEELb1EvEclEv>
 8001a22:	6961      	ldr	r1, [r4, #20]
 8001a24:	430d      	orrs	r5, r1
 8001a26:	6165      	str	r5, [r4, #20]
 8001a28:	4c13      	ldr	r4, [pc, #76]	; (8001a78 <_ZN4quan5stm3211serial_portINS0_5usart6moduleILm1073821696EEELj200ELj200ENS_3mcu3pinINS0_4gpio6moduleILm1207959552EEELm9EEENS6_IS9_Lm10EEEE4initEv+0xa8>)
 8001a2a:	f7ff ffc5 	bl	80019b8 <_ZN4quan5stm326detail26periph_reg_combined_actionINS0_10periph_regINS0_4gpio6moduleILm1207959552EEELm0EmEELm2097152ELm4293918719EE11with_or_fun5applyEv>
 8001a2e:	a801      	add	r0, sp, #4
 8001a30:	f7ff ff92 	bl	8001958 <_ZNK4quan4meta4impl27for_each_type_sequence_implINS0_13type_sequenceIINS_5stm3210periph_regINS4_4gpio6moduleILm1207959552EEELm8EmEENS5_IS8_Lm12EmEENS5_IS8_Lm16EmEENS5_IS8_Lm20EmEENS5_IS8_Lm24EmEENS5_IS8_Lm28EmEENS5_IS8_Lm32EmEENS5_IS8_Lm36EmEEEEENS4_6detail24apply_periph_reg_actionsIS8_NS3_IINSI_17periph_reg_actionINS5_IS8_Lm0EmEENS0_6bit_orELm2097152EEENSK_ISL_NS0_7bit_andELm4293918719EEENSK_ISG_SM_Lm256EEENSK_ISG_SO_Lm4294963711EEENSK_ISA_SM_Lm1048576EEENSK_ISA_SO_Lm4292870143EEENSK_IS9_SM_Lm0EEENSK_IS9_SO_Lm4291821567EEEEEEEELb1EvEclEv>
 8001a34:	f7ff ffa8 	bl	8001988 <_ZN4quan5stm326detail26periph_reg_combined_actionINS0_10periph_regINS0_5usart6moduleILm1073821696EEELm0EmEELm12ELm4294928911EE11with_or_fun5applyEv>
 8001a38:	6865      	ldr	r5, [r4, #4]
 8001a3a:	4b10      	ldr	r3, [pc, #64]	; (8001a7c <_ZN4quan5stm3211serial_portINS0_5usart6moduleILm1073821696EEELj200ELj200ENS_3mcu3pinINS0_4gpio6moduleILm1207959552EEELm9EEENS6_IS9_Lm10EEEE4initEv+0xac>)
 8001a3c:	4a10      	ldr	r2, [pc, #64]	; (8001a80 <_ZN4quan5stm3211serial_portINS0_5usart6moduleILm1073821696EEELj200ELj200ENS_3mcu3pinINS0_4gpio6moduleILm1207959552EEELm9EEENS6_IS9_Lm10EEEE4initEv+0xb0>)
 8001a3e:	402b      	ands	r3, r5
 8001a40:	6063      	str	r3, [r4, #4]
 8001a42:	68a0      	ldr	r0, [r4, #8]
 8001a44:	2580      	movs	r5, #128	; 0x80
 8001a46:	4002      	ands	r2, r0
 8001a48:	490e      	ldr	r1, [pc, #56]	; (8001a84 <_ZN4quan5stm3211serial_portINS0_5usart6moduleILm1073821696EEELj200ELj200ENS_3mcu3pinINS0_4gpio6moduleILm1207959552EEELm9EEENS6_IS9_Lm10EEEE4initEv+0xb4>)
 8001a4a:	480f      	ldr	r0, [pc, #60]	; (8001a88 <_ZN4quan5stm3211serial_portINS0_5usart6moduleILm1073821696EEELj200ELj200ENS_3mcu3pinINS0_4gpio6moduleILm1207959552EEELm9EEENS6_IS9_Lm10EEEE4initEv+0xb8>)
 8001a4c:	052b      	lsls	r3, r5, #20
 8001a4e:	60a2      	str	r2, [r4, #8]
 8001a50:	60e1      	str	r1, [r4, #12]
 8001a52:	6003      	str	r3, [r0, #0]
 8001a54:	6822      	ldr	r2, [r4, #0]
 8001a56:	2120      	movs	r1, #32
 8001a58:	430a      	orrs	r2, r1
 8001a5a:	6022      	str	r2, [r4, #0]
 8001a5c:	f7ff ff62 	bl	8001924 <_ZN4quan5stm326enableINS0_5usart6moduleILm1073821696EEEEENS_6where_INS_11is_model_ofINS0_5UsartET_EEvE4typeEv>
 8001a60:	bd37      	pop	{r0, r1, r2, r4, r5, pc}
 8001a62:	46c0      	nop			; (mov r8, r8)
 8001a64:	200006e0 	.word	0x200006e0
 8001a68:	200007b0 	.word	0x200007b0
 8001a6c:	40021000 	.word	0x40021000
 8001a70:	ffffbfff 	.word	0xffffbfff
 8001a74:	fffffdff 	.word	0xfffffdff
 8001a78:	40013800 	.word	0x40013800
 8001a7c:	ffffc7bf 	.word	0xffffc7bf
 8001a80:	fffff8fe 	.word	0xfffff8fe
 8001a84:	00001388 	.word	0x00001388
 8001a88:	e000e100 	.word	0xe000e100

08001a8c <_GLOBAL__sub_I___cxa_pure_virtual>:
 8001a8c:	4b0b      	ldr	r3, [pc, #44]	; (8001abc <_GLOBAL__sub_I___cxa_pure_virtual+0x30>)
 8001a8e:	2101      	movs	r1, #1
 8001a90:	681a      	ldr	r2, [r3, #0]
 8001a92:	400a      	ands	r2, r1
 8001a94:	d105      	bne.n	8001aa2 <_GLOBAL__sub_I___cxa_pure_virtual+0x16>
 8001a96:	480a      	ldr	r0, [pc, #40]	; (8001ac0 <_GLOBAL__sub_I___cxa_pure_virtual+0x34>)
 8001a98:	6019      	str	r1, [r3, #0]
 8001a9a:	1c03      	adds	r3, r0, #0
 8001a9c:	3308      	adds	r3, #8
 8001a9e:	6003      	str	r3, [r0, #0]
 8001aa0:	6042      	str	r2, [r0, #4]
 8001aa2:	4808      	ldr	r0, [pc, #32]	; (8001ac4 <_GLOBAL__sub_I___cxa_pure_virtual+0x38>)
 8001aa4:	2101      	movs	r1, #1
 8001aa6:	6802      	ldr	r2, [r0, #0]
 8001aa8:	400a      	ands	r2, r1
 8001aaa:	d105      	bne.n	8001ab8 <_GLOBAL__sub_I___cxa_pure_virtual+0x2c>
 8001aac:	4b06      	ldr	r3, [pc, #24]	; (8001ac8 <_GLOBAL__sub_I___cxa_pure_virtual+0x3c>)
 8001aae:	6001      	str	r1, [r0, #0]
 8001ab0:	1c18      	adds	r0, r3, #0
 8001ab2:	3008      	adds	r0, #8
 8001ab4:	6018      	str	r0, [r3, #0]
 8001ab6:	605a      	str	r2, [r3, #4]
 8001ab8:	4770      	bx	lr
 8001aba:	46c0      	nop			; (mov r8, r8)
 8001abc:	20000880 	.word	0x20000880
 8001ac0:	200006e0 	.word	0x200006e0
 8001ac4:	20000884 	.word	0x20000884
 8001ac8:	200007b0 	.word	0x200007b0

08001acc <_ZN4quan4fifoIcLi200ELb1EE3getEv>:
 8001acc:	1c03      	adds	r3, r0, #0
 8001ace:	6842      	ldr	r2, [r0, #4]
 8001ad0:	6819      	ldr	r1, [r3, #0]
 8001ad2:	7810      	ldrb	r0, [r2, #0]
 8001ad4:	2900      	cmp	r1, #0
 8001ad6:	d101      	bne.n	8001adc <_ZN4quan4fifoIcLi200ELb1EE3getEv+0x10>
 8001ad8:	685a      	ldr	r2, [r3, #4]
 8001ada:	601a      	str	r2, [r3, #0]
 8001adc:	6859      	ldr	r1, [r3, #4]
 8001ade:	1c1a      	adds	r2, r3, #0
 8001ae0:	3101      	adds	r1, #1
 8001ae2:	6059      	str	r1, [r3, #4]
 8001ae4:	6859      	ldr	r1, [r3, #4]
 8001ae6:	32d0      	adds	r2, #208	; 0xd0
 8001ae8:	4291      	cmp	r1, r2
 8001aea:	d101      	bne.n	8001af0 <_ZN4quan4fifoIcLi200ELb1EE3getEv+0x24>
 8001aec:	3ac8      	subs	r2, #200	; 0xc8
 8001aee:	605a      	str	r2, [r3, #4]
 8001af0:	6859      	ldr	r1, [r3, #4]
 8001af2:	681a      	ldr	r2, [r3, #0]
 8001af4:	4291      	cmp	r1, r2
 8001af6:	d101      	bne.n	8001afc <_ZN4quan4fifoIcLi200ELb1EE3getEv+0x30>
 8001af8:	2100      	movs	r1, #0
 8001afa:	6059      	str	r1, [r3, #4]
 8001afc:	4770      	bx	lr

08001afe <_ZN4quan4fifoIcLi200ELb1EE3putERKc>:
 8001afe:	1c03      	adds	r3, r0, #0
 8001b00:	6800      	ldr	r0, [r0, #0]
 8001b02:	2800      	cmp	r0, #0
 8001b04:	d018      	beq.n	8001b38 <_ZN4quan4fifoIcLi200ELb1EE3putERKc+0x3a>
 8001b06:	681a      	ldr	r2, [r3, #0]
 8001b08:	7809      	ldrb	r1, [r1, #0]
 8001b0a:	7011      	strb	r1, [r2, #0]
 8001b0c:	6858      	ldr	r0, [r3, #4]
 8001b0e:	2800      	cmp	r0, #0
 8001b10:	d101      	bne.n	8001b16 <_ZN4quan4fifoIcLi200ELb1EE3putERKc+0x18>
 8001b12:	681a      	ldr	r2, [r3, #0]
 8001b14:	605a      	str	r2, [r3, #4]
 8001b16:	6819      	ldr	r1, [r3, #0]
 8001b18:	1c1a      	adds	r2, r3, #0
 8001b1a:	3101      	adds	r1, #1
 8001b1c:	6019      	str	r1, [r3, #0]
 8001b1e:	6818      	ldr	r0, [r3, #0]
 8001b20:	32d0      	adds	r2, #208	; 0xd0
 8001b22:	4290      	cmp	r0, r2
 8001b24:	d101      	bne.n	8001b2a <_ZN4quan4fifoIcLi200ELb1EE3putERKc+0x2c>
 8001b26:	3ac8      	subs	r2, #200	; 0xc8
 8001b28:	601a      	str	r2, [r3, #0]
 8001b2a:	6819      	ldr	r1, [r3, #0]
 8001b2c:	685a      	ldr	r2, [r3, #4]
 8001b2e:	2001      	movs	r0, #1
 8001b30:	4291      	cmp	r1, r2
 8001b32:	d101      	bne.n	8001b38 <_ZN4quan4fifoIcLi200ELb1EE3putERKc+0x3a>
 8001b34:	2100      	movs	r1, #0
 8001b36:	6019      	str	r1, [r3, #0]
 8001b38:	4770      	bx	lr
	...

08001b3c <_ZN4quan5stm325usart11irq_handlerINS0_11serial_portINS1_6moduleILm1073759232EEELj200ELj200ENS_3mcu3pinINS0_4gpio6moduleILm1207959552EEELm2EEENS7_ISA_Lm3EEEEEEEvv>:
 8001b3c:	b573      	push	{r0, r1, r4, r5, r6, lr}
 8001b3e:	4c17      	ldr	r4, [pc, #92]	; (8001b9c <_ZN4quan5stm325usart11irq_handlerINS0_11serial_portINS1_6moduleILm1073759232EEELj200ELj200ENS_3mcu3pinINS0_4gpio6moduleILm1207959552EEELm2EEENS7_ISA_Lm3EEEEEEEvv+0x60>)
 8001b40:	2320      	movs	r3, #32
 8001b42:	6822      	ldr	r2, [r4, #0]
 8001b44:	421a      	tst	r2, r3
 8001b46:	d010      	beq.n	8001b6a <_ZN4quan5stm325usart11irq_handlerINS0_11serial_portINS1_6moduleILm1073759232EEELj200ELj200ENS_3mcu3pinINS0_4gpio6moduleILm1207959552EEELm2EEENS7_ISA_Lm3EEEEEEEvv+0x2e>
 8001b48:	69e0      	ldr	r0, [r4, #28]
 8001b4a:	4218      	tst	r0, r3
 8001b4c:	d00d      	beq.n	8001b6a <_ZN4quan5stm325usart11irq_handlerINS0_11serial_portINS1_6moduleILm1073759232EEELj200ELj200ENS_3mcu3pinINS0_4gpio6moduleILm1207959552EEELm2EEENS7_ISA_Lm3EEEEEEEvv+0x2e>
 8001b4e:	4d14      	ldr	r5, [pc, #80]	; (8001ba0 <_ZN4quan5stm325usart11irq_handlerINS0_11serial_portINS1_6moduleILm1073759232EEELj200ELj200ENS_3mcu3pinINS0_4gpio6moduleILm1207959552EEELm2EEENS7_ISA_Lm3EEEEEEEvv+0x64>)
 8001b50:	6829      	ldr	r1, [r5, #0]
 8001b52:	2900      	cmp	r1, #0
 8001b54:	d102      	bne.n	8001b5c <_ZN4quan5stm325usart11irq_handlerINS0_11serial_portINS1_6moduleILm1073759232EEELj200ELj200ENS_3mcu3pinINS0_4gpio6moduleILm1207959552EEELm2EEENS7_ISA_Lm3EEEEEEEvv+0x20>
 8001b56:	1c28      	adds	r0, r5, #0
 8001b58:	f7ff ffb8 	bl	8001acc <_ZN4quan4fifoIcLi200ELb1EE3getEv>
 8001b5c:	6a66      	ldr	r6, [r4, #36]	; 0x24
 8001b5e:	4669      	mov	r1, sp
 8001b60:	3107      	adds	r1, #7
 8001b62:	1c28      	adds	r0, r5, #0
 8001b64:	700e      	strb	r6, [r1, #0]
 8001b66:	f7ff ffca 	bl	8001afe <_ZN4quan4fifoIcLi200ELb1EE3putERKc>
 8001b6a:	6822      	ldr	r2, [r4, #0]
 8001b6c:	2380      	movs	r3, #128	; 0x80
 8001b6e:	4e0b      	ldr	r6, [pc, #44]	; (8001b9c <_ZN4quan5stm325usart11irq_handlerINS0_11serial_portINS1_6moduleILm1073759232EEELj200ELj200ENS_3mcu3pinINS0_4gpio6moduleILm1207959552EEELm2EEENS7_ISA_Lm3EEEEEEEvv+0x60>)
 8001b70:	421a      	tst	r2, r3
 8001b72:	d011      	beq.n	8001b98 <_ZN4quan5stm325usart11irq_handlerINS0_11serial_portINS1_6moduleILm1073759232EEELj200ELj200ENS_3mcu3pinINS0_4gpio6moduleILm1207959552EEELm2EEENS7_ISA_Lm3EEEEEEEvv+0x5c>
 8001b74:	4d0b      	ldr	r5, [pc, #44]	; (8001ba4 <_ZN4quan5stm325usart11irq_handlerINS0_11serial_portINS1_6moduleILm1073759232EEELj200ELj200ENS_3mcu3pinINS0_4gpio6moduleILm1207959552EEELm2EEENS7_ISA_Lm3EEEEEEEvv+0x68>)
 8001b76:	6868      	ldr	r0, [r5, #4]
 8001b78:	2800      	cmp	r0, #0
 8001b7a:	d006      	beq.n	8001b8a <_ZN4quan5stm325usart11irq_handlerINS0_11serial_portINS1_6moduleILm1073759232EEELj200ELj200ENS_3mcu3pinINS0_4gpio6moduleILm1207959552EEELm2EEENS7_ISA_Lm3EEEEEEEvv+0x4e>
 8001b7c:	69f1      	ldr	r1, [r6, #28]
 8001b7e:	4219      	tst	r1, r3
 8001b80:	d003      	beq.n	8001b8a <_ZN4quan5stm325usart11irq_handlerINS0_11serial_portINS1_6moduleILm1073759232EEELj200ELj200ENS_3mcu3pinINS0_4gpio6moduleILm1207959552EEELm2EEENS7_ISA_Lm3EEEEEEEvv+0x4e>
 8001b82:	1c28      	adds	r0, r5, #0
 8001b84:	f7ff ffa2 	bl	8001acc <_ZN4quan4fifoIcLi200ELb1EE3getEv>
 8001b88:	62b0      	str	r0, [r6, #40]	; 0x28
 8001b8a:	686e      	ldr	r6, [r5, #4]
 8001b8c:	2e00      	cmp	r6, #0
 8001b8e:	d103      	bne.n	8001b98 <_ZN4quan5stm325usart11irq_handlerINS0_11serial_portINS1_6moduleILm1073759232EEELj200ELj200ENS_3mcu3pinINS0_4gpio6moduleILm1207959552EEELm2EEENS7_ISA_Lm3EEEEEEEvv+0x5c>
 8001b90:	6823      	ldr	r3, [r4, #0]
 8001b92:	2280      	movs	r2, #128	; 0x80
 8001b94:	4393      	bics	r3, r2
 8001b96:	6023      	str	r3, [r4, #0]
 8001b98:	bd73      	pop	{r0, r1, r4, r5, r6, pc}
 8001b9a:	46c0      	nop			; (mov r8, r8)
 8001b9c:	40004400 	.word	0x40004400
 8001ba0:	20000888 	.word	0x20000888
 8001ba4:	20000958 	.word	0x20000958

08001ba8 <_ZN4quan5stm325usart11irq_handlerINS0_11serial_portINS1_6moduleILm1073821696EEELj200ELj200ENS_3mcu3pinINS0_4gpio6moduleILm1207959552EEELm9EEENS7_ISA_Lm10EEEEEEEvv>:
 8001ba8:	b573      	push	{r0, r1, r4, r5, r6, lr}
 8001baa:	4c17      	ldr	r4, [pc, #92]	; (8001c08 <_ZN4quan5stm325usart11irq_handlerINS0_11serial_portINS1_6moduleILm1073821696EEELj200ELj200ENS_3mcu3pinINS0_4gpio6moduleILm1207959552EEELm9EEENS7_ISA_Lm10EEEEEEEvv+0x60>)
 8001bac:	2320      	movs	r3, #32
 8001bae:	6822      	ldr	r2, [r4, #0]
 8001bb0:	421a      	tst	r2, r3
 8001bb2:	d010      	beq.n	8001bd6 <_ZN4quan5stm325usart11irq_handlerINS0_11serial_portINS1_6moduleILm1073821696EEELj200ELj200ENS_3mcu3pinINS0_4gpio6moduleILm1207959552EEELm9EEENS7_ISA_Lm10EEEEEEEvv+0x2e>
 8001bb4:	69e0      	ldr	r0, [r4, #28]
 8001bb6:	4218      	tst	r0, r3
 8001bb8:	d00d      	beq.n	8001bd6 <_ZN4quan5stm325usart11irq_handlerINS0_11serial_portINS1_6moduleILm1073821696EEELj200ELj200ENS_3mcu3pinINS0_4gpio6moduleILm1207959552EEELm9EEENS7_ISA_Lm10EEEEEEEvv+0x2e>
 8001bba:	4d14      	ldr	r5, [pc, #80]	; (8001c0c <_ZN4quan5stm325usart11irq_handlerINS0_11serial_portINS1_6moduleILm1073821696EEELj200ELj200ENS_3mcu3pinINS0_4gpio6moduleILm1207959552EEELm9EEENS7_ISA_Lm10EEEEEEEvv+0x64>)
 8001bbc:	6829      	ldr	r1, [r5, #0]
 8001bbe:	2900      	cmp	r1, #0
 8001bc0:	d102      	bne.n	8001bc8 <_ZN4quan5stm325usart11irq_handlerINS0_11serial_portINS1_6moduleILm1073821696EEELj200ELj200ENS_3mcu3pinINS0_4gpio6moduleILm1207959552EEELm9EEENS7_ISA_Lm10EEEEEEEvv+0x20>
 8001bc2:	1c28      	adds	r0, r5, #0
 8001bc4:	f7ff ff82 	bl	8001acc <_ZN4quan4fifoIcLi200ELb1EE3getEv>
 8001bc8:	6a66      	ldr	r6, [r4, #36]	; 0x24
 8001bca:	4669      	mov	r1, sp
 8001bcc:	3107      	adds	r1, #7
 8001bce:	1c28      	adds	r0, r5, #0
 8001bd0:	700e      	strb	r6, [r1, #0]
 8001bd2:	f7ff ff94 	bl	8001afe <_ZN4quan4fifoIcLi200ELb1EE3putERKc>
 8001bd6:	6822      	ldr	r2, [r4, #0]
 8001bd8:	2380      	movs	r3, #128	; 0x80
 8001bda:	4e0b      	ldr	r6, [pc, #44]	; (8001c08 <_ZN4quan5stm325usart11irq_handlerINS0_11serial_portINS1_6moduleILm1073821696EEELj200ELj200ENS_3mcu3pinINS0_4gpio6moduleILm1207959552EEELm9EEENS7_ISA_Lm10EEEEEEEvv+0x60>)
 8001bdc:	421a      	tst	r2, r3
 8001bde:	d011      	beq.n	8001c04 <_ZN4quan5stm325usart11irq_handlerINS0_11serial_portINS1_6moduleILm1073821696EEELj200ELj200ENS_3mcu3pinINS0_4gpio6moduleILm1207959552EEELm9EEENS7_ISA_Lm10EEEEEEEvv+0x5c>
 8001be0:	4d0b      	ldr	r5, [pc, #44]	; (8001c10 <_ZN4quan5stm325usart11irq_handlerINS0_11serial_portINS1_6moduleILm1073821696EEELj200ELj200ENS_3mcu3pinINS0_4gpio6moduleILm1207959552EEELm9EEENS7_ISA_Lm10EEEEEEEvv+0x68>)
 8001be2:	6868      	ldr	r0, [r5, #4]
 8001be4:	2800      	cmp	r0, #0
 8001be6:	d006      	beq.n	8001bf6 <_ZN4quan5stm325usart11irq_handlerINS0_11serial_portINS1_6moduleILm1073821696EEELj200ELj200ENS_3mcu3pinINS0_4gpio6moduleILm1207959552EEELm9EEENS7_ISA_Lm10EEEEEEEvv+0x4e>
 8001be8:	69f1      	ldr	r1, [r6, #28]
 8001bea:	4219      	tst	r1, r3
 8001bec:	d003      	beq.n	8001bf6 <_ZN4quan5stm325usart11irq_handlerINS0_11serial_portINS1_6moduleILm1073821696EEELj200ELj200ENS_3mcu3pinINS0_4gpio6moduleILm1207959552EEELm9EEENS7_ISA_Lm10EEEEEEEvv+0x4e>
 8001bee:	1c28      	adds	r0, r5, #0
 8001bf0:	f7ff ff6c 	bl	8001acc <_ZN4quan4fifoIcLi200ELb1EE3getEv>
 8001bf4:	62b0      	str	r0, [r6, #40]	; 0x28
 8001bf6:	686e      	ldr	r6, [r5, #4]
 8001bf8:	2e00      	cmp	r6, #0
 8001bfa:	d103      	bne.n	8001c04 <_ZN4quan5stm325usart11irq_handlerINS0_11serial_portINS1_6moduleILm1073821696EEELj200ELj200ENS_3mcu3pinINS0_4gpio6moduleILm1207959552EEELm9EEENS7_ISA_Lm10EEEEEEEvv+0x5c>
 8001bfc:	6823      	ldr	r3, [r4, #0]
 8001bfe:	2280      	movs	r2, #128	; 0x80
 8001c00:	4393      	bics	r3, r2
 8001c02:	6023      	str	r3, [r4, #0]
 8001c04:	bd73      	pop	{r0, r1, r4, r5, r6, pc}
 8001c06:	46c0      	nop			; (mov r8, r8)
 8001c08:	40013800 	.word	0x40013800
 8001c0c:	200007b0 	.word	0x200007b0
 8001c10:	200006e0 	.word	0x200006e0

08001c14 <_GLOBAL__sub_I_USART2_IRQHandler>:
 8001c14:	4b16      	ldr	r3, [pc, #88]	; (8001c70 <_GLOBAL__sub_I_USART2_IRQHandler+0x5c>)
 8001c16:	2101      	movs	r1, #1
 8001c18:	681a      	ldr	r2, [r3, #0]
 8001c1a:	400a      	ands	r2, r1
 8001c1c:	d105      	bne.n	8001c2a <_GLOBAL__sub_I_USART2_IRQHandler+0x16>
 8001c1e:	4815      	ldr	r0, [pc, #84]	; (8001c74 <_GLOBAL__sub_I_USART2_IRQHandler+0x60>)
 8001c20:	6019      	str	r1, [r3, #0]
 8001c22:	1c03      	adds	r3, r0, #0
 8001c24:	3308      	adds	r3, #8
 8001c26:	6003      	str	r3, [r0, #0]
 8001c28:	6042      	str	r2, [r0, #4]
 8001c2a:	4813      	ldr	r0, [pc, #76]	; (8001c78 <_GLOBAL__sub_I_USART2_IRQHandler+0x64>)
 8001c2c:	2101      	movs	r1, #1
 8001c2e:	6802      	ldr	r2, [r0, #0]
 8001c30:	400a      	ands	r2, r1
 8001c32:	d105      	bne.n	8001c40 <_GLOBAL__sub_I_USART2_IRQHandler+0x2c>
 8001c34:	4b11      	ldr	r3, [pc, #68]	; (8001c7c <_GLOBAL__sub_I_USART2_IRQHandler+0x68>)
 8001c36:	6001      	str	r1, [r0, #0]
 8001c38:	1c18      	adds	r0, r3, #0
 8001c3a:	3008      	adds	r0, #8
 8001c3c:	6018      	str	r0, [r3, #0]
 8001c3e:	605a      	str	r2, [r3, #4]
 8001c40:	4b0f      	ldr	r3, [pc, #60]	; (8001c80 <_GLOBAL__sub_I_USART2_IRQHandler+0x6c>)
 8001c42:	2101      	movs	r1, #1
 8001c44:	681a      	ldr	r2, [r3, #0]
 8001c46:	400a      	ands	r2, r1
 8001c48:	d105      	bne.n	8001c56 <_GLOBAL__sub_I_USART2_IRQHandler+0x42>
 8001c4a:	480e      	ldr	r0, [pc, #56]	; (8001c84 <_GLOBAL__sub_I_USART2_IRQHandler+0x70>)
 8001c4c:	6019      	str	r1, [r3, #0]
 8001c4e:	1c03      	adds	r3, r0, #0
 8001c50:	3308      	adds	r3, #8
 8001c52:	6003      	str	r3, [r0, #0]
 8001c54:	6042      	str	r2, [r0, #4]
 8001c56:	480c      	ldr	r0, [pc, #48]	; (8001c88 <_GLOBAL__sub_I_USART2_IRQHandler+0x74>)
 8001c58:	2101      	movs	r1, #1
 8001c5a:	6802      	ldr	r2, [r0, #0]
 8001c5c:	400a      	ands	r2, r1
 8001c5e:	d105      	bne.n	8001c6c <_GLOBAL__sub_I_USART2_IRQHandler+0x58>
 8001c60:	4b0a      	ldr	r3, [pc, #40]	; (8001c8c <_GLOBAL__sub_I_USART2_IRQHandler+0x78>)
 8001c62:	6001      	str	r1, [r0, #0]
 8001c64:	1c18      	adds	r0, r3, #0
 8001c66:	3008      	adds	r0, #8
 8001c68:	6018      	str	r0, [r3, #0]
 8001c6a:	605a      	str	r2, [r3, #4]
 8001c6c:	4770      	bx	lr
 8001c6e:	46c0      	nop			; (mov r8, r8)
 8001c70:	20000a28 	.word	0x20000a28
 8001c74:	20000888 	.word	0x20000888
 8001c78:	20000a2c 	.word	0x20000a2c
 8001c7c:	20000958 	.word	0x20000958
 8001c80:	20000884 	.word	0x20000884
 8001c84:	200007b0 	.word	0x200007b0
 8001c88:	20000880 	.word	0x20000880
 8001c8c:	200006e0 	.word	0x200006e0

08001c90 <_GLOBAL__sub_I__ZN3fsk3putEc>:
 8001c90:	4b03      	ldr	r3, [pc, #12]	; (8001ca0 <_GLOBAL__sub_I__ZN3fsk3putEc+0x10>)
 8001c92:	2000      	movs	r0, #0
 8001c94:	1c1a      	adds	r2, r3, #0
 8001c96:	3214      	adds	r2, #20
 8001c98:	60da      	str	r2, [r3, #12]
 8001c9a:	6118      	str	r0, [r3, #16]
 8001c9c:	4770      	bx	lr
 8001c9e:	46c0      	nop			; (mov r8, r8)
 8001ca0:	20000464 	.word	0x20000464
 8001ca4:	00000000 	.word	0x00000000

08001ca8 <_ZN4quan7tracker12zapp3_encodeERKNS_3uav8positionINS_22fraction_of_revolutionINS_4meta8rationalILx1ELx1EEENS5_ILx3600000000ELx1EEElEENS_14fixed_quantityINS4_4unitINS4_17abstract_quantityINS4_9dimensionIS6_NS5_ILx0ELx1EEESD_SD_SD_SD_SD_EENS4_10components9of_lengthEEENS4_17conversion_factorINS5_ILxn3ELx1EEES6_NS4_5int32ILl0EEEEEEElEEEERA16_h>:
 8001ca8:	b57f      	push	{r0, r1, r2, r3, r4, r5, r6, lr}
 8001caa:	6804      	ldr	r4, [r0, #0]
 8001cac:	1c22      	adds	r2, r4, #0
 8001cae:	17e3      	asrs	r3, r4, #31
 8001cb0:	d105      	bne.n	8001cbe <_ZN4quan7tracker12zapp3_encodeERKNS_3uav8positionINS_22fraction_of_revolutionINS_4meta8rationalILx1ELx1EEENS5_ILx3600000000ELx1EEElEENS_14fixed_quantityINS4_4unitINS4_17abstract_quantityINS4_9dimensionIS6_NS5_ILx0ELx1EEESD_SD_SD_SD_SD_EENS4_10components9of_lengthEEENS4_17conversion_factorINS5_ILxn3ELx1EEES6_NS4_5int32ILl0EEEEEEElEEEERA16_h+0x16>
 8001cb2:	4d39      	ldr	r5, [pc, #228]	; (8001d98 <_ZN4quan7tracker12zapp3_encodeERKNS_3uav8positionINS_22fraction_of_revolutionINS_4meta8rationalILx1ELx1EEENS5_ILx3600000000ELx1EEElEENS_14fixed_quantityINS4_4unitINS4_17abstract_quantityINS4_9dimensionIS6_NS5_ILx0ELx1EEESD_SD_SD_SD_SD_EENS4_10components9of_lengthEEENS4_17conversion_factorINS5_ILxn3ELx1EEES6_NS4_5int32ILl0EEEEEEElEEEERA16_h+0xf0>)
 8001cb4:	42ac      	cmp	r4, r5
 8001cb6:	d902      	bls.n	8001cbe <_ZN4quan7tracker12zapp3_encodeERKNS_3uav8positionINS_22fraction_of_revolutionINS_4meta8rationalILx1ELx1EEENS5_ILx3600000000ELx1EEElEENS_14fixed_quantityINS4_4unitINS4_17abstract_quantityINS4_9dimensionIS6_NS5_ILx0ELx1EEESD_SD_SD_SD_SD_EENS4_10components9of_lengthEEENS4_17conversion_factorINS5_ILxn3ELx1EEES6_NS4_5int32ILl0EEEEEEElEEEERA16_h+0x16>
 8001cb8:	4d34      	ldr	r5, [pc, #208]	; (8001d8c <_ZN4quan7tracker12zapp3_encodeERKNS_3uav8positionINS_22fraction_of_revolutionINS_4meta8rationalILx1ELx1EEENS5_ILx3600000000ELx1EEElEENS_14fixed_quantityINS4_4unitINS4_17abstract_quantityINS4_9dimensionIS6_NS5_ILx0ELx1EEESD_SD_SD_SD_SD_EENS4_10components9of_lengthEEENS4_17conversion_factorINS5_ILxn3ELx1EEES6_NS4_5int32ILl0EEEEEEElEEEERA16_h+0xe4>)
 8001cba:	4c33      	ldr	r4, [pc, #204]	; (8001d88 <_ZN4quan7tracker12zapp3_encodeERKNS_3uav8positionINS_22fraction_of_revolutionINS_4meta8rationalILx1ELx1EEENS5_ILx3600000000ELx1EEElEENS_14fixed_quantityINS4_4unitINS4_17abstract_quantityINS4_9dimensionIS6_NS5_ILx0ELx1EEESD_SD_SD_SD_SD_EENS4_10components9of_lengthEEENS4_17conversion_factorINS5_ILxn3ELx1EEES6_NS4_5int32ILl0EEEEEEElEEEERA16_h+0xe0>)
 8001cbc:	e008      	b.n	8001cd0 <_ZN4quan7tracker12zapp3_encodeERKNS_3uav8positionINS_22fraction_of_revolutionINS_4meta8rationalILx1ELx1EEENS5_ILx3600000000ELx1EEElEENS_14fixed_quantityINS4_4unitINS4_17abstract_quantityINS4_9dimensionIS6_NS5_ILx0ELx1EEESD_SD_SD_SD_SD_EENS4_10components9of_lengthEEENS4_17conversion_factorINS5_ILxn3ELx1EEES6_NS4_5int32ILl0EEEEEEElEEEERA16_h+0x28>
 8001cbe:	1c5c      	adds	r4, r3, #1
 8001cc0:	db04      	blt.n	8001ccc <_ZN4quan7tracker12zapp3_encodeERKNS_3uav8positionINS_22fraction_of_revolutionINS_4meta8rationalILx1ELx1EEENS5_ILx3600000000ELx1EEElEENS_14fixed_quantityINS4_4unitINS4_17abstract_quantityINS4_9dimensionIS6_NS5_ILx0ELx1EEESD_SD_SD_SD_SD_EENS4_10components9of_lengthEEENS4_17conversion_factorINS5_ILxn3ELx1EEES6_NS4_5int32ILl0EEEEEEElEEEERA16_h+0x24>
 8001cc2:	1c5d      	adds	r5, r3, #1
 8001cc4:	d106      	bne.n	8001cd4 <_ZN4quan7tracker12zapp3_encodeERKNS_3uav8positionINS_22fraction_of_revolutionINS_4meta8rationalILx1ELx1EEENS5_ILx3600000000ELx1EEElEENS_14fixed_quantityINS4_4unitINS4_17abstract_quantityINS4_9dimensionIS6_NS5_ILx0ELx1EEESD_SD_SD_SD_SD_EENS4_10components9of_lengthEEENS4_17conversion_factorINS5_ILxn3ELx1EEES6_NS4_5int32ILl0EEEEEEElEEEERA16_h+0x2c>
 8001cc6:	4e35      	ldr	r6, [pc, #212]	; (8001d9c <_ZN4quan7tracker12zapp3_encodeERKNS_3uav8positionINS_22fraction_of_revolutionINS_4meta8rationalILx1ELx1EEENS5_ILx3600000000ELx1EEElEENS_14fixed_quantityINS4_4unitINS4_17abstract_quantityINS4_9dimensionIS6_NS5_ILx0ELx1EEESD_SD_SD_SD_SD_EENS4_10components9of_lengthEEENS4_17conversion_factorINS5_ILxn3ELx1EEES6_NS4_5int32ILl0EEEEEEElEEEERA16_h+0xf4>)
 8001cc8:	42b2      	cmp	r2, r6
 8001cca:	d203      	bcs.n	8001cd4 <_ZN4quan7tracker12zapp3_encodeERKNS_3uav8positionINS_22fraction_of_revolutionINS_4meta8rationalILx1ELx1EEENS5_ILx3600000000ELx1EEElEENS_14fixed_quantityINS4_4unitINS4_17abstract_quantityINS4_9dimensionIS6_NS5_ILx0ELx1EEESD_SD_SD_SD_SD_EENS4_10components9of_lengthEEENS4_17conversion_factorINS5_ILxn3ELx1EEES6_NS4_5int32ILl0EEEEEEElEEEERA16_h+0x2c>
 8001ccc:	4c30      	ldr	r4, [pc, #192]	; (8001d90 <_ZN4quan7tracker12zapp3_encodeERKNS_3uav8positionINS_22fraction_of_revolutionINS_4meta8rationalILx1ELx1EEENS5_ILx3600000000ELx1EEElEENS_14fixed_quantityINS4_4unitINS4_17abstract_quantityINS4_9dimensionIS6_NS5_ILx0ELx1EEESD_SD_SD_SD_SD_EENS4_10components9of_lengthEEENS4_17conversion_factorINS5_ILxn3ELx1EEES6_NS4_5int32ILl0EEEEEEElEEEERA16_h+0xe8>)
 8001cce:	4d31      	ldr	r5, [pc, #196]	; (8001d94 <_ZN4quan7tracker12zapp3_encodeERKNS_3uav8positionINS_22fraction_of_revolutionINS_4meta8rationalILx1ELx1EEENS5_ILx3600000000ELx1EEElEENS_14fixed_quantityINS4_4unitINS4_17abstract_quantityINS4_9dimensionIS6_NS5_ILx0ELx1EEESD_SD_SD_SD_SD_EENS4_10components9of_lengthEEENS4_17conversion_factorINS5_ILxn3ELx1EEES6_NS4_5int32ILl0EEEEEEElEEEERA16_h+0xec>)
 8001cd0:	1912      	adds	r2, r2, r4
 8001cd2:	416b      	adcs	r3, r5
 8001cd4:	6843      	ldr	r3, [r0, #4]
 8001cd6:	9200      	str	r2, [sp, #0]
 8001cd8:	1c1a      	adds	r2, r3, #0
 8001cda:	17db      	asrs	r3, r3, #31
 8001cdc:	d105      	bne.n	8001cea <_ZN4quan7tracker12zapp3_encodeERKNS_3uav8positionINS_22fraction_of_revolutionINS_4meta8rationalILx1ELx1EEENS5_ILx3600000000ELx1EEElEENS_14fixed_quantityINS4_4unitINS4_17abstract_quantityINS4_9dimensionIS6_NS5_ILx0ELx1EEESD_SD_SD_SD_SD_EENS4_10components9of_lengthEEENS4_17conversion_factorINS5_ILxn3ELx1EEES6_NS4_5int32ILl0EEEEEEElEEEERA16_h+0x42>
 8001cde:	4d2e      	ldr	r5, [pc, #184]	; (8001d98 <_ZN4quan7tracker12zapp3_encodeERKNS_3uav8positionINS_22fraction_of_revolutionINS_4meta8rationalILx1ELx1EEENS5_ILx3600000000ELx1EEElEENS_14fixed_quantityINS4_4unitINS4_17abstract_quantityINS4_9dimensionIS6_NS5_ILx0ELx1EEESD_SD_SD_SD_SD_EENS4_10components9of_lengthEEENS4_17conversion_factorINS5_ILxn3ELx1EEES6_NS4_5int32ILl0EEEEEEElEEEERA16_h+0xf0>)
 8001ce0:	42aa      	cmp	r2, r5
 8001ce2:	d902      	bls.n	8001cea <_ZN4quan7tracker12zapp3_encodeERKNS_3uav8positionINS_22fraction_of_revolutionINS_4meta8rationalILx1ELx1EEENS5_ILx3600000000ELx1EEElEENS_14fixed_quantityINS4_4unitINS4_17abstract_quantityINS4_9dimensionIS6_NS5_ILx0ELx1EEESD_SD_SD_SD_SD_EENS4_10components9of_lengthEEENS4_17conversion_factorINS5_ILxn3ELx1EEES6_NS4_5int32ILl0EEEEEEElEEEERA16_h+0x42>
 8001ce4:	4d29      	ldr	r5, [pc, #164]	; (8001d8c <_ZN4quan7tracker12zapp3_encodeERKNS_3uav8positionINS_22fraction_of_revolutionINS_4meta8rationalILx1ELx1EEENS5_ILx3600000000ELx1EEElEENS_14fixed_quantityINS4_4unitINS4_17abstract_quantityINS4_9dimensionIS6_NS5_ILx0ELx1EEESD_SD_SD_SD_SD_EENS4_10components9of_lengthEEENS4_17conversion_factorINS5_ILxn3ELx1EEES6_NS4_5int32ILl0EEEEEEElEEEERA16_h+0xe4>)
 8001ce6:	4c28      	ldr	r4, [pc, #160]	; (8001d88 <_ZN4quan7tracker12zapp3_encodeERKNS_3uav8positionINS_22fraction_of_revolutionINS_4meta8rationalILx1ELx1EEENS5_ILx3600000000ELx1EEElEENS_14fixed_quantityINS4_4unitINS4_17abstract_quantityINS4_9dimensionIS6_NS5_ILx0ELx1EEESD_SD_SD_SD_SD_EENS4_10components9of_lengthEEENS4_17conversion_factorINS5_ILxn3ELx1EEES6_NS4_5int32ILl0EEEEEEElEEEERA16_h+0xe0>)
 8001ce8:	e008      	b.n	8001cfc <_ZN4quan7tracker12zapp3_encodeERKNS_3uav8positionINS_22fraction_of_revolutionINS_4meta8rationalILx1ELx1EEENS5_ILx3600000000ELx1EEElEENS_14fixed_quantityINS4_4unitINS4_17abstract_quantityINS4_9dimensionIS6_NS5_ILx0ELx1EEESD_SD_SD_SD_SD_EENS4_10components9of_lengthEEENS4_17conversion_factorINS5_ILxn3ELx1EEES6_NS4_5int32ILl0EEEEEEElEEEERA16_h+0x54>
 8001cea:	1c5c      	adds	r4, r3, #1
 8001cec:	db04      	blt.n	8001cf8 <_ZN4quan7tracker12zapp3_encodeERKNS_3uav8positionINS_22fraction_of_revolutionINS_4meta8rationalILx1ELx1EEENS5_ILx3600000000ELx1EEElEENS_14fixed_quantityINS4_4unitINS4_17abstract_quantityINS4_9dimensionIS6_NS5_ILx0ELx1EEESD_SD_SD_SD_SD_EENS4_10components9of_lengthEEENS4_17conversion_factorINS5_ILxn3ELx1EEES6_NS4_5int32ILl0EEEEEEElEEEERA16_h+0x50>
 8001cee:	1c5d      	adds	r5, r3, #1
 8001cf0:	d106      	bne.n	8001d00 <_ZN4quan7tracker12zapp3_encodeERKNS_3uav8positionINS_22fraction_of_revolutionINS_4meta8rationalILx1ELx1EEENS5_ILx3600000000ELx1EEElEENS_14fixed_quantityINS4_4unitINS4_17abstract_quantityINS4_9dimensionIS6_NS5_ILx0ELx1EEESD_SD_SD_SD_SD_EENS4_10components9of_lengthEEENS4_17conversion_factorINS5_ILxn3ELx1EEES6_NS4_5int32ILl0EEEEEEElEEEERA16_h+0x58>
 8001cf2:	4e2a      	ldr	r6, [pc, #168]	; (8001d9c <_ZN4quan7tracker12zapp3_encodeERKNS_3uav8positionINS_22fraction_of_revolutionINS_4meta8rationalILx1ELx1EEENS5_ILx3600000000ELx1EEElEENS_14fixed_quantityINS4_4unitINS4_17abstract_quantityINS4_9dimensionIS6_NS5_ILx0ELx1EEESD_SD_SD_SD_SD_EENS4_10components9of_lengthEEENS4_17conversion_factorINS5_ILxn3ELx1EEES6_NS4_5int32ILl0EEEEEEElEEEERA16_h+0xf4>)
 8001cf4:	42b2      	cmp	r2, r6
 8001cf6:	d203      	bcs.n	8001d00 <_ZN4quan7tracker12zapp3_encodeERKNS_3uav8positionINS_22fraction_of_revolutionINS_4meta8rationalILx1ELx1EEENS5_ILx3600000000ELx1EEElEENS_14fixed_quantityINS4_4unitINS4_17abstract_quantityINS4_9dimensionIS6_NS5_ILx0ELx1EEESD_SD_SD_SD_SD_EENS4_10components9of_lengthEEENS4_17conversion_factorINS5_ILxn3ELx1EEES6_NS4_5int32ILl0EEEEEEElEEEERA16_h+0x58>
 8001cf8:	4c25      	ldr	r4, [pc, #148]	; (8001d90 <_ZN4quan7tracker12zapp3_encodeERKNS_3uav8positionINS_22fraction_of_revolutionINS_4meta8rationalILx1ELx1EEENS5_ILx3600000000ELx1EEElEENS_14fixed_quantityINS4_4unitINS4_17abstract_quantityINS4_9dimensionIS6_NS5_ILx0ELx1EEESD_SD_SD_SD_SD_EENS4_10components9of_lengthEEENS4_17conversion_factorINS5_ILxn3ELx1EEES6_NS4_5int32ILl0EEEEEEElEEEERA16_h+0xe8>)
 8001cfa:	4d26      	ldr	r5, [pc, #152]	; (8001d94 <_ZN4quan7tracker12zapp3_encodeERKNS_3uav8positionINS_22fraction_of_revolutionINS_4meta8rationalILx1ELx1EEENS5_ILx3600000000ELx1EEElEENS_14fixed_quantityINS4_4unitINS4_17abstract_quantityINS4_9dimensionIS6_NS5_ILx0ELx1EEESD_SD_SD_SD_SD_EENS4_10components9of_lengthEEENS4_17conversion_factorINS5_ILxn3ELx1EEES6_NS4_5int32ILl0EEEEEEElEEEERA16_h+0xec>)
 8001cfc:	1912      	adds	r2, r2, r4
 8001cfe:	416b      	adcs	r3, r5
 8001d00:	6880      	ldr	r0, [r0, #8]
 8001d02:	23ff      	movs	r3, #255	; 0xff
 8001d04:	9201      	str	r2, [sp, #4]
 8001d06:	9002      	str	r0, [sp, #8]
 8001d08:	2200      	movs	r2, #0
 8001d0a:	1c1e      	adds	r6, r3, #0
 8001d0c:	466d      	mov	r5, sp
 8001d0e:	5cac      	ldrb	r4, [r5, r2]
 8001d10:	3201      	adds	r2, #1
 8001d12:	1934      	adds	r4, r6, r4
 8001d14:	b2a6      	uxth	r6, r4
 8001d16:	1998      	adds	r0, r3, r6
 8001d18:	b283      	uxth	r3, r0
 8001d1a:	2a0c      	cmp	r2, #12
 8001d1c:	d1f6      	bne.n	8001d0c <_ZN4quan7tracker12zapp3_encodeERKNS_3uav8positionINS_22fraction_of_revolutionINS_4meta8rationalILx1ELx1EEENS5_ILx3600000000ELx1EEElEENS_14fixed_quantityINS4_4unitINS4_17abstract_quantityINS4_9dimensionIS6_NS5_ILx0ELx1EEESD_SD_SD_SD_SD_EENS4_10components9of_lengthEEENS4_17conversion_factorINS5_ILxn3ELx1EEES6_NS4_5int32ILl0EEEEEEElEEEERA16_h+0x64>
 8001d1e:	1232      	asrs	r2, r6, #8
 8001d20:	26ff      	movs	r6, #255	; 0xff
 8001d22:	b285      	uxth	r5, r0
 8001d24:	4034      	ands	r4, r6
 8001d26:	122b      	asrs	r3, r5, #8
 8001d28:	1914      	adds	r4, r2, r4
 8001d2a:	4030      	ands	r0, r6
 8001d2c:	1818      	adds	r0, r3, r0
 8001d2e:	1c22      	adds	r2, r4, #0
 8001d30:	4032      	ands	r2, r6
 8001d32:	0a05      	lsrs	r5, r0, #8
 8001d34:	4006      	ands	r6, r0
 8001d36:	0a24      	lsrs	r4, r4, #8
 8001d38:	19ae      	adds	r6, r5, r6
 8001d3a:	18a0      	adds	r0, r4, r2
 8001d3c:	0233      	lsls	r3, r6, #8
 8001d3e:	4303      	orrs	r3, r0
 8001d40:	b29c      	uxth	r4, r3
 8001d42:	466a      	mov	r2, sp
 8001d44:	0a25      	lsrs	r5, r4, #8
 8001d46:	7314      	strb	r4, [r2, #12]
 8001d48:	7355      	strb	r5, [r2, #13]
 8001d4a:	1c48      	adds	r0, r1, #1
 8001d4c:	1c8a      	adds	r2, r1, #2
 8001d4e:	2400      	movs	r4, #0
 8001d50:	2301      	movs	r3, #1
 8001d52:	466e      	mov	r6, sp
 8001d54:	5d36      	ldrb	r6, [r6, r4]
 8001d56:	1c55      	adds	r5, r2, #1
 8001d58:	2e00      	cmp	r6, #0
 8001d5a:	d103      	bne.n	8001d64 <_ZN4quan7tracker12zapp3_encodeERKNS_3uav8positionINS_22fraction_of_revolutionINS_4meta8rationalILx1ELx1EEENS5_ILx3600000000ELx1EEElEENS_14fixed_quantityINS4_4unitINS4_17abstract_quantityINS4_9dimensionIS6_NS5_ILx0ELx1EEESD_SD_SD_SD_SD_EENS4_10components9of_lengthEEENS4_17conversion_factorINS5_ILxn3ELx1EEES6_NS4_5int32ILl0EEEEEEElEEEERA16_h+0xbc>
 8001d5c:	7003      	strb	r3, [r0, #0]
 8001d5e:	1c10      	adds	r0, r2, #0
 8001d60:	1c2a      	adds	r2, r5, #0
 8001d62:	e007      	b.n	8001d74 <_ZN4quan7tracker12zapp3_encodeERKNS_3uav8positionINS_22fraction_of_revolutionINS_4meta8rationalILx1ELx1EEENS5_ILx3600000000ELx1EEElEENS_14fixed_quantityINS4_4unitINS4_17abstract_quantityINS4_9dimensionIS6_NS5_ILx0ELx1EEESD_SD_SD_SD_SD_EENS4_10components9of_lengthEEENS4_17conversion_factorINS5_ILxn3ELx1EEES6_NS4_5int32ILl0EEEEEEElEEEERA16_h+0xcc>
 8001d64:	3301      	adds	r3, #1
 8001d66:	b2db      	uxtb	r3, r3
 8001d68:	7016      	strb	r6, [r2, #0]
 8001d6a:	2bff      	cmp	r3, #255	; 0xff
 8001d6c:	d104      	bne.n	8001d78 <_ZN4quan7tracker12zapp3_encodeERKNS_3uav8positionINS_22fraction_of_revolutionINS_4meta8rationalILx1ELx1EEENS5_ILx3600000000ELx1EEElEENS_14fixed_quantityINS4_4unitINS4_17abstract_quantityINS4_9dimensionIS6_NS5_ILx0ELx1EEESD_SD_SD_SD_SD_EENS4_10components9of_lengthEEENS4_17conversion_factorINS5_ILxn3ELx1EEES6_NS4_5int32ILl0EEEEEEElEEEERA16_h+0xd0>
 8001d6e:	7003      	strb	r3, [r0, #0]
 8001d70:	3202      	adds	r2, #2
 8001d72:	1c28      	adds	r0, r5, #0
 8001d74:	2301      	movs	r3, #1
 8001d76:	e000      	b.n	8001d7a <_ZN4quan7tracker12zapp3_encodeERKNS_3uav8positionINS_22fraction_of_revolutionINS_4meta8rationalILx1ELx1EEENS5_ILx3600000000ELx1EEElEENS_14fixed_quantityINS4_4unitINS4_17abstract_quantityINS4_9dimensionIS6_NS5_ILx0ELx1EEESD_SD_SD_SD_SD_EENS4_10components9of_lengthEEENS4_17conversion_factorINS5_ILxn3ELx1EEES6_NS4_5int32ILl0EEEEEEElEEEERA16_h+0xd2>
 8001d78:	1c2a      	adds	r2, r5, #0
 8001d7a:	3401      	adds	r4, #1
 8001d7c:	2c0e      	cmp	r4, #14
 8001d7e:	d1e8      	bne.n	8001d52 <_ZN4quan7tracker12zapp3_encodeERKNS_3uav8positionINS_22fraction_of_revolutionINS_4meta8rationalILx1ELx1EEENS5_ILx3600000000ELx1EEElEENS_14fixed_quantityINS4_4unitINS4_17abstract_quantityINS4_9dimensionIS6_NS5_ILx0ELx1EEESD_SD_SD_SD_SD_EENS4_10components9of_lengthEEENS4_17conversion_factorINS5_ILxn3ELx1EEES6_NS4_5int32ILl0EEEEEEElEEEERA16_h+0xaa>
 8001d80:	7003      	strb	r3, [r0, #0]
 8001d82:	2000      	movs	r0, #0
 8001d84:	7008      	strb	r0, [r1, #0]
 8001d86:	bd7f      	pop	{r0, r1, r2, r3, r4, r5, r6, pc}
 8001d88:	296c5c00 	.word	0x296c5c00
 8001d8c:	ffffffff 	.word	0xffffffff
 8001d90:	d693a400 	.word	0xd693a400
 8001d94:	00000000 	.word	0x00000000
 8001d98:	6b49d200 	.word	0x6b49d200
 8001d9c:	94b62e01 	.word	0x94b62e01

08001da0 <_GLOBAL__sub_I__ZN3fsk12send_messageEv>:
 8001da0:	4b05      	ldr	r3, [pc, #20]	; (8001db8 <_GLOBAL__sub_I__ZN3fsk12send_messageEv+0x18>)
 8001da2:	2200      	movs	r2, #0
 8001da4:	4805      	ldr	r0, [pc, #20]	; (8001dbc <_GLOBAL__sub_I__ZN3fsk12send_messageEv+0x1c>)
 8001da6:	601a      	str	r2, [r3, #0]
 8001da8:	21c8      	movs	r1, #200	; 0xc8
 8001daa:	731a      	strb	r2, [r3, #12]
 8001dac:	2201      	movs	r2, #1
 8001dae:	6059      	str	r1, [r3, #4]
 8001db0:	6098      	str	r0, [r3, #8]
 8001db2:	735a      	strb	r2, [r3, #13]
 8001db4:	4770      	bx	lr
 8001db6:	46c0      	nop			; (mov r8, r8)
 8001db8:	200004f0 	.word	0x200004f0
 8001dbc:	0800056d 	.word	0x0800056d

08001dc0 <_ZN4quan5stm326enableINS0_5usart6moduleILm1073759232EEEEENS_6where_INS_11is_model_ofINS0_5UsartET_EEvE4typeEv>:
 8001dc0:	4b02      	ldr	r3, [pc, #8]	; (8001dcc <_ZN4quan5stm326enableINS0_5usart6moduleILm1073759232EEEEENS_6where_INS_11is_model_ofINS0_5UsartET_EEvE4typeEv+0xc>)
 8001dc2:	2101      	movs	r1, #1
 8001dc4:	681a      	ldr	r2, [r3, #0]
 8001dc6:	430a      	orrs	r2, r1
 8001dc8:	601a      	str	r2, [r3, #0]
 8001dca:	4770      	bx	lr
 8001dcc:	40004400 	.word	0x40004400

08001dd0 <_ZNK4quan4meta4impl27for_each_type_sequence_implINS0_13type_sequenceIINS_5stm3210periph_regINS4_4gpio6moduleILm1207959552EEELm8EmEENS5_IS8_Lm12EmEENS5_IS8_Lm16EmEENS5_IS8_Lm20EmEENS5_IS8_Lm24EmEENS5_IS8_Lm28EmEENS5_IS8_Lm32EmEENS5_IS8_Lm36EmEEEEENS4_6detail24apply_periph_reg_actionsIS8_NS3_IINSI_17periph_reg_actionINS5_IS8_Lm0EmEENS0_6bit_orELm32EEENSK_ISL_NS0_7bit_andELm4294967279EEENSK_ISF_SM_Lm256EEENSK_ISF_SO_Lm4294963711EEENSK_INS5_IS8_Lm4EmEESM_Lm0EEENSK_ISS_SO_Lm4294967291EEENSK_ISA_SM_Lm0EEENSK_ISA_SO_Lm4294967247EEENSK_IS9_SM_Lm0EEENSK_IS9_SO_Lm4294967247EEEEEEEELb1EvEclEv>:
 8001dd0:	2390      	movs	r3, #144	; 0x90
 8001dd2:	05d8      	lsls	r0, r3, #23
 8001dd4:	6881      	ldr	r1, [r0, #8]
 8001dd6:	2230      	movs	r2, #48	; 0x30
 8001dd8:	4391      	bics	r1, r2
 8001dda:	6081      	str	r1, [r0, #8]
 8001ddc:	68c3      	ldr	r3, [r0, #12]
 8001dde:	2180      	movs	r1, #128	; 0x80
 8001de0:	4393      	bics	r3, r2
 8001de2:	60c3      	str	r3, [r0, #12]
 8001de4:	6a03      	ldr	r3, [r0, #32]
 8001de6:	4a03      	ldr	r2, [pc, #12]	; (8001df4 <_ZNK4quan4meta4impl27for_each_type_sequence_implINS0_13type_sequenceIINS_5stm3210periph_regINS4_4gpio6moduleILm1207959552EEELm8EmEENS5_IS8_Lm12EmEENS5_IS8_Lm16EmEENS5_IS8_Lm20EmEENS5_IS8_Lm24EmEENS5_IS8_Lm28EmEENS5_IS8_Lm32EmEENS5_IS8_Lm36EmEEEEENS4_6detail24apply_periph_reg_actionsIS8_NS3_IINSI_17periph_reg_actionINS5_IS8_Lm0EmEENS0_6bit_orELm32EEENSK_ISL_NS0_7bit_andELm4294967279EEENSK_ISF_SM_Lm256EEENSK_ISF_SO_Lm4294963711EEENSK_INS5_IS8_Lm4EmEESM_Lm0EEENSK_ISS_SO_Lm4294967291EEENSK_ISA_SM_Lm0EEENSK_ISA_SO_Lm4294967247EEENSK_IS9_SM_Lm0EEENSK_IS9_SO_Lm4294967247EEEEEEEELb1EvEclEv+0x24>)
 8001de8:	401a      	ands	r2, r3
 8001dea:	004b      	lsls	r3, r1, #1
 8001dec:	431a      	orrs	r2, r3
 8001dee:	6202      	str	r2, [r0, #32]
 8001df0:	4770      	bx	lr
 8001df2:	46c0      	nop			; (mov r8, r8)
 8001df4:	fffff0ff 	.word	0xfffff0ff

08001df8 <_ZNK4quan4meta4impl27for_each_type_sequence_implINS0_13type_sequenceIINS_5stm3210periph_regINS4_4gpio6moduleILm1207959552EEELm8EmEENS5_IS8_Lm12EmEENS5_IS8_Lm16EmEENS5_IS8_Lm20EmEENS5_IS8_Lm24EmEENS5_IS8_Lm28EmEENS5_IS8_Lm32EmEENS5_IS8_Lm36EmEEEEENS4_6detail24apply_periph_reg_actionsIS8_NS3_IINSI_17periph_reg_actionINS5_IS8_Lm0EmEENS0_6bit_orELm128EEENSK_ISL_NS0_7bit_andELm4294967231EEENSK_ISF_SM_Lm4096EEENSK_ISF_SO_Lm4294909951EEENSK_ISA_SM_Lm64EEENSK_ISA_SO_Lm4294967167EEENSK_IS9_SM_Lm0EEENSK_IS9_SO_Lm4294967103EEEEEEEELb1EvEclEv>:
 8001df8:	2390      	movs	r3, #144	; 0x90
 8001dfa:	05d8      	lsls	r0, r3, #23
 8001dfc:	6881      	ldr	r1, [r0, #8]
 8001dfe:	22c0      	movs	r2, #192	; 0xc0
 8001e00:	4391      	bics	r1, r2
 8001e02:	6081      	str	r1, [r0, #8]
 8001e04:	68c3      	ldr	r3, [r0, #12]
 8001e06:	2140      	movs	r1, #64	; 0x40
 8001e08:	4393      	bics	r3, r2
 8001e0a:	1c1a      	adds	r2, r3, #0
 8001e0c:	430a      	orrs	r2, r1
 8001e0e:	60c2      	str	r2, [r0, #12]
 8001e10:	6a03      	ldr	r3, [r0, #32]
 8001e12:	4a03      	ldr	r2, [pc, #12]	; (8001e20 <_ZNK4quan4meta4impl27for_each_type_sequence_implINS0_13type_sequenceIINS_5stm3210periph_regINS4_4gpio6moduleILm1207959552EEELm8EmEENS5_IS8_Lm12EmEENS5_IS8_Lm16EmEENS5_IS8_Lm20EmEENS5_IS8_Lm24EmEENS5_IS8_Lm28EmEENS5_IS8_Lm32EmEENS5_IS8_Lm36EmEEEEENS4_6detail24apply_periph_reg_actionsIS8_NS3_IINSI_17periph_reg_actionINS5_IS8_Lm0EmEENS0_6bit_orELm128EEENSK_ISL_NS0_7bit_andELm4294967231EEENSK_ISF_SM_Lm4096EEENSK_ISF_SO_Lm4294909951EEENSK_ISA_SM_Lm64EEENSK_ISA_SO_Lm4294967167EEENSK_IS9_SM_Lm0EEENSK_IS9_SO_Lm4294967103EEEEEEEELb1EvEclEv+0x28>)
 8001e14:	2180      	movs	r1, #128	; 0x80
 8001e16:	401a      	ands	r2, r3
 8001e18:	014b      	lsls	r3, r1, #5
 8001e1a:	431a      	orrs	r2, r3
 8001e1c:	6202      	str	r2, [r0, #32]
 8001e1e:	4770      	bx	lr
 8001e20:	ffff0fff 	.word	0xffff0fff

08001e24 <_ZN4quan5stm326detail26periph_reg_combined_actionINS0_10periph_regINS0_4gpio6moduleILm1207959552EEELm0EmEELm128ELm4294967231EE11with_or_fun5applyEv>:
 8001e24:	2390      	movs	r3, #144	; 0x90
 8001e26:	05d8      	lsls	r0, r3, #23
 8001e28:	6802      	ldr	r2, [r0, #0]
 8001e2a:	21c0      	movs	r1, #192	; 0xc0
 8001e2c:	438a      	bics	r2, r1
 8001e2e:	2380      	movs	r3, #128	; 0x80
 8001e30:	431a      	orrs	r2, r3
 8001e32:	6002      	str	r2, [r0, #0]
 8001e34:	4770      	bx	lr
	...

08001e38 <_ZN4quan5stm3211serial_portINS0_5usart6moduleILm1073759232EEELj200ELj200ENS_3mcu3pinINS0_4gpio6moduleILm1207959552EEELm2EEENS6_IS9_Lm3EEEE4initEv>:
 8001e38:	b573      	push	{r0, r1, r4, r5, r6, lr}
 8001e3a:	4b26      	ldr	r3, [pc, #152]	; (8001ed4 <_ZN4quan5stm3211serial_portINS0_5usart6moduleILm1073759232EEELj200ELj200ENS_3mcu3pinINS0_4gpio6moduleILm1207959552EEELm2EEENS6_IS9_Lm3EEEE4initEv+0x9c>)
 8001e3c:	4c26      	ldr	r4, [pc, #152]	; (8001ed8 <_ZN4quan5stm3211serial_portINS0_5usart6moduleILm1073759232EEELj200ELj200ENS_3mcu3pinINS0_4gpio6moduleILm1207959552EEELm2EEENS6_IS9_Lm3EEEE4initEv+0xa0>)
 8001e3e:	1c1a      	adds	r2, r3, #0
 8001e40:	1c21      	adds	r1, r4, #0
 8001e42:	2000      	movs	r0, #0
 8001e44:	3208      	adds	r2, #8
 8001e46:	3108      	adds	r1, #8
 8001e48:	601a      	str	r2, [r3, #0]
 8001e4a:	6058      	str	r0, [r3, #4]
 8001e4c:	6021      	str	r1, [r4, #0]
 8001e4e:	6060      	str	r0, [r4, #4]
 8001e50:	4c22      	ldr	r4, [pc, #136]	; (8001edc <_ZN4quan5stm3211serial_portINS0_5usart6moduleILm1073759232EEELj200ELj200ENS_3mcu3pinINS0_4gpio6moduleILm1207959552EEELm2EEENS6_IS9_Lm3EEEE4initEv+0xa4>)
 8001e52:	2580      	movs	r5, #128	; 0x80
 8001e54:	6926      	ldr	r6, [r4, #16]
 8001e56:	02ad      	lsls	r5, r5, #10
 8001e58:	432e      	orrs	r6, r5
 8001e5a:	6126      	str	r6, [r4, #16]
 8001e5c:	6922      	ldr	r2, [r4, #16]
 8001e5e:	4b20      	ldr	r3, [pc, #128]	; (8001ee0 <_ZN4quan5stm3211serial_portINS0_5usart6moduleILm1073759232EEELj200ELj200ENS_3mcu3pinINS0_4gpio6moduleILm1207959552EEELm2EEENS6_IS9_Lm3EEEE4initEv+0xa8>)
 8001e60:	2690      	movs	r6, #144	; 0x90
 8001e62:	4013      	ands	r3, r2
 8001e64:	6123      	str	r3, [r4, #16]
 8001e66:	69e0      	ldr	r0, [r4, #28]
 8001e68:	05f3      	lsls	r3, r6, #23
 8001e6a:	4328      	orrs	r0, r5
 8001e6c:	61e0      	str	r0, [r4, #28]
 8001e6e:	6961      	ldr	r1, [r4, #20]
 8001e70:	2030      	movs	r0, #48	; 0x30
 8001e72:	4329      	orrs	r1, r5
 8001e74:	6161      	str	r1, [r4, #20]
 8001e76:	681a      	ldr	r2, [r3, #0]
 8001e78:	2620      	movs	r6, #32
 8001e7a:	4382      	bics	r2, r0
 8001e7c:	4332      	orrs	r2, r6
 8001e7e:	601a      	str	r2, [r3, #0]
 8001e80:	685a      	ldr	r2, [r3, #4]
 8001e82:	2104      	movs	r1, #4
 8001e84:	438a      	bics	r2, r1
 8001e86:	605a      	str	r2, [r3, #4]
 8001e88:	4668      	mov	r0, sp
 8001e8a:	f7ff ffa1 	bl	8001dd0 <_ZNK4quan4meta4impl27for_each_type_sequence_implINS0_13type_sequenceIINS_5stm3210periph_regINS4_4gpio6moduleILm1207959552EEELm8EmEENS5_IS8_Lm12EmEENS5_IS8_Lm16EmEENS5_IS8_Lm20EmEENS5_IS8_Lm24EmEENS5_IS8_Lm28EmEENS5_IS8_Lm32EmEENS5_IS8_Lm36EmEEEEENS4_6detail24apply_periph_reg_actionsIS8_NS3_IINSI_17periph_reg_actionINS5_IS8_Lm0EmEENS0_6bit_orELm32EEENSK_ISL_NS0_7bit_andELm4294967279EEENSK_ISF_SM_Lm256EEENSK_ISF_SO_Lm4294963711EEENSK_INS5_IS8_Lm4EmEESM_Lm0EEENSK_ISS_SO_Lm4294967291EEENSK_ISA_SM_Lm0EEENSK_ISA_SO_Lm4294967247EEENSK_IS9_SM_Lm0EEENSK_IS9_SO_Lm4294967247EEEEEEEELb1EvEclEv>
 8001e8e:	6963      	ldr	r3, [r4, #20]
 8001e90:	431d      	orrs	r5, r3
 8001e92:	6165      	str	r5, [r4, #20]
 8001e94:	4c13      	ldr	r4, [pc, #76]	; (8001ee4 <_ZN4quan5stm3211serial_portINS0_5usart6moduleILm1073759232EEELj200ELj200ENS_3mcu3pinINS0_4gpio6moduleILm1207959552EEELm2EEENS6_IS9_Lm3EEEE4initEv+0xac>)
 8001e96:	f7ff ffc5 	bl	8001e24 <_ZN4quan5stm326detail26periph_reg_combined_actionINS0_10periph_regINS0_4gpio6moduleILm1207959552EEELm0EmEELm128ELm4294967231EE11with_or_fun5applyEv>
 8001e9a:	a801      	add	r0, sp, #4
 8001e9c:	f7ff ffac 	bl	8001df8 <_ZNK4quan4meta4impl27for_each_type_sequence_implINS0_13type_sequenceIINS_5stm3210periph_regINS4_4gpio6moduleILm1207959552EEELm8EmEENS5_IS8_Lm12EmEENS5_IS8_Lm16EmEENS5_IS8_Lm20EmEENS5_IS8_Lm24EmEENS5_IS8_Lm28EmEENS5_IS8_Lm32EmEENS5_IS8_Lm36EmEEEEENS4_6detail24apply_periph_reg_actionsIS8_NS3_IINSI_17periph_reg_actionINS5_IS8_Lm0EmEENS0_6bit_orELm128EEENSK_ISL_NS0_7bit_andELm4294967231EEENSK_ISF_SM_Lm4096EEENSK_ISF_SO_Lm4294909951EEENSK_ISA_SM_Lm64EEENSK_ISA_SO_Lm4294967167EEENSK_IS9_SM_Lm0EEENSK_IS9_SO_Lm4294967103EEEEEEEELb1EvEclEv>
 8001ea0:	6825      	ldr	r5, [r4, #0]
 8001ea2:	4811      	ldr	r0, [pc, #68]	; (8001ee8 <_ZN4quan5stm3211serial_portINS0_5usart6moduleILm1073759232EEELj200ELj200ENS_3mcu3pinINS0_4gpio6moduleILm1207959552EEELm2EEENS6_IS9_Lm3EEEE4initEv+0xb0>)
 8001ea4:	220c      	movs	r2, #12
 8001ea6:	4028      	ands	r0, r5
 8001ea8:	4310      	orrs	r0, r2
 8001eaa:	6020      	str	r0, [r4, #0]
 8001eac:	6861      	ldr	r1, [r4, #4]
 8001eae:	4b0f      	ldr	r3, [pc, #60]	; (8001eec <_ZN4quan5stm3211serial_portINS0_5usart6moduleILm1073759232EEELj200ELj200ENS_3mcu3pinINS0_4gpio6moduleILm1207959552EEELm2EEENS6_IS9_Lm3EEEE4initEv+0xb4>)
 8001eb0:	480f      	ldr	r0, [pc, #60]	; (8001ef0 <_ZN4quan5stm3211serial_portINS0_5usart6moduleILm1073759232EEELj200ELj200ENS_3mcu3pinINS0_4gpio6moduleILm1207959552EEELm2EEENS6_IS9_Lm3EEEE4initEv+0xb8>)
 8001eb2:	400b      	ands	r3, r1
 8001eb4:	6063      	str	r3, [r4, #4]
 8001eb6:	68a5      	ldr	r5, [r4, #8]
 8001eb8:	4a0e      	ldr	r2, [pc, #56]	; (8001ef4 <_ZN4quan5stm3211serial_portINS0_5usart6moduleILm1073759232EEELj200ELj200ENS_3mcu3pinINS0_4gpio6moduleILm1207959552EEELm2EEENS6_IS9_Lm3EEEE4initEv+0xbc>)
 8001eba:	4028      	ands	r0, r5
 8001ebc:	2180      	movs	r1, #128	; 0x80
 8001ebe:	4d0e      	ldr	r5, [pc, #56]	; (8001ef8 <_ZN4quan5stm3211serial_portINS0_5usart6moduleILm1073759232EEELj200ELj200ENS_3mcu3pinINS0_4gpio6moduleILm1207959552EEELm2EEENS6_IS9_Lm3EEEE4initEv+0xc0>)
 8001ec0:	054b      	lsls	r3, r1, #21
 8001ec2:	60a0      	str	r0, [r4, #8]
 8001ec4:	60e2      	str	r2, [r4, #12]
 8001ec6:	602b      	str	r3, [r5, #0]
 8001ec8:	6820      	ldr	r0, [r4, #0]
 8001eca:	4306      	orrs	r6, r0
 8001ecc:	6026      	str	r6, [r4, #0]
 8001ece:	f7ff ff77 	bl	8001dc0 <_ZN4quan5stm326enableINS0_5usart6moduleILm1073759232EEEEENS_6where_INS_11is_model_ofINS0_5UsartET_EEvE4typeEv>
 8001ed2:	bd73      	pop	{r0, r1, r4, r5, r6, pc}
 8001ed4:	20000958 	.word	0x20000958
 8001ed8:	20000888 	.word	0x20000888
 8001edc:	40021000 	.word	0x40021000
 8001ee0:	fffdffff 	.word	0xfffdffff
 8001ee4:	40004400 	.word	0x40004400
 8001ee8:	ffff6a03 	.word	0xffff6a03
 8001eec:	ffffc7bf 	.word	0xffffc7bf
 8001ef0:	fffff8fe 	.word	0xfffff8fe
 8001ef4:	00001388 	.word	0x00001388
 8001ef8:	e000e100 	.word	0xe000e100

08001efc <_GLOBAL__sub_I__ZN5frsky5setupEv>:
 8001efc:	4b0b      	ldr	r3, [pc, #44]	; (8001f2c <_GLOBAL__sub_I__ZN5frsky5setupEv+0x30>)
 8001efe:	2101      	movs	r1, #1
 8001f00:	681a      	ldr	r2, [r3, #0]
 8001f02:	400a      	ands	r2, r1
 8001f04:	d105      	bne.n	8001f12 <_GLOBAL__sub_I__ZN5frsky5setupEv+0x16>
 8001f06:	480a      	ldr	r0, [pc, #40]	; (8001f30 <_GLOBAL__sub_I__ZN5frsky5setupEv+0x34>)
 8001f08:	6019      	str	r1, [r3, #0]
 8001f0a:	1c03      	adds	r3, r0, #0
 8001f0c:	3308      	adds	r3, #8
 8001f0e:	6003      	str	r3, [r0, #0]
 8001f10:	6042      	str	r2, [r0, #4]
 8001f12:	4808      	ldr	r0, [pc, #32]	; (8001f34 <_GLOBAL__sub_I__ZN5frsky5setupEv+0x38>)
 8001f14:	2101      	movs	r1, #1
 8001f16:	6802      	ldr	r2, [r0, #0]
 8001f18:	400a      	ands	r2, r1
 8001f1a:	d105      	bne.n	8001f28 <_GLOBAL__sub_I__ZN5frsky5setupEv+0x2c>
 8001f1c:	4b06      	ldr	r3, [pc, #24]	; (8001f38 <_GLOBAL__sub_I__ZN5frsky5setupEv+0x3c>)
 8001f1e:	6001      	str	r1, [r0, #0]
 8001f20:	1c18      	adds	r0, r3, #0
 8001f22:	3008      	adds	r0, #8
 8001f24:	6018      	str	r0, [r3, #0]
 8001f26:	605a      	str	r2, [r3, #4]
 8001f28:	4770      	bx	lr
 8001f2a:	46c0      	nop			; (mov r8, r8)
 8001f2c:	20000a2c 	.word	0x20000a2c
 8001f30:	20000958 	.word	0x20000958
 8001f34:	20000a28 	.word	0x20000a28
 8001f38:	20000888 	.word	0x20000888

08001f3c <_ZN4quan5stm3211serial_portINS0_5usart6moduleILm1073759232EEELj200ELj200ENS_3mcu3pinINS0_4gpio6moduleILm1207959552EEELm2EEENS6_IS9_Lm3EEEE3putEc>:
 8001f3c:	4a12      	ldr	r2, [pc, #72]	; (8001f88 <_ZN4quan5stm3211serial_portINS0_5usart6moduleILm1073759232EEELj200ELj200ENS_3mcu3pinINS0_4gpio6moduleILm1207959552EEELm2EEENS6_IS9_Lm3EEEE3putEc+0x4c>)
 8001f3e:	2180      	movs	r1, #128	; 0x80
 8001f40:	6813      	ldr	r3, [r2, #0]
 8001f42:	438b      	bics	r3, r1
 8001f44:	6013      	str	r3, [r2, #0]
 8001f46:	4b11      	ldr	r3, [pc, #68]	; (8001f8c <_ZN4quan5stm3211serial_portINS0_5usart6moduleILm1073759232EEELj200ELj200ENS_3mcu3pinINS0_4gpio6moduleILm1207959552EEELm2EEENS6_IS9_Lm3EEEE3putEc+0x50>)
 8001f48:	6819      	ldr	r1, [r3, #0]
 8001f4a:	2900      	cmp	r1, #0
 8001f4c:	d017      	beq.n	8001f7e <_ZN4quan5stm3211serial_portINS0_5usart6moduleILm1073759232EEELj200ELj200ENS_3mcu3pinINS0_4gpio6moduleILm1207959552EEELm2EEENS6_IS9_Lm3EEEE3putEc+0x42>
 8001f4e:	6819      	ldr	r1, [r3, #0]
 8001f50:	7008      	strb	r0, [r1, #0]
 8001f52:	6858      	ldr	r0, [r3, #4]
 8001f54:	2800      	cmp	r0, #0
 8001f56:	d101      	bne.n	8001f5c <_ZN4quan5stm3211serial_portINS0_5usart6moduleILm1073759232EEELj200ELj200ENS_3mcu3pinINS0_4gpio6moduleILm1207959552EEELm2EEENS6_IS9_Lm3EEEE3putEc+0x20>
 8001f58:	6819      	ldr	r1, [r3, #0]
 8001f5a:	6059      	str	r1, [r3, #4]
 8001f5c:	6818      	ldr	r0, [r3, #0]
 8001f5e:	1c19      	adds	r1, r3, #0
 8001f60:	3001      	adds	r0, #1
 8001f62:	6018      	str	r0, [r3, #0]
 8001f64:	6818      	ldr	r0, [r3, #0]
 8001f66:	31d0      	adds	r1, #208	; 0xd0
 8001f68:	4288      	cmp	r0, r1
 8001f6a:	d102      	bne.n	8001f72 <_ZN4quan5stm3211serial_portINS0_5usart6moduleILm1073759232EEELj200ELj200ENS_3mcu3pinINS0_4gpio6moduleILm1207959552EEELm2EEENS6_IS9_Lm3EEEE3putEc+0x36>
 8001f6c:	1c18      	adds	r0, r3, #0
 8001f6e:	3008      	adds	r0, #8
 8001f70:	6018      	str	r0, [r3, #0]
 8001f72:	6818      	ldr	r0, [r3, #0]
 8001f74:	6859      	ldr	r1, [r3, #4]
 8001f76:	4288      	cmp	r0, r1
 8001f78:	d101      	bne.n	8001f7e <_ZN4quan5stm3211serial_portINS0_5usart6moduleILm1073759232EEELj200ELj200ENS_3mcu3pinINS0_4gpio6moduleILm1207959552EEELm2EEENS6_IS9_Lm3EEEE3putEc+0x42>
 8001f7a:	2000      	movs	r0, #0
 8001f7c:	6018      	str	r0, [r3, #0]
 8001f7e:	6813      	ldr	r3, [r2, #0]
 8001f80:	2180      	movs	r1, #128	; 0x80
 8001f82:	430b      	orrs	r3, r1
 8001f84:	6013      	str	r3, [r2, #0]
 8001f86:	4770      	bx	lr
 8001f88:	40004400 	.word	0x40004400
 8001f8c:	20000958 	.word	0x20000958

08001f90 <_GLOBAL__sub_I__ZN5zapp118frsky_send_messageEv>:
 8001f90:	b570      	push	{r4, r5, r6, lr}
 8001f92:	4c16      	ldr	r4, [pc, #88]	; (8001fec <_GLOBAL__sub_I__ZN5zapp118frsky_send_messageEv+0x5c>)
 8001f94:	265e      	movs	r6, #94	; 0x5e
 8001f96:	1c20      	adds	r0, r4, #0
 8001f98:	3026      	adds	r0, #38	; 0x26
 8001f9a:	2501      	movs	r5, #1
 8001f9c:	2100      	movs	r1, #0
 8001f9e:	7006      	strb	r6, [r0, #0]
 8001fa0:	7045      	strb	r5, [r0, #1]
 8001fa2:	f7fe fb69 	bl	8000678 <_ZN12_GLOBAL__N_110zapp1_impl14create_messageIlE6assignERKl.isra.0>
 8001fa6:	1c20      	adds	r0, r4, #0
 8001fa8:	301f      	adds	r0, #31
 8001faa:	2302      	movs	r3, #2
 8001fac:	2100      	movs	r1, #0
 8001fae:	77e6      	strb	r6, [r4, #31]
 8001fb0:	7043      	strb	r3, [r0, #1]
 8001fb2:	f7fe fb61 	bl	8000678 <_ZN12_GLOBAL__N_110zapp1_impl14create_messageIlE6assignERKl.isra.0>
 8001fb6:	2008      	movs	r0, #8
 8001fb8:	7660      	strb	r0, [r4, #25]
 8001fba:	1c20      	adds	r0, r4, #0
 8001fbc:	3018      	adds	r0, #24
 8001fbe:	2100      	movs	r1, #0
 8001fc0:	7626      	strb	r6, [r4, #24]
 8001fc2:	f7fe fb59 	bl	8000678 <_ZN12_GLOBAL__N_110zapp1_impl14create_messageIlE6assignERKl.isra.0>
 8001fc6:	4e0a      	ldr	r6, [pc, #40]	; (8001ff0 <_GLOBAL__sub_I__ZN5zapp118frsky_send_messageEv+0x60>)
 8001fc8:	2100      	movs	r1, #0
 8001fca:	2214      	movs	r2, #20
 8001fcc:	60a1      	str	r1, [r4, #8]
 8001fce:	60e2      	str	r2, [r4, #12]
 8001fd0:	6126      	str	r6, [r4, #16]
 8001fd2:	7521      	strb	r1, [r4, #20]
 8001fd4:	7565      	strb	r5, [r4, #21]
 8001fd6:	4c07      	ldr	r4, [pc, #28]	; (8001ff4 <_GLOBAL__sub_I__ZN5zapp118frsky_send_messageEv+0x64>)
 8001fd8:	6820      	ldr	r0, [r4, #0]
 8001fda:	4028      	ands	r0, r5
 8001fdc:	d105      	bne.n	8001fea <_GLOBAL__sub_I__ZN5zapp118frsky_send_messageEv+0x5a>
 8001fde:	6025      	str	r5, [r4, #0]
 8001fe0:	4d05      	ldr	r5, [pc, #20]	; (8001ff8 <_GLOBAL__sub_I__ZN5zapp118frsky_send_messageEv+0x68>)
 8001fe2:	1c2b      	adds	r3, r5, #0
 8001fe4:	3308      	adds	r3, #8
 8001fe6:	602b      	str	r3, [r5, #0]
 8001fe8:	6068      	str	r0, [r5, #4]
 8001fea:	bd70      	pop	{r4, r5, r6, pc}
 8001fec:	20000500 	.word	0x20000500
 8001ff0:	08000619 	.word	0x08000619
 8001ff4:	20000a2c 	.word	0x20000a2c
 8001ff8:	20000958 	.word	0x20000958

08001ffc <_GLOBAL__sub_I_the_aircraft>:
 8001ffc:	b510      	push	{r4, lr}
 8001ffe:	4c0c      	ldr	r4, [pc, #48]	; (8002030 <_GLOBAL__sub_I_the_aircraft+0x34>)
 8002000:	2100      	movs	r1, #0
 8002002:	1c20      	adds	r0, r4, #0
 8002004:	2220      	movs	r2, #32
 8002006:	f000 f96d 	bl	80022e4 <memset>
 800200a:	2300      	movs	r3, #0
 800200c:	1c21      	adds	r1, r4, #0
 800200e:	2000      	movs	r0, #0
 8002010:	6223      	str	r3, [r4, #32]
 8002012:	6263      	str	r3, [r4, #36]	; 0x24
 8002014:	62a3      	str	r3, [r4, #40]	; 0x28
 8002016:	62e3      	str	r3, [r4, #44]	; 0x2c
 8002018:	6323      	str	r3, [r4, #48]	; 0x30
 800201a:	6363      	str	r3, [r4, #52]	; 0x34
 800201c:	63a3      	str	r3, [r4, #56]	; 0x38
 800201e:	63e3      	str	r3, [r4, #60]	; 0x3c
 8002020:	6423      	str	r3, [r4, #64]	; 0x40
 8002022:	6463      	str	r3, [r4, #68]	; 0x44
 8002024:	64a3      	str	r3, [r4, #72]	; 0x48
 8002026:	314c      	adds	r1, #76	; 0x4c
 8002028:	344e      	adds	r4, #78	; 0x4e
 800202a:	8008      	strh	r0, [r1, #0]
 800202c:	7020      	strb	r0, [r4, #0]
 800202e:	bd10      	pop	{r4, pc}
 8002030:	20000530 	.word	0x20000530

08002034 <_GLOBAL__sub_I_mavlink_system>:
 8002034:	4b0b      	ldr	r3, [pc, #44]	; (8002064 <_GLOBAL__sub_I_mavlink_system+0x30>)
 8002036:	2101      	movs	r1, #1
 8002038:	681a      	ldr	r2, [r3, #0]
 800203a:	400a      	ands	r2, r1
 800203c:	d105      	bne.n	800204a <_GLOBAL__sub_I_mavlink_system+0x16>
 800203e:	480a      	ldr	r0, [pc, #40]	; (8002068 <_GLOBAL__sub_I_mavlink_system+0x34>)
 8002040:	6019      	str	r1, [r3, #0]
 8002042:	1c03      	adds	r3, r0, #0
 8002044:	3308      	adds	r3, #8
 8002046:	6003      	str	r3, [r0, #0]
 8002048:	6042      	str	r2, [r0, #4]
 800204a:	4808      	ldr	r0, [pc, #32]	; (800206c <_GLOBAL__sub_I_mavlink_system+0x38>)
 800204c:	2101      	movs	r1, #1
 800204e:	6802      	ldr	r2, [r0, #0]
 8002050:	400a      	ands	r2, r1
 8002052:	d105      	bne.n	8002060 <_GLOBAL__sub_I_mavlink_system+0x2c>
 8002054:	4b06      	ldr	r3, [pc, #24]	; (8002070 <_GLOBAL__sub_I_mavlink_system+0x3c>)
 8002056:	6001      	str	r1, [r0, #0]
 8002058:	1c18      	adds	r0, r3, #0
 800205a:	3008      	adds	r0, #8
 800205c:	6018      	str	r0, [r3, #0]
 800205e:	605a      	str	r2, [r3, #4]
 8002060:	4770      	bx	lr
 8002062:	46c0      	nop			; (mov r8, r8)
 8002064:	20000880 	.word	0x20000880
 8002068:	200006e0 	.word	0x200006e0
 800206c:	20000884 	.word	0x20000884
 8002070:	200007b0 	.word	0x200007b0

08002074 <_ZNK4quan4meta4impl27for_each_type_sequence_implINS0_13type_sequenceIINS_5stm3210periph_regINS4_4gpio6moduleILm1207959552EEELm8EmEENS5_IS8_Lm12EmEENS5_IS8_Lm16EmEENS5_IS8_Lm20EmEENS5_IS8_Lm24EmEENS5_IS8_Lm28EmEENS5_IS8_Lm32EmEENS5_IS8_Lm36EmEEEEENS4_6detail24apply_periph_reg_actionsIS8_NS3_IINSI_17periph_reg_actionINS5_IS8_Lm0EmEENS0_6bit_orELm1EEENSK_ISL_NS0_7bit_andELm4294967293EEENSK_INS5_IS8_Lm4EmEESM_Lm0EEENSK_ISQ_SO_Lm4294967294EEENSK_ISA_SM_Lm0EEENSK_ISA_SO_Lm4294967292EEENSK_IS9_SM_Lm0EEENSK_IS9_SO_Lm4294967292EEENSK_ISC_SO_Lm4294967294EEEEEEEELb1EvEclEv>:
 8002074:	2390      	movs	r3, #144	; 0x90
 8002076:	05d8      	lsls	r0, r3, #23
 8002078:	6881      	ldr	r1, [r0, #8]
 800207a:	2203      	movs	r2, #3
 800207c:	4391      	bics	r1, r2
 800207e:	6081      	str	r1, [r0, #8]
 8002080:	68c3      	ldr	r3, [r0, #12]
 8002082:	4393      	bics	r3, r2
 8002084:	60c3      	str	r3, [r0, #12]
 8002086:	6942      	ldr	r2, [r0, #20]
 8002088:	2301      	movs	r3, #1
 800208a:	439a      	bics	r2, r3
 800208c:	6142      	str	r2, [r0, #20]
 800208e:	4770      	bx	lr

08002090 <_GLOBAL__sub_I__Z17on_heartbeat_donev>:
 8002090:	4b05      	ldr	r3, [pc, #20]	; (80020a8 <_GLOBAL__sub_I__Z17on_heartbeat_donev+0x18>)
 8002092:	2200      	movs	r2, #0
 8002094:	4805      	ldr	r0, [pc, #20]	; (80020ac <_GLOBAL__sub_I__Z17on_heartbeat_donev+0x1c>)
 8002096:	605a      	str	r2, [r3, #4]
 8002098:	210a      	movs	r1, #10
 800209a:	741a      	strb	r2, [r3, #16]
 800209c:	2201      	movs	r2, #1
 800209e:	6099      	str	r1, [r3, #8]
 80020a0:	60d8      	str	r0, [r3, #12]
 80020a2:	745a      	strb	r2, [r3, #17]
 80020a4:	4770      	bx	lr
 80020a6:	46c0      	nop			; (mov r8, r8)
 80020a8:	200006cc 	.word	0x200006cc
 80020ac:	08000e55 	.word	0x08000e55

080020b0 <Reset_Handler>:
 80020b0:	480d      	ldr	r0, [pc, #52]	; (80020e8 <LoopForever+0x2>)
 80020b2:	4685      	mov	sp, r0
 80020b4:	2100      	movs	r1, #0
 80020b6:	e003      	b.n	80020c0 <LoopCopyDataInit>

080020b8 <CopyDataInit>:
 80020b8:	4b0c      	ldr	r3, [pc, #48]	; (80020ec <LoopForever+0x6>)
 80020ba:	585b      	ldr	r3, [r3, r1]
 80020bc:	5043      	str	r3, [r0, r1]
 80020be:	3104      	adds	r1, #4

080020c0 <LoopCopyDataInit>:
 80020c0:	480b      	ldr	r0, [pc, #44]	; (80020f0 <LoopForever+0xa>)
 80020c2:	4b0c      	ldr	r3, [pc, #48]	; (80020f4 <LoopForever+0xe>)
 80020c4:	1842      	adds	r2, r0, r1
 80020c6:	429a      	cmp	r2, r3
 80020c8:	d3f6      	bcc.n	80020b8 <CopyDataInit>
 80020ca:	4a0b      	ldr	r2, [pc, #44]	; (80020f8 <LoopForever+0x12>)
 80020cc:	e002      	b.n	80020d4 <LoopFillZerobss>

080020ce <FillZerobss>:
 80020ce:	2300      	movs	r3, #0
 80020d0:	6013      	str	r3, [r2, #0]
 80020d2:	3204      	adds	r2, #4

080020d4 <LoopFillZerobss>:
 80020d4:	4b09      	ldr	r3, [pc, #36]	; (80020fc <LoopForever+0x16>)
 80020d6:	429a      	cmp	r2, r3
 80020d8:	d3f9      	bcc.n	80020ce <FillZerobss>
 80020da:	f7fe f86d 	bl	80001b8 <SystemInit>
 80020de:	f000 f817 	bl	8002110 <__libc_init_array>
 80020e2:	f7ff fc17 	bl	8001914 <main>

080020e6 <LoopForever>:
 80020e6:	e7fe      	b.n	80020e6 <LoopForever>
 80020e8:	20002000 	.word	0x20002000
 80020ec:	0800280c 	.word	0x0800280c
 80020f0:	20000000 	.word	0x20000000
 80020f4:	2000045c 	.word	0x2000045c
 80020f8:	20000460 	.word	0x20000460
 80020fc:	20000a30 	.word	0x20000a30

08002100 <ADC1_COMP_IRQHandler>:
 8002100:	e7fe      	b.n	8002100 <ADC1_COMP_IRQHandler>
	...

08002104 <__errno>:
 8002104:	4b01      	ldr	r3, [pc, #4]	; (800210c <__errno+0x8>)
 8002106:	6818      	ldr	r0, [r3, #0]
 8002108:	4770      	bx	lr
 800210a:	46c0      	nop			; (mov r8, r8)
 800210c:	20000458 	.word	0x20000458

08002110 <__libc_init_array>:
 8002110:	b5f8      	push	{r3, r4, r5, r6, r7, lr}
 8002112:	4f1f      	ldr	r7, [pc, #124]	; (8002190 <__libc_init_array+0x80>)
 8002114:	4c1f      	ldr	r4, [pc, #124]	; (8002194 <__libc_init_array+0x84>)
 8002116:	1b38      	subs	r0, r7, r4
 8002118:	1087      	asrs	r7, r0, #2
 800211a:	d018      	beq.n	800214e <__libc_init_array+0x3e>
 800211c:	2201      	movs	r2, #1
 800211e:	1e7b      	subs	r3, r7, #1
 8002120:	1c15      	adds	r5, r2, #0
 8002122:	cc02      	ldmia	r4!, {r1}
 8002124:	2601      	movs	r6, #1
 8002126:	401d      	ands	r5, r3
 8002128:	4788      	blx	r1
 800212a:	42b7      	cmp	r7, r6
 800212c:	d00f      	beq.n	800214e <__libc_init_array+0x3e>
 800212e:	2d00      	cmp	r5, #0
 8002130:	d004      	beq.n	800213c <__libc_init_array+0x2c>
 8002132:	cc40      	ldmia	r4!, {r6}
 8002134:	47b0      	blx	r6
 8002136:	2602      	movs	r6, #2
 8002138:	42b7      	cmp	r7, r6
 800213a:	d008      	beq.n	800214e <__libc_init_array+0x3e>
 800213c:	1c25      	adds	r5, r4, #0
 800213e:	cd01      	ldmia	r5!, {r0}
 8002140:	4780      	blx	r0
 8002142:	3602      	adds	r6, #2
 8002144:	6863      	ldr	r3, [r4, #4]
 8002146:	4798      	blx	r3
 8002148:	1d2c      	adds	r4, r5, #4
 800214a:	42b7      	cmp	r7, r6
 800214c:	d1f6      	bne.n	800213c <__libc_init_array+0x2c>
 800214e:	f000 fb3f 	bl	80027d0 <_init>
 8002152:	4f11      	ldr	r7, [pc, #68]	; (8002198 <__libc_init_array+0x88>)
 8002154:	4c11      	ldr	r4, [pc, #68]	; (800219c <__libc_init_array+0x8c>)
 8002156:	1b3a      	subs	r2, r7, r4
 8002158:	1097      	asrs	r7, r2, #2
 800215a:	d018      	beq.n	800218e <__libc_init_array+0x7e>
 800215c:	2601      	movs	r6, #1
 800215e:	1e79      	subs	r1, r7, #1
 8002160:	1c35      	adds	r5, r6, #0
 8002162:	cc01      	ldmia	r4!, {r0}
 8002164:	2601      	movs	r6, #1
 8002166:	400d      	ands	r5, r1
 8002168:	4780      	blx	r0
 800216a:	42b7      	cmp	r7, r6
 800216c:	d00f      	beq.n	800218e <__libc_init_array+0x7e>
 800216e:	2d00      	cmp	r5, #0
 8002170:	d004      	beq.n	800217c <__libc_init_array+0x6c>
 8002172:	cc08      	ldmia	r4!, {r3}
 8002174:	2602      	movs	r6, #2
 8002176:	4798      	blx	r3
 8002178:	42b7      	cmp	r7, r6
 800217a:	d008      	beq.n	800218e <__libc_init_array+0x7e>
 800217c:	1c25      	adds	r5, r4, #0
 800217e:	cd04      	ldmia	r5!, {r2}
 8002180:	4790      	blx	r2
 8002182:	3602      	adds	r6, #2
 8002184:	6861      	ldr	r1, [r4, #4]
 8002186:	4788      	blx	r1
 8002188:	1d2c      	adds	r4, r5, #4
 800218a:	42b7      	cmp	r7, r6
 800218c:	d1f6      	bne.n	800217c <__libc_init_array+0x6c>
 800218e:	bdf8      	pop	{r3, r4, r5, r6, r7, pc}
 8002190:	080027e8 	.word	0x080027e8
 8002194:	080027e8 	.word	0x080027e8
 8002198:	0800280c 	.word	0x0800280c
 800219c:	080027e8 	.word	0x080027e8

080021a0 <memcpy>:
 80021a0:	b5f0      	push	{r4, r5, r6, r7, lr}
 80021a2:	464f      	mov	r7, r9
 80021a4:	4646      	mov	r6, r8
 80021a6:	b4c0      	push	{r6, r7}
 80021a8:	2a0f      	cmp	r2, #15
 80021aa:	d972      	bls.n	8002292 <memcpy+0xf2>
 80021ac:	1c0b      	adds	r3, r1, #0
 80021ae:	4303      	orrs	r3, r0
 80021b0:	079c      	lsls	r4, r3, #30
 80021b2:	d000      	beq.n	80021b6 <memcpy+0x16>
 80021b4:	e090      	b.n	80022d8 <memcpy+0x138>
 80021b6:	1c17      	adds	r7, r2, #0
 80021b8:	3f10      	subs	r7, #16
 80021ba:	093c      	lsrs	r4, r7, #4
 80021bc:	3401      	adds	r4, #1
 80021be:	0127      	lsls	r7, r4, #4
 80021c0:	680c      	ldr	r4, [r1, #0]
 80021c2:	1c3b      	adds	r3, r7, #0
 80021c4:	6004      	str	r4, [r0, #0]
 80021c6:	3b10      	subs	r3, #16
 80021c8:	06de      	lsls	r6, r3, #27
 80021ca:	684b      	ldr	r3, [r1, #4]
 80021cc:	19cd      	adds	r5, r1, r7
 80021ce:	6043      	str	r3, [r0, #4]
 80021d0:	688c      	ldr	r4, [r1, #8]
 80021d2:	0ff6      	lsrs	r6, r6, #31
 80021d4:	6084      	str	r4, [r0, #8]
 80021d6:	68cb      	ldr	r3, [r1, #12]
 80021d8:	1c04      	adds	r4, r0, #0
 80021da:	60c3      	str	r3, [r0, #12]
 80021dc:	1c0b      	adds	r3, r1, #0
 80021de:	3310      	adds	r3, #16
 80021e0:	3410      	adds	r4, #16
 80021e2:	429d      	cmp	r5, r3
 80021e4:	d027      	beq.n	8002236 <memcpy+0x96>
 80021e6:	2e00      	cmp	r6, #0
 80021e8:	d00b      	beq.n	8002202 <memcpy+0x62>
 80021ea:	6819      	ldr	r1, [r3, #0]
 80021ec:	6021      	str	r1, [r4, #0]
 80021ee:	685e      	ldr	r6, [r3, #4]
 80021f0:	6066      	str	r6, [r4, #4]
 80021f2:	6899      	ldr	r1, [r3, #8]
 80021f4:	60a1      	str	r1, [r4, #8]
 80021f6:	68de      	ldr	r6, [r3, #12]
 80021f8:	3310      	adds	r3, #16
 80021fa:	60e6      	str	r6, [r4, #12]
 80021fc:	3410      	adds	r4, #16
 80021fe:	429d      	cmp	r5, r3
 8002200:	d019      	beq.n	8002236 <memcpy+0x96>
 8002202:	6819      	ldr	r1, [r3, #0]
 8002204:	6021      	str	r1, [r4, #0]
 8002206:	685e      	ldr	r6, [r3, #4]
 8002208:	6066      	str	r6, [r4, #4]
 800220a:	6899      	ldr	r1, [r3, #8]
 800220c:	60a1      	str	r1, [r4, #8]
 800220e:	68de      	ldr	r6, [r3, #12]
 8002210:	1c19      	adds	r1, r3, #0
 8002212:	60e6      	str	r6, [r4, #12]
 8002214:	691b      	ldr	r3, [r3, #16]
 8002216:	1c26      	adds	r6, r4, #0
 8002218:	6123      	str	r3, [r4, #16]
 800221a:	694c      	ldr	r4, [r1, #20]
 800221c:	6174      	str	r4, [r6, #20]
 800221e:	698b      	ldr	r3, [r1, #24]
 8002220:	61b3      	str	r3, [r6, #24]
 8002222:	69cc      	ldr	r4, [r1, #28]
 8002224:	3110      	adds	r1, #16
 8002226:	61f4      	str	r4, [r6, #28]
 8002228:	1c0b      	adds	r3, r1, #0
 800222a:	3610      	adds	r6, #16
 800222c:	1c34      	adds	r4, r6, #0
 800222e:	3310      	adds	r3, #16
 8002230:	3410      	adds	r4, #16
 8002232:	429d      	cmp	r5, r3
 8002234:	d1e5      	bne.n	8002202 <memcpy+0x62>
 8002236:	183f      	adds	r7, r7, r0
 8002238:	210f      	movs	r1, #15
 800223a:	46b8      	mov	r8, r7
 800223c:	4011      	ands	r1, r2
 800223e:	2903      	cmp	r1, #3
 8002240:	d94d      	bls.n	80022de <memcpy+0x13e>
 8002242:	3904      	subs	r1, #4
 8002244:	088e      	lsrs	r6, r1, #2
 8002246:	00b3      	lsls	r3, r6, #2
 8002248:	3304      	adds	r3, #4
 800224a:	18ec      	adds	r4, r5, r3
 800224c:	46a4      	mov	ip, r4
 800224e:	3b04      	subs	r3, #4
 8002250:	1c2c      	adds	r4, r5, #0
 8002252:	075f      	lsls	r7, r3, #29
 8002254:	cc08      	ldmia	r4!, {r3}
 8002256:	4641      	mov	r1, r8
 8002258:	46b1      	mov	r9, r6
 800225a:	c108      	stmia	r1!, {r3}
 800225c:	0ffe      	lsrs	r6, r7, #31
 800225e:	4564      	cmp	r4, ip
 8002260:	d00f      	beq.n	8002282 <memcpy+0xe2>
 8002262:	2e00      	cmp	r6, #0
 8002264:	d003      	beq.n	800226e <memcpy+0xce>
 8002266:	cc80      	ldmia	r4!, {r7}
 8002268:	c180      	stmia	r1!, {r7}
 800226a:	4564      	cmp	r4, ip
 800226c:	d009      	beq.n	8002282 <memcpy+0xe2>
 800226e:	1c27      	adds	r7, r4, #0
 8002270:	cf08      	ldmia	r7!, {r3}
 8002272:	1c0e      	adds	r6, r1, #0
 8002274:	c608      	stmia	r6!, {r3}
 8002276:	6864      	ldr	r4, [r4, #4]
 8002278:	604c      	str	r4, [r1, #4]
 800227a:	1d3c      	adds	r4, r7, #4
 800227c:	1d31      	adds	r1, r6, #4
 800227e:	4564      	cmp	r4, ip
 8002280:	d1f5      	bne.n	800226e <memcpy+0xce>
 8002282:	4649      	mov	r1, r9
 8002284:	3101      	adds	r1, #1
 8002286:	008e      	lsls	r6, r1, #2
 8002288:	2703      	movs	r7, #3
 800228a:	19ad      	adds	r5, r5, r6
 800228c:	403a      	ands	r2, r7
 800228e:	4446      	add	r6, r8
 8002290:	e001      	b.n	8002296 <memcpy+0xf6>
 8002292:	1c0d      	adds	r5, r1, #0
 8002294:	1c06      	adds	r6, r0, #0
 8002296:	2a00      	cmp	r2, #0
 8002298:	d01a      	beq.n	80022d0 <memcpy+0x130>
 800229a:	782f      	ldrb	r7, [r5, #0]
 800229c:	18b2      	adds	r2, r6, r2
 800229e:	43f3      	mvns	r3, r6
 80022a0:	18d1      	adds	r1, r2, r3
 80022a2:	2401      	movs	r4, #1
 80022a4:	7037      	strb	r7, [r6, #0]
 80022a6:	3601      	adds	r6, #1
 80022a8:	400c      	ands	r4, r1
 80022aa:	3501      	adds	r5, #1
 80022ac:	4296      	cmp	r6, r2
 80022ae:	d00f      	beq.n	80022d0 <memcpy+0x130>
 80022b0:	2c00      	cmp	r4, #0
 80022b2:	d005      	beq.n	80022c0 <memcpy+0x120>
 80022b4:	782b      	ldrb	r3, [r5, #0]
 80022b6:	3501      	adds	r5, #1
 80022b8:	7033      	strb	r3, [r6, #0]
 80022ba:	3601      	adds	r6, #1
 80022bc:	4296      	cmp	r6, r2
 80022be:	d007      	beq.n	80022d0 <memcpy+0x130>
 80022c0:	7829      	ldrb	r1, [r5, #0]
 80022c2:	7031      	strb	r1, [r6, #0]
 80022c4:	786c      	ldrb	r4, [r5, #1]
 80022c6:	3502      	adds	r5, #2
 80022c8:	7074      	strb	r4, [r6, #1]
 80022ca:	3602      	adds	r6, #2
 80022cc:	4296      	cmp	r6, r2
 80022ce:	d1f7      	bne.n	80022c0 <memcpy+0x120>
 80022d0:	bc0c      	pop	{r2, r3}
 80022d2:	4690      	mov	r8, r2
 80022d4:	4699      	mov	r9, r3
 80022d6:	bdf0      	pop	{r4, r5, r6, r7, pc}
 80022d8:	1c06      	adds	r6, r0, #0
 80022da:	1c0d      	adds	r5, r1, #0
 80022dc:	e7dd      	b.n	800229a <memcpy+0xfa>
 80022de:	1c3e      	adds	r6, r7, #0
 80022e0:	1c0a      	adds	r2, r1, #0
 80022e2:	e7d8      	b.n	8002296 <memcpy+0xf6>

080022e4 <memset>:
 80022e4:	b5f0      	push	{r4, r5, r6, r7, lr}
 80022e6:	0783      	lsls	r3, r0, #30
 80022e8:	d100      	bne.n	80022ec <memset+0x8>
 80022ea:	e081      	b.n	80023f0 <memset+0x10c>
 80022ec:	1e54      	subs	r4, r2, #1
 80022ee:	2a00      	cmp	r2, #0
 80022f0:	d07d      	beq.n	80023ee <memset+0x10a>
 80022f2:	b2cd      	uxtb	r5, r1
 80022f4:	1c03      	adds	r3, r0, #0
 80022f6:	2603      	movs	r6, #3
 80022f8:	07e7      	lsls	r7, r4, #31
 80022fa:	d511      	bpl.n	8002320 <memset+0x3c>
 80022fc:	1c43      	adds	r3, r0, #1
 80022fe:	7005      	strb	r5, [r0, #0]
 8002300:	4233      	tst	r3, r6
 8002302:	d011      	beq.n	8002328 <memset+0x44>
 8002304:	701d      	strb	r5, [r3, #0]
 8002306:	3301      	adds	r3, #1
 8002308:	1e94      	subs	r4, r2, #2
 800230a:	4233      	tst	r3, r6
 800230c:	d00c      	beq.n	8002328 <memset+0x44>
 800230e:	1e62      	subs	r2, r4, #1
 8002310:	2c00      	cmp	r4, #0
 8002312:	d06c      	beq.n	80023ee <memset+0x10a>
 8002314:	701d      	strb	r5, [r3, #0]
 8002316:	3301      	adds	r3, #1
 8002318:	1c14      	adds	r4, r2, #0
 800231a:	4233      	tst	r3, r6
 800231c:	d004      	beq.n	8002328 <memset+0x44>
 800231e:	3c01      	subs	r4, #1
 8002320:	701d      	strb	r5, [r3, #0]
 8002322:	3301      	adds	r3, #1
 8002324:	4233      	tst	r3, r6
 8002326:	d1f2      	bne.n	800230e <memset+0x2a>
 8002328:	2c03      	cmp	r4, #3
 800232a:	d949      	bls.n	80023c0 <memset+0xdc>
 800232c:	22ff      	movs	r2, #255	; 0xff
 800232e:	400a      	ands	r2, r1
 8002330:	0217      	lsls	r7, r2, #8
 8002332:	433a      	orrs	r2, r7
 8002334:	0415      	lsls	r5, r2, #16
 8002336:	432a      	orrs	r2, r5
 8002338:	2c0f      	cmp	r4, #15
 800233a:	d95c      	bls.n	80023f6 <memset+0x112>
 800233c:	1c26      	adds	r6, r4, #0
 800233e:	3e10      	subs	r6, #16
 8002340:	0937      	lsrs	r7, r6, #4
 8002342:	3701      	adds	r7, #1
 8002344:	013d      	lsls	r5, r7, #4
 8002346:	195e      	adds	r6, r3, r5
 8002348:	3d10      	subs	r5, #16
 800234a:	06ef      	lsls	r7, r5, #27
 800234c:	601a      	str	r2, [r3, #0]
 800234e:	605a      	str	r2, [r3, #4]
 8002350:	609a      	str	r2, [r3, #8]
 8002352:	60da      	str	r2, [r3, #12]
 8002354:	3310      	adds	r3, #16
 8002356:	0ffd      	lsrs	r5, r7, #31
 8002358:	429e      	cmp	r6, r3
 800235a:	d013      	beq.n	8002384 <memset+0xa0>
 800235c:	2d00      	cmp	r5, #0
 800235e:	d006      	beq.n	800236e <memset+0x8a>
 8002360:	601a      	str	r2, [r3, #0]
 8002362:	605a      	str	r2, [r3, #4]
 8002364:	609a      	str	r2, [r3, #8]
 8002366:	60da      	str	r2, [r3, #12]
 8002368:	3310      	adds	r3, #16
 800236a:	429e      	cmp	r6, r3
 800236c:	d00a      	beq.n	8002384 <memset+0xa0>
 800236e:	601a      	str	r2, [r3, #0]
 8002370:	605a      	str	r2, [r3, #4]
 8002372:	609a      	str	r2, [r3, #8]
 8002374:	60da      	str	r2, [r3, #12]
 8002376:	611a      	str	r2, [r3, #16]
 8002378:	615a      	str	r2, [r3, #20]
 800237a:	619a      	str	r2, [r3, #24]
 800237c:	61da      	str	r2, [r3, #28]
 800237e:	3320      	adds	r3, #32
 8002380:	429e      	cmp	r6, r3
 8002382:	d1f4      	bne.n	800236e <memset+0x8a>
 8002384:	230f      	movs	r3, #15
 8002386:	401c      	ands	r4, r3
 8002388:	1c35      	adds	r5, r6, #0
 800238a:	1c33      	adds	r3, r6, #0
 800238c:	2c03      	cmp	r4, #3
 800238e:	d917      	bls.n	80023c0 <memset+0xdc>
 8002390:	1f26      	subs	r6, r4, #4
 8002392:	08b7      	lsrs	r7, r6, #2
 8002394:	3701      	adds	r7, #1
 8002396:	00be      	lsls	r6, r7, #2
 8002398:	19ab      	adds	r3, r5, r6
 800239a:	3e04      	subs	r6, #4
 800239c:	0777      	lsls	r7, r6, #29
 800239e:	c504      	stmia	r5!, {r2}
 80023a0:	0ffe      	lsrs	r6, r7, #31
 80023a2:	429d      	cmp	r5, r3
 80023a4:	d00a      	beq.n	80023bc <memset+0xd8>
 80023a6:	2e00      	cmp	r6, #0
 80023a8:	d002      	beq.n	80023b0 <memset+0xcc>
 80023aa:	c504      	stmia	r5!, {r2}
 80023ac:	429d      	cmp	r5, r3
 80023ae:	d005      	beq.n	80023bc <memset+0xd8>
 80023b0:	1c2f      	adds	r7, r5, #0
 80023b2:	c704      	stmia	r7!, {r2}
 80023b4:	606a      	str	r2, [r5, #4]
 80023b6:	1d3d      	adds	r5, r7, #4
 80023b8:	429d      	cmp	r5, r3
 80023ba:	d1f9      	bne.n	80023b0 <memset+0xcc>
 80023bc:	2203      	movs	r2, #3
 80023be:	4014      	ands	r4, r2
 80023c0:	2c00      	cmp	r4, #0
 80023c2:	d014      	beq.n	80023ee <memset+0x10a>
 80023c4:	191c      	adds	r4, r3, r4
 80023c6:	43dd      	mvns	r5, r3
 80023c8:	b2c9      	uxtb	r1, r1
 80023ca:	1966      	adds	r6, r4, r5
 80023cc:	2701      	movs	r7, #1
 80023ce:	7019      	strb	r1, [r3, #0]
 80023d0:	3301      	adds	r3, #1
 80023d2:	403e      	ands	r6, r7
 80023d4:	42a3      	cmp	r3, r4
 80023d6:	d00a      	beq.n	80023ee <memset+0x10a>
 80023d8:	2e00      	cmp	r6, #0
 80023da:	d003      	beq.n	80023e4 <memset+0x100>
 80023dc:	7019      	strb	r1, [r3, #0]
 80023de:	3301      	adds	r3, #1
 80023e0:	42a3      	cmp	r3, r4
 80023e2:	d004      	beq.n	80023ee <memset+0x10a>
 80023e4:	7019      	strb	r1, [r3, #0]
 80023e6:	7059      	strb	r1, [r3, #1]
 80023e8:	3302      	adds	r3, #2
 80023ea:	42a3      	cmp	r3, r4
 80023ec:	d1fa      	bne.n	80023e4 <memset+0x100>
 80023ee:	bdf0      	pop	{r4, r5, r6, r7, pc}
 80023f0:	1c03      	adds	r3, r0, #0
 80023f2:	1c14      	adds	r4, r2, #0
 80023f4:	e798      	b.n	8002328 <memset+0x44>
 80023f6:	1c1d      	adds	r5, r3, #0
 80023f8:	e7ca      	b.n	8002390 <memset+0xac>
 80023fa:	46c0      	nop			; (mov r8, r8)

080023fc <_ZN12_GLOBAL__N_1L9sin_arrayE>:
 80023fc:	07ff 080e 081d 082b 083a 0849 0857 0866     ......+.:.I.W.f.
 800240c:	0874 0883 0891 08a0 08ae 08bc 08ca 08d8     t...............
 800241c:	08e6 08f3 0901 090e 091b 0928 0935 0942     ..........(.5.B.
 800242c:	094e 095b 0967 0973 097f 098a 0995 09a0     N.[.g.s.........
 800243c:	09ab 09b6 09c0 09ca 09d4 09dd 09e7 09f0     ................
 800244c:	09f8 0a01 0a09 0a11 0a18 0a20 0a26 0a2d     .......... .&.-.
 800245c:	0a33 0a39 0a3f 0a44 0a49 0a4e 0a52 0a56     3.9.?.D.I.N.R.V.
 800246c:	0a5a 0a5d 0a60 0a63 0a65 0a67 0a69 0a6a     Z.].`.c.e.g.i.j.
 800247c:	0a6b 0a6b 0a6b 0a6b 0a6b 0a6a 0a69 0a67     k.k.k.k.k.j.i.g.
 800248c:	0a65 0a63 0a60 0a5d 0a5a 0a56 0a52 0a4e     e.c.`.].Z.V.R.N.
 800249c:	0a49 0a44 0a3f 0a39 0a33 0a2d 0a26 0a20     I.D.?.9.3.-.&. .
 80024ac:	0a18 0a11 0a09 0a01 09f8 09f0 09e7 09dd     ................
 80024bc:	09d4 09ca 09c0 09b6 09ab 09a0 0995 098a     ................
 80024cc:	097f 0973 0967 095b 094e 0942 0935 0928     ..s.g.[.N.B.5.(.
 80024dc:	091b 090e 0901 08f3 08e6 08d8 08ca 08bc     ................
 80024ec:	08ae 08a0 0891 0883 0874 0866 0857 0849     ........t.f.W.I.
 80024fc:	083a 082b 081d 080e 07ff 07f0 07e1 07d3     :.+.............
 800250c:	07c4 07b5 07a7 0798 078a 077b 076d 075e     ..........{.m.^.
 800251c:	0750 0742 0734 0726 0718 070b 06fd 06f0     P.B.4.&.........
 800252c:	06e3 06d6 06c9 06bc 06b0 06a3 0697 068b     ................
 800253c:	067f 0674 0669 065e 0653 0648 063e 0634     ..t.i.^.S.H.>.4.
 800254c:	062a 0621 0617 060e 0606 05fd 05f5 05ed     *.!.............
 800255c:	05e6 05de 05d8 05d1 05cb 05c5 05bf 05ba     ................
 800256c:	05b5 05b0 05ac 05a8 05a4 05a1 059e 059b     ................
 800257c:	0599 0597 0595 0594 0593 0593 0593 0593     ................
 800258c:	0593 0594 0595 0597 0599 059b 059e 05a1     ................
 800259c:	05a4 05a8 05ac 05b0 05b5 05ba 05bf 05c5     ................
 80025ac:	05cb 05d1 05d8 05de 05e6 05ed 05f5 05fd     ................
 80025bc:	0606 060e 0617 0621 062a 0634 063e 0648     ......!.*.4.>.H.
 80025cc:	0653 065e 0669 0674 067f 068b 0697 06a3     S.^.i.t.........
 80025dc:	06b0 06bc 06c9 06d6 06e3 06f0 06fd 070b     ................
 80025ec:	0718 0726 0734 0742 0750 075e 076d 077b     ..&.4.B.P.^.m.{.
 80025fc:	078a 0798 07a7 07b5 07c4 07d3 07e1 07f0     ................

0800260c <_ZN12_GLOBAL__N_110zapp1_impl7msgfunsE>:
 800260c:	0831 0800 081d 0800 0809 0800 07a1 0800     1...............
 800261c:	078d 0800 0779 0800 0731 0800 071d 0800     ....y...1.......
 800262c:	0709 0800                                   ....

08002630 <_ZZ18mavlink_parse_charE20mavlink_message_crcs>:
 8002630:	7c32 0089 d9ed 7768 0000 5900 0000 0000     2|....hw...Y....
 8002640:	0000 0000 9fd6 a8dc 1718 90aa 7343 f627     ............Cs'.
 8002650:	68b9 f4ed d4f2 fe09 1ce6 841c e8dd 990b     .h..............
 8002660:	2729 dfd6 218d 030f 1864 eeef f01e 82b7     )'...!..d.......
 8002670:	0082 1594 f300 007c 0000 0014 8f98 0000     ......|.........
	...
 8002688:	e700 3fb7 0036 0000 0000 0000 66af d09e     ...?6........f..
 8002698:	5d38 0000 0000 0000 0000 0000 0000 0000     8]..............
	...
 80026c0:	0000 2a00 0ff1 db86 bcd0 1654 1513 0086     ...*......T.....
 80026d0:	444e 7fbd 156f 9015 ea01 b549 0016 0000     ND..o.....I.....
	...
 8002728:	cc00 aa31 532c 002e                         ..1.,S..

08002730 <_ZN12_GLOBAL__N_110MAVStreamsE>:
 8002730:	0001 0002 0002 0002 0003 0005 0006 0002     ................
 8002740:	000a 0005 000b 0002 1170 0800 121a 0800     ........p.......
 8002750:	12c2 0800 1282 0800 12c2 0800 127a 0800     ............z...
 8002760:	12c2 0800 1282 0800 121a 0800 121a 0800     ................
 8002770:	127a 0800 1282 0800 12e0 0800 12e0 0800     z...............
 8002780:	12e0 0800 12c8 0800 154c 0800 168e 0800     ........L.......
 8002790:	168e 0800 1686 0800 1674 0800 1674 0800     ........t...t...
 80027a0:	166c 0800 1686 0800 1674 0800 166c 0800     l.......t...l...
 80027b0:	1674 0800 1686 0800 1618 0800 1618 0800     t...............
 80027c0:	1618 0800 1692 0800 0043 0000               ........C...

080027cc <_global_impure_ptr>:
 80027cc:	0030 2000                                   0.. 

080027d0 <_init>:
 80027d0:	b5f8      	push	{r3, r4, r5, r6, r7, lr}
 80027d2:	46c0      	nop			; (mov r8, r8)
 80027d4:	bcf8      	pop	{r3, r4, r5, r6, r7}
 80027d6:	bc08      	pop	{r3}
 80027d8:	469e      	mov	lr, r3
 80027da:	4770      	bx	lr

080027dc <_fini>:
 80027dc:	b5f8      	push	{r3, r4, r5, r6, r7, lr}
 80027de:	46c0      	nop			; (mov r8, r8)
 80027e0:	bcf8      	pop	{r3, r4, r5, r6, r7}
 80027e2:	bc08      	pop	{r3}
 80027e4:	469e      	mov	lr, r3
 80027e6:	4770      	bx	lr
