
main.elf:     file format elf32-littlearm


Disassembly of section .text:

080000c8 <__cxa_pure_virtual>:
 80000c8:	e7fe      	b.n	80000c8 <__cxa_pure_virtual>

080000ca <_ZdlPv>:
 80000ca:	4770      	bx	lr

080000cc <_Z12setup_eventsv>:
 80000cc:	b508      	push	{r3, lr}
 80000ce:	f000 fa5f 	bl	8000590 <_Z17setup_frsky_eventv>
 80000d2:	f000 f994 	bl	80003fe <_Z15setup_fsk_eventv>
 80000d6:	f001 fc73 	bl	80019c0 <_Z21setup_heartbeat_eventv>
 80000da:	4b0b      	ldr	r3, [pc, #44]	; (8000108 <_Z12setup_eventsv+0x3c>)
 80000dc:	21fa      	movs	r1, #250	; 0xfa
 80000de:	6818      	ldr	r0, [r3, #0]
 80000e0:	0089      	lsls	r1, r1, #2
 80000e2:	f001 fca7 	bl	8001a34 <__aeabi_uidiv>
 80000e6:	4b09      	ldr	r3, [pc, #36]	; (800010c <_Z12setup_eventsv+0x40>)
 80000e8:	4a09      	ldr	r2, [pc, #36]	; (8000110 <_Z12setup_eventsv+0x44>)
 80000ea:	3801      	subs	r0, #1
 80000ec:	6058      	str	r0, [r3, #4]
 80000ee:	6a10      	ldr	r0, [r2, #32]
 80000f0:	0201      	lsls	r1, r0, #8
 80000f2:	0a08      	lsrs	r0, r1, #8
 80000f4:	21c0      	movs	r1, #192	; 0xc0
 80000f6:	0609      	lsls	r1, r1, #24
 80000f8:	4301      	orrs	r1, r0
 80000fa:	6211      	str	r1, [r2, #32]
 80000fc:	2007      	movs	r0, #7
 80000fe:	2200      	movs	r2, #0
 8000100:	609a      	str	r2, [r3, #8]
 8000102:	6018      	str	r0, [r3, #0]
 8000104:	bd08      	pop	{r3, pc}
 8000106:	46c0      	nop			; (mov r8, r8)
 8000108:	20000004 	.word	0x20000004
 800010c:	e000e010 	.word	0xe000e010
 8000110:	e000ed00 	.word	0xe000ed00

08000114 <_Z12setup_inputsv>:
 8000114:	b508      	push	{r3, lr}
 8000116:	f003 fecf 	bl	8003eb8 <_ZN4quan5stm3211serial_portINS0_5usart6moduleILm1073821696EEELj200ELj200ENS_3mcu3pinINS0_4gpio6moduleILm1207959552EEELm9EEENS6_IS9_Lm10EEEE4initEv>
 800011a:	4b04      	ldr	r3, [pc, #16]	; (800012c <_Z12setup_inputsv+0x18>)
 800011c:	4a04      	ldr	r2, [pc, #16]	; (8000130 <_Z12setup_inputsv+0x1c>)
 800011e:	6819      	ldr	r1, [r3, #0]
 8000120:	4804      	ldr	r0, [pc, #16]	; (8000134 <_Z12setup_inputsv+0x20>)
 8000122:	400a      	ands	r2, r1
 8000124:	601a      	str	r2, [r3, #0]
 8000126:	60d8      	str	r0, [r3, #12]
 8000128:	bd08      	pop	{r3, pc}
 800012a:	46c0      	nop			; (mov r8, r8)
 800012c:	40013800 	.word	0x40013800
 8000130:	ffff7fff 	.word	0xffff7fff
 8000134:	00000341 	.word	0x00000341

08000138 <_Z13setup_outputsv>:
 8000138:	b508      	push	{r3, lr}
 800013a:	f003 ff29 	bl	8003f90 <_ZN4quan5stm3211serial_portINS0_5usart6moduleILm1073759232EEELj200ELj200ENS_3mcu3pinINS0_4gpio6moduleILm1207959552EEELm2EEENS6_IS9_Lm3EEEE4initEv>
 800013e:	4b05      	ldr	r3, [pc, #20]	; (8000154 <_Z13setup_outputsv+0x1c>)
 8000140:	4a05      	ldr	r2, [pc, #20]	; (8000158 <_Z13setup_outputsv+0x20>)
 8000142:	6819      	ldr	r1, [r3, #0]
 8000144:	4805      	ldr	r0, [pc, #20]	; (800015c <_Z13setup_outputsv+0x24>)
 8000146:	400a      	ands	r2, r1
 8000148:	601a      	str	r2, [r3, #0]
 800014a:	60d8      	str	r0, [r3, #12]
 800014c:	f000 f958 	bl	8000400 <_Z9fsk_setupv>
 8000150:	bd08      	pop	{r3, pc}
 8000152:	46c0      	nop			; (mov r8, r8)
 8000154:	40004400 	.word	0x40004400
 8000158:	ffff7fff 	.word	0xffff7fff
 800015c:	00001388 	.word	0x00001388

08000160 <setup>:
 8000160:	b508      	push	{r3, lr}
 8000162:	f7ff ffe9 	bl	8000138 <_Z13setup_outputsv>
 8000166:	f7ff ffb1 	bl	80000cc <_Z12setup_eventsv>
 800016a:	f7ff ffd3 	bl	8000114 <_Z12setup_inputsv>
 800016e:	bd08      	pop	{r3, pc}

08000170 <_sbrk>:
 8000170:	4a08      	ldr	r2, [pc, #32]	; (8000194 <_sbrk+0x24>)
 8000172:	b508      	push	{r3, lr}
 8000174:	6813      	ldr	r3, [r2, #0]
 8000176:	4908      	ldr	r1, [pc, #32]	; (8000198 <_sbrk+0x28>)
 8000178:	1818      	adds	r0, r3, r0
 800017a:	4288      	cmp	r0, r1
 800017c:	d906      	bls.n	800018c <_sbrk+0x1c>
 800017e:	f004 fc01 	bl	8004984 <__errno>
 8000182:	220c      	movs	r2, #12
 8000184:	2301      	movs	r3, #1
 8000186:	6002      	str	r2, [r0, #0]
 8000188:	425b      	negs	r3, r3
 800018a:	e000      	b.n	800018e <_sbrk+0x1e>
 800018c:	6010      	str	r0, [r2, #0]
 800018e:	1c18      	adds	r0, r3, #0
 8000190:	bd08      	pop	{r3, pc}
 8000192:	46c0      	nop			; (mov r8, r8)
 8000194:	20000000 	.word	0x20000000
 8000198:	20000b14 	.word	0x20000b14

0800019c <SystemInit>:
 800019c:	4b33      	ldr	r3, [pc, #204]	; (800026c <SystemInit+0xd0>)
 800019e:	b513      	push	{r0, r1, r4, lr}
 80001a0:	6819      	ldr	r1, [r3, #0]
 80001a2:	2201      	movs	r2, #1
 80001a4:	4311      	orrs	r1, r2
 80001a6:	6019      	str	r1, [r3, #0]
 80001a8:	6858      	ldr	r0, [r3, #4]
 80001aa:	4c31      	ldr	r4, [pc, #196]	; (8000270 <SystemInit+0xd4>)
 80001ac:	4931      	ldr	r1, [pc, #196]	; (8000274 <SystemInit+0xd8>)
 80001ae:	4004      	ands	r4, r0
 80001b0:	605c      	str	r4, [r3, #4]
 80001b2:	6818      	ldr	r0, [r3, #0]
 80001b4:	4001      	ands	r1, r0
 80001b6:	6019      	str	r1, [r3, #0]
 80001b8:	681c      	ldr	r4, [r3, #0]
 80001ba:	482f      	ldr	r0, [pc, #188]	; (8000278 <SystemInit+0xdc>)
 80001bc:	492f      	ldr	r1, [pc, #188]	; (800027c <SystemInit+0xe0>)
 80001be:	4020      	ands	r0, r4
 80001c0:	6018      	str	r0, [r3, #0]
 80001c2:	685c      	ldr	r4, [r3, #4]
 80001c4:	400c      	ands	r4, r1
 80001c6:	605c      	str	r4, [r3, #4]
 80001c8:	6ad8      	ldr	r0, [r3, #44]	; 0x2c
 80001ca:	240f      	movs	r4, #15
 80001cc:	43a0      	bics	r0, r4
 80001ce:	62d8      	str	r0, [r3, #44]	; 0x2c
 80001d0:	6b1c      	ldr	r4, [r3, #48]	; 0x30
 80001d2:	482b      	ldr	r0, [pc, #172]	; (8000280 <SystemInit+0xe4>)
 80001d4:	4020      	ands	r0, r4
 80001d6:	6318      	str	r0, [r3, #48]	; 0x30
 80001d8:	6b5c      	ldr	r4, [r3, #52]	; 0x34
 80001da:	2000      	movs	r0, #0
 80001dc:	4394      	bics	r4, r2
 80001de:	635c      	str	r4, [r3, #52]	; 0x34
 80001e0:	6098      	str	r0, [r3, #8]
 80001e2:	9000      	str	r0, [sp, #0]
 80001e4:	9001      	str	r0, [sp, #4]
 80001e6:	681c      	ldr	r4, [r3, #0]
 80001e8:	2280      	movs	r2, #128	; 0x80
 80001ea:	0250      	lsls	r0, r2, #9
 80001ec:	4320      	orrs	r0, r4
 80001ee:	6018      	str	r0, [r3, #0]
 80001f0:	681c      	ldr	r4, [r3, #0]
 80001f2:	2280      	movs	r2, #128	; 0x80
 80001f4:	0292      	lsls	r2, r2, #10
 80001f6:	4014      	ands	r4, r2
 80001f8:	9401      	str	r4, [sp, #4]
 80001fa:	9800      	ldr	r0, [sp, #0]
 80001fc:	3001      	adds	r0, #1
 80001fe:	9000      	str	r0, [sp, #0]
 8000200:	9c01      	ldr	r4, [sp, #4]
 8000202:	2c00      	cmp	r4, #0
 8000204:	d104      	bne.n	8000210 <SystemInit+0x74>
 8000206:	9c00      	ldr	r4, [sp, #0]
 8000208:	20a0      	movs	r0, #160	; 0xa0
 800020a:	01c0      	lsls	r0, r0, #7
 800020c:	4284      	cmp	r4, r0
 800020e:	d1ef      	bne.n	80001f0 <SystemInit+0x54>
 8000210:	681c      	ldr	r4, [r3, #0]
 8000212:	4022      	ands	r2, r4
 8000214:	d000      	beq.n	8000218 <SystemInit+0x7c>
 8000216:	2201      	movs	r2, #1
 8000218:	9201      	str	r2, [sp, #4]
 800021a:	9a01      	ldr	r2, [sp, #4]
 800021c:	2a01      	cmp	r2, #1
 800021e:	d124      	bne.n	800026a <SystemInit+0xce>
 8000220:	4c18      	ldr	r4, [pc, #96]	; (8000284 <SystemInit+0xe8>)
 8000222:	2011      	movs	r0, #17
 8000224:	6020      	str	r0, [r4, #0]
 8000226:	685a      	ldr	r2, [r3, #4]
 8000228:	605a      	str	r2, [r3, #4]
 800022a:	685c      	ldr	r4, [r3, #4]
 800022c:	605c      	str	r4, [r3, #4]
 800022e:	685a      	ldr	r2, [r3, #4]
 8000230:	2488      	movs	r4, #136	; 0x88
 8000232:	4011      	ands	r1, r2
 8000234:	6059      	str	r1, [r3, #4]
 8000236:	6859      	ldr	r1, [r3, #4]
 8000238:	0362      	lsls	r2, r4, #13
 800023a:	430a      	orrs	r2, r1
 800023c:	605a      	str	r2, [r3, #4]
 800023e:	6819      	ldr	r1, [r3, #0]
 8000240:	2480      	movs	r4, #128	; 0x80
 8000242:	4084      	lsls	r4, r0
 8000244:	430c      	orrs	r4, r1
 8000246:	601c      	str	r4, [r3, #0]
 8000248:	6818      	ldr	r0, [r3, #0]
 800024a:	4a08      	ldr	r2, [pc, #32]	; (800026c <SystemInit+0xd0>)
 800024c:	0180      	lsls	r0, r0, #6
 800024e:	d5fb      	bpl.n	8000248 <SystemInit+0xac>
 8000250:	6851      	ldr	r1, [r2, #4]
 8000252:	2403      	movs	r4, #3
 8000254:	43a1      	bics	r1, r4
 8000256:	6051      	str	r1, [r2, #4]
 8000258:	6851      	ldr	r1, [r2, #4]
 800025a:	2002      	movs	r0, #2
 800025c:	4301      	orrs	r1, r0
 800025e:	6051      	str	r1, [r2, #4]
 8000260:	685c      	ldr	r4, [r3, #4]
 8000262:	220c      	movs	r2, #12
 8000264:	4022      	ands	r2, r4
 8000266:	2a08      	cmp	r2, #8
 8000268:	d1fa      	bne.n	8000260 <SystemInit+0xc4>
 800026a:	bd13      	pop	{r0, r1, r4, pc}
 800026c:	40021000 	.word	0x40021000
 8000270:	f8ffb80c 	.word	0xf8ffb80c
 8000274:	fef6ffff 	.word	0xfef6ffff
 8000278:	fffbffff 	.word	0xfffbffff
 800027c:	ffc0ffff 	.word	0xffc0ffff
 8000280:	fffffeac 	.word	0xfffffeac
 8000284:	40022000 	.word	0x40022000

08000288 <SystemCoreClockUpdate>:
 8000288:	b570      	push	{r4, r5, r6, lr}
 800028a:	4d14      	ldr	r5, [pc, #80]	; (80002dc <SystemCoreClockUpdate+0x54>)
 800028c:	230c      	movs	r3, #12
 800028e:	686a      	ldr	r2, [r5, #4]
 8000290:	4c13      	ldr	r4, [pc, #76]	; (80002e0 <SystemCoreClockUpdate+0x58>)
 8000292:	4013      	ands	r3, r2
 8000294:	2b04      	cmp	r3, #4
 8000296:	d001      	beq.n	800029c <SystemCoreClockUpdate+0x14>
 8000298:	2b08      	cmp	r3, #8
 800029a:	d002      	beq.n	80002a2 <SystemCoreClockUpdate+0x1a>
 800029c:	4811      	ldr	r0, [pc, #68]	; (80002e4 <SystemCoreClockUpdate+0x5c>)
 800029e:	6020      	str	r0, [r4, #0]
 80002a0:	e012      	b.n	80002c8 <SystemCoreClockUpdate+0x40>
 80002a2:	686e      	ldr	r6, [r5, #4]
 80002a4:	6868      	ldr	r0, [r5, #4]
 80002a6:	02b1      	lsls	r1, r6, #10
 80002a8:	0f0e      	lsrs	r6, r1, #28
 80002aa:	3602      	adds	r6, #2
 80002ac:	03c2      	lsls	r2, r0, #15
 80002ae:	d402      	bmi.n	80002b6 <SystemCoreClockUpdate+0x2e>
 80002b0:	4b0d      	ldr	r3, [pc, #52]	; (80002e8 <SystemCoreClockUpdate+0x60>)
 80002b2:	435e      	muls	r6, r3
 80002b4:	e007      	b.n	80002c6 <SystemCoreClockUpdate+0x3e>
 80002b6:	6ae9      	ldr	r1, [r5, #44]	; 0x2c
 80002b8:	220f      	movs	r2, #15
 80002ba:	4011      	ands	r1, r2
 80002bc:	3101      	adds	r1, #1
 80002be:	4809      	ldr	r0, [pc, #36]	; (80002e4 <SystemCoreClockUpdate+0x5c>)
 80002c0:	f001 fbb8 	bl	8001a34 <__aeabi_uidiv>
 80002c4:	4346      	muls	r6, r0
 80002c6:	6026      	str	r6, [r4, #0]
 80002c8:	686d      	ldr	r5, [r5, #4]
 80002ca:	6820      	ldr	r0, [r4, #0]
 80002cc:	0629      	lsls	r1, r5, #24
 80002ce:	0f0e      	lsrs	r6, r1, #28
 80002d0:	19a2      	adds	r2, r4, r6
 80002d2:	7913      	ldrb	r3, [r2, #4]
 80002d4:	40d8      	lsrs	r0, r3
 80002d6:	6020      	str	r0, [r4, #0]
 80002d8:	bd70      	pop	{r4, r5, r6, pc}
 80002da:	46c0      	nop			; (mov r8, r8)
 80002dc:	40021000 	.word	0x40021000
 80002e0:	20000004 	.word	0x20000004
 80002e4:	007a1200 	.word	0x007a1200
 80002e8:	003d0900 	.word	0x003d0900

080002ec <USART2_IRQHandler>:
 80002ec:	b508      	push	{r3, lr}
 80002ee:	f003 ff13 	bl	8004118 <_ZN4quan5stm325usart11irq_handlerINS0_11serial_portINS1_6moduleILm1073759232EEELj200ELj200ENS_3mcu3pinINS0_4gpio6moduleILm1207959552EEELm2EEENS7_ISA_Lm3EEEEEEEvv>
 80002f2:	bd08      	pop	{r3, pc}

080002f4 <USART1_IRQHandler>:
 80002f4:	b508      	push	{r3, lr}
 80002f6:	f003 ff45 	bl	8004184 <_ZN4quan5stm325usart11irq_handlerINS0_11serial_portINS1_6moduleILm1073821696EEELj200ELj200ENS_3mcu3pinINS0_4gpio6moduleILm1207959552EEELm9EEENS7_ISA_Lm10EEEEEEEvv>
 80002fa:	bd08      	pop	{r3, pc}

080002fc <_ZN12_GLOBAL__N_113advance_spaceEv>:
 80002fc:	b510      	push	{r4, lr}
 80002fe:	4c07      	ldr	r4, [pc, #28]	; (800031c <_ZN12_GLOBAL__N_113advance_spaceEv+0x20>)
 8000300:	4b07      	ldr	r3, [pc, #28]	; (8000320 <_ZN12_GLOBAL__N_113advance_spaceEv+0x24>)
 8000302:	6820      	ldr	r0, [r4, #0]
 8000304:	0042      	lsls	r2, r0, #1
 8000306:	5ad1      	ldrh	r1, [r2, r3]
 8000308:	4a06      	ldr	r2, [pc, #24]	; (8000324 <_ZN12_GLOBAL__N_113advance_spaceEv+0x28>)
 800030a:	2384      	movs	r3, #132	; 0x84
 800030c:	6091      	str	r1, [r2, #8]
 800030e:	3016      	adds	r0, #22
 8000310:	0059      	lsls	r1, r3, #1
 8000312:	f001 fbd3 	bl	8001abc <__aeabi_uidivmod>
 8000316:	6021      	str	r1, [r4, #0]
 8000318:	bd10      	pop	{r4, pc}
 800031a:	46c0      	nop			; (mov r8, r8)
 800031c:	20000464 	.word	0x20000464
 8000320:	08004cd8 	.word	0x08004cd8
 8000324:	40007400 	.word	0x40007400

08000328 <_ZN12_GLOBAL__N_112advance_markEv>:
 8000328:	b510      	push	{r4, lr}
 800032a:	4c07      	ldr	r4, [pc, #28]	; (8000348 <_ZN12_GLOBAL__N_112advance_markEv+0x20>)
 800032c:	4b07      	ldr	r3, [pc, #28]	; (800034c <_ZN12_GLOBAL__N_112advance_markEv+0x24>)
 800032e:	6820      	ldr	r0, [r4, #0]
 8000330:	0042      	lsls	r2, r0, #1
 8000332:	5ad1      	ldrh	r1, [r2, r3]
 8000334:	4a06      	ldr	r2, [pc, #24]	; (8000350 <_ZN12_GLOBAL__N_112advance_markEv+0x28>)
 8000336:	2384      	movs	r3, #132	; 0x84
 8000338:	6091      	str	r1, [r2, #8]
 800033a:	300c      	adds	r0, #12
 800033c:	0059      	lsls	r1, r3, #1
 800033e:	f001 fbbd 	bl	8001abc <__aeabi_uidivmod>
 8000342:	6021      	str	r1, [r4, #0]
 8000344:	bd10      	pop	{r4, pc}
 8000346:	46c0      	nop			; (mov r8, r8)
 8000348:	20000464 	.word	0x20000464
 800034c:	08004cd8 	.word	0x08004cd8
 8000350:	40007400 	.word	0x40007400

08000354 <_ZN12_GLOBAL__N_110mark_spaceEv>:
 8000354:	b510      	push	{r4, lr}
 8000356:	4c0d      	ldr	r4, [pc, #52]	; (800038c <_ZN12_GLOBAL__N_110mark_spaceEv+0x38>)
 8000358:	7923      	ldrb	r3, [r4, #4]
 800035a:	3301      	adds	r3, #1
 800035c:	b2d8      	uxtb	r0, r3
 800035e:	7120      	strb	r0, [r4, #4]
 8000360:	2808      	cmp	r0, #8
 8000362:	d103      	bne.n	800036c <_ZN12_GLOBAL__N_110mark_spaceEv+0x18>
 8000364:	f7ff ffe0 	bl	8000328 <_ZN12_GLOBAL__N_112advance_markEv>
 8000368:	2300      	movs	r3, #0
 800036a:	e00b      	b.n	8000384 <_ZN12_GLOBAL__N_110mark_spaceEv+0x30>
 800036c:	79a2      	ldrb	r2, [r4, #6]
 800036e:	4102      	asrs	r2, r0
 8000370:	1c11      	adds	r1, r2, #0
 8000372:	07ca      	lsls	r2, r1, #31
 8000374:	d503      	bpl.n	800037e <_ZN12_GLOBAL__N_110mark_spaceEv+0x2a>
 8000376:	f7ff ffd7 	bl	8000328 <_ZN12_GLOBAL__N_112advance_markEv>
 800037a:	2302      	movs	r3, #2
 800037c:	e002      	b.n	8000384 <_ZN12_GLOBAL__N_110mark_spaceEv+0x30>
 800037e:	f7ff ffbd 	bl	80002fc <_ZN12_GLOBAL__N_113advance_spaceEv>
 8000382:	2303      	movs	r3, #3
 8000384:	2001      	movs	r0, #1
 8000386:	7163      	strb	r3, [r4, #5]
 8000388:	8120      	strh	r0, [r4, #8]
 800038a:	bd10      	pop	{r4, pc}
 800038c:	20000464 	.word	0x20000464

08000390 <_Z7fsk_putc>:
 8000390:	4913      	ldr	r1, [pc, #76]	; (80003e0 <_Z7fsk_putc+0x50>)
 8000392:	2201      	movs	r2, #1
 8000394:	68cb      	ldr	r3, [r1, #12]
 8000396:	b510      	push	{r4, lr}
 8000398:	4393      	bics	r3, r2
 800039a:	60cb      	str	r3, [r1, #12]
 800039c:	4b11      	ldr	r3, [pc, #68]	; (80003e4 <_Z7fsk_putc+0x54>)
 800039e:	68dc      	ldr	r4, [r3, #12]
 80003a0:	2c00      	cmp	r4, #0
 80003a2:	d017      	beq.n	80003d4 <_Z7fsk_putc+0x44>
 80003a4:	7020      	strb	r0, [r4, #0]
 80003a6:	6918      	ldr	r0, [r3, #16]
 80003a8:	2800      	cmp	r0, #0
 80003aa:	d101      	bne.n	80003b0 <_Z7fsk_putc+0x20>
 80003ac:	68da      	ldr	r2, [r3, #12]
 80003ae:	611a      	str	r2, [r3, #16]
 80003b0:	68dc      	ldr	r4, [r3, #12]
 80003b2:	1c18      	adds	r0, r3, #0
 80003b4:	3401      	adds	r4, #1
 80003b6:	308c      	adds	r0, #140	; 0x8c
 80003b8:	60dc      	str	r4, [r3, #12]
 80003ba:	4284      	cmp	r4, r0
 80003bc:	d102      	bne.n	80003c4 <_Z7fsk_putc+0x34>
 80003be:	1c1a      	adds	r2, r3, #0
 80003c0:	3214      	adds	r2, #20
 80003c2:	60da      	str	r2, [r3, #12]
 80003c4:	68da      	ldr	r2, [r3, #12]
 80003c6:	691c      	ldr	r4, [r3, #16]
 80003c8:	2001      	movs	r0, #1
 80003ca:	42a2      	cmp	r2, r4
 80003cc:	d103      	bne.n	80003d6 <_Z7fsk_putc+0x46>
 80003ce:	2200      	movs	r2, #0
 80003d0:	60da      	str	r2, [r3, #12]
 80003d2:	e000      	b.n	80003d6 <_Z7fsk_putc+0x46>
 80003d4:	1c20      	adds	r0, r4, #0
 80003d6:	68cb      	ldr	r3, [r1, #12]
 80003d8:	2401      	movs	r4, #1
 80003da:	4323      	orrs	r3, r4
 80003dc:	60cb      	str	r3, [r1, #12]
 80003de:	bd10      	pop	{r4, pc}
 80003e0:	40001000 	.word	0x40001000
 80003e4:	20000464 	.word	0x20000464

080003e8 <_Z9fsk_writePKcj>:
 80003e8:	b538      	push	{r3, r4, r5, lr}
 80003ea:	1c04      	adds	r4, r0, #0
 80003ec:	1845      	adds	r5, r0, r1
 80003ee:	42ac      	cmp	r4, r5
 80003f0:	d004      	beq.n	80003fc <_Z9fsk_writePKcj+0x14>
 80003f2:	7820      	ldrb	r0, [r4, #0]
 80003f4:	f7ff ffcc 	bl	8000390 <_Z7fsk_putc>
 80003f8:	3401      	adds	r4, #1
 80003fa:	e7f8      	b.n	80003ee <_Z9fsk_writePKcj+0x6>
 80003fc:	bd38      	pop	{r3, r4, r5, pc}

080003fe <_Z15setup_fsk_eventv>:
 80003fe:	4770      	bx	lr

08000400 <_Z9fsk_setupv>:
 8000400:	4a1f      	ldr	r2, [pc, #124]	; (8000480 <_Z9fsk_setupv+0x80>)
 8000402:	b570      	push	{r4, r5, r6, lr}
 8000404:	6953      	ldr	r3, [r2, #20]
 8000406:	2480      	movs	r4, #128	; 0x80
 8000408:	02a4      	lsls	r4, r4, #10
 800040a:	4323      	orrs	r3, r4
 800040c:	2090      	movs	r0, #144	; 0x90
 800040e:	6153      	str	r3, [r2, #20]
 8000410:	05c5      	lsls	r5, r0, #23
 8000412:	682e      	ldr	r6, [r5, #0]
 8000414:	21c0      	movs	r1, #192	; 0xc0
 8000416:	008b      	lsls	r3, r1, #2
 8000418:	4333      	orrs	r3, r6
 800041a:	602b      	str	r3, [r5, #0]
 800041c:	68e8      	ldr	r0, [r5, #12]
 800041e:	4e19      	ldr	r6, [pc, #100]	; (8000484 <_Z9fsk_setupv+0x84>)
 8000420:	2180      	movs	r1, #128	; 0x80
 8000422:	4006      	ands	r6, r0
 8000424:	60ee      	str	r6, [r5, #12]
 8000426:	69d5      	ldr	r5, [r2, #28]
 8000428:	058b      	lsls	r3, r1, #22
 800042a:	432b      	orrs	r3, r5
 800042c:	61d3      	str	r3, [r2, #28]
 800042e:	4b16      	ldr	r3, [pc, #88]	; (8000488 <_Z9fsk_setupv+0x88>)
 8000430:	2000      	movs	r0, #0
 8000432:	6358      	str	r0, [r3, #52]	; 0x34
 8000434:	681e      	ldr	r6, [r3, #0]
 8000436:	2504      	movs	r5, #4
 8000438:	432e      	orrs	r6, r5
 800043a:	601e      	str	r6, [r3, #0]
 800043c:	6819      	ldr	r1, [r3, #0]
 800043e:	2638      	movs	r6, #56	; 0x38
 8000440:	43b1      	bics	r1, r6
 8000442:	6019      	str	r1, [r3, #0]
 8000444:	4911      	ldr	r1, [pc, #68]	; (800048c <_Z9fsk_setupv+0x8c>)
 8000446:	6099      	str	r1, [r3, #8]
 8000448:	681e      	ldr	r6, [r3, #0]
 800044a:	2101      	movs	r1, #1
 800044c:	430e      	orrs	r6, r1
 800044e:	601e      	str	r6, [r3, #0]
 8000450:	69d3      	ldr	r3, [r2, #28]
 8000452:	2610      	movs	r6, #16
 8000454:	4333      	orrs	r3, r6
 8000456:	61d3      	str	r3, [r2, #28]
 8000458:	4b0d      	ldr	r3, [pc, #52]	; (8000490 <_Z9fsk_setupv+0x90>)
 800045a:	4a0e      	ldr	r2, [pc, #56]	; (8000494 <_Z9fsk_setupv+0x94>)
 800045c:	6258      	str	r0, [r3, #36]	; 0x24
 800045e:	6298      	str	r0, [r3, #40]	; 0x28
 8000460:	2020      	movs	r0, #32
 8000462:	62da      	str	r2, [r3, #44]	; 0x2c
 8000464:	601d      	str	r5, [r3, #0]
 8000466:	6058      	str	r0, [r3, #4]
 8000468:	691d      	ldr	r5, [r3, #16]
 800046a:	4e0b      	ldr	r6, [pc, #44]	; (8000498 <_Z9fsk_setupv+0x98>)
 800046c:	438d      	bics	r5, r1
 800046e:	611d      	str	r5, [r3, #16]
 8000470:	6034      	str	r4, [r6, #0]
 8000472:	68dc      	ldr	r4, [r3, #12]
 8000474:	430c      	orrs	r4, r1
 8000476:	60dc      	str	r4, [r3, #12]
 8000478:	681a      	ldr	r2, [r3, #0]
 800047a:	4311      	orrs	r1, r2
 800047c:	6019      	str	r1, [r3, #0]
 800047e:	bd70      	pop	{r4, r5, r6, pc}
 8000480:	40021000 	.word	0x40021000
 8000484:	fffffcff 	.word	0xfffffcff
 8000488:	40007400 	.word	0x40007400
 800048c:	000007ff 	.word	0x000007ff
 8000490:	40001000 	.word	0x40001000
 8000494:	00000719 	.word	0x00000719
 8000498:	e000e100 	.word	0xe000e100

0800049c <TIM6_DAC_IRQHandler>:
 800049c:	b538      	push	{r3, r4, r5, lr}
 800049e:	4b32      	ldr	r3, [pc, #200]	; (8000568 <TIM6_DAC_IRQHandler+0xcc>)
 80004a0:	4c32      	ldr	r4, [pc, #200]	; (800056c <TIM6_DAC_IRQHandler+0xd0>)
 80004a2:	691a      	ldr	r2, [r3, #16]
 80004a4:	2101      	movs	r1, #1
 80004a6:	7960      	ldrb	r0, [r4, #5]
 80004a8:	438a      	bics	r2, r1
 80004aa:	611a      	str	r2, [r3, #16]
 80004ac:	2803      	cmp	r0, #3
 80004ae:	d85a      	bhi.n	8000566 <TIM6_DAC_IRQHandler+0xca>
 80004b0:	8925      	ldrh	r5, [r4, #8]
 80004b2:	3501      	adds	r5, #1
 80004b4:	b2ab      	uxth	r3, r5
 80004b6:	8123      	strh	r3, [r4, #8]
 80004b8:	f001 fab2 	bl	8001a20 <__gnu_thumb1_case_uqi>
 80004bc:	524d3802 	.word	0x524d3802
 80004c0:	2b15      	cmp	r3, #21
 80004c2:	d802      	bhi.n	80004ca <TIM6_DAC_IRQHandler+0x2e>
 80004c4:	f7ff ff30 	bl	8000328 <_ZN12_GLOBAL__N_112advance_markEv>
 80004c8:	e04d      	b.n	8000566 <TIM6_DAC_IRQHandler+0xca>
 80004ca:	6923      	ldr	r3, [r4, #16]
 80004cc:	2b00      	cmp	r3, #0
 80004ce:	d102      	bne.n	80004d6 <TIM6_DAC_IRQHandler+0x3a>
 80004d0:	f7ff ff2a 	bl	8000328 <_ZN12_GLOBAL__N_112advance_markEv>
 80004d4:	e03c      	b.n	8000550 <TIM6_DAC_IRQHandler+0xb4>
 80004d6:	4926      	ldr	r1, [pc, #152]	; (8000570 <TIM6_DAC_IRQHandler+0xd4>)
 80004d8:	4a26      	ldr	r2, [pc, #152]	; (8000574 <TIM6_DAC_IRQHandler+0xd8>)
 80004da:	7808      	ldrb	r0, [r1, #0]
 80004dc:	6955      	ldr	r5, [r2, #20]
 80004de:	2800      	cmp	r0, #0
 80004e0:	d004      	beq.n	80004ec <TIM6_DAC_IRQHandler+0x50>
 80004e2:	4825      	ldr	r0, [pc, #148]	; (8000578 <TIM6_DAC_IRQHandler+0xdc>)
 80004e4:	4028      	ands	r0, r5
 80004e6:	6150      	str	r0, [r2, #20]
 80004e8:	2200      	movs	r2, #0
 80004ea:	e004      	b.n	80004f6 <TIM6_DAC_IRQHandler+0x5a>
 80004ec:	2080      	movs	r0, #128	; 0x80
 80004ee:	0040      	lsls	r0, r0, #1
 80004f0:	4328      	orrs	r0, r5
 80004f2:	6150      	str	r0, [r2, #20]
 80004f4:	2201      	movs	r2, #1
 80004f6:	700a      	strb	r2, [r1, #0]
 80004f8:	68e5      	ldr	r5, [r4, #12]
 80004fa:	7819      	ldrb	r1, [r3, #0]
 80004fc:	71a1      	strb	r1, [r4, #6]
 80004fe:	2d00      	cmp	r5, #0
 8000500:	d100      	bne.n	8000504 <TIM6_DAC_IRQHandler+0x68>
 8000502:	60e3      	str	r3, [r4, #12]
 8000504:	1c22      	adds	r2, r4, #0
 8000506:	3301      	adds	r3, #1
 8000508:	328c      	adds	r2, #140	; 0x8c
 800050a:	6123      	str	r3, [r4, #16]
 800050c:	4293      	cmp	r3, r2
 800050e:	d102      	bne.n	8000516 <TIM6_DAC_IRQHandler+0x7a>
 8000510:	1c23      	adds	r3, r4, #0
 8000512:	3314      	adds	r3, #20
 8000514:	6123      	str	r3, [r4, #16]
 8000516:	6920      	ldr	r0, [r4, #16]
 8000518:	68e1      	ldr	r1, [r4, #12]
 800051a:	4288      	cmp	r0, r1
 800051c:	d101      	bne.n	8000522 <TIM6_DAC_IRQHandler+0x86>
 800051e:	2500      	movs	r5, #0
 8000520:	6125      	str	r5, [r4, #16]
 8000522:	f7ff feeb 	bl	80002fc <_ZN12_GLOBAL__N_113advance_spaceEv>
 8000526:	2201      	movs	r2, #1
 8000528:	7162      	strb	r2, [r4, #5]
 800052a:	e011      	b.n	8000550 <TIM6_DAC_IRQHandler+0xb4>
 800052c:	2b15      	cmp	r3, #21
 800052e:	d802      	bhi.n	8000536 <TIM6_DAC_IRQHandler+0x9a>
 8000530:	f7ff fee4 	bl	80002fc <_ZN12_GLOBAL__N_113advance_spaceEv>
 8000534:	e017      	b.n	8000566 <TIM6_DAC_IRQHandler+0xca>
 8000536:	79a0      	ldrb	r0, [r4, #6]
 8000538:	07c2      	lsls	r2, r0, #31
 800053a:	d503      	bpl.n	8000544 <TIM6_DAC_IRQHandler+0xa8>
 800053c:	f7ff fef4 	bl	8000328 <_ZN12_GLOBAL__N_112advance_markEv>
 8000540:	2202      	movs	r2, #2
 8000542:	e002      	b.n	800054a <TIM6_DAC_IRQHandler+0xae>
 8000544:	f7ff feda 	bl	80002fc <_ZN12_GLOBAL__N_113advance_spaceEv>
 8000548:	2203      	movs	r2, #3
 800054a:	2100      	movs	r1, #0
 800054c:	7162      	strb	r2, [r4, #5]
 800054e:	7121      	strb	r1, [r4, #4]
 8000550:	2301      	movs	r3, #1
 8000552:	8123      	strh	r3, [r4, #8]
 8000554:	e007      	b.n	8000566 <TIM6_DAC_IRQHandler+0xca>
 8000556:	2b15      	cmp	r3, #21
 8000558:	d9b4      	bls.n	80004c4 <TIM6_DAC_IRQHandler+0x28>
 800055a:	f7ff fefb 	bl	8000354 <_ZN12_GLOBAL__N_110mark_spaceEv>
 800055e:	e002      	b.n	8000566 <TIM6_DAC_IRQHandler+0xca>
 8000560:	2b15      	cmp	r3, #21
 8000562:	d8fa      	bhi.n	800055a <TIM6_DAC_IRQHandler+0xbe>
 8000564:	e7e4      	b.n	8000530 <TIM6_DAC_IRQHandler+0x94>
 8000566:	bd38      	pop	{r3, r4, r5, pc}
 8000568:	40001000 	.word	0x40001000
 800056c:	20000464 	.word	0x20000464
 8000570:	20000018 	.word	0x20000018
 8000574:	48000800 	.word	0x48000800
 8000578:	fffffeff 	.word	0xfffffeff

0800057c <_Z18FrSky_send_messagev>:
 800057c:	b508      	push	{r3, lr}
 800057e:	4b03      	ldr	r3, [pc, #12]	; (800058c <_Z18FrSky_send_messagev+0x10>)
 8000580:	6818      	ldr	r0, [r3, #0]
 8000582:	2801      	cmp	r0, #1
 8000584:	d101      	bne.n	800058a <_Z18FrSky_send_messagev+0xe>
 8000586:	f000 f80d 	bl	80005a4 <_ZN5zapp118frsky_send_messageEv>
 800058a:	bd08      	pop	{r3, pc}
 800058c:	20000028 	.word	0x20000028

08000590 <_Z17setup_frsky_eventv>:
 8000590:	b508      	push	{r3, lr}
 8000592:	4b03      	ldr	r3, [pc, #12]	; (80005a0 <_Z17setup_frsky_eventv+0x10>)
 8000594:	6818      	ldr	r0, [r3, #0]
 8000596:	2801      	cmp	r0, #1
 8000598:	d101      	bne.n	800059e <_Z17setup_frsky_eventv+0xe>
 800059a:	f000 f848 	bl	800062e <_ZN5zapp117setup_frsky_eventEv>
 800059e:	bd08      	pop	{r3, pc}
 80005a0:	20000028 	.word	0x20000028

080005a4 <_ZN5zapp118frsky_send_messageEv>:
 80005a4:	b538      	push	{r3, r4, r5, lr}
 80005a6:	4c15      	ldr	r4, [pc, #84]	; (80005fc <_ZN5zapp118frsky_send_messageEv+0x58>)
 80005a8:	8865      	ldrh	r5, [r4, #2]
 80005aa:	b22b      	sxth	r3, r5
 80005ac:	2b00      	cmp	r3, #0
 80005ae:	dc0f      	bgt.n	80005d0 <_ZN5zapp118frsky_send_messageEv+0x2c>
 80005b0:	7820      	ldrb	r0, [r4, #0]
 80005b2:	4d13      	ldr	r5, [pc, #76]	; (8000600 <_ZN5zapp118frsky_send_messageEv+0x5c>)
 80005b4:	0082      	lsls	r2, r0, #2
 80005b6:	5953      	ldr	r3, [r2, r5]
 80005b8:	4798      	blx	r3
 80005ba:	2202      	movs	r2, #2
 80005bc:	5ea1      	ldrsh	r1, [r4, r2]
 80005be:	1808      	adds	r0, r1, r0
 80005c0:	8060      	strh	r0, [r4, #2]
 80005c2:	7820      	ldrb	r0, [r4, #0]
 80005c4:	2109      	movs	r1, #9
 80005c6:	3001      	adds	r0, #1
 80005c8:	f001 fa78 	bl	8001abc <__aeabi_uidivmod>
 80005cc:	7021      	strb	r1, [r4, #0]
 80005ce:	e7ea      	b.n	80005a6 <_ZN5zapp118frsky_send_messageEv+0x2>
 80005d0:	7920      	ldrb	r0, [r4, #4]
 80005d2:	2103      	movs	r1, #3
 80005d4:	3001      	adds	r0, #1
 80005d6:	f001 fad1 	bl	8001b7c <__aeabi_idivmod>
 80005da:	b2c9      	uxtb	r1, r1
 80005dc:	7121      	strb	r1, [r4, #4]
 80005de:	3902      	subs	r1, #2
 80005e0:	1e4b      	subs	r3, r1, #1
 80005e2:	4199      	sbcs	r1, r3
 80005e4:	1868      	adds	r0, r5, r1
 80005e6:	3803      	subs	r0, #3
 80005e8:	b282      	uxth	r2, r0
 80005ea:	b215      	sxth	r5, r2
 80005ec:	3540      	adds	r5, #64	; 0x40
 80005ee:	db01      	blt.n	80005f4 <_ZN5zapp118frsky_send_messageEv+0x50>
 80005f0:	8062      	strh	r2, [r4, #2]
 80005f2:	e002      	b.n	80005fa <_ZN5zapp118frsky_send_messageEv+0x56>
 80005f4:	2340      	movs	r3, #64	; 0x40
 80005f6:	4259      	negs	r1, r3
 80005f8:	8061      	strh	r1, [r4, #2]
 80005fa:	bd38      	pop	{r3, r4, r5, pc}
 80005fc:	200004f0 	.word	0x200004f0
 8000600:	08004ee8 	.word	0x08004ee8

08000604 <_ZN12_GLOBAL__N_110zapp1_impl14create_messageIlE6assignERKl.isra.0>:
 8000604:	b510      	push	{r4, lr}
 8000606:	0a0b      	lsrs	r3, r1, #8
 8000608:	0c0a      	lsrs	r2, r1, #16
 800060a:	7081      	strb	r1, [r0, #2]
 800060c:	70c3      	strb	r3, [r0, #3]
 800060e:	0e09      	lsrs	r1, r1, #24
 8000610:	7803      	ldrb	r3, [r0, #0]
 8000612:	7102      	strb	r2, [r0, #4]
 8000614:	7141      	strb	r1, [r0, #5]
 8000616:	2201      	movs	r2, #1
 8000618:	5c84      	ldrb	r4, [r0, r2]
 800061a:	3201      	adds	r2, #1
 800061c:	1919      	adds	r1, r3, r4
 800061e:	120c      	asrs	r4, r1, #8
 8000620:	1909      	adds	r1, r1, r4
 8000622:	185b      	adds	r3, r3, r1
 8000624:	b2db      	uxtb	r3, r3
 8000626:	2a06      	cmp	r2, #6
 8000628:	d1f6      	bne.n	8000618 <_ZN12_GLOBAL__N_110zapp1_impl14create_messageIlE6assignERKl.isra.0+0x14>
 800062a:	7183      	strb	r3, [r0, #6]
 800062c:	bd10      	pop	{r4, pc}

0800062e <_ZN5zapp117setup_frsky_eventEv>:
 800062e:	b508      	push	{r3, lr}
 8000630:	4902      	ldr	r1, [pc, #8]	; (800063c <_ZN5zapp117setup_frsky_eventEv+0xe>)
 8000632:	2000      	movs	r0, #0
 8000634:	3108      	adds	r1, #8
 8000636:	f001 f94b 	bl	80018d0 <_Z9set_eventmP14periodic_event>
 800063a:	bd08      	pop	{r3, pc}
 800063c:	200004f0 	.word	0x200004f0

08000640 <_ZN12_GLOBAL__N_110zapp1_impl12esc_write_spEPcsb>:
 8000640:	b5f7      	push	{r0, r1, r2, r4, r5, r6, r7, lr}
 8000642:	2500      	movs	r5, #0
 8000644:	9000      	str	r0, [sp, #0]
 8000646:	9101      	str	r1, [sp, #4]
 8000648:	42aa      	cmp	r2, r5
 800064a:	d003      	beq.n	8000654 <_ZN12_GLOBAL__N_110zapp1_impl12esc_write_spEPcsb+0x14>
 800064c:	205e      	movs	r0, #94	; 0x5e
 800064e:	f003 fe13 	bl	8004278 <_ZN4quan5stm3211serial_portINS0_5usart6moduleILm1073759232EEELj200ELj200ENS_3mcu3pinINS0_4gpio6moduleILm1207959552EEELm2EEENS6_IS9_Lm3EEEE3putEc>
 8000652:	2501      	movs	r5, #1
 8000654:	1c2c      	adds	r4, r5, #0
 8000656:	2600      	movs	r6, #0
 8000658:	1973      	adds	r3, r6, r5
 800065a:	9a01      	ldr	r2, [sp, #4]
 800065c:	b218      	sxth	r0, r3
 800065e:	4290      	cmp	r0, r2
 8000660:	da16      	bge.n	8000690 <_ZN12_GLOBAL__N_110zapp1_impl12esc_write_spEPcsb+0x50>
 8000662:	9900      	ldr	r1, [sp, #0]
 8000664:	194f      	adds	r7, r1, r5
 8000666:	5dbf      	ldrb	r7, [r7, r6]
 8000668:	1c3b      	adds	r3, r7, #0
 800066a:	3b5d      	subs	r3, #93	; 0x5d
 800066c:	2b01      	cmp	r3, #1
 800066e:	d808      	bhi.n	8000682 <_ZN12_GLOBAL__N_110zapp1_impl12esc_write_spEPcsb+0x42>
 8000670:	205d      	movs	r0, #93	; 0x5d
 8000672:	f003 fe01 	bl	8004278 <_ZN4quan5stm3211serial_portINS0_5usart6moduleILm1073759232EEELj200ELj200ENS_3mcu3pinINS0_4gpio6moduleILm1207959552EEELm2EEENS6_IS9_Lm3EEEE3putEc>
 8000676:	2060      	movs	r0, #96	; 0x60
 8000678:	4078      	eors	r0, r7
 800067a:	f003 fdfd 	bl	8004278 <_ZN4quan5stm3211serial_portINS0_5usart6moduleILm1073759232EEELj200ELj200ENS_3mcu3pinINS0_4gpio6moduleILm1207959552EEELm2EEENS6_IS9_Lm3EEEE3putEc>
 800067e:	3402      	adds	r4, #2
 8000680:	e003      	b.n	800068a <_ZN12_GLOBAL__N_110zapp1_impl12esc_write_spEPcsb+0x4a>
 8000682:	1c38      	adds	r0, r7, #0
 8000684:	f003 fdf8 	bl	8004278 <_ZN4quan5stm3211serial_portINS0_5usart6moduleILm1073759232EEELj200ELj200ENS_3mcu3pinINS0_4gpio6moduleILm1207959552EEELm2EEENS6_IS9_Lm3EEEE3putEc>
 8000688:	3401      	adds	r4, #1
 800068a:	b2a4      	uxth	r4, r4
 800068c:	3601      	adds	r6, #1
 800068e:	e7e3      	b.n	8000658 <_ZN12_GLOBAL__N_110zapp1_impl12esc_write_spEPcsb+0x18>
 8000690:	b220      	sxth	r0, r4
 8000692:	bdfe      	pop	{r1, r2, r3, r4, r5, r6, r7, pc}

08000694 <_ZN12_GLOBAL__N_110zapp1_impl15update_alt_msg3Ev>:
 8000694:	b508      	push	{r3, lr}
 8000696:	4803      	ldr	r0, [pc, #12]	; (80006a4 <_ZN12_GLOBAL__N_110zapp1_impl15update_alt_msg3Ev+0x10>)
 8000698:	2103      	movs	r1, #3
 800069a:	301c      	adds	r0, #28
 800069c:	2200      	movs	r2, #0
 800069e:	f7ff ffcf 	bl	8000640 <_ZN12_GLOBAL__N_110zapp1_impl12esc_write_spEPcsb>
 80006a2:	bd08      	pop	{r3, pc}
 80006a4:	200004f0 	.word	0x200004f0

080006a8 <_ZN12_GLOBAL__N_110zapp1_impl15update_alt_msg2Ev>:
 80006a8:	b508      	push	{r3, lr}
 80006aa:	4803      	ldr	r0, [pc, #12]	; (80006b8 <_ZN12_GLOBAL__N_110zapp1_impl15update_alt_msg2Ev+0x10>)
 80006ac:	2102      	movs	r1, #2
 80006ae:	301a      	adds	r0, #26
 80006b0:	2200      	movs	r2, #0
 80006b2:	f7ff ffc5 	bl	8000640 <_ZN12_GLOBAL__N_110zapp1_impl12esc_write_spEPcsb>
 80006b6:	bd08      	pop	{r3, pc}
 80006b8:	200004f0 	.word	0x200004f0

080006bc <_ZN12_GLOBAL__N_110zapp1_impl15update_alt_msg1Ev>:
 80006bc:	b538      	push	{r3, r4, r5, lr}
 80006be:	4b0e      	ldr	r3, [pc, #56]	; (80006f8 <_ZN12_GLOBAL__N_110zapp1_impl15update_alt_msg1Ev+0x3c>)
 80006c0:	4c0e      	ldr	r4, [pc, #56]	; (80006fc <_ZN12_GLOBAL__N_110zapp1_impl15update_alt_msg1Ev+0x40>)
 80006c2:	681a      	ldr	r2, [r3, #0]
 80006c4:	1c25      	adds	r5, r4, #0
 80006c6:	480e      	ldr	r0, [pc, #56]	; (8000700 <_ZN12_GLOBAL__N_110zapp1_impl15update_alt_msg1Ev+0x44>)
 80006c8:	3518      	adds	r5, #24
 80006ca:	2a00      	cmp	r2, #0
 80006cc:	d105      	bne.n	80006da <_ZN12_GLOBAL__N_110zapp1_impl15update_alt_msg1Ev+0x1e>
 80006ce:	21fa      	movs	r1, #250	; 0xfa
 80006d0:	6940      	ldr	r0, [r0, #20]
 80006d2:	0089      	lsls	r1, r1, #2
 80006d4:	f001 f9fc 	bl	8001ad0 <__aeabi_idiv>
 80006d8:	e002      	b.n	80006e0 <_ZN12_GLOBAL__N_110zapp1_impl15update_alt_msg1Ev+0x24>
 80006da:	6c80      	ldr	r0, [r0, #72]	; 0x48
 80006dc:	f001 ffd8 	bl	8002690 <__aeabi_f2iz>
 80006e0:	1c01      	adds	r1, r0, #0
 80006e2:	1c28      	adds	r0, r5, #0
 80006e4:	f7ff ff8e 	bl	8000604 <_ZN12_GLOBAL__N_110zapp1_impl14create_messageIlE6assignERKl.isra.0>
 80006e8:	1c20      	adds	r0, r4, #0
 80006ea:	2102      	movs	r1, #2
 80006ec:	2201      	movs	r2, #1
 80006ee:	3018      	adds	r0, #24
 80006f0:	f7ff ffa6 	bl	8000640 <_ZN12_GLOBAL__N_110zapp1_impl12esc_write_spEPcsb>
 80006f4:	bd38      	pop	{r3, r4, r5, pc}
 80006f6:	46c0      	nop			; (mov r8, r8)
 80006f8:	2000002c 	.word	0x2000002c
 80006fc:	200004f0 	.word	0x200004f0
 8000700:	20000520 	.word	0x20000520

08000704 <_ZN12_GLOBAL__N_110zapp1_impl15update_lon_msg3Ev>:
 8000704:	b508      	push	{r3, lr}
 8000706:	4803      	ldr	r0, [pc, #12]	; (8000714 <_ZN12_GLOBAL__N_110zapp1_impl15update_lon_msg3Ev+0x10>)
 8000708:	2103      	movs	r1, #3
 800070a:	3023      	adds	r0, #35	; 0x23
 800070c:	2200      	movs	r2, #0
 800070e:	f7ff ff97 	bl	8000640 <_ZN12_GLOBAL__N_110zapp1_impl12esc_write_spEPcsb>
 8000712:	bd08      	pop	{r3, pc}
 8000714:	200004f0 	.word	0x200004f0

08000718 <_ZN12_GLOBAL__N_110zapp1_impl15update_lon_msg2Ev>:
 8000718:	b508      	push	{r3, lr}
 800071a:	4803      	ldr	r0, [pc, #12]	; (8000728 <_ZN12_GLOBAL__N_110zapp1_impl15update_lon_msg2Ev+0x10>)
 800071c:	2102      	movs	r1, #2
 800071e:	3021      	adds	r0, #33	; 0x21
 8000720:	2200      	movs	r2, #0
 8000722:	f7ff ff8d 	bl	8000640 <_ZN12_GLOBAL__N_110zapp1_impl12esc_write_spEPcsb>
 8000726:	bd08      	pop	{r3, pc}
 8000728:	200004f0 	.word	0x200004f0

0800072c <_ZN12_GLOBAL__N_110zapp1_impl15update_lon_msg1Ev>:
 800072c:	b510      	push	{r4, lr}
 800072e:	4b08      	ldr	r3, [pc, #32]	; (8000750 <_ZN12_GLOBAL__N_110zapp1_impl15update_lon_msg1Ev+0x24>)
 8000730:	4c08      	ldr	r4, [pc, #32]	; (8000754 <_ZN12_GLOBAL__N_110zapp1_impl15update_lon_msg1Ev+0x28>)
 8000732:	68d8      	ldr	r0, [r3, #12]
 8000734:	341f      	adds	r4, #31
 8000736:	4908      	ldr	r1, [pc, #32]	; (8000758 <_ZN12_GLOBAL__N_110zapp1_impl15update_lon_msg1Ev+0x2c>)
 8000738:	f001 fa20 	bl	8001b7c <__aeabi_idivmod>
 800073c:	1c20      	adds	r0, r4, #0
 800073e:	f7ff ff61 	bl	8000604 <_ZN12_GLOBAL__N_110zapp1_impl14create_messageIlE6assignERKl.isra.0>
 8000742:	1c20      	adds	r0, r4, #0
 8000744:	2102      	movs	r1, #2
 8000746:	2201      	movs	r2, #1
 8000748:	f7ff ff7a 	bl	8000640 <_ZN12_GLOBAL__N_110zapp1_impl12esc_write_spEPcsb>
 800074c:	bd10      	pop	{r4, pc}
 800074e:	46c0      	nop			; (mov r8, r8)
 8000750:	20000520 	.word	0x20000520
 8000754:	200004f0 	.word	0x200004f0
 8000758:	6b49d200 	.word	0x6b49d200

0800075c <_ZN12_GLOBAL__N_110zapp1_impl15update_lat_msg3Ev>:
 800075c:	b508      	push	{r3, lr}
 800075e:	4803      	ldr	r0, [pc, #12]	; (800076c <_ZN12_GLOBAL__N_110zapp1_impl15update_lat_msg3Ev+0x10>)
 8000760:	2103      	movs	r1, #3
 8000762:	302a      	adds	r0, #42	; 0x2a
 8000764:	2200      	movs	r2, #0
 8000766:	f7ff ff6b 	bl	8000640 <_ZN12_GLOBAL__N_110zapp1_impl12esc_write_spEPcsb>
 800076a:	bd08      	pop	{r3, pc}
 800076c:	200004f0 	.word	0x200004f0

08000770 <_ZN12_GLOBAL__N_110zapp1_impl15update_lat_msg2Ev>:
 8000770:	b508      	push	{r3, lr}
 8000772:	4803      	ldr	r0, [pc, #12]	; (8000780 <_ZN12_GLOBAL__N_110zapp1_impl15update_lat_msg2Ev+0x10>)
 8000774:	2102      	movs	r1, #2
 8000776:	3028      	adds	r0, #40	; 0x28
 8000778:	2200      	movs	r2, #0
 800077a:	f7ff ff61 	bl	8000640 <_ZN12_GLOBAL__N_110zapp1_impl12esc_write_spEPcsb>
 800077e:	bd08      	pop	{r3, pc}
 8000780:	200004f0 	.word	0x200004f0

08000784 <_ZN12_GLOBAL__N_110zapp1_impl15update_lat_msg1Ev>:
 8000784:	b510      	push	{r4, lr}
 8000786:	4b08      	ldr	r3, [pc, #32]	; (80007a8 <_ZN12_GLOBAL__N_110zapp1_impl15update_lat_msg1Ev+0x24>)
 8000788:	4c08      	ldr	r4, [pc, #32]	; (80007ac <_ZN12_GLOBAL__N_110zapp1_impl15update_lat_msg1Ev+0x28>)
 800078a:	6898      	ldr	r0, [r3, #8]
 800078c:	3426      	adds	r4, #38	; 0x26
 800078e:	4908      	ldr	r1, [pc, #32]	; (80007b0 <_ZN12_GLOBAL__N_110zapp1_impl15update_lat_msg1Ev+0x2c>)
 8000790:	f001 f9f4 	bl	8001b7c <__aeabi_idivmod>
 8000794:	1c20      	adds	r0, r4, #0
 8000796:	f7ff ff35 	bl	8000604 <_ZN12_GLOBAL__N_110zapp1_impl14create_messageIlE6assignERKl.isra.0>
 800079a:	1c20      	adds	r0, r4, #0
 800079c:	2102      	movs	r1, #2
 800079e:	2201      	movs	r2, #1
 80007a0:	f7ff ff4e 	bl	8000640 <_ZN12_GLOBAL__N_110zapp1_impl12esc_write_spEPcsb>
 80007a4:	bd10      	pop	{r4, pc}
 80007a6:	46c0      	nop			; (mov r8, r8)
 80007a8:	20000520 	.word	0x20000520
 80007ac:	200004f0 	.word	0x200004f0
 80007b0:	6b49d200 	.word	0x6b49d200

080007b4 <crc_accumulate>:
 80007b4:	880b      	ldrh	r3, [r1, #0]
 80007b6:	b510      	push	{r4, lr}
 80007b8:	4058      	eors	r0, r3
 80007ba:	b2c0      	uxtb	r0, r0
 80007bc:	0102      	lsls	r2, r0, #4
 80007be:	4050      	eors	r0, r2
 80007c0:	b2c0      	uxtb	r0, r0
 80007c2:	00c2      	lsls	r2, r0, #3
 80007c4:	0204      	lsls	r4, r0, #8
 80007c6:	4054      	eors	r4, r2
 80007c8:	121a      	asrs	r2, r3, #8
 80007ca:	1c23      	adds	r3, r4, #0
 80007cc:	4053      	eors	r3, r2
 80007ce:	1104      	asrs	r4, r0, #4
 80007d0:	1c18      	adds	r0, r3, #0
 80007d2:	4060      	eors	r0, r4
 80007d4:	8008      	strh	r0, [r1, #0]
 80007d6:	bd10      	pop	{r4, pc}

080007d8 <_Z18get_num_heartbeatsv>:
 80007d8:	4b01      	ldr	r3, [pc, #4]	; (80007e0 <_Z18get_num_heartbeatsv+0x8>)
 80007da:	6818      	ldr	r0, [r3, #0]
 80007dc:	4770      	bx	lr
 80007de:	46c0      	nop			; (mov r8, r8)
 80007e0:	20000578 	.word	0x20000578

080007e4 <comm_send_ch>:
 80007e4:	b537      	push	{r0, r1, r2, r4, r5, lr}
 80007e6:	4c08      	ldr	r4, [pc, #32]	; (8000808 <comm_send_ch+0x24>)
 80007e8:	466b      	mov	r3, sp
 80007ea:	71d9      	strb	r1, [r3, #7]
 80007ec:	6822      	ldr	r2, [r4, #0]
 80007ee:	2580      	movs	r5, #128	; 0x80
 80007f0:	43aa      	bics	r2, r5
 80007f2:	3307      	adds	r3, #7
 80007f4:	6022      	str	r2, [r4, #0]
 80007f6:	1c19      	adds	r1, r3, #0
 80007f8:	4804      	ldr	r0, [pc, #16]	; (800080c <comm_send_ch+0x28>)
 80007fa:	f003 fc70 	bl	80040de <_ZN4quan4fifoIcLi200ELb0EE3putERKc>
 80007fe:	6820      	ldr	r0, [r4, #0]
 8000800:	4305      	orrs	r5, r0
 8000802:	6025      	str	r5, [r4, #0]
 8000804:	bd37      	pop	{r0, r1, r2, r4, r5, pc}
 8000806:	46c0      	nop			; (mov r8, r8)
 8000808:	40013800 	.word	0x40013800
 800080c:	200007c4 	.word	0x200007c4

08000810 <_mavlink_send_uart.isra.33>:
 8000810:	b5f0      	push	{r4, r5, r6, r7, lr}
 8000812:	b085      	sub	sp, #20
 8000814:	1c06      	adds	r6, r0, #0
 8000816:	9101      	str	r1, [sp, #4]
 8000818:	1c04      	adds	r4, r0, #0
 800081a:	1ba3      	subs	r3, r4, r6
 800081c:	9a01      	ldr	r2, [sp, #4]
 800081e:	b298      	uxth	r0, r3
 8000820:	4290      	cmp	r0, r2
 8000822:	d210      	bcs.n	8000846 <_mavlink_send_uart.isra.33+0x36>
 8000824:	7825      	ldrb	r5, [r4, #0]
 8000826:	4669      	mov	r1, sp
 8000828:	310f      	adds	r1, #15
 800082a:	700d      	strb	r5, [r1, #0]
 800082c:	4d07      	ldr	r5, [pc, #28]	; (800084c <_mavlink_send_uart.isra.33+0x3c>)
 800082e:	2780      	movs	r7, #128	; 0x80
 8000830:	682b      	ldr	r3, [r5, #0]
 8000832:	4807      	ldr	r0, [pc, #28]	; (8000850 <_mavlink_send_uart.isra.33+0x40>)
 8000834:	43bb      	bics	r3, r7
 8000836:	602b      	str	r3, [r5, #0]
 8000838:	f003 fc51 	bl	80040de <_ZN4quan4fifoIcLi200ELb0EE3putERKc>
 800083c:	6829      	ldr	r1, [r5, #0]
 800083e:	3401      	adds	r4, #1
 8000840:	430f      	orrs	r7, r1
 8000842:	602f      	str	r7, [r5, #0]
 8000844:	e7e9      	b.n	800081a <_mavlink_send_uart.isra.33+0xa>
 8000846:	b005      	add	sp, #20
 8000848:	bdf0      	pop	{r4, r5, r6, r7, pc}
 800084a:	46c0      	nop			; (mov r8, r8)
 800084c:	40013800 	.word	0x40013800
 8000850:	200007c4 	.word	0x200007c4

08000854 <_Z12read_mavlinkv>:
 8000854:	b5f0      	push	{r4, r5, r6, r7, lr}
 8000856:	b0d7      	sub	sp, #348	; 0x15c
 8000858:	4acb      	ldr	r2, [pc, #812]	; (8000b88 <_Z12read_mavlinkv+0x334>)
 800085a:	48cc      	ldr	r0, [pc, #816]	; (8000b8c <_Z12read_mavlinkv+0x338>)
 800085c:	6813      	ldr	r3, [r2, #0]
 800085e:	2120      	movs	r1, #32
 8000860:	6846      	ldr	r6, [r0, #4]
 8000862:	438b      	bics	r3, r1
 8000864:	6013      	str	r3, [r2, #0]
 8000866:	2e00      	cmp	r6, #0
 8000868:	d007      	beq.n	800087a <_Z12read_mavlinkv+0x26>
 800086a:	6804      	ldr	r4, [r0, #0]
 800086c:	2c00      	cmp	r4, #0
 800086e:	d006      	beq.n	800087e <_Z12read_mavlinkv+0x2a>
 8000870:	42b4      	cmp	r4, r6
 8000872:	d800      	bhi.n	8000876 <_Z12read_mavlinkv+0x22>
 8000874:	34c8      	adds	r4, #200	; 0xc8
 8000876:	1ba3      	subs	r3, r4, r6
 8000878:	e002      	b.n	8000880 <_Z12read_mavlinkv+0x2c>
 800087a:	1c33      	adds	r3, r6, #0
 800087c:	e000      	b.n	8000880 <_Z12read_mavlinkv+0x2c>
 800087e:	23c8      	movs	r3, #200	; 0xc8
 8000880:	6815      	ldr	r5, [r2, #0]
 8000882:	2020      	movs	r0, #32
 8000884:	4305      	orrs	r5, r0
 8000886:	4cc0      	ldr	r4, [pc, #768]	; (8000b88 <_Z12read_mavlinkv+0x334>)
 8000888:	6015      	str	r5, [r2, #0]
 800088a:	2b00      	cmp	r3, #0
 800088c:	d100      	bne.n	8000890 <_Z12read_mavlinkv+0x3c>
 800088e:	e206      	b.n	8000c9e <_Z12read_mavlinkv+0x44a>
 8000890:	6823      	ldr	r3, [r4, #0]
 8000892:	4383      	bics	r3, r0
 8000894:	6023      	str	r3, [r4, #0]
 8000896:	2e00      	cmp	r6, #0
 8000898:	d015      	beq.n	80008c6 <_Z12read_mavlinkv+0x72>
 800089a:	49bc      	ldr	r1, [pc, #752]	; (8000b8c <_Z12read_mavlinkv+0x338>)
 800089c:	7835      	ldrb	r5, [r6, #0]
 800089e:	680c      	ldr	r4, [r1, #0]
 80008a0:	1c08      	adds	r0, r1, #0
 80008a2:	2c00      	cmp	r4, #0
 80008a4:	d100      	bne.n	80008a8 <_Z12read_mavlinkv+0x54>
 80008a6:	600e      	str	r6, [r1, #0]
 80008a8:	1c03      	adds	r3, r0, #0
 80008aa:	3601      	adds	r6, #1
 80008ac:	33d0      	adds	r3, #208	; 0xd0
 80008ae:	604e      	str	r6, [r1, #4]
 80008b0:	429e      	cmp	r6, r3
 80008b2:	d101      	bne.n	80008b8 <_Z12read_mavlinkv+0x64>
 80008b4:	3008      	adds	r0, #8
 80008b6:	6048      	str	r0, [r1, #4]
 80008b8:	684e      	ldr	r6, [r1, #4]
 80008ba:	6808      	ldr	r0, [r1, #0]
 80008bc:	4286      	cmp	r6, r0
 80008be:	d103      	bne.n	80008c8 <_Z12read_mavlinkv+0x74>
 80008c0:	2400      	movs	r4, #0
 80008c2:	604c      	str	r4, [r1, #4]
 80008c4:	e000      	b.n	80008c8 <_Z12read_mavlinkv+0x74>
 80008c6:	1c35      	adds	r5, r6, #0
 80008c8:	6813      	ldr	r3, [r2, #0]
 80008ca:	2120      	movs	r1, #32
 80008cc:	4cb0      	ldr	r4, [pc, #704]	; (8000b90 <_Z12read_mavlinkv+0x33c>)
 80008ce:	430b      	orrs	r3, r1
 80008d0:	6013      	str	r3, [r2, #0]
 80008d2:	79e0      	ldrb	r0, [r4, #7]
 80008d4:	2200      	movs	r2, #0
 80008d6:	7122      	strb	r2, [r4, #4]
 80008d8:	1c26      	adds	r6, r4, #0
 80008da:	2809      	cmp	r0, #9
 80008dc:	d900      	bls.n	80008e0 <_Z12read_mavlinkv+0x8c>
 80008de:	e0a1      	b.n	8000a24 <_Z12read_mavlinkv+0x1d0>
 80008e0:	f001 f89e 	bl	8001a20 <__gnu_thumb1_case_uqi>
 80008e4:	200e0505 	.word	0x200e0505
 80008e8:	3b302818 	.word	0x3b302818
 80008ec:	694b      	.short	0x694b
 80008ee:	2dfe      	cmp	r5, #254	; 0xfe
 80008f0:	d000      	beq.n	80008f4 <_Z12read_mavlinkv+0xa0>
 80008f2:	e097      	b.n	8000a24 <_Z12read_mavlinkv+0x1d0>
 80008f4:	2102      	movs	r1, #2
 80008f6:	2200      	movs	r2, #0
 80008f8:	71e1      	strb	r1, [r4, #7]
 80008fa:	74e2      	strb	r2, [r4, #19]
 80008fc:	74a5      	strb	r5, [r4, #18]
 80008fe:	e050      	b.n	80009a2 <_Z12read_mavlinkv+0x14e>
 8000900:	2300      	movs	r3, #0
 8000902:	1c21      	adds	r1, r4, #0
 8000904:	7223      	strb	r3, [r4, #8]
 8000906:	74e5      	strb	r5, [r4, #19]
 8000908:	3110      	adds	r1, #16
 800090a:	1c28      	adds	r0, r5, #0
 800090c:	f7ff ff52 	bl	80007b4 <crc_accumulate>
 8000910:	2304      	movs	r3, #4
 8000912:	e05a      	b.n	80009ca <_Z12read_mavlinkv+0x176>
 8000914:	1c21      	adds	r1, r4, #0
 8000916:	7525      	strb	r5, [r4, #20]
 8000918:	3110      	adds	r1, #16
 800091a:	1c28      	adds	r0, r5, #0
 800091c:	f7ff ff4a 	bl	80007b4 <crc_accumulate>
 8000920:	2303      	movs	r3, #3
 8000922:	e052      	b.n	80009ca <_Z12read_mavlinkv+0x176>
 8000924:	1c21      	adds	r1, r4, #0
 8000926:	7565      	strb	r5, [r4, #21]
 8000928:	3110      	adds	r1, #16
 800092a:	1c28      	adds	r0, r5, #0
 800092c:	f7ff ff42 	bl	80007b4 <crc_accumulate>
 8000930:	2305      	movs	r3, #5
 8000932:	e04a      	b.n	80009ca <_Z12read_mavlinkv+0x176>
 8000934:	1c21      	adds	r1, r4, #0
 8000936:	75a5      	strb	r5, [r4, #22]
 8000938:	3110      	adds	r1, #16
 800093a:	1c28      	adds	r0, r5, #0
 800093c:	f7ff ff3a 	bl	80007b4 <crc_accumulate>
 8000940:	2306      	movs	r3, #6
 8000942:	e042      	b.n	80009ca <_Z12read_mavlinkv+0x176>
 8000944:	1c21      	adds	r1, r4, #0
 8000946:	1c28      	adds	r0, r5, #0
 8000948:	75e5      	strb	r5, [r4, #23]
 800094a:	3110      	adds	r1, #16
 800094c:	f7ff ff32 	bl	80007b4 <crc_accumulate>
 8000950:	7ce0      	ldrb	r0, [r4, #19]
 8000952:	2800      	cmp	r0, #0
 8000954:	d00f      	beq.n	8000976 <_Z12read_mavlinkv+0x122>
 8000956:	2307      	movs	r3, #7
 8000958:	e037      	b.n	80009ca <_Z12read_mavlinkv+0x176>
 800095a:	7a23      	ldrb	r3, [r4, #8]
 800095c:	1c28      	adds	r0, r5, #0
 800095e:	18e1      	adds	r1, r4, r3
 8000960:	760d      	strb	r5, [r1, #24]
 8000962:	3301      	adds	r3, #1
 8000964:	1c21      	adds	r1, r4, #0
 8000966:	7223      	strb	r3, [r4, #8]
 8000968:	3110      	adds	r1, #16
 800096a:	f7ff ff23 	bl	80007b4 <crc_accumulate>
 800096e:	7a22      	ldrb	r2, [r4, #8]
 8000970:	7ce6      	ldrb	r6, [r4, #19]
 8000972:	42b2      	cmp	r2, r6
 8000974:	d156      	bne.n	8000a24 <_Z12read_mavlinkv+0x1d0>
 8000976:	2308      	movs	r3, #8
 8000978:	e027      	b.n	80009ca <_Z12read_mavlinkv+0x176>
 800097a:	7de0      	ldrb	r0, [r4, #23]
 800097c:	4b85      	ldr	r3, [pc, #532]	; (8000b94 <_Z12read_mavlinkv+0x340>)
 800097e:	1c21      	adds	r1, r4, #0
 8000980:	3110      	adds	r1, #16
 8000982:	5c18      	ldrb	r0, [r3, r0]
 8000984:	f7ff ff16 	bl	80007b4 <crc_accumulate>
 8000988:	7c21      	ldrb	r1, [r4, #16]
 800098a:	428d      	cmp	r5, r1
 800098c:	d00d      	beq.n	80009aa <_Z12read_mavlinkv+0x156>
 800098e:	79a0      	ldrb	r0, [r4, #6]
 8000990:	2200      	movs	r2, #0
 8000992:	3001      	adds	r0, #1
 8000994:	71a0      	strb	r0, [r4, #6]
 8000996:	7122      	strb	r2, [r4, #4]
 8000998:	2dfe      	cmp	r5, #254	; 0xfe
 800099a:	d115      	bne.n	80009c8 <_Z12read_mavlinkv+0x174>
 800099c:	2502      	movs	r5, #2
 800099e:	71e5      	strb	r5, [r4, #7]
 80009a0:	74e2      	strb	r2, [r4, #19]
 80009a2:	2501      	movs	r5, #1
 80009a4:	426e      	negs	r6, r5
 80009a6:	8226      	strh	r6, [r4, #16]
 80009a8:	e03c      	b.n	8000a24 <_Z12read_mavlinkv+0x1d0>
 80009aa:	2209      	movs	r2, #9
 80009ac:	71e2      	strb	r2, [r4, #7]
 80009ae:	7a24      	ldrb	r4, [r4, #8]
 80009b0:	1936      	adds	r6, r6, r4
 80009b2:	7635      	strb	r5, [r6, #24]
 80009b4:	e036      	b.n	8000a24 <_Z12read_mavlinkv+0x1d0>
 80009b6:	8a20      	ldrh	r0, [r4, #16]
 80009b8:	1203      	asrs	r3, r0, #8
 80009ba:	429d      	cmp	r5, r3
 80009bc:	d00b      	beq.n	80009d6 <_Z12read_mavlinkv+0x182>
 80009be:	79a0      	ldrb	r0, [r4, #6]
 80009c0:	3001      	adds	r0, #1
 80009c2:	71a0      	strb	r0, [r4, #6]
 80009c4:	2dfe      	cmp	r5, #254	; 0xfe
 80009c6:	d002      	beq.n	80009ce <_Z12read_mavlinkv+0x17a>
 80009c8:	2301      	movs	r3, #1
 80009ca:	71e3      	strb	r3, [r4, #7]
 80009cc:	e02a      	b.n	8000a24 <_Z12read_mavlinkv+0x1d0>
 80009ce:	2102      	movs	r1, #2
 80009d0:	71e1      	strb	r1, [r4, #7]
 80009d2:	2200      	movs	r2, #0
 80009d4:	e7e4      	b.n	80009a0 <_Z12read_mavlinkv+0x14c>
 80009d6:	7a21      	ldrb	r1, [r4, #8]
 80009d8:	2701      	movs	r7, #1
 80009da:	1862      	adds	r2, r4, r1
 80009dc:	7655      	strb	r5, [r2, #25]
 80009de:	1c21      	adds	r1, r4, #0
 80009e0:	2588      	movs	r5, #136	; 0x88
 80009e2:	7127      	strb	r7, [r4, #4]
 80009e4:	71e7      	strb	r7, [r4, #7]
 80009e6:	006a      	lsls	r2, r5, #1
 80009e8:	3110      	adds	r1, #16
 80009ea:	a812      	add	r0, sp, #72	; 0x48
 80009ec:	f004 f82c 	bl	8004a48 <memcpy>
 80009f0:	7d60      	ldrb	r0, [r4, #21]
 80009f2:	8da2      	ldrh	r2, [r4, #44]	; 0x2c
 80009f4:	9004      	str	r0, [sp, #16]
 80009f6:	7da3      	ldrb	r3, [r4, #22]
 80009f8:	6a21      	ldr	r1, [r4, #32]
 80009fa:	9303      	str	r3, [sp, #12]
 80009fc:	7de7      	ldrb	r7, [r4, #23]
 80009fe:	8de5      	ldrh	r5, [r4, #46]	; 0x2e
 8000a00:	1c33      	adds	r3, r6, #0
 8000a02:	920a      	str	r2, [sp, #40]	; 0x28
 8000a04:	1c32      	adds	r2, r6, #0
 8000a06:	3334      	adds	r3, #52	; 0x34
 8000a08:	3235      	adds	r2, #53	; 0x35
 8000a0a:	3636      	adds	r6, #54	; 0x36
 8000a0c:	8e20      	ldrh	r0, [r4, #48]	; 0x30
 8000a0e:	9101      	str	r1, [sp, #4]
 8000a10:	9509      	str	r5, [sp, #36]	; 0x24
 8000a12:	8e64      	ldrh	r4, [r4, #50]	; 0x32
 8000a14:	7819      	ldrb	r1, [r3, #0]
 8000a16:	7815      	ldrb	r5, [r2, #0]
 8000a18:	7836      	ldrb	r6, [r6, #0]
 8000a1a:	9006      	str	r0, [sp, #24]
 8000a1c:	9408      	str	r4, [sp, #32]
 8000a1e:	9107      	str	r1, [sp, #28]
 8000a20:	950b      	str	r5, [sp, #44]	; 0x2c
 8000a22:	9605      	str	r6, [sp, #20]
 8000a24:	4b5a      	ldr	r3, [pc, #360]	; (8000b90 <_Z12read_mavlinkv+0x33c>)
 8000a26:	7918      	ldrb	r0, [r3, #4]
 8000a28:	2801      	cmp	r0, #1
 8000a2a:	d107      	bne.n	8000a3c <_Z12read_mavlinkv+0x1e8>
 8000a2c:	7d1c      	ldrb	r4, [r3, #20]
 8000a2e:	8999      	ldrh	r1, [r3, #12]
 8000a30:	725c      	strb	r4, [r3, #9]
 8000a32:	2900      	cmp	r1, #0
 8000a34:	d100      	bne.n	8000a38 <_Z12read_mavlinkv+0x1e4>
 8000a36:	81d9      	strh	r1, [r3, #14]
 8000a38:	3101      	adds	r1, #1
 8000a3a:	8199      	strh	r1, [r3, #12]
 8000a3c:	799a      	ldrb	r2, [r3, #6]
 8000a3e:	2500      	movs	r5, #0
 8000a40:	9202      	str	r2, [sp, #8]
 8000a42:	719d      	strb	r5, [r3, #6]
 8000a44:	42a8      	cmp	r0, r5
 8000a46:	d100      	bne.n	8000a4a <_Z12read_mavlinkv+0x1f6>
 8000a48:	e706      	b.n	8000858 <_Z12read_mavlinkv+0x4>
 8000a4a:	4e53      	ldr	r6, [pc, #332]	; (8000b98 <_Z12read_mavlinkv+0x344>)
 8000a4c:	2001      	movs	r0, #1
 8000a4e:	1c74      	adds	r4, r6, #1
 8000a50:	77e0      	strb	r0, [r4, #31]
 8000a52:	2f18      	cmp	r7, #24
 8000a54:	d100      	bne.n	8000a58 <_Z12read_mavlinkv+0x204>
 8000a56:	e0a9      	b.n	8000bac <_Z12read_mavlinkv+0x358>
 8000a58:	d815      	bhi.n	8000a86 <_Z12read_mavlinkv+0x232>
 8000a5a:	2f00      	cmp	r7, #0
 8000a5c:	d01a      	beq.n	8000a94 <_Z12read_mavlinkv+0x240>
 8000a5e:	4287      	cmp	r7, r0
 8000a60:	d000      	beq.n	8000a64 <_Z12read_mavlinkv+0x210>
 8000a62:	e6f9      	b.n	8000858 <_Z12read_mavlinkv+0x4>
 8000a64:	466b      	mov	r3, sp
 8000a66:	335e      	adds	r3, #94	; 0x5e
 8000a68:	8818      	ldrh	r0, [r3, #0]
 8000a6a:	f001 fe85 	bl	8002778 <__aeabi_ui2f>
 8000a6e:	494b      	ldr	r1, [pc, #300]	; (8000b9c <_Z12read_mavlinkv+0x348>)
 8000a70:	f001 faec 	bl	800204c <__aeabi_fdiv>
 8000a74:	4d4a      	ldr	r5, [pc, #296]	; (8000ba0 <_Z12read_mavlinkv+0x34c>)
 8000a76:	4669      	mov	r1, sp
 8000a78:	2214      	movs	r2, #20
 8000a7a:	63e8      	str	r0, [r5, #60]	; 0x3c
 8000a7c:	5650      	ldrsb	r0, [r2, r1]
 8000a7e:	f001 fe27 	bl	80026d0 <__aeabi_i2f>
 8000a82:	6468      	str	r0, [r5, #68]	; 0x44
 8000a84:	e6e8      	b.n	8000858 <_Z12read_mavlinkv+0x4>
 8000a86:	2f1e      	cmp	r7, #30
 8000a88:	d100      	bne.n	8000a8c <_Z12read_mavlinkv+0x238>
 8000a8a:	e0ee      	b.n	8000c6a <_Z12read_mavlinkv+0x416>
 8000a8c:	2f4a      	cmp	r7, #74	; 0x4a
 8000a8e:	d000      	beq.n	8000a92 <_Z12read_mavlinkv+0x23e>
 8000a90:	e6e2      	b.n	8000858 <_Z12read_mavlinkv+0x4>
 8000a92:	e0b0      	b.n	8000bf6 <_Z12read_mavlinkv+0x3a2>
 8000a94:	4668      	mov	r0, sp
 8000a96:	2410      	movs	r4, #16
 8000a98:	5c21      	ldrb	r1, [r4, r0]
 8000a9a:	1cb5      	adds	r5, r6, #2
 8000a9c:	77e9      	strb	r1, [r5, #31]
 8000a9e:	200c      	movs	r0, #12
 8000aa0:	466d      	mov	r5, sp
 8000aa2:	5d44      	ldrb	r4, [r0, r5]
 8000aa4:	1cf2      	adds	r2, r6, #3
 8000aa6:	77d4      	strb	r4, [r2, #31]
 8000aa8:	aa15      	add	r2, sp, #84	; 0x54
 8000aaa:	7815      	ldrb	r5, [r2, #0]
 8000aac:	1d31      	adds	r1, r6, #4
 8000aae:	77cd      	strb	r5, [r1, #31]
 8000ab0:	493b      	ldr	r1, [pc, #236]	; (8000ba0 <_Z12read_mavlinkv+0x34c>)
 8000ab2:	681d      	ldr	r5, [r3, #0]
 8000ab4:	ac14      	add	r4, sp, #80	; 0x50
 8000ab6:	3605      	adds	r6, #5
 8000ab8:	1c08      	adds	r0, r1, #0
 8000aba:	7822      	ldrb	r2, [r4, #0]
 8000abc:	7ff6      	ldrb	r6, [r6, #31]
 8000abe:	304e      	adds	r0, #78	; 0x4e
 8000ac0:	314c      	adds	r1, #76	; 0x4c
 8000ac2:	3501      	adds	r5, #1
 8000ac4:	7002      	strb	r2, [r0, #0]
 8000ac6:	800f      	strh	r7, [r1, #0]
 8000ac8:	601d      	str	r5, [r3, #0]
 8000aca:	2e00      	cmp	r6, #0
 8000acc:	d000      	beq.n	8000ad0 <_Z12read_mavlinkv+0x27c>
 8000ace:	e6c3      	b.n	8000858 <_Z12read_mavlinkv+0x4>
 8000ad0:	1c3d      	adds	r5, r7, #0
 8000ad2:	4834      	ldr	r0, [pc, #208]	; (8000ba4 <_Z12read_mavlinkv+0x350>)
 8000ad4:	ab0e      	add	r3, sp, #56	; 0x38
 8000ad6:	1944      	adds	r4, r0, r5
 8000ad8:	8862      	ldrh	r2, [r4, #2]
 8000ada:	5c29      	ldrb	r1, [r5, r0]
 8000adc:	466e      	mov	r6, sp
 8000ade:	2010      	movs	r0, #16
 8000ae0:	801a      	strh	r2, [r3, #0]
 8000ae2:	5d84      	ldrb	r4, [r0, r6]
 8000ae4:	466a      	mov	r2, sp
 8000ae6:	260c      	movs	r6, #12
 8000ae8:	5cb0      	ldrb	r0, [r6, r2]
 8000aea:	7119      	strb	r1, [r3, #4]
 8000aec:	2101      	movs	r1, #1
 8000aee:	709c      	strb	r4, [r3, #2]
 8000af0:	70d8      	strb	r0, [r3, #3]
 8000af2:	7159      	strb	r1, [r3, #5]
 8000af4:	4e26      	ldr	r6, [pc, #152]	; (8000b90 <_Z12read_mavlinkv+0x33c>)
 8000af6:	ab10      	add	r3, sp, #64	; 0x40
 8000af8:	24fe      	movs	r4, #254	; 0xfe
 8000afa:	2206      	movs	r2, #6
 8000afc:	701c      	strb	r4, [r3, #0]
 8000afe:	705a      	strb	r2, [r3, #1]
 8000b00:	7ab1      	ldrb	r1, [r6, #10]
 8000b02:	4829      	ldr	r0, [pc, #164]	; (8000ba8 <_Z12read_mavlinkv+0x354>)
 8000b04:	7099      	strb	r1, [r3, #2]
 8000b06:	7804      	ldrb	r4, [r0, #0]
 8000b08:	3101      	adds	r1, #1
 8000b0a:	70dc      	strb	r4, [r3, #3]
 8000b0c:	7842      	ldrb	r2, [r0, #1]
 8000b0e:	2042      	movs	r0, #66	; 0x42
 8000b10:	711a      	strb	r2, [r3, #4]
 8000b12:	7158      	strb	r0, [r3, #5]
 8000b14:	2301      	movs	r3, #1
 8000b16:	72b1      	strb	r1, [r6, #10]
 8000b18:	425e      	negs	r6, r3
 8000b1a:	4669      	mov	r1, sp
 8000b1c:	86ce      	strh	r6, [r1, #54]	; 0x36
 8000b1e:	2600      	movs	r6, #0
 8000b20:	3601      	adds	r6, #1
 8000b22:	2e06      	cmp	r6, #6
 8000b24:	d006      	beq.n	8000b34 <_Z12read_mavlinkv+0x2e0>
 8000b26:	a810      	add	r0, sp, #64	; 0x40
 8000b28:	4669      	mov	r1, sp
 8000b2a:	5c30      	ldrb	r0, [r6, r0]
 8000b2c:	3136      	adds	r1, #54	; 0x36
 8000b2e:	f7ff fe41 	bl	80007b4 <crc_accumulate>
 8000b32:	e7f5      	b.n	8000b20 <_Z12read_mavlinkv+0x2cc>
 8000b34:	2400      	movs	r4, #0
 8000b36:	2238      	movs	r2, #56	; 0x38
 8000b38:	466e      	mov	r6, sp
 8000b3a:	1910      	adds	r0, r2, r4
 8000b3c:	466b      	mov	r3, sp
 8000b3e:	3636      	adds	r6, #54	; 0x36
 8000b40:	5cc0      	ldrb	r0, [r0, r3]
 8000b42:	1c31      	adds	r1, r6, #0
 8000b44:	3401      	adds	r4, #1
 8000b46:	f7ff fe35 	bl	80007b4 <crc_accumulate>
 8000b4a:	2c06      	cmp	r4, #6
 8000b4c:	d1f3      	bne.n	8000b36 <_Z12read_mavlinkv+0x2e2>
 8000b4e:	1c31      	adds	r1, r6, #0
 8000b50:	2094      	movs	r0, #148	; 0x94
 8000b52:	f7ff fe2f 	bl	80007b4 <crc_accumulate>
 8000b56:	8831      	ldrh	r1, [r6, #0]
 8000b58:	ae0d      	add	r6, sp, #52	; 0x34
 8000b5a:	120a      	asrs	r2, r1, #8
 8000b5c:	7031      	strb	r1, [r6, #0]
 8000b5e:	a810      	add	r0, sp, #64	; 0x40
 8000b60:	1c21      	adds	r1, r4, #0
 8000b62:	7072      	strb	r2, [r6, #1]
 8000b64:	f7ff fe54 	bl	8000810 <_mavlink_send_uart.isra.33>
 8000b68:	a80e      	add	r0, sp, #56	; 0x38
 8000b6a:	1c21      	adds	r1, r4, #0
 8000b6c:	f7ff fe50 	bl	8000810 <_mavlink_send_uart.isra.33>
 8000b70:	3504      	adds	r5, #4
 8000b72:	1c30      	adds	r0, r6, #0
 8000b74:	2102      	movs	r1, #2
 8000b76:	f7ff fe4b 	bl	8000810 <_mavlink_send_uart.isra.33>
 8000b7a:	2d18      	cmp	r5, #24
 8000b7c:	d1a9      	bne.n	8000ad2 <_Z12read_mavlinkv+0x27e>
 8000b7e:	4c06      	ldr	r4, [pc, #24]	; (8000b98 <_Z12read_mavlinkv+0x344>)
 8000b80:	2501      	movs	r5, #1
 8000b82:	3405      	adds	r4, #5
 8000b84:	77e5      	strb	r5, [r4, #31]
 8000b86:	e667      	b.n	8000858 <_Z12read_mavlinkv+0x4>
 8000b88:	40013800 	.word	0x40013800
 8000b8c:	20000894 	.word	0x20000894
 8000b90:	20000578 	.word	0x20000578
 8000b94:	08004f0c 	.word	0x08004f0c
 8000b98:	20000678 	.word	0x20000678
 8000b9c:	447a0000 	.word	0x447a0000
 8000ba0:	20000520 	.word	0x20000520
 8000ba4:	0800500c 	.word	0x0800500c
 8000ba8:	20000019 	.word	0x20000019
 8000bac:	4b3f      	ldr	r3, [pc, #252]	; (8000cac <_Z12read_mavlinkv+0x458>)
 8000bae:	9817      	ldr	r0, [sp, #92]	; 0x5c
 8000bb0:	9d14      	ldr	r5, [sp, #80]	; 0x50
 8000bb2:	9e15      	ldr	r6, [sp, #84]	; 0x54
 8000bb4:	9901      	ldr	r1, [sp, #4]
 8000bb6:	601d      	str	r5, [r3, #0]
 8000bb8:	605e      	str	r6, [r3, #4]
 8000bba:	9a18      	ldr	r2, [sp, #96]	; 0x60
 8000bbc:	466e      	mov	r6, sp
 8000bbe:	2418      	movs	r4, #24
 8000bc0:	5ba5      	ldrh	r5, [r4, r6]
 8000bc2:	60d8      	str	r0, [r3, #12]
 8000bc4:	2020      	movs	r0, #32
 8000bc6:	6099      	str	r1, [r3, #8]
 8000bc8:	615a      	str	r2, [r3, #20]
 8000bca:	4669      	mov	r1, sp
 8000bcc:	5b82      	ldrh	r2, [r0, r6]
 8000bce:	2428      	movs	r4, #40	; 0x28
 8000bd0:	821d      	strh	r5, [r3, #16]
 8000bd2:	466e      	mov	r6, sp
 8000bd4:	5a65      	ldrh	r5, [r4, r1]
 8000bd6:	2024      	movs	r0, #36	; 0x24
 8000bd8:	825a      	strh	r2, [r3, #18]
 8000bda:	5b82      	ldrh	r2, [r0, r6]
 8000bdc:	831d      	strh	r5, [r3, #24]
 8000bde:	4669      	mov	r1, sp
 8000be0:	251c      	movs	r5, #28
 8000be2:	a80b      	add	r0, sp, #44	; 0x2c
 8000be4:	835a      	strh	r2, [r3, #26]
 8000be6:	1c1e      	adds	r6, r3, #0
 8000be8:	5c69      	ldrb	r1, [r5, r1]
 8000bea:	7802      	ldrb	r2, [r0, #0]
 8000bec:	3650      	adds	r6, #80	; 0x50
 8000bee:	334f      	adds	r3, #79	; 0x4f
 8000bf0:	7031      	strb	r1, [r6, #0]
 8000bf2:	701a      	strb	r2, [r3, #0]
 8000bf4:	e630      	b.n	8000858 <_Z12read_mavlinkv+0x4>
 8000bf6:	9b15      	ldr	r3, [sp, #84]	; 0x54
 8000bf8:	9914      	ldr	r1, [sp, #80]	; 0x50
 8000bfa:	4d2c      	ldr	r5, [pc, #176]	; (8000cac <_Z12read_mavlinkv+0x458>)
 8000bfc:	aa18      	add	r2, sp, #96	; 0x60
 8000bfe:	2400      	movs	r4, #0
 8000c00:	5f10      	ldrsh	r0, [r2, r4]
 8000c02:	63ab      	str	r3, [r5, #56]	; 0x38
 8000c04:	6369      	str	r1, [r5, #52]	; 0x34
 8000c06:	f001 fd63 	bl	80026d0 <__aeabi_i2f>
 8000c0a:	466c      	mov	r4, sp
 8000c0c:	3462      	adds	r4, #98	; 0x62
 8000c0e:	6328      	str	r0, [r5, #48]	; 0x30
 8000c10:	8820      	ldrh	r0, [r4, #0]
 8000c12:	f001 fd5d 	bl	80026d0 <__aeabi_i2f>
 8000c16:	4926      	ldr	r1, [pc, #152]	; (8000cb0 <_Z12read_mavlinkv+0x45c>)
 8000c18:	f001 fa18 	bl	800204c <__aeabi_fdiv>
 8000c1c:	26fe      	movs	r6, #254	; 0xfe
 8000c1e:	05b6      	lsls	r6, r6, #22
 8000c20:	1c31      	adds	r1, r6, #0
 8000c22:	1c04      	adds	r4, r0, #0
 8000c24:	f000 ffdc 	bl	8001be0 <__aeabi_fcmpgt>
 8000c28:	2800      	cmp	r0, #0
 8000c2a:	d008      	beq.n	8000c3e <_Z12read_mavlinkv+0x3ea>
 8000c2c:	23ff      	movs	r3, #255	; 0xff
 8000c2e:	1c20      	adds	r0, r4, #0
 8000c30:	0599      	lsls	r1, r3, #22
 8000c32:	f000 ffc1 	bl	8001bb8 <__aeabi_fcmplt>
 8000c36:	2800      	cmp	r0, #0
 8000c38:	d001      	beq.n	8000c3e <_Z12read_mavlinkv+0x3ea>
 8000c3a:	62ee      	str	r6, [r5, #44]	; 0x2c
 8000c3c:	e011      	b.n	8000c62 <_Z12read_mavlinkv+0x40e>
 8000c3e:	1c20      	adds	r0, r4, #0
 8000c40:	2100      	movs	r1, #0
 8000c42:	f000 ffb9 	bl	8001bb8 <__aeabi_fcmplt>
 8000c46:	4d19      	ldr	r5, [pc, #100]	; (8000cac <_Z12read_mavlinkv+0x458>)
 8000c48:	2800      	cmp	r0, #0
 8000c4a:	d108      	bne.n	8000c5e <_Z12read_mavlinkv+0x40a>
 8000c4c:	21ff      	movs	r1, #255	; 0xff
 8000c4e:	1c20      	adds	r0, r4, #0
 8000c50:	0589      	lsls	r1, r1, #22
 8000c52:	f000 ffc5 	bl	8001be0 <__aeabi_fcmpgt>
 8000c56:	2800      	cmp	r0, #0
 8000c58:	d101      	bne.n	8000c5e <_Z12read_mavlinkv+0x40a>
 8000c5a:	62ec      	str	r4, [r5, #44]	; 0x2c
 8000c5c:	e001      	b.n	8000c62 <_Z12read_mavlinkv+0x40e>
 8000c5e:	2000      	movs	r0, #0
 8000c60:	62e8      	str	r0, [r5, #44]	; 0x2c
 8000c62:	9a01      	ldr	r2, [sp, #4]
 8000c64:	4c11      	ldr	r4, [pc, #68]	; (8000cac <_Z12read_mavlinkv+0x458>)
 8000c66:	64a2      	str	r2, [r4, #72]	; 0x48
 8000c68:	e5f6      	b.n	8000858 <_Z12read_mavlinkv+0x4>
 8000c6a:	4912      	ldr	r1, [pc, #72]	; (8000cb4 <_Z12read_mavlinkv+0x460>)
 8000c6c:	9801      	ldr	r0, [sp, #4]
 8000c6e:	f001 fbdf 	bl	8002430 <__aeabi_fmul>
 8000c72:	4911      	ldr	r1, [pc, #68]	; (8000cb8 <_Z12read_mavlinkv+0x464>)
 8000c74:	f001 f9ea 	bl	800204c <__aeabi_fdiv>
 8000c78:	4e0c      	ldr	r6, [pc, #48]	; (8000cac <_Z12read_mavlinkv+0x458>)
 8000c7a:	490e      	ldr	r1, [pc, #56]	; (8000cb4 <_Z12read_mavlinkv+0x460>)
 8000c7c:	6230      	str	r0, [r6, #32]
 8000c7e:	9815      	ldr	r0, [sp, #84]	; 0x54
 8000c80:	f001 fbd6 	bl	8002430 <__aeabi_fmul>
 8000c84:	490c      	ldr	r1, [pc, #48]	; (8000cb8 <_Z12read_mavlinkv+0x464>)
 8000c86:	f001 f9e1 	bl	800204c <__aeabi_fdiv>
 8000c8a:	490a      	ldr	r1, [pc, #40]	; (8000cb4 <_Z12read_mavlinkv+0x460>)
 8000c8c:	6270      	str	r0, [r6, #36]	; 0x24
 8000c8e:	9817      	ldr	r0, [sp, #92]	; 0x5c
 8000c90:	f001 fbce 	bl	8002430 <__aeabi_fmul>
 8000c94:	4908      	ldr	r1, [pc, #32]	; (8000cb8 <_Z12read_mavlinkv+0x464>)
 8000c96:	f001 f9d9 	bl	800204c <__aeabi_fdiv>
 8000c9a:	62b0      	str	r0, [r6, #40]	; 0x28
 8000c9c:	e5dc      	b.n	8000858 <_Z12read_mavlinkv+0x4>
 8000c9e:	4f07      	ldr	r7, [pc, #28]	; (8000cbc <_Z12read_mavlinkv+0x468>)
 8000ca0:	9902      	ldr	r1, [sp, #8]
 8000ca2:	6aba      	ldr	r2, [r7, #40]	; 0x28
 8000ca4:	1856      	adds	r6, r2, r1
 8000ca6:	62be      	str	r6, [r7, #40]	; 0x28
 8000ca8:	b057      	add	sp, #348	; 0x15c
 8000caa:	bdf0      	pop	{r4, r5, r6, r7, pc}
 8000cac:	20000520 	.word	0x20000520
 8000cb0:	42c80000 	.word	0x42c80000
 8000cb4:	43b40000 	.word	0x43b40000
 8000cb8:	40c90fdb 	.word	0x40c90fdb
 8000cbc:	20000678 	.word	0x20000678

08000cc0 <SysTick_Handler>:
 8000cc0:	b508      	push	{r3, lr}
 8000cc2:	4b03      	ldr	r3, [pc, #12]	; (8000cd0 <SysTick_Handler+0x10>)
 8000cc4:	681a      	ldr	r2, [r3, #0]
 8000cc6:	3201      	adds	r2, #1
 8000cc8:	601a      	str	r2, [r3, #0]
 8000cca:	f000 fe07 	bl	80018dc <_Z14do_event_ticksv>
 8000cce:	bd08      	pop	{r3, pc}
 8000cd0:	200006a8 	.word	0x200006a8
 8000cd4:	00000000 	.word	0x00000000

08000cd8 <_ZN3gps15get_empty_fieldEv>:
 8000cd8:	2001      	movs	r0, #1
 8000cda:	4770      	bx	lr

08000cdc <_ZN3gps10get_metersEv>:
 8000cdc:	b510      	push	{r4, lr}
 8000cde:	1c04      	adds	r4, r0, #0
 8000ce0:	3004      	adds	r0, #4
 8000ce2:	f003 fff1 	bl	8004cc8 <strlen>
 8000ce6:	2300      	movs	r3, #0
 8000ce8:	2801      	cmp	r0, #1
 8000cea:	d103      	bne.n	8000cf4 <_ZN3gps10get_metersEv+0x18>
 8000cec:	7923      	ldrb	r3, [r4, #4]
 8000cee:	3b4d      	subs	r3, #77	; 0x4d
 8000cf0:	425a      	negs	r2, r3
 8000cf2:	4153      	adcs	r3, r2
 8000cf4:	1c18      	adds	r0, r3, #0
 8000cf6:	bd10      	pop	{r4, pc}

08000cf8 <_ZN3gps22get_magnetic_heading_mEv>:
 8000cf8:	b510      	push	{r4, lr}
 8000cfa:	1c04      	adds	r4, r0, #0
 8000cfc:	3004      	adds	r0, #4
 8000cfe:	f003 ffe3 	bl	8004cc8 <strlen>
 8000d02:	2300      	movs	r3, #0
 8000d04:	2801      	cmp	r0, #1
 8000d06:	d103      	bne.n	8000d10 <_ZN3gps22get_magnetic_heading_mEv+0x18>
 8000d08:	7923      	ldrb	r3, [r4, #4]
 8000d0a:	3b4d      	subs	r3, #77	; 0x4d
 8000d0c:	425a      	negs	r2, r3
 8000d0e:	4153      	adcs	r3, r2
 8000d10:	1c18      	adds	r0, r3, #0
 8000d12:	bd10      	pop	{r4, pc}

08000d14 <_ZN3gps18get_true_heading_tEv>:
 8000d14:	b510      	push	{r4, lr}
 8000d16:	1c04      	adds	r4, r0, #0
 8000d18:	3004      	adds	r0, #4
 8000d1a:	f003 ffd5 	bl	8004cc8 <strlen>
 8000d1e:	2300      	movs	r3, #0
 8000d20:	2801      	cmp	r0, #1
 8000d22:	d103      	bne.n	8000d2c <_ZN3gps18get_true_heading_tEv+0x18>
 8000d24:	7923      	ldrb	r3, [r4, #4]
 8000d26:	3b54      	subs	r3, #84	; 0x54
 8000d28:	425a      	negs	r2, r3
 8000d2a:	4153      	adcs	r3, r2
 8000d2c:	1c18      	adds	r0, r3, #0
 8000d2e:	bd10      	pop	{r4, pc}

08000d30 <_ZN3gps24get_groundspeed_unit_kmhEv>:
 8000d30:	b510      	push	{r4, lr}
 8000d32:	1c04      	adds	r4, r0, #0
 8000d34:	3004      	adds	r0, #4
 8000d36:	f003 ffc7 	bl	8004cc8 <strlen>
 8000d3a:	2300      	movs	r3, #0
 8000d3c:	2801      	cmp	r0, #1
 8000d3e:	d103      	bne.n	8000d48 <_ZN3gps24get_groundspeed_unit_kmhEv+0x18>
 8000d40:	7923      	ldrb	r3, [r4, #4]
 8000d42:	3b4b      	subs	r3, #75	; 0x4b
 8000d44:	425a      	negs	r2, r3
 8000d46:	4153      	adcs	r3, r2
 8000d48:	1c18      	adds	r0, r3, #0
 8000d4a:	bd10      	pop	{r4, pc}

08000d4c <_ZN3gps25get_groundspeed_unit_knotEv>:
 8000d4c:	b510      	push	{r4, lr}
 8000d4e:	1c04      	adds	r4, r0, #0
 8000d50:	3004      	adds	r0, #4
 8000d52:	f003 ffb9 	bl	8004cc8 <strlen>
 8000d56:	2300      	movs	r3, #0
 8000d58:	2801      	cmp	r0, #1
 8000d5a:	d103      	bne.n	8000d64 <_ZN3gps25get_groundspeed_unit_knotEv+0x18>
 8000d5c:	7923      	ldrb	r3, [r4, #4]
 8000d5e:	3b4e      	subs	r3, #78	; 0x4e
 8000d60:	425a      	negs	r2, r3
 8000d62:	4153      	adcs	r3, r2
 8000d64:	1c18      	adds	r0, r3, #0
 8000d66:	bd10      	pop	{r4, pc}

08000d68 <_ZN3gps14get_ack_cmd_idEv>:
 8000d68:	b538      	push	{r3, r4, r5, lr}
 8000d6a:	1d04      	adds	r4, r0, #4
 8000d6c:	1c05      	adds	r5, r0, #0
 8000d6e:	1c20      	adds	r0, r4, #0
 8000d70:	f003 ffaa 	bl	8004cc8 <strlen>
 8000d74:	2300      	movs	r3, #0
 8000d76:	2803      	cmp	r0, #3
 8000d78:	d105      	bne.n	8000d86 <_ZN3gps14get_ack_cmd_idEv+0x1e>
 8000d7a:	1c28      	adds	r0, r5, #0
 8000d7c:	30a8      	adds	r0, #168	; 0xa8
 8000d7e:	1c21      	adds	r1, r4, #0
 8000d80:	f003 ff9a 	bl	8004cb8 <strcpy>
 8000d84:	2301      	movs	r3, #1
 8000d86:	1c18      	adds	r0, r3, #0
 8000d88:	bd38      	pop	{r3, r4, r5, pc}

08000d8a <_ZN3gps14get_rmc_statusEv>:
 8000d8a:	b510      	push	{r4, lr}
 8000d8c:	1c04      	adds	r4, r0, #0
 8000d8e:	3004      	adds	r0, #4
 8000d90:	f003 ff9a 	bl	8004cc8 <strlen>
 8000d94:	1c03      	adds	r3, r0, #0
 8000d96:	2000      	movs	r0, #0
 8000d98:	2b01      	cmp	r3, #1
 8000d9a:	d10b      	bne.n	8000db4 <_ZN3gps14get_rmc_statusEv+0x2a>
 8000d9c:	7922      	ldrb	r2, [r4, #4]
 8000d9e:	2a56      	cmp	r2, #86	; 0x56
 8000da0:	d102      	bne.n	8000da8 <_ZN3gps14get_rmc_statusEv+0x1e>
 8000da2:	3496      	adds	r4, #150	; 0x96
 8000da4:	7020      	strb	r0, [r4, #0]
 8000da6:	e003      	b.n	8000db0 <_ZN3gps14get_rmc_statusEv+0x26>
 8000da8:	2a41      	cmp	r2, #65	; 0x41
 8000daa:	d103      	bne.n	8000db4 <_ZN3gps14get_rmc_statusEv+0x2a>
 8000dac:	3496      	adds	r4, #150	; 0x96
 8000dae:	7023      	strb	r3, [r4, #0]
 8000db0:	7063      	strb	r3, [r4, #1]
 8000db2:	1c18      	adds	r0, r3, #0
 8000db4:	bd10      	pop	{r4, pc}

08000db6 <_ZN3gps4chdgEc>:
 8000db6:	3830      	subs	r0, #48	; 0x30
 8000db8:	b2c0      	uxtb	r0, r0
 8000dba:	4770      	bx	lr

08000dbc <_ZN3gps5chxdgEc>:
 8000dbc:	1c03      	adds	r3, r0, #0
 8000dbe:	3b41      	subs	r3, #65	; 0x41
 8000dc0:	2b05      	cmp	r3, #5
 8000dc2:	d801      	bhi.n	8000dc8 <_ZN3gps5chxdgEc+0xc>
 8000dc4:	3837      	subs	r0, #55	; 0x37
 8000dc6:	e006      	b.n	8000dd6 <_ZN3gps5chxdgEc+0x1a>
 8000dc8:	1c01      	adds	r1, r0, #0
 8000dca:	3961      	subs	r1, #97	; 0x61
 8000dcc:	2905      	cmp	r1, #5
 8000dce:	d801      	bhi.n	8000dd4 <_ZN3gps5chxdgEc+0x18>
 8000dd0:	3857      	subs	r0, #87	; 0x57
 8000dd2:	e000      	b.n	8000dd6 <_ZN3gps5chxdgEc+0x1a>
 8000dd4:	3830      	subs	r0, #48	; 0x30
 8000dd6:	b2c0      	uxtb	r0, r0
 8000dd8:	4770      	bx	lr

08000dda <_ZN3gps5parseEv>:
 8000dda:	b510      	push	{r4, lr}
 8000ddc:	1c03      	adds	r3, r0, #0
 8000dde:	33b4      	adds	r3, #180	; 0xb4
 8000de0:	6819      	ldr	r1, [r3, #0]
 8000de2:	3b04      	subs	r3, #4
 8000de4:	104a      	asrs	r2, r1, #1
 8000de6:	681b      	ldr	r3, [r3, #0]
 8000de8:	07cc      	lsls	r4, r1, #31
 8000dea:	d501      	bpl.n	8000df0 <_ZN3gps5parseEv+0x16>
 8000dec:	5884      	ldr	r4, [r0, r2]
 8000dee:	58e3      	ldr	r3, [r4, r3]
 8000df0:	1880      	adds	r0, r0, r2
 8000df2:	4798      	blx	r3
 8000df4:	bd10      	pop	{r4, pc}

08000df6 <_ZN3gps14get_field_infoEv>:
 8000df6:	b510      	push	{r4, lr}
 8000df8:	1d04      	adds	r4, r0, #4
 8000dfa:	1c20      	adds	r0, r4, #0
 8000dfc:	4916      	ldr	r1, [pc, #88]	; (8000e58 <_ZN3gps14get_field_infoEv+0x62>)
 8000dfe:	f003 ff51 	bl	8004ca4 <strcmp>
 8000e02:	2800      	cmp	r0, #0
 8000e04:	d01a      	beq.n	8000e3c <_ZN3gps14get_field_infoEv+0x46>
 8000e06:	1c20      	adds	r0, r4, #0
 8000e08:	4914      	ldr	r1, [pc, #80]	; (8000e5c <_ZN3gps14get_field_infoEv+0x66>)
 8000e0a:	f003 ff4b 	bl	8004ca4 <strcmp>
 8000e0e:	2800      	cmp	r0, #0
 8000e10:	d016      	beq.n	8000e40 <_ZN3gps14get_field_infoEv+0x4a>
 8000e12:	1c20      	adds	r0, r4, #0
 8000e14:	4912      	ldr	r1, [pc, #72]	; (8000e60 <_ZN3gps14get_field_infoEv+0x6a>)
 8000e16:	f003 ff45 	bl	8004ca4 <strcmp>
 8000e1a:	2800      	cmp	r0, #0
 8000e1c:	d013      	beq.n	8000e46 <_ZN3gps14get_field_infoEv+0x50>
 8000e1e:	1c20      	adds	r0, r4, #0
 8000e20:	4910      	ldr	r1, [pc, #64]	; (8000e64 <_ZN3gps14get_field_infoEv+0x6e>)
 8000e22:	f003 ff3f 	bl	8004ca4 <strcmp>
 8000e26:	2800      	cmp	r0, #0
 8000e28:	d010      	beq.n	8000e4c <_ZN3gps14get_field_infoEv+0x56>
 8000e2a:	1c20      	adds	r0, r4, #0
 8000e2c:	490e      	ldr	r1, [pc, #56]	; (8000e68 <_ZN3gps14get_field_infoEv+0x72>)
 8000e2e:	f003 ff39 	bl	8004ca4 <strcmp>
 8000e32:	2800      	cmp	r0, #0
 8000e34:	d10d      	bne.n	8000e52 <_ZN3gps14get_field_infoEv+0x5c>
 8000e36:	480d      	ldr	r0, [pc, #52]	; (8000e6c <_ZN3gps14get_field_infoEv+0x76>)
 8000e38:	3030      	adds	r0, #48	; 0x30
 8000e3a:	e00b      	b.n	8000e54 <_ZN3gps14get_field_infoEv+0x5e>
 8000e3c:	480b      	ldr	r0, [pc, #44]	; (8000e6c <_ZN3gps14get_field_infoEv+0x76>)
 8000e3e:	e009      	b.n	8000e54 <_ZN3gps14get_field_infoEv+0x5e>
 8000e40:	480a      	ldr	r0, [pc, #40]	; (8000e6c <_ZN3gps14get_field_infoEv+0x76>)
 8000e42:	300c      	adds	r0, #12
 8000e44:	e006      	b.n	8000e54 <_ZN3gps14get_field_infoEv+0x5e>
 8000e46:	4809      	ldr	r0, [pc, #36]	; (8000e6c <_ZN3gps14get_field_infoEv+0x76>)
 8000e48:	3018      	adds	r0, #24
 8000e4a:	e003      	b.n	8000e54 <_ZN3gps14get_field_infoEv+0x5e>
 8000e4c:	4807      	ldr	r0, [pc, #28]	; (8000e6c <_ZN3gps14get_field_infoEv+0x76>)
 8000e4e:	3024      	adds	r0, #36	; 0x24
 8000e50:	e000      	b.n	8000e54 <_ZN3gps14get_field_infoEv+0x5e>
 8000e52:	2000      	movs	r0, #0
 8000e54:	bd10      	pop	{r4, pc}
 8000e56:	46c0      	nop			; (mov r8, r8)
 8000e58:	080052d4 	.word	0x080052d4
 8000e5c:	080052da 	.word	0x080052da
 8000e60:	080052e0 	.word	0x080052e0
 8000e64:	080052e6 	.word	0x080052e6
 8000e68:	080052ec 	.word	0x080052ec
 8000e6c:	200006ac 	.word	0x200006ac

08000e70 <_ZN3gps11update_varsEv>:
 8000e70:	b508      	push	{r3, lr}
 8000e72:	6803      	ldr	r3, [r0, #0]
 8000e74:	2b00      	cmp	r3, #0
 8000e76:	d000      	beq.n	8000e7a <_ZN3gps11update_varsEv+0xa>
 8000e78:	4798      	blx	r3
 8000e7a:	bd08      	pop	{r3, pc}

08000e7c <_ZN3gps5resetEv>:
 8000e7c:	b513      	push	{r0, r1, r4, lr}
 8000e7e:	4906      	ldr	r1, [pc, #24]	; (8000e98 <_ZN3gps5resetEv+0x1c>)
 8000e80:	2300      	movs	r3, #0
 8000e82:	6103      	str	r3, [r0, #16]
 8000e84:	8283      	strh	r3, [r0, #20]
 8000e86:	7583      	strb	r3, [r0, #22]
 8000e88:	73c3      	strb	r3, [r0, #15]
 8000e8a:	466a      	mov	r2, sp
 8000e8c:	9100      	str	r1, [sp, #0]
 8000e8e:	9301      	str	r3, [sp, #4]
 8000e90:	30b0      	adds	r0, #176	; 0xb0
 8000e92:	ca12      	ldmia	r2!, {r1, r4}
 8000e94:	c012      	stmia	r0!, {r1, r4}
 8000e96:	bd13      	pop	{r0, r1, r4, pc}
 8000e98:	08001615 	.word	0x08001615

08000e9c <_ZN3gps9get_digitERa>:
 8000e9c:	b538      	push	{r3, r4, r5, lr}
 8000e9e:	1c04      	adds	r4, r0, #0
 8000ea0:	3004      	adds	r0, #4
 8000ea2:	1c0d      	adds	r5, r1, #0
 8000ea4:	f003 ff10 	bl	8004cc8 <strlen>
 8000ea8:	2300      	movs	r3, #0
 8000eaa:	2801      	cmp	r0, #1
 8000eac:	d105      	bne.n	8000eba <_ZN3gps9get_digitERa+0x1e>
 8000eae:	7922      	ldrb	r2, [r4, #4]
 8000eb0:	3a30      	subs	r2, #48	; 0x30
 8000eb2:	2a09      	cmp	r2, #9
 8000eb4:	d801      	bhi.n	8000eba <_ZN3gps9get_digitERa+0x1e>
 8000eb6:	702a      	strb	r2, [r5, #0]
 8000eb8:	1c03      	adds	r3, r0, #0
 8000eba:	1c18      	adds	r0, r3, #0
 8000ebc:	bd38      	pop	{r3, r4, r5, pc}

08000ebe <_ZN3gps7get_intERl>:
 8000ebe:	b538      	push	{r3, r4, r5, lr}
 8000ec0:	1c04      	adds	r4, r0, #0
 8000ec2:	3004      	adds	r0, #4
 8000ec4:	1c0d      	adds	r5, r1, #0
 8000ec6:	f003 feff 	bl	8004cc8 <strlen>
 8000eca:	2800      	cmp	r0, #0
 8000ecc:	dd11      	ble.n	8000ef2 <_ZN3gps7get_intERl+0x34>
 8000ece:	1e43      	subs	r3, r0, #1
 8000ed0:	2101      	movs	r1, #1
 8000ed2:	2200      	movs	r2, #0
 8000ed4:	18e0      	adds	r0, r4, r3
 8000ed6:	7900      	ldrb	r0, [r0, #4]
 8000ed8:	3830      	subs	r0, #48	; 0x30
 8000eda:	2809      	cmp	r0, #9
 8000edc:	d809      	bhi.n	8000ef2 <_ZN3gps7get_intERl+0x34>
 8000ede:	b2c0      	uxtb	r0, r0
 8000ee0:	4348      	muls	r0, r1
 8000ee2:	1812      	adds	r2, r2, r0
 8000ee4:	200a      	movs	r0, #10
 8000ee6:	4341      	muls	r1, r0
 8000ee8:	3b01      	subs	r3, #1
 8000eea:	d2f3      	bcs.n	8000ed4 <_ZN3gps7get_intERl+0x16>
 8000eec:	602a      	str	r2, [r5, #0]
 8000eee:	2001      	movs	r0, #1
 8000ef0:	e000      	b.n	8000ef4 <_ZN3gps7get_intERl+0x36>
 8000ef2:	2000      	movs	r0, #0
 8000ef4:	bd38      	pop	{r3, r4, r5, pc}

08000ef6 <_ZN3gps9get_floatERf>:
 8000ef6:	b537      	push	{r0, r1, r2, r4, r5, lr}
 8000ef8:	1c0d      	adds	r5, r1, #0
 8000efa:	2400      	movs	r4, #0
 8000efc:	1d01      	adds	r1, r0, #4
 8000efe:	a801      	add	r0, sp, #4
 8000f00:	9401      	str	r4, [sp, #4]
 8000f02:	f003 fa71 	bl	80043e8 <_ZN4quan6detail9converterIfPcEclEPKc>
 8000f06:	9b01      	ldr	r3, [sp, #4]
 8000f08:	42a3      	cmp	r3, r4
 8000f0a:	d101      	bne.n	8000f10 <_ZN3gps9get_floatERf+0x1a>
 8000f0c:	6028      	str	r0, [r5, #0]
 8000f0e:	2401      	movs	r4, #1
 8000f10:	1c20      	adds	r0, r4, #0
 8000f12:	bd3e      	pop	{r1, r2, r3, r4, r5, pc}

08000f14 <_Z9setup_GPSv>:
 8000f14:	4770      	bx	lr

08000f16 <_ZN3gpsC1EPFvRS_E>:
 8000f16:	b5f0      	push	{r4, r5, r6, r7, lr}
 8000f18:	1c04      	adds	r4, r0, #0
 8000f1a:	b087      	sub	sp, #28
 8000f1c:	2500      	movs	r5, #0
 8000f1e:	6001      	str	r1, [r0, #0]
 8000f20:	6105      	str	r5, [r0, #16]
 8000f22:	8285      	strh	r5, [r0, #20]
 8000f24:	75a5      	strb	r5, [r4, #22]
 8000f26:	a902      	add	r1, sp, #8
 8000f28:	301c      	adds	r0, #28
 8000f2a:	9502      	str	r5, [sp, #8]
 8000f2c:	f003 fb5c 	bl	80045e8 <_ZN3gps3varImEC1ERKm>
 8000f30:	1c20      	adds	r0, r4, #0
 8000f32:	a902      	add	r1, sp, #8
 8000f34:	3024      	adds	r0, #36	; 0x24
 8000f36:	9502      	str	r5, [sp, #8]
 8000f38:	f003 fb5b 	bl	80045f2 <_ZN3gps3varIlEC1ERKl>
 8000f3c:	1c20      	adds	r0, r4, #0
 8000f3e:	a902      	add	r1, sp, #8
 8000f40:	302c      	adds	r0, #44	; 0x2c
 8000f42:	9502      	str	r5, [sp, #8]
 8000f44:	f003 fb55 	bl	80045f2 <_ZN3gps3varIlEC1ERKl>
 8000f48:	1c20      	adds	r0, r4, #0
 8000f4a:	a902      	add	r1, sp, #8
 8000f4c:	3034      	adds	r0, #52	; 0x34
 8000f4e:	9502      	str	r5, [sp, #8]
 8000f50:	f003 fb4f 	bl	80045f2 <_ZN3gps3varIlEC1ERKl>
 8000f54:	4669      	mov	r1, sp
 8000f56:	1c20      	adds	r0, r4, #0
 8000f58:	3105      	adds	r1, #5
 8000f5a:	303c      	adds	r0, #60	; 0x3c
 8000f5c:	1c2e      	adds	r6, r5, #0
 8000f5e:	700d      	strb	r5, [r1, #0]
 8000f60:	ad03      	add	r5, sp, #12
 8000f62:	f003 fb4b 	bl	80045fc <_ZN3gps3varINS_8fix_typeEEC1ERKS1_>
 8000f66:	1c20      	adds	r0, r4, #0
 8000f68:	1c29      	adds	r1, r5, #0
 8000f6a:	303e      	adds	r0, #62	; 0x3e
 8000f6c:	702e      	strb	r6, [r5, #0]
 8000f6e:	27fe      	movs	r7, #254	; 0xfe
 8000f70:	f003 fb49 	bl	8004606 <_ZN3gps3varIhEC1ERKh>
 8000f74:	1c20      	adds	r0, r4, #0
 8000f76:	05bf      	lsls	r7, r7, #22
 8000f78:	1c29      	adds	r1, r5, #0
 8000f7a:	3040      	adds	r0, #64	; 0x40
 8000f7c:	9703      	str	r7, [sp, #12]
 8000f7e:	f003 fb47 	bl	8004610 <_ZN3gps3varIfEC1ERKf>
 8000f82:	1c20      	adds	r0, r4, #0
 8000f84:	1c29      	adds	r1, r5, #0
 8000f86:	3048      	adds	r0, #72	; 0x48
 8000f88:	9703      	str	r7, [sp, #12]
 8000f8a:	f003 fb41 	bl	8004610 <_ZN3gps3varIfEC1ERKf>
 8000f8e:	1c20      	adds	r0, r4, #0
 8000f90:	1c29      	adds	r1, r5, #0
 8000f92:	3050      	adds	r0, #80	; 0x50
 8000f94:	9703      	str	r7, [sp, #12]
 8000f96:	f003 fb3b 	bl	8004610 <_ZN3gps3varIfEC1ERKf>
 8000f9a:	1c20      	adds	r0, r4, #0
 8000f9c:	2300      	movs	r3, #0
 8000f9e:	1c29      	adds	r1, r5, #0
 8000fa0:	3058      	adds	r0, #88	; 0x58
 8000fa2:	9303      	str	r3, [sp, #12]
 8000fa4:	f003 fb34 	bl	8004610 <_ZN3gps3varIfEC1ERKf>
 8000fa8:	4669      	mov	r1, sp
 8000faa:	1c20      	adds	r0, r4, #0
 8000fac:	3106      	adds	r1, #6
 8000fae:	3060      	adds	r0, #96	; 0x60
 8000fb0:	700e      	strb	r6, [r1, #0]
 8000fb2:	f003 fb32 	bl	800461a <_ZN3gps3varINS_9mode_2D3DEEC1ERKS1_>
 8000fb6:	4669      	mov	r1, sp
 8000fb8:	1c20      	adds	r0, r4, #0
 8000fba:	3107      	adds	r1, #7
 8000fbc:	3062      	adds	r0, #98	; 0x62
 8000fbe:	700e      	strb	r6, [r1, #0]
 8000fc0:	f003 fb30 	bl	8004624 <_ZN3gps3varINS_8fix_modeEEC1ERKS1_>
 8000fc4:	1c25      	adds	r5, r4, #0
 8000fc6:	1c26      	adds	r6, r4, #0
 8000fc8:	3564      	adds	r5, #100	; 0x64
 8000fca:	367c      	adds	r6, #124	; 0x7c
 8000fcc:	1c28      	adds	r0, r5, #0
 8000fce:	3502      	adds	r5, #2
 8000fd0:	f003 fb2d 	bl	800462e <_ZN3gps3varIaEC1Ev>
 8000fd4:	42b5      	cmp	r5, r6
 8000fd6:	d1f9      	bne.n	8000fcc <_ZN3gpsC1EPFvRS_E+0xb6>
 8000fd8:	1c28      	adds	r0, r5, #0
 8000fda:	f003 fb2c 	bl	8004636 <_ZN3gps3varIfEC1Ev>
 8000fde:	1c20      	adds	r0, r4, #0
 8000fe0:	3084      	adds	r0, #132	; 0x84
 8000fe2:	f003 fb28 	bl	8004636 <_ZN3gps3varIfEC1Ev>
 8000fe6:	1c20      	adds	r0, r4, #0
 8000fe8:	308c      	adds	r0, #140	; 0x8c
 8000fea:	f003 fb24 	bl	8004636 <_ZN3gps3varIfEC1Ev>
 8000fee:	1c20      	adds	r0, r4, #0
 8000ff0:	3094      	adds	r0, #148	; 0x94
 8000ff2:	f003 fb25 	bl	8004640 <_ZN3gps3varINS_8vtg_modeEEC1Ev>
 8000ff6:	1c20      	adds	r0, r4, #0
 8000ff8:	2700      	movs	r7, #0
 8000ffa:	3096      	adds	r0, #150	; 0x96
 8000ffc:	7007      	strb	r7, [r0, #0]
 8000ffe:	7047      	strb	r7, [r0, #1]
 8001000:	1c20      	adds	r0, r4, #0
 8001002:	3098      	adds	r0, #152	; 0x98
 8001004:	f003 fb20 	bl	8004648 <_ZN3gps3varImEC1Ev>
 8001008:	1c20      	adds	r0, r4, #0
 800100a:	30a0      	adds	r0, #160	; 0xa0
 800100c:	f003 fb13 	bl	8004636 <_ZN3gps3varIfEC1Ev>
 8001010:	1c20      	adds	r0, r4, #0
 8001012:	30a8      	adds	r0, #168	; 0xa8
 8001014:	f003 fb1c 	bl	8004650 <_ZN3gps3varINS_7cmd_strEEC1Ev>
 8001018:	1c20      	adds	r0, r4, #0
 800101a:	30ad      	adds	r0, #173	; 0xad
 800101c:	f003 fb07 	bl	800462e <_ZN3gps3varIaEC1Ev>
 8001020:	4a05      	ldr	r2, [pc, #20]	; (8001038 <_ZN3gpsC1EPFvRS_E+0x122>)
 8001022:	1c23      	adds	r3, r4, #0
 8001024:	a904      	add	r1, sp, #16
 8001026:	9204      	str	r2, [sp, #16]
 8001028:	9705      	str	r7, [sp, #20]
 800102a:	33b0      	adds	r3, #176	; 0xb0
 800102c:	c921      	ldmia	r1!, {r0, r5}
 800102e:	c321      	stmia	r3!, {r0, r5}
 8001030:	1c20      	adds	r0, r4, #0
 8001032:	b007      	add	sp, #28
 8001034:	bdf0      	pop	{r4, r5, r6, r7, pc}
 8001036:	46c0      	nop			; (mov r8, r8)
 8001038:	08001615 	.word	0x08001615

0800103c <_ZN3gps12get_sat_usedEv>:
 800103c:	b513      	push	{r0, r1, r4, lr}
 800103e:	1c04      	adds	r4, r0, #0
 8001040:	2301      	movs	r3, #1
 8001042:	7921      	ldrb	r1, [r4, #4]
 8001044:	4258      	negs	r0, r3
 8001046:	9001      	str	r0, [sp, #4]
 8001048:	2900      	cmp	r1, #0
 800104a:	d105      	bne.n	8001058 <_ZN3gps12get_sat_usedEv+0x1c>
 800104c:	8aa2      	ldrh	r2, [r4, #20]
 800104e:	3a02      	subs	r2, #2
 8001050:	b293      	uxth	r3, r2
 8001052:	2b0b      	cmp	r3, #11
 8001054:	d806      	bhi.n	8001064 <_ZN3gps12get_sat_usedEv+0x28>
 8001056:	e007      	b.n	8001068 <_ZN3gps12get_sat_usedEv+0x2c>
 8001058:	1c20      	adds	r0, r4, #0
 800105a:	a901      	add	r1, sp, #4
 800105c:	f7ff ff2f 	bl	8000ebe <_ZN3gps7get_intERl>
 8001060:	2800      	cmp	r0, #0
 8001062:	d1f3      	bne.n	800104c <_ZN3gps12get_sat_usedEv+0x10>
 8001064:	2000      	movs	r0, #0
 8001066:	e00b      	b.n	8001080 <_ZN3gps12get_sat_usedEv+0x44>
 8001068:	3330      	adds	r3, #48	; 0x30
 800106a:	4668      	mov	r0, sp
 800106c:	005b      	lsls	r3, r3, #1
 800106e:	7902      	ldrb	r2, [r0, #4]
 8001070:	18e4      	adds	r4, r4, r3
 8001072:	4669      	mov	r1, sp
 8001074:	3103      	adds	r1, #3
 8001076:	1d20      	adds	r0, r4, #4
 8001078:	700a      	strb	r2, [r1, #0]
 800107a:	f003 faf4 	bl	8004666 <_ZN3gps3varIaEaSERKa>
 800107e:	2001      	movs	r0, #1
 8001080:	bd16      	pop	{r1, r2, r4, pc}

08001082 <_ZN3gps19get_ack_result_codeEv>:
 8001082:	b537      	push	{r0, r1, r2, r4, r5, lr}
 8001084:	466c      	mov	r4, sp
 8001086:	3407      	adds	r4, #7
 8001088:	1c21      	adds	r1, r4, #0
 800108a:	1c05      	adds	r5, r0, #0
 800108c:	f7ff ff06 	bl	8000e9c <_ZN3gps9get_digitERa>
 8001090:	2300      	movs	r3, #0
 8001092:	4298      	cmp	r0, r3
 8001094:	d008      	beq.n	80010a8 <_ZN3gps19get_ack_result_codeEv+0x26>
 8001096:	7822      	ldrb	r2, [r4, #0]
 8001098:	2a03      	cmp	r2, #3
 800109a:	d805      	bhi.n	80010a8 <_ZN3gps19get_ack_result_codeEv+0x26>
 800109c:	1c28      	adds	r0, r5, #0
 800109e:	30ad      	adds	r0, #173	; 0xad
 80010a0:	1c21      	adds	r1, r4, #0
 80010a2:	f003 fae0 	bl	8004666 <_ZN3gps3varIaEaSERKa>
 80010a6:	2301      	movs	r3, #1
 80010a8:	1c18      	adds	r0, r3, #0
 80010aa:	bd3e      	pop	{r1, r2, r3, r4, r5, pc}

080010ac <_ZN3gps22get_magnetic_variationEv>:
 80010ac:	b513      	push	{r0, r1, r4, lr}
 80010ae:	2300      	movs	r3, #0
 80010b0:	a901      	add	r1, sp, #4
 80010b2:	1c04      	adds	r4, r0, #0
 80010b4:	9301      	str	r3, [sp, #4]
 80010b6:	f7ff ff1e 	bl	8000ef6 <_ZN3gps9get_floatERf>
 80010ba:	2100      	movs	r1, #0
 80010bc:	4288      	cmp	r0, r1
 80010be:	d005      	beq.n	80010cc <_ZN3gps22get_magnetic_variationEv+0x20>
 80010c0:	1c20      	adds	r0, r4, #0
 80010c2:	a901      	add	r1, sp, #4
 80010c4:	30a0      	adds	r0, #160	; 0xa0
 80010c6:	f003 fad3 	bl	8004670 <_ZN3gps3varIfEaSERKf>
 80010ca:	2101      	movs	r1, #1
 80010cc:	1c08      	adds	r0, r1, #0
 80010ce:	bd16      	pop	{r1, r2, r4, pc}

080010d0 <_ZN3gps22get_geoidal_separationEv>:
 80010d0:	b513      	push	{r0, r1, r4, lr}
 80010d2:	a901      	add	r1, sp, #4
 80010d4:	1c04      	adds	r4, r0, #0
 80010d6:	f7ff ff0e 	bl	8000ef6 <_ZN3gps9get_floatERf>
 80010da:	2300      	movs	r3, #0
 80010dc:	4298      	cmp	r0, r3
 80010de:	d005      	beq.n	80010ec <_ZN3gps22get_geoidal_separationEv+0x1c>
 80010e0:	1c20      	adds	r0, r4, #0
 80010e2:	3058      	adds	r0, #88	; 0x58
 80010e4:	a901      	add	r1, sp, #4
 80010e6:	f003 fac3 	bl	8004670 <_ZN3gps3varIfEaSERKf>
 80010ea:	2301      	movs	r3, #1
 80010ec:	1c18      	adds	r0, r3, #0
 80010ee:	bd16      	pop	{r1, r2, r4, pc}

080010f0 <_ZN3gps19get_groundspeed_kmhEv>:
 80010f0:	b513      	push	{r0, r1, r4, lr}
 80010f2:	4669      	mov	r1, sp
 80010f4:	1c04      	adds	r4, r0, #0
 80010f6:	f7ff fefe 	bl	8000ef6 <_ZN3gps9get_floatERf>
 80010fa:	2300      	movs	r3, #0
 80010fc:	4298      	cmp	r0, r3
 80010fe:	d00f      	beq.n	8001120 <_ZN3gps19get_groundspeed_kmhEv+0x30>
 8001100:	9800      	ldr	r0, [sp, #0]
 8001102:	f002 fd2b 	bl	8003b5c <__aeabi_f2d>
 8001106:	4b09      	ldr	r3, [pc, #36]	; (800112c <_ZN3gps19get_groundspeed_kmhEv+0x3c>)
 8001108:	4a07      	ldr	r2, [pc, #28]	; (8001128 <_ZN3gps19get_groundspeed_kmhEv+0x38>)
 800110a:	f002 fa15 	bl	8003538 <__aeabi_dmul>
 800110e:	f002 fd79 	bl	8003c04 <__aeabi_d2f>
 8001112:	9001      	str	r0, [sp, #4]
 8001114:	1c20      	adds	r0, r4, #0
 8001116:	308c      	adds	r0, #140	; 0x8c
 8001118:	a901      	add	r1, sp, #4
 800111a:	f003 faa9 	bl	8004670 <_ZN3gps3varIfEaSERKf>
 800111e:	2301      	movs	r3, #1
 8001120:	1c18      	adds	r0, r3, #0
 8001122:	bd16      	pop	{r1, r2, r4, pc}
 8001124:	46c0      	nop			; (mov r8, r8)
 8001126:	46c0      	nop			; (mov r8, r8)
 8001128:	720431f1 	.word	0x720431f1
 800112c:	3fd1c71c 	.word	0x3fd1c71c

08001130 <_ZN3gps20get_groundspeed_knotEv>:
 8001130:	b513      	push	{r0, r1, r4, lr}
 8001132:	4669      	mov	r1, sp
 8001134:	1c04      	adds	r4, r0, #0
 8001136:	f7ff fede 	bl	8000ef6 <_ZN3gps9get_floatERf>
 800113a:	2300      	movs	r3, #0
 800113c:	4298      	cmp	r0, r3
 800113e:	d00f      	beq.n	8001160 <_ZN3gps20get_groundspeed_knotEv+0x30>
 8001140:	9800      	ldr	r0, [sp, #0]
 8001142:	f002 fd0b 	bl	8003b5c <__aeabi_f2d>
 8001146:	4b09      	ldr	r3, [pc, #36]	; (800116c <_ZN3gps20get_groundspeed_knotEv+0x3c>)
 8001148:	4a07      	ldr	r2, [pc, #28]	; (8001168 <_ZN3gps20get_groundspeed_knotEv+0x38>)
 800114a:	f002 f9f5 	bl	8003538 <__aeabi_dmul>
 800114e:	f002 fd59 	bl	8003c04 <__aeabi_d2f>
 8001152:	9001      	str	r0, [sp, #4]
 8001154:	1c20      	adds	r0, r4, #0
 8001156:	308c      	adds	r0, #140	; 0x8c
 8001158:	a901      	add	r1, sp, #4
 800115a:	f003 fa89 	bl	8004670 <_ZN3gps3varIfEaSERKf>
 800115e:	2301      	movs	r3, #1
 8001160:	1c18      	adds	r0, r3, #0
 8001162:	bd16      	pop	{r1, r2, r4, pc}
 8001164:	46c0      	nop			; (mov r8, r8)
 8001166:	46c0      	nop			; (mov r8, r8)
 8001168:	31d2d84c 	.word	0x31d2d84c
 800116c:	3fe07654 	.word	0x3fe07654

08001170 <_ZN3gps20get_magnetic_headingEv>:
 8001170:	b513      	push	{r0, r1, r4, lr}
 8001172:	7902      	ldrb	r2, [r0, #4]
 8001174:	1c04      	adds	r4, r0, #0
 8001176:	2301      	movs	r3, #1
 8001178:	2a00      	cmp	r2, #0
 800117a:	d00b      	beq.n	8001194 <_ZN3gps20get_magnetic_headingEv+0x24>
 800117c:	a901      	add	r1, sp, #4
 800117e:	f7ff feba 	bl	8000ef6 <_ZN3gps9get_floatERf>
 8001182:	2300      	movs	r3, #0
 8001184:	4298      	cmp	r0, r3
 8001186:	d005      	beq.n	8001194 <_ZN3gps20get_magnetic_headingEv+0x24>
 8001188:	1c20      	adds	r0, r4, #0
 800118a:	3084      	adds	r0, #132	; 0x84
 800118c:	a901      	add	r1, sp, #4
 800118e:	f003 fa6f 	bl	8004670 <_ZN3gps3varIfEaSERKf>
 8001192:	2301      	movs	r3, #1
 8001194:	1c18      	adds	r0, r3, #0
 8001196:	bd16      	pop	{r1, r2, r4, pc}

08001198 <_ZN3gps16get_true_headingEv>:
 8001198:	b513      	push	{r0, r1, r4, lr}
 800119a:	7902      	ldrb	r2, [r0, #4]
 800119c:	1c04      	adds	r4, r0, #0
 800119e:	2301      	movs	r3, #1
 80011a0:	2a00      	cmp	r2, #0
 80011a2:	d00b      	beq.n	80011bc <_ZN3gps16get_true_headingEv+0x24>
 80011a4:	a901      	add	r1, sp, #4
 80011a6:	f7ff fea6 	bl	8000ef6 <_ZN3gps9get_floatERf>
 80011aa:	2300      	movs	r3, #0
 80011ac:	4298      	cmp	r0, r3
 80011ae:	d005      	beq.n	80011bc <_ZN3gps16get_true_headingEv+0x24>
 80011b0:	1c20      	adds	r0, r4, #0
 80011b2:	307c      	adds	r0, #124	; 0x7c
 80011b4:	a901      	add	r1, sp, #4
 80011b6:	f003 fa5b 	bl	8004670 <_ZN3gps3varIfEaSERKf>
 80011ba:	2301      	movs	r3, #1
 80011bc:	1c18      	adds	r0, r3, #0
 80011be:	bd16      	pop	{r1, r2, r4, pc}

080011c0 <_ZN3gps8get_vdopEv>:
 80011c0:	b513      	push	{r0, r1, r4, lr}
 80011c2:	a901      	add	r1, sp, #4
 80011c4:	1c04      	adds	r4, r0, #0
 80011c6:	f7ff fe96 	bl	8000ef6 <_ZN3gps9get_floatERf>
 80011ca:	2300      	movs	r3, #0
 80011cc:	4298      	cmp	r0, r3
 80011ce:	d005      	beq.n	80011dc <_ZN3gps8get_vdopEv+0x1c>
 80011d0:	1c20      	adds	r0, r4, #0
 80011d2:	3050      	adds	r0, #80	; 0x50
 80011d4:	a901      	add	r1, sp, #4
 80011d6:	f003 fa4b 	bl	8004670 <_ZN3gps3varIfEaSERKf>
 80011da:	2301      	movs	r3, #1
 80011dc:	1c18      	adds	r0, r3, #0
 80011de:	bd16      	pop	{r1, r2, r4, pc}

080011e0 <_ZN3gps8get_hdopEv>:
 80011e0:	b513      	push	{r0, r1, r4, lr}
 80011e2:	a901      	add	r1, sp, #4
 80011e4:	1c04      	adds	r4, r0, #0
 80011e6:	f7ff fe86 	bl	8000ef6 <_ZN3gps9get_floatERf>
 80011ea:	2300      	movs	r3, #0
 80011ec:	4298      	cmp	r0, r3
 80011ee:	d005      	beq.n	80011fc <_ZN3gps8get_hdopEv+0x1c>
 80011f0:	1c20      	adds	r0, r4, #0
 80011f2:	3048      	adds	r0, #72	; 0x48
 80011f4:	a901      	add	r1, sp, #4
 80011f6:	f003 fa3b 	bl	8004670 <_ZN3gps3varIfEaSERKf>
 80011fa:	2301      	movs	r3, #1
 80011fc:	1c18      	adds	r0, r3, #0
 80011fe:	bd16      	pop	{r1, r2, r4, pc}

08001200 <_ZN3gps8get_pdopEv>:
 8001200:	b513      	push	{r0, r1, r4, lr}
 8001202:	a901      	add	r1, sp, #4
 8001204:	1c04      	adds	r4, r0, #0
 8001206:	f7ff fe76 	bl	8000ef6 <_ZN3gps9get_floatERf>
 800120a:	2300      	movs	r3, #0
 800120c:	4298      	cmp	r0, r3
 800120e:	d005      	beq.n	800121c <_ZN3gps8get_pdopEv+0x1c>
 8001210:	1c20      	adds	r0, r4, #0
 8001212:	3040      	adds	r0, #64	; 0x40
 8001214:	a901      	add	r1, sp, #4
 8001216:	f003 fa2b 	bl	8004670 <_ZN3gps3varIfEaSERKf>
 800121a:	2301      	movs	r3, #1
 800121c:	1c18      	adds	r0, r3, #0
 800121e:	bd16      	pop	{r1, r2, r4, pc}

08001220 <_ZN3gps30get_sign_of_magnetic_variationEv>:
 8001220:	b537      	push	{r0, r1, r2, r4, r5, lr}
 8001222:	1c05      	adds	r5, r0, #0
 8001224:	3004      	adds	r0, #4
 8001226:	f003 fd4f 	bl	8004cc8 <strlen>
 800122a:	1c04      	adds	r4, r0, #0
 800122c:	2000      	movs	r0, #0
 800122e:	2c01      	cmp	r4, #1
 8001230:	d10f      	bne.n	8001252 <_ZN3gps30get_sign_of_magnetic_variationEv+0x32>
 8001232:	792b      	ldrb	r3, [r5, #4]
 8001234:	2b45      	cmp	r3, #69	; 0x45
 8001236:	d00b      	beq.n	8001250 <_ZN3gps30get_sign_of_magnetic_variationEv+0x30>
 8001238:	2b57      	cmp	r3, #87	; 0x57
 800123a:	d10a      	bne.n	8001252 <_ZN3gps30get_sign_of_magnetic_variationEv+0x32>
 800123c:	1c28      	adds	r0, r5, #0
 800123e:	30a0      	adds	r0, #160	; 0xa0
 8001240:	6801      	ldr	r1, [r0, #0]
 8001242:	2280      	movs	r2, #128	; 0x80
 8001244:	0615      	lsls	r5, r2, #24
 8001246:	194b      	adds	r3, r1, r5
 8001248:	a901      	add	r1, sp, #4
 800124a:	9301      	str	r3, [sp, #4]
 800124c:	f003 fa10 	bl	8004670 <_ZN3gps3varIfEaSERKf>
 8001250:	1c20      	adds	r0, r4, #0
 8001252:	bd3e      	pop	{r1, r2, r3, r4, r5, pc}

08001254 <_ZN3gps11get_deg10e7ERNS_3varIlEE>:
 8001254:	b5f0      	push	{r4, r5, r6, r7, lr}
 8001256:	1c05      	adds	r5, r0, #0
 8001258:	b087      	sub	sp, #28
 800125a:	3004      	adds	r0, #4
 800125c:	9103      	str	r1, [sp, #12]
 800125e:	f003 fd33 	bl	8004cc8 <strlen>
 8001262:	b206      	sxth	r6, r0
 8001264:	9602      	str	r6, [sp, #8]
 8001266:	2000      	movs	r0, #0
 8001268:	2e06      	cmp	r6, #6
 800126a:	dc00      	bgt.n	800126e <_ZN3gps11get_deg10e7ERNS_3varIlEE+0x1a>
 800126c:	e09e      	b.n	80013ac <_ZN3gps11get_deg10e7ERNS_3varIlEE+0x158>
 800126e:	1c03      	adds	r3, r0, #0
 8001270:	18ea      	adds	r2, r5, r3
 8001272:	7911      	ldrb	r1, [r2, #4]
 8001274:	b298      	uxth	r0, r3
 8001276:	292e      	cmp	r1, #46	; 0x2e
 8001278:	d005      	beq.n	8001286 <_ZN3gps11get_deg10e7ERNS_3varIlEE+0x32>
 800127a:	3301      	adds	r3, #1
 800127c:	9f02      	ldr	r7, [sp, #8]
 800127e:	b21c      	sxth	r4, r3
 8001280:	42bc      	cmp	r4, r7
 8001282:	d1f5      	bne.n	8001270 <_ZN3gps11get_deg10e7ERNS_3varIlEE+0x1c>
 8001284:	e091      	b.n	80013aa <_ZN3gps11get_deg10e7ERNS_3varIlEE+0x156>
 8001286:	b280      	uxth	r0, r0
 8001288:	1ec6      	subs	r6, r0, #3
 800128a:	b2b4      	uxth	r4, r6
 800128c:	b2a2      	uxth	r2, r4
 800128e:	4694      	mov	ip, r2
 8001290:	2200      	movs	r2, #0
 8001292:	2101      	movs	r1, #1
 8001294:	9201      	str	r2, [sp, #4]
 8001296:	18a7      	adds	r7, r4, r2
 8001298:	043f      	lsls	r7, r7, #16
 800129a:	d415      	bmi.n	80012c8 <_ZN3gps11get_deg10e7ERNS_3varIlEE+0x74>
 800129c:	4667      	mov	r7, ip
 800129e:	b23e      	sxth	r6, r7
 80012a0:	19af      	adds	r7, r5, r6
 80012a2:	18be      	adds	r6, r7, r2
 80012a4:	7937      	ldrb	r7, [r6, #4]
 80012a6:	3a01      	subs	r2, #1
 80012a8:	3f30      	subs	r7, #48	; 0x30
 80012aa:	2f09      	cmp	r7, #9
 80012ac:	d900      	bls.n	80012b0 <_ZN3gps11get_deg10e7ERNS_3varIlEE+0x5c>
 80012ae:	e07c      	b.n	80013aa <_ZN3gps11get_deg10e7ERNS_3varIlEE+0x156>
 80012b0:	b2fe      	uxtb	r6, r7
 80012b2:	b20f      	sxth	r7, r1
 80012b4:	437e      	muls	r6, r7
 80012b6:	9f01      	ldr	r7, [sp, #4]
 80012b8:	19be      	adds	r6, r7, r6
 80012ba:	b2b7      	uxth	r7, r6
 80012bc:	260a      	movs	r6, #10
 80012be:	4371      	muls	r1, r6
 80012c0:	b289      	uxth	r1, r1
 80012c2:	9701      	str	r7, [sp, #4]
 80012c4:	b289      	uxth	r1, r1
 80012c6:	e7e6      	b.n	8001296 <_ZN3gps11get_deg10e7ERNS_3varIlEE+0x42>
 80012c8:	3801      	subs	r0, #1
 80012ca:	b280      	uxth	r0, r0
 80012cc:	2200      	movs	r2, #0
 80012ce:	4684      	mov	ip, r0
 80012d0:	1c14      	adds	r4, r2, #0
 80012d2:	2101      	movs	r1, #1
 80012d4:	4666      	mov	r6, ip
 80012d6:	b230      	sxth	r0, r6
 80012d8:	1e9f      	subs	r7, r3, #2
 80012da:	1816      	adds	r6, r2, r0
 80012dc:	42b7      	cmp	r7, r6
 80012de:	dc10      	bgt.n	8001302 <_ZN3gps11get_deg10e7ERNS_3varIlEE+0xae>
 80012e0:	182e      	adds	r6, r5, r0
 80012e2:	18b7      	adds	r7, r6, r2
 80012e4:	7938      	ldrb	r0, [r7, #4]
 80012e6:	3a01      	subs	r2, #1
 80012e8:	3830      	subs	r0, #48	; 0x30
 80012ea:	2809      	cmp	r0, #9
 80012ec:	d85d      	bhi.n	80013aa <_ZN3gps11get_deg10e7ERNS_3varIlEE+0x156>
 80012ee:	b2c7      	uxtb	r7, r0
 80012f0:	b20e      	sxth	r6, r1
 80012f2:	200a      	movs	r0, #10
 80012f4:	4377      	muls	r7, r6
 80012f6:	4341      	muls	r1, r0
 80012f8:	19e4      	adds	r4, r4, r7
 80012fa:	b289      	uxth	r1, r1
 80012fc:	b2a4      	uxth	r4, r4
 80012fe:	b289      	uxth	r1, r1
 8001300:	e7e8      	b.n	80012d4 <_ZN3gps11get_deg10e7ERNS_3varIlEE+0x80>
 8001302:	1c5e      	adds	r6, r3, #1
 8001304:	21fa      	movs	r1, #250	; 0xfa
 8001306:	2300      	movs	r3, #0
 8001308:	9300      	str	r3, [sp, #0]
 800130a:	0088      	lsls	r0, r1, #2
 800130c:	9a02      	ldr	r2, [sp, #8]
 800130e:	4296      	cmp	r6, r2
 8001310:	da11      	bge.n	8001336 <_ZN3gps11get_deg10e7ERNS_3varIlEE+0xe2>
 8001312:	19ab      	adds	r3, r5, r6
 8001314:	7919      	ldrb	r1, [r3, #4]
 8001316:	3930      	subs	r1, #48	; 0x30
 8001318:	2909      	cmp	r1, #9
 800131a:	d846      	bhi.n	80013aa <_ZN3gps11get_deg10e7ERNS_3varIlEE+0x156>
 800131c:	b2ca      	uxtb	r2, r1
 800131e:	b200      	sxth	r0, r0
 8001320:	4342      	muls	r2, r0
 8001322:	9f00      	ldr	r7, [sp, #0]
 8001324:	3601      	adds	r6, #1
 8001326:	18bb      	adds	r3, r7, r2
 8001328:	b299      	uxth	r1, r3
 800132a:	9100      	str	r1, [sp, #0]
 800132c:	210a      	movs	r1, #10
 800132e:	f000 fbcf 	bl	8001ad0 <__aeabi_idiv>
 8001332:	b280      	uxth	r0, r0
 8001334:	e7ea      	b.n	800130c <_ZN3gps11get_deg10e7ERNS_3varIlEE+0xb8>
 8001336:	466d      	mov	r5, sp
 8001338:	2104      	movs	r1, #4
 800133a:	5e68      	ldrsh	r0, [r5, r1]
 800133c:	f002 fba2 	bl	8003a84 <__aeabi_i2d>
 8001340:	4b1c      	ldr	r3, [pc, #112]	; (80013b4 <_ZN3gps11get_deg10e7ERNS_3varIlEE+0x160>)
 8001342:	4a1b      	ldr	r2, [pc, #108]	; (80013b0 <_ZN3gps11get_deg10e7ERNS_3varIlEE+0x15c>)
 8001344:	f002 f8f8 	bl	8003538 <__aeabi_dmul>
 8001348:	1c06      	adds	r6, r0, #0
 800134a:	b220      	sxth	r0, r4
 800134c:	1c0f      	adds	r7, r1, #0
 800134e:	f002 fb99 	bl	8003a84 <__aeabi_i2d>
 8001352:	4a19      	ldr	r2, [pc, #100]	; (80013b8 <_ZN3gps11get_deg10e7ERNS_3varIlEE+0x164>)
 8001354:	4b19      	ldr	r3, [pc, #100]	; (80013bc <_ZN3gps11get_deg10e7ERNS_3varIlEE+0x168>)
 8001356:	f002 f8ef 	bl	8003538 <__aeabi_dmul>
 800135a:	1c04      	adds	r4, r0, #0
 800135c:	4668      	mov	r0, sp
 800135e:	2200      	movs	r2, #0
 8001360:	5e80      	ldrsh	r0, [r0, r2]
 8001362:	1c0d      	adds	r5, r1, #0
 8001364:	f002 fb8e 	bl	8003a84 <__aeabi_i2d>
 8001368:	4a15      	ldr	r2, [pc, #84]	; (80013c0 <_ZN3gps11get_deg10e7ERNS_3varIlEE+0x16c>)
 800136a:	4b16      	ldr	r3, [pc, #88]	; (80013c4 <_ZN3gps11get_deg10e7ERNS_3varIlEE+0x170>)
 800136c:	f002 f8e4 	bl	8003538 <__aeabi_dmul>
 8001370:	1c02      	adds	r2, r0, #0
 8001372:	1c0b      	adds	r3, r1, #0
 8001374:	1c20      	adds	r0, r4, #0
 8001376:	1c29      	adds	r1, r5, #0
 8001378:	f001 fa52 	bl	8002820 <__aeabi_dadd>
 800137c:	4a12      	ldr	r2, [pc, #72]	; (80013c8 <_ZN3gps11get_deg10e7ERNS_3varIlEE+0x174>)
 800137e:	4b13      	ldr	r3, [pc, #76]	; (80013cc <_ZN3gps11get_deg10e7ERNS_3varIlEE+0x178>)
 8001380:	f001 fdfe 	bl	8002f80 <__aeabi_ddiv>
 8001384:	1c02      	adds	r2, r0, #0
 8001386:	1c0b      	adds	r3, r1, #0
 8001388:	1c30      	adds	r0, r6, #0
 800138a:	1c39      	adds	r1, r7, #0
 800138c:	f001 fa48 	bl	8002820 <__aeabi_dadd>
 8001390:	4a0f      	ldr	r2, [pc, #60]	; (80013d0 <_ZN3gps11get_deg10e7ERNS_3varIlEE+0x17c>)
 8001392:	4b10      	ldr	r3, [pc, #64]	; (80013d4 <_ZN3gps11get_deg10e7ERNS_3varIlEE+0x180>)
 8001394:	f001 fa44 	bl	8002820 <__aeabi_dadd>
 8001398:	f002 fb40 	bl	8003a1c <__aeabi_d2iz>
 800139c:	a905      	add	r1, sp, #20
 800139e:	9005      	str	r0, [sp, #20]
 80013a0:	9803      	ldr	r0, [sp, #12]
 80013a2:	f003 f96a 	bl	800467a <_ZN3gps3varIlEaSERKl>
 80013a6:	2001      	movs	r0, #1
 80013a8:	e000      	b.n	80013ac <_ZN3gps11get_deg10e7ERNS_3varIlEE+0x158>
 80013aa:	2000      	movs	r0, #0
 80013ac:	b007      	add	sp, #28
 80013ae:	bdf0      	pop	{r4, r5, r6, r7, pc}
 80013b0:	00000000 	.word	0x00000000
 80013b4:	416312d0 	.word	0x416312d0
 80013b8:	00000000 	.word	0x00000000
 80013bc:	412e8480 	.word	0x412e8480
 80013c0:	00000000 	.word	0x00000000
 80013c4:	40590000 	.word	0x40590000
 80013c8:	00000000 	.word	0x00000000
 80013cc:	40180000 	.word	0x40180000
 80013d0:	00000000 	.word	0x00000000
 80013d4:	3fe00000 	.word	0x3fe00000

080013d8 <_ZN3gps14get_LongtitudeEv>:
 80013d8:	b508      	push	{r3, lr}
 80013da:	1c01      	adds	r1, r0, #0
 80013dc:	312c      	adds	r1, #44	; 0x2c
 80013de:	f7ff ff39 	bl	8001254 <_ZN3gps11get_deg10e7ERNS_3varIlEE>
 80013e2:	bd08      	pop	{r3, pc}

080013e4 <_ZN3gps12get_LatitudeEv>:
 80013e4:	b508      	push	{r3, lr}
 80013e6:	1c01      	adds	r1, r0, #0
 80013e8:	3124      	adds	r1, #36	; 0x24
 80013ea:	f7ff ff33 	bl	8001254 <_ZN3gps11get_deg10e7ERNS_3varIlEE>
 80013ee:	bd08      	pop	{r3, pc}

080013f0 <_ZN3gps12get_altitudeEv>:
 80013f0:	b513      	push	{r0, r1, r4, lr}
 80013f2:	4669      	mov	r1, sp
 80013f4:	1c04      	adds	r4, r0, #0
 80013f6:	f7ff fd7e 	bl	8000ef6 <_ZN3gps9get_floatERf>
 80013fa:	2300      	movs	r3, #0
 80013fc:	4298      	cmp	r0, r3
 80013fe:	d00c      	beq.n	800141a <_ZN3gps12get_altitudeEv+0x2a>
 8001400:	4907      	ldr	r1, [pc, #28]	; (8001420 <_ZN3gps12get_altitudeEv+0x30>)
 8001402:	9800      	ldr	r0, [sp, #0]
 8001404:	f001 f814 	bl	8002430 <__aeabi_fmul>
 8001408:	f001 f942 	bl	8002690 <__aeabi_f2iz>
 800140c:	9001      	str	r0, [sp, #4]
 800140e:	1c20      	adds	r0, r4, #0
 8001410:	3034      	adds	r0, #52	; 0x34
 8001412:	a901      	add	r1, sp, #4
 8001414:	f003 f931 	bl	800467a <_ZN3gps3varIlEaSERKl>
 8001418:	2301      	movs	r3, #1
 800141a:	1c18      	adds	r0, r3, #0
 800141c:	bd16      	pop	{r1, r2, r4, pc}
 800141e:	46c0      	nop			; (mov r8, r8)
 8001420:	447a0000 	.word	0x447a0000

08001424 <_ZN3gps22get_sign_of_LongtitudeEv>:
 8001424:	b537      	push	{r0, r1, r2, r4, r5, lr}
 8001426:	1c04      	adds	r4, r0, #0
 8001428:	3004      	adds	r0, #4
 800142a:	f003 fc4d 	bl	8004cc8 <strlen>
 800142e:	1c05      	adds	r5, r0, #0
 8001430:	2000      	movs	r0, #0
 8001432:	2d01      	cmp	r5, #1
 8001434:	d10d      	bne.n	8001452 <_ZN3gps22get_sign_of_LongtitudeEv+0x2e>
 8001436:	7923      	ldrb	r3, [r4, #4]
 8001438:	2b45      	cmp	r3, #69	; 0x45
 800143a:	d009      	beq.n	8001450 <_ZN3gps22get_sign_of_LongtitudeEv+0x2c>
 800143c:	2b57      	cmp	r3, #87	; 0x57
 800143e:	d108      	bne.n	8001452 <_ZN3gps22get_sign_of_LongtitudeEv+0x2e>
 8001440:	6ae2      	ldr	r2, [r4, #44]	; 0x2c
 8001442:	a901      	add	r1, sp, #4
 8001444:	4250      	negs	r0, r2
 8001446:	9001      	str	r0, [sp, #4]
 8001448:	1c20      	adds	r0, r4, #0
 800144a:	302c      	adds	r0, #44	; 0x2c
 800144c:	f003 f915 	bl	800467a <_ZN3gps3varIlEaSERKl>
 8001450:	1c28      	adds	r0, r5, #0
 8001452:	bd3e      	pop	{r1, r2, r3, r4, r5, pc}

08001454 <_ZN3gps20get_sign_of_LatitudeEv>:
 8001454:	b537      	push	{r0, r1, r2, r4, r5, lr}
 8001456:	1c04      	adds	r4, r0, #0
 8001458:	3004      	adds	r0, #4
 800145a:	f003 fc35 	bl	8004cc8 <strlen>
 800145e:	1c05      	adds	r5, r0, #0
 8001460:	2000      	movs	r0, #0
 8001462:	2d01      	cmp	r5, #1
 8001464:	d10d      	bne.n	8001482 <_ZN3gps20get_sign_of_LatitudeEv+0x2e>
 8001466:	7923      	ldrb	r3, [r4, #4]
 8001468:	2b4e      	cmp	r3, #78	; 0x4e
 800146a:	d009      	beq.n	8001480 <_ZN3gps20get_sign_of_LatitudeEv+0x2c>
 800146c:	2b53      	cmp	r3, #83	; 0x53
 800146e:	d108      	bne.n	8001482 <_ZN3gps20get_sign_of_LatitudeEv+0x2e>
 8001470:	6a62      	ldr	r2, [r4, #36]	; 0x24
 8001472:	a901      	add	r1, sp, #4
 8001474:	4250      	negs	r0, r2
 8001476:	9001      	str	r0, [sp, #4]
 8001478:	1c20      	adds	r0, r4, #0
 800147a:	3024      	adds	r0, #36	; 0x24
 800147c:	f003 f8fd 	bl	800467a <_ZN3gps3varIlEaSERKl>
 8001480:	1c28      	adds	r0, r5, #0
 8001482:	bd3e      	pop	{r1, r2, r3, r4, r5, pc}

08001484 <_ZN3gps13get_sats_usedEv>:
 8001484:	b513      	push	{r0, r1, r4, lr}
 8001486:	a901      	add	r1, sp, #4
 8001488:	1c04      	adds	r4, r0, #0
 800148a:	f7ff fd18 	bl	8000ebe <_ZN3gps7get_intERl>
 800148e:	2300      	movs	r3, #0
 8001490:	4298      	cmp	r0, r3
 8001492:	d00a      	beq.n	80014aa <_ZN3gps13get_sats_usedEv+0x26>
 8001494:	9a01      	ldr	r2, [sp, #4]
 8001496:	2a7f      	cmp	r2, #127	; 0x7f
 8001498:	dc07      	bgt.n	80014aa <_ZN3gps13get_sats_usedEv+0x26>
 800149a:	4669      	mov	r1, sp
 800149c:	1c20      	adds	r0, r4, #0
 800149e:	3103      	adds	r1, #3
 80014a0:	303e      	adds	r0, #62	; 0x3e
 80014a2:	700a      	strb	r2, [r1, #0]
 80014a4:	f003 f8ee 	bl	8004684 <_ZN3gps3varIhEaSERKh>
 80014a8:	2301      	movs	r3, #1
 80014aa:	1c18      	adds	r0, r3, #0
 80014ac:	bd16      	pop	{r1, r2, r4, pc}

080014ae <_ZN3gps11do_checksumEv>:
 80014ae:	b5f8      	push	{r3, r4, r5, r6, r7, lr}
 80014b0:	1c07      	adds	r7, r0, #0
 80014b2:	f003 f909 	bl	80046c8 <_ZN4quan5stm3211serial_portINS0_5usart6moduleILm1073821696EEELj200ELj200ENS_3mcu3pinINS0_4gpio6moduleILm1207959552EEELm9EEENS6_IS9_Lm10EEEE3getEv>
 80014b6:	1c06      	adds	r6, r0, #0
 80014b8:	f003 f906 	bl	80046c8 <_ZN4quan5stm3211serial_portINS0_5usart6moduleILm1073821696EEELj200ELj200ENS_3mcu3pinINS0_4gpio6moduleILm1207959552EEELm9EEENS6_IS9_Lm10EEEE3getEv>
 80014bc:	1c05      	adds	r5, r0, #0
 80014be:	1c30      	adds	r0, r6, #0
 80014c0:	f003 fab8 	bl	8004a34 <isxdigit>
 80014c4:	2400      	movs	r4, #0
 80014c6:	42a0      	cmp	r0, r4
 80014c8:	d011      	beq.n	80014ee <_ZN3gps11do_checksumEv+0x40>
 80014ca:	1c28      	adds	r0, r5, #0
 80014cc:	f003 fab2 	bl	8004a34 <isxdigit>
 80014d0:	42a0      	cmp	r0, r4
 80014d2:	d00c      	beq.n	80014ee <_ZN3gps11do_checksumEv+0x40>
 80014d4:	1c30      	adds	r0, r6, #0
 80014d6:	f7ff fc71 	bl	8000dbc <_ZN3gps5chxdgEc>
 80014da:	1c04      	adds	r4, r0, #0
 80014dc:	1c28      	adds	r0, r5, #0
 80014de:	f7ff fc6d 	bl	8000dbc <_ZN3gps5chxdgEc>
 80014e2:	0121      	lsls	r1, r4, #4
 80014e4:	7dbb      	ldrb	r3, [r7, #22]
 80014e6:	4301      	orrs	r1, r0
 80014e8:	1acc      	subs	r4, r1, r3
 80014ea:	4266      	negs	r6, r4
 80014ec:	4174      	adcs	r4, r6
 80014ee:	1c20      	adds	r0, r4, #0
 80014f0:	bdf8      	pop	{r3, r4, r5, r6, r7, pc}

080014f2 <_ZN3gps11chksum_readEv>:
 80014f2:	b510      	push	{r4, lr}
 80014f4:	1c04      	adds	r4, r0, #0
 80014f6:	f003 f8e7 	bl	80046c8 <_ZN4quan5stm3211serial_portINS0_5usart6moduleILm1073821696EEELj200ELj200ENS_3mcu3pinINS0_4gpio6moduleILm1207959552EEELm9EEENS6_IS9_Lm10EEEE3getEv>
 80014fa:	7da3      	ldrb	r3, [r4, #22]
 80014fc:	4043      	eors	r3, r0
 80014fe:	75a3      	strb	r3, [r4, #22]
 8001500:	bd10      	pop	{r4, pc}

08001502 <_ZN3gps15in_command_wordEv>:
 8001502:	b573      	push	{r0, r1, r4, r5, r6, lr}
 8001504:	1c04      	adds	r4, r0, #0
 8001506:	f003 f8c3 	bl	8004690 <_ZN4quan5stm3211serial_portINS0_5usart6moduleILm1073821696EEELj200ELj200ENS_3mcu3pinINS0_4gpio6moduleILm1207959552EEELm9EEENS6_IS9_Lm10EEEE8in_availEv>
 800150a:	2800      	cmp	r0, #0
 800150c:	d027      	beq.n	800155e <_ZN3gps15in_command_wordEv+0x5c>
 800150e:	1c20      	adds	r0, r4, #0
 8001510:	f7ff ffef 	bl	80014f2 <_ZN3gps11chksum_readEv>
 8001514:	1c06      	adds	r6, r0, #0
 8001516:	f003 fa83 	bl	8004a20 <isalnum>
 800151a:	1e05      	subs	r5, r0, #0
 800151c:	d00a      	beq.n	8001534 <_ZN3gps15in_command_wordEv+0x32>
 800151e:	6921      	ldr	r1, [r4, #16]
 8001520:	1865      	adds	r5, r4, r1
 8001522:	3101      	adds	r1, #1
 8001524:	712e      	strb	r6, [r5, #4]
 8001526:	6121      	str	r1, [r4, #16]
 8001528:	290b      	cmp	r1, #11
 800152a:	d1ec      	bne.n	8001506 <_ZN3gps15in_command_wordEv+0x4>
 800152c:	1c20      	adds	r0, r4, #0
 800152e:	f7ff fca5 	bl	8000e7c <_ZN3gps5resetEv>
 8001532:	e014      	b.n	800155e <_ZN3gps15in_command_wordEv+0x5c>
 8001534:	2e2c      	cmp	r6, #44	; 0x2c
 8001536:	d1f9      	bne.n	800152c <_ZN3gps15in_command_wordEv+0x2a>
 8001538:	6920      	ldr	r0, [r4, #16]
 800153a:	82a5      	strh	r5, [r4, #20]
 800153c:	1823      	adds	r3, r4, r0
 800153e:	711d      	strb	r5, [r3, #4]
 8001540:	6125      	str	r5, [r4, #16]
 8001542:	73e5      	strb	r5, [r4, #15]
 8001544:	1c20      	adds	r0, r4, #0
 8001546:	f7ff fc56 	bl	8000df6 <_ZN3gps14get_field_infoEv>
 800154a:	61a0      	str	r0, [r4, #24]
 800154c:	2800      	cmp	r0, #0
 800154e:	d0ed      	beq.n	800152c <_ZN3gps15in_command_wordEv+0x2a>
 8001550:	4a03      	ldr	r2, [pc, #12]	; (8001560 <_ZN3gps15in_command_wordEv+0x5e>)
 8001552:	466e      	mov	r6, sp
 8001554:	9200      	str	r2, [sp, #0]
 8001556:	9501      	str	r5, [sp, #4]
 8001558:	34b0      	adds	r4, #176	; 0xb0
 800155a:	ce03      	ldmia	r6!, {r0, r1}
 800155c:	c403      	stmia	r4!, {r0, r1}
 800155e:	bd73      	pop	{r0, r1, r4, r5, r6, pc}
 8001560:	080015cf 	.word	0x080015cf

08001564 <_ZN3gps12parse_buf_fnEMS_FbvE>:
 8001564:	b573      	push	{r0, r1, r4, r5, r6, lr}
 8001566:	1c04      	adds	r4, r0, #0
 8001568:	1c0d      	adds	r5, r1, #0
 800156a:	9100      	str	r1, [sp, #0]
 800156c:	1c16      	adds	r6, r2, #0
 800156e:	9201      	str	r2, [sp, #4]
 8001570:	f003 f88e 	bl	8004690 <_ZN4quan5stm3211serial_portINS0_5usart6moduleILm1073821696EEELj200ELj200ENS_3mcu3pinINS0_4gpio6moduleILm1207959552EEELm9EEENS6_IS9_Lm10EEEE8in_availEv>
 8001574:	2800      	cmp	r0, #0
 8001576:	d029      	beq.n	80015cc <_ZN3gps12parse_buf_fnEMS_FbvE+0x68>
 8001578:	f003 f8a6 	bl	80046c8 <_ZN4quan5stm3211serial_portINS0_5usart6moduleILm1073821696EEELj200ELj200ENS_3mcu3pinINS0_4gpio6moduleILm1207959552EEELm9EEENS6_IS9_Lm10EEEE3getEv>
 800157c:	6923      	ldr	r3, [r4, #16]
 800157e:	282a      	cmp	r0, #42	; 0x2a
 8001580:	d004      	beq.n	800158c <_ZN3gps12parse_buf_fnEMS_FbvE+0x28>
 8001582:	7da2      	ldrb	r2, [r4, #22]
 8001584:	4042      	eors	r2, r0
 8001586:	75a2      	strb	r2, [r4, #22]
 8001588:	282c      	cmp	r0, #44	; 0x2c
 800158a:	d10f      	bne.n	80015ac <_ZN3gps12parse_buf_fnEMS_FbvE+0x48>
 800158c:	73e0      	strb	r0, [r4, #15]
 800158e:	2200      	movs	r2, #0
 8001590:	18e0      	adds	r0, r4, r3
 8001592:	7102      	strb	r2, [r0, #4]
 8001594:	4293      	cmp	r3, r2
 8001596:	d010      	beq.n	80015ba <_ZN3gps12parse_buf_fnEMS_FbvE+0x56>
 8001598:	1071      	asrs	r1, r6, #1
 800159a:	07f3      	lsls	r3, r6, #31
 800159c:	d501      	bpl.n	80015a2 <_ZN3gps12parse_buf_fnEMS_FbvE+0x3e>
 800159e:	5866      	ldr	r6, [r4, r1]
 80015a0:	59ad      	ldr	r5, [r5, r6]
 80015a2:	1860      	adds	r0, r4, r1
 80015a4:	47a8      	blx	r5
 80015a6:	2800      	cmp	r0, #0
 80015a8:	d107      	bne.n	80015ba <_ZN3gps12parse_buf_fnEMS_FbvE+0x56>
 80015aa:	e00c      	b.n	80015c6 <_ZN3gps12parse_buf_fnEMS_FbvE+0x62>
 80015ac:	18e1      	adds	r1, r4, r3
 80015ae:	3301      	adds	r3, #1
 80015b0:	7108      	strb	r0, [r1, #4]
 80015b2:	6123      	str	r3, [r4, #16]
 80015b4:	2b0b      	cmp	r3, #11
 80015b6:	d1db      	bne.n	8001570 <_ZN3gps12parse_buf_fnEMS_FbvE+0xc>
 80015b8:	e005      	b.n	80015c6 <_ZN3gps12parse_buf_fnEMS_FbvE+0x62>
 80015ba:	8aa3      	ldrh	r3, [r4, #20]
 80015bc:	2000      	movs	r0, #0
 80015be:	3301      	adds	r3, #1
 80015c0:	82a3      	strh	r3, [r4, #20]
 80015c2:	6120      	str	r0, [r4, #16]
 80015c4:	e002      	b.n	80015cc <_ZN3gps12parse_buf_fnEMS_FbvE+0x68>
 80015c6:	1c20      	adds	r0, r4, #0
 80015c8:	f7ff fc58 	bl	8000e7c <_ZN3gps5resetEv>
 80015cc:	bd73      	pop	{r0, r1, r4, r5, r6, pc}

080015ce <_ZN3gps16parse_cmd_fieldsEv>:
 80015ce:	b510      	push	{r4, lr}
 80015d0:	7bc3      	ldrb	r3, [r0, #15]
 80015d2:	1c04      	adds	r4, r0, #0
 80015d4:	2b2a      	cmp	r3, #42	; 0x2a
 80015d6:	d10f      	bne.n	80015f8 <_ZN3gps16parse_cmd_fieldsEv+0x2a>
 80015d8:	f003 f85a 	bl	8004690 <_ZN4quan5stm3211serial_portINS0_5usart6moduleILm1073821696EEELj200ELj200ENS_3mcu3pinINS0_4gpio6moduleILm1207959552EEELm9EEENS6_IS9_Lm10EEEE8in_availEv>
 80015dc:	2801      	cmp	r0, #1
 80015de:	d918      	bls.n	8001612 <_ZN3gps16parse_cmd_fieldsEv+0x44>
 80015e0:	1c20      	adds	r0, r4, #0
 80015e2:	f7ff ff64 	bl	80014ae <_ZN3gps11do_checksumEv>
 80015e6:	2800      	cmp	r0, #0
 80015e8:	d002      	beq.n	80015f0 <_ZN3gps16parse_cmd_fieldsEv+0x22>
 80015ea:	1c20      	adds	r0, r4, #0
 80015ec:	f7ff fc40 	bl	8000e70 <_ZN3gps11update_varsEv>
 80015f0:	1c20      	adds	r0, r4, #0
 80015f2:	f7ff fc43 	bl	8000e7c <_ZN3gps5resetEv>
 80015f6:	e00c      	b.n	8001612 <_ZN3gps16parse_cmd_fieldsEv+0x44>
 80015f8:	69a2      	ldr	r2, [r4, #24]
 80015fa:	8a80      	ldrh	r0, [r0, #20]
 80015fc:	7a11      	ldrb	r1, [r2, #8]
 80015fe:	4281      	cmp	r1, r0
 8001600:	d9f6      	bls.n	80015f0 <_ZN3gps16parse_cmd_fieldsEv+0x22>
 8001602:	6852      	ldr	r2, [r2, #4]
 8001604:	00c3      	lsls	r3, r0, #3
 8001606:	1c20      	adds	r0, r4, #0
 8001608:	18d4      	adds	r4, r2, r3
 800160a:	5899      	ldr	r1, [r3, r2]
 800160c:	6862      	ldr	r2, [r4, #4]
 800160e:	f7ff ffa9 	bl	8001564 <_ZN3gps12parse_buf_fnEMS_FbvE>
 8001612:	bd10      	pop	{r4, pc}

08001614 <_ZN3gps11in_preambleEv>:
 8001614:	b513      	push	{r0, r1, r4, lr}
 8001616:	1c04      	adds	r4, r0, #0
 8001618:	f003 f83a 	bl	8004690 <_ZN4quan5stm3211serial_portINS0_5usart6moduleILm1073821696EEELj200ELj200ENS_3mcu3pinINS0_4gpio6moduleILm1207959552EEELm9EEENS6_IS9_Lm10EEEE8in_availEv>
 800161c:	2800      	cmp	r0, #0
 800161e:	d00d      	beq.n	800163c <_ZN3gps11in_preambleEv+0x28>
 8001620:	f003 f852 	bl	80046c8 <_ZN4quan5stm3211serial_portINS0_5usart6moduleILm1073821696EEELj200ELj200ENS_3mcu3pinINS0_4gpio6moduleILm1207959552EEELm9EEENS6_IS9_Lm10EEEE3getEv>
 8001624:	2824      	cmp	r0, #36	; 0x24
 8001626:	d1f7      	bne.n	8001618 <_ZN3gps11in_preambleEv+0x4>
 8001628:	4905      	ldr	r1, [pc, #20]	; (8001640 <_ZN3gps11in_preambleEv+0x2c>)
 800162a:	2200      	movs	r2, #0
 800162c:	1c20      	adds	r0, r4, #0
 800162e:	75a2      	strb	r2, [r4, #22]
 8001630:	466b      	mov	r3, sp
 8001632:	9100      	str	r1, [sp, #0]
 8001634:	9201      	str	r2, [sp, #4]
 8001636:	30b0      	adds	r0, #176	; 0xb0
 8001638:	cb12      	ldmia	r3!, {r1, r4}
 800163a:	c012      	stmia	r0!, {r1, r4}
 800163c:	bd13      	pop	{r0, r1, r4, pc}
 800163e:	46c0      	nop			; (mov r8, r8)
 8001640:	08001503 	.word	0x08001503

08001644 <_ZN3gps8get_dateEv>:
 8001644:	b513      	push	{r0, r1, r4, lr}
 8001646:	1c04      	adds	r4, r0, #0
 8001648:	3004      	adds	r0, #4
 800164a:	f003 fb3d 	bl	8004cc8 <strlen>
 800164e:	2200      	movs	r2, #0
 8001650:	1c13      	adds	r3, r2, #0
 8001652:	2806      	cmp	r0, #6
 8001654:	d117      	bne.n	8001686 <_ZN3gps8get_dateEv+0x42>
 8001656:	9201      	str	r2, [sp, #4]
 8001658:	18e1      	adds	r1, r4, r3
 800165a:	7908      	ldrb	r0, [r1, #4]
 800165c:	3830      	subs	r0, #48	; 0x30
 800165e:	2809      	cmp	r0, #9
 8001660:	d810      	bhi.n	8001684 <_ZN3gps8get_dateEv+0x40>
 8001662:	b2c1      	uxtb	r1, r0
 8001664:	0098      	lsls	r0, r3, #2
 8001666:	4240      	negs	r0, r0
 8001668:	3014      	adds	r0, #20
 800166a:	4081      	lsls	r1, r0
 800166c:	3301      	adds	r3, #1
 800166e:	430a      	orrs	r2, r1
 8001670:	2b06      	cmp	r3, #6
 8001672:	d1f1      	bne.n	8001658 <_ZN3gps8get_dateEv+0x14>
 8001674:	1c20      	adds	r0, r4, #0
 8001676:	3098      	adds	r0, #152	; 0x98
 8001678:	a901      	add	r1, sp, #4
 800167a:	9201      	str	r2, [sp, #4]
 800167c:	f003 f84e 	bl	800471c <_ZN3gps3varImEaSERKm>
 8001680:	2301      	movs	r3, #1
 8001682:	e000      	b.n	8001686 <_ZN3gps8get_dateEv+0x42>
 8001684:	2300      	movs	r3, #0
 8001686:	1c18      	adds	r0, r3, #0
 8001688:	bd16      	pop	{r1, r2, r4, pc}

0800168a <_ZN3gps12get_utc_timeEv>:
 800168a:	b5f7      	push	{r0, r1, r2, r4, r5, r6, r7, lr}
 800168c:	1c04      	adds	r4, r0, #0
 800168e:	3004      	adds	r0, #4
 8001690:	f003 fb1a 	bl	8004cc8 <strlen>
 8001694:	b207      	sxth	r7, r0
 8001696:	2300      	movs	r3, #0
 8001698:	2f05      	cmp	r7, #5
 800169a:	dc04      	bgt.n	80016a6 <_ZN3gps12get_utc_timeEv+0x1c>
 800169c:	2000      	movs	r0, #0
 800169e:	e047      	b.n	8001730 <_ZN3gps12get_utc_timeEv+0xa6>
 80016a0:	3301      	adds	r3, #1
 80016a2:	2b06      	cmp	r3, #6
 80016a4:	d005      	beq.n	80016b2 <_ZN3gps12get_utc_timeEv+0x28>
 80016a6:	18e2      	adds	r2, r4, r3
 80016a8:	7910      	ldrb	r0, [r2, #4]
 80016aa:	3830      	subs	r0, #48	; 0x30
 80016ac:	2809      	cmp	r0, #9
 80016ae:	d9f7      	bls.n	80016a0 <_ZN3gps12get_utc_timeEv+0x16>
 80016b0:	e7f4      	b.n	800169c <_ZN3gps12get_utc_timeEv+0x12>
 80016b2:	7a25      	ldrb	r5, [r4, #8]
 80016b4:	260a      	movs	r6, #10
 80016b6:	3d30      	subs	r5, #48	; 0x30
 80016b8:	b2e9      	uxtb	r1, r5
 80016ba:	4371      	muls	r1, r6
 80016bc:	7a63      	ldrb	r3, [r4, #9]
 80016be:	79a0      	ldrb	r0, [r4, #6]
 80016c0:	3b30      	subs	r3, #48	; 0x30
 80016c2:	b2da      	uxtb	r2, r3
 80016c4:	3830      	subs	r0, #48	; 0x30
 80016c6:	188d      	adds	r5, r1, r2
 80016c8:	b2c1      	uxtb	r1, r0
 80016ca:	4371      	muls	r1, r6
 80016cc:	79e3      	ldrb	r3, [r4, #7]
 80016ce:	3f07      	subs	r7, #7
 80016d0:	3b30      	subs	r3, #48	; 0x30
 80016d2:	b2da      	uxtb	r2, r3
 80016d4:	1888      	adds	r0, r1, r2
 80016d6:	7921      	ldrb	r1, [r4, #4]
 80016d8:	7962      	ldrb	r2, [r4, #5]
 80016da:	3930      	subs	r1, #48	; 0x30
 80016dc:	b2cb      	uxtb	r3, r1
 80016de:	435e      	muls	r6, r3
 80016e0:	3a30      	subs	r2, #48	; 0x30
 80016e2:	b2d1      	uxtb	r1, r2
 80016e4:	1876      	adds	r6, r6, r1
 80016e6:	223c      	movs	r2, #60	; 0x3c
 80016e8:	4356      	muls	r6, r2
 80016ea:	1980      	adds	r0, r0, r6
 80016ec:	b283      	uxth	r3, r0
 80016ee:	435a      	muls	r2, r3
 80016f0:	18a9      	adds	r1, r5, r2
 80016f2:	25fa      	movs	r5, #250	; 0xfa
 80016f4:	00ad      	lsls	r5, r5, #2
 80016f6:	434d      	muls	r5, r1
 80016f8:	9501      	str	r5, [sp, #4]
 80016fa:	2f03      	cmp	r7, #3
 80016fc:	dd00      	ble.n	8001700 <_ZN3gps12get_utc_timeEv+0x76>
 80016fe:	2703      	movs	r7, #3
 8001700:	1c26      	adds	r6, r4, #0
 8001702:	2064      	movs	r0, #100	; 0x64
 8001704:	1b32      	subs	r2, r6, r4
 8001706:	42ba      	cmp	r2, r7
 8001708:	da0b      	bge.n	8001722 <_ZN3gps12get_utc_timeEv+0x98>
 800170a:	7af3      	ldrb	r3, [r6, #11]
 800170c:	3601      	adds	r6, #1
 800170e:	3b30      	subs	r3, #48	; 0x30
 8001710:	2b09      	cmp	r3, #9
 8001712:	d8c3      	bhi.n	800169c <_ZN3gps12get_utc_timeEv+0x12>
 8001714:	b2d9      	uxtb	r1, r3
 8001716:	4341      	muls	r1, r0
 8001718:	186d      	adds	r5, r5, r1
 800171a:	210a      	movs	r1, #10
 800171c:	f000 f9d8 	bl	8001ad0 <__aeabi_idiv>
 8001720:	e7f0      	b.n	8001704 <_ZN3gps12get_utc_timeEv+0x7a>
 8001722:	1c20      	adds	r0, r4, #0
 8001724:	301c      	adds	r0, #28
 8001726:	a901      	add	r1, sp, #4
 8001728:	9501      	str	r5, [sp, #4]
 800172a:	f002 fff7 	bl	800471c <_ZN3gps3varImEaSERKm>
 800172e:	2001      	movs	r0, #1
 8001730:	bdfe      	pop	{r1, r2, r3, r4, r5, r6, r7, pc}

08001732 <_ZN3gps13get_mode_2D3DEv>:
 8001732:	b537      	push	{r0, r1, r2, r4, r5, lr}
 8001734:	1c05      	adds	r5, r0, #0
 8001736:	3004      	adds	r0, #4
 8001738:	f003 fac6 	bl	8004cc8 <strlen>
 800173c:	1c04      	adds	r4, r0, #0
 800173e:	2000      	movs	r0, #0
 8001740:	2c01      	cmp	r4, #1
 8001742:	d110      	bne.n	8001766 <_ZN3gps13get_mode_2D3DEv+0x34>
 8001744:	792b      	ldrb	r3, [r5, #4]
 8001746:	2b4d      	cmp	r3, #77	; 0x4d
 8001748:	d103      	bne.n	8001752 <_ZN3gps13get_mode_2D3DEv+0x20>
 800174a:	4669      	mov	r1, sp
 800174c:	3107      	adds	r1, #7
 800174e:	7008      	strb	r0, [r1, #0]
 8001750:	e004      	b.n	800175c <_ZN3gps13get_mode_2D3DEv+0x2a>
 8001752:	2b41      	cmp	r3, #65	; 0x41
 8001754:	d107      	bne.n	8001766 <_ZN3gps13get_mode_2D3DEv+0x34>
 8001756:	4669      	mov	r1, sp
 8001758:	3107      	adds	r1, #7
 800175a:	700c      	strb	r4, [r1, #0]
 800175c:	1c28      	adds	r0, r5, #0
 800175e:	3060      	adds	r0, #96	; 0x60
 8001760:	f002 ffe2 	bl	8004728 <_ZN3gps3varINS_9mode_2D3DEEaSERKS1_>
 8001764:	1c20      	adds	r0, r4, #0
 8001766:	bd3e      	pop	{r1, r2, r3, r4, r5, pc}

08001768 <_ZN3gps12get_vtg_modeEv>:
 8001768:	b537      	push	{r0, r1, r2, r4, r5, lr}
 800176a:	1c05      	adds	r5, r0, #0
 800176c:	3004      	adds	r0, #4
 800176e:	f003 faab 	bl	8004cc8 <strlen>
 8001772:	1c04      	adds	r4, r0, #0
 8001774:	2000      	movs	r0, #0
 8001776:	2c01      	cmp	r4, #1
 8001778:	d117      	bne.n	80017aa <_ZN3gps12get_vtg_modeEv+0x42>
 800177a:	792b      	ldrb	r3, [r5, #4]
 800177c:	2b41      	cmp	r3, #65	; 0x41
 800177e:	d103      	bne.n	8001788 <_ZN3gps12get_vtg_modeEv+0x20>
 8001780:	4669      	mov	r1, sp
 8001782:	3107      	adds	r1, #7
 8001784:	7008      	strb	r0, [r1, #0]
 8001786:	e00b      	b.n	80017a0 <_ZN3gps12get_vtg_modeEv+0x38>
 8001788:	2b44      	cmp	r3, #68	; 0x44
 800178a:	d103      	bne.n	8001794 <_ZN3gps12get_vtg_modeEv+0x2c>
 800178c:	4669      	mov	r1, sp
 800178e:	3107      	adds	r1, #7
 8001790:	700c      	strb	r4, [r1, #0]
 8001792:	e005      	b.n	80017a0 <_ZN3gps12get_vtg_modeEv+0x38>
 8001794:	2b45      	cmp	r3, #69	; 0x45
 8001796:	d108      	bne.n	80017aa <_ZN3gps12get_vtg_modeEv+0x42>
 8001798:	4669      	mov	r1, sp
 800179a:	3107      	adds	r1, #7
 800179c:	2002      	movs	r0, #2
 800179e:	7008      	strb	r0, [r1, #0]
 80017a0:	1c28      	adds	r0, r5, #0
 80017a2:	3062      	adds	r0, #98	; 0x62
 80017a4:	f002 ffc5 	bl	8004732 <_ZN3gps3varINS_8fix_modeEEaSERKS1_>
 80017a8:	1c20      	adds	r0, r4, #0
 80017aa:	bd3e      	pop	{r1, r2, r3, r4, r5, pc}

080017ac <_ZN3gps12get_fix_modeEv>:
 80017ac:	b537      	push	{r0, r1, r2, r4, r5, lr}
 80017ae:	1c05      	adds	r5, r0, #0
 80017b0:	3004      	adds	r0, #4
 80017b2:	f003 fa89 	bl	8004cc8 <strlen>
 80017b6:	1c04      	adds	r4, r0, #0
 80017b8:	2000      	movs	r0, #0
 80017ba:	2c01      	cmp	r4, #1
 80017bc:	d117      	bne.n	80017ee <_ZN3gps12get_fix_modeEv+0x42>
 80017be:	792b      	ldrb	r3, [r5, #4]
 80017c0:	2b31      	cmp	r3, #49	; 0x31
 80017c2:	d103      	bne.n	80017cc <_ZN3gps12get_fix_modeEv+0x20>
 80017c4:	4669      	mov	r1, sp
 80017c6:	3107      	adds	r1, #7
 80017c8:	7008      	strb	r0, [r1, #0]
 80017ca:	e00b      	b.n	80017e4 <_ZN3gps12get_fix_modeEv+0x38>
 80017cc:	2b32      	cmp	r3, #50	; 0x32
 80017ce:	d103      	bne.n	80017d8 <_ZN3gps12get_fix_modeEv+0x2c>
 80017d0:	4669      	mov	r1, sp
 80017d2:	3107      	adds	r1, #7
 80017d4:	700c      	strb	r4, [r1, #0]
 80017d6:	e005      	b.n	80017e4 <_ZN3gps12get_fix_modeEv+0x38>
 80017d8:	2b33      	cmp	r3, #51	; 0x33
 80017da:	d108      	bne.n	80017ee <_ZN3gps12get_fix_modeEv+0x42>
 80017dc:	4669      	mov	r1, sp
 80017de:	3107      	adds	r1, #7
 80017e0:	2002      	movs	r0, #2
 80017e2:	7008      	strb	r0, [r1, #0]
 80017e4:	1c28      	adds	r0, r5, #0
 80017e6:	3062      	adds	r0, #98	; 0x62
 80017e8:	f002 ffa3 	bl	8004732 <_ZN3gps3varINS_8fix_modeEEaSERKS1_>
 80017ec:	1c20      	adds	r0, r4, #0
 80017ee:	bd3e      	pop	{r1, r2, r3, r4, r5, pc}

080017f0 <_ZN3gps26get_position_fix_indicatorEv>:
 80017f0:	b537      	push	{r0, r1, r2, r4, r5, lr}
 80017f2:	466d      	mov	r5, sp
 80017f4:	3506      	adds	r5, #6
 80017f6:	1c29      	adds	r1, r5, #0
 80017f8:	1c04      	adds	r4, r0, #0
 80017fa:	f7ff fb4f 	bl	8000e9c <_ZN3gps9get_digitERa>
 80017fe:	2100      	movs	r1, #0
 8001800:	4288      	cmp	r0, r1
 8001802:	d014      	beq.n	800182e <_ZN3gps26get_position_fix_indicatorEv+0x3e>
 8001804:	782a      	ldrb	r2, [r5, #0]
 8001806:	b250      	sxtb	r0, r2
 8001808:	2801      	cmp	r0, #1
 800180a:	d003      	beq.n	8001814 <_ZN3gps26get_position_fix_indicatorEv+0x24>
 800180c:	2803      	cmp	r0, #3
 800180e:	d005      	beq.n	800181c <_ZN3gps26get_position_fix_indicatorEv+0x2c>
 8001810:	4288      	cmp	r0, r1
 8001812:	d10c      	bne.n	800182e <_ZN3gps26get_position_fix_indicatorEv+0x3e>
 8001814:	4669      	mov	r1, sp
 8001816:	3107      	adds	r1, #7
 8001818:	700a      	strb	r2, [r1, #0]
 800181a:	e003      	b.n	8001824 <_ZN3gps26get_position_fix_indicatorEv+0x34>
 800181c:	4669      	mov	r1, sp
 800181e:	3107      	adds	r1, #7
 8001820:	2302      	movs	r3, #2
 8001822:	700b      	strb	r3, [r1, #0]
 8001824:	1c20      	adds	r0, r4, #0
 8001826:	303c      	adds	r0, #60	; 0x3c
 8001828:	f002 ff89 	bl	800473e <_ZN3gps3varINS_8fix_typeEEaSERKS1_>
 800182c:	2101      	movs	r1, #1
 800182e:	1c08      	adds	r0, r1, #0
 8001830:	bd3e      	pop	{r1, r2, r3, r4, r5, pc}
 8001832:	46c0      	nop			; (mov r8, r8)
 8001834:	46c0      	nop			; (mov r8, r8)
 8001836:	46c0      	nop			; (mov r8, r8)

08001838 <_ZN12_GLOBAL__N_16on_gpsER3gps>:
 8001838:	1c03      	adds	r3, r0, #0
 800183a:	3328      	adds	r3, #40	; 0x28
 800183c:	781a      	ldrb	r2, [r3, #0]
 800183e:	2a00      	cmp	r2, #0
 8001840:	d007      	beq.n	8001852 <_ZN12_GLOBAL__N_16on_gpsER3gps+0x1a>
 8001842:	6a41      	ldr	r1, [r0, #36]	; 0x24
 8001844:	4a20      	ldr	r2, [pc, #128]	; (80018c8 <_ZN12_GLOBAL__N_16on_gpsER3gps+0x90>)
 8001846:	6091      	str	r1, [r2, #8]
 8001848:	2200      	movs	r2, #0
 800184a:	701a      	strb	r2, [r3, #0]
 800184c:	4b1f      	ldr	r3, [pc, #124]	; (80018cc <_ZN12_GLOBAL__N_16on_gpsER3gps+0x94>)
 800184e:	2101      	movs	r1, #1
 8001850:	7019      	strb	r1, [r3, #0]
 8001852:	1c03      	adds	r3, r0, #0
 8001854:	3330      	adds	r3, #48	; 0x30
 8001856:	781a      	ldrb	r2, [r3, #0]
 8001858:	2a00      	cmp	r2, #0
 800185a:	d007      	beq.n	800186c <_ZN12_GLOBAL__N_16on_gpsER3gps+0x34>
 800185c:	6ac1      	ldr	r1, [r0, #44]	; 0x2c
 800185e:	4a1a      	ldr	r2, [pc, #104]	; (80018c8 <_ZN12_GLOBAL__N_16on_gpsER3gps+0x90>)
 8001860:	60d1      	str	r1, [r2, #12]
 8001862:	2200      	movs	r2, #0
 8001864:	701a      	strb	r2, [r3, #0]
 8001866:	4b19      	ldr	r3, [pc, #100]	; (80018cc <_ZN12_GLOBAL__N_16on_gpsER3gps+0x94>)
 8001868:	2101      	movs	r1, #1
 800186a:	7019      	strb	r1, [r3, #0]
 800186c:	1c03      	adds	r3, r0, #0
 800186e:	333d      	adds	r3, #61	; 0x3d
 8001870:	781a      	ldrb	r2, [r3, #0]
 8001872:	2a00      	cmp	r2, #0
 8001874:	d00a      	beq.n	800188c <_ZN12_GLOBAL__N_16on_gpsER3gps+0x54>
 8001876:	1c01      	adds	r1, r0, #0
 8001878:	313c      	adds	r1, #60	; 0x3c
 800187a:	4a13      	ldr	r2, [pc, #76]	; (80018c8 <_ZN12_GLOBAL__N_16on_gpsER3gps+0x90>)
 800187c:	7809      	ldrb	r1, [r1, #0]
 800187e:	3250      	adds	r2, #80	; 0x50
 8001880:	7011      	strb	r1, [r2, #0]
 8001882:	2100      	movs	r1, #0
 8001884:	7019      	strb	r1, [r3, #0]
 8001886:	4b11      	ldr	r3, [pc, #68]	; (80018cc <_ZN12_GLOBAL__N_16on_gpsER3gps+0x94>)
 8001888:	2201      	movs	r2, #1
 800188a:	701a      	strb	r2, [r3, #0]
 800188c:	1c01      	adds	r1, r0, #0
 800188e:	313f      	adds	r1, #63	; 0x3f
 8001890:	780a      	ldrb	r2, [r1, #0]
 8001892:	2a00      	cmp	r2, #0
 8001894:	d00a      	beq.n	80018ac <_ZN12_GLOBAL__N_16on_gpsER3gps+0x74>
 8001896:	1c03      	adds	r3, r0, #0
 8001898:	333e      	adds	r3, #62	; 0x3e
 800189a:	4a0b      	ldr	r2, [pc, #44]	; (80018c8 <_ZN12_GLOBAL__N_16on_gpsER3gps+0x90>)
 800189c:	7819      	ldrb	r1, [r3, #0]
 800189e:	324f      	adds	r2, #79	; 0x4f
 80018a0:	7011      	strb	r1, [r2, #0]
 80018a2:	2100      	movs	r1, #0
 80018a4:	7059      	strb	r1, [r3, #1]
 80018a6:	4b09      	ldr	r3, [pc, #36]	; (80018cc <_ZN12_GLOBAL__N_16on_gpsER3gps+0x94>)
 80018a8:	2201      	movs	r2, #1
 80018aa:	701a      	strb	r2, [r3, #0]
 80018ac:	1c03      	adds	r3, r0, #0
 80018ae:	3338      	adds	r3, #56	; 0x38
 80018b0:	7819      	ldrb	r1, [r3, #0]
 80018b2:	2900      	cmp	r1, #0
 80018b4:	d007      	beq.n	80018c6 <_ZN12_GLOBAL__N_16on_gpsER3gps+0x8e>
 80018b6:	6b40      	ldr	r0, [r0, #52]	; 0x34
 80018b8:	4a03      	ldr	r2, [pc, #12]	; (80018c8 <_ZN12_GLOBAL__N_16on_gpsER3gps+0x90>)
 80018ba:	2100      	movs	r1, #0
 80018bc:	7019      	strb	r1, [r3, #0]
 80018be:	4b03      	ldr	r3, [pc, #12]	; (80018cc <_ZN12_GLOBAL__N_16on_gpsER3gps+0x94>)
 80018c0:	6150      	str	r0, [r2, #20]
 80018c2:	2001      	movs	r0, #1
 80018c4:	7018      	strb	r0, [r3, #0]
 80018c6:	4770      	bx	lr
 80018c8:	20000520 	.word	0x20000520
 80018cc:	200006e8 	.word	0x200006e8

080018d0 <_Z9set_eventmP14periodic_event>:
 80018d0:	4b01      	ldr	r3, [pc, #4]	; (80018d8 <_Z9set_eventmP14periodic_event+0x8>)
 80018d2:	0080      	lsls	r0, r0, #2
 80018d4:	50c1      	str	r1, [r0, r3]
 80018d6:	4770      	bx	lr
 80018d8:	200007a4 	.word	0x200007a4

080018dc <_Z14do_event_ticksv>:
 80018dc:	b510      	push	{r4, lr}
 80018de:	4a0b      	ldr	r2, [pc, #44]	; (800190c <_Z14do_event_ticksv+0x30>)
 80018e0:	1c10      	adds	r0, r2, #0
 80018e2:	ca08      	ldmia	r2!, {r3}
 80018e4:	2b00      	cmp	r3, #0
 80018e6:	d00c      	beq.n	8001902 <_Z14do_event_ticksv+0x26>
 80018e8:	7b59      	ldrb	r1, [r3, #13]
 80018ea:	2900      	cmp	r1, #0
 80018ec:	d009      	beq.n	8001902 <_Z14do_event_ticksv+0x26>
 80018ee:	6819      	ldr	r1, [r3, #0]
 80018f0:	685c      	ldr	r4, [r3, #4]
 80018f2:	3101      	adds	r1, #1
 80018f4:	6019      	str	r1, [r3, #0]
 80018f6:	42a1      	cmp	r1, r4
 80018f8:	d303      	bcc.n	8001902 <_Z14do_event_ticksv+0x26>
 80018fa:	2101      	movs	r1, #1
 80018fc:	2400      	movs	r4, #0
 80018fe:	7319      	strb	r1, [r3, #12]
 8001900:	601c      	str	r4, [r3, #0]
 8001902:	1c03      	adds	r3, r0, #0
 8001904:	330c      	adds	r3, #12
 8001906:	429a      	cmp	r2, r3
 8001908:	d1eb      	bne.n	80018e2 <_Z14do_event_ticksv+0x6>
 800190a:	bd10      	pop	{r4, pc}
 800190c:	200007a4 	.word	0x200007a4

08001910 <_Z14service_eventsv>:
 8001910:	b538      	push	{r3, r4, r5, lr}
 8001912:	4c0a      	ldr	r4, [pc, #40]	; (800193c <_Z14service_eventsv+0x2c>)
 8001914:	1c25      	adds	r5, r4, #0
 8001916:	cc08      	ldmia	r4!, {r3}
 8001918:	2b00      	cmp	r3, #0
 800191a:	d009      	beq.n	8001930 <_Z14service_eventsv+0x20>
 800191c:	7b5a      	ldrb	r2, [r3, #13]
 800191e:	2a00      	cmp	r2, #0
 8001920:	d006      	beq.n	8001930 <_Z14service_eventsv+0x20>
 8001922:	7b18      	ldrb	r0, [r3, #12]
 8001924:	2800      	cmp	r0, #0
 8001926:	d003      	beq.n	8001930 <_Z14service_eventsv+0x20>
 8001928:	2100      	movs	r1, #0
 800192a:	7319      	strb	r1, [r3, #12]
 800192c:	689b      	ldr	r3, [r3, #8]
 800192e:	4798      	blx	r3
 8001930:	1c2a      	adds	r2, r5, #0
 8001932:	320c      	adds	r2, #12
 8001934:	4294      	cmp	r4, r2
 8001936:	d1ee      	bne.n	8001916 <_Z14service_eventsv+0x6>
 8001938:	bd38      	pop	{r3, r4, r5, pc}
 800193a:	46c0      	nop			; (mov r8, r8)
 800193c:	200007a4 	.word	0x200007a4

08001940 <_Z16on_new_heartbeatv>:
 8001940:	b508      	push	{r3, lr}
 8001942:	f7fe ff49 	bl	80007d8 <_Z18get_num_heartbeatsv>
 8001946:	4b0b      	ldr	r3, [pc, #44]	; (8001974 <_Z16on_new_heartbeatv+0x34>)
 8001948:	681a      	ldr	r2, [r3, #0]
 800194a:	4290      	cmp	r0, r2
 800194c:	d910      	bls.n	8001970 <_Z16on_new_heartbeatv+0x30>
 800194e:	4a0a      	ldr	r2, [pc, #40]	; (8001978 <_Z16on_new_heartbeatv+0x38>)
 8001950:	6018      	str	r0, [r3, #0]
 8001952:	6950      	ldr	r0, [r2, #20]
 8001954:	2180      	movs	r1, #128	; 0x80
 8001956:	0049      	lsls	r1, r1, #1
 8001958:	4301      	orrs	r1, r0
 800195a:	6151      	str	r1, [r2, #20]
 800195c:	2280      	movs	r2, #128	; 0x80
 800195e:	4907      	ldr	r1, [pc, #28]	; (800197c <_Z16on_new_heartbeatv+0x3c>)
 8001960:	0610      	lsls	r0, r2, #24
 8001962:	67c8      	str	r0, [r1, #124]	; 0x7c
 8001964:	4906      	ldr	r1, [pc, #24]	; (8001980 <_Z16on_new_heartbeatv+0x40>)
 8001966:	22fa      	movs	r2, #250	; 0xfa
 8001968:	609a      	str	r2, [r3, #8]
 800196a:	60d9      	str	r1, [r3, #12]
 800196c:	4b05      	ldr	r3, [pc, #20]	; (8001984 <_Z16on_new_heartbeatv+0x44>)
 800196e:	6018      	str	r0, [r3, #0]
 8001970:	bd08      	pop	{r3, pc}
 8001972:	46c0      	nop			; (mov r8, r8)
 8001974:	200007b0 	.word	0x200007b0
 8001978:	48000800 	.word	0x48000800
 800197c:	e000e104 	.word	0xe000e104
 8001980:	08001989 	.word	0x08001989
 8001984:	e000e100 	.word	0xe000e100

08001988 <_Z17on_heartbeat_donev>:
 8001988:	4b08      	ldr	r3, [pc, #32]	; (80019ac <_Z17on_heartbeat_donev+0x24>)
 800198a:	4a09      	ldr	r2, [pc, #36]	; (80019b0 <_Z17on_heartbeat_donev+0x28>)
 800198c:	6959      	ldr	r1, [r3, #20]
 800198e:	400a      	ands	r2, r1
 8001990:	615a      	str	r2, [r3, #20]
 8001992:	4b08      	ldr	r3, [pc, #32]	; (80019b4 <_Z17on_heartbeat_donev+0x2c>)
 8001994:	2180      	movs	r1, #128	; 0x80
 8001996:	060a      	lsls	r2, r1, #24
 8001998:	1d18      	adds	r0, r3, #4
 800199a:	4907      	ldr	r1, [pc, #28]	; (80019b8 <_Z17on_heartbeat_donev+0x30>)
 800199c:	67c2      	str	r2, [r0, #124]	; 0x7c
 800199e:	200a      	movs	r0, #10
 80019a0:	6088      	str	r0, [r1, #8]
 80019a2:	4806      	ldr	r0, [pc, #24]	; (80019bc <_Z17on_heartbeat_donev+0x34>)
 80019a4:	60c8      	str	r0, [r1, #12]
 80019a6:	601a      	str	r2, [r3, #0]
 80019a8:	4770      	bx	lr
 80019aa:	46c0      	nop			; (mov r8, r8)
 80019ac:	48000800 	.word	0x48000800
 80019b0:	fffffeff 	.word	0xfffffeff
 80019b4:	e000e100 	.word	0xe000e100
 80019b8:	200007b0 	.word	0x200007b0
 80019bc:	08001941 	.word	0x08001941

080019c0 <_Z21setup_heartbeat_eventv>:
 80019c0:	4b0d      	ldr	r3, [pc, #52]	; (80019f8 <_Z21setup_heartbeat_eventv+0x38>)
 80019c2:	b507      	push	{r0, r1, r2, lr}
 80019c4:	6959      	ldr	r1, [r3, #20]
 80019c6:	2280      	movs	r2, #128	; 0x80
 80019c8:	0310      	lsls	r0, r2, #12
 80019ca:	4308      	orrs	r0, r1
 80019cc:	6158      	str	r0, [r3, #20]
 80019ce:	4b0b      	ldr	r3, [pc, #44]	; (80019fc <_Z21setup_heartbeat_eventv+0x3c>)
 80019d0:	4a0b      	ldr	r2, [pc, #44]	; (8001a00 <_Z21setup_heartbeat_eventv+0x40>)
 80019d2:	6819      	ldr	r1, [r3, #0]
 80019d4:	2080      	movs	r0, #128	; 0x80
 80019d6:	400a      	ands	r2, r1
 80019d8:	0241      	lsls	r1, r0, #9
 80019da:	430a      	orrs	r2, r1
 80019dc:	601a      	str	r2, [r3, #0]
 80019de:	6858      	ldr	r0, [r3, #4]
 80019e0:	4a08      	ldr	r2, [pc, #32]	; (8001a04 <_Z21setup_heartbeat_eventv+0x44>)
 80019e2:	4002      	ands	r2, r0
 80019e4:	605a      	str	r2, [r3, #4]
 80019e6:	a801      	add	r0, sp, #4
 80019e8:	f002 ff7e 	bl	80048e8 <_ZNK4quan4meta4impl27for_each_type_sequence_implINS0_13type_sequenceIINS_5stm3210periph_regINS4_4gpio6moduleILm1207961600EEELm8EmEENS5_IS8_Lm12EmEENS5_IS8_Lm16EmEENS5_IS8_Lm20EmEENS5_IS8_Lm24EmEENS5_IS8_Lm28EmEENS5_IS8_Lm32EmEENS5_IS8_Lm36EmEEEEENS4_6detail24apply_periph_reg_actionsIS8_NS3_IINSI_17periph_reg_actionINS5_IS8_Lm0EmEENS0_6bit_orELm65536EEENSK_ISL_NS0_7bit_andELm4294836223EEENSK_INS5_IS8_Lm4EmEESM_Lm0EEENSK_ISQ_SO_Lm4294967039EEENSK_ISA_SM_Lm0EEENSK_ISA_SO_Lm4294770687EEENSK_IS9_SM_Lm0EEENSK_IS9_SO_Lm4294770687EEENSK_ISC_SM_Lm256EEEEEEEELb1EvEclEv>
 80019ec:	4906      	ldr	r1, [pc, #24]	; (8001a08 <_Z21setup_heartbeat_eventv+0x48>)
 80019ee:	2002      	movs	r0, #2
 80019f0:	3104      	adds	r1, #4
 80019f2:	f7ff ff6d 	bl	80018d0 <_Z9set_eventmP14periodic_event>
 80019f6:	bd07      	pop	{r0, r1, r2, pc}
 80019f8:	40021000 	.word	0x40021000
 80019fc:	48000800 	.word	0x48000800
 8001a00:	fffcffff 	.word	0xfffcffff
 8001a04:	fffffeff 	.word	0xfffffeff
 8001a08:	200007b0 	.word	0x200007b0
 8001a0c:	08005440 	.word	0x08005440
 8001a10:	20000000 	.word	0x20000000
 8001a14:	20000460 	.word	0x20000460
 8001a18:	20000460 	.word	0x20000460
 8001a1c:	20000b14 	.word	0x20000b14

08001a20 <__gnu_thumb1_case_uqi>:
 8001a20:	b402      	push	{r1}
 8001a22:	4671      	mov	r1, lr
 8001a24:	0849      	lsrs	r1, r1, #1
 8001a26:	0049      	lsls	r1, r1, #1
 8001a28:	5c09      	ldrb	r1, [r1, r0]
 8001a2a:	0049      	lsls	r1, r1, #1
 8001a2c:	448e      	add	lr, r1
 8001a2e:	bc02      	pop	{r1}
 8001a30:	4770      	bx	lr
 8001a32:	46c0      	nop			; (mov r8, r8)

08001a34 <__aeabi_uidiv>:
 8001a34:	2900      	cmp	r1, #0
 8001a36:	d034      	beq.n	8001aa2 <.udivsi3_skip_div0_test+0x6a>

08001a38 <.udivsi3_skip_div0_test>:
 8001a38:	2301      	movs	r3, #1
 8001a3a:	2200      	movs	r2, #0
 8001a3c:	b410      	push	{r4}
 8001a3e:	4288      	cmp	r0, r1
 8001a40:	d32c      	bcc.n	8001a9c <.udivsi3_skip_div0_test+0x64>
 8001a42:	2401      	movs	r4, #1
 8001a44:	0724      	lsls	r4, r4, #28
 8001a46:	42a1      	cmp	r1, r4
 8001a48:	d204      	bcs.n	8001a54 <.udivsi3_skip_div0_test+0x1c>
 8001a4a:	4281      	cmp	r1, r0
 8001a4c:	d202      	bcs.n	8001a54 <.udivsi3_skip_div0_test+0x1c>
 8001a4e:	0109      	lsls	r1, r1, #4
 8001a50:	011b      	lsls	r3, r3, #4
 8001a52:	e7f8      	b.n	8001a46 <.udivsi3_skip_div0_test+0xe>
 8001a54:	00e4      	lsls	r4, r4, #3
 8001a56:	42a1      	cmp	r1, r4
 8001a58:	d204      	bcs.n	8001a64 <.udivsi3_skip_div0_test+0x2c>
 8001a5a:	4281      	cmp	r1, r0
 8001a5c:	d202      	bcs.n	8001a64 <.udivsi3_skip_div0_test+0x2c>
 8001a5e:	0049      	lsls	r1, r1, #1
 8001a60:	005b      	lsls	r3, r3, #1
 8001a62:	e7f8      	b.n	8001a56 <.udivsi3_skip_div0_test+0x1e>
 8001a64:	4288      	cmp	r0, r1
 8001a66:	d301      	bcc.n	8001a6c <.udivsi3_skip_div0_test+0x34>
 8001a68:	1a40      	subs	r0, r0, r1
 8001a6a:	431a      	orrs	r2, r3
 8001a6c:	084c      	lsrs	r4, r1, #1
 8001a6e:	42a0      	cmp	r0, r4
 8001a70:	d302      	bcc.n	8001a78 <.udivsi3_skip_div0_test+0x40>
 8001a72:	1b00      	subs	r0, r0, r4
 8001a74:	085c      	lsrs	r4, r3, #1
 8001a76:	4322      	orrs	r2, r4
 8001a78:	088c      	lsrs	r4, r1, #2
 8001a7a:	42a0      	cmp	r0, r4
 8001a7c:	d302      	bcc.n	8001a84 <.udivsi3_skip_div0_test+0x4c>
 8001a7e:	1b00      	subs	r0, r0, r4
 8001a80:	089c      	lsrs	r4, r3, #2
 8001a82:	4322      	orrs	r2, r4
 8001a84:	08cc      	lsrs	r4, r1, #3
 8001a86:	42a0      	cmp	r0, r4
 8001a88:	d302      	bcc.n	8001a90 <.udivsi3_skip_div0_test+0x58>
 8001a8a:	1b00      	subs	r0, r0, r4
 8001a8c:	08dc      	lsrs	r4, r3, #3
 8001a8e:	4322      	orrs	r2, r4
 8001a90:	2800      	cmp	r0, #0
 8001a92:	d003      	beq.n	8001a9c <.udivsi3_skip_div0_test+0x64>
 8001a94:	091b      	lsrs	r3, r3, #4
 8001a96:	d001      	beq.n	8001a9c <.udivsi3_skip_div0_test+0x64>
 8001a98:	0909      	lsrs	r1, r1, #4
 8001a9a:	e7e3      	b.n	8001a64 <.udivsi3_skip_div0_test+0x2c>
 8001a9c:	1c10      	adds	r0, r2, #0
 8001a9e:	bc10      	pop	{r4}
 8001aa0:	4770      	bx	lr
 8001aa2:	2800      	cmp	r0, #0
 8001aa4:	d001      	beq.n	8001aaa <.udivsi3_skip_div0_test+0x72>
 8001aa6:	2000      	movs	r0, #0
 8001aa8:	43c0      	mvns	r0, r0
 8001aaa:	b407      	push	{r0, r1, r2}
 8001aac:	4802      	ldr	r0, [pc, #8]	; (8001ab8 <.udivsi3_skip_div0_test+0x80>)
 8001aae:	a102      	add	r1, pc, #8	; (adr r1, 8001ab8 <.udivsi3_skip_div0_test+0x80>)
 8001ab0:	1840      	adds	r0, r0, r1
 8001ab2:	9002      	str	r0, [sp, #8]
 8001ab4:	bd03      	pop	{r0, r1, pc}
 8001ab6:	46c0      	nop			; (mov r8, r8)
 8001ab8:	000000d9 	.word	0x000000d9

08001abc <__aeabi_uidivmod>:
 8001abc:	2900      	cmp	r1, #0
 8001abe:	d0f0      	beq.n	8001aa2 <.udivsi3_skip_div0_test+0x6a>
 8001ac0:	b503      	push	{r0, r1, lr}
 8001ac2:	f7ff ffb9 	bl	8001a38 <.udivsi3_skip_div0_test>
 8001ac6:	bc0e      	pop	{r1, r2, r3}
 8001ac8:	4342      	muls	r2, r0
 8001aca:	1a89      	subs	r1, r1, r2
 8001acc:	4718      	bx	r3
 8001ace:	46c0      	nop			; (mov r8, r8)

08001ad0 <__aeabi_idiv>:
 8001ad0:	2900      	cmp	r1, #0
 8001ad2:	d041      	beq.n	8001b58 <.divsi3_skip_div0_test+0x84>

08001ad4 <.divsi3_skip_div0_test>:
 8001ad4:	b410      	push	{r4}
 8001ad6:	1c04      	adds	r4, r0, #0
 8001ad8:	404c      	eors	r4, r1
 8001ada:	46a4      	mov	ip, r4
 8001adc:	2301      	movs	r3, #1
 8001ade:	2200      	movs	r2, #0
 8001ae0:	2900      	cmp	r1, #0
 8001ae2:	d500      	bpl.n	8001ae6 <.divsi3_skip_div0_test+0x12>
 8001ae4:	4249      	negs	r1, r1
 8001ae6:	2800      	cmp	r0, #0
 8001ae8:	d500      	bpl.n	8001aec <.divsi3_skip_div0_test+0x18>
 8001aea:	4240      	negs	r0, r0
 8001aec:	4288      	cmp	r0, r1
 8001aee:	d32c      	bcc.n	8001b4a <.divsi3_skip_div0_test+0x76>
 8001af0:	2401      	movs	r4, #1
 8001af2:	0724      	lsls	r4, r4, #28
 8001af4:	42a1      	cmp	r1, r4
 8001af6:	d204      	bcs.n	8001b02 <.divsi3_skip_div0_test+0x2e>
 8001af8:	4281      	cmp	r1, r0
 8001afa:	d202      	bcs.n	8001b02 <.divsi3_skip_div0_test+0x2e>
 8001afc:	0109      	lsls	r1, r1, #4
 8001afe:	011b      	lsls	r3, r3, #4
 8001b00:	e7f8      	b.n	8001af4 <.divsi3_skip_div0_test+0x20>
 8001b02:	00e4      	lsls	r4, r4, #3
 8001b04:	42a1      	cmp	r1, r4
 8001b06:	d204      	bcs.n	8001b12 <.divsi3_skip_div0_test+0x3e>
 8001b08:	4281      	cmp	r1, r0
 8001b0a:	d202      	bcs.n	8001b12 <.divsi3_skip_div0_test+0x3e>
 8001b0c:	0049      	lsls	r1, r1, #1
 8001b0e:	005b      	lsls	r3, r3, #1
 8001b10:	e7f8      	b.n	8001b04 <.divsi3_skip_div0_test+0x30>
 8001b12:	4288      	cmp	r0, r1
 8001b14:	d301      	bcc.n	8001b1a <.divsi3_skip_div0_test+0x46>
 8001b16:	1a40      	subs	r0, r0, r1
 8001b18:	431a      	orrs	r2, r3
 8001b1a:	084c      	lsrs	r4, r1, #1
 8001b1c:	42a0      	cmp	r0, r4
 8001b1e:	d302      	bcc.n	8001b26 <.divsi3_skip_div0_test+0x52>
 8001b20:	1b00      	subs	r0, r0, r4
 8001b22:	085c      	lsrs	r4, r3, #1
 8001b24:	4322      	orrs	r2, r4
 8001b26:	088c      	lsrs	r4, r1, #2
 8001b28:	42a0      	cmp	r0, r4
 8001b2a:	d302      	bcc.n	8001b32 <.divsi3_skip_div0_test+0x5e>
 8001b2c:	1b00      	subs	r0, r0, r4
 8001b2e:	089c      	lsrs	r4, r3, #2
 8001b30:	4322      	orrs	r2, r4
 8001b32:	08cc      	lsrs	r4, r1, #3
 8001b34:	42a0      	cmp	r0, r4
 8001b36:	d302      	bcc.n	8001b3e <.divsi3_skip_div0_test+0x6a>
 8001b38:	1b00      	subs	r0, r0, r4
 8001b3a:	08dc      	lsrs	r4, r3, #3
 8001b3c:	4322      	orrs	r2, r4
 8001b3e:	2800      	cmp	r0, #0
 8001b40:	d003      	beq.n	8001b4a <.divsi3_skip_div0_test+0x76>
 8001b42:	091b      	lsrs	r3, r3, #4
 8001b44:	d001      	beq.n	8001b4a <.divsi3_skip_div0_test+0x76>
 8001b46:	0909      	lsrs	r1, r1, #4
 8001b48:	e7e3      	b.n	8001b12 <.divsi3_skip_div0_test+0x3e>
 8001b4a:	1c10      	adds	r0, r2, #0
 8001b4c:	4664      	mov	r4, ip
 8001b4e:	2c00      	cmp	r4, #0
 8001b50:	d500      	bpl.n	8001b54 <.divsi3_skip_div0_test+0x80>
 8001b52:	4240      	negs	r0, r0
 8001b54:	bc10      	pop	{r4}
 8001b56:	4770      	bx	lr
 8001b58:	2800      	cmp	r0, #0
 8001b5a:	d006      	beq.n	8001b6a <.divsi3_skip_div0_test+0x96>
 8001b5c:	db03      	blt.n	8001b66 <.divsi3_skip_div0_test+0x92>
 8001b5e:	2000      	movs	r0, #0
 8001b60:	43c0      	mvns	r0, r0
 8001b62:	0840      	lsrs	r0, r0, #1
 8001b64:	e001      	b.n	8001b6a <.divsi3_skip_div0_test+0x96>
 8001b66:	2080      	movs	r0, #128	; 0x80
 8001b68:	0600      	lsls	r0, r0, #24
 8001b6a:	b407      	push	{r0, r1, r2}
 8001b6c:	4802      	ldr	r0, [pc, #8]	; (8001b78 <.divsi3_skip_div0_test+0xa4>)
 8001b6e:	a102      	add	r1, pc, #8	; (adr r1, 8001b78 <.divsi3_skip_div0_test+0xa4>)
 8001b70:	1840      	adds	r0, r0, r1
 8001b72:	9002      	str	r0, [sp, #8]
 8001b74:	bd03      	pop	{r0, r1, pc}
 8001b76:	46c0      	nop			; (mov r8, r8)
 8001b78:	00000019 	.word	0x00000019

08001b7c <__aeabi_idivmod>:
 8001b7c:	2900      	cmp	r1, #0
 8001b7e:	d0eb      	beq.n	8001b58 <.divsi3_skip_div0_test+0x84>
 8001b80:	b503      	push	{r0, r1, lr}
 8001b82:	f7ff ffa7 	bl	8001ad4 <.divsi3_skip_div0_test>
 8001b86:	bc0e      	pop	{r1, r2, r3}
 8001b88:	4342      	muls	r2, r0
 8001b8a:	1a89      	subs	r1, r1, r2
 8001b8c:	4718      	bx	r3
 8001b8e:	46c0      	nop			; (mov r8, r8)

08001b90 <__aeabi_idiv0>:
 8001b90:	4770      	bx	lr
 8001b92:	46c0      	nop			; (mov r8, r8)

08001b94 <__aeabi_cfrcmple>:
 8001b94:	4684      	mov	ip, r0
 8001b96:	1c08      	adds	r0, r1, #0
 8001b98:	4661      	mov	r1, ip
 8001b9a:	e7ff      	b.n	8001b9c <__aeabi_cfcmpeq>

08001b9c <__aeabi_cfcmpeq>:
 8001b9c:	b51f      	push	{r0, r1, r2, r3, r4, lr}
 8001b9e:	f000 fbff 	bl	80023a0 <__lesf2>
 8001ba2:	2800      	cmp	r0, #0
 8001ba4:	d401      	bmi.n	8001baa <__aeabi_cfcmpeq+0xe>
 8001ba6:	2100      	movs	r1, #0
 8001ba8:	42c8      	cmn	r0, r1
 8001baa:	bd1f      	pop	{r0, r1, r2, r3, r4, pc}

08001bac <__aeabi_fcmpeq>:
 8001bac:	b510      	push	{r4, lr}
 8001bae:	f000 fb87 	bl	80022c0 <__eqsf2>
 8001bb2:	4240      	negs	r0, r0
 8001bb4:	3001      	adds	r0, #1
 8001bb6:	bd10      	pop	{r4, pc}

08001bb8 <__aeabi_fcmplt>:
 8001bb8:	b510      	push	{r4, lr}
 8001bba:	f000 fbf1 	bl	80023a0 <__lesf2>
 8001bbe:	2800      	cmp	r0, #0
 8001bc0:	db01      	blt.n	8001bc6 <__aeabi_fcmplt+0xe>
 8001bc2:	2000      	movs	r0, #0
 8001bc4:	bd10      	pop	{r4, pc}
 8001bc6:	2001      	movs	r0, #1
 8001bc8:	bd10      	pop	{r4, pc}
 8001bca:	46c0      	nop			; (mov r8, r8)

08001bcc <__aeabi_fcmple>:
 8001bcc:	b510      	push	{r4, lr}
 8001bce:	f000 fbe7 	bl	80023a0 <__lesf2>
 8001bd2:	2800      	cmp	r0, #0
 8001bd4:	dd01      	ble.n	8001bda <__aeabi_fcmple+0xe>
 8001bd6:	2000      	movs	r0, #0
 8001bd8:	bd10      	pop	{r4, pc}
 8001bda:	2001      	movs	r0, #1
 8001bdc:	bd10      	pop	{r4, pc}
 8001bde:	46c0      	nop			; (mov r8, r8)

08001be0 <__aeabi_fcmpgt>:
 8001be0:	b510      	push	{r4, lr}
 8001be2:	f000 fb95 	bl	8002310 <__gesf2>
 8001be6:	2800      	cmp	r0, #0
 8001be8:	dc01      	bgt.n	8001bee <__aeabi_fcmpgt+0xe>
 8001bea:	2000      	movs	r0, #0
 8001bec:	bd10      	pop	{r4, pc}
 8001bee:	2001      	movs	r0, #1
 8001bf0:	bd10      	pop	{r4, pc}
 8001bf2:	46c0      	nop			; (mov r8, r8)

08001bf4 <__aeabi_fcmpge>:
 8001bf4:	b510      	push	{r4, lr}
 8001bf6:	f000 fb8b 	bl	8002310 <__gesf2>
 8001bfa:	2800      	cmp	r0, #0
 8001bfc:	da01      	bge.n	8001c02 <__aeabi_fcmpge+0xe>
 8001bfe:	2000      	movs	r0, #0
 8001c00:	bd10      	pop	{r4, pc}
 8001c02:	2001      	movs	r0, #1
 8001c04:	bd10      	pop	{r4, pc}
 8001c06:	46c0      	nop			; (mov r8, r8)

08001c08 <__aeabi_lmul>:
 8001c08:	469c      	mov	ip, r3
 8001c0a:	0403      	lsls	r3, r0, #16
 8001c0c:	b5f0      	push	{r4, r5, r6, r7, lr}
 8001c0e:	0c1b      	lsrs	r3, r3, #16
 8001c10:	0417      	lsls	r7, r2, #16
 8001c12:	0c3f      	lsrs	r7, r7, #16
 8001c14:	0c15      	lsrs	r5, r2, #16
 8001c16:	1c1e      	adds	r6, r3, #0
 8001c18:	1c04      	adds	r4, r0, #0
 8001c1a:	0c00      	lsrs	r0, r0, #16
 8001c1c:	437e      	muls	r6, r7
 8001c1e:	436b      	muls	r3, r5
 8001c20:	4347      	muls	r7, r0
 8001c22:	4345      	muls	r5, r0
 8001c24:	18fb      	adds	r3, r7, r3
 8001c26:	0c30      	lsrs	r0, r6, #16
 8001c28:	1818      	adds	r0, r3, r0
 8001c2a:	4287      	cmp	r7, r0
 8001c2c:	d902      	bls.n	8001c34 <__aeabi_lmul+0x2c>
 8001c2e:	2780      	movs	r7, #128	; 0x80
 8001c30:	027b      	lsls	r3, r7, #9
 8001c32:	18ed      	adds	r5, r5, r3
 8001c34:	0c07      	lsrs	r7, r0, #16
 8001c36:	19ed      	adds	r5, r5, r7
 8001c38:	4667      	mov	r7, ip
 8001c3a:	437c      	muls	r4, r7
 8001c3c:	434a      	muls	r2, r1
 8001c3e:	0436      	lsls	r6, r6, #16
 8001c40:	0c33      	lsrs	r3, r6, #16
 8001c42:	18a1      	adds	r1, r4, r2
 8001c44:	0400      	lsls	r0, r0, #16
 8001c46:	1949      	adds	r1, r1, r5
 8001c48:	18c0      	adds	r0, r0, r3
 8001c4a:	bdf0      	pop	{r4, r5, r6, r7, pc}
 8001c4c:	0000      	movs	r0, r0
	...

08001c50 <__aeabi_ul2f>:
 8001c50:	4b11      	ldr	r3, [pc, #68]	; (8001c98 <__aeabi_ul2f+0x48>)
 8001c52:	b570      	push	{r4, r5, r6, lr}
 8001c54:	1c06      	adds	r6, r0, #0
 8001c56:	4299      	cmp	r1, r3
 8001c58:	d906      	bls.n	8001c68 <__aeabi_ul2f+0x18>
 8001c5a:	0540      	lsls	r0, r0, #21
 8001c5c:	d004      	beq.n	8001c68 <__aeabi_ul2f+0x18>
 8001c5e:	0af6      	lsrs	r6, r6, #11
 8001c60:	2480      	movs	r4, #128	; 0x80
 8001c62:	02f2      	lsls	r2, r6, #11
 8001c64:	0126      	lsls	r6, r4, #4
 8001c66:	4316      	orrs	r6, r2
 8001c68:	1c08      	adds	r0, r1, #0
 8001c6a:	f001 ff45 	bl	8003af8 <__aeabi_ui2d>
 8001c6e:	4b09      	ldr	r3, [pc, #36]	; (8001c94 <__aeabi_ul2f+0x44>)
 8001c70:	4a07      	ldr	r2, [pc, #28]	; (8001c90 <__aeabi_ul2f+0x40>)
 8001c72:	f001 fc61 	bl	8003538 <__aeabi_dmul>
 8001c76:	1c0d      	adds	r5, r1, #0
 8001c78:	1c04      	adds	r4, r0, #0
 8001c7a:	1c30      	adds	r0, r6, #0
 8001c7c:	f001 ff3c 	bl	8003af8 <__aeabi_ui2d>
 8001c80:	1c2b      	adds	r3, r5, #0
 8001c82:	1c22      	adds	r2, r4, #0
 8001c84:	f000 fdcc 	bl	8002820 <__aeabi_dadd>
 8001c88:	f001 ffbc 	bl	8003c04 <__aeabi_d2f>
 8001c8c:	bd70      	pop	{r4, r5, r6, pc}
 8001c8e:	46c0      	nop			; (mov r8, r8)
 8001c90:	00000000 	.word	0x00000000
 8001c94:	41f00000 	.word	0x41f00000
 8001c98:	001fffff 	.word	0x001fffff
 8001c9c:	46c0      	nop			; (mov r8, r8)
 8001c9e:	46c0      	nop			; (mov r8, r8)

08001ca0 <__aeabi_fadd>:
 8001ca0:	b5f8      	push	{r3, r4, r5, r6, r7, lr}
 8001ca2:	0243      	lsls	r3, r0, #9
 8001ca4:	0042      	lsls	r2, r0, #1
 8001ca6:	024f      	lsls	r7, r1, #9
 8001ca8:	004c      	lsls	r4, r1, #1
 8001caa:	0fc0      	lsrs	r0, r0, #31
 8001cac:	099b      	lsrs	r3, r3, #6
 8001cae:	0e12      	lsrs	r2, r2, #24
 8001cb0:	1c06      	adds	r6, r0, #0
 8001cb2:	469c      	mov	ip, r3
 8001cb4:	0e24      	lsrs	r4, r4, #24
 8001cb6:	0fc9      	lsrs	r1, r1, #31
 8001cb8:	09bf      	lsrs	r7, r7, #6
 8001cba:	4288      	cmp	r0, r1
 8001cbc:	d057      	beq.n	8001d6e <__aeabi_fadd+0xce>
 8001cbe:	1b15      	subs	r5, r2, r4
 8001cc0:	2d00      	cmp	r5, #0
 8001cc2:	dc00      	bgt.n	8001cc6 <__aeabi_fadd+0x26>
 8001cc4:	e07e      	b.n	8001dc4 <__aeabi_fadd+0x124>
 8001cc6:	2c00      	cmp	r4, #0
 8001cc8:	d141      	bne.n	8001d4e <__aeabi_fadd+0xae>
 8001cca:	2f00      	cmp	r7, #0
 8001ccc:	d064      	beq.n	8001d98 <__aeabi_fadd+0xf8>
 8001cce:	3d01      	subs	r5, #1
 8001cd0:	2d00      	cmp	r5, #0
 8001cd2:	d000      	beq.n	8001cd6 <__aeabi_fadd+0x36>
 8001cd4:	e0ab      	b.n	8001e2e <__aeabi_fadd+0x18e>
 8001cd6:	1bdb      	subs	r3, r3, r7
 8001cd8:	1c14      	adds	r4, r2, #0
 8001cda:	1c06      	adds	r6, r0, #0
 8001cdc:	0159      	lsls	r1, r3, #5
 8001cde:	d544      	bpl.n	8001d6a <__aeabi_fadd+0xca>
 8001ce0:	019a      	lsls	r2, r3, #6
 8001ce2:	0995      	lsrs	r5, r2, #6
 8001ce4:	1c28      	adds	r0, r5, #0
 8001ce6:	f002 f82f 	bl	8003d48 <__clzsi2>
 8001cea:	3805      	subs	r0, #5
 8001cec:	4085      	lsls	r5, r0
 8001cee:	4284      	cmp	r4, r0
 8001cf0:	dd00      	ble.n	8001cf4 <__aeabi_fadd+0x54>
 8001cf2:	e079      	b.n	8001de8 <__aeabi_fadd+0x148>
 8001cf4:	1b00      	subs	r0, r0, r4
 8001cf6:	241f      	movs	r4, #31
 8001cf8:	1c2b      	adds	r3, r5, #0
 8001cfa:	1c41      	adds	r1, r0, #1
 8001cfc:	1a22      	subs	r2, r4, r0
 8001cfe:	40cb      	lsrs	r3, r1
 8001d00:	4095      	lsls	r5, r2
 8001d02:	1c1f      	adds	r7, r3, #0
 8001d04:	1c2b      	adds	r3, r5, #0
 8001d06:	1e5d      	subs	r5, r3, #1
 8001d08:	41ab      	sbcs	r3, r5
 8001d0a:	433b      	orrs	r3, r7
 8001d0c:	2501      	movs	r5, #1
 8001d0e:	2400      	movs	r4, #0
 8001d10:	200f      	movs	r0, #15
 8001d12:	4018      	ands	r0, r3
 8001d14:	2804      	cmp	r0, #4
 8001d16:	d000      	beq.n	8001d1a <__aeabi_fadd+0x7a>
 8001d18:	3304      	adds	r3, #4
 8001d1a:	2180      	movs	r1, #128	; 0x80
 8001d1c:	04cf      	lsls	r7, r1, #19
 8001d1e:	2201      	movs	r2, #1
 8001d20:	401f      	ands	r7, r3
 8001d22:	4016      	ands	r6, r2
 8001d24:	2f00      	cmp	r7, #0
 8001d26:	d005      	beq.n	8001d34 <__aeabi_fadd+0x94>
 8001d28:	2dff      	cmp	r5, #255	; 0xff
 8001d2a:	d05a      	beq.n	8001de2 <__aeabi_fadd+0x142>
 8001d2c:	4cb3      	ldr	r4, [pc, #716]	; (8001ffc <__aeabi_fadd+0x35c>)
 8001d2e:	4023      	ands	r3, r4
 8001d30:	1c2c      	adds	r4, r5, #0
 8001d32:	3501      	adds	r5, #1
 8001d34:	b2ed      	uxtb	r5, r5
 8001d36:	08da      	lsrs	r2, r3, #3
 8001d38:	2d01      	cmp	r5, #1
 8001d3a:	dd3b      	ble.n	8001db4 <__aeabi_fadd+0x114>
 8001d3c:	0253      	lsls	r3, r2, #9
 8001d3e:	0a5a      	lsrs	r2, r3, #9
 8001d40:	b2e4      	uxtb	r4, r4
 8001d42:	05e4      	lsls	r4, r4, #23
 8001d44:	4322      	orrs	r2, r4
 8001d46:	07f6      	lsls	r6, r6, #31
 8001d48:	1c10      	adds	r0, r2, #0
 8001d4a:	4330      	orrs	r0, r6
 8001d4c:	bdf8      	pop	{r3, r4, r5, r6, r7, pc}
 8001d4e:	2aff      	cmp	r2, #255	; 0xff
 8001d50:	d02b      	beq.n	8001daa <__aeabi_fadd+0x10a>
 8001d52:	2180      	movs	r1, #128	; 0x80
 8001d54:	04cc      	lsls	r4, r1, #19
 8001d56:	4327      	orrs	r7, r4
 8001d58:	2301      	movs	r3, #1
 8001d5a:	2d1b      	cmp	r5, #27
 8001d5c:	dd49      	ble.n	8001df2 <__aeabi_fadd+0x152>
 8001d5e:	4667      	mov	r7, ip
 8001d60:	1afb      	subs	r3, r7, r3
 8001d62:	1c14      	adds	r4, r2, #0
 8001d64:	1c06      	adds	r6, r0, #0
 8001d66:	0159      	lsls	r1, r3, #5
 8001d68:	d4ba      	bmi.n	8001ce0 <__aeabi_fadd+0x40>
 8001d6a:	1c65      	adds	r5, r4, #1
 8001d6c:	e7d0      	b.n	8001d10 <__aeabi_fadd+0x70>
 8001d6e:	1b15      	subs	r5, r2, r4
 8001d70:	2d00      	cmp	r5, #0
 8001d72:	dd4f      	ble.n	8001e14 <__aeabi_fadd+0x174>
 8001d74:	2c00      	cmp	r4, #0
 8001d76:	d013      	beq.n	8001da0 <__aeabi_fadd+0x100>
 8001d78:	2aff      	cmp	r2, #255	; 0xff
 8001d7a:	d05a      	beq.n	8001e32 <__aeabi_fadd+0x192>
 8001d7c:	2480      	movs	r4, #128	; 0x80
 8001d7e:	04e1      	lsls	r1, r4, #19
 8001d80:	430f      	orrs	r7, r1
 8001d82:	2301      	movs	r3, #1
 8001d84:	2d1b      	cmp	r5, #27
 8001d86:	dc00      	bgt.n	8001d8a <__aeabi_fadd+0xea>
 8001d88:	e0b0      	b.n	8001eec <__aeabi_fadd+0x24c>
 8001d8a:	4463      	add	r3, ip
 8001d8c:	1c14      	adds	r4, r2, #0
 8001d8e:	0159      	lsls	r1, r3, #5
 8001d90:	d455      	bmi.n	8001e3e <__aeabi_fadd+0x19e>
 8001d92:	1c65      	adds	r5, r4, #1
 8001d94:	1c06      	adds	r6, r0, #0
 8001d96:	e7bb      	b.n	8001d10 <__aeabi_fadd+0x70>
 8001d98:	1c55      	adds	r5, r2, #1
 8001d9a:	1c14      	adds	r4, r2, #0
 8001d9c:	1c06      	adds	r6, r0, #0
 8001d9e:	e7b7      	b.n	8001d10 <__aeabi_fadd+0x70>
 8001da0:	2f00      	cmp	r7, #0
 8001da2:	d17c      	bne.n	8001e9e <__aeabi_fadd+0x1fe>
 8001da4:	1c55      	adds	r5, r2, #1
 8001da6:	1c14      	adds	r4, r2, #0
 8001da8:	e7b2      	b.n	8001d10 <__aeabi_fadd+0x70>
 8001daa:	2780      	movs	r7, #128	; 0x80
 8001dac:	4663      	mov	r3, ip
 8001dae:	007d      	lsls	r5, r7, #1
 8001db0:	24ff      	movs	r4, #255	; 0xff
 8001db2:	e7ad      	b.n	8001d10 <__aeabi_fadd+0x70>
 8001db4:	2a00      	cmp	r2, #0
 8001db6:	d0c3      	beq.n	8001d40 <__aeabi_fadd+0xa0>
 8001db8:	2c00      	cmp	r4, #0
 8001dba:	d028      	beq.n	8001e0e <__aeabi_fadd+0x16e>
 8001dbc:	2080      	movs	r0, #128	; 0x80
 8001dbe:	03c1      	lsls	r1, r0, #15
 8001dc0:	430a      	orrs	r2, r1
 8001dc2:	e7bb      	b.n	8001d3c <__aeabi_fadd+0x9c>
 8001dc4:	2d00      	cmp	r5, #0
 8001dc6:	d147      	bne.n	8001e58 <__aeabi_fadd+0x1b8>
 8001dc8:	1c50      	adds	r0, r2, #1
 8001dca:	b2c3      	uxtb	r3, r0
 8001dcc:	2b01      	cmp	r3, #1
 8001dce:	dc00      	bgt.n	8001dd2 <__aeabi_fadd+0x132>
 8001dd0:	e096      	b.n	8001f00 <__aeabi_fadd+0x260>
 8001dd2:	4664      	mov	r4, ip
 8001dd4:	1be5      	subs	r5, r4, r7
 8001dd6:	0168      	lsls	r0, r5, #5
 8001dd8:	d558      	bpl.n	8001e8c <__aeabi_fadd+0x1ec>
 8001dda:	1b3d      	subs	r5, r7, r4
 8001ddc:	1c0e      	adds	r6, r1, #0
 8001dde:	1c14      	adds	r4, r2, #0
 8001de0:	e780      	b.n	8001ce4 <__aeabi_fadd+0x44>
 8001de2:	24ff      	movs	r4, #255	; 0xff
 8001de4:	2200      	movs	r2, #0
 8001de6:	e7ac      	b.n	8001d42 <__aeabi_fadd+0xa2>
 8001de8:	4b84      	ldr	r3, [pc, #528]	; (8001ffc <__aeabi_fadd+0x35c>)
 8001dea:	1a24      	subs	r4, r4, r0
 8001dec:	402b      	ands	r3, r5
 8001dee:	1c65      	adds	r5, r4, #1
 8001df0:	e78e      	b.n	8001d10 <__aeabi_fadd+0x70>
 8001df2:	1c3e      	adds	r6, r7, #0
 8001df4:	2120      	movs	r1, #32
 8001df6:	40ee      	lsrs	r6, r5
 8001df8:	1b4d      	subs	r5, r1, r5
 8001dfa:	40af      	lsls	r7, r5
 8001dfc:	1c3b      	adds	r3, r7, #0
 8001dfe:	1e5f      	subs	r7, r3, #1
 8001e00:	41bb      	sbcs	r3, r7
 8001e02:	4333      	orrs	r3, r6
 8001e04:	4667      	mov	r7, ip
 8001e06:	1afb      	subs	r3, r7, r3
 8001e08:	1c14      	adds	r4, r2, #0
 8001e0a:	1c06      	adds	r6, r0, #0
 8001e0c:	e7ab      	b.n	8001d66 <__aeabi_fadd+0xc6>
 8001e0e:	0257      	lsls	r7, r2, #9
 8001e10:	0a7a      	lsrs	r2, r7, #9
 8001e12:	e796      	b.n	8001d42 <__aeabi_fadd+0xa2>
 8001e14:	2d00      	cmp	r5, #0
 8001e16:	d17f      	bne.n	8001f18 <__aeabi_fadd+0x278>
 8001e18:	1c54      	adds	r4, r2, #1
 8001e1a:	b2e1      	uxtb	r1, r4
 8001e1c:	2901      	cmp	r1, #1
 8001e1e:	dd53      	ble.n	8001ec8 <__aeabi_fadd+0x228>
 8001e20:	2cff      	cmp	r4, #255	; 0xff
 8001e22:	d100      	bne.n	8001e26 <__aeabi_fadd+0x186>
 8001e24:	e09b      	b.n	8001f5e <__aeabi_fadd+0x2be>
 8001e26:	18fb      	adds	r3, r7, r3
 8001e28:	085b      	lsrs	r3, r3, #1
 8001e2a:	1c95      	adds	r5, r2, #2
 8001e2c:	e770      	b.n	8001d10 <__aeabi_fadd+0x70>
 8001e2e:	2aff      	cmp	r2, #255	; 0xff
 8001e30:	d192      	bne.n	8001d58 <__aeabi_fadd+0xb8>
 8001e32:	1c06      	adds	r6, r0, #0
 8001e34:	2080      	movs	r0, #128	; 0x80
 8001e36:	4663      	mov	r3, ip
 8001e38:	0045      	lsls	r5, r0, #1
 8001e3a:	24ff      	movs	r4, #255	; 0xff
 8001e3c:	e768      	b.n	8001d10 <__aeabi_fadd+0x70>
 8001e3e:	1c67      	adds	r7, r4, #1
 8001e40:	2fff      	cmp	r7, #255	; 0xff
 8001e42:	d03c      	beq.n	8001ebe <__aeabi_fadd+0x21e>
 8001e44:	4a6d      	ldr	r2, [pc, #436]	; (8001ffc <__aeabi_fadd+0x35c>)
 8001e46:	2601      	movs	r6, #1
 8001e48:	401e      	ands	r6, r3
 8001e4a:	4013      	ands	r3, r2
 8001e4c:	085b      	lsrs	r3, r3, #1
 8001e4e:	4333      	orrs	r3, r6
 8001e50:	1ca5      	adds	r5, r4, #2
 8001e52:	1c06      	adds	r6, r0, #0
 8001e54:	1c3c      	adds	r4, r7, #0
 8001e56:	e75b      	b.n	8001d10 <__aeabi_fadd+0x70>
 8001e58:	4268      	negs	r0, r5
 8001e5a:	2a00      	cmp	r2, #0
 8001e5c:	d025      	beq.n	8001eaa <__aeabi_fadd+0x20a>
 8001e5e:	2cff      	cmp	r4, #255	; 0xff
 8001e60:	d070      	beq.n	8001f44 <__aeabi_fadd+0x2a4>
 8001e62:	2280      	movs	r2, #128	; 0x80
 8001e64:	04d6      	lsls	r6, r2, #19
 8001e66:	1c1d      	adds	r5, r3, #0
 8001e68:	4335      	orrs	r5, r6
 8001e6a:	46ac      	mov	ip, r5
 8001e6c:	2601      	movs	r6, #1
 8001e6e:	281b      	cmp	r0, #27
 8001e70:	dc09      	bgt.n	8001e86 <__aeabi_fadd+0x1e6>
 8001e72:	4662      	mov	r2, ip
 8001e74:	2520      	movs	r5, #32
 8001e76:	40c2      	lsrs	r2, r0
 8001e78:	1a2b      	subs	r3, r5, r0
 8001e7a:	4660      	mov	r0, ip
 8001e7c:	4098      	lsls	r0, r3
 8001e7e:	1c06      	adds	r6, r0, #0
 8001e80:	1e70      	subs	r0, r6, #1
 8001e82:	4186      	sbcs	r6, r0
 8001e84:	4316      	orrs	r6, r2
 8001e86:	1bbb      	subs	r3, r7, r6
 8001e88:	1c0e      	adds	r6, r1, #0
 8001e8a:	e727      	b.n	8001cdc <__aeabi_fadd+0x3c>
 8001e8c:	1c14      	adds	r4, r2, #0
 8001e8e:	2d00      	cmp	r5, #0
 8001e90:	d000      	beq.n	8001e94 <__aeabi_fadd+0x1f4>
 8001e92:	e727      	b.n	8001ce4 <__aeabi_fadd+0x44>
 8001e94:	2600      	movs	r6, #0
 8001e96:	2501      	movs	r5, #1
 8001e98:	2304      	movs	r3, #4
 8001e9a:	2400      	movs	r4, #0
 8001e9c:	e74a      	b.n	8001d34 <__aeabi_fadd+0x94>
 8001e9e:	3d01      	subs	r5, #1
 8001ea0:	2d00      	cmp	r5, #0
 8001ea2:	d108      	bne.n	8001eb6 <__aeabi_fadd+0x216>
 8001ea4:	18fb      	adds	r3, r7, r3
 8001ea6:	1c14      	adds	r4, r2, #0
 8001ea8:	e771      	b.n	8001d8e <__aeabi_fadd+0xee>
 8001eaa:	2b00      	cmp	r3, #0
 8001eac:	d150      	bne.n	8001f50 <__aeabi_fadd+0x2b0>
 8001eae:	1c65      	adds	r5, r4, #1
 8001eb0:	1c3b      	adds	r3, r7, #0
 8001eb2:	1c0e      	adds	r6, r1, #0
 8001eb4:	e72c      	b.n	8001d10 <__aeabi_fadd+0x70>
 8001eb6:	2aff      	cmp	r2, #255	; 0xff
 8001eb8:	d000      	beq.n	8001ebc <__aeabi_fadd+0x21c>
 8001eba:	e762      	b.n	8001d82 <__aeabi_fadd+0xe2>
 8001ebc:	e7b9      	b.n	8001e32 <__aeabi_fadd+0x192>
 8001ebe:	2380      	movs	r3, #128	; 0x80
 8001ec0:	005d      	lsls	r5, r3, #1
 8001ec2:	24ff      	movs	r4, #255	; 0xff
 8001ec4:	2304      	movs	r3, #4
 8001ec6:	e735      	b.n	8001d34 <__aeabi_fadd+0x94>
 8001ec8:	2a00      	cmp	r2, #0
 8001eca:	d17c      	bne.n	8001fc6 <__aeabi_fadd+0x326>
 8001ecc:	2b00      	cmp	r3, #0
 8001ece:	d100      	bne.n	8001ed2 <__aeabi_fadd+0x232>
 8001ed0:	e0a1      	b.n	8002016 <__aeabi_fadd+0x376>
 8001ed2:	2f00      	cmp	r7, #0
 8001ed4:	d100      	bne.n	8001ed8 <__aeabi_fadd+0x238>
 8001ed6:	e0af      	b.n	8002038 <__aeabi_fadd+0x398>
 8001ed8:	18fb      	adds	r3, r7, r3
 8001eda:	0159      	lsls	r1, r3, #5
 8001edc:	d400      	bmi.n	8001ee0 <__aeabi_fadd+0x240>
 8001ede:	e0b0      	b.n	8002042 <__aeabi_fadd+0x3a2>
 8001ee0:	4e46      	ldr	r6, [pc, #280]	; (8001ffc <__aeabi_fadd+0x35c>)
 8001ee2:	2502      	movs	r5, #2
 8001ee4:	4033      	ands	r3, r6
 8001ee6:	2401      	movs	r4, #1
 8001ee8:	1c06      	adds	r6, r0, #0
 8001eea:	e711      	b.n	8001d10 <__aeabi_fadd+0x70>
 8001eec:	1c3c      	adds	r4, r7, #0
 8001eee:	2320      	movs	r3, #32
 8001ef0:	40ec      	lsrs	r4, r5
 8001ef2:	1b5d      	subs	r5, r3, r5
 8001ef4:	40af      	lsls	r7, r5
 8001ef6:	1c3b      	adds	r3, r7, #0
 8001ef8:	1e5f      	subs	r7, r3, #1
 8001efa:	41bb      	sbcs	r3, r7
 8001efc:	4323      	orrs	r3, r4
 8001efe:	e744      	b.n	8001d8a <__aeabi_fadd+0xea>
 8001f00:	2a00      	cmp	r2, #0
 8001f02:	d112      	bne.n	8001f2a <__aeabi_fadd+0x28a>
 8001f04:	4665      	mov	r5, ip
 8001f06:	2d00      	cmp	r5, #0
 8001f08:	d141      	bne.n	8001f8e <__aeabi_fadd+0x2ee>
 8001f0a:	2f00      	cmp	r7, #0
 8001f0c:	d0c2      	beq.n	8001e94 <__aeabi_fadd+0x1f4>
 8001f0e:	1c3b      	adds	r3, r7, #0
 8001f10:	1c0e      	adds	r6, r1, #0
 8001f12:	2501      	movs	r5, #1
 8001f14:	2400      	movs	r4, #0
 8001f16:	e6fb      	b.n	8001d10 <__aeabi_fadd+0x70>
 8001f18:	426d      	negs	r5, r5
 8001f1a:	2a00      	cmp	r2, #0
 8001f1c:	d123      	bne.n	8001f66 <__aeabi_fadd+0x2c6>
 8001f1e:	2b00      	cmp	r3, #0
 8001f20:	d166      	bne.n	8001ff0 <__aeabi_fadd+0x350>
 8001f22:	1c65      	adds	r5, r4, #1
 8001f24:	1c3b      	adds	r3, r7, #0
 8001f26:	1c06      	adds	r6, r0, #0
 8001f28:	e6f2      	b.n	8001d10 <__aeabi_fadd+0x70>
 8001f2a:	4662      	mov	r2, ip
 8001f2c:	2a00      	cmp	r2, #0
 8001f2e:	d138      	bne.n	8001fa2 <__aeabi_fadd+0x302>
 8001f30:	2f00      	cmp	r7, #0
 8001f32:	d107      	bne.n	8001f44 <__aeabi_fadd+0x2a4>
 8001f34:	2280      	movs	r2, #128	; 0x80
 8001f36:	2600      	movs	r6, #0
 8001f38:	0055      	lsls	r5, r2, #1
 8001f3a:	4b31      	ldr	r3, [pc, #196]	; (8002000 <__aeabi_fadd+0x360>)
 8001f3c:	24ff      	movs	r4, #255	; 0xff
 8001f3e:	e6f9      	b.n	8001d34 <__aeabi_fadd+0x94>
 8001f40:	2cff      	cmp	r4, #255	; 0xff
 8001f42:	d193      	bne.n	8001e6c <__aeabi_fadd+0x1cc>
 8001f44:	1c3b      	adds	r3, r7, #0
 8001f46:	2780      	movs	r7, #128	; 0x80
 8001f48:	1c0e      	adds	r6, r1, #0
 8001f4a:	007d      	lsls	r5, r7, #1
 8001f4c:	24ff      	movs	r4, #255	; 0xff
 8001f4e:	e6df      	b.n	8001d10 <__aeabi_fadd+0x70>
 8001f50:	3801      	subs	r0, #1
 8001f52:	2800      	cmp	r0, #0
 8001f54:	d1f4      	bne.n	8001f40 <__aeabi_fadd+0x2a0>
 8001f56:	4666      	mov	r6, ip
 8001f58:	1bbb      	subs	r3, r7, r6
 8001f5a:	1c0e      	adds	r6, r1, #0
 8001f5c:	e6be      	b.n	8001cdc <__aeabi_fadd+0x3c>
 8001f5e:	2780      	movs	r7, #128	; 0x80
 8001f60:	007d      	lsls	r5, r7, #1
 8001f62:	2304      	movs	r3, #4
 8001f64:	e6e6      	b.n	8001d34 <__aeabi_fadd+0x94>
 8001f66:	2cff      	cmp	r4, #255	; 0xff
 8001f68:	d05c      	beq.n	8002024 <__aeabi_fadd+0x384>
 8001f6a:	2280      	movs	r2, #128	; 0x80
 8001f6c:	04d1      	lsls	r1, r2, #19
 8001f6e:	430b      	orrs	r3, r1
 8001f70:	469c      	mov	ip, r3
 8001f72:	2301      	movs	r3, #1
 8001f74:	2d1b      	cmp	r5, #27
 8001f76:	dc08      	bgt.n	8001f8a <__aeabi_fadd+0x2ea>
 8001f78:	2120      	movs	r1, #32
 8001f7a:	4662      	mov	r2, ip
 8001f7c:	40ea      	lsrs	r2, r5
 8001f7e:	4663      	mov	r3, ip
 8001f80:	1b4d      	subs	r5, r1, r5
 8001f82:	40ab      	lsls	r3, r5
 8001f84:	1e59      	subs	r1, r3, #1
 8001f86:	418b      	sbcs	r3, r1
 8001f88:	4313      	orrs	r3, r2
 8001f8a:	19db      	adds	r3, r3, r7
 8001f8c:	e6ff      	b.n	8001d8e <__aeabi_fadd+0xee>
 8001f8e:	2f00      	cmp	r7, #0
 8001f90:	d038      	beq.n	8002004 <__aeabi_fadd+0x364>
 8001f92:	1beb      	subs	r3, r5, r7
 8001f94:	015a      	lsls	r2, r3, #5
 8001f96:	d54b      	bpl.n	8002030 <__aeabi_fadd+0x390>
 8001f98:	1b7b      	subs	r3, r7, r5
 8001f9a:	1c0e      	adds	r6, r1, #0
 8001f9c:	2501      	movs	r5, #1
 8001f9e:	2400      	movs	r4, #0
 8001fa0:	e6b6      	b.n	8001d10 <__aeabi_fadd+0x70>
 8001fa2:	2f00      	cmp	r7, #0
 8001fa4:	d100      	bne.n	8001fa8 <__aeabi_fadd+0x308>
 8001fa6:	e700      	b.n	8001daa <__aeabi_fadd+0x10a>
 8001fa8:	2080      	movs	r0, #128	; 0x80
 8001faa:	08d3      	lsrs	r3, r2, #3
 8001fac:	03c4      	lsls	r4, r0, #15
 8001fae:	4223      	tst	r3, r4
 8001fb0:	d004      	beq.n	8001fbc <__aeabi_fadd+0x31c>
 8001fb2:	08ff      	lsrs	r7, r7, #3
 8001fb4:	4227      	tst	r7, r4
 8001fb6:	d101      	bne.n	8001fbc <__aeabi_fadd+0x31c>
 8001fb8:	1c3b      	adds	r3, r7, #0
 8001fba:	1c0e      	adds	r6, r1, #0
 8001fbc:	2180      	movs	r1, #128	; 0x80
 8001fbe:	00db      	lsls	r3, r3, #3
 8001fc0:	004d      	lsls	r5, r1, #1
 8001fc2:	24ff      	movs	r4, #255	; 0xff
 8001fc4:	e6a4      	b.n	8001d10 <__aeabi_fadd+0x70>
 8001fc6:	2b00      	cmp	r3, #0
 8001fc8:	d020      	beq.n	800200c <__aeabi_fadd+0x36c>
 8001fca:	2f00      	cmp	r7, #0
 8001fcc:	d100      	bne.n	8001fd0 <__aeabi_fadd+0x330>
 8001fce:	e6ec      	b.n	8001daa <__aeabi_fadd+0x10a>
 8001fd0:	2280      	movs	r2, #128	; 0x80
 8001fd2:	08de      	lsrs	r6, r3, #3
 8001fd4:	03d5      	lsls	r5, r2, #15
 8001fd6:	1c31      	adds	r1, r6, #0
 8001fd8:	422e      	tst	r6, r5
 8001fda:	d003      	beq.n	8001fe4 <__aeabi_fadd+0x344>
 8001fdc:	08f9      	lsrs	r1, r7, #3
 8001fde:	4229      	tst	r1, r5
 8001fe0:	d000      	beq.n	8001fe4 <__aeabi_fadd+0x344>
 8001fe2:	1c31      	adds	r1, r6, #0
 8001fe4:	1c06      	adds	r6, r0, #0
 8001fe6:	2080      	movs	r0, #128	; 0x80
 8001fe8:	00cb      	lsls	r3, r1, #3
 8001fea:	0045      	lsls	r5, r0, #1
 8001fec:	24ff      	movs	r4, #255	; 0xff
 8001fee:	e68f      	b.n	8001d10 <__aeabi_fadd+0x70>
 8001ff0:	3d01      	subs	r5, #1
 8001ff2:	2d00      	cmp	r5, #0
 8001ff4:	d114      	bne.n	8002020 <__aeabi_fadd+0x380>
 8001ff6:	18fb      	adds	r3, r7, r3
 8001ff8:	e6c9      	b.n	8001d8e <__aeabi_fadd+0xee>
 8001ffa:	46c0      	nop			; (mov r8, r8)
 8001ffc:	fbffffff 	.word	0xfbffffff
 8002000:	03fffffc 	.word	0x03fffffc
 8002004:	4663      	mov	r3, ip
 8002006:	2501      	movs	r5, #1
 8002008:	2400      	movs	r4, #0
 800200a:	e681      	b.n	8001d10 <__aeabi_fadd+0x70>
 800200c:	2480      	movs	r4, #128	; 0x80
 800200e:	0065      	lsls	r5, r4, #1
 8002010:	1c3b      	adds	r3, r7, #0
 8002012:	24ff      	movs	r4, #255	; 0xff
 8002014:	e67c      	b.n	8001d10 <__aeabi_fadd+0x70>
 8002016:	1c3b      	adds	r3, r7, #0
 8002018:	1c06      	adds	r6, r0, #0
 800201a:	2501      	movs	r5, #1
 800201c:	2400      	movs	r4, #0
 800201e:	e677      	b.n	8001d10 <__aeabi_fadd+0x70>
 8002020:	2cff      	cmp	r4, #255	; 0xff
 8002022:	d1a6      	bne.n	8001f72 <__aeabi_fadd+0x2d2>
 8002024:	1c3b      	adds	r3, r7, #0
 8002026:	2780      	movs	r7, #128	; 0x80
 8002028:	1c06      	adds	r6, r0, #0
 800202a:	007d      	lsls	r5, r7, #1
 800202c:	24ff      	movs	r4, #255	; 0xff
 800202e:	e66f      	b.n	8001d10 <__aeabi_fadd+0x70>
 8002030:	2b00      	cmp	r3, #0
 8002032:	d100      	bne.n	8002036 <__aeabi_fadd+0x396>
 8002034:	e72e      	b.n	8001e94 <__aeabi_fadd+0x1f4>
 8002036:	e669      	b.n	8001d0c <__aeabi_fadd+0x6c>
 8002038:	4663      	mov	r3, ip
 800203a:	1c06      	adds	r6, r0, #0
 800203c:	2501      	movs	r5, #1
 800203e:	2400      	movs	r4, #0
 8002040:	e666      	b.n	8001d10 <__aeabi_fadd+0x70>
 8002042:	1c06      	adds	r6, r0, #0
 8002044:	2501      	movs	r5, #1
 8002046:	2400      	movs	r4, #0
 8002048:	e662      	b.n	8001d10 <__aeabi_fadd+0x70>
 800204a:	46c0      	nop			; (mov r8, r8)

0800204c <__aeabi_fdiv>:
 800204c:	b5f0      	push	{r4, r5, r6, r7, lr}
 800204e:	465f      	mov	r7, fp
 8002050:	4656      	mov	r6, sl
 8002052:	464d      	mov	r5, r9
 8002054:	4644      	mov	r4, r8
 8002056:	b4f0      	push	{r4, r5, r6, r7}
 8002058:	0245      	lsls	r5, r0, #9
 800205a:	0044      	lsls	r4, r0, #1
 800205c:	b083      	sub	sp, #12
 800205e:	1c0e      	adds	r6, r1, #0
 8002060:	0a6d      	lsrs	r5, r5, #9
 8002062:	0e24      	lsrs	r4, r4, #24
 8002064:	0fc7      	lsrs	r7, r0, #31
 8002066:	2c00      	cmp	r4, #0
 8002068:	d107      	bne.n	800207a <__aeabi_fdiv+0x2e>
 800206a:	2d00      	cmp	r5, #0
 800206c:	d000      	beq.n	8002070 <__aeabi_fdiv+0x24>
 800206e:	e091      	b.n	8002194 <__aeabi_fdiv+0x148>
 8002070:	2104      	movs	r1, #4
 8002072:	2201      	movs	r2, #1
 8002074:	4688      	mov	r8, r1
 8002076:	4692      	mov	sl, r2
 8002078:	e009      	b.n	800208e <__aeabi_fdiv+0x42>
 800207a:	2cff      	cmp	r4, #255	; 0xff
 800207c:	d055      	beq.n	800212a <__aeabi_fdiv+0xde>
 800207e:	2380      	movs	r3, #128	; 0x80
 8002080:	0418      	lsls	r0, r3, #16
 8002082:	2100      	movs	r1, #0
 8002084:	4305      	orrs	r5, r0
 8002086:	00ed      	lsls	r5, r5, #3
 8002088:	3c7f      	subs	r4, #127	; 0x7f
 800208a:	4688      	mov	r8, r1
 800208c:	468a      	mov	sl, r1
 800208e:	1c33      	adds	r3, r6, #0
 8002090:	0058      	lsls	r0, r3, #1
 8002092:	0276      	lsls	r6, r6, #9
 8002094:	0fd9      	lsrs	r1, r3, #31
 8002096:	0a76      	lsrs	r6, r6, #9
 8002098:	0e00      	lsrs	r0, r0, #24
 800209a:	468b      	mov	fp, r1
 800209c:	d14c      	bne.n	8002138 <__aeabi_fdiv+0xec>
 800209e:	2201      	movs	r2, #1
 80020a0:	4694      	mov	ip, r2
 80020a2:	2e00      	cmp	r6, #0
 80020a4:	d000      	beq.n	80020a8 <__aeabi_fdiv+0x5c>
 80020a6:	e081      	b.n	80021ac <__aeabi_fdiv+0x160>
 80020a8:	465b      	mov	r3, fp
 80020aa:	407b      	eors	r3, r7
 80020ac:	4662      	mov	r2, ip
 80020ae:	4641      	mov	r1, r8
 80020b0:	9301      	str	r3, [sp, #4]
 80020b2:	430a      	orrs	r2, r1
 80020b4:	2a0f      	cmp	r2, #15
 80020b6:	d950      	bls.n	800215a <__aeabi_fdiv+0x10e>
 80020b8:	1a20      	subs	r0, r4, r0
 80020ba:	0169      	lsls	r1, r5, #5
 80020bc:	4681      	mov	r9, r0
 80020be:	0175      	lsls	r5, r6, #5
 80020c0:	42a9      	cmp	r1, r5
 80020c2:	d300      	bcc.n	80020c6 <__aeabi_fdiv+0x7a>
 80020c4:	e0b3      	b.n	800222e <__aeabi_fdiv+0x1e2>
 80020c6:	2201      	movs	r2, #1
 80020c8:	4253      	negs	r3, r2
 80020ca:	4499      	add	r9, r3
 80020cc:	241b      	movs	r4, #27
 80020ce:	2600      	movs	r6, #0
 80020d0:	2701      	movs	r7, #1
 80020d2:	1e62      	subs	r2, r4, #1
 80020d4:	1c38      	adds	r0, r7, #0
 80020d6:	4010      	ands	r0, r2
 80020d8:	004b      	lsls	r3, r1, #1
 80020da:	0076      	lsls	r6, r6, #1
 80020dc:	2900      	cmp	r1, #0
 80020de:	da00      	bge.n	80020e2 <__aeabi_fdiv+0x96>
 80020e0:	e0a9      	b.n	8002236 <__aeabi_fdiv+0x1ea>
 80020e2:	429d      	cmp	r5, r3
 80020e4:	d800      	bhi.n	80020e8 <__aeabi_fdiv+0x9c>
 80020e6:	e0a6      	b.n	8002236 <__aeabi_fdiv+0x1ea>
 80020e8:	3c01      	subs	r4, #1
 80020ea:	2c00      	cmp	r4, #0
 80020ec:	dc00      	bgt.n	80020f0 <__aeabi_fdiv+0xa4>
 80020ee:	e0ab      	b.n	8002248 <__aeabi_fdiv+0x1fc>
 80020f0:	2800      	cmp	r0, #0
 80020f2:	d00c      	beq.n	800210e <__aeabi_fdiv+0xc2>
 80020f4:	1c19      	adds	r1, r3, #0
 80020f6:	0076      	lsls	r6, r6, #1
 80020f8:	005b      	lsls	r3, r3, #1
 80020fa:	2900      	cmp	r1, #0
 80020fc:	db01      	blt.n	8002102 <__aeabi_fdiv+0xb6>
 80020fe:	429d      	cmp	r5, r3
 8002100:	d801      	bhi.n	8002106 <__aeabi_fdiv+0xba>
 8002102:	1b5b      	subs	r3, r3, r5
 8002104:	433e      	orrs	r6, r7
 8002106:	3c01      	subs	r4, #1
 8002108:	2c00      	cmp	r4, #0
 800210a:	dc00      	bgt.n	800210e <__aeabi_fdiv+0xc2>
 800210c:	e09c      	b.n	8002248 <__aeabi_fdiv+0x1fc>
 800210e:	0059      	lsls	r1, r3, #1
 8002110:	0072      	lsls	r2, r6, #1
 8002112:	2b00      	cmp	r3, #0
 8002114:	db01      	blt.n	800211a <__aeabi_fdiv+0xce>
 8002116:	428d      	cmp	r5, r1
 8002118:	d801      	bhi.n	800211e <__aeabi_fdiv+0xd2>
 800211a:	1b49      	subs	r1, r1, r5
 800211c:	433a      	orrs	r2, r7
 800211e:	3c01      	subs	r4, #1
 8002120:	004b      	lsls	r3, r1, #1
 8002122:	0056      	lsls	r6, r2, #1
 8002124:	2900      	cmp	r1, #0
 8002126:	daea      	bge.n	80020fe <__aeabi_fdiv+0xb2>
 8002128:	e7eb      	b.n	8002102 <__aeabi_fdiv+0xb6>
 800212a:	2d00      	cmp	r5, #0
 800212c:	d12d      	bne.n	800218a <__aeabi_fdiv+0x13e>
 800212e:	2008      	movs	r0, #8
 8002130:	2102      	movs	r1, #2
 8002132:	4680      	mov	r8, r0
 8002134:	468a      	mov	sl, r1
 8002136:	e7aa      	b.n	800208e <__aeabi_fdiv+0x42>
 8002138:	28ff      	cmp	r0, #255	; 0xff
 800213a:	d020      	beq.n	800217e <__aeabi_fdiv+0x132>
 800213c:	2280      	movs	r2, #128	; 0x80
 800213e:	0413      	lsls	r3, r2, #16
 8002140:	2100      	movs	r1, #0
 8002142:	431e      	orrs	r6, r3
 8002144:	468c      	mov	ip, r1
 8002146:	465b      	mov	r3, fp
 8002148:	407b      	eors	r3, r7
 800214a:	4662      	mov	r2, ip
 800214c:	4641      	mov	r1, r8
 800214e:	00f6      	lsls	r6, r6, #3
 8002150:	387f      	subs	r0, #127	; 0x7f
 8002152:	9301      	str	r3, [sp, #4]
 8002154:	430a      	orrs	r2, r1
 8002156:	2a0f      	cmp	r2, #15
 8002158:	d8ae      	bhi.n	80020b8 <__aeabi_fdiv+0x6c>
 800215a:	4956      	ldr	r1, [pc, #344]	; (80022b4 <__aeabi_fdiv+0x268>)
 800215c:	0092      	lsls	r2, r2, #2
 800215e:	588a      	ldr	r2, [r1, r2]
 8002160:	4697      	mov	pc, r2
 8002162:	9b01      	ldr	r3, [sp, #4]
 8002164:	26ff      	movs	r6, #255	; 0xff
 8002166:	2500      	movs	r5, #0
 8002168:	05f0      	lsls	r0, r6, #23
 800216a:	4328      	orrs	r0, r5
 800216c:	07de      	lsls	r6, r3, #31
 800216e:	4330      	orrs	r0, r6
 8002170:	b003      	add	sp, #12
 8002172:	bc3c      	pop	{r2, r3, r4, r5}
 8002174:	4690      	mov	r8, r2
 8002176:	4699      	mov	r9, r3
 8002178:	46a2      	mov	sl, r4
 800217a:	46ab      	mov	fp, r5
 800217c:	bdf0      	pop	{r4, r5, r6, r7, pc}
 800217e:	1c33      	adds	r3, r6, #0
 8002180:	1e5a      	subs	r2, r3, #1
 8002182:	4193      	sbcs	r3, r2
 8002184:	3302      	adds	r3, #2
 8002186:	469c      	mov	ip, r3
 8002188:	e78e      	b.n	80020a8 <__aeabi_fdiv+0x5c>
 800218a:	220c      	movs	r2, #12
 800218c:	2303      	movs	r3, #3
 800218e:	4690      	mov	r8, r2
 8002190:	469a      	mov	sl, r3
 8002192:	e77c      	b.n	800208e <__aeabi_fdiv+0x42>
 8002194:	1c28      	adds	r0, r5, #0
 8002196:	f001 fdd7 	bl	8003d48 <__clzsi2>
 800219a:	2276      	movs	r2, #118	; 0x76
 800219c:	1f44      	subs	r4, r0, #5
 800219e:	4253      	negs	r3, r2
 80021a0:	40a5      	lsls	r5, r4
 80021a2:	1a1c      	subs	r4, r3, r0
 80021a4:	2000      	movs	r0, #0
 80021a6:	4680      	mov	r8, r0
 80021a8:	4682      	mov	sl, r0
 80021aa:	e770      	b.n	800208e <__aeabi_fdiv+0x42>
 80021ac:	1c30      	adds	r0, r6, #0
 80021ae:	f001 fdcb 	bl	8003d48 <__clzsi2>
 80021b2:	2376      	movs	r3, #118	; 0x76
 80021b4:	1f41      	subs	r1, r0, #5
 80021b6:	408e      	lsls	r6, r1
 80021b8:	425a      	negs	r2, r3
 80021ba:	2100      	movs	r1, #0
 80021bc:	1a10      	subs	r0, r2, r0
 80021be:	468c      	mov	ip, r1
 80021c0:	e772      	b.n	80020a8 <__aeabi_fdiv+0x5c>
 80021c2:	2300      	movs	r3, #0
 80021c4:	4d3c      	ldr	r5, [pc, #240]	; (80022b8 <__aeabi_fdiv+0x26c>)
 80021c6:	26ff      	movs	r6, #255	; 0xff
 80021c8:	e7ce      	b.n	8002168 <__aeabi_fdiv+0x11c>
 80021ca:	465f      	mov	r7, fp
 80021cc:	1c35      	adds	r5, r6, #0
 80021ce:	9701      	str	r7, [sp, #4]
 80021d0:	4663      	mov	r3, ip
 80021d2:	2b02      	cmp	r3, #2
 80021d4:	d0c5      	beq.n	8002162 <__aeabi_fdiv+0x116>
 80021d6:	2b03      	cmp	r3, #3
 80021d8:	d063      	beq.n	80022a2 <__aeabi_fdiv+0x256>
 80021da:	2b01      	cmp	r3, #1
 80021dc:	d043      	beq.n	8002266 <__aeabi_fdiv+0x21a>
 80021de:	4649      	mov	r1, r9
 80021e0:	317f      	adds	r1, #127	; 0x7f
 80021e2:	2900      	cmp	r1, #0
 80021e4:	dd35      	ble.n	8002252 <__aeabi_fdiv+0x206>
 80021e6:	270f      	movs	r7, #15
 80021e8:	402f      	ands	r7, r5
 80021ea:	2f04      	cmp	r7, #4
 80021ec:	d000      	beq.n	80021f0 <__aeabi_fdiv+0x1a4>
 80021ee:	3504      	adds	r5, #4
 80021f0:	012b      	lsls	r3, r5, #4
 80021f2:	d503      	bpl.n	80021fc <__aeabi_fdiv+0x1b0>
 80021f4:	4a31      	ldr	r2, [pc, #196]	; (80022bc <__aeabi_fdiv+0x270>)
 80021f6:	4649      	mov	r1, r9
 80021f8:	4015      	ands	r5, r2
 80021fa:	3180      	adds	r1, #128	; 0x80
 80021fc:	29fe      	cmp	r1, #254	; 0xfe
 80021fe:	dcb0      	bgt.n	8002162 <__aeabi_fdiv+0x116>
 8002200:	01a8      	lsls	r0, r5, #6
 8002202:	0a45      	lsrs	r5, r0, #9
 8002204:	b2ce      	uxtb	r6, r1
 8002206:	9b01      	ldr	r3, [sp, #4]
 8002208:	e7ae      	b.n	8002168 <__aeabi_fdiv+0x11c>
 800220a:	2600      	movs	r6, #0
 800220c:	2500      	movs	r5, #0
 800220e:	e7ab      	b.n	8002168 <__aeabi_fdiv+0x11c>
 8002210:	2080      	movs	r0, #128	; 0x80
 8002212:	03c1      	lsls	r1, r0, #15
 8002214:	420d      	tst	r5, r1
 8002216:	d011      	beq.n	800223c <__aeabi_fdiv+0x1f0>
 8002218:	420e      	tst	r6, r1
 800221a:	d10f      	bne.n	800223c <__aeabi_fdiv+0x1f0>
 800221c:	430e      	orrs	r6, r1
 800221e:	0273      	lsls	r3, r6, #9
 8002220:	0a5d      	lsrs	r5, r3, #9
 8002222:	26ff      	movs	r6, #255	; 0xff
 8002224:	465b      	mov	r3, fp
 8002226:	e79f      	b.n	8002168 <__aeabi_fdiv+0x11c>
 8002228:	9701      	str	r7, [sp, #4]
 800222a:	4653      	mov	r3, sl
 800222c:	e7d1      	b.n	80021d2 <__aeabi_fdiv+0x186>
 800222e:	1b49      	subs	r1, r1, r5
 8002230:	241a      	movs	r4, #26
 8002232:	2601      	movs	r6, #1
 8002234:	e74c      	b.n	80020d0 <__aeabi_fdiv+0x84>
 8002236:	1b5b      	subs	r3, r3, r5
 8002238:	433e      	orrs	r6, r7
 800223a:	e755      	b.n	80020e8 <__aeabi_fdiv+0x9c>
 800223c:	430d      	orrs	r5, r1
 800223e:	026a      	lsls	r2, r5, #9
 8002240:	0a55      	lsrs	r5, r2, #9
 8002242:	1c3b      	adds	r3, r7, #0
 8002244:	26ff      	movs	r6, #255	; 0xff
 8002246:	e78f      	b.n	8002168 <__aeabi_fdiv+0x11c>
 8002248:	1c1d      	adds	r5, r3, #0
 800224a:	1e6b      	subs	r3, r5, #1
 800224c:	419d      	sbcs	r5, r3
 800224e:	4335      	orrs	r5, r6
 8002250:	e7c5      	b.n	80021de <__aeabi_fdiv+0x192>
 8002252:	247e      	movs	r4, #126	; 0x7e
 8002254:	4267      	negs	r7, r4
 8002256:	464a      	mov	r2, r9
 8002258:	1ab9      	subs	r1, r7, r2
 800225a:	291b      	cmp	r1, #27
 800225c:	dd08      	ble.n	8002270 <__aeabi_fdiv+0x224>
 800225e:	9b01      	ldr	r3, [sp, #4]
 8002260:	2600      	movs	r6, #0
 8002262:	2500      	movs	r5, #0
 8002264:	e780      	b.n	8002168 <__aeabi_fdiv+0x11c>
 8002266:	9d01      	ldr	r5, [sp, #4]
 8002268:	2600      	movs	r6, #0
 800226a:	402b      	ands	r3, r5
 800226c:	2500      	movs	r5, #0
 800226e:	e77b      	b.n	8002168 <__aeabi_fdiv+0x11c>
 8002270:	464e      	mov	r6, r9
 8002272:	369e      	adds	r6, #158	; 0x9e
 8002274:	1c28      	adds	r0, r5, #0
 8002276:	40b5      	lsls	r5, r6
 8002278:	1c2b      	adds	r3, r5, #0
 800227a:	1e5d      	subs	r5, r3, #1
 800227c:	41ab      	sbcs	r3, r5
 800227e:	40c8      	lsrs	r0, r1
 8002280:	4303      	orrs	r3, r0
 8002282:	250f      	movs	r5, #15
 8002284:	401d      	ands	r5, r3
 8002286:	2d04      	cmp	r5, #4
 8002288:	d000      	beq.n	800228c <__aeabi_fdiv+0x240>
 800228a:	3304      	adds	r3, #4
 800228c:	015a      	lsls	r2, r3, #5
 800228e:	d503      	bpl.n	8002298 <__aeabi_fdiv+0x24c>
 8002290:	9b01      	ldr	r3, [sp, #4]
 8002292:	2601      	movs	r6, #1
 8002294:	2500      	movs	r5, #0
 8002296:	e767      	b.n	8002168 <__aeabi_fdiv+0x11c>
 8002298:	019c      	lsls	r4, r3, #6
 800229a:	0a65      	lsrs	r5, r4, #9
 800229c:	9b01      	ldr	r3, [sp, #4]
 800229e:	2600      	movs	r6, #0
 80022a0:	e762      	b.n	8002168 <__aeabi_fdiv+0x11c>
 80022a2:	2780      	movs	r7, #128	; 0x80
 80022a4:	03fc      	lsls	r4, r7, #15
 80022a6:	4325      	orrs	r5, r4
 80022a8:	026e      	lsls	r6, r5, #9
 80022aa:	0a75      	lsrs	r5, r6, #9
 80022ac:	9b01      	ldr	r3, [sp, #4]
 80022ae:	26ff      	movs	r6, #255	; 0xff
 80022b0:	e75a      	b.n	8002168 <__aeabi_fdiv+0x11c>
 80022b2:	46c0      	nop			; (mov r8, r8)
 80022b4:	080051d4 	.word	0x080051d4
 80022b8:	007fffff 	.word	0x007fffff
 80022bc:	f7ffffff 	.word	0xf7ffffff

080022c0 <__eqsf2>:
 80022c0:	0243      	lsls	r3, r0, #9
 80022c2:	0042      	lsls	r2, r0, #1
 80022c4:	b570      	push	{r4, r5, r6, lr}
 80022c6:	0a5c      	lsrs	r4, r3, #9
 80022c8:	0fc6      	lsrs	r6, r0, #31
 80022ca:	0e13      	lsrs	r3, r2, #24
 80022cc:	0248      	lsls	r0, r1, #9
 80022ce:	004a      	lsls	r2, r1, #1
 80022d0:	0a45      	lsrs	r5, r0, #9
 80022d2:	0e12      	lsrs	r2, r2, #24
 80022d4:	0fc9      	lsrs	r1, r1, #31
 80022d6:	2bff      	cmp	r3, #255	; 0xff
 80022d8:	d005      	beq.n	80022e6 <__eqsf2+0x26>
 80022da:	2aff      	cmp	r2, #255	; 0xff
 80022dc:	d008      	beq.n	80022f0 <__eqsf2+0x30>
 80022de:	2001      	movs	r0, #1
 80022e0:	4293      	cmp	r3, r2
 80022e2:	d00b      	beq.n	80022fc <__eqsf2+0x3c>
 80022e4:	bd70      	pop	{r4, r5, r6, pc}
 80022e6:	2001      	movs	r0, #1
 80022e8:	2c00      	cmp	r4, #0
 80022ea:	d1fb      	bne.n	80022e4 <__eqsf2+0x24>
 80022ec:	2aff      	cmp	r2, #255	; 0xff
 80022ee:	d1f6      	bne.n	80022de <__eqsf2+0x1e>
 80022f0:	2001      	movs	r0, #1
 80022f2:	2d00      	cmp	r5, #0
 80022f4:	d1f6      	bne.n	80022e4 <__eqsf2+0x24>
 80022f6:	2001      	movs	r0, #1
 80022f8:	4293      	cmp	r3, r2
 80022fa:	d1f3      	bne.n	80022e4 <__eqsf2+0x24>
 80022fc:	42ac      	cmp	r4, r5
 80022fe:	d1f1      	bne.n	80022e4 <__eqsf2+0x24>
 8002300:	428e      	cmp	r6, r1
 8002302:	d003      	beq.n	800230c <__eqsf2+0x4c>
 8002304:	2b00      	cmp	r3, #0
 8002306:	d1ed      	bne.n	80022e4 <__eqsf2+0x24>
 8002308:	2c00      	cmp	r4, #0
 800230a:	d1eb      	bne.n	80022e4 <__eqsf2+0x24>
 800230c:	2000      	movs	r0, #0
 800230e:	e7e9      	b.n	80022e4 <__eqsf2+0x24>

08002310 <__gesf2>:
 8002310:	b5f0      	push	{r4, r5, r6, r7, lr}
 8002312:	0243      	lsls	r3, r0, #9
 8002314:	0042      	lsls	r2, r0, #1
 8002316:	004f      	lsls	r7, r1, #1
 8002318:	0fc6      	lsrs	r6, r0, #31
 800231a:	0248      	lsls	r0, r1, #9
 800231c:	0a5c      	lsrs	r4, r3, #9
 800231e:	0a45      	lsrs	r5, r0, #9
 8002320:	0e13      	lsrs	r3, r2, #24
 8002322:	0fc9      	lsrs	r1, r1, #31
 8002324:	0e3a      	lsrs	r2, r7, #24
 8002326:	2bff      	cmp	r3, #255	; 0xff
 8002328:	d026      	beq.n	8002378 <__gesf2+0x68>
 800232a:	2aff      	cmp	r2, #255	; 0xff
 800232c:	d029      	beq.n	8002382 <__gesf2+0x72>
 800232e:	2b00      	cmp	r3, #0
 8002330:	d10c      	bne.n	800234c <__gesf2+0x3c>
 8002332:	4260      	negs	r0, r4
 8002334:	4160      	adcs	r0, r4
 8002336:	4684      	mov	ip, r0
 8002338:	2a00      	cmp	r2, #0
 800233a:	d00a      	beq.n	8002352 <__gesf2+0x42>
 800233c:	2800      	cmp	r0, #0
 800233e:	d116      	bne.n	800236e <__gesf2+0x5e>
 8002340:	428e      	cmp	r6, r1
 8002342:	d021      	beq.n	8002388 <__gesf2+0x78>
 8002344:	2e00      	cmp	r6, #0
 8002346:	d114      	bne.n	8002372 <__gesf2+0x62>
 8002348:	2001      	movs	r0, #1
 800234a:	e014      	b.n	8002376 <__gesf2+0x66>
 800234c:	2a00      	cmp	r2, #0
 800234e:	d1f7      	bne.n	8002340 <__gesf2+0x30>
 8002350:	4694      	mov	ip, r2
 8002352:	426f      	negs	r7, r5
 8002354:	416f      	adcs	r7, r5
 8002356:	4660      	mov	r0, ip
 8002358:	2800      	cmp	r0, #0
 800235a:	d105      	bne.n	8002368 <__gesf2+0x58>
 800235c:	2f00      	cmp	r7, #0
 800235e:	d0ef      	beq.n	8002340 <__gesf2+0x30>
 8002360:	2001      	movs	r0, #1
 8002362:	2e00      	cmp	r6, #0
 8002364:	d007      	beq.n	8002376 <__gesf2+0x66>
 8002366:	e004      	b.n	8002372 <__gesf2+0x62>
 8002368:	2000      	movs	r0, #0
 800236a:	2f00      	cmp	r7, #0
 800236c:	d103      	bne.n	8002376 <__gesf2+0x66>
 800236e:	2900      	cmp	r1, #0
 8002370:	d1ea      	bne.n	8002348 <__gesf2+0x38>
 8002372:	2101      	movs	r1, #1
 8002374:	4248      	negs	r0, r1
 8002376:	bdf0      	pop	{r4, r5, r6, r7, pc}
 8002378:	2c00      	cmp	r4, #0
 800237a:	d0d6      	beq.n	800232a <__gesf2+0x1a>
 800237c:	2202      	movs	r2, #2
 800237e:	4250      	negs	r0, r2
 8002380:	e7f9      	b.n	8002376 <__gesf2+0x66>
 8002382:	2d00      	cmp	r5, #0
 8002384:	d0d3      	beq.n	800232e <__gesf2+0x1e>
 8002386:	e7f9      	b.n	800237c <__gesf2+0x6c>
 8002388:	4293      	cmp	r3, r2
 800238a:	dcdb      	bgt.n	8002344 <__gesf2+0x34>
 800238c:	db04      	blt.n	8002398 <__gesf2+0x88>
 800238e:	42ac      	cmp	r4, r5
 8002390:	d8d8      	bhi.n	8002344 <__gesf2+0x34>
 8002392:	2000      	movs	r0, #0
 8002394:	42ac      	cmp	r4, r5
 8002396:	d2ee      	bcs.n	8002376 <__gesf2+0x66>
 8002398:	2e00      	cmp	r6, #0
 800239a:	d0ea      	beq.n	8002372 <__gesf2+0x62>
 800239c:	2001      	movs	r0, #1
 800239e:	e7ea      	b.n	8002376 <__gesf2+0x66>

080023a0 <__lesf2>:
 80023a0:	b5f0      	push	{r4, r5, r6, r7, lr}
 80023a2:	0243      	lsls	r3, r0, #9
 80023a4:	0042      	lsls	r2, r0, #1
 80023a6:	004f      	lsls	r7, r1, #1
 80023a8:	0fc6      	lsrs	r6, r0, #31
 80023aa:	0248      	lsls	r0, r1, #9
 80023ac:	0a5c      	lsrs	r4, r3, #9
 80023ae:	0a45      	lsrs	r5, r0, #9
 80023b0:	0e13      	lsrs	r3, r2, #24
 80023b2:	0fc9      	lsrs	r1, r1, #31
 80023b4:	0e3a      	lsrs	r2, r7, #24
 80023b6:	2bff      	cmp	r3, #255	; 0xff
 80023b8:	d026      	beq.n	8002408 <__lesf2+0x68>
 80023ba:	2aff      	cmp	r2, #255	; 0xff
 80023bc:	d028      	beq.n	8002410 <__lesf2+0x70>
 80023be:	2b00      	cmp	r3, #0
 80023c0:	d00f      	beq.n	80023e2 <__lesf2+0x42>
 80023c2:	2a00      	cmp	r2, #0
 80023c4:	d114      	bne.n	80023f0 <__lesf2+0x50>
 80023c6:	4694      	mov	ip, r2
 80023c8:	426f      	negs	r7, r5
 80023ca:	416f      	adcs	r7, r5
 80023cc:	4660      	mov	r0, ip
 80023ce:	2800      	cmp	r0, #0
 80023d0:	d014      	beq.n	80023fc <__lesf2+0x5c>
 80023d2:	2000      	movs	r0, #0
 80023d4:	2f00      	cmp	r7, #0
 80023d6:	d103      	bne.n	80023e0 <__lesf2+0x40>
 80023d8:	2900      	cmp	r1, #0
 80023da:	d10d      	bne.n	80023f8 <__lesf2+0x58>
 80023dc:	2101      	movs	r1, #1
 80023de:	4248      	negs	r0, r1
 80023e0:	bdf0      	pop	{r4, r5, r6, r7, pc}
 80023e2:	4260      	negs	r0, r4
 80023e4:	4160      	adcs	r0, r4
 80023e6:	4684      	mov	ip, r0
 80023e8:	2a00      	cmp	r2, #0
 80023ea:	d0ed      	beq.n	80023c8 <__lesf2+0x28>
 80023ec:	2800      	cmp	r0, #0
 80023ee:	d1f3      	bne.n	80023d8 <__lesf2+0x38>
 80023f0:	428e      	cmp	r6, r1
 80023f2:	d011      	beq.n	8002418 <__lesf2+0x78>
 80023f4:	2e00      	cmp	r6, #0
 80023f6:	d1f1      	bne.n	80023dc <__lesf2+0x3c>
 80023f8:	2001      	movs	r0, #1
 80023fa:	e7f1      	b.n	80023e0 <__lesf2+0x40>
 80023fc:	2f00      	cmp	r7, #0
 80023fe:	d0f7      	beq.n	80023f0 <__lesf2+0x50>
 8002400:	2001      	movs	r0, #1
 8002402:	2e00      	cmp	r6, #0
 8002404:	d0ec      	beq.n	80023e0 <__lesf2+0x40>
 8002406:	e7e9      	b.n	80023dc <__lesf2+0x3c>
 8002408:	2002      	movs	r0, #2
 800240a:	2c00      	cmp	r4, #0
 800240c:	d1e8      	bne.n	80023e0 <__lesf2+0x40>
 800240e:	e7d4      	b.n	80023ba <__lesf2+0x1a>
 8002410:	2002      	movs	r0, #2
 8002412:	2d00      	cmp	r5, #0
 8002414:	d1e4      	bne.n	80023e0 <__lesf2+0x40>
 8002416:	e7d2      	b.n	80023be <__lesf2+0x1e>
 8002418:	4293      	cmp	r3, r2
 800241a:	dceb      	bgt.n	80023f4 <__lesf2+0x54>
 800241c:	db04      	blt.n	8002428 <__lesf2+0x88>
 800241e:	42ac      	cmp	r4, r5
 8002420:	d8e8      	bhi.n	80023f4 <__lesf2+0x54>
 8002422:	2000      	movs	r0, #0
 8002424:	42ac      	cmp	r4, r5
 8002426:	d2db      	bcs.n	80023e0 <__lesf2+0x40>
 8002428:	2e00      	cmp	r6, #0
 800242a:	d0d7      	beq.n	80023dc <__lesf2+0x3c>
 800242c:	2001      	movs	r0, #1
 800242e:	e7d7      	b.n	80023e0 <__lesf2+0x40>

08002430 <__aeabi_fmul>:
 8002430:	b5f0      	push	{r4, r5, r6, r7, lr}
 8002432:	465f      	mov	r7, fp
 8002434:	4656      	mov	r6, sl
 8002436:	464d      	mov	r5, r9
 8002438:	4644      	mov	r4, r8
 800243a:	b4f0      	push	{r4, r5, r6, r7}
 800243c:	0245      	lsls	r5, r0, #9
 800243e:	0046      	lsls	r6, r0, #1
 8002440:	b083      	sub	sp, #12
 8002442:	1c0f      	adds	r7, r1, #0
 8002444:	0a6d      	lsrs	r5, r5, #9
 8002446:	0e36      	lsrs	r6, r6, #24
 8002448:	0fc4      	lsrs	r4, r0, #31
 800244a:	2e00      	cmp	r6, #0
 800244c:	d106      	bne.n	800245c <__aeabi_fmul+0x2c>
 800244e:	2d00      	cmp	r5, #0
 8002450:	d170      	bne.n	8002534 <__aeabi_fmul+0x104>
 8002452:	2104      	movs	r1, #4
 8002454:	2201      	movs	r2, #1
 8002456:	4688      	mov	r8, r1
 8002458:	4692      	mov	sl, r2
 800245a:	e009      	b.n	8002470 <__aeabi_fmul+0x40>
 800245c:	2eff      	cmp	r6, #255	; 0xff
 800245e:	d043      	beq.n	80024e8 <__aeabi_fmul+0xb8>
 8002460:	2380      	movs	r3, #128	; 0x80
 8002462:	0418      	lsls	r0, r3, #16
 8002464:	2100      	movs	r1, #0
 8002466:	4305      	orrs	r5, r0
 8002468:	00ed      	lsls	r5, r5, #3
 800246a:	3e7f      	subs	r6, #127	; 0x7f
 800246c:	4688      	mov	r8, r1
 800246e:	468a      	mov	sl, r1
 8002470:	1c38      	adds	r0, r7, #0
 8002472:	0043      	lsls	r3, r0, #1
 8002474:	027f      	lsls	r7, r7, #9
 8002476:	0fc1      	lsrs	r1, r0, #31
 8002478:	0a7f      	lsrs	r7, r7, #9
 800247a:	0e1b      	lsrs	r3, r3, #24
 800247c:	468b      	mov	fp, r1
 800247e:	d13a      	bne.n	80024f6 <__aeabi_fmul+0xc6>
 8002480:	2101      	movs	r1, #1
 8002482:	2f00      	cmp	r7, #0
 8002484:	d162      	bne.n	800254c <__aeabi_fmul+0x11c>
 8002486:	4658      	mov	r0, fp
 8002488:	4060      	eors	r0, r4
 800248a:	4642      	mov	r2, r8
 800248c:	9001      	str	r0, [sp, #4]
 800248e:	430a      	orrs	r2, r1
 8002490:	2a0f      	cmp	r2, #15
 8002492:	d93f      	bls.n	8002514 <__aeabi_fmul+0xe4>
 8002494:	042c      	lsls	r4, r5, #16
 8002496:	18f0      	adds	r0, r6, r3
 8002498:	0c26      	lsrs	r6, r4, #16
 800249a:	043b      	lsls	r3, r7, #16
 800249c:	0c1a      	lsrs	r2, r3, #16
 800249e:	1c31      	adds	r1, r6, #0
 80024a0:	4351      	muls	r1, r2
 80024a2:	0c3f      	lsrs	r7, r7, #16
 80024a4:	0c2d      	lsrs	r5, r5, #16
 80024a6:	437e      	muls	r6, r7
 80024a8:	436a      	muls	r2, r5
 80024aa:	4681      	mov	r9, r0
 80024ac:	0c08      	lsrs	r0, r1, #16
 80024ae:	1836      	adds	r6, r6, r0
 80024b0:	1c2c      	adds	r4, r5, #0
 80024b2:	18b3      	adds	r3, r6, r2
 80024b4:	437c      	muls	r4, r7
 80024b6:	429a      	cmp	r2, r3
 80024b8:	d900      	bls.n	80024bc <__aeabi_fmul+0x8c>
 80024ba:	e09a      	b.n	80025f2 <__aeabi_fmul+0x1c2>
 80024bc:	0409      	lsls	r1, r1, #16
 80024be:	041d      	lsls	r5, r3, #16
 80024c0:	0c08      	lsrs	r0, r1, #16
 80024c2:	182e      	adds	r6, r5, r0
 80024c4:	01b5      	lsls	r5, r6, #6
 80024c6:	0c1b      	lsrs	r3, r3, #16
 80024c8:	1e69      	subs	r1, r5, #1
 80024ca:	418d      	sbcs	r5, r1
 80024cc:	0eb2      	lsrs	r2, r6, #26
 80024ce:	18e7      	adds	r7, r4, r3
 80024d0:	4315      	orrs	r5, r2
 80024d2:	01bc      	lsls	r4, r7, #6
 80024d4:	4325      	orrs	r5, r4
 80024d6:	012b      	lsls	r3, r5, #4
 80024d8:	d54b      	bpl.n	8002572 <__aeabi_fmul+0x142>
 80024da:	2001      	movs	r0, #1
 80024dc:	4028      	ands	r0, r5
 80024de:	2101      	movs	r1, #1
 80024e0:	086d      	lsrs	r5, r5, #1
 80024e2:	4489      	add	r9, r1
 80024e4:	4305      	orrs	r5, r0
 80024e6:	e044      	b.n	8002572 <__aeabi_fmul+0x142>
 80024e8:	2d00      	cmp	r5, #0
 80024ea:	d11e      	bne.n	800252a <__aeabi_fmul+0xfa>
 80024ec:	2008      	movs	r0, #8
 80024ee:	2102      	movs	r1, #2
 80024f0:	4680      	mov	r8, r0
 80024f2:	468a      	mov	sl, r1
 80024f4:	e7bc      	b.n	8002470 <__aeabi_fmul+0x40>
 80024f6:	2bff      	cmp	r3, #255	; 0xff
 80024f8:	d012      	beq.n	8002520 <__aeabi_fmul+0xf0>
 80024fa:	2280      	movs	r2, #128	; 0x80
 80024fc:	0410      	lsls	r0, r2, #16
 80024fe:	4307      	orrs	r7, r0
 8002500:	4658      	mov	r0, fp
 8002502:	2100      	movs	r1, #0
 8002504:	4060      	eors	r0, r4
 8002506:	4642      	mov	r2, r8
 8002508:	00ff      	lsls	r7, r7, #3
 800250a:	3b7f      	subs	r3, #127	; 0x7f
 800250c:	9001      	str	r0, [sp, #4]
 800250e:	430a      	orrs	r2, r1
 8002510:	2a0f      	cmp	r2, #15
 8002512:	d8bf      	bhi.n	8002494 <__aeabi_fmul+0x64>
 8002514:	0090      	lsls	r0, r2, #2
 8002516:	4a5b      	ldr	r2, [pc, #364]	; (8002684 <__aeabi_fmul+0x254>)
 8002518:	4684      	mov	ip, r0
 800251a:	4462      	add	r2, ip
 800251c:	6810      	ldr	r0, [r2, #0]
 800251e:	4687      	mov	pc, r0
 8002520:	1c39      	adds	r1, r7, #0
 8002522:	1e4a      	subs	r2, r1, #1
 8002524:	4191      	sbcs	r1, r2
 8002526:	3102      	adds	r1, #2
 8002528:	e7ad      	b.n	8002486 <__aeabi_fmul+0x56>
 800252a:	220c      	movs	r2, #12
 800252c:	2303      	movs	r3, #3
 800252e:	4690      	mov	r8, r2
 8002530:	469a      	mov	sl, r3
 8002532:	e79d      	b.n	8002470 <__aeabi_fmul+0x40>
 8002534:	1c28      	adds	r0, r5, #0
 8002536:	f001 fc07 	bl	8003d48 <__clzsi2>
 800253a:	2276      	movs	r2, #118	; 0x76
 800253c:	1f46      	subs	r6, r0, #5
 800253e:	4253      	negs	r3, r2
 8002540:	40b5      	lsls	r5, r6
 8002542:	1a1e      	subs	r6, r3, r0
 8002544:	2000      	movs	r0, #0
 8002546:	4680      	mov	r8, r0
 8002548:	4682      	mov	sl, r0
 800254a:	e791      	b.n	8002470 <__aeabi_fmul+0x40>
 800254c:	1c38      	adds	r0, r7, #0
 800254e:	f001 fbfb 	bl	8003d48 <__clzsi2>
 8002552:	2176      	movs	r1, #118	; 0x76
 8002554:	1f43      	subs	r3, r0, #5
 8002556:	424a      	negs	r2, r1
 8002558:	409f      	lsls	r7, r3
 800255a:	2100      	movs	r1, #0
 800255c:	1a13      	subs	r3, r2, r0
 800255e:	e792      	b.n	8002486 <__aeabi_fmul+0x56>
 8002560:	9401      	str	r4, [sp, #4]
 8002562:	4651      	mov	r1, sl
 8002564:	2902      	cmp	r1, #2
 8002566:	d02c      	beq.n	80025c2 <__aeabi_fmul+0x192>
 8002568:	2903      	cmp	r1, #3
 800256a:	d100      	bne.n	800256e <__aeabi_fmul+0x13e>
 800256c:	e080      	b.n	8002670 <__aeabi_fmul+0x240>
 800256e:	2901      	cmp	r1, #1
 8002570:	d048      	beq.n	8002604 <__aeabi_fmul+0x1d4>
 8002572:	464e      	mov	r6, r9
 8002574:	367f      	adds	r6, #127	; 0x7f
 8002576:	2e00      	cmp	r6, #0
 8002578:	dd51      	ble.n	800261e <__aeabi_fmul+0x1ee>
 800257a:	240f      	movs	r4, #15
 800257c:	402c      	ands	r4, r5
 800257e:	2c04      	cmp	r4, #4
 8002580:	d000      	beq.n	8002584 <__aeabi_fmul+0x154>
 8002582:	3504      	adds	r5, #4
 8002584:	012a      	lsls	r2, r5, #4
 8002586:	d503      	bpl.n	8002590 <__aeabi_fmul+0x160>
 8002588:	493f      	ldr	r1, [pc, #252]	; (8002688 <__aeabi_fmul+0x258>)
 800258a:	464e      	mov	r6, r9
 800258c:	400d      	ands	r5, r1
 800258e:	3680      	adds	r6, #128	; 0x80
 8002590:	2efe      	cmp	r6, #254	; 0xfe
 8002592:	dd3d      	ble.n	8002610 <__aeabi_fmul+0x1e0>
 8002594:	9b01      	ldr	r3, [sp, #4]
 8002596:	2401      	movs	r4, #1
 8002598:	401c      	ands	r4, r3
 800259a:	21ff      	movs	r1, #255	; 0xff
 800259c:	2500      	movs	r5, #0
 800259e:	05c8      	lsls	r0, r1, #23
 80025a0:	07e2      	lsls	r2, r4, #31
 80025a2:	4328      	orrs	r0, r5
 80025a4:	4310      	orrs	r0, r2
 80025a6:	b003      	add	sp, #12
 80025a8:	bc3c      	pop	{r2, r3, r4, r5}
 80025aa:	4690      	mov	r8, r2
 80025ac:	4699      	mov	r9, r3
 80025ae:	46a2      	mov	sl, r4
 80025b0:	46ab      	mov	fp, r5
 80025b2:	bdf0      	pop	{r4, r5, r6, r7, pc}
 80025b4:	2400      	movs	r4, #0
 80025b6:	4d35      	ldr	r5, [pc, #212]	; (800268c <__aeabi_fmul+0x25c>)
 80025b8:	21ff      	movs	r1, #255	; 0xff
 80025ba:	e7f0      	b.n	800259e <__aeabi_fmul+0x16e>
 80025bc:	4651      	mov	r1, sl
 80025be:	2902      	cmp	r1, #2
 80025c0:	d1d2      	bne.n	8002568 <__aeabi_fmul+0x138>
 80025c2:	9d01      	ldr	r5, [sp, #4]
 80025c4:	2401      	movs	r4, #1
 80025c6:	402c      	ands	r4, r5
 80025c8:	21ff      	movs	r1, #255	; 0xff
 80025ca:	2500      	movs	r5, #0
 80025cc:	e7e7      	b.n	800259e <__aeabi_fmul+0x16e>
 80025ce:	465e      	mov	r6, fp
 80025d0:	1c3d      	adds	r5, r7, #0
 80025d2:	9601      	str	r6, [sp, #4]
 80025d4:	e7c6      	b.n	8002564 <__aeabi_fmul+0x134>
 80025d6:	1c3d      	adds	r5, r7, #0
 80025d8:	e7c4      	b.n	8002564 <__aeabi_fmul+0x134>
 80025da:	2680      	movs	r6, #128	; 0x80
 80025dc:	03f3      	lsls	r3, r6, #15
 80025de:	421d      	tst	r5, r3
 80025e0:	d00b      	beq.n	80025fa <__aeabi_fmul+0x1ca>
 80025e2:	421f      	tst	r7, r3
 80025e4:	d109      	bne.n	80025fa <__aeabi_fmul+0x1ca>
 80025e6:	431f      	orrs	r7, r3
 80025e8:	027a      	lsls	r2, r7, #9
 80025ea:	0a55      	lsrs	r5, r2, #9
 80025ec:	465c      	mov	r4, fp
 80025ee:	21ff      	movs	r1, #255	; 0xff
 80025f0:	e7d5      	b.n	800259e <__aeabi_fmul+0x16e>
 80025f2:	2280      	movs	r2, #128	; 0x80
 80025f4:	0257      	lsls	r7, r2, #9
 80025f6:	19e4      	adds	r4, r4, r7
 80025f8:	e760      	b.n	80024bc <__aeabi_fmul+0x8c>
 80025fa:	431d      	orrs	r5, r3
 80025fc:	026f      	lsls	r7, r5, #9
 80025fe:	0a7d      	lsrs	r5, r7, #9
 8002600:	21ff      	movs	r1, #255	; 0xff
 8002602:	e7cc      	b.n	800259e <__aeabi_fmul+0x16e>
 8002604:	9b01      	ldr	r3, [sp, #4]
 8002606:	2500      	movs	r5, #0
 8002608:	4019      	ands	r1, r3
 800260a:	b2cc      	uxtb	r4, r1
 800260c:	2100      	movs	r1, #0
 800260e:	e7c6      	b.n	800259e <__aeabi_fmul+0x16e>
 8002610:	9801      	ldr	r0, [sp, #4]
 8002612:	01ad      	lsls	r5, r5, #6
 8002614:	2401      	movs	r4, #1
 8002616:	0a6d      	lsrs	r5, r5, #9
 8002618:	b2f1      	uxtb	r1, r6
 800261a:	4004      	ands	r4, r0
 800261c:	e7bf      	b.n	800259e <__aeabi_fmul+0x16e>
 800261e:	267e      	movs	r6, #126	; 0x7e
 8002620:	4273      	negs	r3, r6
 8002622:	464a      	mov	r2, r9
 8002624:	1a9f      	subs	r7, r3, r2
 8002626:	2f1b      	cmp	r7, #27
 8002628:	dd05      	ble.n	8002636 <__aeabi_fmul+0x206>
 800262a:	9d01      	ldr	r5, [sp, #4]
 800262c:	2401      	movs	r4, #1
 800262e:	402c      	ands	r4, r5
 8002630:	2100      	movs	r1, #0
 8002632:	2500      	movs	r5, #0
 8002634:	e7b3      	b.n	800259e <__aeabi_fmul+0x16e>
 8002636:	4649      	mov	r1, r9
 8002638:	319e      	adds	r1, #158	; 0x9e
 800263a:	1c2c      	adds	r4, r5, #0
 800263c:	408d      	lsls	r5, r1
 800263e:	1c2e      	adds	r6, r5, #0
 8002640:	40fc      	lsrs	r4, r7
 8002642:	1e75      	subs	r5, r6, #1
 8002644:	41ae      	sbcs	r6, r5
 8002646:	4326      	orrs	r6, r4
 8002648:	200f      	movs	r0, #15
 800264a:	4030      	ands	r0, r6
 800264c:	2804      	cmp	r0, #4
 800264e:	d000      	beq.n	8002652 <__aeabi_fmul+0x222>
 8002650:	3604      	adds	r6, #4
 8002652:	0170      	lsls	r0, r6, #5
 8002654:	d505      	bpl.n	8002662 <__aeabi_fmul+0x232>
 8002656:	9f01      	ldr	r7, [sp, #4]
 8002658:	2401      	movs	r4, #1
 800265a:	403c      	ands	r4, r7
 800265c:	2101      	movs	r1, #1
 800265e:	2500      	movs	r5, #0
 8002660:	e79d      	b.n	800259e <__aeabi_fmul+0x16e>
 8002662:	9a01      	ldr	r2, [sp, #4]
 8002664:	01b3      	lsls	r3, r6, #6
 8002666:	2401      	movs	r4, #1
 8002668:	0a5d      	lsrs	r5, r3, #9
 800266a:	4014      	ands	r4, r2
 800266c:	2100      	movs	r1, #0
 800266e:	e796      	b.n	800259e <__aeabi_fmul+0x16e>
 8002670:	2280      	movs	r2, #128	; 0x80
 8002672:	03d0      	lsls	r0, r2, #15
 8002674:	4305      	orrs	r5, r0
 8002676:	026c      	lsls	r4, r5, #9
 8002678:	9901      	ldr	r1, [sp, #4]
 800267a:	0a65      	lsrs	r5, r4, #9
 800267c:	2401      	movs	r4, #1
 800267e:	400c      	ands	r4, r1
 8002680:	21ff      	movs	r1, #255	; 0xff
 8002682:	e78c      	b.n	800259e <__aeabi_fmul+0x16e>
 8002684:	08005214 	.word	0x08005214
 8002688:	f7ffffff 	.word	0xf7ffffff
 800268c:	007fffff 	.word	0x007fffff

08002690 <__aeabi_f2iz>:
 8002690:	0243      	lsls	r3, r0, #9
 8002692:	0042      	lsls	r2, r0, #1
 8002694:	0a59      	lsrs	r1, r3, #9
 8002696:	0e13      	lsrs	r3, r2, #24
 8002698:	0fc2      	lsrs	r2, r0, #31
 800269a:	2000      	movs	r0, #0
 800269c:	2b7e      	cmp	r3, #126	; 0x7e
 800269e:	dd0d      	ble.n	80026bc <__aeabi_f2iz+0x2c>
 80026a0:	2b9d      	cmp	r3, #157	; 0x9d
 80026a2:	dc0c      	bgt.n	80026be <__aeabi_f2iz+0x2e>
 80026a4:	2080      	movs	r0, #128	; 0x80
 80026a6:	0400      	lsls	r0, r0, #16
 80026a8:	4301      	orrs	r1, r0
 80026aa:	2b95      	cmp	r3, #149	; 0x95
 80026ac:	dc0a      	bgt.n	80026c4 <__aeabi_f2iz+0x34>
 80026ae:	2096      	movs	r0, #150	; 0x96
 80026b0:	1ac3      	subs	r3, r0, r3
 80026b2:	40d9      	lsrs	r1, r3
 80026b4:	4248      	negs	r0, r1
 80026b6:	2a00      	cmp	r2, #0
 80026b8:	d100      	bne.n	80026bc <__aeabi_f2iz+0x2c>
 80026ba:	1c08      	adds	r0, r1, #0
 80026bc:	4770      	bx	lr
 80026be:	4903      	ldr	r1, [pc, #12]	; (80026cc <__aeabi_f2iz+0x3c>)
 80026c0:	1850      	adds	r0, r2, r1
 80026c2:	e7fb      	b.n	80026bc <__aeabi_f2iz+0x2c>
 80026c4:	3b96      	subs	r3, #150	; 0x96
 80026c6:	4099      	lsls	r1, r3
 80026c8:	e7f4      	b.n	80026b4 <__aeabi_f2iz+0x24>
 80026ca:	46c0      	nop			; (mov r8, r8)
 80026cc:	7fffffff 	.word	0x7fffffff

080026d0 <__aeabi_i2f>:
 80026d0:	b570      	push	{r4, r5, r6, lr}
 80026d2:	1e04      	subs	r4, r0, #0
 80026d4:	d03c      	beq.n	8002750 <__aeabi_i2f+0x80>
 80026d6:	0fc5      	lsrs	r5, r0, #31
 80026d8:	d000      	beq.n	80026dc <__aeabi_i2f+0xc>
 80026da:	4244      	negs	r4, r0
 80026dc:	1c20      	adds	r0, r4, #0
 80026de:	f001 fb33 	bl	8003d48 <__clzsi2>
 80026e2:	219e      	movs	r1, #158	; 0x9e
 80026e4:	1c26      	adds	r6, r4, #0
 80026e6:	1a0b      	subs	r3, r1, r0
 80026e8:	2b96      	cmp	r3, #150	; 0x96
 80026ea:	dc0a      	bgt.n	8002702 <__aeabi_i2f+0x32>
 80026ec:	3808      	subs	r0, #8
 80026ee:	4084      	lsls	r4, r0
 80026f0:	0261      	lsls	r1, r4, #9
 80026f2:	0a4c      	lsrs	r4, r1, #9
 80026f4:	b2db      	uxtb	r3, r3
 80026f6:	05db      	lsls	r3, r3, #23
 80026f8:	431c      	orrs	r4, r3
 80026fa:	07ed      	lsls	r5, r5, #31
 80026fc:	1c20      	adds	r0, r4, #0
 80026fe:	4328      	orrs	r0, r5
 8002700:	bd70      	pop	{r4, r5, r6, pc}
 8002702:	2b99      	cmp	r3, #153	; 0x99
 8002704:	dd0a      	ble.n	800271c <__aeabi_i2f+0x4c>
 8002706:	2205      	movs	r2, #5
 8002708:	1a14      	subs	r4, r2, r0
 800270a:	1c31      	adds	r1, r6, #0
 800270c:	40e1      	lsrs	r1, r4
 800270e:	1c04      	adds	r4, r0, #0
 8002710:	341b      	adds	r4, #27
 8002712:	40a6      	lsls	r6, r4
 8002714:	1c0a      	adds	r2, r1, #0
 8002716:	1e71      	subs	r1, r6, #1
 8002718:	418e      	sbcs	r6, r1
 800271a:	4316      	orrs	r6, r2
 800271c:	2805      	cmp	r0, #5
 800271e:	dc1b      	bgt.n	8002758 <__aeabi_i2f+0x88>
 8002720:	4c14      	ldr	r4, [pc, #80]	; (8002774 <__aeabi_i2f+0xa4>)
 8002722:	220f      	movs	r2, #15
 8002724:	4034      	ands	r4, r6
 8002726:	4016      	ands	r6, r2
 8002728:	2e04      	cmp	r6, #4
 800272a:	d000      	beq.n	800272e <__aeabi_i2f+0x5e>
 800272c:	3404      	adds	r4, #4
 800272e:	0162      	lsls	r2, r4, #5
 8002730:	d505      	bpl.n	800273e <__aeabi_i2f+0x6e>
 8002732:	239f      	movs	r3, #159	; 0x9f
 8002734:	1a1b      	subs	r3, r3, r0
 8002736:	2bff      	cmp	r3, #255	; 0xff
 8002738:	d00c      	beq.n	8002754 <__aeabi_i2f+0x84>
 800273a:	480e      	ldr	r0, [pc, #56]	; (8002774 <__aeabi_i2f+0xa4>)
 800273c:	4004      	ands	r4, r0
 800273e:	1c5e      	adds	r6, r3, #1
 8002740:	b2f1      	uxtb	r1, r6
 8002742:	08e4      	lsrs	r4, r4, #3
 8002744:	2901      	cmp	r1, #1
 8002746:	dd0a      	ble.n	800275e <__aeabi_i2f+0x8e>
 8002748:	0264      	lsls	r4, r4, #9
 800274a:	0a64      	lsrs	r4, r4, #9
 800274c:	b2db      	uxtb	r3, r3
 800274e:	e7d2      	b.n	80026f6 <__aeabi_i2f+0x26>
 8002750:	2500      	movs	r5, #0
 8002752:	2300      	movs	r3, #0
 8002754:	2400      	movs	r4, #0
 8002756:	e7ce      	b.n	80026f6 <__aeabi_i2f+0x26>
 8002758:	1f41      	subs	r1, r0, #5
 800275a:	408e      	lsls	r6, r1
 800275c:	e7e0      	b.n	8002720 <__aeabi_i2f+0x50>
 800275e:	2c00      	cmp	r4, #0
 8002760:	d0f4      	beq.n	800274c <__aeabi_i2f+0x7c>
 8002762:	2b00      	cmp	r3, #0
 8002764:	d003      	beq.n	800276e <__aeabi_i2f+0x9e>
 8002766:	2280      	movs	r2, #128	; 0x80
 8002768:	03d0      	lsls	r0, r2, #15
 800276a:	4304      	orrs	r4, r0
 800276c:	e7ec      	b.n	8002748 <__aeabi_i2f+0x78>
 800276e:	0266      	lsls	r6, r4, #9
 8002770:	0a74      	lsrs	r4, r6, #9
 8002772:	e7c0      	b.n	80026f6 <__aeabi_i2f+0x26>
 8002774:	fbffffff 	.word	0xfbffffff

08002778 <__aeabi_ui2f>:
 8002778:	b510      	push	{r4, lr}
 800277a:	1e04      	subs	r4, r0, #0
 800277c:	d034      	beq.n	80027e8 <__aeabi_ui2f+0x70>
 800277e:	f001 fae3 	bl	8003d48 <__clzsi2>
 8002782:	239e      	movs	r3, #158	; 0x9e
 8002784:	1a1b      	subs	r3, r3, r0
 8002786:	2b96      	cmp	r3, #150	; 0x96
 8002788:	dc07      	bgt.n	800279a <__aeabi_ui2f+0x22>
 800278a:	3808      	subs	r0, #8
 800278c:	4084      	lsls	r4, r0
 800278e:	0264      	lsls	r4, r4, #9
 8002790:	0a61      	lsrs	r1, r4, #9
 8002792:	b2db      	uxtb	r3, r3
 8002794:	05d8      	lsls	r0, r3, #23
 8002796:	4308      	orrs	r0, r1
 8002798:	bd10      	pop	{r4, pc}
 800279a:	2b99      	cmp	r3, #153	; 0x99
 800279c:	dd0a      	ble.n	80027b4 <__aeabi_ui2f+0x3c>
 800279e:	1c02      	adds	r2, r0, #0
 80027a0:	321b      	adds	r2, #27
 80027a2:	1c21      	adds	r1, r4, #0
 80027a4:	4091      	lsls	r1, r2
 80027a6:	1c0a      	adds	r2, r1, #0
 80027a8:	1e51      	subs	r1, r2, #1
 80027aa:	418a      	sbcs	r2, r1
 80027ac:	2105      	movs	r1, #5
 80027ae:	1a09      	subs	r1, r1, r0
 80027b0:	40cc      	lsrs	r4, r1
 80027b2:	4314      	orrs	r4, r2
 80027b4:	2805      	cmp	r0, #5
 80027b6:	dc1a      	bgt.n	80027ee <__aeabi_ui2f+0x76>
 80027b8:	4a18      	ldr	r2, [pc, #96]	; (800281c <__aeabi_ui2f+0xa4>)
 80027ba:	210f      	movs	r1, #15
 80027bc:	4022      	ands	r2, r4
 80027be:	400c      	ands	r4, r1
 80027c0:	2c04      	cmp	r4, #4
 80027c2:	d000      	beq.n	80027c6 <__aeabi_ui2f+0x4e>
 80027c4:	3204      	adds	r2, #4
 80027c6:	0151      	lsls	r1, r2, #5
 80027c8:	d505      	bpl.n	80027d6 <__aeabi_ui2f+0x5e>
 80027ca:	249f      	movs	r4, #159	; 0x9f
 80027cc:	1a23      	subs	r3, r4, r0
 80027ce:	2bff      	cmp	r3, #255	; 0xff
 80027d0:	d021      	beq.n	8002816 <__aeabi_ui2f+0x9e>
 80027d2:	4812      	ldr	r0, [pc, #72]	; (800281c <__aeabi_ui2f+0xa4>)
 80027d4:	4002      	ands	r2, r0
 80027d6:	1c59      	adds	r1, r3, #1
 80027d8:	b2cc      	uxtb	r4, r1
 80027da:	08d2      	lsrs	r2, r2, #3
 80027dc:	2c01      	cmp	r4, #1
 80027de:	dd09      	ble.n	80027f4 <__aeabi_ui2f+0x7c>
 80027e0:	0250      	lsls	r0, r2, #9
 80027e2:	0a41      	lsrs	r1, r0, #9
 80027e4:	b2db      	uxtb	r3, r3
 80027e6:	e7d5      	b.n	8002794 <__aeabi_ui2f+0x1c>
 80027e8:	2300      	movs	r3, #0
 80027ea:	2100      	movs	r1, #0
 80027ec:	e7d2      	b.n	8002794 <__aeabi_ui2f+0x1c>
 80027ee:	1f42      	subs	r2, r0, #5
 80027f0:	4094      	lsls	r4, r2
 80027f2:	e7e1      	b.n	80027b8 <__aeabi_ui2f+0x40>
 80027f4:	2a00      	cmp	r2, #0
 80027f6:	d00b      	beq.n	8002810 <__aeabi_ui2f+0x98>
 80027f8:	2b00      	cmp	r3, #0
 80027fa:	d006      	beq.n	800280a <__aeabi_ui2f+0x92>
 80027fc:	2180      	movs	r1, #128	; 0x80
 80027fe:	03cc      	lsls	r4, r1, #15
 8002800:	4322      	orrs	r2, r4
 8002802:	0252      	lsls	r2, r2, #9
 8002804:	0a51      	lsrs	r1, r2, #9
 8002806:	b2db      	uxtb	r3, r3
 8002808:	e7c4      	b.n	8002794 <__aeabi_ui2f+0x1c>
 800280a:	0250      	lsls	r0, r2, #9
 800280c:	0a41      	lsrs	r1, r0, #9
 800280e:	e7c1      	b.n	8002794 <__aeabi_ui2f+0x1c>
 8002810:	b2db      	uxtb	r3, r3
 8002812:	2100      	movs	r1, #0
 8002814:	e7be      	b.n	8002794 <__aeabi_ui2f+0x1c>
 8002816:	23ff      	movs	r3, #255	; 0xff
 8002818:	2100      	movs	r1, #0
 800281a:	e7bb      	b.n	8002794 <__aeabi_ui2f+0x1c>
 800281c:	fbffffff 	.word	0xfbffffff

08002820 <__aeabi_dadd>:
 8002820:	b5f8      	push	{r3, r4, r5, r6, r7, lr}
 8002822:	465f      	mov	r7, fp
 8002824:	4656      	mov	r6, sl
 8002826:	464d      	mov	r5, r9
 8002828:	4644      	mov	r4, r8
 800282a:	b4f0      	push	{r4, r5, r6, r7}
 800282c:	030c      	lsls	r4, r1, #12
 800282e:	0f46      	lsrs	r6, r0, #29
 8002830:	0a64      	lsrs	r4, r4, #9
 8002832:	4334      	orrs	r4, r6
 8002834:	46a3      	mov	fp, r4
 8002836:	005e      	lsls	r6, r3, #1
 8002838:	031c      	lsls	r4, r3, #12
 800283a:	0fdb      	lsrs	r3, r3, #31
 800283c:	469c      	mov	ip, r3
 800283e:	0a63      	lsrs	r3, r4, #9
 8002840:	4698      	mov	r8, r3
 8002842:	004d      	lsls	r5, r1, #1
 8002844:	0f53      	lsrs	r3, r2, #29
 8002846:	4644      	mov	r4, r8
 8002848:	431c      	orrs	r4, r3
 800284a:	0d6d      	lsrs	r5, r5, #21
 800284c:	0fc9      	lsrs	r1, r1, #31
 800284e:	0d76      	lsrs	r6, r6, #21
 8002850:	00d2      	lsls	r2, r2, #3
 8002852:	1c0f      	adds	r7, r1, #0
 8002854:	00c0      	lsls	r0, r0, #3
 8002856:	46a1      	mov	r9, r4
 8002858:	4692      	mov	sl, r2
 800285a:	1bab      	subs	r3, r5, r6
 800285c:	4561      	cmp	r1, ip
 800285e:	d100      	bne.n	8002862 <__aeabi_dadd+0x42>
 8002860:	e0a4      	b.n	80029ac <__aeabi_dadd+0x18c>
 8002862:	2b00      	cmp	r3, #0
 8002864:	dc00      	bgt.n	8002868 <__aeabi_dadd+0x48>
 8002866:	e0f5      	b.n	8002a54 <__aeabi_dadd+0x234>
 8002868:	2e00      	cmp	r6, #0
 800286a:	d10c      	bne.n	8002886 <__aeabi_dadd+0x66>
 800286c:	1c26      	adds	r6, r4, #0
 800286e:	4316      	orrs	r6, r2
 8002870:	d100      	bne.n	8002874 <__aeabi_dadd+0x54>
 8002872:	e0c2      	b.n	80029fa <__aeabi_dadd+0x1da>
 8002874:	3b01      	subs	r3, #1
 8002876:	2b00      	cmp	r3, #0
 8002878:	d000      	beq.n	800287c <__aeabi_dadd+0x5c>
 800287a:	e146      	b.n	8002b0a <__aeabi_dadd+0x2ea>
 800287c:	465c      	mov	r4, fp
 800287e:	464b      	mov	r3, r9
 8002880:	1a82      	subs	r2, r0, r2
 8002882:	1ae7      	subs	r7, r4, r3
 8002884:	e021      	b.n	80028ca <__aeabi_dadd+0xaa>
 8002886:	4ed2      	ldr	r6, [pc, #840]	; (8002bd0 <__aeabi_dadd+0x3b0>)
 8002888:	42b5      	cmp	r5, r6
 800288a:	d100      	bne.n	800288e <__aeabi_dadd+0x6e>
 800288c:	e0cd      	b.n	8002a2a <__aeabi_dadd+0x20a>
 800288e:	2480      	movs	r4, #128	; 0x80
 8002890:	464a      	mov	r2, r9
 8002892:	0427      	lsls	r7, r4, #16
 8002894:	433a      	orrs	r2, r7
 8002896:	4691      	mov	r9, r2
 8002898:	2b38      	cmp	r3, #56	; 0x38
 800289a:	dd00      	ble.n	800289e <__aeabi_dadd+0x7e>
 800289c:	e10f      	b.n	8002abe <__aeabi_dadd+0x29e>
 800289e:	2b1f      	cmp	r3, #31
 80028a0:	dd00      	ble.n	80028a4 <__aeabi_dadd+0x84>
 80028a2:	e150      	b.n	8002b46 <__aeabi_dadd+0x326>
 80028a4:	2620      	movs	r6, #32
 80028a6:	1af6      	subs	r6, r6, r3
 80028a8:	464c      	mov	r4, r9
 80028aa:	4652      	mov	r2, sl
 80028ac:	4657      	mov	r7, sl
 80028ae:	40b4      	lsls	r4, r6
 80028b0:	40b7      	lsls	r7, r6
 80028b2:	40da      	lsrs	r2, r3
 80028b4:	4322      	orrs	r2, r4
 80028b6:	1c3e      	adds	r6, r7, #0
 80028b8:	464c      	mov	r4, r9
 80028ba:	1e77      	subs	r7, r6, #1
 80028bc:	41be      	sbcs	r6, r7
 80028be:	40dc      	lsrs	r4, r3
 80028c0:	4332      	orrs	r2, r6
 80028c2:	1c26      	adds	r6, r4, #0
 80028c4:	465b      	mov	r3, fp
 80028c6:	1a82      	subs	r2, r0, r2
 80028c8:	1b9f      	subs	r7, r3, r6
 80028ca:	4290      	cmp	r0, r2
 80028cc:	4180      	sbcs	r0, r0
 80028ce:	4246      	negs	r6, r0
 80028d0:	1bbb      	subs	r3, r7, r6
 80028d2:	1c14      	adds	r4, r2, #0
 80028d4:	1c2e      	adds	r6, r5, #0
 80028d6:	1c0f      	adds	r7, r1, #0
 80028d8:	0218      	lsls	r0, r3, #8
 80028da:	d400      	bmi.n	80028de <__aeabi_dadd+0xbe>
 80028dc:	e0ae      	b.n	8002a3c <__aeabi_dadd+0x21c>
 80028de:	025d      	lsls	r5, r3, #9
 80028e0:	0a69      	lsrs	r1, r5, #9
 80028e2:	4688      	mov	r8, r1
 80028e4:	4642      	mov	r2, r8
 80028e6:	2a00      	cmp	r2, #0
 80028e8:	d100      	bne.n	80028ec <__aeabi_dadd+0xcc>
 80028ea:	e0d9      	b.n	8002aa0 <__aeabi_dadd+0x280>
 80028ec:	4640      	mov	r0, r8
 80028ee:	f001 fa2b 	bl	8003d48 <__clzsi2>
 80028f2:	1c05      	adds	r5, r0, #0
 80028f4:	3d08      	subs	r5, #8
 80028f6:	2d1f      	cmp	r5, #31
 80028f8:	dd00      	ble.n	80028fc <__aeabi_dadd+0xdc>
 80028fa:	e0da      	b.n	8002ab2 <__aeabi_dadd+0x292>
 80028fc:	2228      	movs	r2, #40	; 0x28
 80028fe:	1a13      	subs	r3, r2, r0
 8002900:	1c20      	adds	r0, r4, #0
 8002902:	4641      	mov	r1, r8
 8002904:	40d8      	lsrs	r0, r3
 8002906:	40a9      	lsls	r1, r5
 8002908:	1c03      	adds	r3, r0, #0
 800290a:	430b      	orrs	r3, r1
 800290c:	40ac      	lsls	r4, r5
 800290e:	42ae      	cmp	r6, r5
 8002910:	dd00      	ble.n	8002914 <__aeabi_dadd+0xf4>
 8002912:	e090      	b.n	8002a36 <__aeabi_dadd+0x216>
 8002914:	1bae      	subs	r6, r5, r6
 8002916:	1c71      	adds	r1, r6, #1
 8002918:	291f      	cmp	r1, #31
 800291a:	dd00      	ble.n	800291e <__aeabi_dadd+0xfe>
 800291c:	e100      	b.n	8002b20 <__aeabi_dadd+0x300>
 800291e:	201f      	movs	r0, #31
 8002920:	1b85      	subs	r5, r0, r6
 8002922:	1c1a      	adds	r2, r3, #0
 8002924:	1c20      	adds	r0, r4, #0
 8002926:	40aa      	lsls	r2, r5
 8002928:	40c8      	lsrs	r0, r1
 800292a:	40ac      	lsls	r4, r5
 800292c:	4310      	orrs	r0, r2
 800292e:	1e66      	subs	r6, r4, #1
 8002930:	41b4      	sbcs	r4, r6
 8002932:	4304      	orrs	r4, r0
 8002934:	40cb      	lsrs	r3, r1
 8002936:	2201      	movs	r2, #1
 8002938:	2600      	movs	r6, #0
 800293a:	200f      	movs	r0, #15
 800293c:	4020      	ands	r0, r4
 800293e:	2804      	cmp	r0, #4
 8002940:	d064      	beq.n	8002a0c <__aeabi_dadd+0x1ec>
 8002942:	1d20      	adds	r0, r4, #4
 8002944:	42a0      	cmp	r0, r4
 8002946:	41a4      	sbcs	r4, r4
 8002948:	4265      	negs	r5, r4
 800294a:	2180      	movs	r1, #128	; 0x80
 800294c:	195b      	adds	r3, r3, r5
 800294e:	2401      	movs	r4, #1
 8002950:	040d      	lsls	r5, r1, #16
 8002952:	401d      	ands	r5, r3
 8002954:	4027      	ands	r7, r4
 8002956:	2d00      	cmp	r5, #0
 8002958:	d007      	beq.n	800296a <__aeabi_dadd+0x14a>
 800295a:	4e9d      	ldr	r6, [pc, #628]	; (8002bd0 <__aeabi_dadd+0x3b0>)
 800295c:	42b2      	cmp	r2, r6
 800295e:	d100      	bne.n	8002962 <__aeabi_dadd+0x142>
 8002960:	e09a      	b.n	8002a98 <__aeabi_dadd+0x278>
 8002962:	499c      	ldr	r1, [pc, #624]	; (8002bd4 <__aeabi_dadd+0x3b4>)
 8002964:	1c16      	adds	r6, r2, #0
 8002966:	400b      	ands	r3, r1
 8002968:	3201      	adds	r2, #1
 800296a:	075c      	lsls	r4, r3, #29
 800296c:	08c0      	lsrs	r0, r0, #3
 800296e:	0552      	lsls	r2, r2, #21
 8002970:	4304      	orrs	r4, r0
 8002972:	08db      	lsrs	r3, r3, #3
 8002974:	0d55      	lsrs	r5, r2, #21
 8002976:	2d01      	cmp	r5, #1
 8002978:	dd62      	ble.n	8002a40 <__aeabi_dadd+0x220>
 800297a:	031b      	lsls	r3, r3, #12
 800297c:	0576      	lsls	r6, r6, #21
 800297e:	0b1b      	lsrs	r3, r3, #12
 8002980:	0d76      	lsrs	r6, r6, #21
 8002982:	2000      	movs	r0, #0
 8002984:	2100      	movs	r1, #0
 8002986:	0d09      	lsrs	r1, r1, #20
 8002988:	1c20      	adds	r0, r4, #0
 800298a:	050a      	lsls	r2, r1, #20
 800298c:	4c92      	ldr	r4, [pc, #584]	; (8002bd8 <__aeabi_dadd+0x3b8>)
 800298e:	4313      	orrs	r3, r2
 8002990:	0576      	lsls	r6, r6, #21
 8002992:	0875      	lsrs	r5, r6, #1
 8002994:	401c      	ands	r4, r3
 8002996:	432c      	orrs	r4, r5
 8002998:	0063      	lsls	r3, r4, #1
 800299a:	07ff      	lsls	r7, r7, #31
 800299c:	0859      	lsrs	r1, r3, #1
 800299e:	4339      	orrs	r1, r7
 80029a0:	bc3c      	pop	{r2, r3, r4, r5}
 80029a2:	4690      	mov	r8, r2
 80029a4:	4699      	mov	r9, r3
 80029a6:	46a2      	mov	sl, r4
 80029a8:	46ab      	mov	fp, r5
 80029aa:	bdf8      	pop	{r3, r4, r5, r6, r7, pc}
 80029ac:	2b00      	cmp	r3, #0
 80029ae:	dc00      	bgt.n	80029b2 <__aeabi_dadd+0x192>
 80029b0:	e091      	b.n	8002ad6 <__aeabi_dadd+0x2b6>
 80029b2:	2e00      	cmp	r6, #0
 80029b4:	d031      	beq.n	8002a1a <__aeabi_dadd+0x1fa>
 80029b6:	4e86      	ldr	r6, [pc, #536]	; (8002bd0 <__aeabi_dadd+0x3b0>)
 80029b8:	42b5      	cmp	r5, r6
 80029ba:	d100      	bne.n	80029be <__aeabi_dadd+0x19e>
 80029bc:	e0a9      	b.n	8002b12 <__aeabi_dadd+0x2f2>
 80029be:	2480      	movs	r4, #128	; 0x80
 80029c0:	464e      	mov	r6, r9
 80029c2:	0422      	lsls	r2, r4, #16
 80029c4:	4316      	orrs	r6, r2
 80029c6:	46b1      	mov	r9, r6
 80029c8:	2b38      	cmp	r3, #56	; 0x38
 80029ca:	dd00      	ble.n	80029ce <__aeabi_dadd+0x1ae>
 80029cc:	e118      	b.n	8002c00 <__aeabi_dadd+0x3e0>
 80029ce:	2b1f      	cmp	r3, #31
 80029d0:	dd00      	ble.n	80029d4 <__aeabi_dadd+0x1b4>
 80029d2:	e173      	b.n	8002cbc <__aeabi_dadd+0x49c>
 80029d4:	2620      	movs	r6, #32
 80029d6:	1af6      	subs	r6, r6, r3
 80029d8:	464a      	mov	r2, r9
 80029da:	40b2      	lsls	r2, r6
 80029dc:	4690      	mov	r8, r2
 80029de:	4652      	mov	r2, sl
 80029e0:	4644      	mov	r4, r8
 80029e2:	40da      	lsrs	r2, r3
 80029e4:	4322      	orrs	r2, r4
 80029e6:	4654      	mov	r4, sl
 80029e8:	40b4      	lsls	r4, r6
 80029ea:	1c26      	adds	r6, r4, #0
 80029ec:	1e74      	subs	r4, r6, #1
 80029ee:	41a6      	sbcs	r6, r4
 80029f0:	464c      	mov	r4, r9
 80029f2:	4332      	orrs	r2, r6
 80029f4:	40dc      	lsrs	r4, r3
 80029f6:	1812      	adds	r2, r2, r0
 80029f8:	e0f6      	b.n	8002be8 <__aeabi_dadd+0x3c8>
 80029fa:	1c04      	adds	r4, r0, #0
 80029fc:	200f      	movs	r0, #15
 80029fe:	1c6a      	adds	r2, r5, #1
 8002a00:	465b      	mov	r3, fp
 8002a02:	1c2e      	adds	r6, r5, #0
 8002a04:	1c0f      	adds	r7, r1, #0
 8002a06:	4020      	ands	r0, r4
 8002a08:	2804      	cmp	r0, #4
 8002a0a:	d19a      	bne.n	8002942 <__aeabi_dadd+0x122>
 8002a0c:	2580      	movs	r5, #128	; 0x80
 8002a0e:	042d      	lsls	r5, r5, #16
 8002a10:	2101      	movs	r1, #1
 8002a12:	401d      	ands	r5, r3
 8002a14:	400f      	ands	r7, r1
 8002a16:	1c20      	adds	r0, r4, #0
 8002a18:	e79d      	b.n	8002956 <__aeabi_dadd+0x136>
 8002a1a:	4314      	orrs	r4, r2
 8002a1c:	d000      	beq.n	8002a20 <__aeabi_dadd+0x200>
 8002a1e:	e0dd      	b.n	8002bdc <__aeabi_dadd+0x3bc>
 8002a20:	1c6a      	adds	r2, r5, #1
 8002a22:	465b      	mov	r3, fp
 8002a24:	1c04      	adds	r4, r0, #0
 8002a26:	1c2e      	adds	r6, r5, #0
 8002a28:	e787      	b.n	800293a <__aeabi_dadd+0x11a>
 8002a2a:	2180      	movs	r1, #128	; 0x80
 8002a2c:	465b      	mov	r3, fp
 8002a2e:	1c04      	adds	r4, r0, #0
 8002a30:	010a      	lsls	r2, r1, #4
 8002a32:	1c2e      	adds	r6, r5, #0
 8002a34:	e781      	b.n	800293a <__aeabi_dadd+0x11a>
 8002a36:	1b76      	subs	r6, r6, r5
 8002a38:	4d66      	ldr	r5, [pc, #408]	; (8002bd4 <__aeabi_dadd+0x3b4>)
 8002a3a:	402b      	ands	r3, r5
 8002a3c:	1c72      	adds	r2, r6, #1
 8002a3e:	e77c      	b.n	800293a <__aeabi_dadd+0x11a>
 8002a40:	1c21      	adds	r1, r4, #0
 8002a42:	4319      	orrs	r1, r3
 8002a44:	d100      	bne.n	8002a48 <__aeabi_dadd+0x228>
 8002a46:	e267      	b.n	8002f18 <__aeabi_dadd+0x6f8>
 8002a48:	2e00      	cmp	r6, #0
 8002a4a:	d041      	beq.n	8002ad0 <__aeabi_dadd+0x2b0>
 8002a4c:	2080      	movs	r0, #128	; 0x80
 8002a4e:	0302      	lsls	r2, r0, #12
 8002a50:	4313      	orrs	r3, r2
 8002a52:	e792      	b.n	800297a <__aeabi_dadd+0x15a>
 8002a54:	2b00      	cmp	r3, #0
 8002a56:	d000      	beq.n	8002a5a <__aeabi_dadd+0x23a>
 8002a58:	e088      	b.n	8002b6c <__aeabi_dadd+0x34c>
 8002a5a:	1c69      	adds	r1, r5, #1
 8002a5c:	054e      	lsls	r6, r1, #21
 8002a5e:	0d74      	lsrs	r4, r6, #21
 8002a60:	2c01      	cmp	r4, #1
 8002a62:	dc00      	bgt.n	8002a66 <__aeabi_dadd+0x246>
 8002a64:	e11a      	b.n	8002c9c <__aeabi_dadd+0x47c>
 8002a66:	465b      	mov	r3, fp
 8002a68:	1c16      	adds	r6, r2, #0
 8002a6a:	464c      	mov	r4, r9
 8002a6c:	1a82      	subs	r2, r0, r2
 8002a6e:	1b19      	subs	r1, r3, r4
 8002a70:	4290      	cmp	r0, r2
 8002a72:	419b      	sbcs	r3, r3
 8002a74:	425b      	negs	r3, r3
 8002a76:	1ac9      	subs	r1, r1, r3
 8002a78:	4688      	mov	r8, r1
 8002a7a:	020b      	lsls	r3, r1, #8
 8002a7c:	d400      	bmi.n	8002a80 <__aeabi_dadd+0x260>
 8002a7e:	e09e      	b.n	8002bbe <__aeabi_dadd+0x39e>
 8002a80:	1a37      	subs	r7, r6, r0
 8002a82:	45ba      	cmp	sl, r7
 8002a84:	4192      	sbcs	r2, r2
 8002a86:	465e      	mov	r6, fp
 8002a88:	1ba4      	subs	r4, r4, r6
 8002a8a:	4253      	negs	r3, r2
 8002a8c:	1ae1      	subs	r1, r4, r3
 8002a8e:	4688      	mov	r8, r1
 8002a90:	1c3c      	adds	r4, r7, #0
 8002a92:	1c2e      	adds	r6, r5, #0
 8002a94:	4667      	mov	r7, ip
 8002a96:	e725      	b.n	80028e4 <__aeabi_dadd+0xc4>
 8002a98:	1c16      	adds	r6, r2, #0
 8002a9a:	2300      	movs	r3, #0
 8002a9c:	2400      	movs	r4, #0
 8002a9e:	e770      	b.n	8002982 <__aeabi_dadd+0x162>
 8002aa0:	1c20      	adds	r0, r4, #0
 8002aa2:	f001 f951 	bl	8003d48 <__clzsi2>
 8002aa6:	3020      	adds	r0, #32
 8002aa8:	1c05      	adds	r5, r0, #0
 8002aaa:	3d08      	subs	r5, #8
 8002aac:	2d1f      	cmp	r5, #31
 8002aae:	dc00      	bgt.n	8002ab2 <__aeabi_dadd+0x292>
 8002ab0:	e724      	b.n	80028fc <__aeabi_dadd+0xdc>
 8002ab2:	1c03      	adds	r3, r0, #0
 8002ab4:	3b28      	subs	r3, #40	; 0x28
 8002ab6:	409c      	lsls	r4, r3
 8002ab8:	1c23      	adds	r3, r4, #0
 8002aba:	2400      	movs	r4, #0
 8002abc:	e727      	b.n	800290e <__aeabi_dadd+0xee>
 8002abe:	464a      	mov	r2, r9
 8002ac0:	4653      	mov	r3, sl
 8002ac2:	431a      	orrs	r2, r3
 8002ac4:	2600      	movs	r6, #0
 8002ac6:	2a00      	cmp	r2, #0
 8002ac8:	d100      	bne.n	8002acc <__aeabi_dadd+0x2ac>
 8002aca:	e6fb      	b.n	80028c4 <__aeabi_dadd+0xa4>
 8002acc:	2201      	movs	r2, #1
 8002ace:	e6f9      	b.n	80028c4 <__aeabi_dadd+0xa4>
 8002ad0:	031d      	lsls	r5, r3, #12
 8002ad2:	0b2b      	lsrs	r3, r5, #12
 8002ad4:	e755      	b.n	8002982 <__aeabi_dadd+0x162>
 8002ad6:	2b00      	cmp	r3, #0
 8002ad8:	d000      	beq.n	8002adc <__aeabi_dadd+0x2bc>
 8002ada:	e104      	b.n	8002ce6 <__aeabi_dadd+0x4c6>
 8002adc:	1c6e      	adds	r6, r5, #1
 8002ade:	0574      	lsls	r4, r6, #21
 8002ae0:	0d63      	lsrs	r3, r4, #21
 8002ae2:	2b01      	cmp	r3, #1
 8002ae4:	dc00      	bgt.n	8002ae8 <__aeabi_dadd+0x2c8>
 8002ae6:	e0aa      	b.n	8002c3e <__aeabi_dadd+0x41e>
 8002ae8:	4939      	ldr	r1, [pc, #228]	; (8002bd0 <__aeabi_dadd+0x3b0>)
 8002aea:	428e      	cmp	r6, r1
 8002aec:	d100      	bne.n	8002af0 <__aeabi_dadd+0x2d0>
 8002aee:	e130      	b.n	8002d52 <__aeabi_dadd+0x532>
 8002af0:	1811      	adds	r1, r2, r0
 8002af2:	4281      	cmp	r1, r0
 8002af4:	4180      	sbcs	r0, r0
 8002af6:	464b      	mov	r3, r9
 8002af8:	4242      	negs	r2, r0
 8002afa:	445b      	add	r3, fp
 8002afc:	189b      	adds	r3, r3, r2
 8002afe:	07dc      	lsls	r4, r3, #31
 8002b00:	0849      	lsrs	r1, r1, #1
 8002b02:	430c      	orrs	r4, r1
 8002b04:	085b      	lsrs	r3, r3, #1
 8002b06:	1caa      	adds	r2, r5, #2
 8002b08:	e717      	b.n	800293a <__aeabi_dadd+0x11a>
 8002b0a:	4f31      	ldr	r7, [pc, #196]	; (8002bd0 <__aeabi_dadd+0x3b0>)
 8002b0c:	42bd      	cmp	r5, r7
 8002b0e:	d000      	beq.n	8002b12 <__aeabi_dadd+0x2f2>
 8002b10:	e6c2      	b.n	8002898 <__aeabi_dadd+0x78>
 8002b12:	1c04      	adds	r4, r0, #0
 8002b14:	2080      	movs	r0, #128	; 0x80
 8002b16:	465b      	mov	r3, fp
 8002b18:	1c0f      	adds	r7, r1, #0
 8002b1a:	0102      	lsls	r2, r0, #4
 8002b1c:	1c2e      	adds	r6, r5, #0
 8002b1e:	e70c      	b.n	800293a <__aeabi_dadd+0x11a>
 8002b20:	1c30      	adds	r0, r6, #0
 8002b22:	381f      	subs	r0, #31
 8002b24:	1c1a      	adds	r2, r3, #0
 8002b26:	40c2      	lsrs	r2, r0
 8002b28:	1c15      	adds	r5, r2, #0
 8002b2a:	2920      	cmp	r1, #32
 8002b2c:	d100      	bne.n	8002b30 <__aeabi_dadd+0x310>
 8002b2e:	e082      	b.n	8002c36 <__aeabi_dadd+0x416>
 8002b30:	213f      	movs	r1, #63	; 0x3f
 8002b32:	1b8e      	subs	r6, r1, r6
 8002b34:	40b3      	lsls	r3, r6
 8002b36:	431c      	orrs	r4, r3
 8002b38:	1e63      	subs	r3, r4, #1
 8002b3a:	419c      	sbcs	r4, r3
 8002b3c:	432c      	orrs	r4, r5
 8002b3e:	2201      	movs	r2, #1
 8002b40:	2300      	movs	r3, #0
 8002b42:	2600      	movs	r6, #0
 8002b44:	e6f9      	b.n	800293a <__aeabi_dadd+0x11a>
 8002b46:	1c1c      	adds	r4, r3, #0
 8002b48:	3c20      	subs	r4, #32
 8002b4a:	464f      	mov	r7, r9
 8002b4c:	40e7      	lsrs	r7, r4
 8002b4e:	1c3e      	adds	r6, r7, #0
 8002b50:	2b20      	cmp	r3, #32
 8002b52:	d072      	beq.n	8002c3a <__aeabi_dadd+0x41a>
 8002b54:	2240      	movs	r2, #64	; 0x40
 8002b56:	1ad4      	subs	r4, r2, r3
 8002b58:	464b      	mov	r3, r9
 8002b5a:	40a3      	lsls	r3, r4
 8002b5c:	1c1a      	adds	r2, r3, #0
 8002b5e:	4657      	mov	r7, sl
 8002b60:	433a      	orrs	r2, r7
 8002b62:	1e53      	subs	r3, r2, #1
 8002b64:	419a      	sbcs	r2, r3
 8002b66:	4332      	orrs	r2, r6
 8002b68:	2600      	movs	r6, #0
 8002b6a:	e6ab      	b.n	80028c4 <__aeabi_dadd+0xa4>
 8002b6c:	425f      	negs	r7, r3
 8002b6e:	2d00      	cmp	r5, #0
 8002b70:	d050      	beq.n	8002c14 <__aeabi_dadd+0x3f4>
 8002b72:	4d17      	ldr	r5, [pc, #92]	; (8002bd0 <__aeabi_dadd+0x3b0>)
 8002b74:	42ae      	cmp	r6, r5
 8002b76:	d100      	bne.n	8002b7a <__aeabi_dadd+0x35a>
 8002b78:	e155      	b.n	8002e26 <__aeabi_dadd+0x606>
 8002b7a:	2480      	movs	r4, #128	; 0x80
 8002b7c:	465a      	mov	r2, fp
 8002b7e:	0421      	lsls	r1, r4, #16
 8002b80:	430a      	orrs	r2, r1
 8002b82:	4693      	mov	fp, r2
 8002b84:	2f38      	cmp	r7, #56	; 0x38
 8002b86:	dd00      	ble.n	8002b8a <__aeabi_dadd+0x36a>
 8002b88:	e0da      	b.n	8002d40 <__aeabi_dadd+0x520>
 8002b8a:	2f1f      	cmp	r7, #31
 8002b8c:	dd00      	ble.n	8002b90 <__aeabi_dadd+0x370>
 8002b8e:	e178      	b.n	8002e82 <__aeabi_dadd+0x662>
 8002b90:	2120      	movs	r1, #32
 8002b92:	1bcc      	subs	r4, r1, r7
 8002b94:	1c05      	adds	r5, r0, #0
 8002b96:	465a      	mov	r2, fp
 8002b98:	40a2      	lsls	r2, r4
 8002b9a:	40fd      	lsrs	r5, r7
 8002b9c:	40a0      	lsls	r0, r4
 8002b9e:	4315      	orrs	r5, r2
 8002ba0:	465b      	mov	r3, fp
 8002ba2:	1e42      	subs	r2, r0, #1
 8002ba4:	4190      	sbcs	r0, r2
 8002ba6:	4328      	orrs	r0, r5
 8002ba8:	40fb      	lsrs	r3, r7
 8002baa:	4657      	mov	r7, sl
 8002bac:	1a3c      	subs	r4, r7, r0
 8002bae:	45a2      	cmp	sl, r4
 8002bb0:	4192      	sbcs	r2, r2
 8002bb2:	4648      	mov	r0, r9
 8002bb4:	1ac1      	subs	r1, r0, r3
 8002bb6:	4255      	negs	r5, r2
 8002bb8:	1b4b      	subs	r3, r1, r5
 8002bba:	4667      	mov	r7, ip
 8002bbc:	e68c      	b.n	80028d8 <__aeabi_dadd+0xb8>
 8002bbe:	1c08      	adds	r0, r1, #0
 8002bc0:	4310      	orrs	r0, r2
 8002bc2:	d130      	bne.n	8002c26 <__aeabi_dadd+0x406>
 8002bc4:	2700      	movs	r7, #0
 8002bc6:	2201      	movs	r2, #1
 8002bc8:	2300      	movs	r3, #0
 8002bca:	2004      	movs	r0, #4
 8002bcc:	2600      	movs	r6, #0
 8002bce:	e6cc      	b.n	800296a <__aeabi_dadd+0x14a>
 8002bd0:	000007ff 	.word	0x000007ff
 8002bd4:	ff7fffff 	.word	0xff7fffff
 8002bd8:	800fffff 	.word	0x800fffff
 8002bdc:	3b01      	subs	r3, #1
 8002bde:	2b00      	cmp	r3, #0
 8002be0:	d124      	bne.n	8002c2c <__aeabi_dadd+0x40c>
 8002be2:	4653      	mov	r3, sl
 8002be4:	181a      	adds	r2, r3, r0
 8002be6:	464c      	mov	r4, r9
 8002be8:	4282      	cmp	r2, r0
 8002bea:	4180      	sbcs	r0, r0
 8002bec:	445c      	add	r4, fp
 8002bee:	4243      	negs	r3, r0
 8002bf0:	18e3      	adds	r3, r4, r3
 8002bf2:	1c2e      	adds	r6, r5, #0
 8002bf4:	1c14      	adds	r4, r2, #0
 8002bf6:	0218      	lsls	r0, r3, #8
 8002bf8:	d43e      	bmi.n	8002c78 <__aeabi_dadd+0x458>
 8002bfa:	1c72      	adds	r2, r6, #1
 8002bfc:	1c0f      	adds	r7, r1, #0
 8002bfe:	e69c      	b.n	800293a <__aeabi_dadd+0x11a>
 8002c00:	464a      	mov	r2, r9
 8002c02:	4653      	mov	r3, sl
 8002c04:	431a      	orrs	r2, r3
 8002c06:	2400      	movs	r4, #0
 8002c08:	2a00      	cmp	r2, #0
 8002c0a:	d100      	bne.n	8002c0e <__aeabi_dadd+0x3ee>
 8002c0c:	e6f3      	b.n	80029f6 <__aeabi_dadd+0x1d6>
 8002c0e:	2201      	movs	r2, #1
 8002c10:	1812      	adds	r2, r2, r0
 8002c12:	e7e9      	b.n	8002be8 <__aeabi_dadd+0x3c8>
 8002c14:	465b      	mov	r3, fp
 8002c16:	4303      	orrs	r3, r0
 8002c18:	d000      	beq.n	8002c1c <__aeabi_dadd+0x3fc>
 8002c1a:	e083      	b.n	8002d24 <__aeabi_dadd+0x504>
 8002c1c:	1c23      	adds	r3, r4, #0
 8002c1e:	1c72      	adds	r2, r6, #1
 8002c20:	4654      	mov	r4, sl
 8002c22:	4667      	mov	r7, ip
 8002c24:	e689      	b.n	800293a <__aeabi_dadd+0x11a>
 8002c26:	1c14      	adds	r4, r2, #0
 8002c28:	1c2e      	adds	r6, r5, #0
 8002c2a:	e65b      	b.n	80028e4 <__aeabi_dadd+0xc4>
 8002c2c:	4ecd      	ldr	r6, [pc, #820]	; (8002f64 <__aeabi_dadd+0x744>)
 8002c2e:	42b5      	cmp	r5, r6
 8002c30:	d000      	beq.n	8002c34 <__aeabi_dadd+0x414>
 8002c32:	e6c9      	b.n	80029c8 <__aeabi_dadd+0x1a8>
 8002c34:	e76d      	b.n	8002b12 <__aeabi_dadd+0x2f2>
 8002c36:	2300      	movs	r3, #0
 8002c38:	e77d      	b.n	8002b36 <__aeabi_dadd+0x316>
 8002c3a:	2200      	movs	r2, #0
 8002c3c:	e78f      	b.n	8002b5e <__aeabi_dadd+0x33e>
 8002c3e:	465e      	mov	r6, fp
 8002c40:	4306      	orrs	r6, r0
 8002c42:	2d00      	cmp	r5, #0
 8002c44:	d000      	beq.n	8002c48 <__aeabi_dadd+0x428>
 8002c46:	e0f4      	b.n	8002e32 <__aeabi_dadd+0x612>
 8002c48:	2e00      	cmp	r6, #0
 8002c4a:	d100      	bne.n	8002c4e <__aeabi_dadd+0x42e>
 8002c4c:	e14c      	b.n	8002ee8 <__aeabi_dadd+0x6c8>
 8002c4e:	464b      	mov	r3, r9
 8002c50:	4313      	orrs	r3, r2
 8002c52:	d100      	bne.n	8002c56 <__aeabi_dadd+0x436>
 8002c54:	e17e      	b.n	8002f54 <__aeabi_dadd+0x734>
 8002c56:	1815      	adds	r5, r2, r0
 8002c58:	464e      	mov	r6, r9
 8002c5a:	4285      	cmp	r5, r0
 8002c5c:	4180      	sbcs	r0, r0
 8002c5e:	445e      	add	r6, fp
 8002c60:	4242      	negs	r2, r0
 8002c62:	18b3      	adds	r3, r6, r2
 8002c64:	021e      	lsls	r6, r3, #8
 8002c66:	d400      	bmi.n	8002c6a <__aeabi_dadd+0x44a>
 8002c68:	e182      	b.n	8002f70 <__aeabi_dadd+0x750>
 8002c6a:	4fbf      	ldr	r7, [pc, #764]	; (8002f68 <__aeabi_dadd+0x748>)
 8002c6c:	1c2c      	adds	r4, r5, #0
 8002c6e:	403b      	ands	r3, r7
 8002c70:	2202      	movs	r2, #2
 8002c72:	1c0f      	adds	r7, r1, #0
 8002c74:	2601      	movs	r6, #1
 8002c76:	e660      	b.n	800293a <__aeabi_dadd+0x11a>
 8002c78:	4dba      	ldr	r5, [pc, #744]	; (8002f64 <__aeabi_dadd+0x744>)
 8002c7a:	1c70      	adds	r0, r6, #1
 8002c7c:	42a8      	cmp	r0, r5
 8002c7e:	d04b      	beq.n	8002d18 <__aeabi_dadd+0x4f8>
 8002c80:	4fb9      	ldr	r7, [pc, #740]	; (8002f68 <__aeabi_dadd+0x748>)
 8002c82:	2501      	movs	r5, #1
 8002c84:	4025      	ands	r5, r4
 8002c86:	0862      	lsrs	r2, r4, #1
 8002c88:	403b      	ands	r3, r7
 8002c8a:	1c2c      	adds	r4, r5, #0
 8002c8c:	07df      	lsls	r7, r3, #31
 8002c8e:	4314      	orrs	r4, r2
 8002c90:	433c      	orrs	r4, r7
 8002c92:	1cb2      	adds	r2, r6, #2
 8002c94:	085b      	lsrs	r3, r3, #1
 8002c96:	1c06      	adds	r6, r0, #0
 8002c98:	1c0f      	adds	r7, r1, #0
 8002c9a:	e64e      	b.n	800293a <__aeabi_dadd+0x11a>
 8002c9c:	465e      	mov	r6, fp
 8002c9e:	4306      	orrs	r6, r0
 8002ca0:	2d00      	cmp	r5, #0
 8002ca2:	d12c      	bne.n	8002cfe <__aeabi_dadd+0x4de>
 8002ca4:	2e00      	cmp	r6, #0
 8002ca6:	d000      	beq.n	8002caa <__aeabi_dadd+0x48a>
 8002ca8:	e07d      	b.n	8002da6 <__aeabi_dadd+0x586>
 8002caa:	464e      	mov	r6, r9
 8002cac:	1c14      	adds	r4, r2, #0
 8002cae:	4316      	orrs	r6, r2
 8002cb0:	d088      	beq.n	8002bc4 <__aeabi_dadd+0x3a4>
 8002cb2:	464b      	mov	r3, r9
 8002cb4:	4667      	mov	r7, ip
 8002cb6:	2201      	movs	r2, #1
 8002cb8:	2600      	movs	r6, #0
 8002cba:	e63e      	b.n	800293a <__aeabi_dadd+0x11a>
 8002cbc:	1c1e      	adds	r6, r3, #0
 8002cbe:	3e20      	subs	r6, #32
 8002cc0:	464c      	mov	r4, r9
 8002cc2:	40f4      	lsrs	r4, r6
 8002cc4:	1c26      	adds	r6, r4, #0
 8002cc6:	2b20      	cmp	r3, #32
 8002cc8:	d100      	bne.n	8002ccc <__aeabi_dadd+0x4ac>
 8002cca:	e0d8      	b.n	8002e7e <__aeabi_dadd+0x65e>
 8002ccc:	2240      	movs	r2, #64	; 0x40
 8002cce:	1ad4      	subs	r4, r2, r3
 8002cd0:	464b      	mov	r3, r9
 8002cd2:	40a3      	lsls	r3, r4
 8002cd4:	1c1a      	adds	r2, r3, #0
 8002cd6:	4654      	mov	r4, sl
 8002cd8:	4322      	orrs	r2, r4
 8002cda:	1e53      	subs	r3, r2, #1
 8002cdc:	419a      	sbcs	r2, r3
 8002cde:	4332      	orrs	r2, r6
 8002ce0:	2400      	movs	r4, #0
 8002ce2:	1812      	adds	r2, r2, r0
 8002ce4:	e780      	b.n	8002be8 <__aeabi_dadd+0x3c8>
 8002ce6:	425b      	negs	r3, r3
 8002ce8:	2d00      	cmp	r5, #0
 8002cea:	d137      	bne.n	8002d5c <__aeabi_dadd+0x53c>
 8002cec:	465c      	mov	r4, fp
 8002cee:	4304      	orrs	r4, r0
 8002cf0:	d000      	beq.n	8002cf4 <__aeabi_dadd+0x4d4>
 8002cf2:	e0d7      	b.n	8002ea4 <__aeabi_dadd+0x684>
 8002cf4:	1c72      	adds	r2, r6, #1
 8002cf6:	464b      	mov	r3, r9
 8002cf8:	4654      	mov	r4, sl
 8002cfa:	1c0f      	adds	r7, r1, #0
 8002cfc:	e61d      	b.n	800293a <__aeabi_dadd+0x11a>
 8002cfe:	2e00      	cmp	r6, #0
 8002d00:	d16e      	bne.n	8002de0 <__aeabi_dadd+0x5c0>
 8002d02:	464b      	mov	r3, r9
 8002d04:	1c14      	adds	r4, r2, #0
 8002d06:	4313      	orrs	r3, r2
 8002d08:	d100      	bne.n	8002d0c <__aeabi_dadd+0x4ec>
 8002d0a:	e0dc      	b.n	8002ec6 <__aeabi_dadd+0x6a6>
 8002d0c:	2580      	movs	r5, #128	; 0x80
 8002d0e:	464b      	mov	r3, r9
 8002d10:	4667      	mov	r7, ip
 8002d12:	012a      	lsls	r2, r5, #4
 8002d14:	4e93      	ldr	r6, [pc, #588]	; (8002f64 <__aeabi_dadd+0x744>)
 8002d16:	e610      	b.n	800293a <__aeabi_dadd+0x11a>
 8002d18:	2180      	movs	r1, #128	; 0x80
 8002d1a:	1c06      	adds	r6, r0, #0
 8002d1c:	010a      	lsls	r2, r1, #4
 8002d1e:	2300      	movs	r3, #0
 8002d20:	2004      	movs	r0, #4
 8002d22:	e622      	b.n	800296a <__aeabi_dadd+0x14a>
 8002d24:	3f01      	subs	r7, #1
 8002d26:	2f00      	cmp	r7, #0
 8002d28:	d179      	bne.n	8002e1e <__aeabi_dadd+0x5fe>
 8002d2a:	1a17      	subs	r7, r2, r0
 8002d2c:	465b      	mov	r3, fp
 8002d2e:	45ba      	cmp	sl, r7
 8002d30:	41ad      	sbcs	r5, r5
 8002d32:	4649      	mov	r1, r9
 8002d34:	1aca      	subs	r2, r1, r3
 8002d36:	4268      	negs	r0, r5
 8002d38:	1c3c      	adds	r4, r7, #0
 8002d3a:	1a13      	subs	r3, r2, r0
 8002d3c:	4667      	mov	r7, ip
 8002d3e:	e5cb      	b.n	80028d8 <__aeabi_dadd+0xb8>
 8002d40:	465f      	mov	r7, fp
 8002d42:	4307      	orrs	r7, r0
 8002d44:	2300      	movs	r3, #0
 8002d46:	2000      	movs	r0, #0
 8002d48:	2f00      	cmp	r7, #0
 8002d4a:	d100      	bne.n	8002d4e <__aeabi_dadd+0x52e>
 8002d4c:	e72d      	b.n	8002baa <__aeabi_dadd+0x38a>
 8002d4e:	2001      	movs	r0, #1
 8002d50:	e72b      	b.n	8002baa <__aeabi_dadd+0x38a>
 8002d52:	2580      	movs	r5, #128	; 0x80
 8002d54:	012a      	lsls	r2, r5, #4
 8002d56:	2300      	movs	r3, #0
 8002d58:	2004      	movs	r0, #4
 8002d5a:	e606      	b.n	800296a <__aeabi_dadd+0x14a>
 8002d5c:	4d81      	ldr	r5, [pc, #516]	; (8002f64 <__aeabi_dadd+0x744>)
 8002d5e:	42ae      	cmp	r6, r5
 8002d60:	d100      	bne.n	8002d64 <__aeabi_dadd+0x544>
 8002d62:	e0d3      	b.n	8002f0c <__aeabi_dadd+0x6ec>
 8002d64:	2480      	movs	r4, #128	; 0x80
 8002d66:	465d      	mov	r5, fp
 8002d68:	0422      	lsls	r2, r4, #16
 8002d6a:	4315      	orrs	r5, r2
 8002d6c:	46ab      	mov	fp, r5
 8002d6e:	2b38      	cmp	r3, #56	; 0x38
 8002d70:	dd00      	ble.n	8002d74 <__aeabi_dadd+0x554>
 8002d72:	e0b0      	b.n	8002ed6 <__aeabi_dadd+0x6b6>
 8002d74:	2b1f      	cmp	r3, #31
 8002d76:	dd00      	ble.n	8002d7a <__aeabi_dadd+0x55a>
 8002d78:	e0db      	b.n	8002f32 <__aeabi_dadd+0x712>
 8002d7a:	2520      	movs	r5, #32
 8002d7c:	1aed      	subs	r5, r5, r3
 8002d7e:	1c02      	adds	r2, r0, #0
 8002d80:	465c      	mov	r4, fp
 8002d82:	40ac      	lsls	r4, r5
 8002d84:	40da      	lsrs	r2, r3
 8002d86:	40a8      	lsls	r0, r5
 8002d88:	1e45      	subs	r5, r0, #1
 8002d8a:	41a8      	sbcs	r0, r5
 8002d8c:	4322      	orrs	r2, r4
 8002d8e:	4302      	orrs	r2, r0
 8002d90:	4658      	mov	r0, fp
 8002d92:	40d8      	lsrs	r0, r3
 8002d94:	1c03      	adds	r3, r0, #0
 8002d96:	4655      	mov	r5, sl
 8002d98:	1954      	adds	r4, r2, r5
 8002d9a:	4554      	cmp	r4, sl
 8002d9c:	4192      	sbcs	r2, r2
 8002d9e:	444b      	add	r3, r9
 8002da0:	4250      	negs	r0, r2
 8002da2:	181b      	adds	r3, r3, r0
 8002da4:	e727      	b.n	8002bf6 <__aeabi_dadd+0x3d6>
 8002da6:	464a      	mov	r2, r9
 8002da8:	4656      	mov	r6, sl
 8002daa:	4332      	orrs	r2, r6
 8002dac:	d100      	bne.n	8002db0 <__aeabi_dadd+0x590>
 8002dae:	e085      	b.n	8002ebc <__aeabi_dadd+0x69c>
 8002db0:	1b85      	subs	r5, r0, r6
 8002db2:	465b      	mov	r3, fp
 8002db4:	464c      	mov	r4, r9
 8002db6:	42a8      	cmp	r0, r5
 8002db8:	4192      	sbcs	r2, r2
 8002dba:	1b19      	subs	r1, r3, r4
 8002dbc:	4256      	negs	r6, r2
 8002dbe:	1b8b      	subs	r3, r1, r6
 8002dc0:	021e      	lsls	r6, r3, #8
 8002dc2:	d400      	bmi.n	8002dc6 <__aeabi_dadd+0x5a6>
 8002dc4:	e0ad      	b.n	8002f22 <__aeabi_dadd+0x702>
 8002dc6:	4657      	mov	r7, sl
 8002dc8:	1a3d      	subs	r5, r7, r0
 8002dca:	465b      	mov	r3, fp
 8002dcc:	45aa      	cmp	sl, r5
 8002dce:	4189      	sbcs	r1, r1
 8002dd0:	1ae4      	subs	r4, r4, r3
 8002dd2:	424a      	negs	r2, r1
 8002dd4:	1aa3      	subs	r3, r4, r2
 8002dd6:	4667      	mov	r7, ip
 8002dd8:	1c2c      	adds	r4, r5, #0
 8002dda:	2201      	movs	r2, #1
 8002ddc:	2600      	movs	r6, #0
 8002dde:	e5ac      	b.n	800293a <__aeabi_dadd+0x11a>
 8002de0:	464d      	mov	r5, r9
 8002de2:	1c16      	adds	r6, r2, #0
 8002de4:	4315      	orrs	r5, r2
 8002de6:	d044      	beq.n	8002e72 <__aeabi_dadd+0x652>
 8002de8:	465c      	mov	r4, fp
 8002dea:	2180      	movs	r1, #128	; 0x80
 8002dec:	08c0      	lsrs	r0, r0, #3
 8002dee:	0762      	lsls	r2, r4, #29
 8002df0:	08e3      	lsrs	r3, r4, #3
 8002df2:	030d      	lsls	r5, r1, #12
 8002df4:	4310      	orrs	r0, r2
 8002df6:	422b      	tst	r3, r5
 8002df8:	d100      	bne.n	8002dfc <__aeabi_dadd+0x5dc>
 8002dfa:	e081      	b.n	8002f00 <__aeabi_dadd+0x6e0>
 8002dfc:	464c      	mov	r4, r9
 8002dfe:	08e1      	lsrs	r1, r4, #3
 8002e00:	4229      	tst	r1, r5
 8002e02:	d17d      	bne.n	8002f00 <__aeabi_dadd+0x6e0>
 8002e04:	08f7      	lsrs	r7, r6, #3
 8002e06:	0766      	lsls	r6, r4, #29
 8002e08:	433e      	orrs	r6, r7
 8002e0a:	1c0b      	adds	r3, r1, #0
 8002e0c:	4667      	mov	r7, ip
 8002e0e:	0f70      	lsrs	r0, r6, #29
 8002e10:	00db      	lsls	r3, r3, #3
 8002e12:	2280      	movs	r2, #128	; 0x80
 8002e14:	00f4      	lsls	r4, r6, #3
 8002e16:	4303      	orrs	r3, r0
 8002e18:	0112      	lsls	r2, r2, #4
 8002e1a:	4e52      	ldr	r6, [pc, #328]	; (8002f64 <__aeabi_dadd+0x744>)
 8002e1c:	e58d      	b.n	800293a <__aeabi_dadd+0x11a>
 8002e1e:	4d51      	ldr	r5, [pc, #324]	; (8002f64 <__aeabi_dadd+0x744>)
 8002e20:	42ae      	cmp	r6, r5
 8002e22:	d000      	beq.n	8002e26 <__aeabi_dadd+0x606>
 8002e24:	e6ae      	b.n	8002b84 <__aeabi_dadd+0x364>
 8002e26:	2080      	movs	r0, #128	; 0x80
 8002e28:	464b      	mov	r3, r9
 8002e2a:	4654      	mov	r4, sl
 8002e2c:	4667      	mov	r7, ip
 8002e2e:	0102      	lsls	r2, r0, #4
 8002e30:	e583      	b.n	800293a <__aeabi_dadd+0x11a>
 8002e32:	2e00      	cmp	r6, #0
 8002e34:	d05e      	beq.n	8002ef4 <__aeabi_dadd+0x6d4>
 8002e36:	464c      	mov	r4, r9
 8002e38:	4314      	orrs	r4, r2
 8002e3a:	d01a      	beq.n	8002e72 <__aeabi_dadd+0x652>
 8002e3c:	08c7      	lsrs	r7, r0, #3
 8002e3e:	2580      	movs	r5, #128	; 0x80
 8002e40:	4658      	mov	r0, fp
 8002e42:	0743      	lsls	r3, r0, #29
 8002e44:	032c      	lsls	r4, r5, #12
 8002e46:	08c0      	lsrs	r0, r0, #3
 8002e48:	431f      	orrs	r7, r3
 8002e4a:	4220      	tst	r0, r4
 8002e4c:	d008      	beq.n	8002e60 <__aeabi_dadd+0x640>
 8002e4e:	464e      	mov	r6, r9
 8002e50:	08f3      	lsrs	r3, r6, #3
 8002e52:	4223      	tst	r3, r4
 8002e54:	d104      	bne.n	8002e60 <__aeabi_dadd+0x640>
 8002e56:	4652      	mov	r2, sl
 8002e58:	08d5      	lsrs	r5, r2, #3
 8002e5a:	0777      	lsls	r7, r6, #29
 8002e5c:	1c18      	adds	r0, r3, #0
 8002e5e:	432f      	orrs	r7, r5
 8002e60:	00c3      	lsls	r3, r0, #3
 8002e62:	00fc      	lsls	r4, r7, #3
 8002e64:	0f78      	lsrs	r0, r7, #29
 8002e66:	1c0f      	adds	r7, r1, #0
 8002e68:	2180      	movs	r1, #128	; 0x80
 8002e6a:	4303      	orrs	r3, r0
 8002e6c:	010a      	lsls	r2, r1, #4
 8002e6e:	4e3d      	ldr	r6, [pc, #244]	; (8002f64 <__aeabi_dadd+0x744>)
 8002e70:	e563      	b.n	800293a <__aeabi_dadd+0x11a>
 8002e72:	2680      	movs	r6, #128	; 0x80
 8002e74:	0132      	lsls	r2, r6, #4
 8002e76:	465b      	mov	r3, fp
 8002e78:	1c04      	adds	r4, r0, #0
 8002e7a:	4e3a      	ldr	r6, [pc, #232]	; (8002f64 <__aeabi_dadd+0x744>)
 8002e7c:	e55d      	b.n	800293a <__aeabi_dadd+0x11a>
 8002e7e:	2200      	movs	r2, #0
 8002e80:	e729      	b.n	8002cd6 <__aeabi_dadd+0x4b6>
 8002e82:	1c39      	adds	r1, r7, #0
 8002e84:	3920      	subs	r1, #32
 8002e86:	465c      	mov	r4, fp
 8002e88:	40cc      	lsrs	r4, r1
 8002e8a:	1c22      	adds	r2, r4, #0
 8002e8c:	2f20      	cmp	r7, #32
 8002e8e:	d067      	beq.n	8002f60 <__aeabi_dadd+0x740>
 8002e90:	2340      	movs	r3, #64	; 0x40
 8002e92:	1bdf      	subs	r7, r3, r7
 8002e94:	465d      	mov	r5, fp
 8002e96:	40bd      	lsls	r5, r7
 8002e98:	4328      	orrs	r0, r5
 8002e9a:	1e43      	subs	r3, r0, #1
 8002e9c:	4198      	sbcs	r0, r3
 8002e9e:	4310      	orrs	r0, r2
 8002ea0:	2300      	movs	r3, #0
 8002ea2:	e682      	b.n	8002baa <__aeabi_dadd+0x38a>
 8002ea4:	3b01      	subs	r3, #1
 8002ea6:	2b00      	cmp	r3, #0
 8002ea8:	d12c      	bne.n	8002f04 <__aeabi_dadd+0x6e4>
 8002eaa:	4450      	add	r0, sl
 8002eac:	465c      	mov	r4, fp
 8002eae:	4290      	cmp	r0, r2
 8002eb0:	41ad      	sbcs	r5, r5
 8002eb2:	444c      	add	r4, r9
 8002eb4:	426a      	negs	r2, r5
 8002eb6:	18a3      	adds	r3, r4, r2
 8002eb8:	1c04      	adds	r4, r0, #0
 8002eba:	e69c      	b.n	8002bf6 <__aeabi_dadd+0x3d6>
 8002ebc:	465b      	mov	r3, fp
 8002ebe:	1c04      	adds	r4, r0, #0
 8002ec0:	2201      	movs	r2, #1
 8002ec2:	2600      	movs	r6, #0
 8002ec4:	e539      	b.n	800293a <__aeabi_dadd+0x11a>
 8002ec6:	2480      	movs	r4, #128	; 0x80
 8002ec8:	2104      	movs	r1, #4
 8002eca:	2700      	movs	r7, #0
 8002ecc:	0122      	lsls	r2, r4, #4
 8002ece:	4b27      	ldr	r3, [pc, #156]	; (8002f6c <__aeabi_dadd+0x74c>)
 8002ed0:	4248      	negs	r0, r1
 8002ed2:	4e24      	ldr	r6, [pc, #144]	; (8002f64 <__aeabi_dadd+0x744>)
 8002ed4:	e549      	b.n	800296a <__aeabi_dadd+0x14a>
 8002ed6:	465d      	mov	r5, fp
 8002ed8:	4305      	orrs	r5, r0
 8002eda:	2300      	movs	r3, #0
 8002edc:	2200      	movs	r2, #0
 8002ede:	2d00      	cmp	r5, #0
 8002ee0:	d100      	bne.n	8002ee4 <__aeabi_dadd+0x6c4>
 8002ee2:	e758      	b.n	8002d96 <__aeabi_dadd+0x576>
 8002ee4:	2201      	movs	r2, #1
 8002ee6:	e756      	b.n	8002d96 <__aeabi_dadd+0x576>
 8002ee8:	1c14      	adds	r4, r2, #0
 8002eea:	464b      	mov	r3, r9
 8002eec:	1c0f      	adds	r7, r1, #0
 8002eee:	2201      	movs	r2, #1
 8002ef0:	2600      	movs	r6, #0
 8002ef2:	e522      	b.n	800293a <__aeabi_dadd+0x11a>
 8002ef4:	1c14      	adds	r4, r2, #0
 8002ef6:	2280      	movs	r2, #128	; 0x80
 8002ef8:	464b      	mov	r3, r9
 8002efa:	0112      	lsls	r2, r2, #4
 8002efc:	4e19      	ldr	r6, [pc, #100]	; (8002f64 <__aeabi_dadd+0x744>)
 8002efe:	e51c      	b.n	800293a <__aeabi_dadd+0x11a>
 8002f00:	1c06      	adds	r6, r0, #0
 8002f02:	e784      	b.n	8002e0e <__aeabi_dadd+0x5ee>
 8002f04:	4a17      	ldr	r2, [pc, #92]	; (8002f64 <__aeabi_dadd+0x744>)
 8002f06:	4296      	cmp	r6, r2
 8002f08:	d000      	beq.n	8002f0c <__aeabi_dadd+0x6ec>
 8002f0a:	e730      	b.n	8002d6e <__aeabi_dadd+0x54e>
 8002f0c:	1c0f      	adds	r7, r1, #0
 8002f0e:	2180      	movs	r1, #128	; 0x80
 8002f10:	464b      	mov	r3, r9
 8002f12:	4654      	mov	r4, sl
 8002f14:	010a      	lsls	r2, r1, #4
 8002f16:	e510      	b.n	800293a <__aeabi_dadd+0x11a>
 8002f18:	0574      	lsls	r4, r6, #21
 8002f1a:	0d66      	lsrs	r6, r4, #21
 8002f1c:	2300      	movs	r3, #0
 8002f1e:	2400      	movs	r4, #0
 8002f20:	e52f      	b.n	8002982 <__aeabi_dadd+0x162>
 8002f22:	1c18      	adds	r0, r3, #0
 8002f24:	4328      	orrs	r0, r5
 8002f26:	d100      	bne.n	8002f2a <__aeabi_dadd+0x70a>
 8002f28:	e64c      	b.n	8002bc4 <__aeabi_dadd+0x3a4>
 8002f2a:	1c2c      	adds	r4, r5, #0
 8002f2c:	2201      	movs	r2, #1
 8002f2e:	2600      	movs	r6, #0
 8002f30:	e503      	b.n	800293a <__aeabi_dadd+0x11a>
 8002f32:	1c1c      	adds	r4, r3, #0
 8002f34:	3c20      	subs	r4, #32
 8002f36:	465d      	mov	r5, fp
 8002f38:	40e5      	lsrs	r5, r4
 8002f3a:	1c2c      	adds	r4, r5, #0
 8002f3c:	2b20      	cmp	r3, #32
 8002f3e:	d01c      	beq.n	8002f7a <__aeabi_dadd+0x75a>
 8002f40:	2240      	movs	r2, #64	; 0x40
 8002f42:	1ad3      	subs	r3, r2, r3
 8002f44:	465a      	mov	r2, fp
 8002f46:	409a      	lsls	r2, r3
 8002f48:	4302      	orrs	r2, r0
 8002f4a:	1e50      	subs	r0, r2, #1
 8002f4c:	4182      	sbcs	r2, r0
 8002f4e:	4322      	orrs	r2, r4
 8002f50:	2300      	movs	r3, #0
 8002f52:	e720      	b.n	8002d96 <__aeabi_dadd+0x576>
 8002f54:	465b      	mov	r3, fp
 8002f56:	1c04      	adds	r4, r0, #0
 8002f58:	1c0f      	adds	r7, r1, #0
 8002f5a:	2201      	movs	r2, #1
 8002f5c:	2600      	movs	r6, #0
 8002f5e:	e4ec      	b.n	800293a <__aeabi_dadd+0x11a>
 8002f60:	2500      	movs	r5, #0
 8002f62:	e799      	b.n	8002e98 <__aeabi_dadd+0x678>
 8002f64:	000007ff 	.word	0x000007ff
 8002f68:	ff7fffff 	.word	0xff7fffff
 8002f6c:	007fffff 	.word	0x007fffff
 8002f70:	1c2c      	adds	r4, r5, #0
 8002f72:	1c0f      	adds	r7, r1, #0
 8002f74:	2201      	movs	r2, #1
 8002f76:	2600      	movs	r6, #0
 8002f78:	e4df      	b.n	800293a <__aeabi_dadd+0x11a>
 8002f7a:	2200      	movs	r2, #0
 8002f7c:	e7e4      	b.n	8002f48 <__aeabi_dadd+0x728>
 8002f7e:	46c0      	nop			; (mov r8, r8)

08002f80 <__aeabi_ddiv>:
 8002f80:	b5f0      	push	{r4, r5, r6, r7, lr}
 8002f82:	464d      	mov	r5, r9
 8002f84:	4644      	mov	r4, r8
 8002f86:	465f      	mov	r7, fp
 8002f88:	4656      	mov	r6, sl
 8002f8a:	b4f0      	push	{r4, r5, r6, r7}
 8002f8c:	1c1d      	adds	r5, r3, #0
 8002f8e:	004b      	lsls	r3, r1, #1
 8002f90:	1c14      	adds	r4, r2, #0
 8002f92:	030e      	lsls	r6, r1, #12
 8002f94:	0d5b      	lsrs	r3, r3, #21
 8002f96:	0fca      	lsrs	r2, r1, #31
 8002f98:	b087      	sub	sp, #28
 8002f9a:	1c07      	adds	r7, r0, #0
 8002f9c:	0b36      	lsrs	r6, r6, #12
 8002f9e:	4698      	mov	r8, r3
 8002fa0:	4691      	mov	r9, r2
 8002fa2:	2b00      	cmp	r3, #0
 8002fa4:	d11d      	bne.n	8002fe2 <__aeabi_ddiv+0x62>
 8002fa6:	1c32      	adds	r2, r6, #0
 8002fa8:	4302      	orrs	r2, r0
 8002faa:	d100      	bne.n	8002fae <__aeabi_ddiv+0x2e>
 8002fac:	e181      	b.n	80032b2 <__aeabi_ddiv+0x332>
 8002fae:	2e00      	cmp	r6, #0
 8002fb0:	d100      	bne.n	8002fb4 <__aeabi_ddiv+0x34>
 8002fb2:	e204      	b.n	80033be <__aeabi_ddiv+0x43e>
 8002fb4:	1c30      	adds	r0, r6, #0
 8002fb6:	f000 fec7 	bl	8003d48 <__clzsi2>
 8002fba:	2827      	cmp	r0, #39	; 0x27
 8002fbc:	dd00      	ble.n	8002fc0 <__aeabi_ddiv+0x40>
 8002fbe:	e1f8      	b.n	80033b2 <__aeabi_ddiv+0x432>
 8002fc0:	2128      	movs	r1, #40	; 0x28
 8002fc2:	1c03      	adds	r3, r0, #0
 8002fc4:	3b08      	subs	r3, #8
 8002fc6:	1a0a      	subs	r2, r1, r0
 8002fc8:	1c39      	adds	r1, r7, #0
 8002fca:	409e      	lsls	r6, r3
 8002fcc:	40d1      	lsrs	r1, r2
 8002fce:	430e      	orrs	r6, r1
 8002fd0:	409f      	lsls	r7, r3
 8002fd2:	4bc1      	ldr	r3, [pc, #772]	; (80032d8 <__aeabi_ddiv+0x358>)
 8002fd4:	2100      	movs	r1, #0
 8002fd6:	1a18      	subs	r0, r3, r0
 8002fd8:	2200      	movs	r2, #0
 8002fda:	4680      	mov	r8, r0
 8002fdc:	468a      	mov	sl, r1
 8002fde:	9200      	str	r2, [sp, #0]
 8002fe0:	e00f      	b.n	8003002 <__aeabi_ddiv+0x82>
 8002fe2:	48be      	ldr	r0, [pc, #760]	; (80032dc <__aeabi_ddiv+0x35c>)
 8002fe4:	4283      	cmp	r3, r0
 8002fe6:	d031      	beq.n	800304c <__aeabi_ddiv+0xcc>
 8002fe8:	2180      	movs	r1, #128	; 0x80
 8002fea:	034b      	lsls	r3, r1, #13
 8002fec:	431e      	orrs	r6, r3
 8002fee:	48bc      	ldr	r0, [pc, #752]	; (80032e0 <__aeabi_ddiv+0x360>)
 8002ff0:	0f7a      	lsrs	r2, r7, #29
 8002ff2:	00f6      	lsls	r6, r6, #3
 8002ff4:	2100      	movs	r1, #0
 8002ff6:	2300      	movs	r3, #0
 8002ff8:	4316      	orrs	r6, r2
 8002ffa:	00ff      	lsls	r7, r7, #3
 8002ffc:	4480      	add	r8, r0
 8002ffe:	468a      	mov	sl, r1
 8003000:	9300      	str	r3, [sp, #0]
 8003002:	1c29      	adds	r1, r5, #0
 8003004:	1c20      	adds	r0, r4, #0
 8003006:	1c25      	adds	r5, r4, #0
 8003008:	004a      	lsls	r2, r1, #1
 800300a:	030c      	lsls	r4, r1, #12
 800300c:	0fcb      	lsrs	r3, r1, #31
 800300e:	0b24      	lsrs	r4, r4, #12
 8003010:	0d52      	lsrs	r2, r2, #21
 8003012:	469b      	mov	fp, r3
 8003014:	d125      	bne.n	8003062 <__aeabi_ddiv+0xe2>
 8003016:	1c21      	adds	r1, r4, #0
 8003018:	4301      	orrs	r1, r0
 800301a:	d100      	bne.n	800301e <__aeabi_ddiv+0x9e>
 800301c:	e150      	b.n	80032c0 <__aeabi_ddiv+0x340>
 800301e:	2c00      	cmp	r4, #0
 8003020:	d100      	bne.n	8003024 <__aeabi_ddiv+0xa4>
 8003022:	e1c2      	b.n	80033aa <__aeabi_ddiv+0x42a>
 8003024:	1c20      	adds	r0, r4, #0
 8003026:	f000 fe8f 	bl	8003d48 <__clzsi2>
 800302a:	2827      	cmp	r0, #39	; 0x27
 800302c:	dd00      	ble.n	8003030 <__aeabi_ddiv+0xb0>
 800302e:	e1b6      	b.n	800339e <__aeabi_ddiv+0x41e>
 8003030:	1c03      	adds	r3, r0, #0
 8003032:	2228      	movs	r2, #40	; 0x28
 8003034:	3b08      	subs	r3, #8
 8003036:	1c29      	adds	r1, r5, #0
 8003038:	1a12      	subs	r2, r2, r0
 800303a:	409c      	lsls	r4, r3
 800303c:	40d1      	lsrs	r1, r2
 800303e:	430c      	orrs	r4, r1
 8003040:	409d      	lsls	r5, r3
 8003042:	4ba5      	ldr	r3, [pc, #660]	; (80032d8 <__aeabi_ddiv+0x358>)
 8003044:	1a1a      	subs	r2, r3, r0
 8003046:	2000      	movs	r0, #0
 8003048:	9002      	str	r0, [sp, #8]
 800304a:	e019      	b.n	8003080 <__aeabi_ddiv+0x100>
 800304c:	1c32      	adds	r2, r6, #0
 800304e:	433a      	orrs	r2, r7
 8003050:	d000      	beq.n	8003054 <__aeabi_ddiv+0xd4>
 8003052:	e129      	b.n	80032a8 <__aeabi_ddiv+0x328>
 8003054:	2708      	movs	r7, #8
 8003056:	2302      	movs	r3, #2
 8003058:	46ba      	mov	sl, r7
 800305a:	2600      	movs	r6, #0
 800305c:	2700      	movs	r7, #0
 800305e:	9300      	str	r3, [sp, #0]
 8003060:	e7cf      	b.n	8003002 <__aeabi_ddiv+0x82>
 8003062:	489e      	ldr	r0, [pc, #632]	; (80032dc <__aeabi_ddiv+0x35c>)
 8003064:	4282      	cmp	r2, r0
 8003066:	d100      	bne.n	800306a <__aeabi_ddiv+0xea>
 8003068:	e113      	b.n	8003292 <__aeabi_ddiv+0x312>
 800306a:	2180      	movs	r1, #128	; 0x80
 800306c:	034b      	lsls	r3, r1, #13
 800306e:	431c      	orrs	r4, r3
 8003070:	499b      	ldr	r1, [pc, #620]	; (80032e0 <__aeabi_ddiv+0x360>)
 8003072:	0f68      	lsrs	r0, r5, #29
 8003074:	00e4      	lsls	r4, r4, #3
 8003076:	2300      	movs	r3, #0
 8003078:	4304      	orrs	r4, r0
 800307a:	00ed      	lsls	r5, r5, #3
 800307c:	1852      	adds	r2, r2, r1
 800307e:	9302      	str	r3, [sp, #8]
 8003080:	4648      	mov	r0, r9
 8003082:	465b      	mov	r3, fp
 8003084:	4043      	eors	r3, r0
 8003086:	9802      	ldr	r0, [sp, #8]
 8003088:	4651      	mov	r1, sl
 800308a:	9301      	str	r3, [sp, #4]
 800308c:	4301      	orrs	r1, r0
 800308e:	290f      	cmp	r1, #15
 8003090:	d800      	bhi.n	8003094 <__aeabi_ddiv+0x114>
 8003092:	e0df      	b.n	8003254 <__aeabi_ddiv+0x2d4>
 8003094:	4643      	mov	r3, r8
 8003096:	1a9a      	subs	r2, r3, r2
 8003098:	9204      	str	r2, [sp, #16]
 800309a:	42a6      	cmp	r6, r4
 800309c:	d800      	bhi.n	80030a0 <__aeabi_ddiv+0x120>
 800309e:	e16e      	b.n	800337e <__aeabi_ddiv+0x3fe>
 80030a0:	0871      	lsrs	r1, r6, #1
 80030a2:	087b      	lsrs	r3, r7, #1
 80030a4:	07f6      	lsls	r6, r6, #31
 80030a6:	4333      	orrs	r3, r6
 80030a8:	07fa      	lsls	r2, r7, #31
 80030aa:	4689      	mov	r9, r1
 80030ac:	4698      	mov	r8, r3
 80030ae:	9202      	str	r2, [sp, #8]
 80030b0:	0e28      	lsrs	r0, r5, #24
 80030b2:	0224      	lsls	r4, r4, #8
 80030b4:	4304      	orrs	r4, r0
 80030b6:	022d      	lsls	r5, r5, #8
 80030b8:	0427      	lsls	r7, r4, #16
 80030ba:	0c39      	lsrs	r1, r7, #16
 80030bc:	46ab      	mov	fp, r5
 80030be:	0c25      	lsrs	r5, r4, #16
 80030c0:	9100      	str	r1, [sp, #0]
 80030c2:	4648      	mov	r0, r9
 80030c4:	1c29      	adds	r1, r5, #0
 80030c6:	f7fe fcb5 	bl	8001a34 <__aeabi_uidiv>
 80030ca:	9f00      	ldr	r7, [sp, #0]
 80030cc:	1c06      	adds	r6, r0, #0
 80030ce:	4347      	muls	r7, r0
 80030d0:	1c29      	adds	r1, r5, #0
 80030d2:	4648      	mov	r0, r9
 80030d4:	f7fe fcf2 	bl	8001abc <__aeabi_uidivmod>
 80030d8:	4643      	mov	r3, r8
 80030da:	0408      	lsls	r0, r1, #16
 80030dc:	0c1a      	lsrs	r2, r3, #16
 80030de:	4310      	orrs	r0, r2
 80030e0:	4287      	cmp	r7, r0
 80030e2:	d907      	bls.n	80030f4 <__aeabi_ddiv+0x174>
 80030e4:	1900      	adds	r0, r0, r4
 80030e6:	3e01      	subs	r6, #1
 80030e8:	4284      	cmp	r4, r0
 80030ea:	d803      	bhi.n	80030f4 <__aeabi_ddiv+0x174>
 80030ec:	4287      	cmp	r7, r0
 80030ee:	d901      	bls.n	80030f4 <__aeabi_ddiv+0x174>
 80030f0:	3e01      	subs	r6, #1
 80030f2:	1900      	adds	r0, r0, r4
 80030f4:	1bc1      	subs	r1, r0, r7
 80030f6:	468a      	mov	sl, r1
 80030f8:	1c08      	adds	r0, r1, #0
 80030fa:	1c29      	adds	r1, r5, #0
 80030fc:	f7fe fc9a 	bl	8001a34 <__aeabi_uidiv>
 8003100:	9b00      	ldr	r3, [sp, #0]
 8003102:	1c07      	adds	r7, r0, #0
 8003104:	4343      	muls	r3, r0
 8003106:	1c29      	adds	r1, r5, #0
 8003108:	4650      	mov	r0, sl
 800310a:	4699      	mov	r9, r3
 800310c:	f7fe fcd6 	bl	8001abc <__aeabi_uidivmod>
 8003110:	4642      	mov	r2, r8
 8003112:	0410      	lsls	r0, r2, #16
 8003114:	040b      	lsls	r3, r1, #16
 8003116:	0c01      	lsrs	r1, r0, #16
 8003118:	430b      	orrs	r3, r1
 800311a:	4599      	cmp	r9, r3
 800311c:	d904      	bls.n	8003128 <__aeabi_ddiv+0x1a8>
 800311e:	191b      	adds	r3, r3, r4
 8003120:	3f01      	subs	r7, #1
 8003122:	429c      	cmp	r4, r3
 8003124:	d800      	bhi.n	8003128 <__aeabi_ddiv+0x1a8>
 8003126:	e164      	b.n	80033f2 <__aeabi_ddiv+0x472>
 8003128:	0436      	lsls	r6, r6, #16
 800312a:	433e      	orrs	r6, r7
 800312c:	465f      	mov	r7, fp
 800312e:	464a      	mov	r2, r9
 8003130:	0c39      	lsrs	r1, r7, #16
 8003132:	4689      	mov	r9, r1
 8003134:	1a9b      	subs	r3, r3, r2
 8003136:	4659      	mov	r1, fp
 8003138:	0432      	lsls	r2, r6, #16
 800313a:	0c17      	lsrs	r7, r2, #16
 800313c:	040a      	lsls	r2, r1, #16
 800313e:	4649      	mov	r1, r9
 8003140:	4379      	muls	r1, r7
 8003142:	0c12      	lsrs	r2, r2, #16
 8003144:	9203      	str	r2, [sp, #12]
 8003146:	468c      	mov	ip, r1
 8003148:	9903      	ldr	r1, [sp, #12]
 800314a:	0c30      	lsrs	r0, r6, #16
 800314c:	437a      	muls	r2, r7
 800314e:	4341      	muls	r1, r0
 8003150:	464f      	mov	r7, r9
 8003152:	4378      	muls	r0, r7
 8003154:	448c      	add	ip, r1
 8003156:	0c17      	lsrs	r7, r2, #16
 8003158:	4467      	add	r7, ip
 800315a:	42b9      	cmp	r1, r7
 800315c:	d902      	bls.n	8003164 <__aeabi_ddiv+0x1e4>
 800315e:	2180      	movs	r1, #128	; 0x80
 8003160:	0249      	lsls	r1, r1, #9
 8003162:	1840      	adds	r0, r0, r1
 8003164:	0c39      	lsrs	r1, r7, #16
 8003166:	0412      	lsls	r2, r2, #16
 8003168:	1840      	adds	r0, r0, r1
 800316a:	043f      	lsls	r7, r7, #16
 800316c:	0c11      	lsrs	r1, r2, #16
 800316e:	187f      	adds	r7, r7, r1
 8003170:	4283      	cmp	r3, r0
 8003172:	d200      	bcs.n	8003176 <__aeabi_ddiv+0x1f6>
 8003174:	e127      	b.n	80033c6 <__aeabi_ddiv+0x446>
 8003176:	d100      	bne.n	800317a <__aeabi_ddiv+0x1fa>
 8003178:	e141      	b.n	80033fe <__aeabi_ddiv+0x47e>
 800317a:	9902      	ldr	r1, [sp, #8]
 800317c:	1a1b      	subs	r3, r3, r0
 800317e:	1bcf      	subs	r7, r1, r7
 8003180:	42b9      	cmp	r1, r7
 8003182:	4180      	sbcs	r0, r0
 8003184:	4241      	negs	r1, r0
 8003186:	1a5a      	subs	r2, r3, r1
 8003188:	4690      	mov	r8, r2
 800318a:	42a2      	cmp	r2, r4
 800318c:	d100      	bne.n	8003190 <__aeabi_ddiv+0x210>
 800318e:	e15f      	b.n	8003450 <__aeabi_ddiv+0x4d0>
 8003190:	1c10      	adds	r0, r2, #0
 8003192:	1c29      	adds	r1, r5, #0
 8003194:	f7fe fc4e 	bl	8001a34 <__aeabi_uidiv>
 8003198:	9b00      	ldr	r3, [sp, #0]
 800319a:	9002      	str	r0, [sp, #8]
 800319c:	4343      	muls	r3, r0
 800319e:	1c29      	adds	r1, r5, #0
 80031a0:	4640      	mov	r0, r8
 80031a2:	469a      	mov	sl, r3
 80031a4:	f7fe fc8a 	bl	8001abc <__aeabi_uidivmod>
 80031a8:	0c38      	lsrs	r0, r7, #16
 80031aa:	0409      	lsls	r1, r1, #16
 80031ac:	4301      	orrs	r1, r0
 80031ae:	458a      	cmp	sl, r1
 80031b0:	d90a      	bls.n	80031c8 <__aeabi_ddiv+0x248>
 80031b2:	9a02      	ldr	r2, [sp, #8]
 80031b4:	1909      	adds	r1, r1, r4
 80031b6:	3a01      	subs	r2, #1
 80031b8:	9202      	str	r2, [sp, #8]
 80031ba:	428c      	cmp	r4, r1
 80031bc:	d804      	bhi.n	80031c8 <__aeabi_ddiv+0x248>
 80031be:	458a      	cmp	sl, r1
 80031c0:	d902      	bls.n	80031c8 <__aeabi_ddiv+0x248>
 80031c2:	3a01      	subs	r2, #1
 80031c4:	9202      	str	r2, [sp, #8]
 80031c6:	1909      	adds	r1, r1, r4
 80031c8:	4653      	mov	r3, sl
 80031ca:	1ac8      	subs	r0, r1, r3
 80031cc:	1c29      	adds	r1, r5, #0
 80031ce:	9005      	str	r0, [sp, #20]
 80031d0:	f7fe fc30 	bl	8001a34 <__aeabi_uidiv>
 80031d4:	9a00      	ldr	r2, [sp, #0]
 80031d6:	1c29      	adds	r1, r5, #0
 80031d8:	4342      	muls	r2, r0
 80031da:	4680      	mov	r8, r0
 80031dc:	9805      	ldr	r0, [sp, #20]
 80031de:	4692      	mov	sl, r2
 80031e0:	f7fe fc6c 	bl	8001abc <__aeabi_uidivmod>
 80031e4:	043f      	lsls	r7, r7, #16
 80031e6:	040d      	lsls	r5, r1, #16
 80031e8:	0c3a      	lsrs	r2, r7, #16
 80031ea:	432a      	orrs	r2, r5
 80031ec:	4592      	cmp	sl, r2
 80031ee:	d909      	bls.n	8003204 <__aeabi_ddiv+0x284>
 80031f0:	2101      	movs	r1, #1
 80031f2:	424b      	negs	r3, r1
 80031f4:	1912      	adds	r2, r2, r4
 80031f6:	4498      	add	r8, r3
 80031f8:	4294      	cmp	r4, r2
 80031fa:	d803      	bhi.n	8003204 <__aeabi_ddiv+0x284>
 80031fc:	4592      	cmp	sl, r2
 80031fe:	d901      	bls.n	8003204 <__aeabi_ddiv+0x284>
 8003200:	4498      	add	r8, r3
 8003202:	1912      	adds	r2, r2, r4
 8003204:	9d02      	ldr	r5, [sp, #8]
 8003206:	4643      	mov	r3, r8
 8003208:	042f      	lsls	r7, r5, #16
 800320a:	431f      	orrs	r7, r3
 800320c:	4650      	mov	r0, sl
 800320e:	1a11      	subs	r1, r2, r0
 8003210:	0438      	lsls	r0, r7, #16
 8003212:	0c03      	lsrs	r3, r0, #16
 8003214:	464d      	mov	r5, r9
 8003216:	435d      	muls	r5, r3
 8003218:	9803      	ldr	r0, [sp, #12]
 800321a:	46ac      	mov	ip, r5
 800321c:	9d03      	ldr	r5, [sp, #12]
 800321e:	0c3a      	lsrs	r2, r7, #16
 8003220:	4358      	muls	r0, r3
 8003222:	4355      	muls	r5, r2
 8003224:	464b      	mov	r3, r9
 8003226:	435a      	muls	r2, r3
 8003228:	44ac      	add	ip, r5
 800322a:	0c03      	lsrs	r3, r0, #16
 800322c:	4463      	add	r3, ip
 800322e:	429d      	cmp	r5, r3
 8003230:	d902      	bls.n	8003238 <__aeabi_ddiv+0x2b8>
 8003232:	2580      	movs	r5, #128	; 0x80
 8003234:	026d      	lsls	r5, r5, #9
 8003236:	1952      	adds	r2, r2, r5
 8003238:	0c1d      	lsrs	r5, r3, #16
 800323a:	0400      	lsls	r0, r0, #16
 800323c:	1952      	adds	r2, r2, r5
 800323e:	041b      	lsls	r3, r3, #16
 8003240:	0c05      	lsrs	r5, r0, #16
 8003242:	195b      	adds	r3, r3, r5
 8003244:	4291      	cmp	r1, r2
 8003246:	d200      	bcs.n	800324a <__aeabi_ddiv+0x2ca>
 8003248:	e0e6      	b.n	8003418 <__aeabi_ddiv+0x498>
 800324a:	d100      	bne.n	800324e <__aeabi_ddiv+0x2ce>
 800324c:	e13d      	b.n	80034ca <__aeabi_ddiv+0x54a>
 800324e:	2201      	movs	r2, #1
 8003250:	4317      	orrs	r7, r2
 8003252:	e05a      	b.n	800330a <__aeabi_ddiv+0x38a>
 8003254:	0089      	lsls	r1, r1, #2
 8003256:	4823      	ldr	r0, [pc, #140]	; (80032e4 <__aeabi_ddiv+0x364>)
 8003258:	468c      	mov	ip, r1
 800325a:	4460      	add	r0, ip
 800325c:	6801      	ldr	r1, [r0, #0]
 800325e:	468f      	mov	pc, r1
 8003260:	9b01      	ldr	r3, [sp, #4]
 8003262:	4a1e      	ldr	r2, [pc, #120]	; (80032dc <__aeabi_ddiv+0x35c>)
 8003264:	2600      	movs	r6, #0
 8003266:	2700      	movs	r7, #0
 8003268:	2000      	movs	r0, #0
 800326a:	2100      	movs	r1, #0
 800326c:	1c38      	adds	r0, r7, #0
 800326e:	0d0f      	lsrs	r7, r1, #20
 8003270:	053c      	lsls	r4, r7, #20
 8003272:	4d1d      	ldr	r5, [pc, #116]	; (80032e8 <__aeabi_ddiv+0x368>)
 8003274:	4334      	orrs	r4, r6
 8003276:	0512      	lsls	r2, r2, #20
 8003278:	4025      	ands	r5, r4
 800327a:	4315      	orrs	r5, r2
 800327c:	006e      	lsls	r6, r5, #1
 800327e:	07db      	lsls	r3, r3, #31
 8003280:	0871      	lsrs	r1, r6, #1
 8003282:	4319      	orrs	r1, r3
 8003284:	b007      	add	sp, #28
 8003286:	bc3c      	pop	{r2, r3, r4, r5}
 8003288:	4690      	mov	r8, r2
 800328a:	4699      	mov	r9, r3
 800328c:	46a2      	mov	sl, r4
 800328e:	46ab      	mov	fp, r5
 8003290:	bdf0      	pop	{r4, r5, r6, r7, pc}
 8003292:	1c21      	adds	r1, r4, #0
 8003294:	2003      	movs	r0, #3
 8003296:	4329      	orrs	r1, r5
 8003298:	9002      	str	r0, [sp, #8]
 800329a:	d000      	beq.n	800329e <__aeabi_ddiv+0x31e>
 800329c:	e6f0      	b.n	8003080 <__aeabi_ddiv+0x100>
 800329e:	2302      	movs	r3, #2
 80032a0:	2400      	movs	r4, #0
 80032a2:	2500      	movs	r5, #0
 80032a4:	9302      	str	r3, [sp, #8]
 80032a6:	e6eb      	b.n	8003080 <__aeabi_ddiv+0x100>
 80032a8:	200c      	movs	r0, #12
 80032aa:	2103      	movs	r1, #3
 80032ac:	4682      	mov	sl, r0
 80032ae:	9100      	str	r1, [sp, #0]
 80032b0:	e6a7      	b.n	8003002 <__aeabi_ddiv+0x82>
 80032b2:	2704      	movs	r7, #4
 80032b4:	2301      	movs	r3, #1
 80032b6:	46ba      	mov	sl, r7
 80032b8:	2600      	movs	r6, #0
 80032ba:	2700      	movs	r7, #0
 80032bc:	9300      	str	r3, [sp, #0]
 80032be:	e6a0      	b.n	8003002 <__aeabi_ddiv+0x82>
 80032c0:	2101      	movs	r1, #1
 80032c2:	2400      	movs	r4, #0
 80032c4:	2500      	movs	r5, #0
 80032c6:	9102      	str	r1, [sp, #8]
 80032c8:	e6da      	b.n	8003080 <__aeabi_ddiv+0x100>
 80032ca:	2701      	movs	r7, #1
 80032cc:	2300      	movs	r3, #0
 80032ce:	4e07      	ldr	r6, [pc, #28]	; (80032ec <__aeabi_ddiv+0x36c>)
 80032d0:	427f      	negs	r7, r7
 80032d2:	4a02      	ldr	r2, [pc, #8]	; (80032dc <__aeabi_ddiv+0x35c>)
 80032d4:	e7c8      	b.n	8003268 <__aeabi_ddiv+0x2e8>
 80032d6:	46c0      	nop			; (mov r8, r8)
 80032d8:	fffffc0d 	.word	0xfffffc0d
 80032dc:	000007ff 	.word	0x000007ff
 80032e0:	fffffc01 	.word	0xfffffc01
 80032e4:	08005254 	.word	0x08005254
 80032e8:	800fffff 	.word	0x800fffff
 80032ec:	000fffff 	.word	0x000fffff
 80032f0:	1c2f      	adds	r7, r5, #0
 80032f2:	465a      	mov	r2, fp
 80032f4:	9d02      	ldr	r5, [sp, #8]
 80032f6:	1c26      	adds	r6, r4, #0
 80032f8:	9201      	str	r2, [sp, #4]
 80032fa:	2d02      	cmp	r5, #2
 80032fc:	d0b0      	beq.n	8003260 <__aeabi_ddiv+0x2e0>
 80032fe:	2d03      	cmp	r5, #3
 8003300:	d100      	bne.n	8003304 <__aeabi_ddiv+0x384>
 8003302:	e101      	b.n	8003508 <__aeabi_ddiv+0x588>
 8003304:	2d01      	cmp	r5, #1
 8003306:	d100      	bne.n	800330a <__aeabi_ddiv+0x38a>
 8003308:	e09c      	b.n	8003444 <__aeabi_ddiv+0x4c4>
 800330a:	9b04      	ldr	r3, [sp, #16]
 800330c:	4882      	ldr	r0, [pc, #520]	; (8003518 <__aeabi_ddiv+0x598>)
 800330e:	181a      	adds	r2, r3, r0
 8003310:	2a00      	cmp	r2, #0
 8003312:	dc00      	bgt.n	8003316 <__aeabi_ddiv+0x396>
 8003314:	e08c      	b.n	8003430 <__aeabi_ddiv+0x4b0>
 8003316:	240f      	movs	r4, #15
 8003318:	403c      	ands	r4, r7
 800331a:	2c04      	cmp	r4, #4
 800331c:	d005      	beq.n	800332a <__aeabi_ddiv+0x3aa>
 800331e:	1d3b      	adds	r3, r7, #4
 8003320:	42bb      	cmp	r3, r7
 8003322:	41bf      	sbcs	r7, r7
 8003324:	427d      	negs	r5, r7
 8003326:	1976      	adds	r6, r6, r5
 8003328:	1c1f      	adds	r7, r3, #0
 800332a:	01f1      	lsls	r1, r6, #7
 800332c:	d505      	bpl.n	800333a <__aeabi_ddiv+0x3ba>
 800332e:	4a7b      	ldr	r2, [pc, #492]	; (800351c <__aeabi_ddiv+0x59c>)
 8003330:	9904      	ldr	r1, [sp, #16]
 8003332:	2080      	movs	r0, #128	; 0x80
 8003334:	00c4      	lsls	r4, r0, #3
 8003336:	4016      	ands	r6, r2
 8003338:	190a      	adds	r2, r1, r4
 800333a:	4b79      	ldr	r3, [pc, #484]	; (8003520 <__aeabi_ddiv+0x5a0>)
 800333c:	429a      	cmp	r2, r3
 800333e:	dd00      	ble.n	8003342 <__aeabi_ddiv+0x3c2>
 8003340:	e78e      	b.n	8003260 <__aeabi_ddiv+0x2e0>
 8003342:	0775      	lsls	r5, r6, #29
 8003344:	08ff      	lsrs	r7, r7, #3
 8003346:	0276      	lsls	r6, r6, #9
 8003348:	0551      	lsls	r1, r2, #21
 800334a:	432f      	orrs	r7, r5
 800334c:	0b36      	lsrs	r6, r6, #12
 800334e:	0d4a      	lsrs	r2, r1, #21
 8003350:	9b01      	ldr	r3, [sp, #4]
 8003352:	e789      	b.n	8003268 <__aeabi_ddiv+0x2e8>
 8003354:	2200      	movs	r2, #0
 8003356:	2600      	movs	r6, #0
 8003358:	2700      	movs	r7, #0
 800335a:	e785      	b.n	8003268 <__aeabi_ddiv+0x2e8>
 800335c:	2080      	movs	r0, #128	; 0x80
 800335e:	0301      	lsls	r1, r0, #12
 8003360:	420e      	tst	r6, r1
 8003362:	d016      	beq.n	8003392 <__aeabi_ddiv+0x412>
 8003364:	420c      	tst	r4, r1
 8003366:	d114      	bne.n	8003392 <__aeabi_ddiv+0x412>
 8003368:	430c      	orrs	r4, r1
 800336a:	0326      	lsls	r6, r4, #12
 800336c:	0b36      	lsrs	r6, r6, #12
 800336e:	465b      	mov	r3, fp
 8003370:	1c2f      	adds	r7, r5, #0
 8003372:	4a6c      	ldr	r2, [pc, #432]	; (8003524 <__aeabi_ddiv+0x5a4>)
 8003374:	e778      	b.n	8003268 <__aeabi_ddiv+0x2e8>
 8003376:	464c      	mov	r4, r9
 8003378:	9401      	str	r4, [sp, #4]
 800337a:	9d00      	ldr	r5, [sp, #0]
 800337c:	e7bd      	b.n	80032fa <__aeabi_ddiv+0x37a>
 800337e:	42a6      	cmp	r6, r4
 8003380:	d043      	beq.n	800340a <__aeabi_ddiv+0x48a>
 8003382:	9804      	ldr	r0, [sp, #16]
 8003384:	46b8      	mov	r8, r7
 8003386:	3801      	subs	r0, #1
 8003388:	2700      	movs	r7, #0
 800338a:	9004      	str	r0, [sp, #16]
 800338c:	46b1      	mov	r9, r6
 800338e:	9702      	str	r7, [sp, #8]
 8003390:	e68e      	b.n	80030b0 <__aeabi_ddiv+0x130>
 8003392:	430e      	orrs	r6, r1
 8003394:	0333      	lsls	r3, r6, #12
 8003396:	0b1e      	lsrs	r6, r3, #12
 8003398:	4a62      	ldr	r2, [pc, #392]	; (8003524 <__aeabi_ddiv+0x5a4>)
 800339a:	464b      	mov	r3, r9
 800339c:	e764      	b.n	8003268 <__aeabi_ddiv+0x2e8>
 800339e:	1c04      	adds	r4, r0, #0
 80033a0:	3c28      	subs	r4, #40	; 0x28
 80033a2:	40a5      	lsls	r5, r4
 80033a4:	1c2c      	adds	r4, r5, #0
 80033a6:	2500      	movs	r5, #0
 80033a8:	e64b      	b.n	8003042 <__aeabi_ddiv+0xc2>
 80033aa:	f000 fccd 	bl	8003d48 <__clzsi2>
 80033ae:	3020      	adds	r0, #32
 80033b0:	e63b      	b.n	800302a <__aeabi_ddiv+0xaa>
 80033b2:	1c06      	adds	r6, r0, #0
 80033b4:	3e28      	subs	r6, #40	; 0x28
 80033b6:	40b7      	lsls	r7, r6
 80033b8:	1c3e      	adds	r6, r7, #0
 80033ba:	2700      	movs	r7, #0
 80033bc:	e609      	b.n	8002fd2 <__aeabi_ddiv+0x52>
 80033be:	f000 fcc3 	bl	8003d48 <__clzsi2>
 80033c2:	3020      	adds	r0, #32
 80033c4:	e5f9      	b.n	8002fba <__aeabi_ddiv+0x3a>
 80033c6:	9a02      	ldr	r2, [sp, #8]
 80033c8:	3e01      	subs	r6, #1
 80033ca:	1c11      	adds	r1, r2, #0
 80033cc:	4459      	add	r1, fp
 80033ce:	4559      	cmp	r1, fp
 80033d0:	4192      	sbcs	r2, r2
 80033d2:	4252      	negs	r2, r2
 80033d4:	1912      	adds	r2, r2, r4
 80033d6:	18d3      	adds	r3, r2, r3
 80033d8:	429c      	cmp	r4, r3
 80033da:	d204      	bcs.n	80033e6 <__aeabi_ddiv+0x466>
 80033dc:	4298      	cmp	r0, r3
 80033de:	d86b      	bhi.n	80034b8 <__aeabi_ddiv+0x538>
 80033e0:	d016      	beq.n	8003410 <__aeabi_ddiv+0x490>
 80033e2:	1a1b      	subs	r3, r3, r0
 80033e4:	e6cb      	b.n	800317e <__aeabi_ddiv+0x1fe>
 80033e6:	42a3      	cmp	r3, r4
 80033e8:	d1fb      	bne.n	80033e2 <__aeabi_ddiv+0x462>
 80033ea:	458b      	cmp	fp, r1
 80033ec:	d9f6      	bls.n	80033dc <__aeabi_ddiv+0x45c>
 80033ee:	1a23      	subs	r3, r4, r0
 80033f0:	e6c5      	b.n	800317e <__aeabi_ddiv+0x1fe>
 80033f2:	4599      	cmp	r9, r3
 80033f4:	d800      	bhi.n	80033f8 <__aeabi_ddiv+0x478>
 80033f6:	e697      	b.n	8003128 <__aeabi_ddiv+0x1a8>
 80033f8:	3f01      	subs	r7, #1
 80033fa:	191b      	adds	r3, r3, r4
 80033fc:	e694      	b.n	8003128 <__aeabi_ddiv+0x1a8>
 80033fe:	9a02      	ldr	r2, [sp, #8]
 8003400:	42ba      	cmp	r2, r7
 8003402:	d3e0      	bcc.n	80033c6 <__aeabi_ddiv+0x446>
 8003404:	9902      	ldr	r1, [sp, #8]
 8003406:	2300      	movs	r3, #0
 8003408:	e6b9      	b.n	800317e <__aeabi_ddiv+0x1fe>
 800340a:	42af      	cmp	r7, r5
 800340c:	d9b9      	bls.n	8003382 <__aeabi_ddiv+0x402>
 800340e:	e647      	b.n	80030a0 <__aeabi_ddiv+0x120>
 8003410:	428f      	cmp	r7, r1
 8003412:	d851      	bhi.n	80034b8 <__aeabi_ddiv+0x538>
 8003414:	2300      	movs	r3, #0
 8003416:	e6b2      	b.n	800317e <__aeabi_ddiv+0x1fe>
 8003418:	1909      	adds	r1, r1, r4
 800341a:	3f01      	subs	r7, #1
 800341c:	4658      	mov	r0, fp
 800341e:	428c      	cmp	r4, r1
 8003420:	d919      	bls.n	8003456 <__aeabi_ddiv+0x4d6>
 8003422:	4291      	cmp	r1, r2
 8003424:	d000      	beq.n	8003428 <__aeabi_ddiv+0x4a8>
 8003426:	e712      	b.n	800324e <__aeabi_ddiv+0x2ce>
 8003428:	4298      	cmp	r0, r3
 800342a:	d000      	beq.n	800342e <__aeabi_ddiv+0x4ae>
 800342c:	e70f      	b.n	800324e <__aeabi_ddiv+0x2ce>
 800342e:	e76c      	b.n	800330a <__aeabi_ddiv+0x38a>
 8003430:	4c3d      	ldr	r4, [pc, #244]	; (8003528 <__aeabi_ddiv+0x5a8>)
 8003432:	9d04      	ldr	r5, [sp, #16]
 8003434:	1b63      	subs	r3, r4, r5
 8003436:	2b38      	cmp	r3, #56	; 0x38
 8003438:	dd1c      	ble.n	8003474 <__aeabi_ddiv+0x4f4>
 800343a:	9b01      	ldr	r3, [sp, #4]
 800343c:	2200      	movs	r2, #0
 800343e:	2600      	movs	r6, #0
 8003440:	2700      	movs	r7, #0
 8003442:	e711      	b.n	8003268 <__aeabi_ddiv+0x2e8>
 8003444:	9b01      	ldr	r3, [sp, #4]
 8003446:	2200      	movs	r2, #0
 8003448:	402b      	ands	r3, r5
 800344a:	2600      	movs	r6, #0
 800344c:	2700      	movs	r7, #0
 800344e:	e70b      	b.n	8003268 <__aeabi_ddiv+0x2e8>
 8003450:	2701      	movs	r7, #1
 8003452:	427f      	negs	r7, r7
 8003454:	e759      	b.n	800330a <__aeabi_ddiv+0x38a>
 8003456:	428a      	cmp	r2, r1
 8003458:	d803      	bhi.n	8003462 <__aeabi_ddiv+0x4e2>
 800345a:	d000      	beq.n	800345e <__aeabi_ddiv+0x4de>
 800345c:	e6f7      	b.n	800324e <__aeabi_ddiv+0x2ce>
 800345e:	4298      	cmp	r0, r3
 8003460:	d2e2      	bcs.n	8003428 <__aeabi_ddiv+0x4a8>
 8003462:	465d      	mov	r5, fp
 8003464:	0068      	lsls	r0, r5, #1
 8003466:	4558      	cmp	r0, fp
 8003468:	41ad      	sbcs	r5, r5
 800346a:	426d      	negs	r5, r5
 800346c:	192c      	adds	r4, r5, r4
 800346e:	3f01      	subs	r7, #1
 8003470:	1909      	adds	r1, r1, r4
 8003472:	e7d6      	b.n	8003422 <__aeabi_ddiv+0x4a2>
 8003474:	2b1f      	cmp	r3, #31
 8003476:	dc34      	bgt.n	80034e2 <__aeabi_ddiv+0x562>
 8003478:	9c04      	ldr	r4, [sp, #16]
 800347a:	4a2c      	ldr	r2, [pc, #176]	; (800352c <__aeabi_ddiv+0x5ac>)
 800347c:	1c38      	adds	r0, r7, #0
 800347e:	18a5      	adds	r5, r4, r2
 8003480:	1c31      	adds	r1, r6, #0
 8003482:	40af      	lsls	r7, r5
 8003484:	40d8      	lsrs	r0, r3
 8003486:	40a9      	lsls	r1, r5
 8003488:	1c3c      	adds	r4, r7, #0
 800348a:	4301      	orrs	r1, r0
 800348c:	1e67      	subs	r7, r4, #1
 800348e:	41bc      	sbcs	r4, r7
 8003490:	1c0f      	adds	r7, r1, #0
 8003492:	4327      	orrs	r7, r4
 8003494:	40de      	lsrs	r6, r3
 8003496:	230f      	movs	r3, #15
 8003498:	403b      	ands	r3, r7
 800349a:	2b04      	cmp	r3, #4
 800349c:	d005      	beq.n	80034aa <__aeabi_ddiv+0x52a>
 800349e:	1d3a      	adds	r2, r7, #4
 80034a0:	42ba      	cmp	r2, r7
 80034a2:	41bf      	sbcs	r7, r7
 80034a4:	427d      	negs	r5, r7
 80034a6:	1976      	adds	r6, r6, r5
 80034a8:	1c17      	adds	r7, r2, #0
 80034aa:	0232      	lsls	r2, r6, #8
 80034ac:	d511      	bpl.n	80034d2 <__aeabi_ddiv+0x552>
 80034ae:	9b01      	ldr	r3, [sp, #4]
 80034b0:	2201      	movs	r2, #1
 80034b2:	2600      	movs	r6, #0
 80034b4:	2700      	movs	r7, #0
 80034b6:	e6d7      	b.n	8003268 <__aeabi_ddiv+0x2e8>
 80034b8:	4459      	add	r1, fp
 80034ba:	4559      	cmp	r1, fp
 80034bc:	4192      	sbcs	r2, r2
 80034be:	4252      	negs	r2, r2
 80034c0:	1912      	adds	r2, r2, r4
 80034c2:	18d3      	adds	r3, r2, r3
 80034c4:	3e01      	subs	r6, #1
 80034c6:	1a1b      	subs	r3, r3, r0
 80034c8:	e659      	b.n	800317e <__aeabi_ddiv+0x1fe>
 80034ca:	2b00      	cmp	r3, #0
 80034cc:	d1a4      	bne.n	8003418 <__aeabi_ddiv+0x498>
 80034ce:	2000      	movs	r0, #0
 80034d0:	e7aa      	b.n	8003428 <__aeabi_ddiv+0x4a8>
 80034d2:	0770      	lsls	r0, r6, #29
 80034d4:	08ff      	lsrs	r7, r7, #3
 80034d6:	0271      	lsls	r1, r6, #9
 80034d8:	4307      	orrs	r7, r0
 80034da:	0b0e      	lsrs	r6, r1, #12
 80034dc:	9b01      	ldr	r3, [sp, #4]
 80034de:	2200      	movs	r2, #0
 80034e0:	e6c2      	b.n	8003268 <__aeabi_ddiv+0x2e8>
 80034e2:	4913      	ldr	r1, [pc, #76]	; (8003530 <__aeabi_ddiv+0x5b0>)
 80034e4:	9c04      	ldr	r4, [sp, #16]
 80034e6:	1c30      	adds	r0, r6, #0
 80034e8:	1b0a      	subs	r2, r1, r4
 80034ea:	40d0      	lsrs	r0, r2
 80034ec:	1c05      	adds	r5, r0, #0
 80034ee:	2b20      	cmp	r3, #32
 80034f0:	d008      	beq.n	8003504 <__aeabi_ddiv+0x584>
 80034f2:	4b10      	ldr	r3, [pc, #64]	; (8003534 <__aeabi_ddiv+0x5b4>)
 80034f4:	18e1      	adds	r1, r4, r3
 80034f6:	408e      	lsls	r6, r1
 80034f8:	4337      	orrs	r7, r6
 80034fa:	1e7b      	subs	r3, r7, #1
 80034fc:	419f      	sbcs	r7, r3
 80034fe:	432f      	orrs	r7, r5
 8003500:	2600      	movs	r6, #0
 8003502:	e7c8      	b.n	8003496 <__aeabi_ddiv+0x516>
 8003504:	2600      	movs	r6, #0
 8003506:	e7f7      	b.n	80034f8 <__aeabi_ddiv+0x578>
 8003508:	2280      	movs	r2, #128	; 0x80
 800350a:	0310      	lsls	r0, r2, #12
 800350c:	4306      	orrs	r6, r0
 800350e:	0331      	lsls	r1, r6, #12
 8003510:	0b0e      	lsrs	r6, r1, #12
 8003512:	9b01      	ldr	r3, [sp, #4]
 8003514:	4a03      	ldr	r2, [pc, #12]	; (8003524 <__aeabi_ddiv+0x5a4>)
 8003516:	e6a7      	b.n	8003268 <__aeabi_ddiv+0x2e8>
 8003518:	000003ff 	.word	0x000003ff
 800351c:	feffffff 	.word	0xfeffffff
 8003520:	000007fe 	.word	0x000007fe
 8003524:	000007ff 	.word	0x000007ff
 8003528:	fffffc02 	.word	0xfffffc02
 800352c:	0000041e 	.word	0x0000041e
 8003530:	fffffbe2 	.word	0xfffffbe2
 8003534:	0000043e 	.word	0x0000043e

08003538 <__aeabi_dmul>:
 8003538:	b5f0      	push	{r4, r5, r6, r7, lr}
 800353a:	4656      	mov	r6, sl
 800353c:	4644      	mov	r4, r8
 800353e:	465f      	mov	r7, fp
 8003540:	464d      	mov	r5, r9
 8003542:	b4f0      	push	{r4, r5, r6, r7}
 8003544:	004f      	lsls	r7, r1, #1
 8003546:	1c1d      	adds	r5, r3, #0
 8003548:	030b      	lsls	r3, r1, #12
 800354a:	1c14      	adds	r4, r2, #0
 800354c:	0b1a      	lsrs	r2, r3, #12
 800354e:	0d7b      	lsrs	r3, r7, #21
 8003550:	b087      	sub	sp, #28
 8003552:	1c06      	adds	r6, r0, #0
 8003554:	4692      	mov	sl, r2
 8003556:	4698      	mov	r8, r3
 8003558:	0fcf      	lsrs	r7, r1, #31
 800355a:	2b00      	cmp	r3, #0
 800355c:	d121      	bne.n	80035a2 <__aeabi_dmul+0x6a>
 800355e:	4302      	orrs	r2, r0
 8003560:	d100      	bne.n	8003564 <__aeabi_dmul+0x2c>
 8003562:	e149      	b.n	80037f8 <__aeabi_dmul+0x2c0>
 8003564:	4653      	mov	r3, sl
 8003566:	2b00      	cmp	r3, #0
 8003568:	d100      	bne.n	800356c <__aeabi_dmul+0x34>
 800356a:	e1e4      	b.n	8003936 <__aeabi_dmul+0x3fe>
 800356c:	4650      	mov	r0, sl
 800356e:	f000 fbeb 	bl	8003d48 <__clzsi2>
 8003572:	1e03      	subs	r3, r0, #0
 8003574:	2b27      	cmp	r3, #39	; 0x27
 8003576:	dd00      	ble.n	800357a <__aeabi_dmul+0x42>
 8003578:	e1d8      	b.n	800392c <__aeabi_dmul+0x3f4>
 800357a:	3b08      	subs	r3, #8
 800357c:	4651      	mov	r1, sl
 800357e:	4099      	lsls	r1, r3
 8003580:	2228      	movs	r2, #40	; 0x28
 8003582:	4688      	mov	r8, r1
 8003584:	1a11      	subs	r1, r2, r0
 8003586:	1c32      	adds	r2, r6, #0
 8003588:	40ca      	lsrs	r2, r1
 800358a:	4641      	mov	r1, r8
 800358c:	430a      	orrs	r2, r1
 800358e:	4692      	mov	sl, r2
 8003590:	409e      	lsls	r6, r3
 8003592:	4bd8      	ldr	r3, [pc, #864]	; (80038f4 <__aeabi_dmul+0x3bc>)
 8003594:	2200      	movs	r2, #0
 8003596:	1a18      	subs	r0, r3, r0
 8003598:	2100      	movs	r1, #0
 800359a:	4680      	mov	r8, r0
 800359c:	4691      	mov	r9, r2
 800359e:	9103      	str	r1, [sp, #12]
 80035a0:	e011      	b.n	80035c6 <__aeabi_dmul+0x8e>
 80035a2:	48d5      	ldr	r0, [pc, #852]	; (80038f8 <__aeabi_dmul+0x3c0>)
 80035a4:	4283      	cmp	r3, r0
 80035a6:	d03e      	beq.n	8003626 <__aeabi_dmul+0xee>
 80035a8:	2180      	movs	r1, #128	; 0x80
 80035aa:	4653      	mov	r3, sl
 80035ac:	034a      	lsls	r2, r1, #13
 80035ae:	431a      	orrs	r2, r3
 80035b0:	00d0      	lsls	r0, r2, #3
 80035b2:	0f71      	lsrs	r1, r6, #29
 80035b4:	4308      	orrs	r0, r1
 80035b6:	4ad1      	ldr	r2, [pc, #836]	; (80038fc <__aeabi_dmul+0x3c4>)
 80035b8:	4682      	mov	sl, r0
 80035ba:	2300      	movs	r3, #0
 80035bc:	2000      	movs	r0, #0
 80035be:	00f6      	lsls	r6, r6, #3
 80035c0:	4490      	add	r8, r2
 80035c2:	4699      	mov	r9, r3
 80035c4:	9003      	str	r0, [sp, #12]
 80035c6:	1c29      	adds	r1, r5, #0
 80035c8:	1c20      	adds	r0, r4, #0
 80035ca:	1c25      	adds	r5, r4, #0
 80035cc:	004a      	lsls	r2, r1, #1
 80035ce:	030c      	lsls	r4, r1, #12
 80035d0:	0fcb      	lsrs	r3, r1, #31
 80035d2:	0b24      	lsrs	r4, r4, #12
 80035d4:	0d52      	lsrs	r2, r2, #21
 80035d6:	469b      	mov	fp, r3
 80035d8:	d131      	bne.n	800363e <__aeabi_dmul+0x106>
 80035da:	1c21      	adds	r1, r4, #0
 80035dc:	4301      	orrs	r1, r0
 80035de:	d100      	bne.n	80035e2 <__aeabi_dmul+0xaa>
 80035e0:	e112      	b.n	8003808 <__aeabi_dmul+0x2d0>
 80035e2:	2c00      	cmp	r4, #0
 80035e4:	d100      	bne.n	80035e8 <__aeabi_dmul+0xb0>
 80035e6:	e19d      	b.n	8003924 <__aeabi_dmul+0x3ec>
 80035e8:	1c20      	adds	r0, r4, #0
 80035ea:	f000 fbad 	bl	8003d48 <__clzsi2>
 80035ee:	2827      	cmp	r0, #39	; 0x27
 80035f0:	dd00      	ble.n	80035f4 <__aeabi_dmul+0xbc>
 80035f2:	e191      	b.n	8003918 <__aeabi_dmul+0x3e0>
 80035f4:	1c03      	adds	r3, r0, #0
 80035f6:	2228      	movs	r2, #40	; 0x28
 80035f8:	3b08      	subs	r3, #8
 80035fa:	1c29      	adds	r1, r5, #0
 80035fc:	1a12      	subs	r2, r2, r0
 80035fe:	409c      	lsls	r4, r3
 8003600:	40d1      	lsrs	r1, r2
 8003602:	430c      	orrs	r4, r1
 8003604:	409d      	lsls	r5, r3
 8003606:	4bbb      	ldr	r3, [pc, #748]	; (80038f4 <__aeabi_dmul+0x3bc>)
 8003608:	4659      	mov	r1, fp
 800360a:	1a1a      	subs	r2, r3, r0
 800360c:	4079      	eors	r1, r7
 800360e:	2000      	movs	r0, #0
 8003610:	464b      	mov	r3, r9
 8003612:	9101      	str	r1, [sp, #4]
 8003614:	4303      	orrs	r3, r0
 8003616:	2b0f      	cmp	r3, #15
 8003618:	d826      	bhi.n	8003668 <__aeabi_dmul+0x130>
 800361a:	0099      	lsls	r1, r3, #2
 800361c:	4bb8      	ldr	r3, [pc, #736]	; (8003900 <__aeabi_dmul+0x3c8>)
 800361e:	468c      	mov	ip, r1
 8003620:	4463      	add	r3, ip
 8003622:	6819      	ldr	r1, [r3, #0]
 8003624:	468f      	mov	pc, r1
 8003626:	1c11      	adds	r1, r2, #0
 8003628:	4331      	orrs	r1, r6
 800362a:	d000      	beq.n	800362e <__aeabi_dmul+0xf6>
 800362c:	e0df      	b.n	80037ee <__aeabi_dmul+0x2b6>
 800362e:	2608      	movs	r6, #8
 8003630:	2000      	movs	r0, #0
 8003632:	2102      	movs	r1, #2
 8003634:	46b1      	mov	r9, r6
 8003636:	4682      	mov	sl, r0
 8003638:	2600      	movs	r6, #0
 800363a:	9103      	str	r1, [sp, #12]
 800363c:	e7c3      	b.n	80035c6 <__aeabi_dmul+0x8e>
 800363e:	48ae      	ldr	r0, [pc, #696]	; (80038f8 <__aeabi_dmul+0x3c0>)
 8003640:	4282      	cmp	r2, r0
 8003642:	d100      	bne.n	8003646 <__aeabi_dmul+0x10e>
 8003644:	e0c9      	b.n	80037da <__aeabi_dmul+0x2a2>
 8003646:	2180      	movs	r1, #128	; 0x80
 8003648:	034b      	lsls	r3, r1, #13
 800364a:	431c      	orrs	r4, r3
 800364c:	49ab      	ldr	r1, [pc, #684]	; (80038fc <__aeabi_dmul+0x3c4>)
 800364e:	0f68      	lsrs	r0, r5, #29
 8003650:	00e4      	lsls	r4, r4, #3
 8003652:	4304      	orrs	r4, r0
 8003654:	00ed      	lsls	r5, r5, #3
 8003656:	1852      	adds	r2, r2, r1
 8003658:	2000      	movs	r0, #0
 800365a:	4659      	mov	r1, fp
 800365c:	4079      	eors	r1, r7
 800365e:	464b      	mov	r3, r9
 8003660:	9101      	str	r1, [sp, #4]
 8003662:	4303      	orrs	r3, r0
 8003664:	2b0f      	cmp	r3, #15
 8003666:	d9d8      	bls.n	800361a <__aeabi_dmul+0xe2>
 8003668:	4442      	add	r2, r8
 800366a:	0433      	lsls	r3, r6, #16
 800366c:	0429      	lsls	r1, r5, #16
 800366e:	9204      	str	r2, [sp, #16]
 8003670:	0c1a      	lsrs	r2, r3, #16
 8003672:	0c0f      	lsrs	r7, r1, #16
 8003674:	1c10      	adds	r0, r2, #0
 8003676:	4378      	muls	r0, r7
 8003678:	0c36      	lsrs	r6, r6, #16
 800367a:	1c33      	adds	r3, r6, #0
 800367c:	4680      	mov	r8, r0
 800367e:	0c2d      	lsrs	r5, r5, #16
 8003680:	437b      	muls	r3, r7
 8003682:	1c30      	adds	r0, r6, #0
 8003684:	4368      	muls	r0, r5
 8003686:	1c11      	adds	r1, r2, #0
 8003688:	4369      	muls	r1, r5
 800368a:	469c      	mov	ip, r3
 800368c:	4643      	mov	r3, r8
 800368e:	4683      	mov	fp, r0
 8003690:	0c18      	lsrs	r0, r3, #16
 8003692:	1808      	adds	r0, r1, r0
 8003694:	4460      	add	r0, ip
 8003696:	4584      	cmp	ip, r0
 8003698:	d900      	bls.n	800369c <__aeabi_dmul+0x164>
 800369a:	e11f      	b.n	80038dc <__aeabi_dmul+0x3a4>
 800369c:	0c01      	lsrs	r1, r0, #16
 800369e:	4643      	mov	r3, r8
 80036a0:	9103      	str	r1, [sp, #12]
 80036a2:	0419      	lsls	r1, r3, #16
 80036a4:	0c0b      	lsrs	r3, r1, #16
 80036a6:	0400      	lsls	r0, r0, #16
 80036a8:	18c0      	adds	r0, r0, r3
 80036aa:	0421      	lsls	r1, r4, #16
 80036ac:	0c24      	lsrs	r4, r4, #16
 80036ae:	9005      	str	r0, [sp, #20]
 80036b0:	1c10      	adds	r0, r2, #0
 80036b2:	4362      	muls	r2, r4
 80036b4:	0c09      	lsrs	r1, r1, #16
 80036b6:	9202      	str	r2, [sp, #8]
 80036b8:	4348      	muls	r0, r1
 80036ba:	1c32      	adds	r2, r6, #0
 80036bc:	4366      	muls	r6, r4
 80036be:	434a      	muls	r2, r1
 80036c0:	9b02      	ldr	r3, [sp, #8]
 80036c2:	46b1      	mov	r9, r6
 80036c4:	0c06      	lsrs	r6, r0, #16
 80036c6:	4690      	mov	r8, r2
 80036c8:	46b4      	mov	ip, r6
 80036ca:	1c1a      	adds	r2, r3, #0
 80036cc:	4462      	add	r2, ip
 80036ce:	4442      	add	r2, r8
 80036d0:	4590      	cmp	r8, r2
 80036d2:	d902      	bls.n	80036da <__aeabi_dmul+0x1a2>
 80036d4:	2680      	movs	r6, #128	; 0x80
 80036d6:	0273      	lsls	r3, r6, #9
 80036d8:	4499      	add	r9, r3
 80036da:	0c16      	lsrs	r6, r2, #16
 80036dc:	46b0      	mov	r8, r6
 80036de:	44c1      	add	r9, r8
 80036e0:	0400      	lsls	r0, r0, #16
 80036e2:	464b      	mov	r3, r9
 80036e4:	0c06      	lsrs	r6, r0, #16
 80036e6:	0412      	lsls	r2, r2, #16
 80036e8:	9302      	str	r3, [sp, #8]
 80036ea:	1993      	adds	r3, r2, r6
 80036ec:	4656      	mov	r6, sl
 80036ee:	0432      	lsls	r2, r6, #16
 80036f0:	0c10      	lsrs	r0, r2, #16
 80036f2:	1c02      	adds	r2, r0, #0
 80036f4:	436a      	muls	r2, r5
 80036f6:	469c      	mov	ip, r3
 80036f8:	1c03      	adds	r3, r0, #0
 80036fa:	437b      	muls	r3, r7
 80036fc:	4691      	mov	r9, r2
 80036fe:	0c32      	lsrs	r2, r6, #16
 8003700:	4357      	muls	r7, r2
 8003702:	4698      	mov	r8, r3
 8003704:	0c1b      	lsrs	r3, r3, #16
 8003706:	469a      	mov	sl, r3
 8003708:	44d1      	add	r9, sl
 800370a:	44b9      	add	r9, r7
 800370c:	4355      	muls	r5, r2
 800370e:	454f      	cmp	r7, r9
 8003710:	d902      	bls.n	8003718 <__aeabi_dmul+0x1e0>
 8003712:	2780      	movs	r7, #128	; 0x80
 8003714:	027e      	lsls	r6, r7, #9
 8003716:	19ad      	adds	r5, r5, r6
 8003718:	464b      	mov	r3, r9
 800371a:	0c1f      	lsrs	r7, r3, #16
 800371c:	4646      	mov	r6, r8
 800371e:	19ed      	adds	r5, r5, r7
 8003720:	041f      	lsls	r7, r3, #16
 8003722:	0433      	lsls	r3, r6, #16
 8003724:	0c1e      	lsrs	r6, r3, #16
 8003726:	1c03      	adds	r3, r0, #0
 8003728:	434b      	muls	r3, r1
 800372a:	4360      	muls	r0, r4
 800372c:	4351      	muls	r1, r2
 800372e:	4354      	muls	r4, r2
 8003730:	0c1a      	lsrs	r2, r3, #16
 8003732:	1880      	adds	r0, r0, r2
 8003734:	46b0      	mov	r8, r6
 8003736:	1840      	adds	r0, r0, r1
 8003738:	4447      	add	r7, r8
 800373a:	469a      	mov	sl, r3
 800373c:	4281      	cmp	r1, r0
 800373e:	d902      	bls.n	8003746 <__aeabi_dmul+0x20e>
 8003740:	2180      	movs	r1, #128	; 0x80
 8003742:	024e      	lsls	r6, r1, #9
 8003744:	19a4      	adds	r4, r4, r6
 8003746:	9b03      	ldr	r3, [sp, #12]
 8003748:	1c1a      	adds	r2, r3, #0
 800374a:	4462      	add	r2, ip
 800374c:	445a      	add	r2, fp
 800374e:	4562      	cmp	r2, ip
 8003750:	4189      	sbcs	r1, r1
 8003752:	424e      	negs	r6, r1
 8003754:	4651      	mov	r1, sl
 8003756:	46b3      	mov	fp, r6
 8003758:	0403      	lsls	r3, r0, #16
 800375a:	040e      	lsls	r6, r1, #16
 800375c:	469c      	mov	ip, r3
 800375e:	9902      	ldr	r1, [sp, #8]
 8003760:	0c33      	lsrs	r3, r6, #16
 8003762:	4463      	add	r3, ip
 8003764:	18ce      	adds	r6, r1, r3
 8003766:	46b0      	mov	r8, r6
 8003768:	46c2      	mov	sl, r8
 800376a:	44da      	add	sl, fp
 800376c:	19d2      	adds	r2, r2, r7
 800376e:	42ba      	cmp	r2, r7
 8003770:	41bf      	sbcs	r7, r7
 8003772:	4651      	mov	r1, sl
 8003774:	427b      	negs	r3, r7
 8003776:	186f      	adds	r7, r5, r1
 8003778:	18f9      	adds	r1, r7, r3
 800377a:	4699      	mov	r9, r3
 800377c:	45da      	cmp	sl, fp
 800377e:	419b      	sbcs	r3, r3
 8003780:	425e      	negs	r6, r3
 8003782:	9b02      	ldr	r3, [sp, #8]
 8003784:	46b3      	mov	fp, r6
 8003786:	4598      	cmp	r8, r3
 8003788:	41b6      	sbcs	r6, r6
 800378a:	4276      	negs	r6, r6
 800378c:	465b      	mov	r3, fp
 800378e:	431e      	orrs	r6, r3
 8003790:	0c00      	lsrs	r0, r0, #16
 8003792:	4549      	cmp	r1, r9
 8003794:	419b      	sbcs	r3, r3
 8003796:	42af      	cmp	r7, r5
 8003798:	41ad      	sbcs	r5, r5
 800379a:	1836      	adds	r6, r6, r0
 800379c:	426f      	negs	r7, r5
 800379e:	4258      	negs	r0, r3
 80037a0:	4338      	orrs	r0, r7
 80037a2:	1836      	adds	r6, r6, r0
 80037a4:	9805      	ldr	r0, [sp, #20]
 80037a6:	1934      	adds	r4, r6, r4
 80037a8:	0256      	lsls	r6, r2, #9
 80037aa:	4306      	orrs	r6, r0
 80037ac:	0dcb      	lsrs	r3, r1, #23
 80037ae:	0264      	lsls	r4, r4, #9
 80037b0:	1e70      	subs	r0, r6, #1
 80037b2:	4186      	sbcs	r6, r0
 80037b4:	0dd2      	lsrs	r2, r2, #23
 80037b6:	4316      	orrs	r6, r2
 80037b8:	0249      	lsls	r1, r1, #9
 80037ba:	431c      	orrs	r4, r3
 80037bc:	430e      	orrs	r6, r1
 80037be:	01e0      	lsls	r0, r4, #7
 80037c0:	d52f      	bpl.n	8003822 <__aeabi_dmul+0x2ea>
 80037c2:	2701      	movs	r7, #1
 80037c4:	9d04      	ldr	r5, [sp, #16]
 80037c6:	4037      	ands	r7, r6
 80037c8:	0873      	lsrs	r3, r6, #1
 80037ca:	1c3e      	adds	r6, r7, #0
 80037cc:	07e0      	lsls	r0, r4, #31
 80037ce:	3501      	adds	r5, #1
 80037d0:	431e      	orrs	r6, r3
 80037d2:	9504      	str	r5, [sp, #16]
 80037d4:	4306      	orrs	r6, r0
 80037d6:	0864      	lsrs	r4, r4, #1
 80037d8:	e023      	b.n	8003822 <__aeabi_dmul+0x2ea>
 80037da:	1c23      	adds	r3, r4, #0
 80037dc:	432b      	orrs	r3, r5
 80037de:	2003      	movs	r0, #3
 80037e0:	2b00      	cmp	r3, #0
 80037e2:	d000      	beq.n	80037e6 <__aeabi_dmul+0x2ae>
 80037e4:	e739      	b.n	800365a <__aeabi_dmul+0x122>
 80037e6:	2400      	movs	r4, #0
 80037e8:	2500      	movs	r5, #0
 80037ea:	2002      	movs	r0, #2
 80037ec:	e735      	b.n	800365a <__aeabi_dmul+0x122>
 80037ee:	220c      	movs	r2, #12
 80037f0:	2303      	movs	r3, #3
 80037f2:	4691      	mov	r9, r2
 80037f4:	9303      	str	r3, [sp, #12]
 80037f6:	e6e6      	b.n	80035c6 <__aeabi_dmul+0x8e>
 80037f8:	2604      	movs	r6, #4
 80037fa:	2300      	movs	r3, #0
 80037fc:	2001      	movs	r0, #1
 80037fe:	46b1      	mov	r9, r6
 8003800:	469a      	mov	sl, r3
 8003802:	2600      	movs	r6, #0
 8003804:	9003      	str	r0, [sp, #12]
 8003806:	e6de      	b.n	80035c6 <__aeabi_dmul+0x8e>
 8003808:	2400      	movs	r4, #0
 800380a:	2500      	movs	r5, #0
 800380c:	2001      	movs	r0, #1
 800380e:	e724      	b.n	800365a <__aeabi_dmul+0x122>
 8003810:	9803      	ldr	r0, [sp, #12]
 8003812:	4654      	mov	r4, sl
 8003814:	2802      	cmp	r0, #2
 8003816:	d044      	beq.n	80038a2 <__aeabi_dmul+0x36a>
 8003818:	2803      	cmp	r0, #3
 800381a:	d100      	bne.n	800381e <__aeabi_dmul+0x2e6>
 800381c:	e0ea      	b.n	80039f4 <__aeabi_dmul+0x4bc>
 800381e:	2801      	cmp	r0, #1
 8003820:	d060      	beq.n	80038e4 <__aeabi_dmul+0x3ac>
 8003822:	9a04      	ldr	r2, [sp, #16]
 8003824:	4937      	ldr	r1, [pc, #220]	; (8003904 <__aeabi_dmul+0x3cc>)
 8003826:	1850      	adds	r0, r2, r1
 8003828:	2800      	cmp	r0, #0
 800382a:	dc00      	bgt.n	800382e <__aeabi_dmul+0x2f6>
 800382c:	e095      	b.n	800395a <__aeabi_dmul+0x422>
 800382e:	270f      	movs	r7, #15
 8003830:	4037      	ands	r7, r6
 8003832:	2f04      	cmp	r7, #4
 8003834:	d005      	beq.n	8003842 <__aeabi_dmul+0x30a>
 8003836:	1d31      	adds	r1, r6, #4
 8003838:	42b1      	cmp	r1, r6
 800383a:	41b6      	sbcs	r6, r6
 800383c:	4275      	negs	r5, r6
 800383e:	1964      	adds	r4, r4, r5
 8003840:	1c0e      	adds	r6, r1, #0
 8003842:	01e1      	lsls	r1, r4, #7
 8003844:	d505      	bpl.n	8003852 <__aeabi_dmul+0x31a>
 8003846:	4830      	ldr	r0, [pc, #192]	; (8003908 <__aeabi_dmul+0x3d0>)
 8003848:	9a04      	ldr	r2, [sp, #16]
 800384a:	2380      	movs	r3, #128	; 0x80
 800384c:	00df      	lsls	r7, r3, #3
 800384e:	4004      	ands	r4, r0
 8003850:	19d0      	adds	r0, r2, r7
 8003852:	492e      	ldr	r1, [pc, #184]	; (800390c <__aeabi_dmul+0x3d4>)
 8003854:	4288      	cmp	r0, r1
 8003856:	dc24      	bgt.n	80038a2 <__aeabi_dmul+0x36a>
 8003858:	9b01      	ldr	r3, [sp, #4]
 800385a:	0765      	lsls	r5, r4, #29
 800385c:	08f6      	lsrs	r6, r6, #3
 800385e:	0264      	lsls	r4, r4, #9
 8003860:	0542      	lsls	r2, r0, #21
 8003862:	2701      	movs	r7, #1
 8003864:	432e      	orrs	r6, r5
 8003866:	0b24      	lsrs	r4, r4, #12
 8003868:	0d52      	lsrs	r2, r2, #21
 800386a:	401f      	ands	r7, r3
 800386c:	2000      	movs	r0, #0
 800386e:	2100      	movs	r1, #0
 8003870:	0d09      	lsrs	r1, r1, #20
 8003872:	050d      	lsls	r5, r1, #20
 8003874:	4325      	orrs	r5, r4
 8003876:	4c26      	ldr	r4, [pc, #152]	; (8003910 <__aeabi_dmul+0x3d8>)
 8003878:	0512      	lsls	r2, r2, #20
 800387a:	402c      	ands	r4, r5
 800387c:	4314      	orrs	r4, r2
 800387e:	0063      	lsls	r3, r4, #1
 8003880:	1c30      	adds	r0, r6, #0
 8003882:	085e      	lsrs	r6, r3, #1
 8003884:	07ff      	lsls	r7, r7, #31
 8003886:	1c31      	adds	r1, r6, #0
 8003888:	4339      	orrs	r1, r7
 800388a:	b007      	add	sp, #28
 800388c:	bc3c      	pop	{r2, r3, r4, r5}
 800388e:	4690      	mov	r8, r2
 8003890:	4699      	mov	r9, r3
 8003892:	46a2      	mov	sl, r4
 8003894:	46ab      	mov	fp, r5
 8003896:	bdf0      	pop	{r4, r5, r6, r7, pc}
 8003898:	465a      	mov	r2, fp
 800389a:	1c2e      	adds	r6, r5, #0
 800389c:	9201      	str	r2, [sp, #4]
 800389e:	2802      	cmp	r0, #2
 80038a0:	d1ba      	bne.n	8003818 <__aeabi_dmul+0x2e0>
 80038a2:	9e01      	ldr	r6, [sp, #4]
 80038a4:	2701      	movs	r7, #1
 80038a6:	4037      	ands	r7, r6
 80038a8:	4a13      	ldr	r2, [pc, #76]	; (80038f8 <__aeabi_dmul+0x3c0>)
 80038aa:	2400      	movs	r4, #0
 80038ac:	2600      	movs	r6, #0
 80038ae:	e7dd      	b.n	800386c <__aeabi_dmul+0x334>
 80038b0:	4654      	mov	r4, sl
 80038b2:	9701      	str	r7, [sp, #4]
 80038b4:	9803      	ldr	r0, [sp, #12]
 80038b6:	e7ad      	b.n	8003814 <__aeabi_dmul+0x2dc>
 80038b8:	2601      	movs	r6, #1
 80038ba:	2700      	movs	r7, #0
 80038bc:	4c15      	ldr	r4, [pc, #84]	; (8003914 <__aeabi_dmul+0x3dc>)
 80038be:	4276      	negs	r6, r6
 80038c0:	4a0d      	ldr	r2, [pc, #52]	; (80038f8 <__aeabi_dmul+0x3c0>)
 80038c2:	e7d3      	b.n	800386c <__aeabi_dmul+0x334>
 80038c4:	1c2e      	adds	r6, r5, #0
 80038c6:	e7a5      	b.n	8003814 <__aeabi_dmul+0x2dc>
 80038c8:	2280      	movs	r2, #128	; 0x80
 80038ca:	0313      	lsls	r3, r2, #12
 80038cc:	4651      	mov	r1, sl
 80038ce:	4219      	tst	r1, r3
 80038d0:	d135      	bne.n	800393e <__aeabi_dmul+0x406>
 80038d2:	430b      	orrs	r3, r1
 80038d4:	031d      	lsls	r5, r3, #12
 80038d6:	0b2c      	lsrs	r4, r5, #12
 80038d8:	4a07      	ldr	r2, [pc, #28]	; (80038f8 <__aeabi_dmul+0x3c0>)
 80038da:	e7c7      	b.n	800386c <__aeabi_dmul+0x334>
 80038dc:	2180      	movs	r1, #128	; 0x80
 80038de:	024b      	lsls	r3, r1, #9
 80038e0:	449b      	add	fp, r3
 80038e2:	e6db      	b.n	800369c <__aeabi_dmul+0x164>
 80038e4:	9b01      	ldr	r3, [sp, #4]
 80038e6:	2200      	movs	r2, #0
 80038e8:	4018      	ands	r0, r3
 80038ea:	b2c7      	uxtb	r7, r0
 80038ec:	2400      	movs	r4, #0
 80038ee:	2600      	movs	r6, #0
 80038f0:	e7bc      	b.n	800386c <__aeabi_dmul+0x334>
 80038f2:	46c0      	nop			; (mov r8, r8)
 80038f4:	fffffc0d 	.word	0xfffffc0d
 80038f8:	000007ff 	.word	0x000007ff
 80038fc:	fffffc01 	.word	0xfffffc01
 8003900:	08005294 	.word	0x08005294
 8003904:	000003ff 	.word	0x000003ff
 8003908:	feffffff 	.word	0xfeffffff
 800390c:	000007fe 	.word	0x000007fe
 8003910:	800fffff 	.word	0x800fffff
 8003914:	000fffff 	.word	0x000fffff
 8003918:	1c04      	adds	r4, r0, #0
 800391a:	3c28      	subs	r4, #40	; 0x28
 800391c:	40a5      	lsls	r5, r4
 800391e:	1c2c      	adds	r4, r5, #0
 8003920:	2500      	movs	r5, #0
 8003922:	e670      	b.n	8003606 <__aeabi_dmul+0xce>
 8003924:	f000 fa10 	bl	8003d48 <__clzsi2>
 8003928:	3020      	adds	r0, #32
 800392a:	e660      	b.n	80035ee <__aeabi_dmul+0xb6>
 800392c:	3b28      	subs	r3, #40	; 0x28
 800392e:	409e      	lsls	r6, r3
 8003930:	46b2      	mov	sl, r6
 8003932:	2600      	movs	r6, #0
 8003934:	e62d      	b.n	8003592 <__aeabi_dmul+0x5a>
 8003936:	f000 fa07 	bl	8003d48 <__clzsi2>
 800393a:	3020      	adds	r0, #32
 800393c:	e619      	b.n	8003572 <__aeabi_dmul+0x3a>
 800393e:	421c      	tst	r4, r3
 8003940:	d106      	bne.n	8003950 <__aeabi_dmul+0x418>
 8003942:	431c      	orrs	r4, r3
 8003944:	0326      	lsls	r6, r4, #12
 8003946:	0b34      	lsrs	r4, r6, #12
 8003948:	465f      	mov	r7, fp
 800394a:	1c2e      	adds	r6, r5, #0
 800394c:	4a2e      	ldr	r2, [pc, #184]	; (8003a08 <__aeabi_dmul+0x4d0>)
 800394e:	e78d      	b.n	800386c <__aeabi_dmul+0x334>
 8003950:	430b      	orrs	r3, r1
 8003952:	0318      	lsls	r0, r3, #12
 8003954:	0b04      	lsrs	r4, r0, #12
 8003956:	4a2c      	ldr	r2, [pc, #176]	; (8003a08 <__aeabi_dmul+0x4d0>)
 8003958:	e788      	b.n	800386c <__aeabi_dmul+0x334>
 800395a:	4f2c      	ldr	r7, [pc, #176]	; (8003a0c <__aeabi_dmul+0x4d4>)
 800395c:	9d04      	ldr	r5, [sp, #16]
 800395e:	1b7b      	subs	r3, r7, r5
 8003960:	2b38      	cmp	r3, #56	; 0x38
 8003962:	dd06      	ble.n	8003972 <__aeabi_dmul+0x43a>
 8003964:	9e01      	ldr	r6, [sp, #4]
 8003966:	2701      	movs	r7, #1
 8003968:	4037      	ands	r7, r6
 800396a:	2200      	movs	r2, #0
 800396c:	2400      	movs	r4, #0
 800396e:	2600      	movs	r6, #0
 8003970:	e77c      	b.n	800386c <__aeabi_dmul+0x334>
 8003972:	2b1f      	cmp	r3, #31
 8003974:	dc21      	bgt.n	80039ba <__aeabi_dmul+0x482>
 8003976:	9a04      	ldr	r2, [sp, #16]
 8003978:	4f25      	ldr	r7, [pc, #148]	; (8003a10 <__aeabi_dmul+0x4d8>)
 800397a:	1c35      	adds	r5, r6, #0
 800397c:	19d1      	adds	r1, r2, r7
 800397e:	1c20      	adds	r0, r4, #0
 8003980:	408e      	lsls	r6, r1
 8003982:	40dd      	lsrs	r5, r3
 8003984:	4088      	lsls	r0, r1
 8003986:	1c32      	adds	r2, r6, #0
 8003988:	4328      	orrs	r0, r5
 800398a:	1e56      	subs	r6, r2, #1
 800398c:	41b2      	sbcs	r2, r6
 800398e:	1c06      	adds	r6, r0, #0
 8003990:	4316      	orrs	r6, r2
 8003992:	40dc      	lsrs	r4, r3
 8003994:	230f      	movs	r3, #15
 8003996:	4033      	ands	r3, r6
 8003998:	2b04      	cmp	r3, #4
 800399a:	d005      	beq.n	80039a8 <__aeabi_dmul+0x470>
 800399c:	1d37      	adds	r7, r6, #4
 800399e:	42b7      	cmp	r7, r6
 80039a0:	41b6      	sbcs	r6, r6
 80039a2:	4271      	negs	r1, r6
 80039a4:	1864      	adds	r4, r4, r1
 80039a6:	1c3e      	adds	r6, r7, #0
 80039a8:	0225      	lsls	r5, r4, #8
 80039aa:	d517      	bpl.n	80039dc <__aeabi_dmul+0x4a4>
 80039ac:	9b01      	ldr	r3, [sp, #4]
 80039ae:	2701      	movs	r7, #1
 80039b0:	401f      	ands	r7, r3
 80039b2:	2201      	movs	r2, #1
 80039b4:	2400      	movs	r4, #0
 80039b6:	2600      	movs	r6, #0
 80039b8:	e758      	b.n	800386c <__aeabi_dmul+0x334>
 80039ba:	4816      	ldr	r0, [pc, #88]	; (8003a14 <__aeabi_dmul+0x4dc>)
 80039bc:	9a04      	ldr	r2, [sp, #16]
 80039be:	1c21      	adds	r1, r4, #0
 80039c0:	1a87      	subs	r7, r0, r2
 80039c2:	40f9      	lsrs	r1, r7
 80039c4:	1c0d      	adds	r5, r1, #0
 80039c6:	2b20      	cmp	r3, #32
 80039c8:	d012      	beq.n	80039f0 <__aeabi_dmul+0x4b8>
 80039ca:	4b13      	ldr	r3, [pc, #76]	; (8003a18 <__aeabi_dmul+0x4e0>)
 80039cc:	18d0      	adds	r0, r2, r3
 80039ce:	4084      	lsls	r4, r0
 80039d0:	4326      	orrs	r6, r4
 80039d2:	1e72      	subs	r2, r6, #1
 80039d4:	4196      	sbcs	r6, r2
 80039d6:	432e      	orrs	r6, r5
 80039d8:	2400      	movs	r4, #0
 80039da:	e7db      	b.n	8003994 <__aeabi_dmul+0x45c>
 80039dc:	9a01      	ldr	r2, [sp, #4]
 80039de:	0765      	lsls	r5, r4, #29
 80039e0:	08f6      	lsrs	r6, r6, #3
 80039e2:	0260      	lsls	r0, r4, #9
 80039e4:	2701      	movs	r7, #1
 80039e6:	4017      	ands	r7, r2
 80039e8:	432e      	orrs	r6, r5
 80039ea:	0b04      	lsrs	r4, r0, #12
 80039ec:	2200      	movs	r2, #0
 80039ee:	e73d      	b.n	800386c <__aeabi_dmul+0x334>
 80039f0:	2400      	movs	r4, #0
 80039f2:	e7ed      	b.n	80039d0 <__aeabi_dmul+0x498>
 80039f4:	2180      	movs	r1, #128	; 0x80
 80039f6:	030f      	lsls	r7, r1, #12
 80039f8:	433c      	orrs	r4, r7
 80039fa:	9801      	ldr	r0, [sp, #4]
 80039fc:	0324      	lsls	r4, r4, #12
 80039fe:	2701      	movs	r7, #1
 8003a00:	0b24      	lsrs	r4, r4, #12
 8003a02:	4007      	ands	r7, r0
 8003a04:	4a00      	ldr	r2, [pc, #0]	; (8003a08 <__aeabi_dmul+0x4d0>)
 8003a06:	e731      	b.n	800386c <__aeabi_dmul+0x334>
 8003a08:	000007ff 	.word	0x000007ff
 8003a0c:	fffffc02 	.word	0xfffffc02
 8003a10:	0000041e 	.word	0x0000041e
 8003a14:	fffffbe2 	.word	0xfffffbe2
 8003a18:	0000043e 	.word	0x0000043e

08003a1c <__aeabi_d2iz>:
 8003a1c:	4a13      	ldr	r2, [pc, #76]	; (8003a6c <__aeabi_d2iz+0x50>)
 8003a1e:	030b      	lsls	r3, r1, #12
 8003a20:	b530      	push	{r4, r5, lr}
 8003a22:	1c05      	adds	r5, r0, #0
 8003a24:	0048      	lsls	r0, r1, #1
 8003a26:	0b1c      	lsrs	r4, r3, #12
 8003a28:	0fc9      	lsrs	r1, r1, #31
 8003a2a:	0d43      	lsrs	r3, r0, #21
 8003a2c:	2000      	movs	r0, #0
 8003a2e:	4293      	cmp	r3, r2
 8003a30:	dd11      	ble.n	8003a56 <__aeabi_d2iz+0x3a>
 8003a32:	480f      	ldr	r0, [pc, #60]	; (8003a70 <__aeabi_d2iz+0x54>)
 8003a34:	4283      	cmp	r3, r0
 8003a36:	dc0f      	bgt.n	8003a58 <__aeabi_d2iz+0x3c>
 8003a38:	2280      	movs	r2, #128	; 0x80
 8003a3a:	0350      	lsls	r0, r2, #13
 8003a3c:	4a0d      	ldr	r2, [pc, #52]	; (8003a74 <__aeabi_d2iz+0x58>)
 8003a3e:	4304      	orrs	r4, r0
 8003a40:	1ad0      	subs	r0, r2, r3
 8003a42:	281f      	cmp	r0, #31
 8003a44:	dd0b      	ble.n	8003a5e <__aeabi_d2iz+0x42>
 8003a46:	4d0c      	ldr	r5, [pc, #48]	; (8003a78 <__aeabi_d2iz+0x5c>)
 8003a48:	1aeb      	subs	r3, r5, r3
 8003a4a:	40dc      	lsrs	r4, r3
 8003a4c:	1c22      	adds	r2, r4, #0
 8003a4e:	4250      	negs	r0, r2
 8003a50:	2900      	cmp	r1, #0
 8003a52:	d100      	bne.n	8003a56 <__aeabi_d2iz+0x3a>
 8003a54:	1c10      	adds	r0, r2, #0
 8003a56:	bd30      	pop	{r4, r5, pc}
 8003a58:	4c08      	ldr	r4, [pc, #32]	; (8003a7c <__aeabi_d2iz+0x60>)
 8003a5a:	1908      	adds	r0, r1, r4
 8003a5c:	e7fb      	b.n	8003a56 <__aeabi_d2iz+0x3a>
 8003a5e:	40c5      	lsrs	r5, r0
 8003a60:	4807      	ldr	r0, [pc, #28]	; (8003a80 <__aeabi_d2iz+0x64>)
 8003a62:	1c2a      	adds	r2, r5, #0
 8003a64:	181d      	adds	r5, r3, r0
 8003a66:	40ac      	lsls	r4, r5
 8003a68:	4322      	orrs	r2, r4
 8003a6a:	e7f0      	b.n	8003a4e <__aeabi_d2iz+0x32>
 8003a6c:	000003fe 	.word	0x000003fe
 8003a70:	0000041d 	.word	0x0000041d
 8003a74:	00000433 	.word	0x00000433
 8003a78:	00000413 	.word	0x00000413
 8003a7c:	7fffffff 	.word	0x7fffffff
 8003a80:	fffffbed 	.word	0xfffffbed

08003a84 <__aeabi_i2d>:
 8003a84:	b5f8      	push	{r3, r4, r5, r6, r7, lr}
 8003a86:	1e04      	subs	r4, r0, #0
 8003a88:	d02d      	beq.n	8003ae6 <__aeabi_i2d+0x62>
 8003a8a:	0fc5      	lsrs	r5, r0, #31
 8003a8c:	d000      	beq.n	8003a90 <__aeabi_i2d+0xc>
 8003a8e:	4244      	negs	r4, r0
 8003a90:	1c20      	adds	r0, r4, #0
 8003a92:	f000 f959 	bl	8003d48 <__clzsi2>
 8003a96:	4916      	ldr	r1, [pc, #88]	; (8003af0 <__aeabi_i2d+0x6c>)
 8003a98:	1a0a      	subs	r2, r1, r0
 8003a9a:	280a      	cmp	r0, #10
 8003a9c:	dd16      	ble.n	8003acc <__aeabi_i2d+0x48>
 8003a9e:	380b      	subs	r0, #11
 8003aa0:	4084      	lsls	r4, r0
 8003aa2:	0557      	lsls	r7, r2, #21
 8003aa4:	0326      	lsls	r6, r4, #12
 8003aa6:	0d7a      	lsrs	r2, r7, #21
 8003aa8:	0b36      	lsrs	r6, r6, #12
 8003aaa:	2700      	movs	r7, #0
 8003aac:	2000      	movs	r0, #0
 8003aae:	2100      	movs	r1, #0
 8003ab0:	1c38      	adds	r0, r7, #0
 8003ab2:	0d0f      	lsrs	r7, r1, #20
 8003ab4:	053b      	lsls	r3, r7, #20
 8003ab6:	4c0f      	ldr	r4, [pc, #60]	; (8003af4 <__aeabi_i2d+0x70>)
 8003ab8:	4333      	orrs	r3, r6
 8003aba:	401c      	ands	r4, r3
 8003abc:	0516      	lsls	r6, r2, #20
 8003abe:	4334      	orrs	r4, r6
 8003ac0:	0061      	lsls	r1, r4, #1
 8003ac2:	084a      	lsrs	r2, r1, #1
 8003ac4:	07ed      	lsls	r5, r5, #31
 8003ac6:	1c11      	adds	r1, r2, #0
 8003ac8:	4329      	orrs	r1, r5
 8003aca:	bdf8      	pop	{r3, r4, r5, r6, r7, pc}
 8003acc:	260b      	movs	r6, #11
 8003ace:	1c01      	adds	r1, r0, #0
 8003ad0:	1a30      	subs	r0, r6, r0
 8003ad2:	3115      	adds	r1, #21
 8003ad4:	1c23      	adds	r3, r4, #0
 8003ad6:	40c4      	lsrs	r4, r0
 8003ad8:	408b      	lsls	r3, r1
 8003ada:	0552      	lsls	r2, r2, #21
 8003adc:	0321      	lsls	r1, r4, #12
 8003ade:	1c1f      	adds	r7, r3, #0
 8003ae0:	0b0e      	lsrs	r6, r1, #12
 8003ae2:	0d52      	lsrs	r2, r2, #21
 8003ae4:	e7e2      	b.n	8003aac <__aeabi_i2d+0x28>
 8003ae6:	2500      	movs	r5, #0
 8003ae8:	2200      	movs	r2, #0
 8003aea:	2600      	movs	r6, #0
 8003aec:	2700      	movs	r7, #0
 8003aee:	e7dd      	b.n	8003aac <__aeabi_i2d+0x28>
 8003af0:	0000041e 	.word	0x0000041e
 8003af4:	800fffff 	.word	0x800fffff

08003af8 <__aeabi_ui2d>:
 8003af8:	b570      	push	{r4, r5, r6, lr}
 8003afa:	1e04      	subs	r4, r0, #0
 8003afc:	d026      	beq.n	8003b4c <__aeabi_ui2d+0x54>
 8003afe:	f000 f923 	bl	8003d48 <__clzsi2>
 8003b02:	4914      	ldr	r1, [pc, #80]	; (8003b54 <__aeabi_ui2d+0x5c>)
 8003b04:	1a0a      	subs	r2, r1, r0
 8003b06:	280a      	cmp	r0, #10
 8003b08:	dd13      	ble.n	8003b32 <__aeabi_ui2d+0x3a>
 8003b0a:	380b      	subs	r0, #11
 8003b0c:	4084      	lsls	r4, r0
 8003b0e:	0556      	lsls	r6, r2, #21
 8003b10:	0324      	lsls	r4, r4, #12
 8003b12:	0d72      	lsrs	r2, r6, #21
 8003b14:	0b25      	lsrs	r5, r4, #12
 8003b16:	2600      	movs	r6, #0
 8003b18:	2000      	movs	r0, #0
 8003b1a:	2100      	movs	r1, #0
 8003b1c:	1c30      	adds	r0, r6, #0
 8003b1e:	0d0e      	lsrs	r6, r1, #20
 8003b20:	0533      	lsls	r3, r6, #20
 8003b22:	4c0d      	ldr	r4, [pc, #52]	; (8003b58 <__aeabi_ui2d+0x60>)
 8003b24:	432b      	orrs	r3, r5
 8003b26:	0511      	lsls	r1, r2, #20
 8003b28:	401c      	ands	r4, r3
 8003b2a:	430c      	orrs	r4, r1
 8003b2c:	0065      	lsls	r5, r4, #1
 8003b2e:	0869      	lsrs	r1, r5, #1
 8003b30:	bd70      	pop	{r4, r5, r6, pc}
 8003b32:	230b      	movs	r3, #11
 8003b34:	1c05      	adds	r5, r0, #0
 8003b36:	1a18      	subs	r0, r3, r0
 8003b38:	3515      	adds	r5, #21
 8003b3a:	1c21      	adds	r1, r4, #0
 8003b3c:	40c4      	lsrs	r4, r0
 8003b3e:	40a9      	lsls	r1, r5
 8003b40:	0552      	lsls	r2, r2, #21
 8003b42:	0325      	lsls	r5, r4, #12
 8003b44:	1c0e      	adds	r6, r1, #0
 8003b46:	0b2d      	lsrs	r5, r5, #12
 8003b48:	0d52      	lsrs	r2, r2, #21
 8003b4a:	e7e5      	b.n	8003b18 <__aeabi_ui2d+0x20>
 8003b4c:	2200      	movs	r2, #0
 8003b4e:	2500      	movs	r5, #0
 8003b50:	2600      	movs	r6, #0
 8003b52:	e7e1      	b.n	8003b18 <__aeabi_ui2d+0x20>
 8003b54:	0000041e 	.word	0x0000041e
 8003b58:	800fffff 	.word	0x800fffff

08003b5c <__aeabi_f2d>:
 8003b5c:	0041      	lsls	r1, r0, #1
 8003b5e:	b570      	push	{r4, r5, r6, lr}
 8003b60:	0e0e      	lsrs	r6, r1, #24
 8003b62:	1c73      	adds	r3, r6, #1
 8003b64:	0242      	lsls	r2, r0, #9
 8003b66:	0fc5      	lsrs	r5, r0, #31
 8003b68:	b2d8      	uxtb	r0, r3
 8003b6a:	0a54      	lsrs	r4, r2, #9
 8003b6c:	2801      	cmp	r0, #1
 8003b6e:	dd15      	ble.n	8003b9c <__aeabi_f2d+0x40>
 8003b70:	0763      	lsls	r3, r4, #29
 8003b72:	24e0      	movs	r4, #224	; 0xe0
 8003b74:	00a0      	lsls	r0, r4, #2
 8003b76:	0b12      	lsrs	r2, r2, #12
 8003b78:	1834      	adds	r4, r6, r0
 8003b7a:	2000      	movs	r0, #0
 8003b7c:	2100      	movs	r1, #0
 8003b7e:	1c18      	adds	r0, r3, #0
 8003b80:	0d0b      	lsrs	r3, r1, #20
 8003b82:	051e      	lsls	r6, r3, #20
 8003b84:	4b1c      	ldr	r3, [pc, #112]	; (8003bf8 <__aeabi_f2d+0x9c>)
 8003b86:	4332      	orrs	r2, r6
 8003b88:	0561      	lsls	r1, r4, #21
 8003b8a:	084c      	lsrs	r4, r1, #1
 8003b8c:	4013      	ands	r3, r2
 8003b8e:	4323      	orrs	r3, r4
 8003b90:	005a      	lsls	r2, r3, #1
 8003b92:	0856      	lsrs	r6, r2, #1
 8003b94:	07ed      	lsls	r5, r5, #31
 8003b96:	1c31      	adds	r1, r6, #0
 8003b98:	4329      	orrs	r1, r5
 8003b9a:	bd70      	pop	{r4, r5, r6, pc}
 8003b9c:	2e00      	cmp	r6, #0
 8003b9e:	d116      	bne.n	8003bce <__aeabi_f2d+0x72>
 8003ba0:	2c00      	cmp	r4, #0
 8003ba2:	d01e      	beq.n	8003be2 <__aeabi_f2d+0x86>
 8003ba4:	1c20      	adds	r0, r4, #0
 8003ba6:	f000 f8cf 	bl	8003d48 <__clzsi2>
 8003baa:	280a      	cmp	r0, #10
 8003bac:	dc1d      	bgt.n	8003bea <__aeabi_f2d+0x8e>
 8003bae:	220b      	movs	r2, #11
 8003bb0:	1a11      	subs	r1, r2, r0
 8003bb2:	1c02      	adds	r2, r0, #0
 8003bb4:	1c23      	adds	r3, r4, #0
 8003bb6:	3215      	adds	r2, #21
 8003bb8:	40cb      	lsrs	r3, r1
 8003bba:	4094      	lsls	r4, r2
 8003bbc:	1c1e      	adds	r6, r3, #0
 8003bbe:	1c23      	adds	r3, r4, #0
 8003bc0:	0334      	lsls	r4, r6, #12
 8003bc2:	4e0e      	ldr	r6, [pc, #56]	; (8003bfc <__aeabi_f2d+0xa0>)
 8003bc4:	0b22      	lsrs	r2, r4, #12
 8003bc6:	1a30      	subs	r0, r6, r0
 8003bc8:	0541      	lsls	r1, r0, #21
 8003bca:	0d4c      	lsrs	r4, r1, #21
 8003bcc:	e7d5      	b.n	8003b7a <__aeabi_f2d+0x1e>
 8003bce:	2c00      	cmp	r4, #0
 8003bd0:	d003      	beq.n	8003bda <__aeabi_f2d+0x7e>
 8003bd2:	0763      	lsls	r3, r4, #29
 8003bd4:	0b12      	lsrs	r2, r2, #12
 8003bd6:	4c0a      	ldr	r4, [pc, #40]	; (8003c00 <__aeabi_f2d+0xa4>)
 8003bd8:	e7cf      	b.n	8003b7a <__aeabi_f2d+0x1e>
 8003bda:	4c09      	ldr	r4, [pc, #36]	; (8003c00 <__aeabi_f2d+0xa4>)
 8003bdc:	2200      	movs	r2, #0
 8003bde:	2300      	movs	r3, #0
 8003be0:	e7cb      	b.n	8003b7a <__aeabi_f2d+0x1e>
 8003be2:	2400      	movs	r4, #0
 8003be4:	2200      	movs	r2, #0
 8003be6:	2300      	movs	r3, #0
 8003be8:	e7c7      	b.n	8003b7a <__aeabi_f2d+0x1e>
 8003bea:	1c01      	adds	r1, r0, #0
 8003bec:	390b      	subs	r1, #11
 8003bee:	408c      	lsls	r4, r1
 8003bf0:	1c26      	adds	r6, r4, #0
 8003bf2:	2300      	movs	r3, #0
 8003bf4:	e7e4      	b.n	8003bc0 <__aeabi_f2d+0x64>
 8003bf6:	46c0      	nop			; (mov r8, r8)
 8003bf8:	800fffff 	.word	0x800fffff
 8003bfc:	00000389 	.word	0x00000389
 8003c00:	000007ff 	.word	0x000007ff

08003c04 <__aeabi_d2f>:
 8003c04:	b5f0      	push	{r4, r5, r6, r7, lr}
 8003c06:	1c04      	adds	r4, r0, #0
 8003c08:	0048      	lsls	r0, r1, #1
 8003c0a:	0d40      	lsrs	r0, r0, #21
 8003c0c:	030a      	lsls	r2, r1, #12
 8003c0e:	0fcd      	lsrs	r5, r1, #31
 8003c10:	1c41      	adds	r1, r0, #1
 8003c12:	0f63      	lsrs	r3, r4, #29
 8003c14:	0a52      	lsrs	r2, r2, #9
 8003c16:	054f      	lsls	r7, r1, #21
 8003c18:	431a      	orrs	r2, r3
 8003c1a:	00e6      	lsls	r6, r4, #3
 8003c1c:	0d7b      	lsrs	r3, r7, #21
 8003c1e:	2b01      	cmp	r3, #1
 8003c20:	dd3b      	ble.n	8003c9a <__aeabi_d2f+0x96>
 8003c22:	4942      	ldr	r1, [pc, #264]	; (8003d2c <__aeabi_d2f+0x128>)
 8003c24:	1843      	adds	r3, r0, r1
 8003c26:	2bfe      	cmp	r3, #254	; 0xfe
 8003c28:	dc2c      	bgt.n	8003c84 <__aeabi_d2f+0x80>
 8003c2a:	2b00      	cmp	r3, #0
 8003c2c:	dd4e      	ble.n	8003ccc <__aeabi_d2f+0xc8>
 8003c2e:	01a4      	lsls	r4, r4, #6
 8003c30:	0f77      	lsrs	r7, r6, #29
 8003c32:	00d2      	lsls	r2, r2, #3
 8003c34:	1e61      	subs	r1, r4, #1
 8003c36:	418c      	sbcs	r4, r1
 8003c38:	4e3d      	ldr	r6, [pc, #244]	; (8003d30 <__aeabi_d2f+0x12c>)
 8003c3a:	4322      	orrs	r2, r4
 8003c3c:	1980      	adds	r0, r0, r6
 8003c3e:	433a      	orrs	r2, r7
 8003c40:	260f      	movs	r6, #15
 8003c42:	4016      	ands	r6, r2
 8003c44:	2e04      	cmp	r6, #4
 8003c46:	d147      	bne.n	8003cd8 <__aeabi_d2f+0xd4>
 8003c48:	2780      	movs	r7, #128	; 0x80
 8003c4a:	04fc      	lsls	r4, r7, #19
 8003c4c:	4014      	ands	r4, r2
 8003c4e:	d01d      	beq.n	8003c8c <__aeabi_d2f+0x88>
 8003c50:	28ff      	cmp	r0, #255	; 0xff
 8003c52:	d038      	beq.n	8003cc6 <__aeabi_d2f+0xc2>
 8003c54:	4b37      	ldr	r3, [pc, #220]	; (8003d34 <__aeabi_d2f+0x130>)
 8003c56:	401a      	ands	r2, r3
 8003c58:	1c03      	adds	r3, r0, #0
 8003c5a:	3001      	adds	r0, #1
 8003c5c:	b2c6      	uxtb	r6, r0
 8003c5e:	08d2      	lsrs	r2, r2, #3
 8003c60:	2e01      	cmp	r6, #1
 8003c62:	dc17      	bgt.n	8003c94 <__aeabi_d2f+0x90>
 8003c64:	2a00      	cmp	r2, #0
 8003c66:	d006      	beq.n	8003c76 <__aeabi_d2f+0x72>
 8003c68:	2b00      	cmp	r3, #0
 8003c6a:	d029      	beq.n	8003cc0 <__aeabi_d2f+0xbc>
 8003c6c:	2780      	movs	r7, #128	; 0x80
 8003c6e:	03fc      	lsls	r4, r7, #15
 8003c70:	4322      	orrs	r2, r4
 8003c72:	0251      	lsls	r1, r2, #9
 8003c74:	0a4a      	lsrs	r2, r1, #9
 8003c76:	b2db      	uxtb	r3, r3
 8003c78:	05db      	lsls	r3, r3, #23
 8003c7a:	431a      	orrs	r2, r3
 8003c7c:	07ed      	lsls	r5, r5, #31
 8003c7e:	1c10      	adds	r0, r2, #0
 8003c80:	4328      	orrs	r0, r5
 8003c82:	bdf0      	pop	{r4, r5, r6, r7, pc}
 8003c84:	2180      	movs	r1, #128	; 0x80
 8003c86:	0048      	lsls	r0, r1, #1
 8003c88:	2204      	movs	r2, #4
 8003c8a:	23ff      	movs	r3, #255	; 0xff
 8003c8c:	b2c6      	uxtb	r6, r0
 8003c8e:	08d2      	lsrs	r2, r2, #3
 8003c90:	2e01      	cmp	r6, #1
 8003c92:	dde7      	ble.n	8003c64 <__aeabi_d2f+0x60>
 8003c94:	0251      	lsls	r1, r2, #9
 8003c96:	0a4a      	lsrs	r2, r1, #9
 8003c98:	e7ed      	b.n	8003c76 <__aeabi_d2f+0x72>
 8003c9a:	2800      	cmp	r0, #0
 8003c9c:	d106      	bne.n	8003cac <__aeabi_d2f+0xa8>
 8003c9e:	4332      	orrs	r2, r6
 8003ca0:	2001      	movs	r0, #1
 8003ca2:	2a00      	cmp	r2, #0
 8003ca4:	d115      	bne.n	8003cd2 <__aeabi_d2f+0xce>
 8003ca6:	2204      	movs	r2, #4
 8003ca8:	2300      	movs	r3, #0
 8003caa:	e7ef      	b.n	8003c8c <__aeabi_d2f+0x88>
 8003cac:	4316      	orrs	r6, r2
 8003cae:	d0e9      	beq.n	8003c84 <__aeabi_d2f+0x80>
 8003cb0:	2480      	movs	r4, #128	; 0x80
 8003cb2:	04a0      	lsls	r0, r4, #18
 8003cb4:	00d2      	lsls	r2, r2, #3
 8003cb6:	2680      	movs	r6, #128	; 0x80
 8003cb8:	4302      	orrs	r2, r0
 8003cba:	23ff      	movs	r3, #255	; 0xff
 8003cbc:	0070      	lsls	r0, r6, #1
 8003cbe:	e7bf      	b.n	8003c40 <__aeabi_d2f+0x3c>
 8003cc0:	0250      	lsls	r0, r2, #9
 8003cc2:	0a42      	lsrs	r2, r0, #9
 8003cc4:	e7d8      	b.n	8003c78 <__aeabi_d2f+0x74>
 8003cc6:	23ff      	movs	r3, #255	; 0xff
 8003cc8:	2200      	movs	r2, #0
 8003cca:	e7d5      	b.n	8003c78 <__aeabi_d2f+0x74>
 8003ccc:	3317      	adds	r3, #23
 8003cce:	da05      	bge.n	8003cdc <__aeabi_d2f+0xd8>
 8003cd0:	2001      	movs	r0, #1
 8003cd2:	2205      	movs	r2, #5
 8003cd4:	2300      	movs	r3, #0
 8003cd6:	e7d9      	b.n	8003c8c <__aeabi_d2f+0x88>
 8003cd8:	3204      	adds	r2, #4
 8003cda:	e7b5      	b.n	8003c48 <__aeabi_d2f+0x44>
 8003cdc:	2380      	movs	r3, #128	; 0x80
 8003cde:	4f16      	ldr	r7, [pc, #88]	; (8003d38 <__aeabi_d2f+0x134>)
 8003ce0:	0419      	lsls	r1, r3, #16
 8003ce2:	430a      	orrs	r2, r1
 8003ce4:	1a3c      	subs	r4, r7, r0
 8003ce6:	2c1f      	cmp	r4, #31
 8003ce8:	dc0d      	bgt.n	8003d06 <__aeabi_d2f+0x102>
 8003cea:	4914      	ldr	r1, [pc, #80]	; (8003d3c <__aeabi_d2f+0x138>)
 8003cec:	1c33      	adds	r3, r6, #0
 8003cee:	1847      	adds	r7, r0, r1
 8003cf0:	40be      	lsls	r6, r7
 8003cf2:	1c30      	adds	r0, r6, #0
 8003cf4:	1e46      	subs	r6, r0, #1
 8003cf6:	41b0      	sbcs	r0, r6
 8003cf8:	40ba      	lsls	r2, r7
 8003cfa:	40e3      	lsrs	r3, r4
 8003cfc:	4302      	orrs	r2, r0
 8003cfe:	431a      	orrs	r2, r3
 8003d00:	2001      	movs	r0, #1
 8003d02:	2300      	movs	r3, #0
 8003d04:	e79c      	b.n	8003c40 <__aeabi_d2f+0x3c>
 8003d06:	4b0e      	ldr	r3, [pc, #56]	; (8003d40 <__aeabi_d2f+0x13c>)
 8003d08:	1c17      	adds	r7, r2, #0
 8003d0a:	1a19      	subs	r1, r3, r0
 8003d0c:	40cf      	lsrs	r7, r1
 8003d0e:	1c3b      	adds	r3, r7, #0
 8003d10:	2c20      	cmp	r4, #32
 8003d12:	d009      	beq.n	8003d28 <__aeabi_d2f+0x124>
 8003d14:	4c0b      	ldr	r4, [pc, #44]	; (8003d44 <__aeabi_d2f+0x140>)
 8003d16:	1900      	adds	r0, r0, r4
 8003d18:	4082      	lsls	r2, r0
 8003d1a:	4332      	orrs	r2, r6
 8003d1c:	1e56      	subs	r6, r2, #1
 8003d1e:	41b2      	sbcs	r2, r6
 8003d20:	431a      	orrs	r2, r3
 8003d22:	2001      	movs	r0, #1
 8003d24:	2300      	movs	r3, #0
 8003d26:	e78b      	b.n	8003c40 <__aeabi_d2f+0x3c>
 8003d28:	2200      	movs	r2, #0
 8003d2a:	e7f6      	b.n	8003d1a <__aeabi_d2f+0x116>
 8003d2c:	fffffc80 	.word	0xfffffc80
 8003d30:	fffffc81 	.word	0xfffffc81
 8003d34:	fbffffff 	.word	0xfbffffff
 8003d38:	0000039e 	.word	0x0000039e
 8003d3c:	fffffc82 	.word	0xfffffc82
 8003d40:	0000037e 	.word	0x0000037e
 8003d44:	fffffca2 	.word	0xfffffca2

08003d48 <__clzsi2>:
 8003d48:	211c      	movs	r1, #28
 8003d4a:	2301      	movs	r3, #1
 8003d4c:	041b      	lsls	r3, r3, #16
 8003d4e:	4298      	cmp	r0, r3
 8003d50:	d301      	bcc.n	8003d56 <__clzsi2+0xe>
 8003d52:	0c00      	lsrs	r0, r0, #16
 8003d54:	3910      	subs	r1, #16
 8003d56:	0a1b      	lsrs	r3, r3, #8
 8003d58:	4298      	cmp	r0, r3
 8003d5a:	d301      	bcc.n	8003d60 <__clzsi2+0x18>
 8003d5c:	0a00      	lsrs	r0, r0, #8
 8003d5e:	3908      	subs	r1, #8
 8003d60:	091b      	lsrs	r3, r3, #4
 8003d62:	4298      	cmp	r0, r3
 8003d64:	d301      	bcc.n	8003d6a <__clzsi2+0x22>
 8003d66:	0900      	lsrs	r0, r0, #4
 8003d68:	3904      	subs	r1, #4
 8003d6a:	a202      	add	r2, pc, #8	; (adr r2, 8003d74 <__clzsi2+0x2c>)
 8003d6c:	5c10      	ldrb	r0, [r2, r0]
 8003d6e:	1840      	adds	r0, r0, r1
 8003d70:	4770      	bx	lr
 8003d72:	46c0      	nop			; (mov r8, r8)
 8003d74:	02020304 	.word	0x02020304
 8003d78:	01010101 	.word	0x01010101
	...

08003d84 <main>:
 8003d84:	b508      	push	{r3, lr}
 8003d86:	4b06      	ldr	r3, [pc, #24]	; (8003da0 <main+0x1c>)
 8003d88:	6818      	ldr	r0, [r3, #0]
 8003d8a:	2800      	cmp	r0, #0
 8003d8c:	d102      	bne.n	8003d94 <main+0x10>
 8003d8e:	f7fc fd61 	bl	8000854 <_Z12read_mavlinkv>
 8003d92:	e002      	b.n	8003d9a <main+0x16>
 8003d94:	4803      	ldr	r0, [pc, #12]	; (8003da4 <main+0x20>)
 8003d96:	f7fd f820 	bl	8000dda <_ZN3gps5parseEv>
 8003d9a:	f7fd fdb9 	bl	8001910 <_Z14service_eventsv>
 8003d9e:	e7f2      	b.n	8003d86 <main+0x2>
 8003da0:	20000020 	.word	0x20000020
 8003da4:	200006ec 	.word	0x200006ec

08003da8 <_ZN4quan5stm3213module_enableINS0_4gpio6moduleILm1207959552EEEEENS_6where_INS_11is_model_ofINS0_4GpioET_EEvE4typeEv>:
 8003da8:	4b03      	ldr	r3, [pc, #12]	; (8003db8 <_ZN4quan5stm3213module_enableINS0_4gpio6moduleILm1207959552EEEEENS_6where_INS_11is_model_ofINS0_4GpioET_EEvE4typeEv+0x10>)
 8003daa:	2280      	movs	r2, #128	; 0x80
 8003dac:	6959      	ldr	r1, [r3, #20]
 8003dae:	0290      	lsls	r0, r2, #10
 8003db0:	4308      	orrs	r0, r1
 8003db2:	6158      	str	r0, [r3, #20]
 8003db4:	4770      	bx	lr
 8003db6:	46c0      	nop			; (mov r8, r8)
 8003db8:	40021000 	.word	0x40021000

08003dbc <_ZNK4quan4meta4impl27for_each_type_sequence_implINS0_13type_sequenceIINS_5stm3210periph_regINS4_4gpio6moduleILm1207959552EEELm8EmEENS5_IS8_Lm12EmEENS5_IS8_Lm16EmEENS5_IS8_Lm20EmEENS5_IS8_Lm24EmEENS5_IS8_Lm28EmEENS5_IS8_Lm32EmEENS5_IS8_Lm36EmEEEEENS4_6detail24apply_periph_reg_actionsIS8_NS3_IINSI_17periph_reg_actionINS5_IS8_Lm0EmEENS0_6bit_orELm524288EEENSK_ISL_NS0_7bit_andELm4294705151EEENSK_ISG_SM_Lm16EEENSK_ISG_SO_Lm4294967071EEENSK_INS5_IS8_Lm4EmEESM_Lm0EEENSK_ISS_SO_Lm4294966783EEENSK_ISA_SM_Lm0EEENSK_ISA_SO_Lm4294180863EEENSK_IS9_SM_Lm0EEENSK_IS9_SO_Lm4294180863EEEEEEEELb1EvEclEv>:
 8003dbc:	2390      	movs	r3, #144	; 0x90
 8003dbe:	05d8      	lsls	r0, r3, #23
 8003dc0:	6881      	ldr	r1, [r0, #8]
 8003dc2:	4a06      	ldr	r2, [pc, #24]	; (8003ddc <_ZNK4quan4meta4impl27for_each_type_sequence_implINS0_13type_sequenceIINS_5stm3210periph_regINS4_4gpio6moduleILm1207959552EEELm8EmEENS5_IS8_Lm12EmEENS5_IS8_Lm16EmEENS5_IS8_Lm20EmEENS5_IS8_Lm24EmEENS5_IS8_Lm28EmEENS5_IS8_Lm32EmEENS5_IS8_Lm36EmEEEEENS4_6detail24apply_periph_reg_actionsIS8_NS3_IINSI_17periph_reg_actionINS5_IS8_Lm0EmEENS0_6bit_orELm524288EEENSK_ISL_NS0_7bit_andELm4294705151EEENSK_ISG_SM_Lm16EEENSK_ISG_SO_Lm4294967071EEENSK_INS5_IS8_Lm4EmEESM_Lm0EEENSK_ISS_SO_Lm4294966783EEENSK_ISA_SM_Lm0EEENSK_ISA_SO_Lm4294180863EEENSK_IS9_SM_Lm0EEENSK_IS9_SO_Lm4294180863EEEEEEEELb1EvEclEv+0x20>)
 8003dc4:	4011      	ands	r1, r2
 8003dc6:	6081      	str	r1, [r0, #8]
 8003dc8:	68c3      	ldr	r3, [r0, #12]
 8003dca:	21f0      	movs	r1, #240	; 0xf0
 8003dcc:	401a      	ands	r2, r3
 8003dce:	60c2      	str	r2, [r0, #12]
 8003dd0:	6a42      	ldr	r2, [r0, #36]	; 0x24
 8003dd2:	2310      	movs	r3, #16
 8003dd4:	438a      	bics	r2, r1
 8003dd6:	431a      	orrs	r2, r3
 8003dd8:	6242      	str	r2, [r0, #36]	; 0x24
 8003dda:	4770      	bx	lr
 8003ddc:	fff3ffff 	.word	0xfff3ffff

08003de0 <_ZNK4quan4meta4impl27for_each_type_sequence_implINS0_13type_sequenceIINS_5stm3210periph_regINS4_4gpio6moduleILm1207959552EEELm8EmEENS5_IS8_Lm12EmEENS5_IS8_Lm16EmEENS5_IS8_Lm20EmEENS5_IS8_Lm24EmEENS5_IS8_Lm28EmEENS5_IS8_Lm32EmEENS5_IS8_Lm36EmEEEEENS4_6detail24apply_periph_reg_actionsIS8_NS3_IINSI_17periph_reg_actionINS5_IS8_Lm0EmEENS0_6bit_orELm2097152EEENSK_ISL_NS0_7bit_andELm4293918719EEENSK_ISG_SM_Lm256EEENSK_ISG_SO_Lm4294963711EEENSK_ISA_SM_Lm1048576EEENSK_ISA_SO_Lm4292870143EEENSK_IS9_SM_Lm0EEENSK_IS9_SO_Lm4291821567EEEEEEEELb1EvEclEv>:
 8003de0:	2390      	movs	r3, #144	; 0x90
 8003de2:	05d8      	lsls	r0, r3, #23
 8003de4:	6881      	ldr	r1, [r0, #8]
 8003de6:	4a08      	ldr	r2, [pc, #32]	; (8003e08 <_ZNK4quan4meta4impl27for_each_type_sequence_implINS0_13type_sequenceIINS_5stm3210periph_regINS4_4gpio6moduleILm1207959552EEELm8EmEENS5_IS8_Lm12EmEENS5_IS8_Lm16EmEENS5_IS8_Lm20EmEENS5_IS8_Lm24EmEENS5_IS8_Lm28EmEENS5_IS8_Lm32EmEENS5_IS8_Lm36EmEEEEENS4_6detail24apply_periph_reg_actionsIS8_NS3_IINSI_17periph_reg_actionINS5_IS8_Lm0EmEENS0_6bit_orELm2097152EEENSK_ISL_NS0_7bit_andELm4293918719EEENSK_ISG_SM_Lm256EEENSK_ISG_SO_Lm4294963711EEENSK_ISA_SM_Lm1048576EEENSK_ISA_SO_Lm4292870143EEENSK_IS9_SM_Lm0EEENSK_IS9_SO_Lm4291821567EEEEEEEELb1EvEclEv+0x28>)
 8003de8:	4011      	ands	r1, r2
 8003dea:	6081      	str	r1, [r0, #8]
 8003dec:	68c3      	ldr	r3, [r0, #12]
 8003dee:	2180      	movs	r1, #128	; 0x80
 8003df0:	401a      	ands	r2, r3
 8003df2:	034b      	lsls	r3, r1, #13
 8003df4:	431a      	orrs	r2, r3
 8003df6:	60c2      	str	r2, [r0, #12]
 8003df8:	6a41      	ldr	r1, [r0, #36]	; 0x24
 8003dfa:	4a04      	ldr	r2, [pc, #16]	; (8003e0c <_ZNK4quan4meta4impl27for_each_type_sequence_implINS0_13type_sequenceIINS_5stm3210periph_regINS4_4gpio6moduleILm1207959552EEELm8EmEENS5_IS8_Lm12EmEENS5_IS8_Lm16EmEENS5_IS8_Lm20EmEENS5_IS8_Lm24EmEENS5_IS8_Lm28EmEENS5_IS8_Lm32EmEENS5_IS8_Lm36EmEEEEENS4_6detail24apply_periph_reg_actionsIS8_NS3_IINSI_17periph_reg_actionINS5_IS8_Lm0EmEENS0_6bit_orELm2097152EEENSK_ISL_NS0_7bit_andELm4293918719EEENSK_ISG_SM_Lm256EEENSK_ISG_SO_Lm4294963711EEENSK_ISA_SM_Lm1048576EEENSK_ISA_SO_Lm4292870143EEENSK_IS9_SM_Lm0EEENSK_IS9_SO_Lm4291821567EEEEEEEELb1EvEclEv+0x2c>)
 8003dfc:	2380      	movs	r3, #128	; 0x80
 8003dfe:	400a      	ands	r2, r1
 8003e00:	0059      	lsls	r1, r3, #1
 8003e02:	430a      	orrs	r2, r1
 8003e04:	6242      	str	r2, [r0, #36]	; 0x24
 8003e06:	4770      	bx	lr
 8003e08:	ffcfffff 	.word	0xffcfffff
 8003e0c:	fffff0ff 	.word	0xfffff0ff

08003e10 <_ZN4quan5stm326detail26periph_reg_combined_actionINS0_10periph_regINS0_5usart6moduleILm1073821696EEELm0EmEELm12ELm4294928911EE11with_or_fun5applyEv>:
 8003e10:	4b03      	ldr	r3, [pc, #12]	; (8003e20 <_ZN4quan5stm326detail26periph_reg_combined_actionINS0_10periph_regINS0_5usart6moduleILm1073821696EEELm0EmEELm12ELm4294928911EE11with_or_fun5applyEv+0x10>)
 8003e12:	4a04      	ldr	r2, [pc, #16]	; (8003e24 <_ZN4quan5stm326detail26periph_reg_combined_actionINS0_10periph_regINS0_5usart6moduleILm1073821696EEELm0EmEELm12ELm4294928911EE11with_or_fun5applyEv+0x14>)
 8003e14:	6819      	ldr	r1, [r3, #0]
 8003e16:	200c      	movs	r0, #12
 8003e18:	400a      	ands	r2, r1
 8003e1a:	4302      	orrs	r2, r0
 8003e1c:	601a      	str	r2, [r3, #0]
 8003e1e:	4770      	bx	lr
 8003e20:	40013800 	.word	0x40013800
 8003e24:	ffff6a03 	.word	0xffff6a03

08003e28 <_ZNK4quan4meta4impl27for_each_type_sequence_implINS0_13type_sequenceIINS_5stm3210periph_regINS4_4gpio6moduleILm1207959552EEELm8EmEENS5_IS8_Lm12EmEENS5_IS8_Lm16EmEENS5_IS8_Lm20EmEENS5_IS8_Lm24EmEENS5_IS8_Lm28EmEENS5_IS8_Lm32EmEENS5_IS8_Lm36EmEEEEENS4_6detail24apply_periph_reg_actionsIS8_NS3_IINSI_17periph_reg_actionINS5_IS8_Lm0EmEENS0_6bit_orELm32EEENSK_ISL_NS0_7bit_andELm4294967279EEENSK_ISF_SM_Lm256EEENSK_ISF_SO_Lm4294963711EEENSK_INS5_IS8_Lm4EmEESM_Lm0EEENSK_ISS_SO_Lm4294967291EEENSK_ISA_SM_Lm0EEENSK_ISA_SO_Lm4294967247EEENSK_IS9_SM_Lm0EEENSK_IS9_SO_Lm4294967247EEEEEEEELb1EvEclEv>:
 8003e28:	2390      	movs	r3, #144	; 0x90
 8003e2a:	05d8      	lsls	r0, r3, #23
 8003e2c:	6881      	ldr	r1, [r0, #8]
 8003e2e:	2230      	movs	r2, #48	; 0x30
 8003e30:	4391      	bics	r1, r2
 8003e32:	6081      	str	r1, [r0, #8]
 8003e34:	68c3      	ldr	r3, [r0, #12]
 8003e36:	2180      	movs	r1, #128	; 0x80
 8003e38:	4393      	bics	r3, r2
 8003e3a:	60c3      	str	r3, [r0, #12]
 8003e3c:	6a03      	ldr	r3, [r0, #32]
 8003e3e:	4a03      	ldr	r2, [pc, #12]	; (8003e4c <_ZNK4quan4meta4impl27for_each_type_sequence_implINS0_13type_sequenceIINS_5stm3210periph_regINS4_4gpio6moduleILm1207959552EEELm8EmEENS5_IS8_Lm12EmEENS5_IS8_Lm16EmEENS5_IS8_Lm20EmEENS5_IS8_Lm24EmEENS5_IS8_Lm28EmEENS5_IS8_Lm32EmEENS5_IS8_Lm36EmEEEEENS4_6detail24apply_periph_reg_actionsIS8_NS3_IINSI_17periph_reg_actionINS5_IS8_Lm0EmEENS0_6bit_orELm32EEENSK_ISL_NS0_7bit_andELm4294967279EEENSK_ISF_SM_Lm256EEENSK_ISF_SO_Lm4294963711EEENSK_INS5_IS8_Lm4EmEESM_Lm0EEENSK_ISS_SO_Lm4294967291EEENSK_ISA_SM_Lm0EEENSK_ISA_SO_Lm4294967247EEENSK_IS9_SM_Lm0EEENSK_IS9_SO_Lm4294967247EEEEEEEELb1EvEclEv+0x24>)
 8003e40:	401a      	ands	r2, r3
 8003e42:	004b      	lsls	r3, r1, #1
 8003e44:	431a      	orrs	r2, r3
 8003e46:	6202      	str	r2, [r0, #32]
 8003e48:	4770      	bx	lr
 8003e4a:	46c0      	nop			; (mov r8, r8)
 8003e4c:	fffff0ff 	.word	0xfffff0ff

08003e50 <_ZNK4quan4meta4impl27for_each_type_sequence_implINS0_13type_sequenceIINS_5stm3210periph_regINS4_4gpio6moduleILm1207959552EEELm0EmEENS5_IS8_Lm4EmEENS5_IS8_Lm8EmEENS5_IS8_Lm12EmEENS5_IS8_Lm16EmEENS5_IS8_Lm20EmEENS5_IS8_Lm24EmEENS5_IS8_Lm28EmEENS5_IS8_Lm32EmEENS5_IS8_Lm36EmEEEEENS4_6detail24apply_periph_reg_actionsIS8_NS3_IINSK_17periph_reg_actionIS9_NS0_6bit_orELm32EEENSM_IS9_NS0_7bit_andELm4294967279EEENSM_ISH_SN_Lm256EEENSM_ISH_SP_Lm4294963711EEENSM_ISA_SN_Lm0EEENSM_ISA_SP_Lm4294967291EEENSM_ISC_SN_Lm0EEENSM_ISC_SP_Lm4294967247EEENSM_ISB_SN_Lm0EEENSM_ISB_SP_Lm4294967247EEEEEEEELb1EvEclEv>:
 8003e50:	2390      	movs	r3, #144	; 0x90
 8003e52:	b507      	push	{r0, r1, r2, lr}
 8003e54:	05d8      	lsls	r0, r3, #23
 8003e56:	6802      	ldr	r2, [r0, #0]
 8003e58:	2130      	movs	r1, #48	; 0x30
 8003e5a:	438a      	bics	r2, r1
 8003e5c:	2320      	movs	r3, #32
 8003e5e:	431a      	orrs	r2, r3
 8003e60:	6002      	str	r2, [r0, #0]
 8003e62:	6842      	ldr	r2, [r0, #4]
 8003e64:	2104      	movs	r1, #4
 8003e66:	438a      	bics	r2, r1
 8003e68:	6042      	str	r2, [r0, #4]
 8003e6a:	a801      	add	r0, sp, #4
 8003e6c:	f7ff ffdc 	bl	8003e28 <_ZNK4quan4meta4impl27for_each_type_sequence_implINS0_13type_sequenceIINS_5stm3210periph_regINS4_4gpio6moduleILm1207959552EEELm8EmEENS5_IS8_Lm12EmEENS5_IS8_Lm16EmEENS5_IS8_Lm20EmEENS5_IS8_Lm24EmEENS5_IS8_Lm28EmEENS5_IS8_Lm32EmEENS5_IS8_Lm36EmEEEEENS4_6detail24apply_periph_reg_actionsIS8_NS3_IINSI_17periph_reg_actionINS5_IS8_Lm0EmEENS0_6bit_orELm32EEENSK_ISL_NS0_7bit_andELm4294967279EEENSK_ISF_SM_Lm256EEENSK_ISF_SO_Lm4294963711EEENSK_INS5_IS8_Lm4EmEESM_Lm0EEENSK_ISS_SO_Lm4294967291EEENSK_ISA_SM_Lm0EEENSK_ISA_SO_Lm4294967247EEENSK_IS9_SM_Lm0EEENSK_IS9_SO_Lm4294967247EEEEEEEELb1EvEclEv>
 8003e70:	bd07      	pop	{r0, r1, r2, pc}
	...

08003e74 <_ZNK4quan4meta4impl27for_each_type_sequence_implINS0_13type_sequenceIINS_5stm3210periph_regINS4_4gpio6moduleILm1207959552EEELm8EmEENS5_IS8_Lm12EmEENS5_IS8_Lm16EmEENS5_IS8_Lm20EmEENS5_IS8_Lm24EmEENS5_IS8_Lm28EmEENS5_IS8_Lm32EmEENS5_IS8_Lm36EmEEEEENS4_6detail24apply_periph_reg_actionsIS8_NS3_IINSI_17periph_reg_actionINS5_IS8_Lm0EmEENS0_6bit_orELm128EEENSK_ISL_NS0_7bit_andELm4294967231EEENSK_ISF_SM_Lm4096EEENSK_ISF_SO_Lm4294909951EEENSK_ISA_SM_Lm64EEENSK_ISA_SO_Lm4294967167EEENSK_IS9_SM_Lm0EEENSK_IS9_SO_Lm4294967103EEEEEEEELb1EvEclEv>:
 8003e74:	2390      	movs	r3, #144	; 0x90
 8003e76:	05d8      	lsls	r0, r3, #23
 8003e78:	6881      	ldr	r1, [r0, #8]
 8003e7a:	22c0      	movs	r2, #192	; 0xc0
 8003e7c:	4391      	bics	r1, r2
 8003e7e:	6081      	str	r1, [r0, #8]
 8003e80:	68c3      	ldr	r3, [r0, #12]
 8003e82:	2140      	movs	r1, #64	; 0x40
 8003e84:	4393      	bics	r3, r2
 8003e86:	1c1a      	adds	r2, r3, #0
 8003e88:	430a      	orrs	r2, r1
 8003e8a:	60c2      	str	r2, [r0, #12]
 8003e8c:	6a03      	ldr	r3, [r0, #32]
 8003e8e:	4a03      	ldr	r2, [pc, #12]	; (8003e9c <_ZNK4quan4meta4impl27for_each_type_sequence_implINS0_13type_sequenceIINS_5stm3210periph_regINS4_4gpio6moduleILm1207959552EEELm8EmEENS5_IS8_Lm12EmEENS5_IS8_Lm16EmEENS5_IS8_Lm20EmEENS5_IS8_Lm24EmEENS5_IS8_Lm28EmEENS5_IS8_Lm32EmEENS5_IS8_Lm36EmEEEEENS4_6detail24apply_periph_reg_actionsIS8_NS3_IINSI_17periph_reg_actionINS5_IS8_Lm0EmEENS0_6bit_orELm128EEENSK_ISL_NS0_7bit_andELm4294967231EEENSK_ISF_SM_Lm4096EEENSK_ISF_SO_Lm4294909951EEENSK_ISA_SM_Lm64EEENSK_ISA_SO_Lm4294967167EEENSK_IS9_SM_Lm0EEENSK_IS9_SO_Lm4294967103EEEEEEEELb1EvEclEv+0x28>)
 8003e90:	2180      	movs	r1, #128	; 0x80
 8003e92:	401a      	ands	r2, r3
 8003e94:	014b      	lsls	r3, r1, #5
 8003e96:	431a      	orrs	r2, r3
 8003e98:	6202      	str	r2, [r0, #32]
 8003e9a:	4770      	bx	lr
 8003e9c:	ffff0fff 	.word	0xffff0fff

08003ea0 <_ZN4quan5stm326detail26periph_reg_combined_actionINS0_10periph_regINS0_4gpio6moduleILm1207959552EEELm0EmEELm2097152ELm4293918719EE11with_or_fun5applyEv>:
 8003ea0:	2390      	movs	r3, #144	; 0x90
 8003ea2:	05d8      	lsls	r0, r3, #23
 8003ea4:	6801      	ldr	r1, [r0, #0]
 8003ea6:	4a03      	ldr	r2, [pc, #12]	; (8003eb4 <_ZN4quan5stm326detail26periph_reg_combined_actionINS0_10periph_regINS0_4gpio6moduleILm1207959552EEELm0EmEELm2097152ELm4293918719EE11with_or_fun5applyEv+0x14>)
 8003ea8:	2380      	movs	r3, #128	; 0x80
 8003eaa:	400a      	ands	r2, r1
 8003eac:	0399      	lsls	r1, r3, #14
 8003eae:	430a      	orrs	r2, r1
 8003eb0:	6002      	str	r2, [r0, #0]
 8003eb2:	4770      	bx	lr
 8003eb4:	ffcfffff 	.word	0xffcfffff

08003eb8 <_ZN4quan5stm3211serial_portINS0_5usart6moduleILm1073821696EEELj200ELj200ENS_3mcu3pinINS0_4gpio6moduleILm1207959552EEELm9EEENS6_IS9_Lm10EEEE4initEv>:
 8003eb8:	4b25      	ldr	r3, [pc, #148]	; (8003f50 <_ZN4quan5stm3211serial_portINS0_5usart6moduleILm1073821696EEELj200ELj200ENS_3mcu3pinINS0_4gpio6moduleILm1207959552EEELm9EEENS6_IS9_Lm10EEEE4initEv+0x98>)
 8003eba:	b507      	push	{r0, r1, r2, lr}
 8003ebc:	1c1a      	adds	r2, r3, #0
 8003ebe:	4825      	ldr	r0, [pc, #148]	; (8003f54 <_ZN4quan5stm3211serial_portINS0_5usart6moduleILm1073821696EEELj200ELj200ENS_3mcu3pinINS0_4gpio6moduleILm1207959552EEELm9EEENS6_IS9_Lm10EEEE4initEv+0x9c>)
 8003ec0:	3208      	adds	r2, #8
 8003ec2:	601a      	str	r2, [r3, #0]
 8003ec4:	2200      	movs	r2, #0
 8003ec6:	605a      	str	r2, [r3, #4]
 8003ec8:	1c01      	adds	r1, r0, #0
 8003eca:	4b23      	ldr	r3, [pc, #140]	; (8003f58 <_ZN4quan5stm3211serial_portINS0_5usart6moduleILm1073821696EEELj200ELj200ENS_3mcu3pinINS0_4gpio6moduleILm1207959552EEELm9EEENS6_IS9_Lm10EEEE4initEv+0xa0>)
 8003ecc:	3108      	adds	r1, #8
 8003ece:	c006      	stmia	r0!, {r1, r2}
 8003ed0:	68d9      	ldr	r1, [r3, #12]
 8003ed2:	2280      	movs	r2, #128	; 0x80
 8003ed4:	01d2      	lsls	r2, r2, #7
 8003ed6:	4311      	orrs	r1, r2
 8003ed8:	60d9      	str	r1, [r3, #12]
 8003eda:	68d8      	ldr	r0, [r3, #12]
 8003edc:	491f      	ldr	r1, [pc, #124]	; (8003f5c <_ZN4quan5stm3211serial_portINS0_5usart6moduleILm1073821696EEELj200ELj200ENS_3mcu3pinINS0_4gpio6moduleILm1207959552EEELm9EEENS6_IS9_Lm10EEEE4initEv+0xa4>)
 8003ede:	4001      	ands	r1, r0
 8003ee0:	60d9      	str	r1, [r3, #12]
 8003ee2:	6998      	ldr	r0, [r3, #24]
 8003ee4:	4302      	orrs	r2, r0
 8003ee6:	619a      	str	r2, [r3, #24]
 8003ee8:	f7ff ff5e 	bl	8003da8 <_ZN4quan5stm3213module_enableINS0_4gpio6moduleILm1207959552EEEEENS_6where_INS_11is_model_ofINS0_4GpioET_EEvE4typeEv>
 8003eec:	2390      	movs	r3, #144	; 0x90
 8003eee:	05d8      	lsls	r0, r3, #23
 8003ef0:	6801      	ldr	r1, [r0, #0]
 8003ef2:	4a1b      	ldr	r2, [pc, #108]	; (8003f60 <_ZN4quan5stm3211serial_portINS0_5usart6moduleILm1073821696EEELj200ELj200ENS_3mcu3pinINS0_4gpio6moduleILm1207959552EEELm9EEENS6_IS9_Lm10EEEE4initEv+0xa8>)
 8003ef4:	2380      	movs	r3, #128	; 0x80
 8003ef6:	400a      	ands	r2, r1
 8003ef8:	0319      	lsls	r1, r3, #12
 8003efa:	430a      	orrs	r2, r1
 8003efc:	6002      	str	r2, [r0, #0]
 8003efe:	6843      	ldr	r3, [r0, #4]
 8003f00:	4a18      	ldr	r2, [pc, #96]	; (8003f64 <_ZN4quan5stm3211serial_portINS0_5usart6moduleILm1073821696EEELj200ELj200ENS_3mcu3pinINS0_4gpio6moduleILm1207959552EEELm9EEENS6_IS9_Lm10EEEE4initEv+0xac>)
 8003f02:	401a      	ands	r2, r3
 8003f04:	6042      	str	r2, [r0, #4]
 8003f06:	4668      	mov	r0, sp
 8003f08:	f7ff ff58 	bl	8003dbc <_ZNK4quan4meta4impl27for_each_type_sequence_implINS0_13type_sequenceIINS_5stm3210periph_regINS4_4gpio6moduleILm1207959552EEELm8EmEENS5_IS8_Lm12EmEENS5_IS8_Lm16EmEENS5_IS8_Lm20EmEENS5_IS8_Lm24EmEENS5_IS8_Lm28EmEENS5_IS8_Lm32EmEENS5_IS8_Lm36EmEEEEENS4_6detail24apply_periph_reg_actionsIS8_NS3_IINSI_17periph_reg_actionINS5_IS8_Lm0EmEENS0_6bit_orELm524288EEENSK_ISL_NS0_7bit_andELm4294705151EEENSK_ISG_SM_Lm16EEENSK_ISG_SO_Lm4294967071EEENSK_INS5_IS8_Lm4EmEESM_Lm0EEENSK_ISS_SO_Lm4294966783EEENSK_ISA_SM_Lm0EEENSK_ISA_SO_Lm4294180863EEENSK_IS9_SM_Lm0EEENSK_IS9_SO_Lm4294180863EEEEEEEELb1EvEclEv>
 8003f0c:	f7ff ff4c 	bl	8003da8 <_ZN4quan5stm3213module_enableINS0_4gpio6moduleILm1207959552EEEEENS_6where_INS_11is_model_ofINS0_4GpioET_EEvE4typeEv>
 8003f10:	f7ff ffc6 	bl	8003ea0 <_ZN4quan5stm326detail26periph_reg_combined_actionINS0_10periph_regINS0_4gpio6moduleILm1207959552EEELm0EmEELm2097152ELm4293918719EE11with_or_fun5applyEv>
 8003f14:	a801      	add	r0, sp, #4
 8003f16:	f7ff ff63 	bl	8003de0 <_ZNK4quan4meta4impl27for_each_type_sequence_implINS0_13type_sequenceIINS_5stm3210periph_regINS4_4gpio6moduleILm1207959552EEELm8EmEENS5_IS8_Lm12EmEENS5_IS8_Lm16EmEENS5_IS8_Lm20EmEENS5_IS8_Lm24EmEENS5_IS8_Lm28EmEENS5_IS8_Lm32EmEENS5_IS8_Lm36EmEEEEENS4_6detail24apply_periph_reg_actionsIS8_NS3_IINSI_17periph_reg_actionINS5_IS8_Lm0EmEENS0_6bit_orELm2097152EEENSK_ISL_NS0_7bit_andELm4293918719EEENSK_ISG_SM_Lm256EEENSK_ISG_SO_Lm4294963711EEENSK_ISA_SM_Lm1048576EEENSK_ISA_SO_Lm4292870143EEENSK_IS9_SM_Lm0EEENSK_IS9_SO_Lm4291821567EEEEEEEELb1EvEclEv>
 8003f1a:	f7ff ff79 	bl	8003e10 <_ZN4quan5stm326detail26periph_reg_combined_actionINS0_10periph_regINS0_5usart6moduleILm1073821696EEELm0EmEELm12ELm4294928911EE11with_or_fun5applyEv>
 8003f1e:	4812      	ldr	r0, [pc, #72]	; (8003f68 <_ZN4quan5stm3211serial_portINS0_5usart6moduleILm1073821696EEELj200ELj200ENS_3mcu3pinINS0_4gpio6moduleILm1207959552EEELm9EEENS6_IS9_Lm10EEEE4initEv+0xb0>)
 8003f20:	4b12      	ldr	r3, [pc, #72]	; (8003f6c <_ZN4quan5stm3211serial_portINS0_5usart6moduleILm1073821696EEELj200ELj200ENS_3mcu3pinINS0_4gpio6moduleILm1207959552EEELm9EEENS6_IS9_Lm10EEEE4initEv+0xb4>)
 8003f22:	6841      	ldr	r1, [r0, #4]
 8003f24:	4a12      	ldr	r2, [pc, #72]	; (8003f70 <_ZN4quan5stm3211serial_portINS0_5usart6moduleILm1073821696EEELj200ELj200ENS_3mcu3pinINS0_4gpio6moduleILm1207959552EEELm9EEENS6_IS9_Lm10EEEE4initEv+0xb8>)
 8003f26:	400b      	ands	r3, r1
 8003f28:	6043      	str	r3, [r0, #4]
 8003f2a:	6881      	ldr	r1, [r0, #8]
 8003f2c:	4b11      	ldr	r3, [pc, #68]	; (8003f74 <_ZN4quan5stm3211serial_portINS0_5usart6moduleILm1073821696EEELj200ELj200ENS_3mcu3pinINS0_4gpio6moduleILm1207959552EEELm9EEENS6_IS9_Lm10EEEE4initEv+0xbc>)
 8003f2e:	400a      	ands	r2, r1
 8003f30:	6082      	str	r2, [r0, #8]
 8003f32:	2180      	movs	r1, #128	; 0x80
 8003f34:	4a10      	ldr	r2, [pc, #64]	; (8003f78 <_ZN4quan5stm3211serial_portINS0_5usart6moduleILm1073821696EEELj200ELj200ENS_3mcu3pinINS0_4gpio6moduleILm1207959552EEELm9EEENS6_IS9_Lm10EEEE4initEv+0xc0>)
 8003f36:	60c3      	str	r3, [r0, #12]
 8003f38:	050b      	lsls	r3, r1, #20
 8003f3a:	6013      	str	r3, [r2, #0]
 8003f3c:	6803      	ldr	r3, [r0, #0]
 8003f3e:	2120      	movs	r1, #32
 8003f40:	430b      	orrs	r3, r1
 8003f42:	6003      	str	r3, [r0, #0]
 8003f44:	6802      	ldr	r2, [r0, #0]
 8003f46:	2301      	movs	r3, #1
 8003f48:	431a      	orrs	r2, r3
 8003f4a:	6002      	str	r2, [r0, #0]
 8003f4c:	bd07      	pop	{r0, r1, r2, pc}
 8003f4e:	46c0      	nop			; (mov r8, r8)
 8003f50:	200007c4 	.word	0x200007c4
 8003f54:	20000894 	.word	0x20000894
 8003f58:	40021000 	.word	0x40021000
 8003f5c:	ffffbfff 	.word	0xffffbfff
 8003f60:	fff3ffff 	.word	0xfff3ffff
 8003f64:	fffffdff 	.word	0xfffffdff
 8003f68:	40013800 	.word	0x40013800
 8003f6c:	ffffc7bf 	.word	0xffffc7bf
 8003f70:	fffff8fe 	.word	0xfffff8fe
 8003f74:	00001388 	.word	0x00001388
 8003f78:	e000e100 	.word	0xe000e100

08003f7c <_ZN4quan5stm326detail26periph_reg_combined_actionINS0_10periph_regINS0_4gpio6moduleILm1207959552EEELm0EmEELm128ELm4294967231EE11with_or_fun5applyEv>:
 8003f7c:	2390      	movs	r3, #144	; 0x90
 8003f7e:	05d8      	lsls	r0, r3, #23
 8003f80:	6802      	ldr	r2, [r0, #0]
 8003f82:	21c0      	movs	r1, #192	; 0xc0
 8003f84:	438a      	bics	r2, r1
 8003f86:	2380      	movs	r3, #128	; 0x80
 8003f88:	431a      	orrs	r2, r3
 8003f8a:	6002      	str	r2, [r0, #0]
 8003f8c:	4770      	bx	lr
	...

08003f90 <_ZN4quan5stm3211serial_portINS0_5usart6moduleILm1073759232EEELj200ELj200ENS_3mcu3pinINS0_4gpio6moduleILm1207959552EEELm2EEENS6_IS9_Lm3EEEE4initEv>:
 8003f90:	4b20      	ldr	r3, [pc, #128]	; (8004014 <_ZN4quan5stm3211serial_portINS0_5usart6moduleILm1073759232EEELj200ELj200ENS_3mcu3pinINS0_4gpio6moduleILm1207959552EEELm2EEENS6_IS9_Lm3EEEE4initEv+0x84>)
 8003f92:	b507      	push	{r0, r1, r2, lr}
 8003f94:	1c1a      	adds	r2, r3, #0
 8003f96:	4820      	ldr	r0, [pc, #128]	; (8004018 <_ZN4quan5stm3211serial_portINS0_5usart6moduleILm1073759232EEELj200ELj200ENS_3mcu3pinINS0_4gpio6moduleILm1207959552EEELm2EEENS6_IS9_Lm3EEEE4initEv+0x88>)
 8003f98:	3208      	adds	r2, #8
 8003f9a:	601a      	str	r2, [r3, #0]
 8003f9c:	2200      	movs	r2, #0
 8003f9e:	605a      	str	r2, [r3, #4]
 8003fa0:	1c01      	adds	r1, r0, #0
 8003fa2:	4b1e      	ldr	r3, [pc, #120]	; (800401c <_ZN4quan5stm3211serial_portINS0_5usart6moduleILm1073759232EEELj200ELj200ENS_3mcu3pinINS0_4gpio6moduleILm1207959552EEELm2EEENS6_IS9_Lm3EEEE4initEv+0x8c>)
 8003fa4:	3108      	adds	r1, #8
 8003fa6:	c006      	stmia	r0!, {r1, r2}
 8003fa8:	6919      	ldr	r1, [r3, #16]
 8003faa:	2280      	movs	r2, #128	; 0x80
 8003fac:	0292      	lsls	r2, r2, #10
 8003fae:	4311      	orrs	r1, r2
 8003fb0:	6119      	str	r1, [r3, #16]
 8003fb2:	6918      	ldr	r0, [r3, #16]
 8003fb4:	491a      	ldr	r1, [pc, #104]	; (8004020 <_ZN4quan5stm3211serial_portINS0_5usart6moduleILm1073759232EEELj200ELj200ENS_3mcu3pinINS0_4gpio6moduleILm1207959552EEELm2EEENS6_IS9_Lm3EEEE4initEv+0x90>)
 8003fb6:	4001      	ands	r1, r0
 8003fb8:	6119      	str	r1, [r3, #16]
 8003fba:	69d8      	ldr	r0, [r3, #28]
 8003fbc:	4302      	orrs	r2, r0
 8003fbe:	61da      	str	r2, [r3, #28]
 8003fc0:	f7ff fef2 	bl	8003da8 <_ZN4quan5stm3213module_enableINS0_4gpio6moduleILm1207959552EEEEENS_6where_INS_11is_model_ofINS0_4GpioET_EEvE4typeEv>
 8003fc4:	4668      	mov	r0, sp
 8003fc6:	f7ff ff43 	bl	8003e50 <_ZNK4quan4meta4impl27for_each_type_sequence_implINS0_13type_sequenceIINS_5stm3210periph_regINS4_4gpio6moduleILm1207959552EEELm0EmEENS5_IS8_Lm4EmEENS5_IS8_Lm8EmEENS5_IS8_Lm12EmEENS5_IS8_Lm16EmEENS5_IS8_Lm20EmEENS5_IS8_Lm24EmEENS5_IS8_Lm28EmEENS5_IS8_Lm32EmEENS5_IS8_Lm36EmEEEEENS4_6detail24apply_periph_reg_actionsIS8_NS3_IINSK_17periph_reg_actionIS9_NS0_6bit_orELm32EEENSM_IS9_NS0_7bit_andELm4294967279EEENSM_ISH_SN_Lm256EEENSM_ISH_SP_Lm4294963711EEENSM_ISA_SN_Lm0EEENSM_ISA_SP_Lm4294967291EEENSM_ISC_SN_Lm0EEENSM_ISC_SP_Lm4294967247EEENSM_ISB_SN_Lm0EEENSM_ISB_SP_Lm4294967247EEEEEEEELb1EvEclEv>
 8003fca:	f7ff feed 	bl	8003da8 <_ZN4quan5stm3213module_enableINS0_4gpio6moduleILm1207959552EEEEENS_6where_INS_11is_model_ofINS0_4GpioET_EEvE4typeEv>
 8003fce:	f7ff ffd5 	bl	8003f7c <_ZN4quan5stm326detail26periph_reg_combined_actionINS0_10periph_regINS0_4gpio6moduleILm1207959552EEELm0EmEELm128ELm4294967231EE11with_or_fun5applyEv>
 8003fd2:	a801      	add	r0, sp, #4
 8003fd4:	f7ff ff4e 	bl	8003e74 <_ZNK4quan4meta4impl27for_each_type_sequence_implINS0_13type_sequenceIINS_5stm3210periph_regINS4_4gpio6moduleILm1207959552EEELm8EmEENS5_IS8_Lm12EmEENS5_IS8_Lm16EmEENS5_IS8_Lm20EmEENS5_IS8_Lm24EmEENS5_IS8_Lm28EmEENS5_IS8_Lm32EmEENS5_IS8_Lm36EmEEEEENS4_6detail24apply_periph_reg_actionsIS8_NS3_IINSI_17periph_reg_actionINS5_IS8_Lm0EmEENS0_6bit_orELm128EEENSK_ISL_NS0_7bit_andELm4294967231EEENSK_ISF_SM_Lm4096EEENSK_ISF_SO_Lm4294909951EEENSK_ISA_SM_Lm64EEENSK_ISA_SO_Lm4294967167EEENSK_IS9_SM_Lm0EEENSK_IS9_SO_Lm4294967103EEEEEEEELb1EvEclEv>
 8003fd8:	4b12      	ldr	r3, [pc, #72]	; (8004024 <_ZN4quan5stm3211serial_portINS0_5usart6moduleILm1073759232EEELj200ELj200ENS_3mcu3pinINS0_4gpio6moduleILm1207959552EEELm2EEENS6_IS9_Lm3EEEE4initEv+0x94>)
 8003fda:	4a13      	ldr	r2, [pc, #76]	; (8004028 <_ZN4quan5stm3211serial_portINS0_5usart6moduleILm1073759232EEELj200ELj200ENS_3mcu3pinINS0_4gpio6moduleILm1207959552EEELm2EEENS6_IS9_Lm3EEEE4initEv+0x98>)
 8003fdc:	6819      	ldr	r1, [r3, #0]
 8003fde:	200c      	movs	r0, #12
 8003fe0:	400a      	ands	r2, r1
 8003fe2:	4302      	orrs	r2, r0
 8003fe4:	601a      	str	r2, [r3, #0]
 8003fe6:	6859      	ldr	r1, [r3, #4]
 8003fe8:	4a10      	ldr	r2, [pc, #64]	; (800402c <_ZN4quan5stm3211serial_portINS0_5usart6moduleILm1073759232EEELj200ELj200ENS_3mcu3pinINS0_4gpio6moduleILm1207959552EEELm2EEENS6_IS9_Lm3EEEE4initEv+0x9c>)
 8003fea:	400a      	ands	r2, r1
 8003fec:	605a      	str	r2, [r3, #4]
 8003fee:	6898      	ldr	r0, [r3, #8]
 8003ff0:	490f      	ldr	r1, [pc, #60]	; (8004030 <_ZN4quan5stm3211serial_portINS0_5usart6moduleILm1073759232EEELj200ELj200ENS_3mcu3pinINS0_4gpio6moduleILm1207959552EEELm2EEENS6_IS9_Lm3EEEE4initEv+0xa0>)
 8003ff2:	4a10      	ldr	r2, [pc, #64]	; (8004034 <_ZN4quan5stm3211serial_portINS0_5usart6moduleILm1073759232EEELj200ELj200ENS_3mcu3pinINS0_4gpio6moduleILm1207959552EEELm2EEENS6_IS9_Lm3EEEE4initEv+0xa4>)
 8003ff4:	4001      	ands	r1, r0
 8003ff6:	6099      	str	r1, [r3, #8]
 8003ff8:	2080      	movs	r0, #128	; 0x80
 8003ffa:	60da      	str	r2, [r3, #12]
 8003ffc:	4a0e      	ldr	r2, [pc, #56]	; (8004038 <_ZN4quan5stm3211serial_portINS0_5usart6moduleILm1073759232EEELj200ELj200ENS_3mcu3pinINS0_4gpio6moduleILm1207959552EEELm2EEENS6_IS9_Lm3EEEE4initEv+0xa8>)
 8003ffe:	0541      	lsls	r1, r0, #21
 8004000:	6011      	str	r1, [r2, #0]
 8004002:	6818      	ldr	r0, [r3, #0]
 8004004:	2120      	movs	r1, #32
 8004006:	4308      	orrs	r0, r1
 8004008:	6018      	str	r0, [r3, #0]
 800400a:	681a      	ldr	r2, [r3, #0]
 800400c:	2001      	movs	r0, #1
 800400e:	4302      	orrs	r2, r0
 8004010:	601a      	str	r2, [r3, #0]
 8004012:	bd07      	pop	{r0, r1, r2, pc}
 8004014:	20000964 	.word	0x20000964
 8004018:	20000a34 	.word	0x20000a34
 800401c:	40021000 	.word	0x40021000
 8004020:	fffdffff 	.word	0xfffdffff
 8004024:	40004400 	.word	0x40004400
 8004028:	ffff6a03 	.word	0xffff6a03
 800402c:	ffffc7bf 	.word	0xffffc7bf
 8004030:	fffff8fe 	.word	0xfffff8fe
 8004034:	00001388 	.word	0x00001388
 8004038:	e000e100 	.word	0xe000e100

0800403c <_GLOBAL__sub_I___cxa_pure_virtual>:
 800403c:	4b14      	ldr	r3, [pc, #80]	; (8004090 <_GLOBAL__sub_I___cxa_pure_virtual+0x54>)
 800403e:	2101      	movs	r1, #1
 8004040:	681a      	ldr	r2, [r3, #0]
 8004042:	400a      	ands	r2, r1
 8004044:	d104      	bne.n	8004050 <_GLOBAL__sub_I___cxa_pure_virtual+0x14>
 8004046:	4813      	ldr	r0, [pc, #76]	; (8004094 <_GLOBAL__sub_I___cxa_pure_virtual+0x58>)
 8004048:	6019      	str	r1, [r3, #0]
 800404a:	1c01      	adds	r1, r0, #0
 800404c:	3108      	adds	r1, #8
 800404e:	c006      	stmia	r0!, {r1, r2}
 8004050:	4b11      	ldr	r3, [pc, #68]	; (8004098 <_GLOBAL__sub_I___cxa_pure_virtual+0x5c>)
 8004052:	2101      	movs	r1, #1
 8004054:	681a      	ldr	r2, [r3, #0]
 8004056:	400a      	ands	r2, r1
 8004058:	d104      	bne.n	8004064 <_GLOBAL__sub_I___cxa_pure_virtual+0x28>
 800405a:	4810      	ldr	r0, [pc, #64]	; (800409c <_GLOBAL__sub_I___cxa_pure_virtual+0x60>)
 800405c:	6019      	str	r1, [r3, #0]
 800405e:	1c01      	adds	r1, r0, #0
 8004060:	3108      	adds	r1, #8
 8004062:	c006      	stmia	r0!, {r1, r2}
 8004064:	4b0e      	ldr	r3, [pc, #56]	; (80040a0 <_GLOBAL__sub_I___cxa_pure_virtual+0x64>)
 8004066:	2101      	movs	r1, #1
 8004068:	681a      	ldr	r2, [r3, #0]
 800406a:	400a      	ands	r2, r1
 800406c:	d104      	bne.n	8004078 <_GLOBAL__sub_I___cxa_pure_virtual+0x3c>
 800406e:	480d      	ldr	r0, [pc, #52]	; (80040a4 <_GLOBAL__sub_I___cxa_pure_virtual+0x68>)
 8004070:	6019      	str	r1, [r3, #0]
 8004072:	1c01      	adds	r1, r0, #0
 8004074:	3108      	adds	r1, #8
 8004076:	c006      	stmia	r0!, {r1, r2}
 8004078:	4b0b      	ldr	r3, [pc, #44]	; (80040a8 <_GLOBAL__sub_I___cxa_pure_virtual+0x6c>)
 800407a:	2101      	movs	r1, #1
 800407c:	681a      	ldr	r2, [r3, #0]
 800407e:	400a      	ands	r2, r1
 8004080:	d104      	bne.n	800408c <_GLOBAL__sub_I___cxa_pure_virtual+0x50>
 8004082:	480a      	ldr	r0, [pc, #40]	; (80040ac <_GLOBAL__sub_I___cxa_pure_virtual+0x70>)
 8004084:	6019      	str	r1, [r3, #0]
 8004086:	1c01      	adds	r1, r0, #0
 8004088:	3108      	adds	r1, #8
 800408a:	c006      	stmia	r0!, {r1, r2}
 800408c:	4770      	bx	lr
 800408e:	46c0      	nop			; (mov r8, r8)
 8004090:	20000b04 	.word	0x20000b04
 8004094:	200007c4 	.word	0x200007c4
 8004098:	20000b08 	.word	0x20000b08
 800409c:	20000894 	.word	0x20000894
 80040a0:	20000b0c 	.word	0x20000b0c
 80040a4:	20000964 	.word	0x20000964
 80040a8:	20000b10 	.word	0x20000b10
 80040ac:	20000a34 	.word	0x20000a34

080040b0 <_ZN4quan4fifoIcLi200ELb0EE3getEv>:
 80040b0:	1c03      	adds	r3, r0, #0
 80040b2:	6842      	ldr	r2, [r0, #4]
 80040b4:	6819      	ldr	r1, [r3, #0]
 80040b6:	7810      	ldrb	r0, [r2, #0]
 80040b8:	2900      	cmp	r1, #0
 80040ba:	d100      	bne.n	80040be <_ZN4quan4fifoIcLi200ELb0EE3getEv+0xe>
 80040bc:	601a      	str	r2, [r3, #0]
 80040be:	1c19      	adds	r1, r3, #0
 80040c0:	3201      	adds	r2, #1
 80040c2:	31d0      	adds	r1, #208	; 0xd0
 80040c4:	605a      	str	r2, [r3, #4]
 80040c6:	428a      	cmp	r2, r1
 80040c8:	d102      	bne.n	80040d0 <_ZN4quan4fifoIcLi200ELb0EE3getEv+0x20>
 80040ca:	1c1a      	adds	r2, r3, #0
 80040cc:	3208      	adds	r2, #8
 80040ce:	605a      	str	r2, [r3, #4]
 80040d0:	685a      	ldr	r2, [r3, #4]
 80040d2:	6819      	ldr	r1, [r3, #0]
 80040d4:	428a      	cmp	r2, r1
 80040d6:	d101      	bne.n	80040dc <_ZN4quan4fifoIcLi200ELb0EE3getEv+0x2c>
 80040d8:	2200      	movs	r2, #0
 80040da:	605a      	str	r2, [r3, #4]
 80040dc:	4770      	bx	lr

080040de <_ZN4quan4fifoIcLi200ELb0EE3putERKc>:
 80040de:	1c03      	adds	r3, r0, #0
 80040e0:	6800      	ldr	r0, [r0, #0]
 80040e2:	2800      	cmp	r0, #0
 80040e4:	d016      	beq.n	8004114 <_ZN4quan4fifoIcLi200ELb0EE3putERKc+0x36>
 80040e6:	780a      	ldrb	r2, [r1, #0]
 80040e8:	7002      	strb	r2, [r0, #0]
 80040ea:	6859      	ldr	r1, [r3, #4]
 80040ec:	6818      	ldr	r0, [r3, #0]
 80040ee:	2900      	cmp	r1, #0
 80040f0:	d100      	bne.n	80040f4 <_ZN4quan4fifoIcLi200ELb0EE3putERKc+0x16>
 80040f2:	6058      	str	r0, [r3, #4]
 80040f4:	1c1a      	adds	r2, r3, #0
 80040f6:	3001      	adds	r0, #1
 80040f8:	32d0      	adds	r2, #208	; 0xd0
 80040fa:	6018      	str	r0, [r3, #0]
 80040fc:	4290      	cmp	r0, r2
 80040fe:	d102      	bne.n	8004106 <_ZN4quan4fifoIcLi200ELb0EE3putERKc+0x28>
 8004100:	1c18      	adds	r0, r3, #0
 8004102:	3008      	adds	r0, #8
 8004104:	6018      	str	r0, [r3, #0]
 8004106:	681a      	ldr	r2, [r3, #0]
 8004108:	6859      	ldr	r1, [r3, #4]
 800410a:	2001      	movs	r0, #1
 800410c:	428a      	cmp	r2, r1
 800410e:	d101      	bne.n	8004114 <_ZN4quan4fifoIcLi200ELb0EE3putERKc+0x36>
 8004110:	2200      	movs	r2, #0
 8004112:	601a      	str	r2, [r3, #0]
 8004114:	4770      	bx	lr
	...

08004118 <_ZN4quan5stm325usart11irq_handlerINS0_11serial_portINS1_6moduleILm1073759232EEELj200ELj200ENS_3mcu3pinINS0_4gpio6moduleILm1207959552EEELm2EEENS7_ISA_Lm3EEEEEEEvv>:
 8004118:	b573      	push	{r0, r1, r4, r5, r6, lr}
 800411a:	4c17      	ldr	r4, [pc, #92]	; (8004178 <_ZN4quan5stm325usart11irq_handlerINS0_11serial_portINS1_6moduleILm1073759232EEELj200ELj200ENS_3mcu3pinINS0_4gpio6moduleILm1207959552EEELm2EEENS7_ISA_Lm3EEEEEEEvv+0x60>)
 800411c:	2320      	movs	r3, #32
 800411e:	6822      	ldr	r2, [r4, #0]
 8004120:	421a      	tst	r2, r3
 8004122:	d010      	beq.n	8004146 <_ZN4quan5stm325usart11irq_handlerINS0_11serial_portINS1_6moduleILm1073759232EEELj200ELj200ENS_3mcu3pinINS0_4gpio6moduleILm1207959552EEELm2EEENS7_ISA_Lm3EEEEEEEvv+0x2e>
 8004124:	69e0      	ldr	r0, [r4, #28]
 8004126:	4218      	tst	r0, r3
 8004128:	d00d      	beq.n	8004146 <_ZN4quan5stm325usart11irq_handlerINS0_11serial_portINS1_6moduleILm1073759232EEELj200ELj200ENS_3mcu3pinINS0_4gpio6moduleILm1207959552EEELm2EEENS7_ISA_Lm3EEEEEEEvv+0x2e>
 800412a:	4d14      	ldr	r5, [pc, #80]	; (800417c <_ZN4quan5stm325usart11irq_handlerINS0_11serial_portINS1_6moduleILm1073759232EEELj200ELj200ENS_3mcu3pinINS0_4gpio6moduleILm1207959552EEELm2EEENS7_ISA_Lm3EEEEEEEvv+0x64>)
 800412c:	6829      	ldr	r1, [r5, #0]
 800412e:	2900      	cmp	r1, #0
 8004130:	d102      	bne.n	8004138 <_ZN4quan5stm325usart11irq_handlerINS0_11serial_portINS1_6moduleILm1073759232EEELj200ELj200ENS_3mcu3pinINS0_4gpio6moduleILm1207959552EEELm2EEENS7_ISA_Lm3EEEEEEEvv+0x20>
 8004132:	1c28      	adds	r0, r5, #0
 8004134:	f7ff ffbc 	bl	80040b0 <_ZN4quan4fifoIcLi200ELb0EE3getEv>
 8004138:	6a66      	ldr	r6, [r4, #36]	; 0x24
 800413a:	4669      	mov	r1, sp
 800413c:	3107      	adds	r1, #7
 800413e:	1c28      	adds	r0, r5, #0
 8004140:	700e      	strb	r6, [r1, #0]
 8004142:	f7ff ffcc 	bl	80040de <_ZN4quan4fifoIcLi200ELb0EE3putERKc>
 8004146:	6822      	ldr	r2, [r4, #0]
 8004148:	2380      	movs	r3, #128	; 0x80
 800414a:	4e0b      	ldr	r6, [pc, #44]	; (8004178 <_ZN4quan5stm325usart11irq_handlerINS0_11serial_portINS1_6moduleILm1073759232EEELj200ELj200ENS_3mcu3pinINS0_4gpio6moduleILm1207959552EEELm2EEENS7_ISA_Lm3EEEEEEEvv+0x60>)
 800414c:	421a      	tst	r2, r3
 800414e:	d011      	beq.n	8004174 <_ZN4quan5stm325usart11irq_handlerINS0_11serial_portINS1_6moduleILm1073759232EEELj200ELj200ENS_3mcu3pinINS0_4gpio6moduleILm1207959552EEELm2EEENS7_ISA_Lm3EEEEEEEvv+0x5c>
 8004150:	4d0b      	ldr	r5, [pc, #44]	; (8004180 <_ZN4quan5stm325usart11irq_handlerINS0_11serial_portINS1_6moduleILm1073759232EEELj200ELj200ENS_3mcu3pinINS0_4gpio6moduleILm1207959552EEELm2EEENS7_ISA_Lm3EEEEEEEvv+0x68>)
 8004152:	6868      	ldr	r0, [r5, #4]
 8004154:	2800      	cmp	r0, #0
 8004156:	d006      	beq.n	8004166 <_ZN4quan5stm325usart11irq_handlerINS0_11serial_portINS1_6moduleILm1073759232EEELj200ELj200ENS_3mcu3pinINS0_4gpio6moduleILm1207959552EEELm2EEENS7_ISA_Lm3EEEEEEEvv+0x4e>
 8004158:	69f1      	ldr	r1, [r6, #28]
 800415a:	4219      	tst	r1, r3
 800415c:	d003      	beq.n	8004166 <_ZN4quan5stm325usart11irq_handlerINS0_11serial_portINS1_6moduleILm1073759232EEELj200ELj200ENS_3mcu3pinINS0_4gpio6moduleILm1207959552EEELm2EEENS7_ISA_Lm3EEEEEEEvv+0x4e>
 800415e:	1c28      	adds	r0, r5, #0
 8004160:	f7ff ffa6 	bl	80040b0 <_ZN4quan4fifoIcLi200ELb0EE3getEv>
 8004164:	62b0      	str	r0, [r6, #40]	; 0x28
 8004166:	686e      	ldr	r6, [r5, #4]
 8004168:	2e00      	cmp	r6, #0
 800416a:	d103      	bne.n	8004174 <_ZN4quan5stm325usart11irq_handlerINS0_11serial_portINS1_6moduleILm1073759232EEELj200ELj200ENS_3mcu3pinINS0_4gpio6moduleILm1207959552EEELm2EEENS7_ISA_Lm3EEEEEEEvv+0x5c>
 800416c:	6823      	ldr	r3, [r4, #0]
 800416e:	2280      	movs	r2, #128	; 0x80
 8004170:	4393      	bics	r3, r2
 8004172:	6023      	str	r3, [r4, #0]
 8004174:	bd73      	pop	{r0, r1, r4, r5, r6, pc}
 8004176:	46c0      	nop			; (mov r8, r8)
 8004178:	40004400 	.word	0x40004400
 800417c:	20000a34 	.word	0x20000a34
 8004180:	20000964 	.word	0x20000964

08004184 <_ZN4quan5stm325usart11irq_handlerINS0_11serial_portINS1_6moduleILm1073821696EEELj200ELj200ENS_3mcu3pinINS0_4gpio6moduleILm1207959552EEELm9EEENS7_ISA_Lm10EEEEEEEvv>:
 8004184:	b573      	push	{r0, r1, r4, r5, r6, lr}
 8004186:	4c17      	ldr	r4, [pc, #92]	; (80041e4 <_ZN4quan5stm325usart11irq_handlerINS0_11serial_portINS1_6moduleILm1073821696EEELj200ELj200ENS_3mcu3pinINS0_4gpio6moduleILm1207959552EEELm9EEENS7_ISA_Lm10EEEEEEEvv+0x60>)
 8004188:	2320      	movs	r3, #32
 800418a:	6822      	ldr	r2, [r4, #0]
 800418c:	421a      	tst	r2, r3
 800418e:	d010      	beq.n	80041b2 <_ZN4quan5stm325usart11irq_handlerINS0_11serial_portINS1_6moduleILm1073821696EEELj200ELj200ENS_3mcu3pinINS0_4gpio6moduleILm1207959552EEELm9EEENS7_ISA_Lm10EEEEEEEvv+0x2e>
 8004190:	69e0      	ldr	r0, [r4, #28]
 8004192:	4218      	tst	r0, r3
 8004194:	d00d      	beq.n	80041b2 <_ZN4quan5stm325usart11irq_handlerINS0_11serial_portINS1_6moduleILm1073821696EEELj200ELj200ENS_3mcu3pinINS0_4gpio6moduleILm1207959552EEELm9EEENS7_ISA_Lm10EEEEEEEvv+0x2e>
 8004196:	4d14      	ldr	r5, [pc, #80]	; (80041e8 <_ZN4quan5stm325usart11irq_handlerINS0_11serial_portINS1_6moduleILm1073821696EEELj200ELj200ENS_3mcu3pinINS0_4gpio6moduleILm1207959552EEELm9EEENS7_ISA_Lm10EEEEEEEvv+0x64>)
 8004198:	6829      	ldr	r1, [r5, #0]
 800419a:	2900      	cmp	r1, #0
 800419c:	d102      	bne.n	80041a4 <_ZN4quan5stm325usart11irq_handlerINS0_11serial_portINS1_6moduleILm1073821696EEELj200ELj200ENS_3mcu3pinINS0_4gpio6moduleILm1207959552EEELm9EEENS7_ISA_Lm10EEEEEEEvv+0x20>
 800419e:	1c28      	adds	r0, r5, #0
 80041a0:	f7ff ff86 	bl	80040b0 <_ZN4quan4fifoIcLi200ELb0EE3getEv>
 80041a4:	6a66      	ldr	r6, [r4, #36]	; 0x24
 80041a6:	4669      	mov	r1, sp
 80041a8:	3107      	adds	r1, #7
 80041aa:	1c28      	adds	r0, r5, #0
 80041ac:	700e      	strb	r6, [r1, #0]
 80041ae:	f7ff ff96 	bl	80040de <_ZN4quan4fifoIcLi200ELb0EE3putERKc>
 80041b2:	6822      	ldr	r2, [r4, #0]
 80041b4:	2380      	movs	r3, #128	; 0x80
 80041b6:	4e0b      	ldr	r6, [pc, #44]	; (80041e4 <_ZN4quan5stm325usart11irq_handlerINS0_11serial_portINS1_6moduleILm1073821696EEELj200ELj200ENS_3mcu3pinINS0_4gpio6moduleILm1207959552EEELm9EEENS7_ISA_Lm10EEEEEEEvv+0x60>)
 80041b8:	421a      	tst	r2, r3
 80041ba:	d011      	beq.n	80041e0 <_ZN4quan5stm325usart11irq_handlerINS0_11serial_portINS1_6moduleILm1073821696EEELj200ELj200ENS_3mcu3pinINS0_4gpio6moduleILm1207959552EEELm9EEENS7_ISA_Lm10EEEEEEEvv+0x5c>
 80041bc:	4d0b      	ldr	r5, [pc, #44]	; (80041ec <_ZN4quan5stm325usart11irq_handlerINS0_11serial_portINS1_6moduleILm1073821696EEELj200ELj200ENS_3mcu3pinINS0_4gpio6moduleILm1207959552EEELm9EEENS7_ISA_Lm10EEEEEEEvv+0x68>)
 80041be:	6868      	ldr	r0, [r5, #4]
 80041c0:	2800      	cmp	r0, #0
 80041c2:	d006      	beq.n	80041d2 <_ZN4quan5stm325usart11irq_handlerINS0_11serial_portINS1_6moduleILm1073821696EEELj200ELj200ENS_3mcu3pinINS0_4gpio6moduleILm1207959552EEELm9EEENS7_ISA_Lm10EEEEEEEvv+0x4e>
 80041c4:	69f1      	ldr	r1, [r6, #28]
 80041c6:	4219      	tst	r1, r3
 80041c8:	d003      	beq.n	80041d2 <_ZN4quan5stm325usart11irq_handlerINS0_11serial_portINS1_6moduleILm1073821696EEELj200ELj200ENS_3mcu3pinINS0_4gpio6moduleILm1207959552EEELm9EEENS7_ISA_Lm10EEEEEEEvv+0x4e>
 80041ca:	1c28      	adds	r0, r5, #0
 80041cc:	f7ff ff70 	bl	80040b0 <_ZN4quan4fifoIcLi200ELb0EE3getEv>
 80041d0:	62b0      	str	r0, [r6, #40]	; 0x28
 80041d2:	686e      	ldr	r6, [r5, #4]
 80041d4:	2e00      	cmp	r6, #0
 80041d6:	d103      	bne.n	80041e0 <_ZN4quan5stm325usart11irq_handlerINS0_11serial_portINS1_6moduleILm1073821696EEELj200ELj200ENS_3mcu3pinINS0_4gpio6moduleILm1207959552EEELm9EEENS7_ISA_Lm10EEEEEEEvv+0x5c>
 80041d8:	6823      	ldr	r3, [r4, #0]
 80041da:	2280      	movs	r2, #128	; 0x80
 80041dc:	4393      	bics	r3, r2
 80041de:	6023      	str	r3, [r4, #0]
 80041e0:	bd73      	pop	{r0, r1, r4, r5, r6, pc}
 80041e2:	46c0      	nop			; (mov r8, r8)
 80041e4:	40013800 	.word	0x40013800
 80041e8:	20000894 	.word	0x20000894
 80041ec:	200007c4 	.word	0x200007c4

080041f0 <_GLOBAL__sub_I_USART2_IRQHandler>:
 80041f0:	4b14      	ldr	r3, [pc, #80]	; (8004244 <_GLOBAL__sub_I_USART2_IRQHandler+0x54>)
 80041f2:	2101      	movs	r1, #1
 80041f4:	681a      	ldr	r2, [r3, #0]
 80041f6:	400a      	ands	r2, r1
 80041f8:	d104      	bne.n	8004204 <_GLOBAL__sub_I_USART2_IRQHandler+0x14>
 80041fa:	4813      	ldr	r0, [pc, #76]	; (8004248 <_GLOBAL__sub_I_USART2_IRQHandler+0x58>)
 80041fc:	6019      	str	r1, [r3, #0]
 80041fe:	1c01      	adds	r1, r0, #0
 8004200:	3108      	adds	r1, #8
 8004202:	c006      	stmia	r0!, {r1, r2}
 8004204:	4b11      	ldr	r3, [pc, #68]	; (800424c <_GLOBAL__sub_I_USART2_IRQHandler+0x5c>)
 8004206:	2101      	movs	r1, #1
 8004208:	681a      	ldr	r2, [r3, #0]
 800420a:	400a      	ands	r2, r1
 800420c:	d104      	bne.n	8004218 <_GLOBAL__sub_I_USART2_IRQHandler+0x28>
 800420e:	4810      	ldr	r0, [pc, #64]	; (8004250 <_GLOBAL__sub_I_USART2_IRQHandler+0x60>)
 8004210:	6019      	str	r1, [r3, #0]
 8004212:	1c01      	adds	r1, r0, #0
 8004214:	3108      	adds	r1, #8
 8004216:	c006      	stmia	r0!, {r1, r2}
 8004218:	4b0e      	ldr	r3, [pc, #56]	; (8004254 <_GLOBAL__sub_I_USART2_IRQHandler+0x64>)
 800421a:	2101      	movs	r1, #1
 800421c:	681a      	ldr	r2, [r3, #0]
 800421e:	400a      	ands	r2, r1
 8004220:	d104      	bne.n	800422c <_GLOBAL__sub_I_USART2_IRQHandler+0x3c>
 8004222:	480d      	ldr	r0, [pc, #52]	; (8004258 <_GLOBAL__sub_I_USART2_IRQHandler+0x68>)
 8004224:	6019      	str	r1, [r3, #0]
 8004226:	1c01      	adds	r1, r0, #0
 8004228:	3108      	adds	r1, #8
 800422a:	c006      	stmia	r0!, {r1, r2}
 800422c:	4b0b      	ldr	r3, [pc, #44]	; (800425c <_GLOBAL__sub_I_USART2_IRQHandler+0x6c>)
 800422e:	2101      	movs	r1, #1
 8004230:	681a      	ldr	r2, [r3, #0]
 8004232:	400a      	ands	r2, r1
 8004234:	d104      	bne.n	8004240 <_GLOBAL__sub_I_USART2_IRQHandler+0x50>
 8004236:	480a      	ldr	r0, [pc, #40]	; (8004260 <_GLOBAL__sub_I_USART2_IRQHandler+0x70>)
 8004238:	6019      	str	r1, [r3, #0]
 800423a:	1c01      	adds	r1, r0, #0
 800423c:	3108      	adds	r1, #8
 800423e:	c006      	stmia	r0!, {r1, r2}
 8004240:	4770      	bx	lr
 8004242:	46c0      	nop			; (mov r8, r8)
 8004244:	20000b10 	.word	0x20000b10
 8004248:	20000a34 	.word	0x20000a34
 800424c:	20000b0c 	.word	0x20000b0c
 8004250:	20000964 	.word	0x20000964
 8004254:	20000b08 	.word	0x20000b08
 8004258:	20000894 	.word	0x20000894
 800425c:	20000b04 	.word	0x20000b04
 8004260:	200007c4 	.word	0x200007c4

08004264 <_GLOBAL__sub_I__Z7fsk_putc>:
 8004264:	4b03      	ldr	r3, [pc, #12]	; (8004274 <_GLOBAL__sub_I__Z7fsk_putc+0x10>)
 8004266:	2000      	movs	r0, #0
 8004268:	1c1a      	adds	r2, r3, #0
 800426a:	3214      	adds	r2, #20
 800426c:	60da      	str	r2, [r3, #12]
 800426e:	6118      	str	r0, [r3, #16]
 8004270:	4770      	bx	lr
 8004272:	46c0      	nop			; (mov r8, r8)
 8004274:	20000464 	.word	0x20000464

08004278 <_ZN4quan5stm3211serial_portINS0_5usart6moduleILm1073759232EEELj200ELj200ENS_3mcu3pinINS0_4gpio6moduleILm1207959552EEELm2EEENS6_IS9_Lm3EEEE3putEc>:
 8004278:	4a11      	ldr	r2, [pc, #68]	; (80042c0 <_ZN4quan5stm3211serial_portINS0_5usart6moduleILm1073759232EEELj200ELj200ENS_3mcu3pinINS0_4gpio6moduleILm1207959552EEELm2EEENS6_IS9_Lm3EEEE3putEc+0x48>)
 800427a:	2180      	movs	r1, #128	; 0x80
 800427c:	6813      	ldr	r3, [r2, #0]
 800427e:	438b      	bics	r3, r1
 8004280:	6013      	str	r3, [r2, #0]
 8004282:	4b10      	ldr	r3, [pc, #64]	; (80042c4 <_ZN4quan5stm3211serial_portINS0_5usart6moduleILm1073759232EEELj200ELj200ENS_3mcu3pinINS0_4gpio6moduleILm1207959552EEELm2EEENS6_IS9_Lm3EEEE3putEc+0x4c>)
 8004284:	6819      	ldr	r1, [r3, #0]
 8004286:	2900      	cmp	r1, #0
 8004288:	d015      	beq.n	80042b6 <_ZN4quan5stm3211serial_portINS0_5usart6moduleILm1073759232EEELj200ELj200ENS_3mcu3pinINS0_4gpio6moduleILm1207959552EEELm2EEENS6_IS9_Lm3EEEE3putEc+0x3e>
 800428a:	7008      	strb	r0, [r1, #0]
 800428c:	6858      	ldr	r0, [r3, #4]
 800428e:	2800      	cmp	r0, #0
 8004290:	d101      	bne.n	8004296 <_ZN4quan5stm3211serial_portINS0_5usart6moduleILm1073759232EEELj200ELj200ENS_3mcu3pinINS0_4gpio6moduleILm1207959552EEELm2EEENS6_IS9_Lm3EEEE3putEc+0x1e>
 8004292:	6819      	ldr	r1, [r3, #0]
 8004294:	6059      	str	r1, [r3, #4]
 8004296:	6819      	ldr	r1, [r3, #0]
 8004298:	1c18      	adds	r0, r3, #0
 800429a:	3101      	adds	r1, #1
 800429c:	30d0      	adds	r0, #208	; 0xd0
 800429e:	6019      	str	r1, [r3, #0]
 80042a0:	4281      	cmp	r1, r0
 80042a2:	d102      	bne.n	80042aa <_ZN4quan5stm3211serial_portINS0_5usart6moduleILm1073759232EEELj200ELj200ENS_3mcu3pinINS0_4gpio6moduleILm1207959552EEELm2EEENS6_IS9_Lm3EEEE3putEc+0x32>
 80042a4:	1c19      	adds	r1, r3, #0
 80042a6:	3108      	adds	r1, #8
 80042a8:	6019      	str	r1, [r3, #0]
 80042aa:	6818      	ldr	r0, [r3, #0]
 80042ac:	6859      	ldr	r1, [r3, #4]
 80042ae:	4288      	cmp	r0, r1
 80042b0:	d101      	bne.n	80042b6 <_ZN4quan5stm3211serial_portINS0_5usart6moduleILm1073759232EEELj200ELj200ENS_3mcu3pinINS0_4gpio6moduleILm1207959552EEELm2EEENS6_IS9_Lm3EEEE3putEc+0x3e>
 80042b2:	2000      	movs	r0, #0
 80042b4:	6018      	str	r0, [r3, #0]
 80042b6:	6813      	ldr	r3, [r2, #0]
 80042b8:	2180      	movs	r1, #128	; 0x80
 80042ba:	430b      	orrs	r3, r1
 80042bc:	6013      	str	r3, [r2, #0]
 80042be:	4770      	bx	lr
 80042c0:	40004400 	.word	0x40004400
 80042c4:	20000964 	.word	0x20000964

080042c8 <_GLOBAL__sub_I__ZN5zapp118frsky_send_messageEv>:
 80042c8:	b570      	push	{r4, r5, r6, lr}
 80042ca:	4c16      	ldr	r4, [pc, #88]	; (8004324 <_GLOBAL__sub_I__ZN5zapp118frsky_send_messageEv+0x5c>)
 80042cc:	265e      	movs	r6, #94	; 0x5e
 80042ce:	1c20      	adds	r0, r4, #0
 80042d0:	3026      	adds	r0, #38	; 0x26
 80042d2:	2501      	movs	r5, #1
 80042d4:	2100      	movs	r1, #0
 80042d6:	7006      	strb	r6, [r0, #0]
 80042d8:	7045      	strb	r5, [r0, #1]
 80042da:	f7fc f993 	bl	8000604 <_ZN12_GLOBAL__N_110zapp1_impl14create_messageIlE6assignERKl.isra.0>
 80042de:	1c20      	adds	r0, r4, #0
 80042e0:	301f      	adds	r0, #31
 80042e2:	2302      	movs	r3, #2
 80042e4:	2100      	movs	r1, #0
 80042e6:	77e6      	strb	r6, [r4, #31]
 80042e8:	7043      	strb	r3, [r0, #1]
 80042ea:	f7fc f98b 	bl	8000604 <_ZN12_GLOBAL__N_110zapp1_impl14create_messageIlE6assignERKl.isra.0>
 80042ee:	2008      	movs	r0, #8
 80042f0:	7660      	strb	r0, [r4, #25]
 80042f2:	1c20      	adds	r0, r4, #0
 80042f4:	2100      	movs	r1, #0
 80042f6:	3018      	adds	r0, #24
 80042f8:	7626      	strb	r6, [r4, #24]
 80042fa:	f7fc f983 	bl	8000604 <_ZN12_GLOBAL__N_110zapp1_impl14create_messageIlE6assignERKl.isra.0>
 80042fe:	4e0a      	ldr	r6, [pc, #40]	; (8004328 <_GLOBAL__sub_I__ZN5zapp118frsky_send_messageEv+0x60>)
 8004300:	2100      	movs	r1, #0
 8004302:	2214      	movs	r2, #20
 8004304:	60e2      	str	r2, [r4, #12]
 8004306:	60a1      	str	r1, [r4, #8]
 8004308:	6126      	str	r6, [r4, #16]
 800430a:	7521      	strb	r1, [r4, #20]
 800430c:	7565      	strb	r5, [r4, #21]
 800430e:	4c07      	ldr	r4, [pc, #28]	; (800432c <_GLOBAL__sub_I__ZN5zapp118frsky_send_messageEv+0x64>)
 8004310:	6822      	ldr	r2, [r4, #0]
 8004312:	402a      	ands	r2, r5
 8004314:	d104      	bne.n	8004320 <_GLOBAL__sub_I__ZN5zapp118frsky_send_messageEv+0x58>
 8004316:	6025      	str	r5, [r4, #0]
 8004318:	4d05      	ldr	r5, [pc, #20]	; (8004330 <_GLOBAL__sub_I__ZN5zapp118frsky_send_messageEv+0x68>)
 800431a:	1c29      	adds	r1, r5, #0
 800431c:	3108      	adds	r1, #8
 800431e:	c506      	stmia	r5!, {r1, r2}
 8004320:	bd70      	pop	{r4, r5, r6, pc}
 8004322:	46c0      	nop			; (mov r8, r8)
 8004324:	200004f0 	.word	0x200004f0
 8004328:	080005a5 	.word	0x080005a5
 800432c:	20000b0c 	.word	0x20000b0c
 8004330:	20000964 	.word	0x20000964

08004334 <_GLOBAL__sub_I_the_aircraft>:
 8004334:	b510      	push	{r4, lr}
 8004336:	4c0c      	ldr	r4, [pc, #48]	; (8004368 <_GLOBAL__sub_I_the_aircraft+0x34>)
 8004338:	2100      	movs	r1, #0
 800433a:	1c20      	adds	r0, r4, #0
 800433c:	2220      	movs	r2, #32
 800433e:	f000 fc25 	bl	8004b8c <memset>
 8004342:	2300      	movs	r3, #0
 8004344:	1c21      	adds	r1, r4, #0
 8004346:	2000      	movs	r0, #0
 8004348:	6223      	str	r3, [r4, #32]
 800434a:	6263      	str	r3, [r4, #36]	; 0x24
 800434c:	62a3      	str	r3, [r4, #40]	; 0x28
 800434e:	62e3      	str	r3, [r4, #44]	; 0x2c
 8004350:	6323      	str	r3, [r4, #48]	; 0x30
 8004352:	6363      	str	r3, [r4, #52]	; 0x34
 8004354:	63a3      	str	r3, [r4, #56]	; 0x38
 8004356:	63e3      	str	r3, [r4, #60]	; 0x3c
 8004358:	6423      	str	r3, [r4, #64]	; 0x40
 800435a:	6463      	str	r3, [r4, #68]	; 0x44
 800435c:	64a3      	str	r3, [r4, #72]	; 0x48
 800435e:	314c      	adds	r1, #76	; 0x4c
 8004360:	344e      	adds	r4, #78	; 0x4e
 8004362:	8008      	strh	r0, [r1, #0]
 8004364:	7020      	strb	r0, [r4, #0]
 8004366:	bd10      	pop	{r4, pc}
 8004368:	20000520 	.word	0x20000520

0800436c <_GLOBAL__sub_I_mavlink_system>:
 800436c:	4b0a      	ldr	r3, [pc, #40]	; (8004398 <_GLOBAL__sub_I_mavlink_system+0x2c>)
 800436e:	2101      	movs	r1, #1
 8004370:	681a      	ldr	r2, [r3, #0]
 8004372:	400a      	ands	r2, r1
 8004374:	d104      	bne.n	8004380 <_GLOBAL__sub_I_mavlink_system+0x14>
 8004376:	4809      	ldr	r0, [pc, #36]	; (800439c <_GLOBAL__sub_I_mavlink_system+0x30>)
 8004378:	6019      	str	r1, [r3, #0]
 800437a:	1c01      	adds	r1, r0, #0
 800437c:	3108      	adds	r1, #8
 800437e:	c006      	stmia	r0!, {r1, r2}
 8004380:	4b07      	ldr	r3, [pc, #28]	; (80043a0 <_GLOBAL__sub_I_mavlink_system+0x34>)
 8004382:	2101      	movs	r1, #1
 8004384:	681a      	ldr	r2, [r3, #0]
 8004386:	400a      	ands	r2, r1
 8004388:	d104      	bne.n	8004394 <_GLOBAL__sub_I_mavlink_system+0x28>
 800438a:	4806      	ldr	r0, [pc, #24]	; (80043a4 <_GLOBAL__sub_I_mavlink_system+0x38>)
 800438c:	6019      	str	r1, [r3, #0]
 800438e:	1c01      	adds	r1, r0, #0
 8004390:	3108      	adds	r1, #8
 8004392:	c006      	stmia	r0!, {r1, r2}
 8004394:	4770      	bx	lr
 8004396:	46c0      	nop			; (mov r8, r8)
 8004398:	20000b04 	.word	0x20000b04
 800439c:	200007c4 	.word	0x200007c4
 80043a0:	20000b08 	.word	0x20000b08
 80043a4:	20000894 	.word	0x20000894

080043a8 <_ZN4quan6detail9converterIfPcE7get_tokEc>:
 80043a8:	1c02      	adds	r2, r0, #0
 80043aa:	3a30      	subs	r2, #48	; 0x30
 80043ac:	1c03      	adds	r3, r0, #0
 80043ae:	2000      	movs	r0, #0
 80043b0:	2a09      	cmp	r2, #9
 80043b2:	d917      	bls.n	80043e4 <_ZN4quan6detail9converterIfPcE7get_tokEc+0x3c>
 80043b4:	2b45      	cmp	r3, #69	; 0x45
 80043b6:	d014      	beq.n	80043e2 <_ZN4quan6detail9converterIfPcE7get_tokEc+0x3a>
 80043b8:	d80c      	bhi.n	80043d4 <_ZN4quan6detail9converterIfPcE7get_tokEc+0x2c>
 80043ba:	2b2d      	cmp	r3, #45	; 0x2d
 80043bc:	d00d      	beq.n	80043da <_ZN4quan6detail9converterIfPcE7get_tokEc+0x32>
 80043be:	d805      	bhi.n	80043cc <_ZN4quan6detail9converterIfPcE7get_tokEc+0x24>
 80043c0:	2004      	movs	r0, #4
 80043c2:	2b00      	cmp	r3, #0
 80043c4:	d00e      	beq.n	80043e4 <_ZN4quan6detail9converterIfPcE7get_tokEc+0x3c>
 80043c6:	2b2b      	cmp	r3, #43	; 0x2b
 80043c8:	d109      	bne.n	80043de <_ZN4quan6detail9converterIfPcE7get_tokEc+0x36>
 80043ca:	e006      	b.n	80043da <_ZN4quan6detail9converterIfPcE7get_tokEc+0x32>
 80043cc:	2b2e      	cmp	r3, #46	; 0x2e
 80043ce:	d106      	bne.n	80043de <_ZN4quan6detail9converterIfPcE7get_tokEc+0x36>
 80043d0:	2003      	movs	r0, #3
 80043d2:	e007      	b.n	80043e4 <_ZN4quan6detail9converterIfPcE7get_tokEc+0x3c>
 80043d4:	2b65      	cmp	r3, #101	; 0x65
 80043d6:	d102      	bne.n	80043de <_ZN4quan6detail9converterIfPcE7get_tokEc+0x36>
 80043d8:	e003      	b.n	80043e2 <_ZN4quan6detail9converterIfPcE7get_tokEc+0x3a>
 80043da:	2002      	movs	r0, #2
 80043dc:	e002      	b.n	80043e4 <_ZN4quan6detail9converterIfPcE7get_tokEc+0x3c>
 80043de:	2005      	movs	r0, #5
 80043e0:	e000      	b.n	80043e4 <_ZN4quan6detail9converterIfPcE7get_tokEc+0x3c>
 80043e2:	2001      	movs	r0, #1
 80043e4:	4770      	bx	lr
	...

080043e8 <_ZN4quan6detail9converterIfPcEclEPKc>:
 80043e8:	b5f0      	push	{r4, r5, r6, r7, lr}
 80043ea:	2300      	movs	r3, #0
 80043ec:	b08d      	sub	sp, #52	; 0x34
 80043ee:	9000      	str	r0, [sp, #0]
 80043f0:	9102      	str	r1, [sp, #8]
 80043f2:	6003      	str	r3, [r0, #0]
 80043f4:	9c02      	ldr	r4, [sp, #8]
 80043f6:	5ce2      	ldrb	r2, [r4, r3]
 80043f8:	2a00      	cmp	r2, #0
 80043fa:	d004      	beq.n	8004406 <_ZN4quan6detail9converterIfPcEclEPKc+0x1e>
 80043fc:	4878      	ldr	r0, [pc, #480]	; (80045e0 <_ZN4quan6detail9converterIfPcEclEPKc+0x1f8>)
 80043fe:	3301      	adds	r3, #1
 8004400:	4283      	cmp	r3, r0
 8004402:	d1f7      	bne.n	80043f4 <_ZN4quan6detail9converterIfPcEclEPKc+0xc>
 8004404:	e003      	b.n	800440e <_ZN4quan6detail9converterIfPcEclEPKc+0x26>
 8004406:	2700      	movs	r7, #0
 8004408:	2b00      	cmp	r3, #0
 800440a:	d100      	bne.n	800440e <_ZN4quan6detail9converterIfPcEclEPKc+0x26>
 800440c:	e0e4      	b.n	80045d8 <_ZN4quan6detail9converterIfPcEclEPKc+0x1f0>
 800440e:	9902      	ldr	r1, [sp, #8]
 8004410:	780d      	ldrb	r5, [r1, #0]
 8004412:	1c28      	adds	r0, r5, #0
 8004414:	f7ff ffc8 	bl	80043a8 <_ZN4quan6detail9converterIfPcE7get_tokEc>
 8004418:	1e06      	subs	r6, r0, #0
 800441a:	2e02      	cmp	r6, #2
 800441c:	d10d      	bne.n	800443a <_ZN4quan6detail9converterIfPcEclEPKc+0x52>
 800441e:	1c2e      	adds	r6, r5, #0
 8004420:	3e2d      	subs	r6, #45	; 0x2d
 8004422:	4274      	negs	r4, r6
 8004424:	4166      	adcs	r6, r4
 8004426:	9a02      	ldr	r2, [sp, #8]
 8004428:	4274      	negs	r4, r6
 800442a:	2701      	movs	r7, #1
 800442c:	433c      	orrs	r4, r7
 800442e:	7850      	ldrb	r0, [r2, #1]
 8004430:	940a      	str	r4, [sp, #40]	; 0x28
 8004432:	f7ff ffb9 	bl	80043a8 <_ZN4quan6detail9converterIfPcE7get_tokEc>
 8004436:	1c06      	adds	r6, r0, #0
 8004438:	e002      	b.n	8004440 <_ZN4quan6detail9converterIfPcEclEPKc+0x58>
 800443a:	2301      	movs	r3, #1
 800443c:	2700      	movs	r7, #0
 800443e:	930a      	str	r3, [sp, #40]	; 0x28
 8004440:	9802      	ldr	r0, [sp, #8]
 8004442:	19c4      	adds	r4, r0, r7
 8004444:	2700      	movs	r7, #0
 8004446:	9902      	ldr	r1, [sp, #8]
 8004448:	1a65      	subs	r5, r4, r1
 800444a:	2e00      	cmp	r6, #0
 800444c:	d113      	bne.n	8004476 <_ZN4quan6detail9converterIfPcEclEPKc+0x8e>
 800444e:	4965      	ldr	r1, [pc, #404]	; (80045e4 <_ZN4quan6detail9converterIfPcEclEPKc+0x1fc>)
 8004450:	1c38      	adds	r0, r7, #0
 8004452:	f7fd ffed 	bl	8002430 <__aeabi_fmul>
 8004456:	1c05      	adds	r5, r0, #0
 8004458:	7820      	ldrb	r0, [r4, #0]
 800445a:	3830      	subs	r0, #48	; 0x30
 800445c:	f7fe f938 	bl	80026d0 <__aeabi_i2f>
 8004460:	1c01      	adds	r1, r0, #0
 8004462:	1c28      	adds	r0, r5, #0
 8004464:	f7fd fc1c 	bl	8001ca0 <__aeabi_fadd>
 8004468:	1c07      	adds	r7, r0, #0
 800446a:	7860      	ldrb	r0, [r4, #1]
 800446c:	f7ff ff9c 	bl	80043a8 <_ZN4quan6detail9converterIfPcE7get_tokEc>
 8004470:	3401      	adds	r4, #1
 8004472:	1c06      	adds	r6, r0, #0
 8004474:	e7e7      	b.n	8004446 <_ZN4quan6detail9converterIfPcEclEPKc+0x5e>
 8004476:	1c2c      	adds	r4, r5, #0
 8004478:	2e03      	cmp	r6, #3
 800447a:	d156      	bne.n	800452a <_ZN4quan6detail9converterIfPcEclEPKc+0x142>
 800447c:	3501      	adds	r5, #1
 800447e:	5d48      	ldrb	r0, [r1, r5]
 8004480:	f7ff ff92 	bl	80043a8 <_ZN4quan6detail9converterIfPcE7get_tokEc>
 8004484:	1e06      	subs	r6, r0, #0
 8004486:	d110      	bne.n	80044aa <_ZN4quan6detail9converterIfPcEclEPKc+0xc2>
 8004488:	9802      	ldr	r0, [sp, #8]
 800448a:	1901      	adds	r1, r0, r4
 800448c:	3414      	adds	r4, #20
 800448e:	940b      	str	r4, [sp, #44]	; 0x2c
 8004490:	2300      	movs	r3, #0
 8004492:	2400      	movs	r4, #0
 8004494:	9304      	str	r3, [sp, #16]
 8004496:	9405      	str	r4, [sp, #20]
 8004498:	2201      	movs	r2, #1
 800449a:	2300      	movs	r3, #0
 800449c:	9200      	str	r2, [sp, #0]
 800449e:	9301      	str	r3, [sp, #4]
 80044a0:	9103      	str	r1, [sp, #12]
 80044a2:	9c0b      	ldr	r4, [sp, #44]	; 0x2c
 80044a4:	42a5      	cmp	r5, r4
 80044a6:	d107      	bne.n	80044b8 <_ZN4quan6detail9converterIfPcEclEPKc+0xd0>
 80044a8:	e02d      	b.n	8004506 <_ZN4quan6detail9converterIfPcEclEPKc+0x11e>
 80044aa:	2d01      	cmp	r5, #1
 80044ac:	d13d      	bne.n	800452a <_ZN4quan6detail9converterIfPcEclEPKc+0x142>
 80044ae:	2301      	movs	r3, #1
 80044b0:	9a00      	ldr	r2, [sp, #0]
 80044b2:	425e      	negs	r6, r3
 80044b4:	6016      	str	r6, [r2, #0]
 80044b6:	e08f      	b.n	80045d8 <_ZN4quan6detail9converterIfPcEclEPKc+0x1f0>
 80044b8:	220a      	movs	r2, #10
 80044ba:	2300      	movs	r3, #0
 80044bc:	9804      	ldr	r0, [sp, #16]
 80044be:	9905      	ldr	r1, [sp, #20]
 80044c0:	f7fd fba2 	bl	8001c08 <__aeabi_lmul>
 80044c4:	9c03      	ldr	r4, [sp, #12]
 80044c6:	1c02      	adds	r2, r0, #0
 80044c8:	7860      	ldrb	r0, [r4, #1]
 80044ca:	1c0b      	adds	r3, r1, #0
 80044cc:	3830      	subs	r0, #48	; 0x30
 80044ce:	17c1      	asrs	r1, r0, #31
 80044d0:	9008      	str	r0, [sp, #32]
 80044d2:	9109      	str	r1, [sp, #36]	; 0x24
 80044d4:	9808      	ldr	r0, [sp, #32]
 80044d6:	9909      	ldr	r1, [sp, #36]	; 0x24
 80044d8:	1880      	adds	r0, r0, r2
 80044da:	4159      	adcs	r1, r3
 80044dc:	9004      	str	r0, [sp, #16]
 80044de:	9105      	str	r1, [sp, #20]
 80044e0:	78a0      	ldrb	r0, [r4, #2]
 80044e2:	f7ff ff61 	bl	80043a8 <_ZN4quan6detail9converterIfPcE7get_tokEc>
 80044e6:	220a      	movs	r2, #10
 80044e8:	2300      	movs	r3, #0
 80044ea:	1c04      	adds	r4, r0, #0
 80044ec:	9800      	ldr	r0, [sp, #0]
 80044ee:	9901      	ldr	r1, [sp, #4]
 80044f0:	f7fd fb8a 	bl	8001c08 <__aeabi_lmul>
 80044f4:	9b03      	ldr	r3, [sp, #12]
 80044f6:	3501      	adds	r5, #1
 80044f8:	3301      	adds	r3, #1
 80044fa:	9000      	str	r0, [sp, #0]
 80044fc:	9101      	str	r1, [sp, #4]
 80044fe:	9303      	str	r3, [sp, #12]
 8004500:	2c00      	cmp	r4, #0
 8004502:	d0ce      	beq.n	80044a2 <_ZN4quan6detail9converterIfPcEclEPKc+0xba>
 8004504:	1c26      	adds	r6, r4, #0
 8004506:	9804      	ldr	r0, [sp, #16]
 8004508:	9905      	ldr	r1, [sp, #20]
 800450a:	f7fd fba1 	bl	8001c50 <__aeabi_ul2f>
 800450e:	1c04      	adds	r4, r0, #0
 8004510:	9800      	ldr	r0, [sp, #0]
 8004512:	9901      	ldr	r1, [sp, #4]
 8004514:	f7fd fb9c 	bl	8001c50 <__aeabi_ul2f>
 8004518:	1c01      	adds	r1, r0, #0
 800451a:	1c20      	adds	r0, r4, #0
 800451c:	f7fd fd96 	bl	800204c <__aeabi_fdiv>
 8004520:	1c01      	adds	r1, r0, #0
 8004522:	1c38      	adds	r0, r7, #0
 8004524:	f7fd fbbc 	bl	8001ca0 <__aeabi_fadd>
 8004528:	1c07      	adds	r7, r0, #0
 800452a:	2e01      	cmp	r6, #1
 800452c:	d14e      	bne.n	80045cc <_ZN4quan6detail9converterIfPcEclEPKc+0x1e4>
 800452e:	9a02      	ldr	r2, [sp, #8]
 8004530:	1c6c      	adds	r4, r5, #1
 8004532:	5d10      	ldrb	r0, [r2, r4]
 8004534:	9003      	str	r0, [sp, #12]
 8004536:	f7ff ff37 	bl	80043a8 <_ZN4quan6detail9converterIfPcE7get_tokEc>
 800453a:	9600      	str	r6, [sp, #0]
 800453c:	2802      	cmp	r0, #2
 800453e:	d10c      	bne.n	800455a <_ZN4quan6detail9converterIfPcEclEPKc+0x172>
 8004540:	9903      	ldr	r1, [sp, #12]
 8004542:	1cac      	adds	r4, r5, #2
 8004544:	392d      	subs	r1, #45	; 0x2d
 8004546:	424b      	negs	r3, r1
 8004548:	4159      	adcs	r1, r3
 800454a:	9d02      	ldr	r5, [sp, #8]
 800454c:	4248      	negs	r0, r1
 800454e:	1c33      	adds	r3, r6, #0
 8004550:	4303      	orrs	r3, r0
 8004552:	5d28      	ldrb	r0, [r5, r4]
 8004554:	9300      	str	r3, [sp, #0]
 8004556:	f7ff ff27 	bl	80043a8 <_ZN4quan6detail9converterIfPcE7get_tokEc>
 800455a:	9e02      	ldr	r6, [sp, #8]
 800455c:	1936      	adds	r6, r6, r4
 800455e:	2400      	movs	r4, #0
 8004560:	2500      	movs	r5, #0
 8004562:	2800      	cmp	r0, #0
 8004564:	d115      	bne.n	8004592 <_ZN4quan6detail9converterIfPcEclEPKc+0x1aa>
 8004566:	220a      	movs	r2, #10
 8004568:	2300      	movs	r3, #0
 800456a:	1c20      	adds	r0, r4, #0
 800456c:	1c29      	adds	r1, r5, #0
 800456e:	f7fd fb4b 	bl	8001c08 <__aeabi_lmul>
 8004572:	7833      	ldrb	r3, [r6, #0]
 8004574:	1c0d      	adds	r5, r1, #0
 8004576:	3b30      	subs	r3, #48	; 0x30
 8004578:	17d9      	asrs	r1, r3, #31
 800457a:	1c04      	adds	r4, r0, #0
 800457c:	9306      	str	r3, [sp, #24]
 800457e:	9107      	str	r1, [sp, #28]
 8004580:	9806      	ldr	r0, [sp, #24]
 8004582:	9907      	ldr	r1, [sp, #28]
 8004584:	1824      	adds	r4, r4, r0
 8004586:	414d      	adcs	r5, r1
 8004588:	7870      	ldrb	r0, [r6, #1]
 800458a:	f7ff ff0d 	bl	80043a8 <_ZN4quan6detail9converterIfPcE7get_tokEc>
 800458e:	3601      	adds	r6, #1
 8004590:	e7e7      	b.n	8004562 <_ZN4quan6detail9converterIfPcEclEPKc+0x17a>
 8004592:	22fe      	movs	r2, #254	; 0xfe
 8004594:	0591      	lsls	r1, r2, #22
 8004596:	2d00      	cmp	r5, #0
 8004598:	dd0a      	ble.n	80045b0 <_ZN4quan6detail9converterIfPcEclEPKc+0x1c8>
 800459a:	1c08      	adds	r0, r1, #0
 800459c:	4911      	ldr	r1, [pc, #68]	; (80045e4 <_ZN4quan6detail9converterIfPcEclEPKc+0x1fc>)
 800459e:	f7fd ff47 	bl	8002430 <__aeabi_fmul>
 80045a2:	2201      	movs	r2, #1
 80045a4:	4252      	negs	r2, r2
 80045a6:	17d3      	asrs	r3, r2, #31
 80045a8:	1c01      	adds	r1, r0, #0
 80045aa:	18a4      	adds	r4, r4, r2
 80045ac:	415d      	adcs	r5, r3
 80045ae:	e7f2      	b.n	8004596 <_ZN4quan6detail9converterIfPcEclEPKc+0x1ae>
 80045b0:	2d00      	cmp	r5, #0
 80045b2:	d101      	bne.n	80045b8 <_ZN4quan6detail9converterIfPcEclEPKc+0x1d0>
 80045b4:	2c00      	cmp	r4, #0
 80045b6:	d1f0      	bne.n	800459a <_ZN4quan6detail9converterIfPcEclEPKc+0x1b2>
 80045b8:	9b00      	ldr	r3, [sp, #0]
 80045ba:	1c38      	adds	r0, r7, #0
 80045bc:	2b01      	cmp	r3, #1
 80045be:	d102      	bne.n	80045c6 <_ZN4quan6detail9converterIfPcEclEPKc+0x1de>
 80045c0:	f7fd ff36 	bl	8002430 <__aeabi_fmul>
 80045c4:	e001      	b.n	80045ca <_ZN4quan6detail9converterIfPcEclEPKc+0x1e2>
 80045c6:	f7fd fd41 	bl	800204c <__aeabi_fdiv>
 80045ca:	1c07      	adds	r7, r0, #0
 80045cc:	990a      	ldr	r1, [sp, #40]	; 0x28
 80045ce:	2901      	cmp	r1, #1
 80045d0:	d002      	beq.n	80045d8 <_ZN4quan6detail9converterIfPcEclEPKc+0x1f0>
 80045d2:	2080      	movs	r0, #128	; 0x80
 80045d4:	0604      	lsls	r4, r0, #24
 80045d6:	193f      	adds	r7, r7, r4
 80045d8:	1c38      	adds	r0, r7, #0
 80045da:	b00d      	add	sp, #52	; 0x34
 80045dc:	bdf0      	pop	{r4, r5, r6, r7, pc}
 80045de:	46c0      	nop			; (mov r8, r8)
 80045e0:	7fffffff 	.word	0x7fffffff
 80045e4:	41200000 	.word	0x41200000

080045e8 <_ZN3gps3varImEC1ERKm>:
 80045e8:	6809      	ldr	r1, [r1, #0]
 80045ea:	2300      	movs	r3, #0
 80045ec:	6001      	str	r1, [r0, #0]
 80045ee:	7103      	strb	r3, [r0, #4]
 80045f0:	4770      	bx	lr

080045f2 <_ZN3gps3varIlEC1ERKl>:
 80045f2:	6809      	ldr	r1, [r1, #0]
 80045f4:	2300      	movs	r3, #0
 80045f6:	6001      	str	r1, [r0, #0]
 80045f8:	7103      	strb	r3, [r0, #4]
 80045fa:	4770      	bx	lr

080045fc <_ZN3gps3varINS_8fix_typeEEC1ERKS1_>:
 80045fc:	780b      	ldrb	r3, [r1, #0]
 80045fe:	2100      	movs	r1, #0
 8004600:	7003      	strb	r3, [r0, #0]
 8004602:	7041      	strb	r1, [r0, #1]
 8004604:	4770      	bx	lr

08004606 <_ZN3gps3varIhEC1ERKh>:
 8004606:	780b      	ldrb	r3, [r1, #0]
 8004608:	2100      	movs	r1, #0
 800460a:	7003      	strb	r3, [r0, #0]
 800460c:	7041      	strb	r1, [r0, #1]
 800460e:	4770      	bx	lr

08004610 <_ZN3gps3varIfEC1ERKf>:
 8004610:	6809      	ldr	r1, [r1, #0]
 8004612:	2300      	movs	r3, #0
 8004614:	6001      	str	r1, [r0, #0]
 8004616:	7103      	strb	r3, [r0, #4]
 8004618:	4770      	bx	lr

0800461a <_ZN3gps3varINS_9mode_2D3DEEC1ERKS1_>:
 800461a:	780b      	ldrb	r3, [r1, #0]
 800461c:	2100      	movs	r1, #0
 800461e:	7003      	strb	r3, [r0, #0]
 8004620:	7041      	strb	r1, [r0, #1]
 8004622:	4770      	bx	lr

08004624 <_ZN3gps3varINS_8fix_modeEEC1ERKS1_>:
 8004624:	780b      	ldrb	r3, [r1, #0]
 8004626:	2100      	movs	r1, #0
 8004628:	7003      	strb	r3, [r0, #0]
 800462a:	7041      	strb	r1, [r0, #1]
 800462c:	4770      	bx	lr

0800462e <_ZN3gps3varIaEC1Ev>:
 800462e:	2300      	movs	r3, #0
 8004630:	7003      	strb	r3, [r0, #0]
 8004632:	7043      	strb	r3, [r0, #1]
 8004634:	4770      	bx	lr

08004636 <_ZN3gps3varIfEC1Ev>:
 8004636:	2300      	movs	r3, #0
 8004638:	2100      	movs	r1, #0
 800463a:	6003      	str	r3, [r0, #0]
 800463c:	7101      	strb	r1, [r0, #4]
 800463e:	4770      	bx	lr

08004640 <_ZN3gps3varINS_8vtg_modeEEC1Ev>:
 8004640:	2300      	movs	r3, #0
 8004642:	7003      	strb	r3, [r0, #0]
 8004644:	7043      	strb	r3, [r0, #1]
 8004646:	4770      	bx	lr

08004648 <_ZN3gps3varImEC1Ev>:
 8004648:	2300      	movs	r3, #0
 800464a:	6003      	str	r3, [r0, #0]
 800464c:	7103      	strb	r3, [r0, #4]
 800464e:	4770      	bx	lr

08004650 <_ZN3gps3varINS_7cmd_strEEC1Ev>:
 8004650:	b510      	push	{r4, lr}
 8004652:	2100      	movs	r1, #0
 8004654:	2204      	movs	r2, #4
 8004656:	1c04      	adds	r4, r0, #0
 8004658:	f000 fa98 	bl	8004b8c <memset>
 800465c:	2300      	movs	r3, #0
 800465e:	1c20      	adds	r0, r4, #0
 8004660:	7123      	strb	r3, [r4, #4]
 8004662:	bd10      	pop	{r4, pc}

08004664 <_ZN3gps3varINS_7cmd_strEE9get_valueEv>:
 8004664:	4770      	bx	lr

08004666 <_ZN3gps3varIaEaSERKa>:
 8004666:	780b      	ldrb	r3, [r1, #0]
 8004668:	2101      	movs	r1, #1
 800466a:	7003      	strb	r3, [r0, #0]
 800466c:	7041      	strb	r1, [r0, #1]
 800466e:	4770      	bx	lr

08004670 <_ZN3gps3varIfEaSERKf>:
 8004670:	6809      	ldr	r1, [r1, #0]
 8004672:	2301      	movs	r3, #1
 8004674:	6001      	str	r1, [r0, #0]
 8004676:	7103      	strb	r3, [r0, #4]
 8004678:	4770      	bx	lr

0800467a <_ZN3gps3varIlEaSERKl>:
 800467a:	6809      	ldr	r1, [r1, #0]
 800467c:	2301      	movs	r3, #1
 800467e:	6001      	str	r1, [r0, #0]
 8004680:	7103      	strb	r3, [r0, #4]
 8004682:	4770      	bx	lr

08004684 <_ZN3gps3varIhEaSERKh>:
 8004684:	780b      	ldrb	r3, [r1, #0]
 8004686:	2101      	movs	r1, #1
 8004688:	7003      	strb	r3, [r0, #0]
 800468a:	7041      	strb	r1, [r0, #1]
 800468c:	4770      	bx	lr
	...

08004690 <_ZN4quan5stm3211serial_portINS0_5usart6moduleILm1073821696EEELj200ELj200ENS_3mcu3pinINS0_4gpio6moduleILm1207959552EEELm9EEENS6_IS9_Lm10EEEE8in_availEv>:
 8004690:	4b0b      	ldr	r3, [pc, #44]	; (80046c0 <_ZN4quan5stm3211serial_portINS0_5usart6moduleILm1073821696EEELj200ELj200ENS_3mcu3pinINS0_4gpio6moduleILm1207959552EEELm9EEENS6_IS9_Lm10EEEE8in_availEv+0x30>)
 8004692:	2120      	movs	r1, #32
 8004694:	681a      	ldr	r2, [r3, #0]
 8004696:	438a      	bics	r2, r1
 8004698:	490a      	ldr	r1, [pc, #40]	; (80046c4 <_ZN4quan5stm3211serial_portINS0_5usart6moduleILm1073821696EEELj200ELj200ENS_3mcu3pinINS0_4gpio6moduleILm1207959552EEELm9EEENS6_IS9_Lm10EEEE8in_availEv+0x34>)
 800469a:	601a      	str	r2, [r3, #0]
 800469c:	6848      	ldr	r0, [r1, #4]
 800469e:	1c1a      	adds	r2, r3, #0
 80046a0:	2800      	cmp	r0, #0
 80046a2:	d008      	beq.n	80046b6 <_ZN4quan5stm3211serial_portINS0_5usart6moduleILm1073821696EEELj200ELj200ENS_3mcu3pinINS0_4gpio6moduleILm1207959552EEELm9EEENS6_IS9_Lm10EEEE8in_availEv+0x26>
 80046a4:	680b      	ldr	r3, [r1, #0]
 80046a6:	2b00      	cmp	r3, #0
 80046a8:	d004      	beq.n	80046b4 <_ZN4quan5stm3211serial_portINS0_5usart6moduleILm1073821696EEELj200ELj200ENS_3mcu3pinINS0_4gpio6moduleILm1207959552EEELm9EEENS6_IS9_Lm10EEEE8in_availEv+0x24>
 80046aa:	4283      	cmp	r3, r0
 80046ac:	d800      	bhi.n	80046b0 <_ZN4quan5stm3211serial_portINS0_5usart6moduleILm1073821696EEELj200ELj200ENS_3mcu3pinINS0_4gpio6moduleILm1207959552EEELm9EEENS6_IS9_Lm10EEEE8in_availEv+0x20>
 80046ae:	33c8      	adds	r3, #200	; 0xc8
 80046b0:	1a18      	subs	r0, r3, r0
 80046b2:	e000      	b.n	80046b6 <_ZN4quan5stm3211serial_portINS0_5usart6moduleILm1073821696EEELj200ELj200ENS_3mcu3pinINS0_4gpio6moduleILm1207959552EEELm9EEENS6_IS9_Lm10EEEE8in_availEv+0x26>
 80046b4:	20c8      	movs	r0, #200	; 0xc8
 80046b6:	6813      	ldr	r3, [r2, #0]
 80046b8:	2120      	movs	r1, #32
 80046ba:	430b      	orrs	r3, r1
 80046bc:	6013      	str	r3, [r2, #0]
 80046be:	4770      	bx	lr
 80046c0:	40013800 	.word	0x40013800
 80046c4:	20000894 	.word	0x20000894

080046c8 <_ZN4quan5stm3211serial_portINS0_5usart6moduleILm1073821696EEELj200ELj200ENS_3mcu3pinINS0_4gpio6moduleILm1207959552EEELm9EEENS6_IS9_Lm10EEEE3getEv>:
 80046c8:	4912      	ldr	r1, [pc, #72]	; (8004714 <_ZN4quan5stm3211serial_portINS0_5usart6moduleILm1073821696EEELj200ELj200ENS_3mcu3pinINS0_4gpio6moduleILm1207959552EEELm9EEENS6_IS9_Lm10EEEE3getEv+0x4c>)
 80046ca:	2220      	movs	r2, #32
 80046cc:	680b      	ldr	r3, [r1, #0]
 80046ce:	b510      	push	{r4, lr}
 80046d0:	4393      	bics	r3, r2
 80046d2:	600b      	str	r3, [r1, #0]
 80046d4:	4b10      	ldr	r3, [pc, #64]	; (8004718 <_ZN4quan5stm3211serial_portINS0_5usart6moduleILm1073821696EEELj200ELj200ENS_3mcu3pinINS0_4gpio6moduleILm1207959552EEELm9EEENS6_IS9_Lm10EEEE3getEv+0x50>)
 80046d6:	685a      	ldr	r2, [r3, #4]
 80046d8:	2a00      	cmp	r2, #0
 80046da:	d014      	beq.n	8004706 <_ZN4quan5stm3211serial_portINS0_5usart6moduleILm1073821696EEELj200ELj200ENS_3mcu3pinINS0_4gpio6moduleILm1207959552EEELm9EEENS6_IS9_Lm10EEEE3getEv+0x3e>
 80046dc:	681c      	ldr	r4, [r3, #0]
 80046de:	7810      	ldrb	r0, [r2, #0]
 80046e0:	2c00      	cmp	r4, #0
 80046e2:	d100      	bne.n	80046e6 <_ZN4quan5stm3211serial_portINS0_5usart6moduleILm1073821696EEELj200ELj200ENS_3mcu3pinINS0_4gpio6moduleILm1207959552EEELm9EEENS6_IS9_Lm10EEEE3getEv+0x1e>
 80046e4:	601a      	str	r2, [r3, #0]
 80046e6:	1c1c      	adds	r4, r3, #0
 80046e8:	3201      	adds	r2, #1
 80046ea:	34d0      	adds	r4, #208	; 0xd0
 80046ec:	605a      	str	r2, [r3, #4]
 80046ee:	42a2      	cmp	r2, r4
 80046f0:	d102      	bne.n	80046f8 <_ZN4quan5stm3211serial_portINS0_5usart6moduleILm1073821696EEELj200ELj200ENS_3mcu3pinINS0_4gpio6moduleILm1207959552EEELm9EEENS6_IS9_Lm10EEEE3getEv+0x30>
 80046f2:	1c1a      	adds	r2, r3, #0
 80046f4:	3208      	adds	r2, #8
 80046f6:	605a      	str	r2, [r3, #4]
 80046f8:	685a      	ldr	r2, [r3, #4]
 80046fa:	681c      	ldr	r4, [r3, #0]
 80046fc:	42a2      	cmp	r2, r4
 80046fe:	d103      	bne.n	8004708 <_ZN4quan5stm3211serial_portINS0_5usart6moduleILm1073821696EEELj200ELj200ENS_3mcu3pinINS0_4gpio6moduleILm1207959552EEELm9EEENS6_IS9_Lm10EEEE3getEv+0x40>
 8004700:	2200      	movs	r2, #0
 8004702:	605a      	str	r2, [r3, #4]
 8004704:	e000      	b.n	8004708 <_ZN4quan5stm3211serial_portINS0_5usart6moduleILm1073821696EEELj200ELj200ENS_3mcu3pinINS0_4gpio6moduleILm1207959552EEELm9EEENS6_IS9_Lm10EEEE3getEv+0x40>
 8004706:	1c10      	adds	r0, r2, #0
 8004708:	680b      	ldr	r3, [r1, #0]
 800470a:	2420      	movs	r4, #32
 800470c:	4323      	orrs	r3, r4
 800470e:	600b      	str	r3, [r1, #0]
 8004710:	bd10      	pop	{r4, pc}
 8004712:	46c0      	nop			; (mov r8, r8)
 8004714:	40013800 	.word	0x40013800
 8004718:	20000894 	.word	0x20000894

0800471c <_ZN3gps3varImEaSERKm>:
 800471c:	6809      	ldr	r1, [r1, #0]
 800471e:	2301      	movs	r3, #1
 8004720:	6001      	str	r1, [r0, #0]
 8004722:	7103      	strb	r3, [r0, #4]
 8004724:	4770      	bx	lr

08004726 <_ZN3gps3varIlE9get_valueEv>:
 8004726:	4770      	bx	lr

08004728 <_ZN3gps3varINS_9mode_2D3DEEaSERKS1_>:
 8004728:	780b      	ldrb	r3, [r1, #0]
 800472a:	2101      	movs	r1, #1
 800472c:	7003      	strb	r3, [r0, #0]
 800472e:	7041      	strb	r1, [r0, #1]
 8004730:	4770      	bx	lr

08004732 <_ZN3gps3varINS_8fix_modeEEaSERKS1_>:
 8004732:	780b      	ldrb	r3, [r1, #0]
 8004734:	2101      	movs	r1, #1
 8004736:	7003      	strb	r3, [r0, #0]
 8004738:	7041      	strb	r1, [r0, #1]
 800473a:	4770      	bx	lr

0800473c <_ZN3gps3varIfE9get_valueEv>:
 800473c:	4770      	bx	lr

0800473e <_ZN3gps3varINS_8fix_typeEEaSERKS1_>:
 800473e:	780b      	ldrb	r3, [r1, #0]
 8004740:	2101      	movs	r1, #1
 8004742:	7003      	strb	r3, [r0, #0]
 8004744:	7041      	strb	r1, [r0, #1]
 8004746:	4770      	bx	lr

08004748 <_ZNK3gps3varImE9get_valueEv>:
 8004748:	4770      	bx	lr

0800474a <_ZN3gps3varImE9get_valueEv>:
 800474a:	4770      	bx	lr

0800474c <_ZN3gps3varImE7changedEv>:
 800474c:	7900      	ldrb	r0, [r0, #4]
 800474e:	4770      	bx	lr

08004750 <_ZN3gps3varImE12clear_changeEv>:
 8004750:	2300      	movs	r3, #0
 8004752:	7103      	strb	r3, [r0, #4]
 8004754:	4770      	bx	lr

08004756 <_ZN3gps3varIlEC1Ev>:
 8004756:	2300      	movs	r3, #0
 8004758:	6003      	str	r3, [r0, #0]
 800475a:	7103      	strb	r3, [r0, #4]
 800475c:	4770      	bx	lr

0800475e <_ZNK3gps3varIlE9get_valueEv>:
 800475e:	4770      	bx	lr

08004760 <_ZN3gps3varIlE7changedEv>:
 8004760:	7900      	ldrb	r0, [r0, #4]
 8004762:	4770      	bx	lr

08004764 <_ZN3gps3varIlE12clear_changeEv>:
 8004764:	2300      	movs	r3, #0
 8004766:	7103      	strb	r3, [r0, #4]
 8004768:	4770      	bx	lr

0800476a <_ZN3gps3varINS_8fix_typeEEC1Ev>:
 800476a:	2300      	movs	r3, #0
 800476c:	7003      	strb	r3, [r0, #0]
 800476e:	7043      	strb	r3, [r0, #1]
 8004770:	4770      	bx	lr

08004772 <_ZNK3gps3varINS_8fix_typeEE9get_valueEv>:
 8004772:	4770      	bx	lr

08004774 <_ZN3gps3varINS_8fix_typeEE9get_valueEv>:
 8004774:	4770      	bx	lr

08004776 <_ZN3gps3varINS_8fix_typeEE7changedEv>:
 8004776:	7840      	ldrb	r0, [r0, #1]
 8004778:	4770      	bx	lr

0800477a <_ZN3gps3varINS_8fix_typeEE12clear_changeEv>:
 800477a:	2300      	movs	r3, #0
 800477c:	7043      	strb	r3, [r0, #1]
 800477e:	4770      	bx	lr

08004780 <_ZN3gps3varINS_8fix_modeEEC1Ev>:
 8004780:	2300      	movs	r3, #0
 8004782:	7003      	strb	r3, [r0, #0]
 8004784:	7043      	strb	r3, [r0, #1]
 8004786:	4770      	bx	lr

08004788 <_ZNK3gps3varINS_8fix_modeEE9get_valueEv>:
 8004788:	4770      	bx	lr

0800478a <_ZN3gps3varINS_8fix_modeEE9get_valueEv>:
 800478a:	4770      	bx	lr

0800478c <_ZN3gps3varINS_8fix_modeEE7changedEv>:
 800478c:	7840      	ldrb	r0, [r0, #1]
 800478e:	4770      	bx	lr

08004790 <_ZN3gps3varINS_8fix_modeEE12clear_changeEv>:
 8004790:	2300      	movs	r3, #0
 8004792:	7043      	strb	r3, [r0, #1]
 8004794:	4770      	bx	lr

08004796 <_ZN3gps3varINS_9mode_2D3DEEC1Ev>:
 8004796:	2300      	movs	r3, #0
 8004798:	7003      	strb	r3, [r0, #0]
 800479a:	7043      	strb	r3, [r0, #1]
 800479c:	4770      	bx	lr

0800479e <_ZNK3gps3varINS_9mode_2D3DEE9get_valueEv>:
 800479e:	4770      	bx	lr

080047a0 <_ZN3gps3varINS_9mode_2D3DEE9get_valueEv>:
 80047a0:	4770      	bx	lr

080047a2 <_ZN3gps3varINS_9mode_2D3DEE7changedEv>:
 80047a2:	7840      	ldrb	r0, [r0, #1]
 80047a4:	4770      	bx	lr

080047a6 <_ZN3gps3varINS_9mode_2D3DEE12clear_changeEv>:
 80047a6:	2300      	movs	r3, #0
 80047a8:	7043      	strb	r3, [r0, #1]
 80047aa:	4770      	bx	lr

080047ac <_ZN3gps3varINS_8vtg_modeEEC1ERKS1_>:
 80047ac:	780b      	ldrb	r3, [r1, #0]
 80047ae:	2100      	movs	r1, #0
 80047b0:	7003      	strb	r3, [r0, #0]
 80047b2:	7041      	strb	r1, [r0, #1]
 80047b4:	4770      	bx	lr

080047b6 <_ZN3gps3varINS_8vtg_modeEEaSERKS1_>:
 80047b6:	780b      	ldrb	r3, [r1, #0]
 80047b8:	2101      	movs	r1, #1
 80047ba:	7003      	strb	r3, [r0, #0]
 80047bc:	7041      	strb	r1, [r0, #1]
 80047be:	4770      	bx	lr

080047c0 <_ZNK3gps3varINS_8vtg_modeEE9get_valueEv>:
 80047c0:	4770      	bx	lr

080047c2 <_ZN3gps3varINS_8vtg_modeEE9get_valueEv>:
 80047c2:	4770      	bx	lr

080047c4 <_ZN3gps3varINS_8vtg_modeEE7changedEv>:
 80047c4:	7840      	ldrb	r0, [r0, #1]
 80047c6:	4770      	bx	lr

080047c8 <_ZN3gps3varINS_8vtg_modeEE12clear_changeEv>:
 80047c8:	2300      	movs	r3, #0
 80047ca:	7043      	strb	r3, [r0, #1]
 80047cc:	4770      	bx	lr

080047ce <_ZN3gps3varIhEC1Ev>:
 80047ce:	2300      	movs	r3, #0
 80047d0:	7003      	strb	r3, [r0, #0]
 80047d2:	7043      	strb	r3, [r0, #1]
 80047d4:	4770      	bx	lr

080047d6 <_ZNK3gps3varIhE9get_valueEv>:
 80047d6:	4770      	bx	lr

080047d8 <_ZN3gps3varIhE9get_valueEv>:
 80047d8:	4770      	bx	lr

080047da <_ZN3gps3varIhE7changedEv>:
 80047da:	7840      	ldrb	r0, [r0, #1]
 80047dc:	4770      	bx	lr

080047de <_ZN3gps3varIhE12clear_changeEv>:
 80047de:	2300      	movs	r3, #0
 80047e0:	7043      	strb	r3, [r0, #1]
 80047e2:	4770      	bx	lr

080047e4 <_ZN3gps3varIaEC1ERKa>:
 80047e4:	780b      	ldrb	r3, [r1, #0]
 80047e6:	2100      	movs	r1, #0
 80047e8:	7003      	strb	r3, [r0, #0]
 80047ea:	7041      	strb	r1, [r0, #1]
 80047ec:	4770      	bx	lr

080047ee <_ZNK3gps3varIaE9get_valueEv>:
 80047ee:	4770      	bx	lr

080047f0 <_ZN3gps3varIaE9get_valueEv>:
 80047f0:	4770      	bx	lr

080047f2 <_ZN3gps3varIaE7changedEv>:
 80047f2:	7840      	ldrb	r0, [r0, #1]
 80047f4:	4770      	bx	lr

080047f6 <_ZN3gps3varIaE12clear_changeEv>:
 80047f6:	2300      	movs	r3, #0
 80047f8:	7043      	strb	r3, [r0, #1]
 80047fa:	4770      	bx	lr

080047fc <_ZNK3gps3varIfE9get_valueEv>:
 80047fc:	4770      	bx	lr

080047fe <_ZN3gps3varIfE7changedEv>:
 80047fe:	7900      	ldrb	r0, [r0, #4]
 8004800:	4770      	bx	lr

08004802 <_ZN3gps3varIfE12clear_changeEv>:
 8004802:	2300      	movs	r3, #0
 8004804:	7103      	strb	r3, [r0, #4]
 8004806:	4770      	bx	lr

08004808 <_ZN3gps3varINS_7cmd_strEEC1ERKS1_>:
 8004808:	b510      	push	{r4, lr}
 800480a:	2204      	movs	r2, #4
 800480c:	1c04      	adds	r4, r0, #0
 800480e:	f000 f91b 	bl	8004a48 <memcpy>
 8004812:	2300      	movs	r3, #0
 8004814:	1c20      	adds	r0, r4, #0
 8004816:	7123      	strb	r3, [r4, #4]
 8004818:	bd10      	pop	{r4, pc}

0800481a <_ZN3gps3varINS_7cmd_strEEaSERKS1_>:
 800481a:	b510      	push	{r4, lr}
 800481c:	2204      	movs	r2, #4
 800481e:	1c04      	adds	r4, r0, #0
 8004820:	f000 f912 	bl	8004a48 <memcpy>
 8004824:	2301      	movs	r3, #1
 8004826:	1c20      	adds	r0, r4, #0
 8004828:	7123      	strb	r3, [r4, #4]
 800482a:	bd10      	pop	{r4, pc}

0800482c <_ZNK3gps3varINS_7cmd_strEE9get_valueEv>:
 800482c:	4770      	bx	lr

0800482e <_ZN3gps3varINS_7cmd_strEE7changedEv>:
 800482e:	7900      	ldrb	r0, [r0, #4]
 8004830:	4770      	bx	lr

08004832 <_ZN3gps3varINS_7cmd_strEE12clear_changeEv>:
 8004832:	2300      	movs	r3, #0
 8004834:	7103      	strb	r3, [r0, #4]
 8004836:	4770      	bx	lr

08004838 <_GLOBAL__sub_I__ZN3gps8GGA_cmdsE>:
 8004838:	4b18      	ldr	r3, [pc, #96]	; (800489c <_GLOBAL__sub_I__ZN3gps8GGA_cmdsE+0x64>)
 800483a:	4a19      	ldr	r2, [pc, #100]	; (80048a0 <_GLOBAL__sub_I__ZN3gps8GGA_cmdsE+0x68>)
 800483c:	4819      	ldr	r0, [pc, #100]	; (80048a4 <_GLOBAL__sub_I__ZN3gps8GGA_cmdsE+0x6c>)
 800483e:	601a      	str	r2, [r3, #0]
 8004840:	4a19      	ldr	r2, [pc, #100]	; (80048a8 <_GLOBAL__sub_I__ZN3gps8GGA_cmdsE+0x70>)
 8004842:	6058      	str	r0, [r3, #4]
 8004844:	210e      	movs	r1, #14
 8004846:	60da      	str	r2, [r3, #12]
 8004848:	3070      	adds	r0, #112	; 0x70
 800484a:	4a18      	ldr	r2, [pc, #96]	; (80048ac <_GLOBAL__sub_I__ZN3gps8GGA_cmdsE+0x74>)
 800484c:	7219      	strb	r1, [r3, #8]
 800484e:	6118      	str	r0, [r3, #16]
 8004850:	4917      	ldr	r1, [pc, #92]	; (80048b0 <_GLOBAL__sub_I__ZN3gps8GGA_cmdsE+0x78>)
 8004852:	2011      	movs	r0, #17
 8004854:	7518      	strb	r0, [r3, #20]
 8004856:	3278      	adds	r2, #120	; 0x78
 8004858:	1c18      	adds	r0, r3, #0
 800485a:	6259      	str	r1, [r3, #36]	; 0x24
 800485c:	629a      	str	r2, [r3, #40]	; 0x28
 800485e:	302c      	adds	r0, #44	; 0x2c
 8004860:	2109      	movs	r1, #9
 8004862:	4a14      	ldr	r2, [pc, #80]	; (80048b4 <_GLOBAL__sub_I__ZN3gps8GGA_cmdsE+0x7c>)
 8004864:	7001      	strb	r1, [r0, #0]
 8004866:	4814      	ldr	r0, [pc, #80]	; (80048b8 <_GLOBAL__sub_I__ZN3gps8GGA_cmdsE+0x80>)
 8004868:	619a      	str	r2, [r3, #24]
 800486a:	210c      	movs	r1, #12
 800486c:	1c5a      	adds	r2, r3, #1
 800486e:	3040      	adds	r0, #64	; 0x40
 8004870:	77d1      	strb	r1, [r2, #31]
 8004872:	4a12      	ldr	r2, [pc, #72]	; (80048bc <_GLOBAL__sub_I__ZN3gps8GGA_cmdsE+0x84>)
 8004874:	61d8      	str	r0, [r3, #28]
 8004876:	4812      	ldr	r0, [pc, #72]	; (80048c0 <_GLOBAL__sub_I__ZN3gps8GGA_cmdsE+0x88>)
 8004878:	3220      	adds	r2, #32
 800487a:	6318      	str	r0, [r3, #48]	; 0x30
 800487c:	635a      	str	r2, [r3, #52]	; 0x34
 800487e:	2102      	movs	r1, #2
 8004880:	3338      	adds	r3, #56	; 0x38
 8004882:	7019      	strb	r1, [r3, #0]
 8004884:	4b0f      	ldr	r3, [pc, #60]	; (80048c4 <_GLOBAL__sub_I__ZN3gps8GGA_cmdsE+0x8c>)
 8004886:	2001      	movs	r0, #1
 8004888:	681a      	ldr	r2, [r3, #0]
 800488a:	4002      	ands	r2, r0
 800488c:	d104      	bne.n	8004898 <_GLOBAL__sub_I__ZN3gps8GGA_cmdsE+0x60>
 800488e:	6018      	str	r0, [r3, #0]
 8004890:	4b0d      	ldr	r3, [pc, #52]	; (80048c8 <_GLOBAL__sub_I__ZN3gps8GGA_cmdsE+0x90>)
 8004892:	1c19      	adds	r1, r3, #0
 8004894:	3108      	adds	r1, #8
 8004896:	c306      	stmia	r3!, {r1, r2}
 8004898:	4770      	bx	lr
 800489a:	46c0      	nop			; (mov r8, r8)
 800489c:	200006ac 	.word	0x200006ac
 80048a0:	080052d6 	.word	0x080052d6
 80048a4:	08005024 	.word	0x08005024
 80048a8:	080052dc 	.word	0x080052dc
 80048ac:	080050a4 	.word	0x080050a4
 80048b0:	080052e8 	.word	0x080052e8
 80048b4:	080052e2 	.word	0x080052e2
 80048b8:	08005124 	.word	0x08005124
 80048bc:	080051a4 	.word	0x080051a4
 80048c0:	080052f4 	.word	0x080052f4
 80048c4:	20000b08 	.word	0x20000b08
 80048c8:	20000894 	.word	0x20000894

080048cc <_GLOBAL__sub_I_new_gps_data>:
 80048cc:	b508      	push	{r3, lr}
 80048ce:	4804      	ldr	r0, [pc, #16]	; (80048e0 <_GLOBAL__sub_I_new_gps_data+0x14>)
 80048d0:	2300      	movs	r3, #0
 80048d2:	7003      	strb	r3, [r0, #0]
 80048d4:	4903      	ldr	r1, [pc, #12]	; (80048e4 <_GLOBAL__sub_I_new_gps_data+0x18>)
 80048d6:	3004      	adds	r0, #4
 80048d8:	f7fc fb1d 	bl	8000f16 <_ZN3gpsC1EPFvRS_E>
 80048dc:	bd08      	pop	{r3, pc}
 80048de:	46c0      	nop			; (mov r8, r8)
 80048e0:	200006e8 	.word	0x200006e8
 80048e4:	08001839 	.word	0x08001839

080048e8 <_ZNK4quan4meta4impl27for_each_type_sequence_implINS0_13type_sequenceIINS_5stm3210periph_regINS4_4gpio6moduleILm1207961600EEELm8EmEENS5_IS8_Lm12EmEENS5_IS8_Lm16EmEENS5_IS8_Lm20EmEENS5_IS8_Lm24EmEENS5_IS8_Lm28EmEENS5_IS8_Lm32EmEENS5_IS8_Lm36EmEEEEENS4_6detail24apply_periph_reg_actionsIS8_NS3_IINSI_17periph_reg_actionINS5_IS8_Lm0EmEENS0_6bit_orELm65536EEENSK_ISL_NS0_7bit_andELm4294836223EEENSK_INS5_IS8_Lm4EmEESM_Lm0EEENSK_ISQ_SO_Lm4294967039EEENSK_ISA_SM_Lm0EEENSK_ISA_SO_Lm4294770687EEENSK_IS9_SM_Lm0EEENSK_IS9_SO_Lm4294770687EEENSK_ISC_SM_Lm256EEEEEEEELb1EvEclEv>:
 80048e8:	4b06      	ldr	r3, [pc, #24]	; (8004904 <_ZNK4quan4meta4impl27for_each_type_sequence_implINS0_13type_sequenceIINS_5stm3210periph_regINS4_4gpio6moduleILm1207961600EEELm8EmEENS5_IS8_Lm12EmEENS5_IS8_Lm16EmEENS5_IS8_Lm20EmEENS5_IS8_Lm24EmEENS5_IS8_Lm28EmEENS5_IS8_Lm32EmEENS5_IS8_Lm36EmEEEEENS4_6detail24apply_periph_reg_actionsIS8_NS3_IINSI_17periph_reg_actionINS5_IS8_Lm0EmEENS0_6bit_orELm65536EEENSK_ISL_NS0_7bit_andELm4294836223EEENSK_INS5_IS8_Lm4EmEESM_Lm0EEENSK_ISQ_SO_Lm4294967039EEENSK_ISA_SM_Lm0EEENSK_ISA_SO_Lm4294770687EEENSK_IS9_SM_Lm0EEENSK_IS9_SO_Lm4294770687EEENSK_ISC_SM_Lm256EEEEEEEELb1EvEclEv+0x1c>)
 80048ea:	4a07      	ldr	r2, [pc, #28]	; (8004908 <_ZNK4quan4meta4impl27for_each_type_sequence_implINS0_13type_sequenceIINS_5stm3210periph_regINS4_4gpio6moduleILm1207961600EEELm8EmEENS5_IS8_Lm12EmEENS5_IS8_Lm16EmEENS5_IS8_Lm20EmEENS5_IS8_Lm24EmEENS5_IS8_Lm28EmEENS5_IS8_Lm32EmEENS5_IS8_Lm36EmEEEEENS4_6detail24apply_periph_reg_actionsIS8_NS3_IINSI_17periph_reg_actionINS5_IS8_Lm0EmEENS0_6bit_orELm65536EEENSK_ISL_NS0_7bit_andELm4294836223EEENSK_INS5_IS8_Lm4EmEESM_Lm0EEENSK_ISQ_SO_Lm4294967039EEENSK_ISA_SM_Lm0EEENSK_ISA_SO_Lm4294770687EEENSK_IS9_SM_Lm0EEENSK_IS9_SO_Lm4294770687EEENSK_ISC_SM_Lm256EEEEEEEELb1EvEclEv+0x20>)
 80048ec:	6899      	ldr	r1, [r3, #8]
 80048ee:	4011      	ands	r1, r2
 80048f0:	6099      	str	r1, [r3, #8]
 80048f2:	68d8      	ldr	r0, [r3, #12]
 80048f4:	4002      	ands	r2, r0
 80048f6:	60da      	str	r2, [r3, #12]
 80048f8:	6959      	ldr	r1, [r3, #20]
 80048fa:	2280      	movs	r2, #128	; 0x80
 80048fc:	0050      	lsls	r0, r2, #1
 80048fe:	4308      	orrs	r0, r1
 8004900:	6158      	str	r0, [r3, #20]
 8004902:	4770      	bx	lr
 8004904:	48000800 	.word	0x48000800
 8004908:	fffcffff 	.word	0xfffcffff

0800490c <_GLOBAL__sub_I__Z17on_heartbeat_donev>:
 800490c:	4b05      	ldr	r3, [pc, #20]	; (8004924 <_GLOBAL__sub_I__Z17on_heartbeat_donev+0x18>)
 800490e:	2200      	movs	r2, #0
 8004910:	4805      	ldr	r0, [pc, #20]	; (8004928 <_GLOBAL__sub_I__Z17on_heartbeat_donev+0x1c>)
 8004912:	605a      	str	r2, [r3, #4]
 8004914:	210a      	movs	r1, #10
 8004916:	741a      	strb	r2, [r3, #16]
 8004918:	2201      	movs	r2, #1
 800491a:	6099      	str	r1, [r3, #8]
 800491c:	60d8      	str	r0, [r3, #12]
 800491e:	745a      	strb	r2, [r3, #17]
 8004920:	4770      	bx	lr
 8004922:	46c0      	nop			; (mov r8, r8)
 8004924:	200007b0 	.word	0x200007b0
 8004928:	08001941 	.word	0x08001941

0800492c <Reset_Handler>:
 800492c:	480e      	ldr	r0, [pc, #56]	; (8004968 <LoopForever+0x2>)
 800492e:	4685      	mov	sp, r0
 8004930:	2100      	movs	r1, #0
 8004932:	e003      	b.n	800493c <LoopCopyDataInit>

08004934 <CopyDataInit>:
 8004934:	4b0d      	ldr	r3, [pc, #52]	; (800496c <LoopForever+0x6>)
 8004936:	585b      	ldr	r3, [r3, r1]
 8004938:	5043      	str	r3, [r0, r1]
 800493a:	3104      	adds	r1, #4

0800493c <LoopCopyDataInit>:
 800493c:	480c      	ldr	r0, [pc, #48]	; (8004970 <LoopForever+0xa>)
 800493e:	4b0d      	ldr	r3, [pc, #52]	; (8004974 <LoopForever+0xe>)
 8004940:	1842      	adds	r2, r0, r1
 8004942:	429a      	cmp	r2, r3
 8004944:	d3f6      	bcc.n	8004934 <CopyDataInit>
 8004946:	4a0c      	ldr	r2, [pc, #48]	; (8004978 <LoopForever+0x12>)
 8004948:	e002      	b.n	8004950 <LoopFillZerobss>

0800494a <FillZerobss>:
 800494a:	2300      	movs	r3, #0
 800494c:	6013      	str	r3, [r2, #0]
 800494e:	3204      	adds	r2, #4

08004950 <LoopFillZerobss>:
 8004950:	4b0a      	ldr	r3, [pc, #40]	; (800497c <LoopForever+0x16>)
 8004952:	429a      	cmp	r2, r3
 8004954:	d3f9      	bcc.n	800494a <FillZerobss>
 8004956:	f7fb fc21 	bl	800019c <SystemInit>
 800495a:	f000 f819 	bl	8004990 <__libc_init_array>
 800495e:	f7fb fbff 	bl	8000160 <setup>
 8004962:	f7ff fa0f 	bl	8003d84 <main>

08004966 <LoopForever>:
 8004966:	e7fe      	b.n	8004966 <LoopForever>
 8004968:	20002000 	.word	0x20002000
 800496c:	08005440 	.word	0x08005440
 8004970:	20000000 	.word	0x20000000
 8004974:	20000460 	.word	0x20000460
 8004978:	20000460 	.word	0x20000460
 800497c:	20000b14 	.word	0x20000b14

08004980 <ADC1_COMP_IRQHandler>:
 8004980:	e7fe      	b.n	8004980 <ADC1_COMP_IRQHandler>
	...

08004984 <__errno>:
 8004984:	4b01      	ldr	r3, [pc, #4]	; (800498c <__errno+0x8>)
 8004986:	6818      	ldr	r0, [r3, #0]
 8004988:	4770      	bx	lr
 800498a:	46c0      	nop			; (mov r8, r8)
 800498c:	20000458 	.word	0x20000458

08004990 <__libc_init_array>:
 8004990:	b5f8      	push	{r3, r4, r5, r6, r7, lr}
 8004992:	4f1f      	ldr	r7, [pc, #124]	; (8004a10 <__libc_init_array+0x80>)
 8004994:	4c1f      	ldr	r4, [pc, #124]	; (8004a14 <__libc_init_array+0x84>)
 8004996:	1b38      	subs	r0, r7, r4
 8004998:	1087      	asrs	r7, r0, #2
 800499a:	d018      	beq.n	80049ce <__libc_init_array+0x3e>
 800499c:	2201      	movs	r2, #1
 800499e:	1e7b      	subs	r3, r7, #1
 80049a0:	1c15      	adds	r5, r2, #0
 80049a2:	cc02      	ldmia	r4!, {r1}
 80049a4:	2601      	movs	r6, #1
 80049a6:	401d      	ands	r5, r3
 80049a8:	4788      	blx	r1
 80049aa:	42b7      	cmp	r7, r6
 80049ac:	d00f      	beq.n	80049ce <__libc_init_array+0x3e>
 80049ae:	2d00      	cmp	r5, #0
 80049b0:	d004      	beq.n	80049bc <__libc_init_array+0x2c>
 80049b2:	cc40      	ldmia	r4!, {r6}
 80049b4:	47b0      	blx	r6
 80049b6:	2602      	movs	r6, #2
 80049b8:	42b7      	cmp	r7, r6
 80049ba:	d008      	beq.n	80049ce <__libc_init_array+0x3e>
 80049bc:	1c25      	adds	r5, r4, #0
 80049be:	cd01      	ldmia	r5!, {r0}
 80049c0:	4780      	blx	r0
 80049c2:	3602      	adds	r6, #2
 80049c4:	6863      	ldr	r3, [r4, #4]
 80049c6:	4798      	blx	r3
 80049c8:	1d2c      	adds	r4, r5, #4
 80049ca:	42b7      	cmp	r7, r6
 80049cc:	d1f6      	bne.n	80049bc <__libc_init_array+0x2c>
 80049ce:	f000 fd19 	bl	8005404 <_init>
 80049d2:	4f11      	ldr	r7, [pc, #68]	; (8004a18 <__libc_init_array+0x88>)
 80049d4:	4c11      	ldr	r4, [pc, #68]	; (8004a1c <__libc_init_array+0x8c>)
 80049d6:	1b3a      	subs	r2, r7, r4
 80049d8:	1097      	asrs	r7, r2, #2
 80049da:	d018      	beq.n	8004a0e <__libc_init_array+0x7e>
 80049dc:	2601      	movs	r6, #1
 80049de:	1e79      	subs	r1, r7, #1
 80049e0:	1c35      	adds	r5, r6, #0
 80049e2:	cc01      	ldmia	r4!, {r0}
 80049e4:	2601      	movs	r6, #1
 80049e6:	400d      	ands	r5, r1
 80049e8:	4780      	blx	r0
 80049ea:	42b7      	cmp	r7, r6
 80049ec:	d00f      	beq.n	8004a0e <__libc_init_array+0x7e>
 80049ee:	2d00      	cmp	r5, #0
 80049f0:	d004      	beq.n	80049fc <__libc_init_array+0x6c>
 80049f2:	cc08      	ldmia	r4!, {r3}
 80049f4:	2602      	movs	r6, #2
 80049f6:	4798      	blx	r3
 80049f8:	42b7      	cmp	r7, r6
 80049fa:	d008      	beq.n	8004a0e <__libc_init_array+0x7e>
 80049fc:	1c25      	adds	r5, r4, #0
 80049fe:	cd04      	ldmia	r5!, {r2}
 8004a00:	4790      	blx	r2
 8004a02:	3602      	adds	r6, #2
 8004a04:	6861      	ldr	r1, [r4, #4]
 8004a06:	4788      	blx	r1
 8004a08:	1d2c      	adds	r4, r5, #4
 8004a0a:	42b7      	cmp	r7, r6
 8004a0c:	d1f6      	bne.n	80049fc <__libc_init_array+0x6c>
 8004a0e:	bdf8      	pop	{r3, r4, r5, r6, r7, pc}
 8004a10:	0800541c 	.word	0x0800541c
 8004a14:	0800541c 	.word	0x0800541c
 8004a18:	08005440 	.word	0x08005440
 8004a1c:	0800541c 	.word	0x0800541c

08004a20 <isalnum>:
 8004a20:	4b03      	ldr	r3, [pc, #12]	; (8004a30 <isalnum+0x10>)
 8004a22:	6819      	ldr	r1, [r3, #0]
 8004a24:	1808      	adds	r0, r1, r0
 8004a26:	7842      	ldrb	r2, [r0, #1]
 8004a28:	2007      	movs	r0, #7
 8004a2a:	4010      	ands	r0, r2
 8004a2c:	4770      	bx	lr
 8004a2e:	46c0      	nop			; (mov r8, r8)
 8004a30:	2000045c 	.word	0x2000045c

08004a34 <isxdigit>:
 8004a34:	4b03      	ldr	r3, [pc, #12]	; (8004a44 <isxdigit+0x10>)
 8004a36:	6819      	ldr	r1, [r3, #0]
 8004a38:	1808      	adds	r0, r1, r0
 8004a3a:	7842      	ldrb	r2, [r0, #1]
 8004a3c:	2044      	movs	r0, #68	; 0x44
 8004a3e:	4010      	ands	r0, r2
 8004a40:	4770      	bx	lr
 8004a42:	46c0      	nop			; (mov r8, r8)
 8004a44:	2000045c 	.word	0x2000045c

08004a48 <memcpy>:
 8004a48:	b5f0      	push	{r4, r5, r6, r7, lr}
 8004a4a:	464f      	mov	r7, r9
 8004a4c:	4646      	mov	r6, r8
 8004a4e:	b4c0      	push	{r6, r7}
 8004a50:	2a0f      	cmp	r2, #15
 8004a52:	d972      	bls.n	8004b3a <memcpy+0xf2>
 8004a54:	1c0b      	adds	r3, r1, #0
 8004a56:	4303      	orrs	r3, r0
 8004a58:	079c      	lsls	r4, r3, #30
 8004a5a:	d000      	beq.n	8004a5e <memcpy+0x16>
 8004a5c:	e090      	b.n	8004b80 <memcpy+0x138>
 8004a5e:	1c17      	adds	r7, r2, #0
 8004a60:	3f10      	subs	r7, #16
 8004a62:	093c      	lsrs	r4, r7, #4
 8004a64:	3401      	adds	r4, #1
 8004a66:	0127      	lsls	r7, r4, #4
 8004a68:	680c      	ldr	r4, [r1, #0]
 8004a6a:	1c3b      	adds	r3, r7, #0
 8004a6c:	6004      	str	r4, [r0, #0]
 8004a6e:	3b10      	subs	r3, #16
 8004a70:	06de      	lsls	r6, r3, #27
 8004a72:	684b      	ldr	r3, [r1, #4]
 8004a74:	19cd      	adds	r5, r1, r7
 8004a76:	6043      	str	r3, [r0, #4]
 8004a78:	688c      	ldr	r4, [r1, #8]
 8004a7a:	0ff6      	lsrs	r6, r6, #31
 8004a7c:	6084      	str	r4, [r0, #8]
 8004a7e:	68cb      	ldr	r3, [r1, #12]
 8004a80:	1c04      	adds	r4, r0, #0
 8004a82:	60c3      	str	r3, [r0, #12]
 8004a84:	1c0b      	adds	r3, r1, #0
 8004a86:	3310      	adds	r3, #16
 8004a88:	3410      	adds	r4, #16
 8004a8a:	429d      	cmp	r5, r3
 8004a8c:	d027      	beq.n	8004ade <memcpy+0x96>
 8004a8e:	2e00      	cmp	r6, #0
 8004a90:	d00b      	beq.n	8004aaa <memcpy+0x62>
 8004a92:	6819      	ldr	r1, [r3, #0]
 8004a94:	6021      	str	r1, [r4, #0]
 8004a96:	685e      	ldr	r6, [r3, #4]
 8004a98:	6066      	str	r6, [r4, #4]
 8004a9a:	6899      	ldr	r1, [r3, #8]
 8004a9c:	60a1      	str	r1, [r4, #8]
 8004a9e:	68de      	ldr	r6, [r3, #12]
 8004aa0:	3310      	adds	r3, #16
 8004aa2:	60e6      	str	r6, [r4, #12]
 8004aa4:	3410      	adds	r4, #16
 8004aa6:	429d      	cmp	r5, r3
 8004aa8:	d019      	beq.n	8004ade <memcpy+0x96>
 8004aaa:	6819      	ldr	r1, [r3, #0]
 8004aac:	6021      	str	r1, [r4, #0]
 8004aae:	685e      	ldr	r6, [r3, #4]
 8004ab0:	6066      	str	r6, [r4, #4]
 8004ab2:	6899      	ldr	r1, [r3, #8]
 8004ab4:	60a1      	str	r1, [r4, #8]
 8004ab6:	68de      	ldr	r6, [r3, #12]
 8004ab8:	1c19      	adds	r1, r3, #0
 8004aba:	60e6      	str	r6, [r4, #12]
 8004abc:	691b      	ldr	r3, [r3, #16]
 8004abe:	1c26      	adds	r6, r4, #0
 8004ac0:	6123      	str	r3, [r4, #16]
 8004ac2:	694c      	ldr	r4, [r1, #20]
 8004ac4:	6174      	str	r4, [r6, #20]
 8004ac6:	698b      	ldr	r3, [r1, #24]
 8004ac8:	61b3      	str	r3, [r6, #24]
 8004aca:	69cc      	ldr	r4, [r1, #28]
 8004acc:	3110      	adds	r1, #16
 8004ace:	61f4      	str	r4, [r6, #28]
 8004ad0:	1c0b      	adds	r3, r1, #0
 8004ad2:	3610      	adds	r6, #16
 8004ad4:	1c34      	adds	r4, r6, #0
 8004ad6:	3310      	adds	r3, #16
 8004ad8:	3410      	adds	r4, #16
 8004ada:	429d      	cmp	r5, r3
 8004adc:	d1e5      	bne.n	8004aaa <memcpy+0x62>
 8004ade:	183f      	adds	r7, r7, r0
 8004ae0:	210f      	movs	r1, #15
 8004ae2:	46b8      	mov	r8, r7
 8004ae4:	4011      	ands	r1, r2
 8004ae6:	2903      	cmp	r1, #3
 8004ae8:	d94d      	bls.n	8004b86 <memcpy+0x13e>
 8004aea:	3904      	subs	r1, #4
 8004aec:	088e      	lsrs	r6, r1, #2
 8004aee:	00b3      	lsls	r3, r6, #2
 8004af0:	3304      	adds	r3, #4
 8004af2:	18ec      	adds	r4, r5, r3
 8004af4:	46a4      	mov	ip, r4
 8004af6:	3b04      	subs	r3, #4
 8004af8:	1c2c      	adds	r4, r5, #0
 8004afa:	075f      	lsls	r7, r3, #29
 8004afc:	cc08      	ldmia	r4!, {r3}
 8004afe:	4641      	mov	r1, r8
 8004b00:	46b1      	mov	r9, r6
 8004b02:	c108      	stmia	r1!, {r3}
 8004b04:	0ffe      	lsrs	r6, r7, #31
 8004b06:	4564      	cmp	r4, ip
 8004b08:	d00f      	beq.n	8004b2a <memcpy+0xe2>
 8004b0a:	2e00      	cmp	r6, #0
 8004b0c:	d003      	beq.n	8004b16 <memcpy+0xce>
 8004b0e:	cc80      	ldmia	r4!, {r7}
 8004b10:	c180      	stmia	r1!, {r7}
 8004b12:	4564      	cmp	r4, ip
 8004b14:	d009      	beq.n	8004b2a <memcpy+0xe2>
 8004b16:	1c27      	adds	r7, r4, #0
 8004b18:	cf08      	ldmia	r7!, {r3}
 8004b1a:	1c0e      	adds	r6, r1, #0
 8004b1c:	c608      	stmia	r6!, {r3}
 8004b1e:	6864      	ldr	r4, [r4, #4]
 8004b20:	604c      	str	r4, [r1, #4]
 8004b22:	1d3c      	adds	r4, r7, #4
 8004b24:	1d31      	adds	r1, r6, #4
 8004b26:	4564      	cmp	r4, ip
 8004b28:	d1f5      	bne.n	8004b16 <memcpy+0xce>
 8004b2a:	4649      	mov	r1, r9
 8004b2c:	3101      	adds	r1, #1
 8004b2e:	008e      	lsls	r6, r1, #2
 8004b30:	2703      	movs	r7, #3
 8004b32:	19ad      	adds	r5, r5, r6
 8004b34:	403a      	ands	r2, r7
 8004b36:	4446      	add	r6, r8
 8004b38:	e001      	b.n	8004b3e <memcpy+0xf6>
 8004b3a:	1c0d      	adds	r5, r1, #0
 8004b3c:	1c06      	adds	r6, r0, #0
 8004b3e:	2a00      	cmp	r2, #0
 8004b40:	d01a      	beq.n	8004b78 <memcpy+0x130>
 8004b42:	782f      	ldrb	r7, [r5, #0]
 8004b44:	18b2      	adds	r2, r6, r2
 8004b46:	43f3      	mvns	r3, r6
 8004b48:	18d1      	adds	r1, r2, r3
 8004b4a:	2401      	movs	r4, #1
 8004b4c:	7037      	strb	r7, [r6, #0]
 8004b4e:	3601      	adds	r6, #1
 8004b50:	400c      	ands	r4, r1
 8004b52:	3501      	adds	r5, #1
 8004b54:	4296      	cmp	r6, r2
 8004b56:	d00f      	beq.n	8004b78 <memcpy+0x130>
 8004b58:	2c00      	cmp	r4, #0
 8004b5a:	d005      	beq.n	8004b68 <memcpy+0x120>
 8004b5c:	782b      	ldrb	r3, [r5, #0]
 8004b5e:	3501      	adds	r5, #1
 8004b60:	7033      	strb	r3, [r6, #0]
 8004b62:	3601      	adds	r6, #1
 8004b64:	4296      	cmp	r6, r2
 8004b66:	d007      	beq.n	8004b78 <memcpy+0x130>
 8004b68:	7829      	ldrb	r1, [r5, #0]
 8004b6a:	7031      	strb	r1, [r6, #0]
 8004b6c:	786c      	ldrb	r4, [r5, #1]
 8004b6e:	3502      	adds	r5, #2
 8004b70:	7074      	strb	r4, [r6, #1]
 8004b72:	3602      	adds	r6, #2
 8004b74:	4296      	cmp	r6, r2
 8004b76:	d1f7      	bne.n	8004b68 <memcpy+0x120>
 8004b78:	bc0c      	pop	{r2, r3}
 8004b7a:	4690      	mov	r8, r2
 8004b7c:	4699      	mov	r9, r3
 8004b7e:	bdf0      	pop	{r4, r5, r6, r7, pc}
 8004b80:	1c06      	adds	r6, r0, #0
 8004b82:	1c0d      	adds	r5, r1, #0
 8004b84:	e7dd      	b.n	8004b42 <memcpy+0xfa>
 8004b86:	1c3e      	adds	r6, r7, #0
 8004b88:	1c0a      	adds	r2, r1, #0
 8004b8a:	e7d8      	b.n	8004b3e <memcpy+0xf6>

08004b8c <memset>:
 8004b8c:	b5f0      	push	{r4, r5, r6, r7, lr}
 8004b8e:	0783      	lsls	r3, r0, #30
 8004b90:	d100      	bne.n	8004b94 <memset+0x8>
 8004b92:	e081      	b.n	8004c98 <memset+0x10c>
 8004b94:	1e54      	subs	r4, r2, #1
 8004b96:	2a00      	cmp	r2, #0
 8004b98:	d07d      	beq.n	8004c96 <memset+0x10a>
 8004b9a:	b2cd      	uxtb	r5, r1
 8004b9c:	1c03      	adds	r3, r0, #0
 8004b9e:	2603      	movs	r6, #3
 8004ba0:	07e7      	lsls	r7, r4, #31
 8004ba2:	d511      	bpl.n	8004bc8 <memset+0x3c>
 8004ba4:	1c43      	adds	r3, r0, #1
 8004ba6:	7005      	strb	r5, [r0, #0]
 8004ba8:	4233      	tst	r3, r6
 8004baa:	d011      	beq.n	8004bd0 <memset+0x44>
 8004bac:	701d      	strb	r5, [r3, #0]
 8004bae:	3301      	adds	r3, #1
 8004bb0:	1e94      	subs	r4, r2, #2
 8004bb2:	4233      	tst	r3, r6
 8004bb4:	d00c      	beq.n	8004bd0 <memset+0x44>
 8004bb6:	1e62      	subs	r2, r4, #1
 8004bb8:	2c00      	cmp	r4, #0
 8004bba:	d06c      	beq.n	8004c96 <memset+0x10a>
 8004bbc:	701d      	strb	r5, [r3, #0]
 8004bbe:	3301      	adds	r3, #1
 8004bc0:	1c14      	adds	r4, r2, #0
 8004bc2:	4233      	tst	r3, r6
 8004bc4:	d004      	beq.n	8004bd0 <memset+0x44>
 8004bc6:	3c01      	subs	r4, #1
 8004bc8:	701d      	strb	r5, [r3, #0]
 8004bca:	3301      	adds	r3, #1
 8004bcc:	4233      	tst	r3, r6
 8004bce:	d1f2      	bne.n	8004bb6 <memset+0x2a>
 8004bd0:	2c03      	cmp	r4, #3
 8004bd2:	d949      	bls.n	8004c68 <memset+0xdc>
 8004bd4:	22ff      	movs	r2, #255	; 0xff
 8004bd6:	400a      	ands	r2, r1
 8004bd8:	0217      	lsls	r7, r2, #8
 8004bda:	433a      	orrs	r2, r7
 8004bdc:	0415      	lsls	r5, r2, #16
 8004bde:	432a      	orrs	r2, r5
 8004be0:	2c0f      	cmp	r4, #15
 8004be2:	d95c      	bls.n	8004c9e <memset+0x112>
 8004be4:	1c26      	adds	r6, r4, #0
 8004be6:	3e10      	subs	r6, #16
 8004be8:	0937      	lsrs	r7, r6, #4
 8004bea:	3701      	adds	r7, #1
 8004bec:	013d      	lsls	r5, r7, #4
 8004bee:	195e      	adds	r6, r3, r5
 8004bf0:	3d10      	subs	r5, #16
 8004bf2:	06ef      	lsls	r7, r5, #27
 8004bf4:	601a      	str	r2, [r3, #0]
 8004bf6:	605a      	str	r2, [r3, #4]
 8004bf8:	609a      	str	r2, [r3, #8]
 8004bfa:	60da      	str	r2, [r3, #12]
 8004bfc:	3310      	adds	r3, #16
 8004bfe:	0ffd      	lsrs	r5, r7, #31
 8004c00:	429e      	cmp	r6, r3
 8004c02:	d013      	beq.n	8004c2c <memset+0xa0>
 8004c04:	2d00      	cmp	r5, #0
 8004c06:	d006      	beq.n	8004c16 <memset+0x8a>
 8004c08:	601a      	str	r2, [r3, #0]
 8004c0a:	605a      	str	r2, [r3, #4]
 8004c0c:	609a      	str	r2, [r3, #8]
 8004c0e:	60da      	str	r2, [r3, #12]
 8004c10:	3310      	adds	r3, #16
 8004c12:	429e      	cmp	r6, r3
 8004c14:	d00a      	beq.n	8004c2c <memset+0xa0>
 8004c16:	601a      	str	r2, [r3, #0]
 8004c18:	605a      	str	r2, [r3, #4]
 8004c1a:	609a      	str	r2, [r3, #8]
 8004c1c:	60da      	str	r2, [r3, #12]
 8004c1e:	611a      	str	r2, [r3, #16]
 8004c20:	615a      	str	r2, [r3, #20]
 8004c22:	619a      	str	r2, [r3, #24]
 8004c24:	61da      	str	r2, [r3, #28]
 8004c26:	3320      	adds	r3, #32
 8004c28:	429e      	cmp	r6, r3
 8004c2a:	d1f4      	bne.n	8004c16 <memset+0x8a>
 8004c2c:	230f      	movs	r3, #15
 8004c2e:	401c      	ands	r4, r3
 8004c30:	1c35      	adds	r5, r6, #0
 8004c32:	1c33      	adds	r3, r6, #0
 8004c34:	2c03      	cmp	r4, #3
 8004c36:	d917      	bls.n	8004c68 <memset+0xdc>
 8004c38:	1f26      	subs	r6, r4, #4
 8004c3a:	08b7      	lsrs	r7, r6, #2
 8004c3c:	3701      	adds	r7, #1
 8004c3e:	00be      	lsls	r6, r7, #2
 8004c40:	19ab      	adds	r3, r5, r6
 8004c42:	3e04      	subs	r6, #4
 8004c44:	0777      	lsls	r7, r6, #29
 8004c46:	c504      	stmia	r5!, {r2}
 8004c48:	0ffe      	lsrs	r6, r7, #31
 8004c4a:	429d      	cmp	r5, r3
 8004c4c:	d00a      	beq.n	8004c64 <memset+0xd8>
 8004c4e:	2e00      	cmp	r6, #0
 8004c50:	d002      	beq.n	8004c58 <memset+0xcc>
 8004c52:	c504      	stmia	r5!, {r2}
 8004c54:	429d      	cmp	r5, r3
 8004c56:	d005      	beq.n	8004c64 <memset+0xd8>
 8004c58:	1c2f      	adds	r7, r5, #0
 8004c5a:	c704      	stmia	r7!, {r2}
 8004c5c:	606a      	str	r2, [r5, #4]
 8004c5e:	1d3d      	adds	r5, r7, #4
 8004c60:	429d      	cmp	r5, r3
 8004c62:	d1f9      	bne.n	8004c58 <memset+0xcc>
 8004c64:	2203      	movs	r2, #3
 8004c66:	4014      	ands	r4, r2
 8004c68:	2c00      	cmp	r4, #0
 8004c6a:	d014      	beq.n	8004c96 <memset+0x10a>
 8004c6c:	191c      	adds	r4, r3, r4
 8004c6e:	43dd      	mvns	r5, r3
 8004c70:	b2c9      	uxtb	r1, r1
 8004c72:	1966      	adds	r6, r4, r5
 8004c74:	2701      	movs	r7, #1
 8004c76:	7019      	strb	r1, [r3, #0]
 8004c78:	3301      	adds	r3, #1
 8004c7a:	403e      	ands	r6, r7
 8004c7c:	42a3      	cmp	r3, r4
 8004c7e:	d00a      	beq.n	8004c96 <memset+0x10a>
 8004c80:	2e00      	cmp	r6, #0
 8004c82:	d003      	beq.n	8004c8c <memset+0x100>
 8004c84:	7019      	strb	r1, [r3, #0]
 8004c86:	3301      	adds	r3, #1
 8004c88:	42a3      	cmp	r3, r4
 8004c8a:	d004      	beq.n	8004c96 <memset+0x10a>
 8004c8c:	7019      	strb	r1, [r3, #0]
 8004c8e:	7059      	strb	r1, [r3, #1]
 8004c90:	3302      	adds	r3, #2
 8004c92:	42a3      	cmp	r3, r4
 8004c94:	d1fa      	bne.n	8004c8c <memset+0x100>
 8004c96:	bdf0      	pop	{r4, r5, r6, r7, pc}
 8004c98:	1c03      	adds	r3, r0, #0
 8004c9a:	1c14      	adds	r4, r2, #0
 8004c9c:	e798      	b.n	8004bd0 <memset+0x44>
 8004c9e:	1c1d      	adds	r5, r3, #0
 8004ca0:	e7ca      	b.n	8004c38 <memset+0xac>
 8004ca2:	46c0      	nop			; (mov r8, r8)

08004ca4 <strcmp>:
 8004ca4:	7802      	ldrb	r2, [r0, #0]
 8004ca6:	780b      	ldrb	r3, [r1, #0]
 8004ca8:	3001      	adds	r0, #1
 8004caa:	3101      	adds	r1, #1
 8004cac:	2a00      	cmp	r2, #0
 8004cae:	d001      	beq.n	8004cb4 <strcmp+0x10>
 8004cb0:	429a      	cmp	r2, r3
 8004cb2:	d0f7      	beq.n	8004ca4 <strcmp>
 8004cb4:	1ad0      	subs	r0, r2, r3
 8004cb6:	4770      	bx	lr

08004cb8 <strcpy>:
 8004cb8:	1c03      	adds	r3, r0, #0
 8004cba:	780a      	ldrb	r2, [r1, #0]
 8004cbc:	3101      	adds	r1, #1
 8004cbe:	701a      	strb	r2, [r3, #0]
 8004cc0:	3301      	adds	r3, #1
 8004cc2:	2a00      	cmp	r2, #0
 8004cc4:	d1f9      	bne.n	8004cba <strcpy+0x2>
 8004cc6:	4770      	bx	lr

08004cc8 <strlen>:
 8004cc8:	2300      	movs	r3, #0
 8004cca:	5cc2      	ldrb	r2, [r0, r3]
 8004ccc:	3301      	adds	r3, #1
 8004cce:	2a00      	cmp	r2, #0
 8004cd0:	d1fb      	bne.n	8004cca <strlen+0x2>
 8004cd2:	1e58      	subs	r0, r3, #1
 8004cd4:	4770      	bx	lr
 8004cd6:	46c0      	nop			; (mov r8, r8)

08004cd8 <_ZN12_GLOBAL__N_1L9sin_arrayE>:
 8004cd8:	07ff 080e 081d 082b 083a 0849 0857 0866     ......+.:.I.W.f.
 8004ce8:	0874 0883 0891 08a0 08ae 08bc 08ca 08d8     t...............
 8004cf8:	08e6 08f3 0901 090e 091b 0928 0935 0942     ..........(.5.B.
 8004d08:	094e 095b 0967 0973 097f 098a 0995 09a0     N.[.g.s.........
 8004d18:	09ab 09b6 09c0 09ca 09d4 09dd 09e7 09f0     ................
 8004d28:	09f8 0a01 0a09 0a11 0a18 0a20 0a26 0a2d     .......... .&.-.
 8004d38:	0a33 0a39 0a3f 0a44 0a49 0a4e 0a52 0a56     3.9.?.D.I.N.R.V.
 8004d48:	0a5a 0a5d 0a60 0a63 0a65 0a67 0a69 0a6a     Z.].`.c.e.g.i.j.
 8004d58:	0a6b 0a6b 0a6b 0a6b 0a6b 0a6a 0a69 0a67     k.k.k.k.k.j.i.g.
 8004d68:	0a65 0a63 0a60 0a5d 0a5a 0a56 0a52 0a4e     e.c.`.].Z.V.R.N.
 8004d78:	0a49 0a44 0a3f 0a39 0a33 0a2d 0a26 0a20     I.D.?.9.3.-.&. .
 8004d88:	0a18 0a11 0a09 0a01 09f8 09f0 09e7 09dd     ................
 8004d98:	09d4 09ca 09c0 09b6 09ab 09a0 0995 098a     ................
 8004da8:	097f 0973 0967 095b 094e 0942 0935 0928     ..s.g.[.N.B.5.(.
 8004db8:	091b 090e 0901 08f3 08e6 08d8 08ca 08bc     ................
 8004dc8:	08ae 08a0 0891 0883 0874 0866 0857 0849     ........t.f.W.I.
 8004dd8:	083a 082b 081d 080e 07ff 07f0 07e1 07d3     :.+.............
 8004de8:	07c4 07b5 07a7 0798 078a 077b 076d 075e     ..........{.m.^.
 8004df8:	0750 0742 0734 0726 0718 070b 06fd 06f0     P.B.4.&.........
 8004e08:	06e3 06d6 06c9 06bc 06b0 06a3 0697 068b     ................
 8004e18:	067f 0674 0669 065e 0653 0648 063e 0634     ..t.i.^.S.H.>.4.
 8004e28:	062a 0621 0617 060e 0606 05fd 05f5 05ed     *.!.............
 8004e38:	05e6 05de 05d8 05d1 05cb 05c5 05bf 05ba     ................
 8004e48:	05b5 05b0 05ac 05a8 05a4 05a1 059e 059b     ................
 8004e58:	0599 0597 0595 0594 0593 0593 0593 0593     ................
 8004e68:	0593 0594 0595 0597 0599 059b 059e 05a1     ................
 8004e78:	05a4 05a8 05ac 05b0 05b5 05ba 05bf 05c5     ................
 8004e88:	05cb 05d1 05d8 05de 05e6 05ed 05f5 05fd     ................
 8004e98:	0606 060e 0617 0621 062a 0634 063e 0648     ......!.*.4.>.H.
 8004ea8:	0653 065e 0669 0674 067f 068b 0697 06a3     S.^.i.t.........
 8004eb8:	06b0 06bc 06c9 06d6 06e3 06f0 06fd 070b     ................
 8004ec8:	0718 0726 0734 0742 0750 075e 076d 077b     ..&.4.B.P.^.m.{.
 8004ed8:	078a 0798 07a7 07b5 07c4 07d3 07e1 07f0     ................

08004ee8 <_ZN12_GLOBAL__N_110zapp1_impl7msgfunsE>:
 8004ee8:	0785 0800 0771 0800 075d 0800 072d 0800     ....q...]...-...
 8004ef8:	0719 0800 0705 0800 06bd 0800 06a9 0800     ................
 8004f08:	0695 0800                                   ....

08004f0c <_ZZ18mavlink_parse_charE20mavlink_message_crcs>:
 8004f0c:	7c32 0089 d9ed 7768 0000 5900 0000 0000     2|....hw...Y....
 8004f1c:	0000 0000 9fd6 a8dc 1718 90aa 7343 f627     ............Cs'.
 8004f2c:	68b9 f4ed d4f2 fe09 1ce6 841c e8dd 990b     .h..............
 8004f3c:	2729 dfd6 218d 030f 1864 eeef f01e 82b7     )'...!..d.......
 8004f4c:	0082 1594 f300 007c 0000 0014 8f98 0000     ......|.........
	...
 8004f64:	e700 3fb7 0036 0000 0000 0000 66af d09e     ...?6........f..
 8004f74:	5d38 0000 0000 0000 0000 0000 0000 0000     8]..............
	...
 8004f9c:	0000 2a00 0ff1 db86 bcd0 1654 1513 0086     ...*......T.....
 8004fac:	444e 7fbd 156f 9015 ea01 b549 0016 0000     ND..o.....I.....
	...
 8005004:	cc00 aa31 532c 002e                         ..1.,S..

0800500c <_ZN12_GLOBAL__N_110MAVStreamsE>:
 800500c:	0001 0002 0002 0002 0003 0005 0006 0002     ................
 800501c:	000a 0005 000b 0002                         ........

08005024 <_ZN3gps8GGA_cmdsE>:
 8005024:	168b 0800 0000 0000 13e5 0800 0000 0000     ................
 8005034:	1455 0800 0000 0000 13d9 0800 0000 0000     U...............
 8005044:	1425 0800 0000 0000 17f1 0800 0000 0000     %...............
 8005054:	1485 0800 0000 0000 11e1 0800 0000 0000     ................
 8005064:	13f1 0800 0000 0000 0cdd 0800 0000 0000     ................
 8005074:	10d1 0800 0000 0000 0cdd 0800 0000 0000     ................
 8005084:	0cd9 0800 0000 0000 0cd9 0800 0000 0000     ................

08005094 <_ZN3gps8GSA_cmdsE>:
 8005094:	1733 0800 0000 0000 17ad 0800 0000 0000     3...............
 80050a4:	103d 0800 0000 0000 103d 0800 0000 0000     =.......=.......
 80050b4:	103d 0800 0000 0000 103d 0800 0000 0000     =.......=.......
 80050c4:	103d 0800 0000 0000 103d 0800 0000 0000     =.......=.......
 80050d4:	103d 0800 0000 0000 103d 0800 0000 0000     =.......=.......
 80050e4:	103d 0800 0000 0000 103d 0800 0000 0000     =.......=.......
 80050f4:	103d 0800 0000 0000 103d 0800 0000 0000     =.......=.......
 8005104:	1201 0800 0000 0000 11e1 0800 0000 0000     ................
 8005114:	11c1 0800 0000 0000                         ........

0800511c <_ZN3gps8VTG_cmdsE>:
 800511c:	1199 0800 0000 0000 0d15 0800 0000 0000     ................
 800512c:	1171 0800 0000 0000 0cf9 0800 0000 0000     q...............
 800513c:	1131 0800 0000 0000 0d4d 0800 0000 0000     1.......M.......
 800514c:	10f1 0800 0000 0000 0d31 0800 0000 0000     ........1.......
 800515c:	1769 0800 0000 0000                         i.......

08005164 <_ZN3gps8RMC_cmdsE>:
 8005164:	168b 0800 0000 0000 0d8b 0800 0000 0000     ................
 8005174:	13e5 0800 0000 0000 1455 0800 0000 0000     ........U.......
 8005184:	13d9 0800 0000 0000 1425 0800 0000 0000     ........%.......
 8005194:	1131 0800 0000 0000 1199 0800 0000 0000     1...............
 80051a4:	1645 0800 0000 0000 10ad 0800 0000 0000     E...............
 80051b4:	1221 0800 0000 0000 1769 0800 0000 0000     !.......i.......

080051c4 <_ZN3gps8ACK_cmdsE>:
 80051c4:	0d69 0800 0000 0000 1083 0800 0000 0000     i...............
 80051d4:	20b8 0800 2162 0800 220a 0800 21ca 0800     . ..b!..."...!..
 80051e4:	220a 0800 21c2 0800 220a 0800 21ca 0800     ."...!..."...!..
 80051f4:	2162 0800 2162 0800 21c2 0800 21ca 0800     b!..b!...!...!..
 8005204:	2228 0800 2228 0800 2228 0800 2210 0800     ("..("..("..."..
 8005214:	2494 0800 25d6 0800 25d6 0800 25ce 0800     .$...%...%...%..
 8005224:	25bc 0800 25bc 0800 25b4 0800 25ce 0800     .%...%...%...%..
 8005234:	25bc 0800 25b4 0800 25bc 0800 25ce 0800     .%...%...%...%..
 8005244:	2560 0800 2560 0800 2560 0800 25da 0800     `%..`%..`%...%..
 8005254:	3094 0800 3260 0800 3354 0800 32f0 0800     .0..`2..T3...2..
 8005264:	3354 0800 32ca 0800 3354 0800 32f0 0800     T3...2..T3...2..
 8005274:	3260 0800 3260 0800 32ca 0800 32f0 0800     `2..`2...2...2..
 8005284:	3376 0800 3376 0800 3376 0800 335c 0800     v3..v3..v3..\3..
 8005294:	3668 0800 38c4 0800 38c4 0800 3898 0800     h6...8...8...8..
 80052a4:	3810 0800 3810 0800 38b8 0800 3898 0800     .8...8...8...8..
 80052b4:	3810 0800 38b8 0800 3810 0800 3898 0800     .8...8...8...8..
 80052c4:	38b0 0800 38b0 0800 38b0 0800 38c8 0800     .8...8...8...8..
 80052d4:	5047 4747 0041 5047 5347 0041 5047 4d52     GPGGA.GPGSA.GPRM
 80052e4:	0043 5047 5456 0047 4d50 4b54 3030 0031     C.GPVTG.PMTK001.
 80052f4:	4341 004b 0043 0000                         ACK.C...

080052fc <_global_impure_ptr>:
 80052fc:	0030 2000                                   0.. 

08005300 <_ctype_>:
 8005300:	2000 2020 2020 2020 2020 2828 2828 2028     .         ((((( 
 8005310:	2020 2020 2020 2020 2020 2020 2020 2020                     
 8005320:	8820 1010 1010 1010 1010 1010 1010 1010      ...............
 8005330:	0410 0404 0404 0404 0404 1004 1010 1010     ................
 8005340:	1010 4141 4141 4141 0101 0101 0101 0101     ..AAAAAA........
 8005350:	0101 0101 0101 0101 0101 0101 1010 1010     ................
 8005360:	1010 4242 4242 4242 0202 0202 0202 0202     ..BBBBBB........
 8005370:	0202 0202 0202 0202 0202 0202 1010 1010     ................
 8005380:	0020 0000 0000 0000 0000 0000 0000 0000      ...............
	...

08005404 <_init>:
 8005404:	b5f8      	push	{r3, r4, r5, r6, r7, lr}
 8005406:	46c0      	nop			; (mov r8, r8)
 8005408:	bcf8      	pop	{r3, r4, r5, r6, r7}
 800540a:	bc08      	pop	{r3}
 800540c:	469e      	mov	lr, r3
 800540e:	4770      	bx	lr

08005410 <_fini>:
 8005410:	b5f8      	push	{r3, r4, r5, r6, r7, lr}
 8005412:	46c0      	nop			; (mov r8, r8)
 8005414:	bcf8      	pop	{r3, r4, r5, r6, r7}
 8005416:	bc08      	pop	{r3}
 8005418:	469e      	mov	lr, r3
 800541a:	4770      	bx	lr
