
main.elf:     file format elf32-littlearm


Disassembly of section .text:

0800c000 <__aeabi_drsub>:
 800c000:	f081 4100 	eor.w	r1, r1, #2147483648	; 0x80000000
 800c004:	e002      	b.n	800c00c <__adddf3>
 800c006:	bf00      	nop

0800c008 <__aeabi_dsub>:
 800c008:	f083 4300 	eor.w	r3, r3, #2147483648	; 0x80000000

0800c00c <__adddf3>:
 800c00c:	b530      	push	{r4, r5, lr}
 800c00e:	ea4f 0441 	mov.w	r4, r1, lsl #1
 800c012:	ea4f 0543 	mov.w	r5, r3, lsl #1
 800c016:	ea94 0f05 	teq	r4, r5
 800c01a:	bf08      	it	eq
 800c01c:	ea90 0f02 	teqeq	r0, r2
 800c020:	bf1f      	itttt	ne
 800c022:	ea54 0c00 	orrsne.w	ip, r4, r0
 800c026:	ea55 0c02 	orrsne.w	ip, r5, r2
 800c02a:	ea7f 5c64 	mvnsne.w	ip, r4, asr #21
 800c02e:	ea7f 5c65 	mvnsne.w	ip, r5, asr #21
 800c032:	f000 80e2 	beq.w	800c1fa <__adddf3+0x1ee>
 800c036:	ea4f 5454 	mov.w	r4, r4, lsr #21
 800c03a:	ebd4 5555 	rsbs	r5, r4, r5, lsr #21
 800c03e:	bfb8      	it	lt
 800c040:	426d      	neglt	r5, r5
 800c042:	dd0c      	ble.n	800c05e <__adddf3+0x52>
 800c044:	442c      	add	r4, r5
 800c046:	ea80 0202 	eor.w	r2, r0, r2
 800c04a:	ea81 0303 	eor.w	r3, r1, r3
 800c04e:	ea82 0000 	eor.w	r0, r2, r0
 800c052:	ea83 0101 	eor.w	r1, r3, r1
 800c056:	ea80 0202 	eor.w	r2, r0, r2
 800c05a:	ea81 0303 	eor.w	r3, r1, r3
 800c05e:	2d36      	cmp	r5, #54	; 0x36
 800c060:	bf88      	it	hi
 800c062:	bd30      	pophi	{r4, r5, pc}
 800c064:	f011 4f00 	tst.w	r1, #2147483648	; 0x80000000
 800c068:	ea4f 3101 	mov.w	r1, r1, lsl #12
 800c06c:	f44f 1c80 	mov.w	ip, #1048576	; 0x100000
 800c070:	ea4c 3111 	orr.w	r1, ip, r1, lsr #12
 800c074:	d002      	beq.n	800c07c <__adddf3+0x70>
 800c076:	4240      	negs	r0, r0
 800c078:	eb61 0141 	sbc.w	r1, r1, r1, lsl #1
 800c07c:	f013 4f00 	tst.w	r3, #2147483648	; 0x80000000
 800c080:	ea4f 3303 	mov.w	r3, r3, lsl #12
 800c084:	ea4c 3313 	orr.w	r3, ip, r3, lsr #12
 800c088:	d002      	beq.n	800c090 <__adddf3+0x84>
 800c08a:	4252      	negs	r2, r2
 800c08c:	eb63 0343 	sbc.w	r3, r3, r3, lsl #1
 800c090:	ea94 0f05 	teq	r4, r5
 800c094:	f000 80a7 	beq.w	800c1e6 <__adddf3+0x1da>
 800c098:	f1a4 0401 	sub.w	r4, r4, #1
 800c09c:	f1d5 0e20 	rsbs	lr, r5, #32
 800c0a0:	db0d      	blt.n	800c0be <__adddf3+0xb2>
 800c0a2:	fa02 fc0e 	lsl.w	ip, r2, lr
 800c0a6:	fa22 f205 	lsr.w	r2, r2, r5
 800c0aa:	1880      	adds	r0, r0, r2
 800c0ac:	f141 0100 	adc.w	r1, r1, #0
 800c0b0:	fa03 f20e 	lsl.w	r2, r3, lr
 800c0b4:	1880      	adds	r0, r0, r2
 800c0b6:	fa43 f305 	asr.w	r3, r3, r5
 800c0ba:	4159      	adcs	r1, r3
 800c0bc:	e00e      	b.n	800c0dc <__adddf3+0xd0>
 800c0be:	f1a5 0520 	sub.w	r5, r5, #32
 800c0c2:	f10e 0e20 	add.w	lr, lr, #32
 800c0c6:	2a01      	cmp	r2, #1
 800c0c8:	fa03 fc0e 	lsl.w	ip, r3, lr
 800c0cc:	bf28      	it	cs
 800c0ce:	f04c 0c02 	orrcs.w	ip, ip, #2
 800c0d2:	fa43 f305 	asr.w	r3, r3, r5
 800c0d6:	18c0      	adds	r0, r0, r3
 800c0d8:	eb51 71e3 	adcs.w	r1, r1, r3, asr #31
 800c0dc:	f001 4500 	and.w	r5, r1, #2147483648	; 0x80000000
 800c0e0:	d507      	bpl.n	800c0f2 <__adddf3+0xe6>
 800c0e2:	f04f 0e00 	mov.w	lr, #0
 800c0e6:	f1dc 0c00 	rsbs	ip, ip, #0
 800c0ea:	eb7e 0000 	sbcs.w	r0, lr, r0
 800c0ee:	eb6e 0101 	sbc.w	r1, lr, r1
 800c0f2:	f5b1 1f80 	cmp.w	r1, #1048576	; 0x100000
 800c0f6:	d31b      	bcc.n	800c130 <__adddf3+0x124>
 800c0f8:	f5b1 1f00 	cmp.w	r1, #2097152	; 0x200000
 800c0fc:	d30c      	bcc.n	800c118 <__adddf3+0x10c>
 800c0fe:	0849      	lsrs	r1, r1, #1
 800c100:	ea5f 0030 	movs.w	r0, r0, rrx
 800c104:	ea4f 0c3c 	mov.w	ip, ip, rrx
 800c108:	f104 0401 	add.w	r4, r4, #1
 800c10c:	ea4f 5244 	mov.w	r2, r4, lsl #21
 800c110:	f512 0f80 	cmn.w	r2, #4194304	; 0x400000
 800c114:	f080 809a 	bcs.w	800c24c <__adddf3+0x240>
 800c118:	f1bc 4f00 	cmp.w	ip, #2147483648	; 0x80000000
 800c11c:	bf08      	it	eq
 800c11e:	ea5f 0c50 	movseq.w	ip, r0, lsr #1
 800c122:	f150 0000 	adcs.w	r0, r0, #0
 800c126:	eb41 5104 	adc.w	r1, r1, r4, lsl #20
 800c12a:	ea41 0105 	orr.w	r1, r1, r5
 800c12e:	bd30      	pop	{r4, r5, pc}
 800c130:	ea5f 0c4c 	movs.w	ip, ip, lsl #1
 800c134:	4140      	adcs	r0, r0
 800c136:	eb41 0101 	adc.w	r1, r1, r1
 800c13a:	f411 1f80 	tst.w	r1, #1048576	; 0x100000
 800c13e:	f1a4 0401 	sub.w	r4, r4, #1
 800c142:	d1e9      	bne.n	800c118 <__adddf3+0x10c>
 800c144:	f091 0f00 	teq	r1, #0
 800c148:	bf04      	itt	eq
 800c14a:	4601      	moveq	r1, r0
 800c14c:	2000      	moveq	r0, #0
 800c14e:	fab1 f381 	clz	r3, r1
 800c152:	bf08      	it	eq
 800c154:	3320      	addeq	r3, #32
 800c156:	f1a3 030b 	sub.w	r3, r3, #11
 800c15a:	f1b3 0220 	subs.w	r2, r3, #32
 800c15e:	da0c      	bge.n	800c17a <__adddf3+0x16e>
 800c160:	320c      	adds	r2, #12
 800c162:	dd08      	ble.n	800c176 <__adddf3+0x16a>
 800c164:	f102 0c14 	add.w	ip, r2, #20
 800c168:	f1c2 020c 	rsb	r2, r2, #12
 800c16c:	fa01 f00c 	lsl.w	r0, r1, ip
 800c170:	fa21 f102 	lsr.w	r1, r1, r2
 800c174:	e00c      	b.n	800c190 <__adddf3+0x184>
 800c176:	f102 0214 	add.w	r2, r2, #20
 800c17a:	bfd8      	it	le
 800c17c:	f1c2 0c20 	rsble	ip, r2, #32
 800c180:	fa01 f102 	lsl.w	r1, r1, r2
 800c184:	fa20 fc0c 	lsr.w	ip, r0, ip
 800c188:	bfdc      	itt	le
 800c18a:	ea41 010c 	orrle.w	r1, r1, ip
 800c18e:	4090      	lslle	r0, r2
 800c190:	1ae4      	subs	r4, r4, r3
 800c192:	bfa2      	ittt	ge
 800c194:	eb01 5104 	addge.w	r1, r1, r4, lsl #20
 800c198:	4329      	orrge	r1, r5
 800c19a:	bd30      	popge	{r4, r5, pc}
 800c19c:	ea6f 0404 	mvn.w	r4, r4
 800c1a0:	3c1f      	subs	r4, #31
 800c1a2:	da1c      	bge.n	800c1de <__adddf3+0x1d2>
 800c1a4:	340c      	adds	r4, #12
 800c1a6:	dc0e      	bgt.n	800c1c6 <__adddf3+0x1ba>
 800c1a8:	f104 0414 	add.w	r4, r4, #20
 800c1ac:	f1c4 0220 	rsb	r2, r4, #32
 800c1b0:	fa20 f004 	lsr.w	r0, r0, r4
 800c1b4:	fa01 f302 	lsl.w	r3, r1, r2
 800c1b8:	ea40 0003 	orr.w	r0, r0, r3
 800c1bc:	fa21 f304 	lsr.w	r3, r1, r4
 800c1c0:	ea45 0103 	orr.w	r1, r5, r3
 800c1c4:	bd30      	pop	{r4, r5, pc}
 800c1c6:	f1c4 040c 	rsb	r4, r4, #12
 800c1ca:	f1c4 0220 	rsb	r2, r4, #32
 800c1ce:	fa20 f002 	lsr.w	r0, r0, r2
 800c1d2:	fa01 f304 	lsl.w	r3, r1, r4
 800c1d6:	ea40 0003 	orr.w	r0, r0, r3
 800c1da:	4629      	mov	r1, r5
 800c1dc:	bd30      	pop	{r4, r5, pc}
 800c1de:	fa21 f004 	lsr.w	r0, r1, r4
 800c1e2:	4629      	mov	r1, r5
 800c1e4:	bd30      	pop	{r4, r5, pc}
 800c1e6:	f094 0f00 	teq	r4, #0
 800c1ea:	f483 1380 	eor.w	r3, r3, #1048576	; 0x100000
 800c1ee:	bf06      	itte	eq
 800c1f0:	f481 1180 	eoreq.w	r1, r1, #1048576	; 0x100000
 800c1f4:	3401      	addeq	r4, #1
 800c1f6:	3d01      	subne	r5, #1
 800c1f8:	e74e      	b.n	800c098 <__adddf3+0x8c>
 800c1fa:	ea7f 5c64 	mvns.w	ip, r4, asr #21
 800c1fe:	bf18      	it	ne
 800c200:	ea7f 5c65 	mvnsne.w	ip, r5, asr #21
 800c204:	d029      	beq.n	800c25a <__adddf3+0x24e>
 800c206:	ea94 0f05 	teq	r4, r5
 800c20a:	bf08      	it	eq
 800c20c:	ea90 0f02 	teqeq	r0, r2
 800c210:	d005      	beq.n	800c21e <__adddf3+0x212>
 800c212:	ea54 0c00 	orrs.w	ip, r4, r0
 800c216:	bf04      	itt	eq
 800c218:	4619      	moveq	r1, r3
 800c21a:	4610      	moveq	r0, r2
 800c21c:	bd30      	pop	{r4, r5, pc}
 800c21e:	ea91 0f03 	teq	r1, r3
 800c222:	bf1e      	ittt	ne
 800c224:	2100      	movne	r1, #0
 800c226:	2000      	movne	r0, #0
 800c228:	bd30      	popne	{r4, r5, pc}
 800c22a:	ea5f 5c54 	movs.w	ip, r4, lsr #21
 800c22e:	d105      	bne.n	800c23c <__adddf3+0x230>
 800c230:	0040      	lsls	r0, r0, #1
 800c232:	4149      	adcs	r1, r1
 800c234:	bf28      	it	cs
 800c236:	f041 4100 	orrcs.w	r1, r1, #2147483648	; 0x80000000
 800c23a:	bd30      	pop	{r4, r5, pc}
 800c23c:	f514 0480 	adds.w	r4, r4, #4194304	; 0x400000
 800c240:	bf3c      	itt	cc
 800c242:	f501 1180 	addcc.w	r1, r1, #1048576	; 0x100000
 800c246:	bd30      	popcc	{r4, r5, pc}
 800c248:	f001 4500 	and.w	r5, r1, #2147483648	; 0x80000000
 800c24c:	f045 41fe 	orr.w	r1, r5, #2130706432	; 0x7f000000
 800c250:	f441 0170 	orr.w	r1, r1, #15728640	; 0xf00000
 800c254:	f04f 0000 	mov.w	r0, #0
 800c258:	bd30      	pop	{r4, r5, pc}
 800c25a:	ea7f 5c64 	mvns.w	ip, r4, asr #21
 800c25e:	bf1a      	itte	ne
 800c260:	4619      	movne	r1, r3
 800c262:	4610      	movne	r0, r2
 800c264:	ea7f 5c65 	mvnseq.w	ip, r5, asr #21
 800c268:	bf1c      	itt	ne
 800c26a:	460b      	movne	r3, r1
 800c26c:	4602      	movne	r2, r0
 800c26e:	ea50 3401 	orrs.w	r4, r0, r1, lsl #12
 800c272:	bf06      	itte	eq
 800c274:	ea52 3503 	orrseq.w	r5, r2, r3, lsl #12
 800c278:	ea91 0f03 	teqeq	r1, r3
 800c27c:	f441 2100 	orrne.w	r1, r1, #524288	; 0x80000
 800c280:	bd30      	pop	{r4, r5, pc}
 800c282:	bf00      	nop

0800c284 <__aeabi_ui2d>:
 800c284:	f090 0f00 	teq	r0, #0
 800c288:	bf04      	itt	eq
 800c28a:	2100      	moveq	r1, #0
 800c28c:	4770      	bxeq	lr
 800c28e:	b530      	push	{r4, r5, lr}
 800c290:	f44f 6480 	mov.w	r4, #1024	; 0x400
 800c294:	f104 0432 	add.w	r4, r4, #50	; 0x32
 800c298:	f04f 0500 	mov.w	r5, #0
 800c29c:	f04f 0100 	mov.w	r1, #0
 800c2a0:	e750      	b.n	800c144 <__adddf3+0x138>
 800c2a2:	bf00      	nop

0800c2a4 <__aeabi_i2d>:
 800c2a4:	f090 0f00 	teq	r0, #0
 800c2a8:	bf04      	itt	eq
 800c2aa:	2100      	moveq	r1, #0
 800c2ac:	4770      	bxeq	lr
 800c2ae:	b530      	push	{r4, r5, lr}
 800c2b0:	f44f 6480 	mov.w	r4, #1024	; 0x400
 800c2b4:	f104 0432 	add.w	r4, r4, #50	; 0x32
 800c2b8:	f010 4500 	ands.w	r5, r0, #2147483648	; 0x80000000
 800c2bc:	bf48      	it	mi
 800c2be:	4240      	negmi	r0, r0
 800c2c0:	f04f 0100 	mov.w	r1, #0
 800c2c4:	e73e      	b.n	800c144 <__adddf3+0x138>
 800c2c6:	bf00      	nop

0800c2c8 <__aeabi_f2d>:
 800c2c8:	0042      	lsls	r2, r0, #1
 800c2ca:	ea4f 01e2 	mov.w	r1, r2, asr #3
 800c2ce:	ea4f 0131 	mov.w	r1, r1, rrx
 800c2d2:	ea4f 7002 	mov.w	r0, r2, lsl #28
 800c2d6:	bf1f      	itttt	ne
 800c2d8:	f012 437f 	andsne.w	r3, r2, #4278190080	; 0xff000000
 800c2dc:	f093 4f7f 	teqne	r3, #4278190080	; 0xff000000
 800c2e0:	f081 5160 	eorne.w	r1, r1, #939524096	; 0x38000000
 800c2e4:	4770      	bxne	lr
 800c2e6:	f092 0f00 	teq	r2, #0
 800c2ea:	bf14      	ite	ne
 800c2ec:	f093 4f7f 	teqne	r3, #4278190080	; 0xff000000
 800c2f0:	4770      	bxeq	lr
 800c2f2:	b530      	push	{r4, r5, lr}
 800c2f4:	f44f 7460 	mov.w	r4, #896	; 0x380
 800c2f8:	f001 4500 	and.w	r5, r1, #2147483648	; 0x80000000
 800c2fc:	f021 4100 	bic.w	r1, r1, #2147483648	; 0x80000000
 800c300:	e720      	b.n	800c144 <__adddf3+0x138>
 800c302:	bf00      	nop

0800c304 <__aeabi_ul2d>:
 800c304:	ea50 0201 	orrs.w	r2, r0, r1
 800c308:	bf08      	it	eq
 800c30a:	4770      	bxeq	lr
 800c30c:	b530      	push	{r4, r5, lr}
 800c30e:	f04f 0500 	mov.w	r5, #0
 800c312:	e00a      	b.n	800c32a <__aeabi_l2d+0x16>

0800c314 <__aeabi_l2d>:
 800c314:	ea50 0201 	orrs.w	r2, r0, r1
 800c318:	bf08      	it	eq
 800c31a:	4770      	bxeq	lr
 800c31c:	b530      	push	{r4, r5, lr}
 800c31e:	f011 4500 	ands.w	r5, r1, #2147483648	; 0x80000000
 800c322:	d502      	bpl.n	800c32a <__aeabi_l2d+0x16>
 800c324:	4240      	negs	r0, r0
 800c326:	eb61 0141 	sbc.w	r1, r1, r1, lsl #1
 800c32a:	f44f 6480 	mov.w	r4, #1024	; 0x400
 800c32e:	f104 0432 	add.w	r4, r4, #50	; 0x32
 800c332:	ea5f 5c91 	movs.w	ip, r1, lsr #22
 800c336:	f43f aedc 	beq.w	800c0f2 <__adddf3+0xe6>
 800c33a:	f04f 0203 	mov.w	r2, #3
 800c33e:	ea5f 0cdc 	movs.w	ip, ip, lsr #3
 800c342:	bf18      	it	ne
 800c344:	3203      	addne	r2, #3
 800c346:	ea5f 0cdc 	movs.w	ip, ip, lsr #3
 800c34a:	bf18      	it	ne
 800c34c:	3203      	addne	r2, #3
 800c34e:	eb02 02dc 	add.w	r2, r2, ip, lsr #3
 800c352:	f1c2 0320 	rsb	r3, r2, #32
 800c356:	fa00 fc03 	lsl.w	ip, r0, r3
 800c35a:	fa20 f002 	lsr.w	r0, r0, r2
 800c35e:	fa01 fe03 	lsl.w	lr, r1, r3
 800c362:	ea40 000e 	orr.w	r0, r0, lr
 800c366:	fa21 f102 	lsr.w	r1, r1, r2
 800c36a:	4414      	add	r4, r2
 800c36c:	e6c1      	b.n	800c0f2 <__adddf3+0xe6>
 800c36e:	bf00      	nop

0800c370 <__aeabi_dmul>:
 800c370:	b570      	push	{r4, r5, r6, lr}
 800c372:	f04f 0cff 	mov.w	ip, #255	; 0xff
 800c376:	f44c 6ce0 	orr.w	ip, ip, #1792	; 0x700
 800c37a:	ea1c 5411 	ands.w	r4, ip, r1, lsr #20
 800c37e:	bf1d      	ittte	ne
 800c380:	ea1c 5513 	andsne.w	r5, ip, r3, lsr #20
 800c384:	ea94 0f0c 	teqne	r4, ip
 800c388:	ea95 0f0c 	teqne	r5, ip
 800c38c:	f000 f8de 	bleq	800c54c <__aeabi_dmul+0x1dc>
 800c390:	442c      	add	r4, r5
 800c392:	ea81 0603 	eor.w	r6, r1, r3
 800c396:	ea21 514c 	bic.w	r1, r1, ip, lsl #21
 800c39a:	ea23 534c 	bic.w	r3, r3, ip, lsl #21
 800c39e:	ea50 3501 	orrs.w	r5, r0, r1, lsl #12
 800c3a2:	bf18      	it	ne
 800c3a4:	ea52 3503 	orrsne.w	r5, r2, r3, lsl #12
 800c3a8:	f441 1180 	orr.w	r1, r1, #1048576	; 0x100000
 800c3ac:	f443 1380 	orr.w	r3, r3, #1048576	; 0x100000
 800c3b0:	d038      	beq.n	800c424 <__aeabi_dmul+0xb4>
 800c3b2:	fba0 ce02 	umull	ip, lr, r0, r2
 800c3b6:	f04f 0500 	mov.w	r5, #0
 800c3ba:	fbe1 e502 	umlal	lr, r5, r1, r2
 800c3be:	f006 4200 	and.w	r2, r6, #2147483648	; 0x80000000
 800c3c2:	fbe0 e503 	umlal	lr, r5, r0, r3
 800c3c6:	f04f 0600 	mov.w	r6, #0
 800c3ca:	fbe1 5603 	umlal	r5, r6, r1, r3
 800c3ce:	f09c 0f00 	teq	ip, #0
 800c3d2:	bf18      	it	ne
 800c3d4:	f04e 0e01 	orrne.w	lr, lr, #1
 800c3d8:	f1a4 04ff 	sub.w	r4, r4, #255	; 0xff
 800c3dc:	f5b6 7f00 	cmp.w	r6, #512	; 0x200
 800c3e0:	f564 7440 	sbc.w	r4, r4, #768	; 0x300
 800c3e4:	d204      	bcs.n	800c3f0 <__aeabi_dmul+0x80>
 800c3e6:	ea5f 0e4e 	movs.w	lr, lr, lsl #1
 800c3ea:	416d      	adcs	r5, r5
 800c3ec:	eb46 0606 	adc.w	r6, r6, r6
 800c3f0:	ea42 21c6 	orr.w	r1, r2, r6, lsl #11
 800c3f4:	ea41 5155 	orr.w	r1, r1, r5, lsr #21
 800c3f8:	ea4f 20c5 	mov.w	r0, r5, lsl #11
 800c3fc:	ea40 505e 	orr.w	r0, r0, lr, lsr #21
 800c400:	ea4f 2ece 	mov.w	lr, lr, lsl #11
 800c404:	f1b4 0cfd 	subs.w	ip, r4, #253	; 0xfd
 800c408:	bf88      	it	hi
 800c40a:	f5bc 6fe0 	cmphi.w	ip, #1792	; 0x700
 800c40e:	d81e      	bhi.n	800c44e <__aeabi_dmul+0xde>
 800c410:	f1be 4f00 	cmp.w	lr, #2147483648	; 0x80000000
 800c414:	bf08      	it	eq
 800c416:	ea5f 0e50 	movseq.w	lr, r0, lsr #1
 800c41a:	f150 0000 	adcs.w	r0, r0, #0
 800c41e:	eb41 5104 	adc.w	r1, r1, r4, lsl #20
 800c422:	bd70      	pop	{r4, r5, r6, pc}
 800c424:	f006 4600 	and.w	r6, r6, #2147483648	; 0x80000000
 800c428:	ea46 0101 	orr.w	r1, r6, r1
 800c42c:	ea40 0002 	orr.w	r0, r0, r2
 800c430:	ea81 0103 	eor.w	r1, r1, r3
 800c434:	ebb4 045c 	subs.w	r4, r4, ip, lsr #1
 800c438:	bfc2      	ittt	gt
 800c43a:	ebd4 050c 	rsbsgt	r5, r4, ip
 800c43e:	ea41 5104 	orrgt.w	r1, r1, r4, lsl #20
 800c442:	bd70      	popgt	{r4, r5, r6, pc}
 800c444:	f441 1180 	orr.w	r1, r1, #1048576	; 0x100000
 800c448:	f04f 0e00 	mov.w	lr, #0
 800c44c:	3c01      	subs	r4, #1
 800c44e:	f300 80ab 	bgt.w	800c5a8 <__aeabi_dmul+0x238>
 800c452:	f114 0f36 	cmn.w	r4, #54	; 0x36
 800c456:	bfde      	ittt	le
 800c458:	2000      	movle	r0, #0
 800c45a:	f001 4100 	andle.w	r1, r1, #2147483648	; 0x80000000
 800c45e:	bd70      	pople	{r4, r5, r6, pc}
 800c460:	f1c4 0400 	rsb	r4, r4, #0
 800c464:	3c20      	subs	r4, #32
 800c466:	da35      	bge.n	800c4d4 <__aeabi_dmul+0x164>
 800c468:	340c      	adds	r4, #12
 800c46a:	dc1b      	bgt.n	800c4a4 <__aeabi_dmul+0x134>
 800c46c:	f104 0414 	add.w	r4, r4, #20
 800c470:	f1c4 0520 	rsb	r5, r4, #32
 800c474:	fa00 f305 	lsl.w	r3, r0, r5
 800c478:	fa20 f004 	lsr.w	r0, r0, r4
 800c47c:	fa01 f205 	lsl.w	r2, r1, r5
 800c480:	ea40 0002 	orr.w	r0, r0, r2
 800c484:	f001 4200 	and.w	r2, r1, #2147483648	; 0x80000000
 800c488:	f021 4100 	bic.w	r1, r1, #2147483648	; 0x80000000
 800c48c:	eb10 70d3 	adds.w	r0, r0, r3, lsr #31
 800c490:	fa21 f604 	lsr.w	r6, r1, r4
 800c494:	eb42 0106 	adc.w	r1, r2, r6
 800c498:	ea5e 0e43 	orrs.w	lr, lr, r3, lsl #1
 800c49c:	bf08      	it	eq
 800c49e:	ea20 70d3 	biceq.w	r0, r0, r3, lsr #31
 800c4a2:	bd70      	pop	{r4, r5, r6, pc}
 800c4a4:	f1c4 040c 	rsb	r4, r4, #12
 800c4a8:	f1c4 0520 	rsb	r5, r4, #32
 800c4ac:	fa00 f304 	lsl.w	r3, r0, r4
 800c4b0:	fa20 f005 	lsr.w	r0, r0, r5
 800c4b4:	fa01 f204 	lsl.w	r2, r1, r4
 800c4b8:	ea40 0002 	orr.w	r0, r0, r2
 800c4bc:	f001 4100 	and.w	r1, r1, #2147483648	; 0x80000000
 800c4c0:	eb10 70d3 	adds.w	r0, r0, r3, lsr #31
 800c4c4:	f141 0100 	adc.w	r1, r1, #0
 800c4c8:	ea5e 0e43 	orrs.w	lr, lr, r3, lsl #1
 800c4cc:	bf08      	it	eq
 800c4ce:	ea20 70d3 	biceq.w	r0, r0, r3, lsr #31
 800c4d2:	bd70      	pop	{r4, r5, r6, pc}
 800c4d4:	f1c4 0520 	rsb	r5, r4, #32
 800c4d8:	fa00 f205 	lsl.w	r2, r0, r5
 800c4dc:	ea4e 0e02 	orr.w	lr, lr, r2
 800c4e0:	fa20 f304 	lsr.w	r3, r0, r4
 800c4e4:	fa01 f205 	lsl.w	r2, r1, r5
 800c4e8:	ea43 0302 	orr.w	r3, r3, r2
 800c4ec:	fa21 f004 	lsr.w	r0, r1, r4
 800c4f0:	f001 4100 	and.w	r1, r1, #2147483648	; 0x80000000
 800c4f4:	fa21 f204 	lsr.w	r2, r1, r4
 800c4f8:	ea20 0002 	bic.w	r0, r0, r2
 800c4fc:	eb00 70d3 	add.w	r0, r0, r3, lsr #31
 800c500:	ea5e 0e43 	orrs.w	lr, lr, r3, lsl #1
 800c504:	bf08      	it	eq
 800c506:	ea20 70d3 	biceq.w	r0, r0, r3, lsr #31
 800c50a:	bd70      	pop	{r4, r5, r6, pc}
 800c50c:	f094 0f00 	teq	r4, #0
 800c510:	d10f      	bne.n	800c532 <__aeabi_dmul+0x1c2>
 800c512:	f001 4600 	and.w	r6, r1, #2147483648	; 0x80000000
 800c516:	0040      	lsls	r0, r0, #1
 800c518:	eb41 0101 	adc.w	r1, r1, r1
 800c51c:	f411 1f80 	tst.w	r1, #1048576	; 0x100000
 800c520:	bf08      	it	eq
 800c522:	3c01      	subeq	r4, #1
 800c524:	d0f7      	beq.n	800c516 <__aeabi_dmul+0x1a6>
 800c526:	ea41 0106 	orr.w	r1, r1, r6
 800c52a:	f095 0f00 	teq	r5, #0
 800c52e:	bf18      	it	ne
 800c530:	4770      	bxne	lr
 800c532:	f003 4600 	and.w	r6, r3, #2147483648	; 0x80000000
 800c536:	0052      	lsls	r2, r2, #1
 800c538:	eb43 0303 	adc.w	r3, r3, r3
 800c53c:	f413 1f80 	tst.w	r3, #1048576	; 0x100000
 800c540:	bf08      	it	eq
 800c542:	3d01      	subeq	r5, #1
 800c544:	d0f7      	beq.n	800c536 <__aeabi_dmul+0x1c6>
 800c546:	ea43 0306 	orr.w	r3, r3, r6
 800c54a:	4770      	bx	lr
 800c54c:	ea94 0f0c 	teq	r4, ip
 800c550:	ea0c 5513 	and.w	r5, ip, r3, lsr #20
 800c554:	bf18      	it	ne
 800c556:	ea95 0f0c 	teqne	r5, ip
 800c55a:	d00c      	beq.n	800c576 <__aeabi_dmul+0x206>
 800c55c:	ea50 0641 	orrs.w	r6, r0, r1, lsl #1
 800c560:	bf18      	it	ne
 800c562:	ea52 0643 	orrsne.w	r6, r2, r3, lsl #1
 800c566:	d1d1      	bne.n	800c50c <__aeabi_dmul+0x19c>
 800c568:	ea81 0103 	eor.w	r1, r1, r3
 800c56c:	f001 4100 	and.w	r1, r1, #2147483648	; 0x80000000
 800c570:	f04f 0000 	mov.w	r0, #0
 800c574:	bd70      	pop	{r4, r5, r6, pc}
 800c576:	ea50 0641 	orrs.w	r6, r0, r1, lsl #1
 800c57a:	bf06      	itte	eq
 800c57c:	4610      	moveq	r0, r2
 800c57e:	4619      	moveq	r1, r3
 800c580:	ea52 0643 	orrsne.w	r6, r2, r3, lsl #1
 800c584:	d019      	beq.n	800c5ba <__aeabi_dmul+0x24a>
 800c586:	ea94 0f0c 	teq	r4, ip
 800c58a:	d102      	bne.n	800c592 <__aeabi_dmul+0x222>
 800c58c:	ea50 3601 	orrs.w	r6, r0, r1, lsl #12
 800c590:	d113      	bne.n	800c5ba <__aeabi_dmul+0x24a>
 800c592:	ea95 0f0c 	teq	r5, ip
 800c596:	d105      	bne.n	800c5a4 <__aeabi_dmul+0x234>
 800c598:	ea52 3603 	orrs.w	r6, r2, r3, lsl #12
 800c59c:	bf1c      	itt	ne
 800c59e:	4610      	movne	r0, r2
 800c5a0:	4619      	movne	r1, r3
 800c5a2:	d10a      	bne.n	800c5ba <__aeabi_dmul+0x24a>
 800c5a4:	ea81 0103 	eor.w	r1, r1, r3
 800c5a8:	f001 4100 	and.w	r1, r1, #2147483648	; 0x80000000
 800c5ac:	f041 41fe 	orr.w	r1, r1, #2130706432	; 0x7f000000
 800c5b0:	f441 0170 	orr.w	r1, r1, #15728640	; 0xf00000
 800c5b4:	f04f 0000 	mov.w	r0, #0
 800c5b8:	bd70      	pop	{r4, r5, r6, pc}
 800c5ba:	f041 41fe 	orr.w	r1, r1, #2130706432	; 0x7f000000
 800c5be:	f441 0178 	orr.w	r1, r1, #16252928	; 0xf80000
 800c5c2:	bd70      	pop	{r4, r5, r6, pc}

0800c5c4 <__aeabi_ddiv>:
 800c5c4:	b570      	push	{r4, r5, r6, lr}
 800c5c6:	f04f 0cff 	mov.w	ip, #255	; 0xff
 800c5ca:	f44c 6ce0 	orr.w	ip, ip, #1792	; 0x700
 800c5ce:	ea1c 5411 	ands.w	r4, ip, r1, lsr #20
 800c5d2:	bf1d      	ittte	ne
 800c5d4:	ea1c 5513 	andsne.w	r5, ip, r3, lsr #20
 800c5d8:	ea94 0f0c 	teqne	r4, ip
 800c5dc:	ea95 0f0c 	teqne	r5, ip
 800c5e0:	f000 f8a7 	bleq	800c732 <__aeabi_ddiv+0x16e>
 800c5e4:	eba4 0405 	sub.w	r4, r4, r5
 800c5e8:	ea81 0e03 	eor.w	lr, r1, r3
 800c5ec:	ea52 3503 	orrs.w	r5, r2, r3, lsl #12
 800c5f0:	ea4f 3101 	mov.w	r1, r1, lsl #12
 800c5f4:	f000 8088 	beq.w	800c708 <__aeabi_ddiv+0x144>
 800c5f8:	ea4f 3303 	mov.w	r3, r3, lsl #12
 800c5fc:	f04f 5580 	mov.w	r5, #268435456	; 0x10000000
 800c600:	ea45 1313 	orr.w	r3, r5, r3, lsr #4
 800c604:	ea43 6312 	orr.w	r3, r3, r2, lsr #24
 800c608:	ea4f 2202 	mov.w	r2, r2, lsl #8
 800c60c:	ea45 1511 	orr.w	r5, r5, r1, lsr #4
 800c610:	ea45 6510 	orr.w	r5, r5, r0, lsr #24
 800c614:	ea4f 2600 	mov.w	r6, r0, lsl #8
 800c618:	f00e 4100 	and.w	r1, lr, #2147483648	; 0x80000000
 800c61c:	429d      	cmp	r5, r3
 800c61e:	bf08      	it	eq
 800c620:	4296      	cmpeq	r6, r2
 800c622:	f144 04fd 	adc.w	r4, r4, #253	; 0xfd
 800c626:	f504 7440 	add.w	r4, r4, #768	; 0x300
 800c62a:	d202      	bcs.n	800c632 <__aeabi_ddiv+0x6e>
 800c62c:	085b      	lsrs	r3, r3, #1
 800c62e:	ea4f 0232 	mov.w	r2, r2, rrx
 800c632:	1ab6      	subs	r6, r6, r2
 800c634:	eb65 0503 	sbc.w	r5, r5, r3
 800c638:	085b      	lsrs	r3, r3, #1
 800c63a:	ea4f 0232 	mov.w	r2, r2, rrx
 800c63e:	f44f 1080 	mov.w	r0, #1048576	; 0x100000
 800c642:	f44f 2c00 	mov.w	ip, #524288	; 0x80000
 800c646:	ebb6 0e02 	subs.w	lr, r6, r2
 800c64a:	eb75 0e03 	sbcs.w	lr, r5, r3
 800c64e:	bf22      	ittt	cs
 800c650:	1ab6      	subcs	r6, r6, r2
 800c652:	4675      	movcs	r5, lr
 800c654:	ea40 000c 	orrcs.w	r0, r0, ip
 800c658:	085b      	lsrs	r3, r3, #1
 800c65a:	ea4f 0232 	mov.w	r2, r2, rrx
 800c65e:	ebb6 0e02 	subs.w	lr, r6, r2
 800c662:	eb75 0e03 	sbcs.w	lr, r5, r3
 800c666:	bf22      	ittt	cs
 800c668:	1ab6      	subcs	r6, r6, r2
 800c66a:	4675      	movcs	r5, lr
 800c66c:	ea40 005c 	orrcs.w	r0, r0, ip, lsr #1
 800c670:	085b      	lsrs	r3, r3, #1
 800c672:	ea4f 0232 	mov.w	r2, r2, rrx
 800c676:	ebb6 0e02 	subs.w	lr, r6, r2
 800c67a:	eb75 0e03 	sbcs.w	lr, r5, r3
 800c67e:	bf22      	ittt	cs
 800c680:	1ab6      	subcs	r6, r6, r2
 800c682:	4675      	movcs	r5, lr
 800c684:	ea40 009c 	orrcs.w	r0, r0, ip, lsr #2
 800c688:	085b      	lsrs	r3, r3, #1
 800c68a:	ea4f 0232 	mov.w	r2, r2, rrx
 800c68e:	ebb6 0e02 	subs.w	lr, r6, r2
 800c692:	eb75 0e03 	sbcs.w	lr, r5, r3
 800c696:	bf22      	ittt	cs
 800c698:	1ab6      	subcs	r6, r6, r2
 800c69a:	4675      	movcs	r5, lr
 800c69c:	ea40 00dc 	orrcs.w	r0, r0, ip, lsr #3
 800c6a0:	ea55 0e06 	orrs.w	lr, r5, r6
 800c6a4:	d018      	beq.n	800c6d8 <__aeabi_ddiv+0x114>
 800c6a6:	ea4f 1505 	mov.w	r5, r5, lsl #4
 800c6aa:	ea45 7516 	orr.w	r5, r5, r6, lsr #28
 800c6ae:	ea4f 1606 	mov.w	r6, r6, lsl #4
 800c6b2:	ea4f 03c3 	mov.w	r3, r3, lsl #3
 800c6b6:	ea43 7352 	orr.w	r3, r3, r2, lsr #29
 800c6ba:	ea4f 02c2 	mov.w	r2, r2, lsl #3
 800c6be:	ea5f 1c1c 	movs.w	ip, ip, lsr #4
 800c6c2:	d1c0      	bne.n	800c646 <__aeabi_ddiv+0x82>
 800c6c4:	f411 1f80 	tst.w	r1, #1048576	; 0x100000
 800c6c8:	d10b      	bne.n	800c6e2 <__aeabi_ddiv+0x11e>
 800c6ca:	ea41 0100 	orr.w	r1, r1, r0
 800c6ce:	f04f 0000 	mov.w	r0, #0
 800c6d2:	f04f 4c00 	mov.w	ip, #2147483648	; 0x80000000
 800c6d6:	e7b6      	b.n	800c646 <__aeabi_ddiv+0x82>
 800c6d8:	f411 1f80 	tst.w	r1, #1048576	; 0x100000
 800c6dc:	bf04      	itt	eq
 800c6de:	4301      	orreq	r1, r0
 800c6e0:	2000      	moveq	r0, #0
 800c6e2:	f1b4 0cfd 	subs.w	ip, r4, #253	; 0xfd
 800c6e6:	bf88      	it	hi
 800c6e8:	f5bc 6fe0 	cmphi.w	ip, #1792	; 0x700
 800c6ec:	f63f aeaf 	bhi.w	800c44e <__aeabi_dmul+0xde>
 800c6f0:	ebb5 0c03 	subs.w	ip, r5, r3
 800c6f4:	bf04      	itt	eq
 800c6f6:	ebb6 0c02 	subseq.w	ip, r6, r2
 800c6fa:	ea5f 0c50 	movseq.w	ip, r0, lsr #1
 800c6fe:	f150 0000 	adcs.w	r0, r0, #0
 800c702:	eb41 5104 	adc.w	r1, r1, r4, lsl #20
 800c706:	bd70      	pop	{r4, r5, r6, pc}
 800c708:	f00e 4e00 	and.w	lr, lr, #2147483648	; 0x80000000
 800c70c:	ea4e 3111 	orr.w	r1, lr, r1, lsr #12
 800c710:	eb14 045c 	adds.w	r4, r4, ip, lsr #1
 800c714:	bfc2      	ittt	gt
 800c716:	ebd4 050c 	rsbsgt	r5, r4, ip
 800c71a:	ea41 5104 	orrgt.w	r1, r1, r4, lsl #20
 800c71e:	bd70      	popgt	{r4, r5, r6, pc}
 800c720:	f441 1180 	orr.w	r1, r1, #1048576	; 0x100000
 800c724:	f04f 0e00 	mov.w	lr, #0
 800c728:	3c01      	subs	r4, #1
 800c72a:	e690      	b.n	800c44e <__aeabi_dmul+0xde>
 800c72c:	ea45 0e06 	orr.w	lr, r5, r6
 800c730:	e68d      	b.n	800c44e <__aeabi_dmul+0xde>
 800c732:	ea0c 5513 	and.w	r5, ip, r3, lsr #20
 800c736:	ea94 0f0c 	teq	r4, ip
 800c73a:	bf08      	it	eq
 800c73c:	ea95 0f0c 	teqeq	r5, ip
 800c740:	f43f af3b 	beq.w	800c5ba <__aeabi_dmul+0x24a>
 800c744:	ea94 0f0c 	teq	r4, ip
 800c748:	d10a      	bne.n	800c760 <__aeabi_ddiv+0x19c>
 800c74a:	ea50 3401 	orrs.w	r4, r0, r1, lsl #12
 800c74e:	f47f af34 	bne.w	800c5ba <__aeabi_dmul+0x24a>
 800c752:	ea95 0f0c 	teq	r5, ip
 800c756:	f47f af25 	bne.w	800c5a4 <__aeabi_dmul+0x234>
 800c75a:	4610      	mov	r0, r2
 800c75c:	4619      	mov	r1, r3
 800c75e:	e72c      	b.n	800c5ba <__aeabi_dmul+0x24a>
 800c760:	ea95 0f0c 	teq	r5, ip
 800c764:	d106      	bne.n	800c774 <__aeabi_ddiv+0x1b0>
 800c766:	ea52 3503 	orrs.w	r5, r2, r3, lsl #12
 800c76a:	f43f aefd 	beq.w	800c568 <__aeabi_dmul+0x1f8>
 800c76e:	4610      	mov	r0, r2
 800c770:	4619      	mov	r1, r3
 800c772:	e722      	b.n	800c5ba <__aeabi_dmul+0x24a>
 800c774:	ea50 0641 	orrs.w	r6, r0, r1, lsl #1
 800c778:	bf18      	it	ne
 800c77a:	ea52 0643 	orrsne.w	r6, r2, r3, lsl #1
 800c77e:	f47f aec5 	bne.w	800c50c <__aeabi_dmul+0x19c>
 800c782:	ea50 0441 	orrs.w	r4, r0, r1, lsl #1
 800c786:	f47f af0d 	bne.w	800c5a4 <__aeabi_dmul+0x234>
 800c78a:	ea52 0543 	orrs.w	r5, r2, r3, lsl #1
 800c78e:	f47f aeeb 	bne.w	800c568 <__aeabi_dmul+0x1f8>
 800c792:	e712      	b.n	800c5ba <__aeabi_dmul+0x24a>

0800c794 <__gedf2>:
 800c794:	f04f 3cff 	mov.w	ip, #4294967295
 800c798:	e006      	b.n	800c7a8 <__cmpdf2+0x4>
 800c79a:	bf00      	nop

0800c79c <__ledf2>:
 800c79c:	f04f 0c01 	mov.w	ip, #1
 800c7a0:	e002      	b.n	800c7a8 <__cmpdf2+0x4>
 800c7a2:	bf00      	nop

0800c7a4 <__cmpdf2>:
 800c7a4:	f04f 0c01 	mov.w	ip, #1
 800c7a8:	f84d cd04 	str.w	ip, [sp, #-4]!
 800c7ac:	ea4f 0c41 	mov.w	ip, r1, lsl #1
 800c7b0:	ea7f 5c6c 	mvns.w	ip, ip, asr #21
 800c7b4:	ea4f 0c43 	mov.w	ip, r3, lsl #1
 800c7b8:	bf18      	it	ne
 800c7ba:	ea7f 5c6c 	mvnsne.w	ip, ip, asr #21
 800c7be:	d01b      	beq.n	800c7f8 <__cmpdf2+0x54>
 800c7c0:	b001      	add	sp, #4
 800c7c2:	ea50 0c41 	orrs.w	ip, r0, r1, lsl #1
 800c7c6:	bf0c      	ite	eq
 800c7c8:	ea52 0c43 	orrseq.w	ip, r2, r3, lsl #1
 800c7cc:	ea91 0f03 	teqne	r1, r3
 800c7d0:	bf02      	ittt	eq
 800c7d2:	ea90 0f02 	teqeq	r0, r2
 800c7d6:	2000      	moveq	r0, #0
 800c7d8:	4770      	bxeq	lr
 800c7da:	f110 0f00 	cmn.w	r0, #0
 800c7de:	ea91 0f03 	teq	r1, r3
 800c7e2:	bf58      	it	pl
 800c7e4:	4299      	cmppl	r1, r3
 800c7e6:	bf08      	it	eq
 800c7e8:	4290      	cmpeq	r0, r2
 800c7ea:	bf2c      	ite	cs
 800c7ec:	17d8      	asrcs	r0, r3, #31
 800c7ee:	ea6f 70e3 	mvncc.w	r0, r3, asr #31
 800c7f2:	f040 0001 	orr.w	r0, r0, #1
 800c7f6:	4770      	bx	lr
 800c7f8:	ea4f 0c41 	mov.w	ip, r1, lsl #1
 800c7fc:	ea7f 5c6c 	mvns.w	ip, ip, asr #21
 800c800:	d102      	bne.n	800c808 <__cmpdf2+0x64>
 800c802:	ea50 3c01 	orrs.w	ip, r0, r1, lsl #12
 800c806:	d107      	bne.n	800c818 <__cmpdf2+0x74>
 800c808:	ea4f 0c43 	mov.w	ip, r3, lsl #1
 800c80c:	ea7f 5c6c 	mvns.w	ip, ip, asr #21
 800c810:	d1d6      	bne.n	800c7c0 <__cmpdf2+0x1c>
 800c812:	ea52 3c03 	orrs.w	ip, r2, r3, lsl #12
 800c816:	d0d3      	beq.n	800c7c0 <__cmpdf2+0x1c>
 800c818:	f85d 0b04 	ldr.w	r0, [sp], #4
 800c81c:	4770      	bx	lr
 800c81e:	bf00      	nop

0800c820 <__aeabi_cdrcmple>:
 800c820:	4684      	mov	ip, r0
 800c822:	4610      	mov	r0, r2
 800c824:	4662      	mov	r2, ip
 800c826:	468c      	mov	ip, r1
 800c828:	4619      	mov	r1, r3
 800c82a:	4663      	mov	r3, ip
 800c82c:	e000      	b.n	800c830 <__aeabi_cdcmpeq>
 800c82e:	bf00      	nop

0800c830 <__aeabi_cdcmpeq>:
 800c830:	b501      	push	{r0, lr}
 800c832:	f7ff ffb7 	bl	800c7a4 <__cmpdf2>
 800c836:	2800      	cmp	r0, #0
 800c838:	bf48      	it	mi
 800c83a:	f110 0f00 	cmnmi.w	r0, #0
 800c83e:	bd01      	pop	{r0, pc}

0800c840 <__aeabi_dcmpeq>:
 800c840:	f84d ed08 	str.w	lr, [sp, #-8]!
 800c844:	f7ff fff4 	bl	800c830 <__aeabi_cdcmpeq>
 800c848:	bf0c      	ite	eq
 800c84a:	2001      	moveq	r0, #1
 800c84c:	2000      	movne	r0, #0
 800c84e:	f85d fb08 	ldr.w	pc, [sp], #8
 800c852:	bf00      	nop

0800c854 <__aeabi_dcmplt>:
 800c854:	f84d ed08 	str.w	lr, [sp, #-8]!
 800c858:	f7ff ffea 	bl	800c830 <__aeabi_cdcmpeq>
 800c85c:	bf34      	ite	cc
 800c85e:	2001      	movcc	r0, #1
 800c860:	2000      	movcs	r0, #0
 800c862:	f85d fb08 	ldr.w	pc, [sp], #8
 800c866:	bf00      	nop

0800c868 <__aeabi_dcmple>:
 800c868:	f84d ed08 	str.w	lr, [sp, #-8]!
 800c86c:	f7ff ffe0 	bl	800c830 <__aeabi_cdcmpeq>
 800c870:	bf94      	ite	ls
 800c872:	2001      	movls	r0, #1
 800c874:	2000      	movhi	r0, #0
 800c876:	f85d fb08 	ldr.w	pc, [sp], #8
 800c87a:	bf00      	nop

0800c87c <__aeabi_dcmpge>:
 800c87c:	f84d ed08 	str.w	lr, [sp, #-8]!
 800c880:	f7ff ffce 	bl	800c820 <__aeabi_cdrcmple>
 800c884:	bf94      	ite	ls
 800c886:	2001      	movls	r0, #1
 800c888:	2000      	movhi	r0, #0
 800c88a:	f85d fb08 	ldr.w	pc, [sp], #8
 800c88e:	bf00      	nop

0800c890 <__aeabi_dcmpgt>:
 800c890:	f84d ed08 	str.w	lr, [sp, #-8]!
 800c894:	f7ff ffc4 	bl	800c820 <__aeabi_cdrcmple>
 800c898:	bf34      	ite	cc
 800c89a:	2001      	movcc	r0, #1
 800c89c:	2000      	movcs	r0, #0
 800c89e:	f85d fb08 	ldr.w	pc, [sp], #8
 800c8a2:	bf00      	nop

0800c8a4 <__aeabi_d2iz>:
 800c8a4:	ea4f 0241 	mov.w	r2, r1, lsl #1
 800c8a8:	f512 1200 	adds.w	r2, r2, #2097152	; 0x200000
 800c8ac:	d215      	bcs.n	800c8da <__aeabi_d2iz+0x36>
 800c8ae:	d511      	bpl.n	800c8d4 <__aeabi_d2iz+0x30>
 800c8b0:	f46f 7378 	mvn.w	r3, #992	; 0x3e0
 800c8b4:	ebb3 5262 	subs.w	r2, r3, r2, asr #21
 800c8b8:	d912      	bls.n	800c8e0 <__aeabi_d2iz+0x3c>
 800c8ba:	ea4f 23c1 	mov.w	r3, r1, lsl #11
 800c8be:	f043 4300 	orr.w	r3, r3, #2147483648	; 0x80000000
 800c8c2:	ea43 5350 	orr.w	r3, r3, r0, lsr #21
 800c8c6:	f011 4f00 	tst.w	r1, #2147483648	; 0x80000000
 800c8ca:	fa23 f002 	lsr.w	r0, r3, r2
 800c8ce:	bf18      	it	ne
 800c8d0:	4240      	negne	r0, r0
 800c8d2:	4770      	bx	lr
 800c8d4:	f04f 0000 	mov.w	r0, #0
 800c8d8:	4770      	bx	lr
 800c8da:	ea50 3001 	orrs.w	r0, r0, r1, lsl #12
 800c8de:	d105      	bne.n	800c8ec <__aeabi_d2iz+0x48>
 800c8e0:	f011 4000 	ands.w	r0, r1, #2147483648	; 0x80000000
 800c8e4:	bf08      	it	eq
 800c8e6:	f06f 4000 	mvneq.w	r0, #2147483648	; 0x80000000
 800c8ea:	4770      	bx	lr
 800c8ec:	f04f 0000 	mov.w	r0, #0
 800c8f0:	4770      	bx	lr
 800c8f2:	bf00      	nop

0800c8f4 <__aeabi_ldivmod>:
 800c8f4:	b973      	cbnz	r3, 800c914 <__aeabi_ldivmod+0x20>
 800c8f6:	b96a      	cbnz	r2, 800c914 <__aeabi_ldivmod+0x20>
 800c8f8:	2900      	cmp	r1, #0
 800c8fa:	bf08      	it	eq
 800c8fc:	2800      	cmpeq	r0, #0
 800c8fe:	bfbc      	itt	lt
 800c900:	2000      	movlt	r0, #0
 800c902:	f04f 4100 	movlt.w	r1, #2147483648	; 0x80000000
 800c906:	bfc4      	itt	gt
 800c908:	f06f 4100 	mvngt.w	r1, #2147483648	; 0x80000000
 800c90c:	f04f 30ff 	movgt.w	r0, #4294967295
 800c910:	f000 b84e 	b.w	800c9b0 <__aeabi_idiv0>
 800c914:	b082      	sub	sp, #8
 800c916:	46ec      	mov	ip, sp
 800c918:	e92d 5000 	stmdb	sp!, {ip, lr}
 800c91c:	f000 f81c 	bl	800c958 <__gnu_ldivmod_helper>
 800c920:	f8dd e004 	ldr.w	lr, [sp, #4]
 800c924:	b002      	add	sp, #8
 800c926:	bc0c      	pop	{r2, r3}
 800c928:	4770      	bx	lr
 800c92a:	bf00      	nop

0800c92c <__aeabi_uldivmod>:
 800c92c:	b94b      	cbnz	r3, 800c942 <__aeabi_uldivmod+0x16>
 800c92e:	b942      	cbnz	r2, 800c942 <__aeabi_uldivmod+0x16>
 800c930:	2900      	cmp	r1, #0
 800c932:	bf08      	it	eq
 800c934:	2800      	cmpeq	r0, #0
 800c936:	d002      	beq.n	800c93e <__aeabi_uldivmod+0x12>
 800c938:	f04f 31ff 	mov.w	r1, #4294967295
 800c93c:	4608      	mov	r0, r1
 800c93e:	f000 b837 	b.w	800c9b0 <__aeabi_idiv0>
 800c942:	b082      	sub	sp, #8
 800c944:	46ec      	mov	ip, sp
 800c946:	e92d 5000 	stmdb	sp!, {ip, lr}
 800c94a:	f000 f81b 	bl	800c984 <__gnu_uldivmod_helper>
 800c94e:	f8dd e004 	ldr.w	lr, [sp, #4]
 800c952:	b002      	add	sp, #8
 800c954:	bc0c      	pop	{r2, r3}
 800c956:	4770      	bx	lr

0800c958 <__gnu_ldivmod_helper>:
 800c958:	b5f8      	push	{r3, r4, r5, r6, r7, lr}
 800c95a:	4616      	mov	r6, r2
 800c95c:	4604      	mov	r4, r0
 800c95e:	460d      	mov	r5, r1
 800c960:	461f      	mov	r7, r3
 800c962:	f000 f827 	bl	800c9b4 <__divdi3>
 800c966:	fb06 f301 	mul.w	r3, r6, r1
 800c96a:	fb00 3707 	mla	r7, r0, r7, r3
 800c96e:	fba6 2300 	umull	r2, r3, r6, r0
 800c972:	18fb      	adds	r3, r7, r3
 800c974:	1aa2      	subs	r2, r4, r2
 800c976:	eb65 0303 	sbc.w	r3, r5, r3
 800c97a:	9c06      	ldr	r4, [sp, #24]
 800c97c:	e9c4 2300 	strd	r2, r3, [r4]
 800c980:	bdf8      	pop	{r3, r4, r5, r6, r7, pc}
 800c982:	bf00      	nop

0800c984 <__gnu_uldivmod_helper>:
 800c984:	b5f8      	push	{r3, r4, r5, r6, r7, lr}
 800c986:	4616      	mov	r6, r2
 800c988:	4604      	mov	r4, r0
 800c98a:	460d      	mov	r5, r1
 800c98c:	461f      	mov	r7, r3
 800c98e:	f000 f96f 	bl	800cc70 <__udivdi3>
 800c992:	fb00 f707 	mul.w	r7, r0, r7
 800c996:	fba0 2306 	umull	r2, r3, r0, r6
 800c99a:	fb06 7701 	mla	r7, r6, r1, r7
 800c99e:	18fb      	adds	r3, r7, r3
 800c9a0:	1aa2      	subs	r2, r4, r2
 800c9a2:	eb65 0303 	sbc.w	r3, r5, r3
 800c9a6:	9c06      	ldr	r4, [sp, #24]
 800c9a8:	e9c4 2300 	strd	r2, r3, [r4]
 800c9ac:	bdf8      	pop	{r3, r4, r5, r6, r7, pc}
 800c9ae:	bf00      	nop

0800c9b0 <__aeabi_idiv0>:
 800c9b0:	4770      	bx	lr
 800c9b2:	bf00      	nop

0800c9b4 <__divdi3>:
 800c9b4:	2900      	cmp	r1, #0
 800c9b6:	e92d 0ff0 	stmdb	sp!, {r4, r5, r6, r7, r8, r9, sl, fp}
 800c9ba:	461d      	mov	r5, r3
 800c9bc:	f2c0 809d 	blt.w	800cafa <__divdi3+0x146>
 800c9c0:	2400      	movs	r4, #0
 800c9c2:	2d00      	cmp	r5, #0
 800c9c4:	f2c0 8094 	blt.w	800caf0 <__divdi3+0x13c>
 800c9c8:	4680      	mov	r8, r0
 800c9ca:	460f      	mov	r7, r1
 800c9cc:	4694      	mov	ip, r2
 800c9ce:	461e      	mov	r6, r3
 800c9d0:	bbe3      	cbnz	r3, 800ca4c <__divdi3+0x98>
 800c9d2:	428a      	cmp	r2, r1
 800c9d4:	d955      	bls.n	800ca82 <__divdi3+0xce>
 800c9d6:	fab2 f782 	clz	r7, r2
 800c9da:	b147      	cbz	r7, 800c9ee <__divdi3+0x3a>
 800c9dc:	f1c7 0520 	rsb	r5, r7, #32
 800c9e0:	fa20 f605 	lsr.w	r6, r0, r5
 800c9e4:	fa01 f107 	lsl.w	r1, r1, r7
 800c9e8:	40ba      	lsls	r2, r7
 800c9ea:	4331      	orrs	r1, r6
 800c9ec:	40b8      	lsls	r0, r7
 800c9ee:	0c17      	lsrs	r7, r2, #16
 800c9f0:	fbb1 f6f7 	udiv	r6, r1, r7
 800c9f4:	0c03      	lsrs	r3, r0, #16
 800c9f6:	fa1f fc82 	uxth.w	ip, r2
 800c9fa:	fb07 1116 	mls	r1, r7, r6, r1
 800c9fe:	fb0c f506 	mul.w	r5, ip, r6
 800ca02:	ea43 4301 	orr.w	r3, r3, r1, lsl #16
 800ca06:	429d      	cmp	r5, r3
 800ca08:	d908      	bls.n	800ca1c <__divdi3+0x68>
 800ca0a:	1e71      	subs	r1, r6, #1
 800ca0c:	189b      	adds	r3, r3, r2
 800ca0e:	f080 8113 	bcs.w	800cc38 <__divdi3+0x284>
 800ca12:	429d      	cmp	r5, r3
 800ca14:	f240 8110 	bls.w	800cc38 <__divdi3+0x284>
 800ca18:	3e02      	subs	r6, #2
 800ca1a:	189b      	adds	r3, r3, r2
 800ca1c:	1b59      	subs	r1, r3, r5
 800ca1e:	fbb1 f5f7 	udiv	r5, r1, r7
 800ca22:	fb07 1315 	mls	r3, r7, r5, r1
 800ca26:	b280      	uxth	r0, r0
 800ca28:	fb0c fc05 	mul.w	ip, ip, r5
 800ca2c:	ea40 4103 	orr.w	r1, r0, r3, lsl #16
 800ca30:	458c      	cmp	ip, r1
 800ca32:	d907      	bls.n	800ca44 <__divdi3+0x90>
 800ca34:	1e6b      	subs	r3, r5, #1
 800ca36:	188a      	adds	r2, r1, r2
 800ca38:	f080 8100 	bcs.w	800cc3c <__divdi3+0x288>
 800ca3c:	4594      	cmp	ip, r2
 800ca3e:	f240 80fd 	bls.w	800cc3c <__divdi3+0x288>
 800ca42:	3d02      	subs	r5, #2
 800ca44:	ea45 4106 	orr.w	r1, r5, r6, lsl #16
 800ca48:	2500      	movs	r5, #0
 800ca4a:	e003      	b.n	800ca54 <__divdi3+0xa0>
 800ca4c:	428b      	cmp	r3, r1
 800ca4e:	d90c      	bls.n	800ca6a <__divdi3+0xb6>
 800ca50:	2500      	movs	r5, #0
 800ca52:	4629      	mov	r1, r5
 800ca54:	460a      	mov	r2, r1
 800ca56:	462b      	mov	r3, r5
 800ca58:	b114      	cbz	r4, 800ca60 <__divdi3+0xac>
 800ca5a:	4252      	negs	r2, r2
 800ca5c:	eb63 0343 	sbc.w	r3, r3, r3, lsl #1
 800ca60:	4610      	mov	r0, r2
 800ca62:	4619      	mov	r1, r3
 800ca64:	e8bd 0ff0 	ldmia.w	sp!, {r4, r5, r6, r7, r8, r9, sl, fp}
 800ca68:	4770      	bx	lr
 800ca6a:	fab3 f583 	clz	r5, r3
 800ca6e:	2d00      	cmp	r5, #0
 800ca70:	f040 8087 	bne.w	800cb82 <__divdi3+0x1ce>
 800ca74:	428b      	cmp	r3, r1
 800ca76:	d301      	bcc.n	800ca7c <__divdi3+0xc8>
 800ca78:	4282      	cmp	r2, r0
 800ca7a:	d8ea      	bhi.n	800ca52 <__divdi3+0x9e>
 800ca7c:	2500      	movs	r5, #0
 800ca7e:	2101      	movs	r1, #1
 800ca80:	e7e8      	b.n	800ca54 <__divdi3+0xa0>
 800ca82:	b912      	cbnz	r2, 800ca8a <__divdi3+0xd6>
 800ca84:	2601      	movs	r6, #1
 800ca86:	fbb6 f2f2 	udiv	r2, r6, r2
 800ca8a:	fab2 f682 	clz	r6, r2
 800ca8e:	2e00      	cmp	r6, #0
 800ca90:	d139      	bne.n	800cb06 <__divdi3+0x152>
 800ca92:	1a8e      	subs	r6, r1, r2
 800ca94:	0c13      	lsrs	r3, r2, #16
 800ca96:	fa1f fc82 	uxth.w	ip, r2
 800ca9a:	2501      	movs	r5, #1
 800ca9c:	fbb6 f7f3 	udiv	r7, r6, r3
 800caa0:	fb03 6117 	mls	r1, r3, r7, r6
 800caa4:	ea4f 4910 	mov.w	r9, r0, lsr #16
 800caa8:	fb0c f807 	mul.w	r8, ip, r7
 800caac:	ea49 4601 	orr.w	r6, r9, r1, lsl #16
 800cab0:	45b0      	cmp	r8, r6
 800cab2:	d906      	bls.n	800cac2 <__divdi3+0x10e>
 800cab4:	1e79      	subs	r1, r7, #1
 800cab6:	18b6      	adds	r6, r6, r2
 800cab8:	d202      	bcs.n	800cac0 <__divdi3+0x10c>
 800caba:	45b0      	cmp	r8, r6
 800cabc:	f200 80d3 	bhi.w	800cc66 <__divdi3+0x2b2>
 800cac0:	460f      	mov	r7, r1
 800cac2:	ebc8 0606 	rsb	r6, r8, r6
 800cac6:	fbb6 f1f3 	udiv	r1, r6, r3
 800caca:	fb03 6311 	mls	r3, r3, r1, r6
 800cace:	b280      	uxth	r0, r0
 800cad0:	fb0c fc01 	mul.w	ip, ip, r1
 800cad4:	ea40 4303 	orr.w	r3, r0, r3, lsl #16
 800cad8:	459c      	cmp	ip, r3
 800cada:	d906      	bls.n	800caea <__divdi3+0x136>
 800cadc:	1e4e      	subs	r6, r1, #1
 800cade:	189a      	adds	r2, r3, r2
 800cae0:	d202      	bcs.n	800cae8 <__divdi3+0x134>
 800cae2:	4594      	cmp	ip, r2
 800cae4:	f200 80c2 	bhi.w	800cc6c <__divdi3+0x2b8>
 800cae8:	4631      	mov	r1, r6
 800caea:	ea41 4107 	orr.w	r1, r1, r7, lsl #16
 800caee:	e7b1      	b.n	800ca54 <__divdi3+0xa0>
 800caf0:	43e4      	mvns	r4, r4
 800caf2:	4252      	negs	r2, r2
 800caf4:	eb63 0343 	sbc.w	r3, r3, r3, lsl #1
 800caf8:	e766      	b.n	800c9c8 <__divdi3+0x14>
 800cafa:	4240      	negs	r0, r0
 800cafc:	eb61 0141 	sbc.w	r1, r1, r1, lsl #1
 800cb00:	f04f 34ff 	mov.w	r4, #4294967295
 800cb04:	e75d      	b.n	800c9c2 <__divdi3+0xe>
 800cb06:	40b2      	lsls	r2, r6
 800cb08:	f1c6 0920 	rsb	r9, r6, #32
 800cb0c:	fa21 f709 	lsr.w	r7, r1, r9
 800cb10:	fa20 f509 	lsr.w	r5, r0, r9
 800cb14:	0c13      	lsrs	r3, r2, #16
 800cb16:	fa01 f106 	lsl.w	r1, r1, r6
 800cb1a:	fbb7 f8f3 	udiv	r8, r7, r3
 800cb1e:	ea45 0901 	orr.w	r9, r5, r1
 800cb22:	fa1f fc82 	uxth.w	ip, r2
 800cb26:	fb03 7718 	mls	r7, r3, r8, r7
 800cb2a:	ea4f 4119 	mov.w	r1, r9, lsr #16
 800cb2e:	fb0c f508 	mul.w	r5, ip, r8
 800cb32:	ea41 4707 	orr.w	r7, r1, r7, lsl #16
 800cb36:	40b0      	lsls	r0, r6
 800cb38:	42bd      	cmp	r5, r7
 800cb3a:	d90a      	bls.n	800cb52 <__divdi3+0x19e>
 800cb3c:	18bf      	adds	r7, r7, r2
 800cb3e:	f108 36ff 	add.w	r6, r8, #4294967295
 800cb42:	f080 808e 	bcs.w	800cc62 <__divdi3+0x2ae>
 800cb46:	42bd      	cmp	r5, r7
 800cb48:	f240 808b 	bls.w	800cc62 <__divdi3+0x2ae>
 800cb4c:	f1a8 0802 	sub.w	r8, r8, #2
 800cb50:	18bf      	adds	r7, r7, r2
 800cb52:	1b79      	subs	r1, r7, r5
 800cb54:	fbb1 f5f3 	udiv	r5, r1, r3
 800cb58:	fb03 1715 	mls	r7, r3, r5, r1
 800cb5c:	fa1f f989 	uxth.w	r9, r9
 800cb60:	fb0c f605 	mul.w	r6, ip, r5
 800cb64:	ea49 4107 	orr.w	r1, r9, r7, lsl #16
 800cb68:	428e      	cmp	r6, r1
 800cb6a:	d906      	bls.n	800cb7a <__divdi3+0x1c6>
 800cb6c:	1e6f      	subs	r7, r5, #1
 800cb6e:	1889      	adds	r1, r1, r2
 800cb70:	d271      	bcs.n	800cc56 <__divdi3+0x2a2>
 800cb72:	428e      	cmp	r6, r1
 800cb74:	d96f      	bls.n	800cc56 <__divdi3+0x2a2>
 800cb76:	3d02      	subs	r5, #2
 800cb78:	1889      	adds	r1, r1, r2
 800cb7a:	1b8e      	subs	r6, r1, r6
 800cb7c:	ea45 4508 	orr.w	r5, r5, r8, lsl #16
 800cb80:	e78c      	b.n	800ca9c <__divdi3+0xe8>
 800cb82:	f1c5 0120 	rsb	r1, r5, #32
 800cb86:	fa22 f301 	lsr.w	r3, r2, r1
 800cb8a:	fa06 f605 	lsl.w	r6, r6, r5
 800cb8e:	431e      	orrs	r6, r3
 800cb90:	fa27 f201 	lsr.w	r2, r7, r1
 800cb94:	ea4f 4916 	mov.w	r9, r6, lsr #16
 800cb98:	fa07 f705 	lsl.w	r7, r7, r5
 800cb9c:	fa20 f101 	lsr.w	r1, r0, r1
 800cba0:	fbb2 f8f9 	udiv	r8, r2, r9
 800cba4:	430f      	orrs	r7, r1
 800cba6:	0c3b      	lsrs	r3, r7, #16
 800cba8:	fa1f fa86 	uxth.w	sl, r6
 800cbac:	fb09 2218 	mls	r2, r9, r8, r2
 800cbb0:	fb0a fb08 	mul.w	fp, sl, r8
 800cbb4:	ea43 4202 	orr.w	r2, r3, r2, lsl #16
 800cbb8:	4593      	cmp	fp, r2
 800cbba:	fa0c fc05 	lsl.w	ip, ip, r5
 800cbbe:	d908      	bls.n	800cbd2 <__divdi3+0x21e>
 800cbc0:	1992      	adds	r2, r2, r6
 800cbc2:	f108 31ff 	add.w	r1, r8, #4294967295
 800cbc6:	d24a      	bcs.n	800cc5e <__divdi3+0x2aa>
 800cbc8:	4593      	cmp	fp, r2
 800cbca:	d948      	bls.n	800cc5e <__divdi3+0x2aa>
 800cbcc:	f1a8 0802 	sub.w	r8, r8, #2
 800cbd0:	1992      	adds	r2, r2, r6
 800cbd2:	ebcb 0302 	rsb	r3, fp, r2
 800cbd6:	fbb3 f1f9 	udiv	r1, r3, r9
 800cbda:	fb09 3211 	mls	r2, r9, r1, r3
 800cbde:	b2bf      	uxth	r7, r7
 800cbe0:	fb0a fa01 	mul.w	sl, sl, r1
 800cbe4:	ea47 4302 	orr.w	r3, r7, r2, lsl #16
 800cbe8:	459a      	cmp	sl, r3
 800cbea:	d906      	bls.n	800cbfa <__divdi3+0x246>
 800cbec:	1e4a      	subs	r2, r1, #1
 800cbee:	199b      	adds	r3, r3, r6
 800cbf0:	d233      	bcs.n	800cc5a <__divdi3+0x2a6>
 800cbf2:	459a      	cmp	sl, r3
 800cbf4:	d931      	bls.n	800cc5a <__divdi3+0x2a6>
 800cbf6:	3902      	subs	r1, #2
 800cbf8:	199b      	adds	r3, r3, r6
 800cbfa:	ea41 4108 	orr.w	r1, r1, r8, lsl #16
 800cbfe:	0c0f      	lsrs	r7, r1, #16
 800cc00:	fa1f f88c 	uxth.w	r8, ip
 800cc04:	fb08 f607 	mul.w	r6, r8, r7
 800cc08:	b28a      	uxth	r2, r1
 800cc0a:	ea4f 4c1c 	mov.w	ip, ip, lsr #16
 800cc0e:	fb08 f802 	mul.w	r8, r8, r2
 800cc12:	fb0c 6202 	mla	r2, ip, r2, r6
 800cc16:	eb02 4218 	add.w	r2, r2, r8, lsr #16
 800cc1a:	fb0c fc07 	mul.w	ip, ip, r7
 800cc1e:	4296      	cmp	r6, r2
 800cc20:	bf88      	it	hi
 800cc22:	f50c 3c80 	addhi.w	ip, ip, #65536	; 0x10000
 800cc26:	ebca 0303 	rsb	r3, sl, r3
 800cc2a:	eb0c 4c12 	add.w	ip, ip, r2, lsr #16
 800cc2e:	4563      	cmp	r3, ip
 800cc30:	d30e      	bcc.n	800cc50 <__divdi3+0x29c>
 800cc32:	d005      	beq.n	800cc40 <__divdi3+0x28c>
 800cc34:	2500      	movs	r5, #0
 800cc36:	e70d      	b.n	800ca54 <__divdi3+0xa0>
 800cc38:	460e      	mov	r6, r1
 800cc3a:	e6ef      	b.n	800ca1c <__divdi3+0x68>
 800cc3c:	461d      	mov	r5, r3
 800cc3e:	e701      	b.n	800ca44 <__divdi3+0x90>
 800cc40:	fa1f f888 	uxth.w	r8, r8
 800cc44:	fa00 f005 	lsl.w	r0, r0, r5
 800cc48:	eb08 4502 	add.w	r5, r8, r2, lsl #16
 800cc4c:	42a8      	cmp	r0, r5
 800cc4e:	d2f1      	bcs.n	800cc34 <__divdi3+0x280>
 800cc50:	3901      	subs	r1, #1
 800cc52:	2500      	movs	r5, #0
 800cc54:	e6fe      	b.n	800ca54 <__divdi3+0xa0>
 800cc56:	463d      	mov	r5, r7
 800cc58:	e78f      	b.n	800cb7a <__divdi3+0x1c6>
 800cc5a:	4611      	mov	r1, r2
 800cc5c:	e7cd      	b.n	800cbfa <__divdi3+0x246>
 800cc5e:	4688      	mov	r8, r1
 800cc60:	e7b7      	b.n	800cbd2 <__divdi3+0x21e>
 800cc62:	46b0      	mov	r8, r6
 800cc64:	e775      	b.n	800cb52 <__divdi3+0x19e>
 800cc66:	3f02      	subs	r7, #2
 800cc68:	18b6      	adds	r6, r6, r2
 800cc6a:	e72a      	b.n	800cac2 <__divdi3+0x10e>
 800cc6c:	3902      	subs	r1, #2
 800cc6e:	e73c      	b.n	800caea <__divdi3+0x136>

0800cc70 <__udivdi3>:
 800cc70:	e92d 07f0 	stmdb	sp!, {r4, r5, r6, r7, r8, r9, sl}
 800cc74:	4614      	mov	r4, r2
 800cc76:	4605      	mov	r5, r0
 800cc78:	460e      	mov	r6, r1
 800cc7a:	2b00      	cmp	r3, #0
 800cc7c:	d13d      	bne.n	800ccfa <__udivdi3+0x8a>
 800cc7e:	428a      	cmp	r2, r1
 800cc80:	d949      	bls.n	800cd16 <__udivdi3+0xa6>
 800cc82:	fab2 f782 	clz	r7, r2
 800cc86:	b147      	cbz	r7, 800cc9a <__udivdi3+0x2a>
 800cc88:	f1c7 0120 	rsb	r1, r7, #32
 800cc8c:	fa20 f201 	lsr.w	r2, r0, r1
 800cc90:	fa06 f607 	lsl.w	r6, r6, r7
 800cc94:	40bc      	lsls	r4, r7
 800cc96:	4316      	orrs	r6, r2
 800cc98:	40bd      	lsls	r5, r7
 800cc9a:	0c22      	lsrs	r2, r4, #16
 800cc9c:	fbb6 f0f2 	udiv	r0, r6, r2
 800cca0:	0c2f      	lsrs	r7, r5, #16
 800cca2:	b2a1      	uxth	r1, r4
 800cca4:	fb02 6610 	mls	r6, r2, r0, r6
 800cca8:	fb01 f300 	mul.w	r3, r1, r0
 800ccac:	ea47 4606 	orr.w	r6, r7, r6, lsl #16
 800ccb0:	42b3      	cmp	r3, r6
 800ccb2:	d908      	bls.n	800ccc6 <__udivdi3+0x56>
 800ccb4:	1e47      	subs	r7, r0, #1
 800ccb6:	1936      	adds	r6, r6, r4
 800ccb8:	f080 80f8 	bcs.w	800ceac <__udivdi3+0x23c>
 800ccbc:	42b3      	cmp	r3, r6
 800ccbe:	f240 80f5 	bls.w	800ceac <__udivdi3+0x23c>
 800ccc2:	3802      	subs	r0, #2
 800ccc4:	1936      	adds	r6, r6, r4
 800ccc6:	1af6      	subs	r6, r6, r3
 800ccc8:	fbb6 f3f2 	udiv	r3, r6, r2
 800cccc:	fb02 6213 	mls	r2, r2, r3, r6
 800ccd0:	b2ad      	uxth	r5, r5
 800ccd2:	fb01 f103 	mul.w	r1, r1, r3
 800ccd6:	ea45 4202 	orr.w	r2, r5, r2, lsl #16
 800ccda:	4291      	cmp	r1, r2
 800ccdc:	d907      	bls.n	800ccee <__udivdi3+0x7e>
 800ccde:	1e5e      	subs	r6, r3, #1
 800cce0:	1912      	adds	r2, r2, r4
 800cce2:	f080 80e5 	bcs.w	800ceb0 <__udivdi3+0x240>
 800cce6:	4291      	cmp	r1, r2
 800cce8:	f240 80e2 	bls.w	800ceb0 <__udivdi3+0x240>
 800ccec:	3b02      	subs	r3, #2
 800ccee:	ea43 4000 	orr.w	r0, r3, r0, lsl #16
 800ccf2:	2100      	movs	r1, #0
 800ccf4:	e8bd 07f0 	ldmia.w	sp!, {r4, r5, r6, r7, r8, r9, sl}
 800ccf8:	4770      	bx	lr
 800ccfa:	428b      	cmp	r3, r1
 800ccfc:	d843      	bhi.n	800cd86 <__udivdi3+0x116>
 800ccfe:	fab3 f483 	clz	r4, r3
 800cd02:	2c00      	cmp	r4, #0
 800cd04:	d142      	bne.n	800cd8c <__udivdi3+0x11c>
 800cd06:	428b      	cmp	r3, r1
 800cd08:	d302      	bcc.n	800cd10 <__udivdi3+0xa0>
 800cd0a:	4282      	cmp	r2, r0
 800cd0c:	f200 80df 	bhi.w	800cece <__udivdi3+0x25e>
 800cd10:	2100      	movs	r1, #0
 800cd12:	2001      	movs	r0, #1
 800cd14:	e7ee      	b.n	800ccf4 <__udivdi3+0x84>
 800cd16:	b912      	cbnz	r2, 800cd1e <__udivdi3+0xae>
 800cd18:	2701      	movs	r7, #1
 800cd1a:	fbb7 f4f2 	udiv	r4, r7, r2
 800cd1e:	fab4 f284 	clz	r2, r4
 800cd22:	2a00      	cmp	r2, #0
 800cd24:	f040 8088 	bne.w	800ce38 <__udivdi3+0x1c8>
 800cd28:	1b0a      	subs	r2, r1, r4
 800cd2a:	0c23      	lsrs	r3, r4, #16
 800cd2c:	b2a7      	uxth	r7, r4
 800cd2e:	2101      	movs	r1, #1
 800cd30:	fbb2 f6f3 	udiv	r6, r2, r3
 800cd34:	fb03 2216 	mls	r2, r3, r6, r2
 800cd38:	ea4f 4c15 	mov.w	ip, r5, lsr #16
 800cd3c:	fb07 f006 	mul.w	r0, r7, r6
 800cd40:	ea4c 4202 	orr.w	r2, ip, r2, lsl #16
 800cd44:	4290      	cmp	r0, r2
 800cd46:	d907      	bls.n	800cd58 <__udivdi3+0xe8>
 800cd48:	1912      	adds	r2, r2, r4
 800cd4a:	f106 3cff 	add.w	ip, r6, #4294967295
 800cd4e:	d202      	bcs.n	800cd56 <__udivdi3+0xe6>
 800cd50:	4290      	cmp	r0, r2
 800cd52:	f200 80ce 	bhi.w	800cef2 <__udivdi3+0x282>
 800cd56:	4666      	mov	r6, ip
 800cd58:	1a12      	subs	r2, r2, r0
 800cd5a:	fbb2 f0f3 	udiv	r0, r2, r3
 800cd5e:	fb03 2310 	mls	r3, r3, r0, r2
 800cd62:	b2ad      	uxth	r5, r5
 800cd64:	fb07 f700 	mul.w	r7, r7, r0
 800cd68:	ea45 4303 	orr.w	r3, r5, r3, lsl #16
 800cd6c:	429f      	cmp	r7, r3
 800cd6e:	d907      	bls.n	800cd80 <__udivdi3+0x110>
 800cd70:	1e42      	subs	r2, r0, #1
 800cd72:	191b      	adds	r3, r3, r4
 800cd74:	f080 809e 	bcs.w	800ceb4 <__udivdi3+0x244>
 800cd78:	429f      	cmp	r7, r3
 800cd7a:	f240 809b 	bls.w	800ceb4 <__udivdi3+0x244>
 800cd7e:	3802      	subs	r0, #2
 800cd80:	ea40 4006 	orr.w	r0, r0, r6, lsl #16
 800cd84:	e7b6      	b.n	800ccf4 <__udivdi3+0x84>
 800cd86:	2100      	movs	r1, #0
 800cd88:	4608      	mov	r0, r1
 800cd8a:	e7b3      	b.n	800ccf4 <__udivdi3+0x84>
 800cd8c:	f1c4 0620 	rsb	r6, r4, #32
 800cd90:	fa22 f506 	lsr.w	r5, r2, r6
 800cd94:	fa03 f304 	lsl.w	r3, r3, r4
 800cd98:	432b      	orrs	r3, r5
 800cd9a:	ea4f 4c13 	mov.w	ip, r3, lsr #16
 800cd9e:	fa21 f506 	lsr.w	r5, r1, r6
 800cda2:	fa01 f104 	lsl.w	r1, r1, r4
 800cda6:	fa20 f606 	lsr.w	r6, r0, r6
 800cdaa:	fbb5 f7fc 	udiv	r7, r5, ip
 800cdae:	ea46 0a01 	orr.w	sl, r6, r1
 800cdb2:	fa1f f883 	uxth.w	r8, r3
 800cdb6:	fb0c 5517 	mls	r5, ip, r7, r5
 800cdba:	ea4f 411a 	mov.w	r1, sl, lsr #16
 800cdbe:	fb08 f907 	mul.w	r9, r8, r7
 800cdc2:	ea41 4505 	orr.w	r5, r1, r5, lsl #16
 800cdc6:	45a9      	cmp	r9, r5
 800cdc8:	fa02 f204 	lsl.w	r2, r2, r4
 800cdcc:	d903      	bls.n	800cdd6 <__udivdi3+0x166>
 800cdce:	1e7e      	subs	r6, r7, #1
 800cdd0:	18ed      	adds	r5, r5, r3
 800cdd2:	d37f      	bcc.n	800ced4 <__udivdi3+0x264>
 800cdd4:	4637      	mov	r7, r6
 800cdd6:	ebc9 0105 	rsb	r1, r9, r5
 800cdda:	fbb1 f6fc 	udiv	r6, r1, ip
 800cdde:	fb0c 1516 	mls	r5, ip, r6, r1
 800cde2:	fa1f fa8a 	uxth.w	sl, sl
 800cde6:	fb08 f806 	mul.w	r8, r8, r6
 800cdea:	ea4a 4105 	orr.w	r1, sl, r5, lsl #16
 800cdee:	4588      	cmp	r8, r1
 800cdf0:	d903      	bls.n	800cdfa <__udivdi3+0x18a>
 800cdf2:	1e75      	subs	r5, r6, #1
 800cdf4:	18c9      	adds	r1, r1, r3
 800cdf6:	d373      	bcc.n	800cee0 <__udivdi3+0x270>
 800cdf8:	462e      	mov	r6, r5
 800cdfa:	ea46 4607 	orr.w	r6, r6, r7, lsl #16
 800cdfe:	0c37      	lsrs	r7, r6, #16
 800ce00:	fa1f fc82 	uxth.w	ip, r2
 800ce04:	fb0c f507 	mul.w	r5, ip, r7
 800ce08:	0c12      	lsrs	r2, r2, #16
 800ce0a:	b2b3      	uxth	r3, r6
 800ce0c:	fb0c fc03 	mul.w	ip, ip, r3
 800ce10:	fb02 5303 	mla	r3, r2, r3, r5
 800ce14:	eb03 431c 	add.w	r3, r3, ip, lsr #16
 800ce18:	fb02 f207 	mul.w	r2, r2, r7
 800ce1c:	429d      	cmp	r5, r3
 800ce1e:	bf88      	it	hi
 800ce20:	f502 3280 	addhi.w	r2, r2, #65536	; 0x10000
 800ce24:	ebc8 0101 	rsb	r1, r8, r1
 800ce28:	eb02 4213 	add.w	r2, r2, r3, lsr #16
 800ce2c:	4291      	cmp	r1, r2
 800ce2e:	d34b      	bcc.n	800cec8 <__udivdi3+0x258>
 800ce30:	d042      	beq.n	800ceb8 <__udivdi3+0x248>
 800ce32:	4630      	mov	r0, r6
 800ce34:	2100      	movs	r1, #0
 800ce36:	e75d      	b.n	800ccf4 <__udivdi3+0x84>
 800ce38:	4094      	lsls	r4, r2
 800ce3a:	f1c2 0520 	rsb	r5, r2, #32
 800ce3e:	fa21 f605 	lsr.w	r6, r1, r5
 800ce42:	0c23      	lsrs	r3, r4, #16
 800ce44:	fa20 f705 	lsr.w	r7, r0, r5
 800ce48:	fa01 f102 	lsl.w	r1, r1, r2
 800ce4c:	fbb6 fcf3 	udiv	ip, r6, r3
 800ce50:	4339      	orrs	r1, r7
 800ce52:	0c0d      	lsrs	r5, r1, #16
 800ce54:	b2a7      	uxth	r7, r4
 800ce56:	fb03 661c 	mls	r6, r3, ip, r6
 800ce5a:	ea45 4606 	orr.w	r6, r5, r6, lsl #16
 800ce5e:	fb07 f80c 	mul.w	r8, r7, ip
 800ce62:	45b0      	cmp	r8, r6
 800ce64:	fa00 f502 	lsl.w	r5, r0, r2
 800ce68:	d908      	bls.n	800ce7c <__udivdi3+0x20c>
 800ce6a:	1936      	adds	r6, r6, r4
 800ce6c:	f10c 30ff 	add.w	r0, ip, #4294967295
 800ce70:	d23d      	bcs.n	800ceee <__udivdi3+0x27e>
 800ce72:	45b0      	cmp	r8, r6
 800ce74:	d93b      	bls.n	800ceee <__udivdi3+0x27e>
 800ce76:	f1ac 0c02 	sub.w	ip, ip, #2
 800ce7a:	1936      	adds	r6, r6, r4
 800ce7c:	ebc8 0206 	rsb	r2, r8, r6
 800ce80:	fbb2 f0f3 	udiv	r0, r2, r3
 800ce84:	fb03 2610 	mls	r6, r3, r0, r2
 800ce88:	b28a      	uxth	r2, r1
 800ce8a:	ea42 4206 	orr.w	r2, r2, r6, lsl #16
 800ce8e:	fb07 f100 	mul.w	r1, r7, r0
 800ce92:	4291      	cmp	r1, r2
 800ce94:	d906      	bls.n	800cea4 <__udivdi3+0x234>
 800ce96:	1e46      	subs	r6, r0, #1
 800ce98:	1912      	adds	r2, r2, r4
 800ce9a:	d226      	bcs.n	800ceea <__udivdi3+0x27a>
 800ce9c:	4291      	cmp	r1, r2
 800ce9e:	d924      	bls.n	800ceea <__udivdi3+0x27a>
 800cea0:	3802      	subs	r0, #2
 800cea2:	1912      	adds	r2, r2, r4
 800cea4:	1a52      	subs	r2, r2, r1
 800cea6:	ea40 410c 	orr.w	r1, r0, ip, lsl #16
 800ceaa:	e741      	b.n	800cd30 <__udivdi3+0xc0>
 800ceac:	4638      	mov	r0, r7
 800ceae:	e70a      	b.n	800ccc6 <__udivdi3+0x56>
 800ceb0:	4633      	mov	r3, r6
 800ceb2:	e71c      	b.n	800ccee <__udivdi3+0x7e>
 800ceb4:	4610      	mov	r0, r2
 800ceb6:	e763      	b.n	800cd80 <__udivdi3+0x110>
 800ceb8:	fa1f fc8c 	uxth.w	ip, ip
 800cebc:	fa00 f004 	lsl.w	r0, r0, r4
 800cec0:	eb0c 4303 	add.w	r3, ip, r3, lsl #16
 800cec4:	4298      	cmp	r0, r3
 800cec6:	d2b4      	bcs.n	800ce32 <__udivdi3+0x1c2>
 800cec8:	1e70      	subs	r0, r6, #1
 800ceca:	2100      	movs	r1, #0
 800cecc:	e712      	b.n	800ccf4 <__udivdi3+0x84>
 800cece:	4621      	mov	r1, r4
 800ced0:	4620      	mov	r0, r4
 800ced2:	e70f      	b.n	800ccf4 <__udivdi3+0x84>
 800ced4:	45a9      	cmp	r9, r5
 800ced6:	f67f af7d 	bls.w	800cdd4 <__udivdi3+0x164>
 800ceda:	3f02      	subs	r7, #2
 800cedc:	18ed      	adds	r5, r5, r3
 800cede:	e77a      	b.n	800cdd6 <__udivdi3+0x166>
 800cee0:	4588      	cmp	r8, r1
 800cee2:	d989      	bls.n	800cdf8 <__udivdi3+0x188>
 800cee4:	3e02      	subs	r6, #2
 800cee6:	18c9      	adds	r1, r1, r3
 800cee8:	e787      	b.n	800cdfa <__udivdi3+0x18a>
 800ceea:	4630      	mov	r0, r6
 800ceec:	e7da      	b.n	800cea4 <__udivdi3+0x234>
 800ceee:	4684      	mov	ip, r0
 800cef0:	e7c4      	b.n	800ce7c <__udivdi3+0x20c>
 800cef2:	3e02      	subs	r6, #2
 800cef4:	1912      	adds	r2, r2, r4
 800cef6:	e72f      	b.n	800cd58 <__udivdi3+0xe8>

0800cef8 <_ZN13video_buffers4initEv>:
 800cef8:	b5f8      	push	{r3, r4, r5, r6, r7, lr}
 800cefa:	4b57      	ldr	r3, [pc, #348]	; (800d058 <_ZN13video_buffers4initEv+0x160>)
 800cefc:	f5b3 1f80 	cmp.w	r3, #1048576	; 0x100000
 800cf00:	f080 809d 	bcs.w	800d03e <_ZN13video_buffers4initEv+0x146>
 800cf04:	4855      	ldr	r0, [pc, #340]	; (800d05c <_ZN13video_buffers4initEv+0x164>)
 800cf06:	0142      	lsls	r2, r0, #5
 800cf08:	4c55      	ldr	r4, [pc, #340]	; (800d060 <_ZN13video_buffers4initEv+0x168>)
 800cf0a:	4956      	ldr	r1, [pc, #344]	; (800d064 <_ZN13video_buffers4initEv+0x16c>)
 800cf0c:	f5b4 1f80 	cmp.w	r4, #1048576	; 0x100000
 800cf10:	600a      	str	r2, [r1, #0]
 800cf12:	f080 8098 	bcs.w	800d046 <_ZN13video_buffers4initEv+0x14e>
 800cf16:	4e54      	ldr	r6, [pc, #336]	; (800d068 <_ZN13video_buffers4initEv+0x170>)
 800cf18:	0175      	lsls	r5, r6, #5
 800cf1a:	4b54      	ldr	r3, [pc, #336]	; (800d06c <_ZN13video_buffers4initEv+0x174>)
 800cf1c:	4f54      	ldr	r7, [pc, #336]	; (800d070 <_ZN13video_buffers4initEv+0x178>)
 800cf1e:	f5b3 1f80 	cmp.w	r3, #1048576	; 0x100000
 800cf22:	603d      	str	r5, [r7, #0]
 800cf24:	f080 808d 	bcs.w	800d042 <_ZN13video_buffers4initEv+0x14a>
 800cf28:	4852      	ldr	r0, [pc, #328]	; (800d074 <_ZN13video_buffers4initEv+0x17c>)
 800cf2a:	0142      	lsls	r2, r0, #5
 800cf2c:	4c52      	ldr	r4, [pc, #328]	; (800d078 <_ZN13video_buffers4initEv+0x180>)
 800cf2e:	4953      	ldr	r1, [pc, #332]	; (800d07c <_ZN13video_buffers4initEv+0x184>)
 800cf30:	f5b4 1f80 	cmp.w	r4, #1048576	; 0x100000
 800cf34:	600a      	str	r2, [r1, #0]
 800cf36:	f080 8088 	bcs.w	800d04a <_ZN13video_buffers4initEv+0x152>
 800cf3a:	4e51      	ldr	r6, [pc, #324]	; (800d080 <_ZN13video_buffers4initEv+0x188>)
 800cf3c:	0175      	lsls	r5, r6, #5
 800cf3e:	4b51      	ldr	r3, [pc, #324]	; (800d084 <_ZN13video_buffers4initEv+0x18c>)
 800cf40:	4f51      	ldr	r7, [pc, #324]	; (800d088 <_ZN13video_buffers4initEv+0x190>)
 800cf42:	8818      	ldrh	r0, [r3, #0]
 800cf44:	883a      	ldrh	r2, [r7, #0]
 800cf46:	4c51      	ldr	r4, [pc, #324]	; (800d08c <_ZN13video_buffers4initEv+0x194>)
 800cf48:	4e51      	ldr	r6, [pc, #324]	; (800d090 <_ZN13video_buffers4initEv+0x198>)
 800cf4a:	6025      	str	r5, [r4, #0]
 800cf4c:	1a11      	subs	r1, r2, r0
 800cf4e:	f64f 77f8 	movw	r7, #65528	; 0xfff8
 800cf52:	400f      	ands	r7, r1
 800cf54:	f001 f84a 	bl	800dfec <_ZN9video_cfg14get_video_modeEv>
 800cf58:	2801      	cmp	r0, #1
 800cf5a:	bf0c      	ite	eq
 800cf5c:	4d4d      	ldreq	r5, [pc, #308]	; (800d094 <_ZN13video_buffers4initEv+0x19c>)
 800cf5e:	4d4e      	ldrne	r5, [pc, #312]	; (800d098 <_ZN13video_buffers4initEv+0x1a0>)
 800cf60:	8832      	ldrh	r2, [r6, #0]
 800cf62:	8829      	ldrh	r1, [r5, #0]
 800cf64:	4e4d      	ldr	r6, [pc, #308]	; (800d09c <_ZN13video_buffers4initEv+0x1a4>)
 800cf66:	4c4e      	ldr	r4, [pc, #312]	; (800d0a0 <_ZN13video_buffers4initEv+0x1a8>)
 800cf68:	6037      	str	r7, [r6, #0]
 800cf6a:	1a8b      	subs	r3, r1, r2
 800cf6c:	08ff      	lsrs	r7, r7, #3
 800cf6e:	f3c3 034e 	ubfx	r3, r3, #1, #15
 800cf72:	6820      	ldr	r0, [r4, #0]
 800cf74:	6073      	str	r3, [r6, #4]
 800cf76:	1c79      	adds	r1, r7, #1
 800cf78:	fb03 1701 	mla	r7, r3, r1, r1
 800cf7c:	463a      	mov	r2, r7
 800cf7e:	21ff      	movs	r1, #255	; 0xff
 800cf80:	3004      	adds	r0, #4
 800cf82:	f004 f909 	bl	8011198 <memset>
 800cf86:	6822      	ldr	r2, [r4, #0]
 800cf88:	4d46      	ldr	r5, [pc, #280]	; (800d0a4 <_ZN13video_buffers4initEv+0x1ac>)
 800cf8a:	f502 5050 	add.w	r0, r2, #13312	; 0x3400
 800cf8e:	21ff      	movs	r1, #255	; 0xff
 800cf90:	463a      	mov	r2, r7
 800cf92:	3004      	adds	r0, #4
 800cf94:	f004 f900 	bl	8011198 <memset>
 800cf98:	ce48      	ldmia	r6, {r3, r6}
 800cf9a:	6860      	ldr	r0, [r4, #4]
 800cf9c:	08db      	lsrs	r3, r3, #3
 800cf9e:	3601      	adds	r6, #1
 800cfa0:	fb03 6606 	mla	r6, r3, r6, r6
 800cfa4:	21ff      	movs	r1, #255	; 0xff
 800cfa6:	4632      	mov	r2, r6
 800cfa8:	3004      	adds	r0, #4
 800cfaa:	f004 f8f5 	bl	8011198 <memset>
 800cfae:	6861      	ldr	r1, [r4, #4]
 800cfb0:	f501 5250 	add.w	r2, r1, #13312	; 0x3400
 800cfb4:	1d10      	adds	r0, r2, #4
 800cfb6:	21ff      	movs	r1, #255	; 0xff
 800cfb8:	4632      	mov	r2, r6
 800cfba:	f004 f8ed 	bl	8011198 <memset>
 800cfbe:	493a      	ldr	r1, [pc, #232]	; (800d0a8 <_ZN13video_buffers4initEv+0x1b0>)
 800cfc0:	4a3a      	ldr	r2, [pc, #232]	; (800d0ac <_ZN13video_buffers4initEv+0x1b4>)
 800cfc2:	8809      	ldrh	r1, [r1, #0]
 800cfc4:	483a      	ldr	r0, [pc, #232]	; (800d0b0 <_ZN13video_buffers4initEv+0x1b8>)
 800cfc6:	4b3b      	ldr	r3, [pc, #236]	; (800d0b4 <_ZN13video_buffers4initEv+0x1bc>)
 800cfc8:	8812      	ldrh	r2, [r2, #0]
 800cfca:	881b      	ldrh	r3, [r3, #0]
 800cfcc:	8800      	ldrh	r0, [r0, #0]
 800cfce:	1a8a      	subs	r2, r1, r2
 800cfd0:	2100      	movs	r1, #0
 800cfd2:	60a1      	str	r1, [r4, #8]
 800cfd4:	4c38      	ldr	r4, [pc, #224]	; (800d0b8 <_ZN13video_buffers4initEv+0x1c0>)
 800cfd6:	1ac0      	subs	r0, r0, r3
 800cfd8:	b283      	uxth	r3, r0
 800cfda:	b292      	uxth	r2, r2
 800cfdc:	f5b4 1f80 	cmp.w	r4, #1048576	; 0x100000
 800cfe0:	602b      	str	r3, [r5, #0]
 800cfe2:	606a      	str	r2, [r5, #4]
 800cfe4:	d235      	bcs.n	800d052 <_ZN13video_buffers4initEv+0x15a>
 800cfe6:	4935      	ldr	r1, [pc, #212]	; (800d0bc <_ZN13video_buffers4initEv+0x1c4>)
 800cfe8:	0148      	lsls	r0, r1, #5
 800cfea:	4c35      	ldr	r4, [pc, #212]	; (800d0c0 <_ZN13video_buffers4initEv+0x1c8>)
 800cfec:	4935      	ldr	r1, [pc, #212]	; (800d0c4 <_ZN13video_buffers4initEv+0x1cc>)
 800cfee:	f5b4 1f80 	cmp.w	r4, #1048576	; 0x100000
 800cff2:	6008      	str	r0, [r1, #0]
 800cff4:	d22b      	bcs.n	800d04e <_ZN13video_buffers4initEv+0x156>
 800cff6:	4c34      	ldr	r4, [pc, #208]	; (800d0c8 <_ZN13video_buffers4initEv+0x1d0>)
 800cff8:	0160      	lsls	r0, r4, #5
 800cffa:	4c34      	ldr	r4, [pc, #208]	; (800d0cc <_ZN13video_buffers4initEv+0x1d4>)
 800cffc:	f8c1 0100 	str.w	r0, [r1, #256]	; 0x100
 800d000:	f013 0107 	ands.w	r1, r3, #7
 800d004:	bf18      	it	ne
 800d006:	2101      	movne	r1, #1
 800d008:	6860      	ldr	r0, [r4, #4]
 800d00a:	eb01 03d3 	add.w	r3, r1, r3, lsr #3
 800d00e:	fb02 f203 	mul.w	r2, r2, r3
 800d012:	21ff      	movs	r1, #255	; 0xff
 800d014:	3004      	adds	r0, #4
 800d016:	f004 f8bf 	bl	8011198 <memset>
 800d01a:	6829      	ldr	r1, [r5, #0]
 800d01c:	6860      	ldr	r0, [r4, #4]
 800d01e:	686a      	ldr	r2, [r5, #4]
 800d020:	f011 0307 	ands.w	r3, r1, #7
 800d024:	bf18      	it	ne
 800d026:	2301      	movne	r3, #1
 800d028:	eb03 03d1 	add.w	r3, r3, r1, lsr #3
 800d02c:	3004      	adds	r0, #4
 800d02e:	21ff      	movs	r1, #255	; 0xff
 800d030:	fb02 f203 	mul.w	r2, r2, r3
 800d034:	f004 f8b0 	bl	8011198 <memset>
 800d038:	2100      	movs	r1, #0
 800d03a:	60a1      	str	r1, [r4, #8]
 800d03c:	bdf8      	pop	{r3, r4, r5, r6, r7, pc}
 800d03e:	2200      	movs	r2, #0
 800d040:	e762      	b.n	800cf08 <_ZN13video_buffers4initEv+0x10>
 800d042:	2200      	movs	r2, #0
 800d044:	e772      	b.n	800cf2c <_ZN13video_buffers4initEv+0x34>
 800d046:	2500      	movs	r5, #0
 800d048:	e767      	b.n	800cf1a <_ZN13video_buffers4initEv+0x22>
 800d04a:	2500      	movs	r5, #0
 800d04c:	e777      	b.n	800cf3e <_ZN13video_buffers4initEv+0x46>
 800d04e:	2000      	movs	r0, #0
 800d050:	e7d3      	b.n	800cffa <_ZN13video_buffers4initEv+0x102>
 800d052:	4608      	mov	r0, r1
 800d054:	e7c9      	b.n	800cfea <_ZN13video_buffers4initEv+0xf2>
 800d056:	bf00      	nop
 800d058:	00012004 	.word	0x00012004
 800d05c:	21112004 	.word	0x21112004
 800d060:	00015404 	.word	0x00015404
 800d064:	20012000 	.word	0x20012000
 800d068:	21115404 	.word	0x21115404
 800d06c:	00018804 	.word	0x00018804
 800d070:	20015400 	.word	0x20015400
 800d074:	21118804 	.word	0x21118804
 800d078:	0001bc04 	.word	0x0001bc04
 800d07c:	20018800 	.word	0x20018800
 800d080:	2111bc04 	.word	0x2111bc04
 800d084:	10000006 	.word	0x10000006
 800d088:	10000002 	.word	0x10000002
 800d08c:	2001bc00 	.word	0x2001bc00
 800d090:	10000012 	.word	0x10000012
 800d094:	1000000c 	.word	0x1000000c
 800d098:	10000008 	.word	0x10000008
 800d09c:	100008d4 	.word	0x100008d4
 800d0a0:	100008b4 	.word	0x100008b4
 800d0a4:	100008ac 	.word	0x100008ac
 800d0a8:	10000010 	.word	0x10000010
 800d0ac:	1000000a 	.word	0x1000000a
 800d0b0:	10000004 	.word	0x10000004
 800d0b4:	10000000 	.word	0x10000000
 800d0b8:	0001f004 	.word	0x0001f004
 800d0bc:	2111f004 	.word	0x2111f004
 800d0c0:	0001f104 	.word	0x0001f104
 800d0c4:	2001f000 	.word	0x2001f000
 800d0c8:	2111f104 	.word	0x2111f104
 800d0cc:	100008c4 	.word	0x100008c4

0800d0d0 <_ZN13video_buffers5telem2tx10write_dataEPh>:
 800d0d0:	f8df c10c 	ldr.w	ip, [pc, #268]	; 800d1e0 <_ZN13video_buffers5telem2tx10write_dataEPh+0x110>
 800d0d4:	e92d 07f0 	stmdb	sp!, {r4, r5, r6, r7, r8, r9, sl}
 800d0d8:	f8dc 8004 	ldr.w	r8, [ip, #4]
 800d0dc:	f1b8 0f00 	cmp.w	r8, #0
 800d0e0:	d079      	beq.n	800d1d6 <_ZN13video_buffers5telem2tx10write_dataEPh+0x106>
 800d0e2:	2700      	movs	r7, #0
 800d0e4:	f64c 49cd 	movw	r9, #52429	; 0xcccd
 800d0e8:	f8dc 3000 	ldr.w	r3, [ip]
 800d0ec:	493b      	ldr	r1, [pc, #236]	; (800d1dc <_ZN13video_buffers5telem2tx10write_dataEPh+0x10c>)
 800d0ee:	f6cc 49cc 	movt	r9, #52428	; 0xcccc
 800d0f2:	463e      	mov	r6, r7
 800d0f4:	f013 0207 	ands.w	r2, r3, #7
 800d0f8:	bf18      	it	ne
 800d0fa:	2201      	movne	r2, #1
 800d0fc:	eb02 02d3 	add.w	r2, r2, r3, lsr #3
 800d100:	00fc      	lsls	r4, r7, #3
 800d102:	3b08      	subs	r3, #8
 800d104:	fb02 f204 	mul.w	r2, r2, r4
 800d108:	fba9 4303 	umull	r4, r3, r9, r3
 800d10c:	3204      	adds	r2, #4
 800d10e:	08db      	lsrs	r3, r3, #3
 800d110:	d05b      	beq.n	800d1ca <_ZN13video_buffers5telem2tx10write_dataEPh+0xfa>
 800d112:	0092      	lsls	r2, r2, #2
 800d114:	18c5      	adds	r5, r0, r3
 800d116:	684c      	ldr	r4, [r1, #4]
 800d118:	6823      	ldr	r3, [r4, #0]
 800d11a:	509e      	str	r6, [r3, r2]
 800d11c:	f810 3b01 	ldrb.w	r3, [r0], #1
 800d120:	f013 0401 	ands.w	r4, r3, #1
 800d124:	d106      	bne.n	800d134 <_ZN13video_buffers5telem2tx10write_dataEPh+0x64>
 800d126:	f8d1 a004 	ldr.w	sl, [r1, #4]
 800d12a:	f8da a000 	ldr.w	sl, [sl]
 800d12e:	4492      	add	sl, r2
 800d130:	f8ca 4004 	str.w	r4, [sl, #4]
 800d134:	f003 0402 	and.w	r4, r3, #2
 800d138:	b2e4      	uxtb	r4, r4
 800d13a:	b934      	cbnz	r4, 800d14a <_ZN13video_buffers5telem2tx10write_dataEPh+0x7a>
 800d13c:	f8d1 a004 	ldr.w	sl, [r1, #4]
 800d140:	f8da a000 	ldr.w	sl, [sl]
 800d144:	4492      	add	sl, r2
 800d146:	f8ca 4008 	str.w	r4, [sl, #8]
 800d14a:	f003 0404 	and.w	r4, r3, #4
 800d14e:	b2e4      	uxtb	r4, r4
 800d150:	b934      	cbnz	r4, 800d160 <_ZN13video_buffers5telem2tx10write_dataEPh+0x90>
 800d152:	f8d1 a004 	ldr.w	sl, [r1, #4]
 800d156:	f8da a000 	ldr.w	sl, [sl]
 800d15a:	4492      	add	sl, r2
 800d15c:	f8ca 400c 	str.w	r4, [sl, #12]
 800d160:	f003 0408 	and.w	r4, r3, #8
 800d164:	b2e4      	uxtb	r4, r4
 800d166:	b934      	cbnz	r4, 800d176 <_ZN13video_buffers5telem2tx10write_dataEPh+0xa6>
 800d168:	f8d1 a004 	ldr.w	sl, [r1, #4]
 800d16c:	f8da a000 	ldr.w	sl, [sl]
 800d170:	4492      	add	sl, r2
 800d172:	f8ca 4010 	str.w	r4, [sl, #16]
 800d176:	f003 0410 	and.w	r4, r3, #16
 800d17a:	b2e4      	uxtb	r4, r4
 800d17c:	b934      	cbnz	r4, 800d18c <_ZN13video_buffers5telem2tx10write_dataEPh+0xbc>
 800d17e:	f8d1 a004 	ldr.w	sl, [r1, #4]
 800d182:	f8da a000 	ldr.w	sl, [sl]
 800d186:	4492      	add	sl, r2
 800d188:	f8ca 4014 	str.w	r4, [sl, #20]
 800d18c:	f003 0420 	and.w	r4, r3, #32
 800d190:	b2e4      	uxtb	r4, r4
 800d192:	b934      	cbnz	r4, 800d1a2 <_ZN13video_buffers5telem2tx10write_dataEPh+0xd2>
 800d194:	f8d1 a004 	ldr.w	sl, [r1, #4]
 800d198:	f8da a000 	ldr.w	sl, [sl]
 800d19c:	4492      	add	sl, r2
 800d19e:	f8ca 4018 	str.w	r4, [sl, #24]
 800d1a2:	f003 0440 	and.w	r4, r3, #64	; 0x40
 800d1a6:	b2e4      	uxtb	r4, r4
 800d1a8:	b934      	cbnz	r4, 800d1b8 <_ZN13video_buffers5telem2tx10write_dataEPh+0xe8>
 800d1aa:	f8d1 a004 	ldr.w	sl, [r1, #4]
 800d1ae:	f8da a000 	ldr.w	sl, [sl]
 800d1b2:	4492      	add	sl, r2
 800d1b4:	f8ca 401c 	str.w	r4, [sl, #28]
 800d1b8:	09db      	lsrs	r3, r3, #7
 800d1ba:	d103      	bne.n	800d1c4 <_ZN13video_buffers5telem2tx10write_dataEPh+0xf4>
 800d1bc:	684c      	ldr	r4, [r1, #4]
 800d1be:	6824      	ldr	r4, [r4, #0]
 800d1c0:	18a4      	adds	r4, r4, r2
 800d1c2:	6223      	str	r3, [r4, #32]
 800d1c4:	3228      	adds	r2, #40	; 0x28
 800d1c6:	42a8      	cmp	r0, r5
 800d1c8:	d1a5      	bne.n	800d116 <_ZN13video_buffers5telem2tx10write_dataEPh+0x46>
 800d1ca:	3701      	adds	r7, #1
 800d1cc:	4547      	cmp	r7, r8
 800d1ce:	d002      	beq.n	800d1d6 <_ZN13video_buffers5telem2tx10write_dataEPh+0x106>
 800d1d0:	f8dc 3000 	ldr.w	r3, [ip]
 800d1d4:	e78e      	b.n	800d0f4 <_ZN13video_buffers5telem2tx10write_dataEPh+0x24>
 800d1d6:	e8bd 07f0 	ldmia.w	sp!, {r4, r5, r6, r7, r8, r9, sl}
 800d1da:	4770      	bx	lr
 800d1dc:	100008c4 	.word	0x100008c4
 800d1e0:	100008ac 	.word	0x100008ac

0800d1e4 <_GLOBAL__sub_I__ZN13video_buffers3osd9m_buffersE>:
 800d1e4:	e92d 01f0 	stmdb	sp!, {r4, r5, r6, r7, r8}
 800d1e8:	f640 01c4 	movw	r1, #2244	; 0x8c4
 800d1ec:	f640 04b4 	movw	r4, #2228	; 0x8b4
 800d1f0:	f242 0500 	movw	r5, #8192	; 0x2000
 800d1f4:	f24f 0000 	movw	r0, #61440	; 0xf000
 800d1f8:	f640 039c 	movw	r3, #2204	; 0x89c
 800d1fc:	f2c1 0400 	movt	r4, #4096	; 0x1000
 800d200:	f2c1 0100 	movt	r1, #4096	; 0x1000
 800d204:	f2c2 0001 	movt	r0, #8193	; 0x2001
 800d208:	f2c1 0300 	movt	r3, #4096	; 0x1000
 800d20c:	f2c2 0501 	movt	r5, #8193	; 0x2001
 800d210:	2200      	movs	r2, #0
 800d212:	f505 48d0 	add.w	r8, r5, #26624	; 0x6800
 800d216:	f500 7c80 	add.w	ip, r0, #256	; 0x100
 800d21a:	f500 7700 	add.w	r7, r0, #512	; 0x200
 800d21e:	f500 6600 	add.w	r6, r0, #2048	; 0x800
 800d222:	6025      	str	r5, [r4, #0]
 800d224:	60a2      	str	r2, [r4, #8]
 800d226:	f8c4 8004 	str.w	r8, [r4, #4]
 800d22a:	608a      	str	r2, [r1, #8]
 800d22c:	7322      	strb	r2, [r4, #12]
 800d22e:	609a      	str	r2, [r3, #8]
 800d230:	6008      	str	r0, [r1, #0]
 800d232:	f8c1 c004 	str.w	ip, [r1, #4]
 800d236:	730a      	strb	r2, [r1, #12]
 800d238:	601f      	str	r7, [r3, #0]
 800d23a:	605e      	str	r6, [r3, #4]
 800d23c:	731a      	strb	r2, [r3, #12]
 800d23e:	e8bd 01f0 	ldmia.w	sp!, {r4, r5, r6, r7, r8}
 800d242:	4770      	bx	lr

0800d244 <_Z26create_osd_swap_semaphoresv>:
 800d244:	b508      	push	{r3, lr}
 800d246:	2100      	movs	r1, #0
 800d248:	2203      	movs	r2, #3
 800d24a:	2001      	movs	r0, #1
 800d24c:	f002 fa98 	bl	800f780 <xQueueGenericCreate>
 800d250:	f640 03ec 	movw	r3, #2284	; 0x8ec
 800d254:	f2c1 0300 	movt	r3, #4096	; 0x1000
 800d258:	2100      	movs	r1, #0
 800d25a:	6018      	str	r0, [r3, #0]
 800d25c:	2203      	movs	r2, #3
 800d25e:	2001      	movs	r0, #1
 800d260:	f002 fa8e 	bl	800f780 <xQueueGenericCreate>
 800d264:	f640 01e4 	movw	r1, #2276	; 0x8e4
 800d268:	f2c1 0100 	movt	r1, #4096	; 0x1000
 800d26c:	6008      	str	r0, [r1, #0]
 800d26e:	bd08      	pop	{r3, pc}

0800d270 <_Z28create_telem_swap_semaphoresv>:
 800d270:	b508      	push	{r3, lr}
 800d272:	2100      	movs	r1, #0
 800d274:	2203      	movs	r2, #3
 800d276:	2001      	movs	r0, #1
 800d278:	f002 fa82 	bl	800f780 <xQueueGenericCreate>
 800d27c:	f640 03e0 	movw	r3, #2272	; 0x8e0
 800d280:	f2c1 0300 	movt	r3, #4096	; 0x1000
 800d284:	2100      	movs	r1, #0
 800d286:	6018      	str	r0, [r3, #0]
 800d288:	2203      	movs	r2, #3
 800d28a:	2001      	movs	r0, #1
 800d28c:	f002 fa78 	bl	800f780 <xQueueGenericCreate>
 800d290:	f640 01e8 	movw	r1, #2280	; 0x8e8
 800d294:	f2c1 0100 	movt	r1, #4096	; 0x1000
 800d298:	6008      	str	r0, [r1, #0]
 800d29a:	bd08      	pop	{r3, pc}

0800d29c <_Z16swap_osd_buffersv>:
 800d29c:	f640 00ec 	movw	r0, #2284	; 0x8ec
 800d2a0:	f2c1 0000 	movt	r0, #4096	; 0x1000
 800d2a4:	b538      	push	{r3, r4, r5, lr}
 800d2a6:	2100      	movs	r1, #0
 800d2a8:	f640 04e4 	movw	r4, #2276	; 0x8e4
 800d2ac:	460a      	mov	r2, r1
 800d2ae:	460b      	mov	r3, r1
 800d2b0:	f2c1 0400 	movt	r4, #4096	; 0x1000
 800d2b4:	6800      	ldr	r0, [r0, #0]
 800d2b6:	f002 fa9f 	bl	800f7f8 <xQueueGenericSend>
 800d2ba:	2100      	movs	r1, #0
 800d2bc:	460b      	mov	r3, r1
 800d2be:	f04f 32ff 	mov.w	r2, #4294967295
 800d2c2:	6820      	ldr	r0, [r4, #0]
 800d2c4:	f002 fc64 	bl	800fb90 <xQueueGenericReceive>
 800d2c8:	f640 03d4 	movw	r3, #2260	; 0x8d4
 800d2cc:	f2c1 0300 	movt	r3, #4096	; 0x1000
 800d2d0:	e893 0024 	ldmia.w	r3, {r2, r5}
 800d2d4:	f640 04b4 	movw	r4, #2228	; 0x8b4
 800d2d8:	f2c1 0400 	movt	r4, #4096	; 0x1000
 800d2dc:	08d1      	lsrs	r1, r2, #3
 800d2de:	6860      	ldr	r0, [r4, #4]
 800d2e0:	3501      	adds	r5, #1
 800d2e2:	fb01 5505 	mla	r5, r1, r5, r5
 800d2e6:	462a      	mov	r2, r5
 800d2e8:	21ff      	movs	r1, #255	; 0xff
 800d2ea:	3004      	adds	r0, #4
 800d2ec:	f003 ff54 	bl	8011198 <memset>
 800d2f0:	6862      	ldr	r2, [r4, #4]
 800d2f2:	f502 5350 	add.w	r3, r2, #13312	; 0x3400
 800d2f6:	1d18      	adds	r0, r3, #4
 800d2f8:	21ff      	movs	r1, #255	; 0xff
 800d2fa:	462a      	mov	r2, r5
 800d2fc:	e8bd 4038 	ldmia.w	sp!, {r3, r4, r5, lr}
 800d300:	f003 bf4a 	b.w	8011198 <memset>

0800d304 <_Z18swap_telem_buffersv>:
 800d304:	f640 00e0 	movw	r0, #2272	; 0x8e0
 800d308:	f2c1 0000 	movt	r0, #4096	; 0x1000
 800d30c:	2100      	movs	r1, #0
 800d30e:	b508      	push	{r3, lr}
 800d310:	460a      	mov	r2, r1
 800d312:	460b      	mov	r3, r1
 800d314:	6800      	ldr	r0, [r0, #0]
 800d316:	f002 fa6f 	bl	800f7f8 <xQueueGenericSend>
 800d31a:	f640 00e8 	movw	r0, #2280	; 0x8e8
 800d31e:	f2c1 0000 	movt	r0, #4096	; 0x1000
 800d322:	2100      	movs	r1, #0
 800d324:	460b      	mov	r3, r1
 800d326:	f04f 32ff 	mov.w	r2, #4294967295
 800d32a:	6800      	ldr	r0, [r0, #0]
 800d32c:	f002 fc30 	bl	800fb90 <xQueueGenericReceive>
 800d330:	f640 03ac 	movw	r3, #2220	; 0x8ac
 800d334:	f2c1 0300 	movt	r3, #4096	; 0x1000
 800d338:	e893 0006 	ldmia.w	r3, {r1, r2}
 800d33c:	f640 00c4 	movw	r0, #2244	; 0x8c4
 800d340:	f2c1 0000 	movt	r0, #4096	; 0x1000
 800d344:	f011 0307 	ands.w	r3, r1, #7
 800d348:	bf18      	it	ne
 800d34a:	2301      	movne	r3, #1
 800d34c:	6840      	ldr	r0, [r0, #4]
 800d34e:	eb03 03d1 	add.w	r3, r3, r1, lsr #3
 800d352:	3004      	adds	r0, #4
 800d354:	21ff      	movs	r1, #255	; 0xff
 800d356:	fb02 f203 	mul.w	r2, r2, r3
 800d35a:	e8bd 4008 	ldmia.w	sp!, {r3, lr}
 800d35e:	f003 bf1b 	b.w	8011198 <memset>
 800d362:	bf00      	nop

0800d364 <_ZN9video_cfg7columns3osd6enableEv>:
 800d364:	4b2b      	ldr	r3, [pc, #172]	; (800d414 <_ZN9video_cfg7columns3osd6enableEv+0xb0>)
 800d366:	4a2c      	ldr	r2, [pc, #176]	; (800d418 <_ZN9video_cfg7columns3osd6enableEv+0xb4>)
 800d368:	8818      	ldrh	r0, [r3, #0]
 800d36a:	492c      	ldr	r1, [pc, #176]	; (800d41c <_ZN9video_cfg7columns3osd6enableEv+0xb8>)
 800d36c:	b570      	push	{r4, r5, r6, lr}
 800d36e:	8814      	ldrh	r4, [r2, #0]
 800d370:	880d      	ldrh	r5, [r1, #0]
 800d372:	0446      	lsls	r6, r0, #17
 800d374:	0c73      	lsrs	r3, r6, #17
 800d376:	3407      	adds	r4, #7
 800d378:	f44f 4180 	mov.w	r1, #16384	; 0x4000
 800d37c:	f04f 4280 	mov.w	r2, #1073741824	; 0x40000000
 800d380:	f2c4 0101 	movt	r1, #16385	; 0x4001
 800d384:	005e      	lsls	r6, r3, #1
 800d386:	fb03 f505 	mul.w	r5, r3, r5
 800d38a:	fb03 f404 	mul.w	r4, r3, r4
 800d38e:	2000      	movs	r0, #0
 800d390:	3b01      	subs	r3, #1
 800d392:	3c01      	subs	r4, #1
 800d394:	3e01      	subs	r6, #1
 800d396:	3d01      	subs	r5, #1
 800d398:	6248      	str	r0, [r1, #36]	; 0x24
 800d39a:	62ce      	str	r6, [r1, #44]	; 0x2c
 800d39c:	634b      	str	r3, [r1, #52]	; 0x34
 800d39e:	6250      	str	r0, [r2, #36]	; 0x24
 800d3a0:	6415      	str	r5, [r2, #64]	; 0x40
 800d3a2:	62d4      	str	r4, [r2, #44]	; 0x2c
 800d3a4:	6891      	ldr	r1, [r2, #8]
 800d3a6:	f44f 7306 	mov.w	r3, #536	; 0x218
 800d3aa:	f2c4 2300 	movt	r3, #16896	; 0x4200
 800d3ae:	f041 0406 	orr.w	r4, r1, #6
 800d3b2:	6094      	str	r4, [r2, #8]
 800d3b4:	b082      	sub	sp, #8
 800d3b6:	6018      	str	r0, [r3, #0]
 800d3b8:	bf00      	nop
 800d3ba:	f44f 70cc 	mov.w	r0, #408	; 0x198
 800d3be:	f2c4 2000 	movt	r0, #16896	; 0x4200
 800d3c2:	4b17      	ldr	r3, [pc, #92]	; (800d420 <_ZN9video_cfg7columns3osd6enableEv+0xbc>)
 800d3c4:	4c17      	ldr	r4, [pc, #92]	; (800d424 <_ZN9video_cfg7columns3osd6enableEv+0xc0>)
 800d3c6:	2100      	movs	r1, #0
 800d3c8:	2201      	movs	r2, #1
 800d3ca:	6002      	str	r2, [r0, #0]
 800d3cc:	6818      	ldr	r0, [r3, #0]
 800d3ce:	460a      	mov	r2, r1
 800d3d0:	f002 fcfc 	bl	800fdcc <xQueueReceiveFromISR>
 800d3d4:	2801      	cmp	r0, #1
 800d3d6:	d00d      	beq.n	800d3f4 <_ZN9video_cfg7columns3osd6enableEv+0x90>
 800d3d8:	4813      	ldr	r0, [pc, #76]	; (800d428 <_ZN9video_cfg7columns3osd6enableEv+0xc4>)
 800d3da:	6803      	ldr	r3, [r0, #0]
 800d3dc:	2200      	movs	r2, #0
 800d3de:	60a2      	str	r2, [r4, #8]
 800d3e0:	b133      	cbz	r3, 800d3f0 <_ZN9video_cfg7columns3osd6enableEv+0x8c>
 800d3e2:	f64e 5104 	movw	r1, #60676	; 0xed04
 800d3e6:	f2ce 0100 	movt	r1, #57344	; 0xe000
 800d3ea:	f04f 5080 	mov.w	r0, #268435456	; 0x10000000
 800d3ee:	6008      	str	r0, [r1, #0]
 800d3f0:	b002      	add	sp, #8
 800d3f2:	bd70      	pop	{r4, r5, r6, pc}
 800d3f4:	6825      	ldr	r5, [r4, #0]
 800d3f6:	4e0d      	ldr	r6, [pc, #52]	; (800d42c <_ZN9video_cfg7columns3osd6enableEv+0xc8>)
 800d3f8:	9501      	str	r5, [sp, #4]
 800d3fa:	6861      	ldr	r1, [r4, #4]
 800d3fc:	6830      	ldr	r0, [r6, #0]
 800d3fe:	6021      	str	r1, [r4, #0]
 800d400:	9e01      	ldr	r6, [sp, #4]
 800d402:	4a09      	ldr	r2, [pc, #36]	; (800d428 <_ZN9video_cfg7columns3osd6enableEv+0xc4>)
 800d404:	6066      	str	r6, [r4, #4]
 800d406:	2500      	movs	r5, #0
 800d408:	4629      	mov	r1, r5
 800d40a:	462b      	mov	r3, r5
 800d40c:	7325      	strb	r5, [r4, #12]
 800d40e:	f002 fb39 	bl	800fa84 <xQueueGenericSendFromISR>
 800d412:	e7e1      	b.n	800d3d8 <_ZN9video_cfg7columns3osd6enableEv+0x74>
 800d414:	10000014 	.word	0x10000014
 800d418:	10000002 	.word	0x10000002
 800d41c:	10000006 	.word	0x10000006
 800d420:	100008ec 	.word	0x100008ec
 800d424:	100008b4 	.word	0x100008b4
 800d428:	100008dc 	.word	0x100008dc
 800d42c:	100008e4 	.word	0x100008e4

0800d430 <_ZN9video_cfg7columns3osd7disableEv>:
 800d430:	f04f 4080 	mov.w	r0, #1073741824	; 0x40000000
 800d434:	b410      	push	{r4}
 800d436:	f44f 7106 	mov.w	r1, #536	; 0x218
 800d43a:	6884      	ldr	r4, [r0, #8]
 800d43c:	f44f 73cc 	mov.w	r3, #408	; 0x198
 800d440:	f2c4 2100 	movt	r1, #16896	; 0x4200
 800d444:	f2c4 2300 	movt	r3, #16896	; 0x4200
 800d448:	2200      	movs	r2, #0
 800d44a:	f024 0407 	bic.w	r4, r4, #7
 800d44e:	6084      	str	r4, [r0, #8]
 800d450:	600a      	str	r2, [r1, #0]
 800d452:	601a      	str	r2, [r3, #0]
 800d454:	bc10      	pop	{r4}
 800d456:	4770      	bx	lr

0800d458 <_ZN9video_cfg7columns5telem6enableEv>:
 800d458:	b5f0      	push	{r4, r5, r6, r7, lr}
 800d45a:	484d      	ldr	r0, [pc, #308]	; (800d590 <_ZN9video_cfg7columns5telem6enableEv+0x138>)
 800d45c:	4b4d      	ldr	r3, [pc, #308]	; (800d594 <_ZN9video_cfg7columns5telem6enableEv+0x13c>)
 800d45e:	6800      	ldr	r0, [r0, #0]
 800d460:	881c      	ldrh	r4, [r3, #0]
 800d462:	2100      	movs	r1, #0
 800d464:	b083      	sub	sp, #12
 800d466:	460a      	mov	r2, r1
 800d468:	f002 fcb0 	bl	800fdcc <xQueueReceiveFromISR>
 800d46c:	0465      	lsls	r5, r4, #17
 800d46e:	0c6c      	lsrs	r4, r5, #17
 800d470:	2801      	cmp	r0, #1
 800d472:	4d49      	ldr	r5, [pc, #292]	; (800d598 <_ZN9video_cfg7columns5telem6enableEv+0x140>)
 800d474:	d07c      	beq.n	800d570 <_ZN9video_cfg7columns5telem6enableEv+0x118>
 800d476:	4b49      	ldr	r3, [pc, #292]	; (800d59c <_ZN9video_cfg7columns5telem6enableEv+0x144>)
 800d478:	4949      	ldr	r1, [pc, #292]	; (800d5a0 <_ZN9video_cfg7columns5telem6enableEv+0x148>)
 800d47a:	8818      	ldrh	r0, [r3, #0]
 800d47c:	880e      	ldrh	r6, [r1, #0]
 800d47e:	3801      	subs	r0, #1
 800d480:	f44f 4380 	mov.w	r3, #16384	; 0x4000
 800d484:	f2c4 0301 	movt	r3, #16385	; 0x4001
 800d488:	f04f 4280 	mov.w	r2, #1073741824	; 0x40000000
 800d48c:	0067      	lsls	r7, r4, #1
 800d48e:	fb04 f606 	mul.w	r6, r4, r6
 800d492:	fb04 f000 	mul.w	r0, r4, r0
 800d496:	2100      	movs	r1, #0
 800d498:	3f01      	subs	r7, #1
 800d49a:	3c01      	subs	r4, #1
 800d49c:	3e01      	subs	r6, #1
 800d49e:	3801      	subs	r0, #1
 800d4a0:	60a9      	str	r1, [r5, #8]
 800d4a2:	6259      	str	r1, [r3, #36]	; 0x24
 800d4a4:	62df      	str	r7, [r3, #44]	; 0x2c
 800d4a6:	635c      	str	r4, [r3, #52]	; 0x34
 800d4a8:	6251      	str	r1, [r2, #36]	; 0x24
 800d4aa:	6416      	str	r6, [r2, #64]	; 0x40
 800d4ac:	62d0      	str	r0, [r2, #44]	; 0x2c
 800d4ae:	bf00      	nop
 800d4b0:	f44f 6286 	mov.w	r2, #1072	; 0x430
 800d4b4:	f44f 7306 	mov.w	r3, #536	; 0x218
 800d4b8:	f2c4 2200 	movt	r2, #16896	; 0x4200
 800d4bc:	f2c4 2300 	movt	r3, #16896	; 0x4200
 800d4c0:	2101      	movs	r1, #1
 800d4c2:	2400      	movs	r4, #0
 800d4c4:	6011      	str	r1, [r2, #0]
 800d4c6:	601c      	str	r4, [r3, #0]
 800d4c8:	bf00      	nop
 800d4ca:	f44f 70cc 	mov.w	r0, #408	; 0x198
 800d4ce:	f2c4 2000 	movt	r0, #16896	; 0x4200
 800d4d2:	f04f 4380 	mov.w	r3, #1073741824	; 0x40000000
 800d4d6:	6001      	str	r1, [r0, #0]
 800d4d8:	689a      	ldr	r2, [r3, #8]
 800d4da:	4832      	ldr	r0, [pc, #200]	; (800d5a4 <_ZN9video_cfg7columns5telem6enableEv+0x14c>)
 800d4dc:	4932      	ldr	r1, [pc, #200]	; (800d5a8 <_ZN9video_cfg7columns5telem6enableEv+0x150>)
 800d4de:	f042 0406 	orr.w	r4, r2, #6
 800d4e2:	609c      	str	r4, [r3, #8]
 800d4e4:	f246 4228 	movw	r2, #25640	; 0x6428
 800d4e8:	6844      	ldr	r4, [r0, #4]
 800d4ea:	f2c4 0202 	movt	r2, #16386	; 0x4002
 800d4ee:	f64c 43cd 	movw	r3, #52429	; 0xcccd
 800d4f2:	60d4      	str	r4, [r2, #12]
 800d4f4:	680c      	ldr	r4, [r1, #0]
 800d4f6:	6848      	ldr	r0, [r1, #4]
 800d4f8:	f6cc 43cc 	movt	r3, #52428	; 0xcccc
 800d4fc:	f1a4 0108 	sub.w	r1, r4, #8
 800d500:	fba3 4301 	umull	r4, r3, r3, r1
 800d504:	08db      	lsrs	r3, r3, #3
 800d506:	f44f 41c8 	mov.w	r1, #25600	; 0x6400
 800d50a:	f2c4 0102 	movt	r1, #16386	; 0x4002
 800d50e:	fb00 f303 	mul.w	r3, r0, r3
 800d512:	6053      	str	r3, [r2, #4]
 800d514:	6888      	ldr	r0, [r1, #8]
 800d516:	f440 6374 	orr.w	r3, r0, #3904	; 0xf40
 800d51a:	608b      	str	r3, [r1, #8]
 800d51c:	6888      	ldr	r0, [r1, #8]
 800d51e:	f44f 53a0 	mov.w	r3, #5120	; 0x1400
 800d522:	f2c4 0301 	movt	r3, #16385	; 0x4001
 800d526:	f420 6074 	bic.w	r0, r0, #3904	; 0xf40
 800d52a:	6088      	str	r0, [r1, #8]
 800d52c:	6919      	ldr	r1, [r3, #16]
 800d52e:	f421 4080 	bic.w	r0, r1, #16384	; 0x4000
 800d532:	6118      	str	r0, [r3, #16]
 800d534:	6959      	ldr	r1, [r3, #20]
 800d536:	f041 0040 	orr.w	r0, r1, #64	; 0x40
 800d53a:	6158      	str	r0, [r3, #20]
 800d53c:	6959      	ldr	r1, [r3, #20]
 800d53e:	f441 6000 	orr.w	r0, r1, #2048	; 0x800
 800d542:	2100      	movs	r1, #0
 800d544:	6158      	str	r0, [r3, #20]
 800d546:	6019      	str	r1, [r3, #0]
 800d548:	68d8      	ldr	r0, [r3, #12]
 800d54a:	f440 5100 	orr.w	r1, r0, #8192	; 0x2000
 800d54e:	60d9      	str	r1, [r3, #12]
 800d550:	6813      	ldr	r3, [r2, #0]
 800d552:	f043 0001 	orr.w	r0, r3, #1
 800d556:	6010      	str	r0, [r2, #0]
 800d558:	4a14      	ldr	r2, [pc, #80]	; (800d5ac <_ZN9video_cfg7columns5telem6enableEv+0x154>)
 800d55a:	6811      	ldr	r1, [r2, #0]
 800d55c:	b131      	cbz	r1, 800d56c <_ZN9video_cfg7columns5telem6enableEv+0x114>
 800d55e:	f64e 5304 	movw	r3, #60676	; 0xed04
 800d562:	f2ce 0300 	movt	r3, #57344	; 0xe000
 800d566:	f04f 5080 	mov.w	r0, #268435456	; 0x10000000
 800d56a:	6018      	str	r0, [r3, #0]
 800d56c:	b003      	add	sp, #12
 800d56e:	bdf0      	pop	{r4, r5, r6, r7, pc}
 800d570:	6829      	ldr	r1, [r5, #0]
 800d572:	4a0f      	ldr	r2, [pc, #60]	; (800d5b0 <_ZN9video_cfg7columns5telem6enableEv+0x158>)
 800d574:	9101      	str	r1, [sp, #4]
 800d576:	686e      	ldr	r6, [r5, #4]
 800d578:	6810      	ldr	r0, [r2, #0]
 800d57a:	602e      	str	r6, [r5, #0]
 800d57c:	9f01      	ldr	r7, [sp, #4]
 800d57e:	4a0b      	ldr	r2, [pc, #44]	; (800d5ac <_ZN9video_cfg7columns5telem6enableEv+0x154>)
 800d580:	606f      	str	r7, [r5, #4]
 800d582:	2600      	movs	r6, #0
 800d584:	4631      	mov	r1, r6
 800d586:	4633      	mov	r3, r6
 800d588:	732e      	strb	r6, [r5, #12]
 800d58a:	f002 fa7b 	bl	800fa84 <xQueueGenericSendFromISR>
 800d58e:	e772      	b.n	800d476 <_ZN9video_cfg7columns5telem6enableEv+0x1e>
 800d590:	100008e0 	.word	0x100008e0
 800d594:	10000016 	.word	0x10000016
 800d598:	100008c4 	.word	0x100008c4
 800d59c:	10000004 	.word	0x10000004
 800d5a0:	10000000 	.word	0x10000000
 800d5a4:	1000089c 	.word	0x1000089c
 800d5a8:	100008ac 	.word	0x100008ac
 800d5ac:	100008f0 	.word	0x100008f0
 800d5b0:	100008e8 	.word	0x100008e8

0800d5b4 <_ZN9video_cfg7columns5telem7disableEv>:
 800d5b4:	b470      	push	{r4, r5, r6}
 800d5b6:	f04f 4580 	mov.w	r5, #1073741824	; 0x40000000
 800d5ba:	f44f 7406 	mov.w	r4, #536	; 0x218
 800d5be:	68ae      	ldr	r6, [r5, #8]
 800d5c0:	f44f 70cc 	mov.w	r0, #408	; 0x198
 800d5c4:	f44f 6286 	mov.w	r2, #1072	; 0x430
 800d5c8:	f2c4 2000 	movt	r0, #16896	; 0x4200
 800d5cc:	f2c4 2200 	movt	r2, #16896	; 0x4200
 800d5d0:	f2c4 2400 	movt	r4, #16896	; 0x4200
 800d5d4:	f246 4328 	movw	r3, #25640	; 0x6428
 800d5d8:	2100      	movs	r1, #0
 800d5da:	f2c4 0302 	movt	r3, #16386	; 0x4002
 800d5de:	f026 0607 	bic.w	r6, r6, #7
 800d5e2:	60ae      	str	r6, [r5, #8]
 800d5e4:	6021      	str	r1, [r4, #0]
 800d5e6:	6001      	str	r1, [r0, #0]
 800d5e8:	6011      	str	r1, [r2, #0]
 800d5ea:	6818      	ldr	r0, [r3, #0]
 800d5ec:	f44f 52a0 	mov.w	r2, #5120	; 0x1400
 800d5f0:	f2c4 0201 	movt	r2, #16385	; 0x4001
 800d5f4:	f020 0001 	bic.w	r0, r0, #1
 800d5f8:	6018      	str	r0, [r3, #0]
 800d5fa:	6953      	ldr	r3, [r2, #20]
 800d5fc:	f023 0040 	bic.w	r0, r3, #64	; 0x40
 800d600:	6150      	str	r0, [r2, #20]
 800d602:	68d0      	ldr	r0, [r2, #12]
 800d604:	f640 039c 	movw	r3, #2204	; 0x89c
 800d608:	f2c1 0300 	movt	r3, #4096	; 0x1000
 800d60c:	f420 5000 	bic.w	r0, r0, #8192	; 0x2000
 800d610:	60d0      	str	r0, [r2, #12]
 800d612:	681a      	ldr	r2, [r3, #0]
 800d614:	b083      	sub	sp, #12
 800d616:	9201      	str	r2, [sp, #4]
 800d618:	6858      	ldr	r0, [r3, #4]
 800d61a:	6018      	str	r0, [r3, #0]
 800d61c:	9a01      	ldr	r2, [sp, #4]
 800d61e:	605a      	str	r2, [r3, #4]
 800d620:	7319      	strb	r1, [r3, #12]
 800d622:	b003      	add	sp, #12
 800d624:	bc70      	pop	{r4, r5, r6}
 800d626:	4770      	bx	lr

0800d628 <_ZN9video_cfg7columns3osd5beginEv>:
 800d628:	f240 0102 	movw	r1, #2
 800d62c:	f240 0206 	movw	r2, #6
 800d630:	f2c1 0100 	movt	r1, #4096	; 0x1000
 800d634:	f2c1 0200 	movt	r2, #4096	; 0x1000
 800d638:	f640 03b4 	movw	r3, #2228	; 0x8b4
 800d63c:	f2c1 0300 	movt	r3, #4096	; 0x1000
 800d640:	e92d 07f0 	stmdb	sp!, {r4, r5, r6, r7, r8, r9, sl}
 800d644:	8816      	ldrh	r6, [r2, #0]
 800d646:	880d      	ldrh	r5, [r1, #0]
 800d648:	681c      	ldr	r4, [r3, #0]
 800d64a:	6898      	ldr	r0, [r3, #8]
 800d64c:	681f      	ldr	r7, [r3, #0]
 800d64e:	1ba9      	subs	r1, r5, r6
 800d650:	1824      	adds	r4, r4, r0
 800d652:	f3c1 05cc 	ubfx	r5, r1, #3, #13
 800d656:	1c6b      	adds	r3, r5, #1
 800d658:	1d22      	adds	r2, r4, #4
 800d65a:	f500 5c50 	add.w	ip, r0, #13312	; 0x3400
 800d65e:	5cd6      	ldrb	r6, [r2, r3]
 800d660:	eb07 0a0c 	add.w	sl, r7, ip
 800d664:	f046 010f 	orr.w	r1, r6, #15
 800d668:	54d1      	strb	r1, [r2, r3]
 800d66a:	f10a 0804 	add.w	r8, sl, #4
 800d66e:	f246 0670 	movw	r6, #24688	; 0x6070
 800d672:	f818 9003 	ldrb.w	r9, [r8, r3]
 800d676:	f246 0188 	movw	r1, #24712	; 0x6088
 800d67a:	f2c4 0602 	movt	r6, #16386	; 0x4002
 800d67e:	f2c4 0102 	movt	r1, #16386	; 0x4002
 800d682:	f049 0c0f 	orr.w	ip, r9, #15
 800d686:	f44f 42c0 	mov.w	r2, #24576	; 0x6000
 800d68a:	f808 c003 	strb.w	ip, [r8, r3]
 800d68e:	f2c4 0202 	movt	r2, #16386	; 0x4002
 800d692:	f104 0805 	add.w	r8, r4, #5
 800d696:	f10a 0305 	add.w	r3, sl, #5
 800d69a:	f8c6 800c 	str.w	r8, [r6, #12]
 800d69e:	60cb      	str	r3, [r1, #12]
 800d6a0:	6075      	str	r5, [r6, #4]
 800d6a2:	604d      	str	r5, [r1, #4]
 800d6a4:	68d5      	ldr	r5, [r2, #12]
 800d6a6:	f445 6677 	orr.w	r6, r5, #3952	; 0xf70
 800d6aa:	f046 010d 	orr.w	r1, r6, #13
 800d6ae:	60d1      	str	r1, [r2, #12]
 800d6b0:	68d5      	ldr	r5, [r2, #12]
 800d6b2:	f44f 5360 	mov.w	r3, #14336	; 0x3800
 800d6b6:	f425 6677 	bic.w	r6, r5, #3952	; 0xf70
 800d6ba:	f2c4 0302 	movt	r3, #16386	; 0x4002
 800d6be:	f026 010d 	bic.w	r1, r6, #13
 800d6c2:	60d1      	str	r1, [r2, #12]
 800d6c4:	6c1a      	ldr	r2, [r3, #64]	; 0x40
 800d6c6:	f442 4540 	orr.w	r5, r2, #49152	; 0xc000
 800d6ca:	641d      	str	r5, [r3, #64]	; 0x40
 800d6cc:	6a1e      	ldr	r6, [r3, #32]
 800d6ce:	f446 4140 	orr.w	r1, r6, #49152	; 0xc000
 800d6d2:	6219      	str	r1, [r3, #32]
 800d6d4:	f8d3 a020 	ldr.w	sl, [r3, #32]
 800d6d8:	f44f 5160 	mov.w	r1, #14336	; 0x3800
 800d6dc:	f44f 5270 	mov.w	r2, #15360	; 0x3c00
 800d6e0:	f04f 0c20 	mov.w	ip, #32
 800d6e4:	f248 0520 	movw	r5, #32800	; 0x8020
 800d6e8:	f2c4 0100 	movt	r1, #16384	; 0x4000
 800d6ec:	f2c4 0200 	movt	r2, #16384	; 0x4000
 800d6f0:	f2c4 2c07 	movt	ip, #16903	; 0x4207
 800d6f4:	f2c4 2507 	movt	r5, #16903	; 0x4207
 800d6f8:	f24c 3980 	movw	r9, #50048	; 0xc380
 800d6fc:	f04f 0802 	mov.w	r8, #2
 800d700:	2600      	movs	r6, #0
 800d702:	f42a 4a40 	bic.w	sl, sl, #49152	; 0xc000
 800d706:	f8c3 a020 	str.w	sl, [r3, #32]
 800d70a:	f8c1 9000 	str.w	r9, [r1]
 800d70e:	f8c1 8004 	str.w	r8, [r1, #4]
 800d712:	f8c2 9000 	str.w	r9, [r2]
 800d716:	f8c2 8004 	str.w	r8, [r2, #4]
 800d71a:	f8cc 6000 	str.w	r6, [ip]
 800d71e:	602e      	str	r6, [r5, #0]
 800d720:	7923      	ldrb	r3, [r4, #4]
 800d722:	1838      	adds	r0, r7, r0
 800d724:	f043 0301 	orr.w	r3, r3, #1
 800d728:	f500 5050 	add.w	r0, r0, #13312	; 0x3400
 800d72c:	818b      	strh	r3, [r1, #12]
 800d72e:	7901      	ldrb	r1, [r0, #4]
 800d730:	f041 0301 	orr.w	r3, r1, #1
 800d734:	8193      	strh	r3, [r2, #12]
 800d736:	bf00      	nop
 800d738:	2018      	movs	r0, #24
 800d73a:	f2c4 2007 	movt	r0, #16903	; 0x4207
 800d73e:	2201      	movs	r2, #1
 800d740:	6002      	str	r2, [r0, #0]
 800d742:	bf00      	nop
 800d744:	f248 0318 	movw	r3, #32792	; 0x8018
 800d748:	f2c4 2307 	movt	r3, #16903	; 0x4207
 800d74c:	f246 0070 	movw	r0, #24688	; 0x6070
 800d750:	f2c4 0002 	movt	r0, #16386	; 0x4002
 800d754:	2101      	movs	r1, #1
 800d756:	6019      	str	r1, [r3, #0]
 800d758:	6802      	ldr	r2, [r0, #0]
 800d75a:	f246 0388 	movw	r3, #24712	; 0x6088
 800d75e:	f2c4 0302 	movt	r3, #16386	; 0x4002
 800d762:	f042 0101 	orr.w	r1, r2, #1
 800d766:	6001      	str	r1, [r0, #0]
 800d768:	6818      	ldr	r0, [r3, #0]
 800d76a:	f040 0201 	orr.w	r2, r0, #1
 800d76e:	601a      	str	r2, [r3, #0]
 800d770:	e8bd 07f0 	ldmia.w	sp!, {r4, r5, r6, r7, r8, r9, sl}
 800d774:	4770      	bx	lr
 800d776:	bf00      	nop

0800d778 <_ZN9video_cfg7columns5setupEv>:
 800d778:	f44f 5160 	mov.w	r1, #14336	; 0x3800
 800d77c:	f2c4 0102 	movt	r1, #16386	; 0x4002
 800d780:	b410      	push	{r4}
 800d782:	6c0b      	ldr	r3, [r1, #64]	; 0x40
 800d784:	f043 0001 	orr.w	r0, r3, #1
 800d788:	6408      	str	r0, [r1, #64]	; 0x40
 800d78a:	2200      	movs	r2, #0
 800d78c:	6a0c      	ldr	r4, [r1, #32]
 800d78e:	4610      	mov	r0, r2
 800d790:	f362 0000 	bfi	r0, r2, #0, #1
 800d794:	f044 0301 	orr.w	r3, r4, #1
 800d798:	f362 0041 	bfi	r0, r2, #1, #1
 800d79c:	620b      	str	r3, [r1, #32]
 800d79e:	f040 000c 	orr.w	r0, r0, #12
 800d7a2:	6a0c      	ldr	r4, [r1, #32]
 800d7a4:	f420 707c 	bic.w	r0, r0, #1008	; 0x3f0
 800d7a8:	f04f 4380 	mov.w	r3, #1073741824	; 0x40000000
 800d7ac:	0400      	lsls	r0, r0, #16
 800d7ae:	0c00      	lsrs	r0, r0, #16
 800d7b0:	f024 0401 	bic.w	r4, r4, #1
 800d7b4:	620c      	str	r4, [r1, #32]
 800d7b6:	6018      	str	r0, [r3, #0]
 800d7b8:	6859      	ldr	r1, [r3, #4]
 800d7ba:	f362 11c7 	bfi	r1, r2, #7, #1
 800d7be:	f041 0070 	orr.w	r0, r1, #112	; 0x70
 800d7c2:	b281      	uxth	r1, r0
 800d7c4:	6059      	str	r1, [r3, #4]
 800d7c6:	6899      	ldr	r1, [r3, #8]
 800d7c8:	2005      	movs	r0, #5
 800d7ca:	f362 11c7 	bfi	r1, r2, #7, #1
 800d7ce:	f360 1106 	bfi	r1, r0, #4, #3
 800d7d2:	f021 0107 	bic.w	r1, r1, #7
 800d7d6:	0408      	lsls	r0, r1, #16
 800d7d8:	0c01      	lsrs	r1, r0, #16
 800d7da:	6099      	str	r1, [r3, #8]
 800d7dc:	6999      	ldr	r1, [r3, #24]
 800d7de:	2001      	movs	r0, #1
 800d7e0:	f360 0101 	bfi	r1, r0, #0, #2
 800d7e4:	f021 01fc 	bic.w	r1, r1, #252	; 0xfc
 800d7e8:	0408      	lsls	r0, r1, #16
 800d7ea:	0c01      	lsrs	r1, r0, #16
 800d7ec:	6199      	str	r1, [r3, #24]
 800d7ee:	69d8      	ldr	r0, [r3, #28]
 800d7f0:	f362 2009 	bfi	r0, r2, #8, #2
 800d7f4:	f362 208a 	bfi	r0, r2, #10, #1
 800d7f8:	f362 20cb 	bfi	r0, r2, #11, #1
 800d7fc:	f440 41e0 	orr.w	r1, r0, #28672	; 0x7000
 800d800:	b288      	uxth	r0, r1
 800d802:	61d8      	str	r0, [r3, #28]
 800d804:	6a19      	ldr	r1, [r3, #32]
 800d806:	f362 01c3 	bfi	r1, r2, #3, #1
 800d80a:	f362 0141 	bfi	r1, r2, #1, #1
 800d80e:	f441 5040 	orr.w	r0, r1, #12288	; 0x3000
 800d812:	b281      	uxth	r1, r0
 800d814:	6219      	str	r1, [r3, #32]
 800d816:	629a      	str	r2, [r3, #40]	; 0x28
 800d818:	68d8      	ldr	r0, [r3, #12]
 800d81a:	f44f 4161 	mov.w	r1, #57600	; 0xe100
 800d81e:	f040 0041 	orr.w	r0, r0, #65	; 0x41
 800d822:	f2ce 0100 	movt	r1, #57344	; 0xe000
 800d826:	b280      	uxth	r0, r0
 800d828:	60d8      	str	r0, [r3, #12]
 800d82a:	611a      	str	r2, [r3, #16]
 800d82c:	22b0      	movs	r2, #176	; 0xb0
 800d82e:	f04f 5380 	mov.w	r3, #268435456	; 0x10000000
 800d832:	f881 231c 	strb.w	r2, [r1, #796]	; 0x31c
 800d836:	600b      	str	r3, [r1, #0]
 800d838:	bc10      	pop	{r4}
 800d83a:	4770      	bx	lr

0800d83c <TIM2_IRQHandler>:
 800d83c:	f44f 7306 	mov.w	r3, #536	; 0x218
 800d840:	4668      	mov	r0, sp
 800d842:	f2c4 2300 	movt	r3, #16896	; 0x4200
 800d846:	f020 0107 	bic.w	r1, r0, #7
 800d84a:	468d      	mov	sp, r1
 800d84c:	6819      	ldr	r1, [r3, #0]
 800d84e:	b531      	push	{r0, r4, r5, lr}
 800d850:	2900      	cmp	r1, #0
 800d852:	d148      	bne.n	800d8e6 <TIM2_IRQHandler+0xaa>
 800d854:	f44f 7200 	mov.w	r2, #512	; 0x200
 800d858:	f2c4 2200 	movt	r2, #16896	; 0x4200
 800d85c:	6810      	ldr	r0, [r2, #0]
 800d85e:	b918      	cbnz	r0, 800d868 <TIM2_IRQHandler+0x2c>
 800d860:	e8bd 4031 	ldmia.w	sp!, {r0, r4, r5, lr}
 800d864:	4685      	mov	sp, r0
 800d866:	4770      	bx	lr
 800d868:	4c67      	ldr	r4, [pc, #412]	; (800da08 <TIM2_IRQHandler+0x1cc>)
 800d86a:	6011      	str	r1, [r2, #0]
 800d86c:	6825      	ldr	r5, [r4, #0]
 800d86e:	2d01      	cmp	r5, #1
 800d870:	d047      	beq.n	800d902 <TIM2_IRQHandler+0xc6>
 800d872:	6019      	str	r1, [r3, #0]
 800d874:	bf00      	nop
 800d876:	4965      	ldr	r1, [pc, #404]	; (800da0c <TIM2_IRQHandler+0x1d0>)
 800d878:	4a65      	ldr	r2, [pc, #404]	; (800da10 <TIM2_IRQHandler+0x1d4>)
 800d87a:	880c      	ldrh	r4, [r1, #0]
 800d87c:	4865      	ldr	r0, [pc, #404]	; (800da14 <TIM2_IRQHandler+0x1d8>)
 800d87e:	8815      	ldrh	r5, [r2, #0]
 800d880:	f44f 73cc 	mov.w	r3, #408	; 0x198
 800d884:	f2c4 2300 	movt	r3, #16896	; 0x4200
 800d888:	2101      	movs	r1, #1
 800d88a:	6019      	str	r1, [r3, #0]
 800d88c:	6883      	ldr	r3, [r0, #8]
 800d88e:	1b64      	subs	r4, r4, r5
 800d890:	f3c4 04cc 	ubfx	r4, r4, #3, #13
 800d894:	185d      	adds	r5, r3, r1
 800d896:	f44f 4280 	mov.w	r2, #16384	; 0x4000
 800d89a:	192c      	adds	r4, r5, r4
 800d89c:	6084      	str	r4, [r0, #8]
 800d89e:	f2c4 0201 	movt	r2, #16385	; 0x4001
 800d8a2:	f04f 4080 	mov.w	r0, #1073741824	; 0x40000000
 800d8a6:	f44f 5360 	mov.w	r3, #14336	; 0x3800
 800d8aa:	f2c4 0302 	movt	r3, #16386	; 0x4002
 800d8ae:	2100      	movs	r1, #0
 800d8b0:	6241      	str	r1, [r0, #36]	; 0x24
 800d8b2:	6251      	str	r1, [r2, #36]	; 0x24
 800d8b4:	6c1a      	ldr	r2, [r3, #64]	; 0x40
 800d8b6:	f422 4140 	bic.w	r1, r2, #49152	; 0xc000
 800d8ba:	6419      	str	r1, [r3, #64]	; 0x40
 800d8bc:	6a18      	ldr	r0, [r3, #32]
 800d8be:	f246 0270 	movw	r2, #24688	; 0x6070
 800d8c2:	f2c4 0202 	movt	r2, #16386	; 0x4002
 800d8c6:	f440 4140 	orr.w	r1, r0, #49152	; 0xc000
 800d8ca:	6219      	str	r1, [r3, #32]
 800d8cc:	6810      	ldr	r0, [r2, #0]
 800d8ce:	f246 0388 	movw	r3, #24712	; 0x6088
 800d8d2:	f2c4 0302 	movt	r3, #16386	; 0x4002
 800d8d6:	f020 0101 	bic.w	r1, r0, #1
 800d8da:	6011      	str	r1, [r2, #0]
 800d8dc:	681a      	ldr	r2, [r3, #0]
 800d8de:	f022 0001 	bic.w	r0, r2, #1
 800d8e2:	6018      	str	r0, [r3, #0]
 800d8e4:	e7bc      	b.n	800d860 <TIM2_IRQHandler+0x24>
 800d8e6:	4a48      	ldr	r2, [pc, #288]	; (800da08 <TIM2_IRQHandler+0x1cc>)
 800d8e8:	f44f 71cc 	mov.w	r1, #408	; 0x198
 800d8ec:	6810      	ldr	r0, [r2, #0]
 800d8ee:	f2c4 2100 	movt	r1, #16896	; 0x4200
 800d8f2:	2200      	movs	r2, #0
 800d8f4:	2801      	cmp	r0, #1
 800d8f6:	601a      	str	r2, [r3, #0]
 800d8f8:	600a      	str	r2, [r1, #0]
 800d8fa:	d032      	beq.n	800d962 <TIM2_IRQHandler+0x126>
 800d8fc:	f7ff fe94 	bl	800d628 <_ZN9video_cfg7columns3osd5beginEv>
 800d900:	e7ae      	b.n	800d860 <TIM2_IRQHandler+0x24>
 800d902:	bf00      	nop
 800d904:	f44f 74cc 	mov.w	r4, #408	; 0x198
 800d908:	f2c4 2400 	movt	r4, #16896	; 0x4200
 800d90c:	f44f 4180 	mov.w	r1, #16384	; 0x4000
 800d910:	6025      	str	r5, [r4, #0]
 800d912:	4d41      	ldr	r5, [pc, #260]	; (800da18 <TIM2_IRQHandler+0x1dc>)
 800d914:	4c41      	ldr	r4, [pc, #260]	; (800da1c <TIM2_IRQHandler+0x1e0>)
 800d916:	682b      	ldr	r3, [r5, #0]
 800d918:	68a0      	ldr	r0, [r4, #8]
 800d91a:	f013 0207 	ands.w	r2, r3, #7
 800d91e:	eb00 05d3 	add.w	r5, r0, r3, lsr #3
 800d922:	bf18      	it	ne
 800d924:	2201      	movne	r2, #1
 800d926:	18aa      	adds	r2, r5, r2
 800d928:	60a2      	str	r2, [r4, #8]
 800d92a:	f2c4 0101 	movt	r1, #16385	; 0x4001
 800d92e:	f04f 4280 	mov.w	r2, #1073741824	; 0x40000000
 800d932:	f44f 5360 	mov.w	r3, #14336	; 0x3800
 800d936:	f2c4 0302 	movt	r3, #16386	; 0x4002
 800d93a:	2000      	movs	r0, #0
 800d93c:	6250      	str	r0, [r2, #36]	; 0x24
 800d93e:	6248      	str	r0, [r1, #36]	; 0x24
 800d940:	6c19      	ldr	r1, [r3, #64]	; 0x40
 800d942:	f421 4000 	bic.w	r0, r1, #32768	; 0x8000
 800d946:	6418      	str	r0, [r3, #64]	; 0x40
 800d948:	6a19      	ldr	r1, [r3, #32]
 800d94a:	f246 0288 	movw	r2, #24712	; 0x6088
 800d94e:	f2c4 0202 	movt	r2, #16386	; 0x4002
 800d952:	f441 4000 	orr.w	r0, r1, #32768	; 0x8000
 800d956:	6218      	str	r0, [r3, #32]
 800d958:	6813      	ldr	r3, [r2, #0]
 800d95a:	f023 0101 	bic.w	r1, r3, #1
 800d95e:	6011      	str	r1, [r2, #0]
 800d960:	e77e      	b.n	800d860 <TIM2_IRQHandler+0x24>
 800d962:	4d2d      	ldr	r5, [pc, #180]	; (800da18 <TIM2_IRQHandler+0x1dc>)
 800d964:	4c2d      	ldr	r4, [pc, #180]	; (800da1c <TIM2_IRQHandler+0x1e0>)
 800d966:	6829      	ldr	r1, [r5, #0]
 800d968:	68a0      	ldr	r0, [r4, #8]
 800d96a:	6825      	ldr	r5, [r4, #0]
 800d96c:	f011 0307 	ands.w	r3, r1, #7
 800d970:	bf18      	it	ne
 800d972:	2301      	movne	r3, #1
 800d974:	eb03 04d1 	add.w	r4, r3, r1, lsr #3
 800d978:	f246 0388 	movw	r3, #24712	; 0x6088
 800d97c:	1828      	adds	r0, r5, r0
 800d97e:	f2c4 0302 	movt	r3, #16386	; 0x4002
 800d982:	3c01      	subs	r4, #1
 800d984:	f44f 41c0 	mov.w	r1, #24576	; 0x6000
 800d988:	f2c4 0102 	movt	r1, #16386	; 0x4002
 800d98c:	1d45      	adds	r5, r0, #5
 800d98e:	b2a4      	uxth	r4, r4
 800d990:	60dd      	str	r5, [r3, #12]
 800d992:	605c      	str	r4, [r3, #4]
 800d994:	68cb      	ldr	r3, [r1, #12]
 800d996:	f443 6574 	orr.w	r5, r3, #3904	; 0xf40
 800d99a:	60cd      	str	r5, [r1, #12]
 800d99c:	68cc      	ldr	r4, [r1, #12]
 800d99e:	f44f 5360 	mov.w	r3, #14336	; 0x3800
 800d9a2:	f2c4 0302 	movt	r3, #16386	; 0x4002
 800d9a6:	f424 6574 	bic.w	r5, r4, #3904	; 0xf40
 800d9aa:	60cd      	str	r5, [r1, #12]
 800d9ac:	6c19      	ldr	r1, [r3, #64]	; 0x40
 800d9ae:	f441 4400 	orr.w	r4, r1, #32768	; 0x8000
 800d9b2:	641c      	str	r4, [r3, #64]	; 0x40
 800d9b4:	6a1d      	ldr	r5, [r3, #32]
 800d9b6:	f445 4100 	orr.w	r1, r5, #32768	; 0x8000
 800d9ba:	6219      	str	r1, [r3, #32]
 800d9bc:	6a1d      	ldr	r5, [r3, #32]
 800d9be:	f44f 5170 	mov.w	r1, #15360	; 0x3c00
 800d9c2:	f2c4 0100 	movt	r1, #16384	; 0x4000
 800d9c6:	f425 4500 	bic.w	r5, r5, #32768	; 0x8000
 800d9ca:	f248 0420 	movw	r4, #32800	; 0x8020
 800d9ce:	621d      	str	r5, [r3, #32]
 800d9d0:	f2c4 2407 	movt	r4, #16903	; 0x4207
 800d9d4:	f24c 3380 	movw	r3, #50048	; 0xc380
 800d9d8:	600b      	str	r3, [r1, #0]
 800d9da:	2302      	movs	r3, #2
 800d9dc:	604b      	str	r3, [r1, #4]
 800d9de:	6022      	str	r2, [r4, #0]
 800d9e0:	7902      	ldrb	r2, [r0, #4]
 800d9e2:	f042 000f 	orr.w	r0, r2, #15
 800d9e6:	8188      	strh	r0, [r1, #12]
 800d9e8:	bf00      	nop
 800d9ea:	f248 0218 	movw	r2, #32792	; 0x8018
 800d9ee:	f2c4 2207 	movt	r2, #16903	; 0x4207
 800d9f2:	f246 0388 	movw	r3, #24712	; 0x6088
 800d9f6:	f2c4 0302 	movt	r3, #16386	; 0x4002
 800d9fa:	2101      	movs	r1, #1
 800d9fc:	6011      	str	r1, [r2, #0]
 800d9fe:	6818      	ldr	r0, [r3, #0]
 800da00:	4308      	orrs	r0, r1
 800da02:	6018      	str	r0, [r3, #0]
 800da04:	e72c      	b.n	800d860 <TIM2_IRQHandler+0x24>
 800da06:	bf00      	nop
 800da08:	100008f4 	.word	0x100008f4
 800da0c:	10000002 	.word	0x10000002
 800da10:	10000006 	.word	0x10000006
 800da14:	100008b4 	.word	0x100008b4
 800da18:	100008ac 	.word	0x100008ac
 800da1c:	100008c4 	.word	0x100008c4

0800da20 <_ZN9video_cfg4rows5setupEv>:
 800da20:	f44f 5260 	mov.w	r2, #14336	; 0x3800
 800da24:	f2c4 0202 	movt	r2, #16386	; 0x4002
 800da28:	4831      	ldr	r0, [pc, #196]	; (800daf0 <_ZN9video_cfg4rows5setupEv+0xd0>)
 800da2a:	4932      	ldr	r1, [pc, #200]	; (800daf4 <_ZN9video_cfg4rows5setupEv+0xd4>)
 800da2c:	b538      	push	{r3, r4, r5, lr}
 800da2e:	6c15      	ldr	r5, [r2, #64]	; 0x40
 800da30:	8804      	ldrh	r4, [r0, #0]
 800da32:	4831      	ldr	r0, [pc, #196]	; (800daf8 <_ZN9video_cfg4rows5setupEv+0xd8>)
 800da34:	8809      	ldrh	r1, [r1, #0]
 800da36:	8800      	ldrh	r0, [r0, #0]
 800da38:	f045 0502 	orr.w	r5, r5, #2
 800da3c:	6415      	str	r5, [r2, #64]	; 0x40
 800da3e:	6a15      	ldr	r5, [r2, #32]
 800da40:	f045 0502 	orr.w	r5, r5, #2
 800da44:	6215      	str	r5, [r2, #32]
 800da46:	6a15      	ldr	r5, [r2, #32]
 800da48:	f44f 6380 	mov.w	r3, #1024	; 0x400
 800da4c:	f2c4 0300 	movt	r3, #16384	; 0x4000
 800da50:	f025 0502 	bic.w	r5, r5, #2
 800da54:	6215      	str	r5, [r2, #32]
 800da56:	681a      	ldr	r2, [r3, #0]
 800da58:	f042 0508 	orr.w	r5, r2, #8
 800da5c:	b2aa      	uxth	r2, r5
 800da5e:	601a      	str	r2, [r3, #0]
 800da60:	685d      	ldr	r5, [r3, #4]
 800da62:	f64f 727f 	movw	r2, #65407	; 0xff7f
 800da66:	402a      	ands	r2, r5
 800da68:	605a      	str	r2, [r3, #4]
 800da6a:	689d      	ldr	r5, [r3, #8]
 800da6c:	f24c 02ff 	movw	r2, #49407	; 0xc0ff
 800da70:	f445 4540 	orr.w	r5, r5, #49152	; 0xc000
 800da74:	402a      	ands	r2, r5
 800da76:	609a      	str	r2, [r3, #8]
 800da78:	699a      	ldr	r2, [r3, #24]
 800da7a:	2501      	movs	r5, #1
 800da7c:	f365 0201 	bfi	r2, r5, #0, #2
 800da80:	f422 42f7 	bic.w	r2, r2, #31616	; 0x7b80
 800da84:	f022 0570 	bic.w	r5, r2, #112	; 0x70
 800da88:	042a      	lsls	r2, r5, #16
 800da8a:	0c15      	lsrs	r5, r2, #16
 800da8c:	619d      	str	r5, [r3, #24]
 800da8e:	6a1a      	ldr	r2, [r3, #32]
 800da90:	f042 0510 	orr.w	r5, r2, #16
 800da94:	b2aa      	uxth	r2, r5
 800da96:	621a      	str	r2, [r3, #32]
 800da98:	69dd      	ldr	r5, [r3, #28]
 800da9a:	0849      	lsrs	r1, r1, #1
 800da9c:	f248 4284 	movw	r2, #33924	; 0x8484
 800daa0:	3901      	subs	r1, #1
 800daa2:	402a      	ands	r2, r5
 800daa4:	3801      	subs	r0, #1
 800daa6:	3c01      	subs	r4, #1
 800daa8:	61da      	str	r2, [r3, #28]
 800daaa:	639c      	str	r4, [r3, #56]	; 0x38
 800daac:	63d8      	str	r0, [r3, #60]	; 0x3c
 800daae:	6419      	str	r1, [r3, #64]	; 0x40
 800dab0:	f000 fa9c 	bl	800dfec <_ZN9video_cfg14get_video_modeEv>
 800dab4:	2801      	cmp	r0, #1
 800dab6:	bf0c      	ite	eq
 800dab8:	4b10      	ldreq	r3, [pc, #64]	; (800dafc <_ZN9video_cfg4rows5setupEv+0xdc>)
 800daba:	4b11      	ldrne	r3, [pc, #68]	; (800db00 <_ZN9video_cfg4rows5setupEv+0xe0>)
 800dabc:	881a      	ldrh	r2, [r3, #0]
 800dabe:	f44f 6080 	mov.w	r0, #1024	; 0x400
 800dac2:	f2c4 0000 	movt	r0, #16384	; 0x4000
 800dac6:	0851      	lsrs	r1, r2, #1
 800dac8:	1e8b      	subs	r3, r1, #2
 800daca:	62c3      	str	r3, [r0, #44]	; 0x2c
 800dacc:	68c1      	ldr	r1, [r0, #12]
 800dace:	f44f 4261 	mov.w	r2, #57600	; 0xe100
 800dad2:	f041 031d 	orr.w	r3, r1, #29
 800dad6:	b299      	uxth	r1, r3
 800dad8:	f2ce 0200 	movt	r2, #57344	; 0xe000
 800dadc:	2300      	movs	r3, #0
 800dade:	60c1      	str	r1, [r0, #12]
 800dae0:	6243      	str	r3, [r0, #36]	; 0x24
 800dae2:	f04f 5100 	mov.w	r1, #536870912	; 0x20000000
 800dae6:	20b0      	movs	r0, #176	; 0xb0
 800dae8:	f882 031d 	strb.w	r0, [r2, #797]	; 0x31d
 800daec:	6011      	str	r1, [r2, #0]
 800daee:	bd38      	pop	{r3, r4, r5, pc}
 800daf0:	1000000a 	.word	0x1000000a
 800daf4:	10000012 	.word	0x10000012
 800daf8:	10000010 	.word	0x10000010
 800dafc:	1000000c 	.word	0x1000000c
 800db00:	10000008 	.word	0x10000008

0800db04 <TIM3_IRQHandler>:
 800db04:	4668      	mov	r0, sp
 800db06:	f020 0107 	bic.w	r1, r0, #7
 800db0a:	468d      	mov	sp, r1
 800db0c:	b531      	push	{r0, r4, r5, lr}
 800db0e:	f44f 6480 	mov.w	r4, #1024	; 0x400
 800db12:	f2c4 0400 	movt	r4, #16384	; 0x4000
 800db16:	6923      	ldr	r3, [r4, #16]
 800db18:	f013 0504 	ands.w	r5, r3, #4
 800db1c:	d120      	bne.n	800db60 <TIM3_IRQHandler+0x5c>
 800db1e:	f013 0208 	ands.w	r2, r3, #8
 800db22:	d129      	bne.n	800db78 <TIM3_IRQHandler+0x74>
 800db24:	f013 0510 	ands.w	r5, r3, #16
 800db28:	d10f      	bne.n	800db4a <TIM3_IRQHandler+0x46>
 800db2a:	f44f 4002 	mov.w	r0, #33280	; 0x8200
 800db2e:	f2c4 2000 	movt	r0, #16896	; 0x4200
 800db32:	6005      	str	r5, [r0, #0]
 800db34:	f7ff fc7c 	bl	800d430 <_ZN9video_cfg7columns3osd7disableEv>
 800db38:	4914      	ldr	r1, [pc, #80]	; (800db8c <TIM3_IRQHandler+0x88>)
 800db3a:	600d      	str	r5, [r1, #0]
 800db3c:	6265      	str	r5, [r4, #36]	; 0x24
 800db3e:	f000 fa5b 	bl	800dff8 <_Z15sync_sep_enablev>
 800db42:	e8bd 4031 	ldmia.w	sp!, {r0, r4, r5, lr}
 800db46:	4685      	mov	sp, r0
 800db48:	4770      	bx	lr
 800db4a:	f248 2310 	movw	r3, #33296	; 0x8210
 800db4e:	f2c4 2300 	movt	r3, #16896	; 0x4200
 800db52:	480e      	ldr	r0, [pc, #56]	; (800db8c <TIM3_IRQHandler+0x88>)
 800db54:	601a      	str	r2, [r3, #0]
 800db56:	2202      	movs	r2, #2
 800db58:	6002      	str	r2, [r0, #0]
 800db5a:	f7ff fc03 	bl	800d364 <_ZN9video_cfg7columns3osd6enableEv>
 800db5e:	e7f0      	b.n	800db42 <TIM3_IRQHandler+0x3e>
 800db60:	f248 2008 	movw	r0, #33288	; 0x8208
 800db64:	f2c4 2000 	movt	r0, #16896	; 0x4200
 800db68:	2200      	movs	r2, #0
 800db6a:	4b08      	ldr	r3, [pc, #32]	; (800db8c <TIM3_IRQHandler+0x88>)
 800db6c:	6002      	str	r2, [r0, #0]
 800db6e:	2101      	movs	r1, #1
 800db70:	6019      	str	r1, [r3, #0]
 800db72:	f7ff fc71 	bl	800d458 <_ZN9video_cfg7columns5telem6enableEv>
 800db76:	e7e4      	b.n	800db42 <TIM3_IRQHandler+0x3e>
 800db78:	f248 210c 	movw	r1, #33292	; 0x820c
 800db7c:	f2c4 2100 	movt	r1, #16896	; 0x4200
 800db80:	600d      	str	r5, [r1, #0]
 800db82:	f7ff fd17 	bl	800d5b4 <_ZN9video_cfg7columns5telem7disableEv>
 800db86:	4b01      	ldr	r3, [pc, #4]	; (800db8c <TIM3_IRQHandler+0x88>)
 800db88:	601d      	str	r5, [r3, #0]
 800db8a:	e7da      	b.n	800db42 <TIM3_IRQHandler+0x3e>
 800db8c:	100008f4 	.word	0x100008f4

0800db90 <_ZN9video_cfg9spi_clock5setupEv>:
 800db90:	f44f 5260 	mov.w	r2, #14336	; 0x3800
 800db94:	f2c4 0202 	movt	r2, #16386	; 0x4002
 800db98:	2300      	movs	r3, #0
 800db9a:	6b11      	ldr	r1, [r2, #48]	; 0x30
 800db9c:	f2c4 0302 	movt	r3, #16386	; 0x4002
 800dba0:	f041 0001 	orr.w	r0, r1, #1
 800dba4:	b410      	push	{r4}
 800dba6:	6310      	str	r0, [r2, #48]	; 0x30
 800dba8:	681c      	ldr	r4, [r3, #0]
 800dbaa:	f024 0130 	bic.w	r1, r4, #48	; 0x30
 800dbae:	f041 0020 	orr.w	r0, r1, #32
 800dbb2:	6018      	str	r0, [r3, #0]
 800dbb4:	689c      	ldr	r4, [r3, #8]
 800dbb6:	f044 0130 	orr.w	r1, r4, #48	; 0x30
 800dbba:	6099      	str	r1, [r3, #8]
 800dbbc:	6958      	ldr	r0, [r3, #20]
 800dbbe:	f020 0404 	bic.w	r4, r0, #4
 800dbc2:	615c      	str	r4, [r3, #20]
 800dbc4:	6a19      	ldr	r1, [r3, #32]
 800dbc6:	f421 6070 	bic.w	r0, r1, #3840	; 0xf00
 800dbca:	f440 7440 	orr.w	r4, r0, #768	; 0x300
 800dbce:	621c      	str	r4, [r3, #32]
 800dbd0:	6c53      	ldr	r3, [r2, #68]	; 0x44
 800dbd2:	f443 3180 	orr.w	r1, r3, #65536	; 0x10000
 800dbd6:	6451      	str	r1, [r2, #68]	; 0x44
 800dbd8:	6a50      	ldr	r0, [r2, #36]	; 0x24
 800dbda:	f440 3480 	orr.w	r4, r0, #65536	; 0x10000
 800dbde:	6254      	str	r4, [r2, #36]	; 0x24
 800dbe0:	6a51      	ldr	r1, [r2, #36]	; 0x24
 800dbe2:	f44f 4380 	mov.w	r3, #16384	; 0x4000
 800dbe6:	f2c4 0301 	movt	r3, #16385	; 0x4001
 800dbea:	f421 3080 	bic.w	r0, r1, #65536	; 0x10000
 800dbee:	6250      	str	r0, [r2, #36]	; 0x24
 800dbf0:	681a      	ldr	r2, [r3, #0]
 800dbf2:	f36f 2209 	bfc	r2, #8, #2
 800dbf6:	f36f 12c7 	bfc	r2, #7, #1
 800dbfa:	f042 0404 	orr.w	r4, r2, #4
 800dbfe:	f024 010b 	bic.w	r1, r4, #11
 800dc02:	0408      	lsls	r0, r1, #16
 800dc04:	0c02      	lsrs	r2, r0, #16
 800dc06:	601a      	str	r2, [r3, #0]
 800dc08:	689c      	ldr	r4, [r3, #8]
 800dc0a:	f36f 34cf 	bfc	r4, #15, #1
 800dc0e:	f36f 348e 	bfc	r4, #14, #1
 800dc12:	f36f 340d 	bfc	r4, #12, #2
 800dc16:	f36f 240b 	bfc	r4, #8, #4
 800dc1a:	2105      	movs	r1, #5
 800dc1c:	f36f 1406 	bfc	r4, #4, #3
 800dc20:	f361 0402 	bfi	r4, r1, #0, #3
 800dc24:	b2a0      	uxth	r0, r4
 800dc26:	6098      	str	r0, [r3, #8]
 800dc28:	699a      	ldr	r2, [r3, #24]
 800dc2a:	f36f 0201 	bfc	r2, #0, #2
 800dc2e:	f042 0470 	orr.w	r4, r2, #112	; 0x70
 800dc32:	f024 010c 	bic.w	r1, r4, #12
 800dc36:	0408      	lsls	r0, r1, #16
 800dc38:	f240 0414 	movw	r4, #20
 800dc3c:	0c02      	lsrs	r2, r0, #16
 800dc3e:	f2c1 0400 	movt	r4, #4096	; 0x1000
 800dc42:	619a      	str	r2, [r3, #24]
 800dc44:	6a19      	ldr	r1, [r3, #32]
 800dc46:	8820      	ldrh	r0, [r4, #0]
 800dc48:	f041 0401 	orr.w	r4, r1, #1
 800dc4c:	0042      	lsls	r2, r0, #1
 800dc4e:	b290      	uxth	r0, r2
 800dc50:	f024 0102 	bic.w	r1, r4, #2
 800dc54:	040a      	lsls	r2, r1, #16
 800dc56:	0844      	lsrs	r4, r0, #1
 800dc58:	2100      	movs	r1, #0
 800dc5a:	0c12      	lsrs	r2, r2, #16
 800dc5c:	3801      	subs	r0, #1
 800dc5e:	3c01      	subs	r4, #1
 800dc60:	621a      	str	r2, [r3, #32]
 800dc62:	62d8      	str	r0, [r3, #44]	; 0x2c
 800dc64:	635c      	str	r4, [r3, #52]	; 0x34
 800dc66:	6259      	str	r1, [r3, #36]	; 0x24
 800dc68:	6119      	str	r1, [r3, #16]
 800dc6a:	60d9      	str	r1, [r3, #12]
 800dc6c:	6819      	ldr	r1, [r3, #0]
 800dc6e:	f041 0201 	orr.w	r2, r1, #1
 800dc72:	601a      	str	r2, [r3, #0]
 800dc74:	bc10      	pop	{r4}
 800dc76:	4770      	bx	lr

0800dc78 <_Z9spi_setupv>:
 800dc78:	f44f 5260 	mov.w	r2, #14336	; 0x3800
 800dc7c:	f2c4 0202 	movt	r2, #16386	; 0x4002
 800dc80:	f44f 6380 	mov.w	r3, #1024	; 0x400
 800dc84:	6b11      	ldr	r1, [r2, #48]	; 0x30
 800dc86:	f2c4 0302 	movt	r3, #16386	; 0x4002
 800dc8a:	f041 0002 	orr.w	r0, r1, #2
 800dc8e:	6310      	str	r0, [r2, #48]	; 0x30
 800dc90:	6819      	ldr	r1, [r3, #0]
 800dc92:	f021 6040 	bic.w	r0, r1, #201326592	; 0xc000000
 800dc96:	f040 6100 	orr.w	r1, r0, #134217728	; 0x8000000
 800dc9a:	6019      	str	r1, [r3, #0]
 800dc9c:	68d8      	ldr	r0, [r3, #12]
 800dc9e:	f020 6140 	bic.w	r1, r0, #201326592	; 0xc000000
 800dca2:	f041 6000 	orr.w	r0, r1, #134217728	; 0x8000000
 800dca6:	60d8      	str	r0, [r3, #12]
 800dca8:	6a59      	ldr	r1, [r3, #36]	; 0x24
 800dcaa:	f421 0070 	bic.w	r0, r1, #15728640	; 0xf00000
 800dcae:	f440 01a0 	orr.w	r1, r0, #5242880	; 0x500000
 800dcb2:	6259      	str	r1, [r3, #36]	; 0x24
 800dcb4:	6b10      	ldr	r0, [r2, #48]	; 0x30
 800dcb6:	f44f 6300 	mov.w	r3, #2048	; 0x800
 800dcba:	f2c4 0302 	movt	r3, #16386	; 0x4002
 800dcbe:	f040 0104 	orr.w	r1, r0, #4
 800dcc2:	6311      	str	r1, [r2, #48]	; 0x30
 800dcc4:	6818      	ldr	r0, [r3, #0]
 800dcc6:	f020 0130 	bic.w	r1, r0, #48	; 0x30
 800dcca:	f041 0020 	orr.w	r0, r1, #32
 800dcce:	6018      	str	r0, [r3, #0]
 800dcd0:	6859      	ldr	r1, [r3, #4]
 800dcd2:	f021 0004 	bic.w	r0, r1, #4
 800dcd6:	6058      	str	r0, [r3, #4]
 800dcd8:	6899      	ldr	r1, [r3, #8]
 800dcda:	f041 0030 	orr.w	r0, r1, #48	; 0x30
 800dcde:	6098      	str	r0, [r3, #8]
 800dce0:	68d9      	ldr	r1, [r3, #12]
 800dce2:	f021 0030 	bic.w	r0, r1, #48	; 0x30
 800dce6:	60d8      	str	r0, [r3, #12]
 800dce8:	6959      	ldr	r1, [r3, #20]
 800dcea:	f041 0004 	orr.w	r0, r1, #4
 800dcee:	6158      	str	r0, [r3, #20]
 800dcf0:	6a19      	ldr	r1, [r3, #32]
 800dcf2:	f421 6070 	bic.w	r0, r1, #3840	; 0xf00
 800dcf6:	f440 61a0 	orr.w	r1, r0, #1280	; 0x500
 800dcfa:	6219      	str	r1, [r3, #32]
 800dcfc:	6b10      	ldr	r0, [r2, #48]	; 0x30
 800dcfe:	f040 0104 	orr.w	r1, r0, #4
 800dd02:	6311      	str	r1, [r2, #48]	; 0x30
 800dd04:	6818      	ldr	r0, [r3, #0]
 800dd06:	f420 1140 	bic.w	r1, r0, #3145728	; 0x300000
 800dd0a:	f441 1000 	orr.w	r0, r1, #2097152	; 0x200000
 800dd0e:	6018      	str	r0, [r3, #0]
 800dd10:	68d9      	ldr	r1, [r3, #12]
 800dd12:	f421 1040 	bic.w	r0, r1, #3145728	; 0x300000
 800dd16:	f440 1100 	orr.w	r1, r0, #2097152	; 0x200000
 800dd1a:	60d9      	str	r1, [r3, #12]
 800dd1c:	6a58      	ldr	r0, [r3, #36]	; 0x24
 800dd1e:	f420 6170 	bic.w	r1, r0, #3840	; 0xf00
 800dd22:	f441 60c0 	orr.w	r0, r1, #1536	; 0x600
 800dd26:	6258      	str	r0, [r3, #36]	; 0x24
 800dd28:	6b11      	ldr	r1, [r2, #48]	; 0x30
 800dd2a:	f041 0004 	orr.w	r0, r1, #4
 800dd2e:	6310      	str	r0, [r2, #48]	; 0x30
 800dd30:	681a      	ldr	r2, [r3, #0]
 800dd32:	f422 0140 	bic.w	r1, r2, #12582912	; 0xc00000
 800dd36:	f441 0000 	orr.w	r0, r1, #8388608	; 0x800000
 800dd3a:	6018      	str	r0, [r3, #0]
 800dd3c:	685a      	ldr	r2, [r3, #4]
 800dd3e:	f422 6100 	bic.w	r1, r2, #2048	; 0x800
 800dd42:	6059      	str	r1, [r3, #4]
 800dd44:	6898      	ldr	r0, [r3, #8]
 800dd46:	f440 0240 	orr.w	r2, r0, #12582912	; 0xc00000
 800dd4a:	609a      	str	r2, [r3, #8]
 800dd4c:	68d9      	ldr	r1, [r3, #12]
 800dd4e:	f421 0040 	bic.w	r0, r1, #12582912	; 0xc00000
 800dd52:	60d8      	str	r0, [r3, #12]
 800dd54:	695a      	ldr	r2, [r3, #20]
 800dd56:	f442 6100 	orr.w	r1, r2, #2048	; 0x800
 800dd5a:	6159      	str	r1, [r3, #20]
 800dd5c:	6a58      	ldr	r0, [r3, #36]	; 0x24
 800dd5e:	f420 4270 	bic.w	r2, r0, #61440	; 0xf000
 800dd62:	f442 41c0 	orr.w	r1, r2, #24576	; 0x6000
 800dd66:	6259      	str	r1, [r3, #36]	; 0x24
 800dd68:	4770      	bx	lr
 800dd6a:	bf00      	nop

0800dd6c <_Z15pixel_dma_setupv>:
 800dd6c:	f44f 5260 	mov.w	r2, #14336	; 0x3800
 800dd70:	f2c4 0202 	movt	r2, #16386	; 0x4002
 800dd74:	2314      	movs	r3, #20
 800dd76:	6b11      	ldr	r1, [r2, #48]	; 0x30
 800dd78:	f441 1000 	orr.w	r0, r1, #2097152	; 0x200000
 800dd7c:	6310      	str	r0, [r2, #48]	; 0x30
 800dd7e:	bf00      	nop
 800dd80:	3b01      	subs	r3, #1
 800dd82:	b2da      	uxtb	r2, r3
 800dd84:	bf00      	nop
 800dd86:	1e51      	subs	r1, r2, #1
 800dd88:	f011 03ff 	ands.w	r3, r1, #255	; 0xff
 800dd8c:	d1f7      	bne.n	800dd7e <_Z15pixel_dma_setupv+0x12>
 800dd8e:	f44f 5060 	mov.w	r0, #14336	; 0x3800
 800dd92:	f2c4 0002 	movt	r0, #16386	; 0x4002
 800dd96:	f246 0270 	movw	r2, #24688	; 0x6070
 800dd9a:	6901      	ldr	r1, [r0, #16]
 800dd9c:	f441 1300 	orr.w	r3, r1, #2097152	; 0x200000
 800dda0:	6103      	str	r3, [r0, #16]
 800dda2:	6901      	ldr	r1, [r0, #16]
 800dda4:	f2c4 0202 	movt	r2, #16386	; 0x4002
 800dda8:	f421 1300 	bic.w	r3, r1, #2097152	; 0x200000
 800ddac:	6103      	str	r3, [r0, #16]
 800ddae:	6810      	ldr	r0, [r2, #0]
 800ddb0:	07c3      	lsls	r3, r0, #31
 800ddb2:	d506      	bpl.n	800ddc2 <_Z15pixel_dma_setupv+0x56>
 800ddb4:	6811      	ldr	r1, [r2, #0]
 800ddb6:	f021 0301 	bic.w	r3, r1, #1
 800ddba:	6013      	str	r3, [r2, #0]
 800ddbc:	6810      	ldr	r0, [r2, #0]
 800ddbe:	07c1      	lsls	r1, r0, #31
 800ddc0:	d4fc      	bmi.n	800ddbc <_Z15pixel_dma_setupv+0x50>
 800ddc2:	f246 0370 	movw	r3, #24688	; 0x6070
 800ddc6:	f2c4 0302 	movt	r3, #16386	; 0x4002
 800ddca:	f44f 6288 	mov.w	r2, #1088	; 0x440
 800ddce:	f2c0 0203 	movt	r2, #3
 800ddd2:	601a      	str	r2, [r3, #0]
 800ddd4:	6959      	ldr	r1, [r3, #20]
 800ddd6:	f041 0004 	orr.w	r0, r1, #4
 800ddda:	6158      	str	r0, [r3, #20]
 800dddc:	6958      	ldr	r0, [r3, #20]
 800ddde:	f643 010c 	movw	r1, #14348	; 0x380c
 800dde2:	f246 0288 	movw	r2, #24712	; 0x6088
 800dde6:	f040 0003 	orr.w	r0, r0, #3
 800ddea:	f2c4 0100 	movt	r1, #16384	; 0x4000
 800ddee:	f2c4 0202 	movt	r2, #16386	; 0x4002
 800ddf2:	6158      	str	r0, [r3, #20]
 800ddf4:	6099      	str	r1, [r3, #8]
 800ddf6:	6813      	ldr	r3, [r2, #0]
 800ddf8:	07d8      	lsls	r0, r3, #31
 800ddfa:	d506      	bpl.n	800de0a <_Z15pixel_dma_setupv+0x9e>
 800ddfc:	6811      	ldr	r1, [r2, #0]
 800ddfe:	f021 0001 	bic.w	r0, r1, #1
 800de02:	6010      	str	r0, [r2, #0]
 800de04:	6813      	ldr	r3, [r2, #0]
 800de06:	07db      	lsls	r3, r3, #31
 800de08:	d4fc      	bmi.n	800de04 <_Z15pixel_dma_setupv+0x98>
 800de0a:	f246 0088 	movw	r0, #24712	; 0x6088
 800de0e:	f2c4 0002 	movt	r0, #16386	; 0x4002
 800de12:	f44f 6288 	mov.w	r2, #1088	; 0x440
 800de16:	f2c0 0203 	movt	r2, #3
 800de1a:	6002      	str	r2, [r0, #0]
 800de1c:	6941      	ldr	r1, [r0, #20]
 800de1e:	f041 0304 	orr.w	r3, r1, #4
 800de22:	6143      	str	r3, [r0, #20]
 800de24:	6941      	ldr	r1, [r0, #20]
 800de26:	f643 420c 	movw	r2, #15372	; 0x3c0c
 800de2a:	f041 0303 	orr.w	r3, r1, #3
 800de2e:	f2c4 0200 	movt	r2, #16384	; 0x4000
 800de32:	6143      	str	r3, [r0, #20]
 800de34:	6082      	str	r2, [r0, #8]
 800de36:	4770      	bx	lr

0800de38 <_Z11video_setupv>:
 800de38:	b508      	push	{r3, lr}
 800de3a:	f7ff ff1d 	bl	800dc78 <_Z9spi_setupv>
 800de3e:	f7ff ff95 	bl	800dd6c <_Z15pixel_dma_setupv>
 800de42:	f44f 5260 	mov.w	r2, #14336	; 0x3800
 800de46:	f2c4 0202 	movt	r2, #16386	; 0x4002
 800de4a:	2300      	movs	r3, #0
 800de4c:	6b11      	ldr	r1, [r2, #48]	; 0x30
 800de4e:	f2c4 0302 	movt	r3, #16386	; 0x4002
 800de52:	f041 0001 	orr.w	r0, r1, #1
 800de56:	6310      	str	r0, [r2, #48]	; 0x30
 800de58:	6819      	ldr	r1, [r3, #0]
 800de5a:	f021 4040 	bic.w	r0, r1, #3221225472	; 0xc0000000
 800de5e:	f040 4100 	orr.w	r1, r0, #2147483648	; 0x80000000
 800de62:	6019      	str	r1, [r3, #0]
 800de64:	6a58      	ldr	r0, [r3, #36]	; 0x24
 800de66:	f020 4170 	bic.w	r1, r0, #4026531840	; 0xf0000000
 800de6a:	f041 5080 	orr.w	r0, r1, #268435456	; 0x10000000
 800de6e:	6258      	str	r0, [r3, #36]	; 0x24
 800de70:	6b11      	ldr	r1, [r2, #48]	; 0x30
 800de72:	f44f 6340 	mov.w	r3, #3072	; 0xc00
 800de76:	f2c4 0302 	movt	r3, #16386	; 0x4002
 800de7a:	f041 0008 	orr.w	r0, r1, #8
 800de7e:	6310      	str	r0, [r2, #48]	; 0x30
 800de80:	681a      	ldr	r2, [r3, #0]
 800de82:	f022 0130 	bic.w	r1, r2, #48	; 0x30
 800de86:	f041 0020 	orr.w	r0, r1, #32
 800de8a:	6018      	str	r0, [r3, #0]
 800de8c:	6a1a      	ldr	r2, [r3, #32]
 800de8e:	f422 6170 	bic.w	r1, r2, #3840	; 0xf00
 800de92:	f441 7000 	orr.w	r0, r1, #512	; 0x200
 800de96:	6218      	str	r0, [r3, #32]
 800de98:	f000 f880 	bl	800df9c <_Z14av_telem_setupv>
 800de9c:	f7ff fe78 	bl	800db90 <_ZN9video_cfg9spi_clock5setupEv>
 800dea0:	f7ff fc6a 	bl	800d778 <_ZN9video_cfg7columns5setupEv>
 800dea4:	f7ff fdbc 	bl	800da20 <_ZN9video_cfg4rows5setupEv>
 800dea8:	f7ff f826 	bl	800cef8 <_ZN13video_buffers4initEv>
 800deac:	f000 f8d6 	bl	800e05c <_Z14sync_sep_setupv>
 800deb0:	e8bd 4008 	ldmia.w	sp!, {r3, lr}
 800deb4:	f000 b8a0 	b.w	800dff8 <_Z15sync_sep_enablev>

0800deb8 <_ZN12_GLOBAL__N_110telem_taskEPv>:
 800deb8:	e92d 43f8 	stmdb	sp!, {r3, r4, r5, r6, r7, r8, r9, lr}
 800debc:	4d25      	ldr	r5, [pc, #148]	; (800df54 <_ZN12_GLOBAL__N_110telem_taskEPv+0x9c>)
 800debe:	4e26      	ldr	r6, [pc, #152]	; (800df58 <_ZN12_GLOBAL__N_110telem_taskEPv+0xa0>)
 800dec0:	f7ff f9d6 	bl	800d270 <_Z28create_telem_swap_semaphoresv>
 800dec4:	e895 000c 	ldmia.w	r5, {r2, r3}
 800dec8:	f64c 48cd 	movw	r8, #52429	; 0xcccd
 800decc:	3a08      	subs	r2, #8
 800dece:	f6cc 48cc 	movt	r8, #52428	; 0xcccc
 800ded2:	fba8 1002 	umull	r1, r0, r8, r2
 800ded6:	08c0      	lsrs	r0, r0, #3
 800ded8:	fb03 f000 	mul.w	r0, r3, r0
 800dedc:	f002 fc64 	bl	80107a8 <pvPortMalloc>
 800dee0:	6030      	str	r0, [r6, #0]
 800dee2:	b3a0      	cbz	r0, 800df4e <_ZN12_GLOBAL__N_110telem_taskEPv+0x96>
 800dee4:	f001 f860 	bl	800efa8 <xTaskGetTickCount>
 800dee8:	2300      	movs	r3, #0
 800deea:	f64e 2260 	movw	r2, #60000	; 0xea60
 800deee:	2100      	movs	r1, #0
 800def0:	4607      	mov	r7, r0
 800def2:	f7fe fcff 	bl	800c8f4 <__aeabi_ldivmod>
 800def6:	2300      	movs	r3, #0
 800def8:	4604      	mov	r4, r0
 800defa:	f44f 727a 	mov.w	r2, #1000	; 0x3e8
 800defe:	eba0 1900 	sub.w	r9, r0, r0, lsl #4
 800df02:	2100      	movs	r1, #0
 800df04:	4638      	mov	r0, r7
 800df06:	f7fe fcf5 	bl	800c8f4 <__aeabi_ldivmod>
 800df0a:	6837      	ldr	r7, [r6, #0]
 800df0c:	4913      	ldr	r1, [pc, #76]	; (800df5c <_ZN12_GLOBAL__N_110telem_taskEPv+0xa4>)
 800df0e:	ea4f 0989 	mov.w	r9, r9, lsl #2
 800df12:	eb09 0300 	add.w	r3, r9, r0
 800df16:	4622      	mov	r2, r4
 800df18:	4638      	mov	r0, r7
 800df1a:	f003 f9e9 	bl	80112f0 <sprintf>
 800df1e:	6834      	ldr	r4, [r6, #0]
 800df20:	4620      	mov	r0, r4
 800df22:	f003 fa0d 	bl	8011340 <strlen>
 800df26:	e895 000c 	ldmia.w	r5, {r2, r3}
 800df2a:	3a08      	subs	r2, #8
 800df2c:	fba8 1202 	umull	r1, r2, r8, r2
 800df30:	08d7      	lsrs	r7, r2, #3
 800df32:	fb03 f707 	mul.w	r7, r3, r7
 800df36:	3001      	adds	r0, #1
 800df38:	1a3a      	subs	r2, r7, r0
 800df3a:	2100      	movs	r1, #0
 800df3c:	1820      	adds	r0, r4, r0
 800df3e:	f003 f92b 	bl	8011198 <memset>
 800df42:	4620      	mov	r0, r4
 800df44:	f7ff f8c4 	bl	800d0d0 <_ZN13video_buffers5telem2tx10write_dataEPh>
 800df48:	f7ff f9dc 	bl	800d304 <_Z18swap_telem_buffersv>
 800df4c:	e7ca      	b.n	800dee4 <_ZN12_GLOBAL__N_110telem_taskEPv+0x2c>
 800df4e:	e8bd 83f8 	ldmia.w	sp!, {r3, r4, r5, r6, r7, r8, r9, pc}
 800df52:	bf00      	nop
 800df54:	100008ac 	.word	0x100008ac
 800df58:	10000900 	.word	0x10000900
 800df5c:	08015730 	.word	0x08015730

0800df60 <_Z17create_telem_taskv>:
 800df60:	b500      	push	{lr}
 800df62:	f640 00fc 	movw	r0, #2300	; 0x8fc
 800df66:	b085      	sub	sp, #20
 800df68:	2300      	movs	r3, #0
 800df6a:	f2c1 0000 	movt	r0, #4096	; 0x1000
 800df6e:	2202      	movs	r2, #2
 800df70:	9001      	str	r0, [sp, #4]
 800df72:	9302      	str	r3, [sp, #8]
 800df74:	9303      	str	r3, [sp, #12]
 800df76:	f64d 60b9 	movw	r0, #57017	; 0xdeb9
 800df7a:	f245 714c 	movw	r1, #22348	; 0x574c
 800df7e:	f640 03f8 	movw	r3, #2296	; 0x8f8
 800df82:	9200      	str	r2, [sp, #0]
 800df84:	f6c0 0101 	movt	r1, #2049	; 0x801
 800df88:	f44f 7216 	mov.w	r2, #600	; 0x258
 800df8c:	f2c1 0300 	movt	r3, #4096	; 0x1000
 800df90:	f6c0 0000 	movt	r0, #2048	; 0x800
 800df94:	f000 feb8 	bl	800ed08 <xTaskGenericCreate>
 800df98:	b005      	add	sp, #20
 800df9a:	bd00      	pop	{pc}

0800df9c <_Z14av_telem_setupv>:
 800df9c:	4770      	bx	lr
 800df9e:	bf00      	nop

0800dfa0 <_ZN12_GLOBAL__N_19draw_taskEPv>:
 800dfa0:	b508      	push	{r3, lr}
 800dfa2:	f7ff f94f 	bl	800d244 <_Z26create_osd_swap_semaphoresv>
 800dfa6:	f000 fc3f 	bl	800e828 <_ZN4quan3uav3osd7on_drawEv>
 800dfaa:	f7ff f977 	bl	800d29c <_Z16swap_osd_buffersv>
 800dfae:	e7fa      	b.n	800dfa6 <_ZN12_GLOBAL__N_19draw_taskEPv+0x6>

0800dfb0 <_Z16create_draw_taskv>:
 800dfb0:	b500      	push	{lr}
 800dfb2:	f640 1008 	movw	r0, #2312	; 0x908
 800dfb6:	b085      	sub	sp, #20
 800dfb8:	2300      	movs	r3, #0
 800dfba:	f2c1 0000 	movt	r0, #4096	; 0x1000
 800dfbe:	2202      	movs	r2, #2
 800dfc0:	9001      	str	r0, [sp, #4]
 800dfc2:	9302      	str	r3, [sp, #8]
 800dfc4:	9303      	str	r3, [sp, #12]
 800dfc6:	f64d 70a1 	movw	r0, #57249	; 0xdfa1
 800dfca:	f245 7158 	movw	r1, #22360	; 0x5758
 800dfce:	f640 1304 	movw	r3, #2308	; 0x904
 800dfd2:	9200      	str	r2, [sp, #0]
 800dfd4:	f6c0 0101 	movt	r1, #2049	; 0x801
 800dfd8:	f241 3288 	movw	r2, #5000	; 0x1388
 800dfdc:	f2c1 0300 	movt	r3, #4096	; 0x1000
 800dfe0:	f6c0 0000 	movt	r0, #2048	; 0x800
 800dfe4:	f000 fe90 	bl	800ed08 <xTaskGenericCreate>
 800dfe8:	b005      	add	sp, #20
 800dfea:	bd00      	pop	{pc}

0800dfec <_ZN9video_cfg14get_video_modeEv>:
 800dfec:	f640 1324 	movw	r3, #2340	; 0x924
 800dff0:	f2c1 0300 	movt	r3, #4096	; 0x1000
 800dff4:	6818      	ldr	r0, [r3, #0]
 800dff6:	4770      	bx	lr

0800dff8 <_Z15sync_sep_enablev>:
 800dff8:	b4f0      	push	{r4, r5, r6, r7}
 800dffa:	f640 1010 	movw	r0, #2320	; 0x910
 800dffe:	f640 161c 	movw	r6, #2332	; 0x91c
 800e002:	f640 150c 	movw	r5, #2316	; 0x90c
 800e006:	f640 1420 	movw	r4, #2336	; 0x920
 800e00a:	f640 1712 	movw	r7, #2322	; 0x912
 800e00e:	f640 1114 	movw	r1, #2324	; 0x914
 800e012:	f44f 52c0 	mov.w	r2, #6144	; 0x1800
 800e016:	f2c4 0200 	movt	r2, #16384	; 0x4000
 800e01a:	f2c1 0600 	movt	r6, #4096	; 0x1000
 800e01e:	f2c1 0500 	movt	r5, #4096	; 0x1000
 800e022:	f2c1 0400 	movt	r4, #4096	; 0x1000
 800e026:	f2c1 0000 	movt	r0, #4096	; 0x1000
 800e02a:	f2c1 0700 	movt	r7, #4096	; 0x1000
 800e02e:	f2c1 0100 	movt	r1, #4096	; 0x1000
 800e032:	2300      	movs	r3, #0
 800e034:	703b      	strb	r3, [r7, #0]
 800e036:	8003      	strh	r3, [r0, #0]
 800e038:	600b      	str	r3, [r1, #0]
 800e03a:	7033      	strb	r3, [r6, #0]
 800e03c:	602b      	str	r3, [r5, #0]
 800e03e:	6023      	str	r3, [r4, #0]
 800e040:	6113      	str	r3, [r2, #16]
 800e042:	68d0      	ldr	r0, [r2, #12]
 800e044:	f040 0106 	orr.w	r1, r0, #6
 800e048:	60d1      	str	r1, [r2, #12]
 800e04a:	bf00      	nop
 800e04c:	2300      	movs	r3, #0
 800e04e:	f2c4 2303 	movt	r3, #16899	; 0x4203
 800e052:	2201      	movs	r2, #1
 800e054:	601a      	str	r2, [r3, #0]
 800e056:	bcf0      	pop	{r4, r5, r6, r7}
 800e058:	4770      	bx	lr
 800e05a:	bf00      	nop

0800e05c <_Z14sync_sep_setupv>:
 800e05c:	f44f 5260 	mov.w	r2, #14336	; 0x3800
 800e060:	f2c4 0202 	movt	r2, #16386	; 0x4002
 800e064:	b470      	push	{r4, r5, r6}
 800e066:	6b11      	ldr	r1, [r2, #48]	; 0x30
 800e068:	f041 0002 	orr.w	r0, r1, #2
 800e06c:	6310      	str	r0, [r2, #48]	; 0x30
 800e06e:	6b14      	ldr	r4, [r2, #48]	; 0x30
 800e070:	f44f 6380 	mov.w	r3, #1024	; 0x400
 800e074:	f2c4 0302 	movt	r3, #16386	; 0x4002
 800e078:	f044 0502 	orr.w	r5, r4, #2
 800e07c:	6315      	str	r5, [r2, #48]	; 0x30
 800e07e:	681e      	ldr	r6, [r3, #0]
 800e080:	f026 5140 	bic.w	r1, r6, #805306368	; 0x30000000
 800e084:	f041 5000 	orr.w	r0, r1, #536870912	; 0x20000000
 800e088:	6018      	str	r0, [r3, #0]
 800e08a:	68dc      	ldr	r4, [r3, #12]
 800e08c:	f024 5540 	bic.w	r5, r4, #805306368	; 0x30000000
 800e090:	f045 5680 	orr.w	r6, r5, #268435456	; 0x10000000
 800e094:	60de      	str	r6, [r3, #12]
 800e096:	6a59      	ldr	r1, [r3, #36]	; 0x24
 800e098:	f021 6070 	bic.w	r0, r1, #251658240	; 0xf000000
 800e09c:	f040 6410 	orr.w	r4, r0, #150994944	; 0x9000000
 800e0a0:	625c      	str	r4, [r3, #36]	; 0x24
 800e0a2:	681d      	ldr	r5, [r3, #0]
 800e0a4:	f025 4640 	bic.w	r6, r5, #3221225472	; 0xc0000000
 800e0a8:	f046 4100 	orr.w	r1, r6, #2147483648	; 0x80000000
 800e0ac:	6019      	str	r1, [r3, #0]
 800e0ae:	68d8      	ldr	r0, [r3, #12]
 800e0b0:	f020 4440 	bic.w	r4, r0, #3221225472	; 0xc0000000
 800e0b4:	f044 4580 	orr.w	r5, r4, #1073741824	; 0x40000000
 800e0b8:	60dd      	str	r5, [r3, #12]
 800e0ba:	6a5e      	ldr	r6, [r3, #36]	; 0x24
 800e0bc:	f026 4170 	bic.w	r1, r6, #4026531840	; 0xf0000000
 800e0c0:	f041 4010 	orr.w	r0, r1, #2415919104	; 0x90000000
 800e0c4:	6258      	str	r0, [r3, #36]	; 0x24
 800e0c6:	6c13      	ldr	r3, [r2, #64]	; 0x40
 800e0c8:	f043 0440 	orr.w	r4, r3, #64	; 0x40
 800e0cc:	6414      	str	r4, [r2, #64]	; 0x40
 800e0ce:	6a15      	ldr	r5, [r2, #32]
 800e0d0:	2000      	movs	r0, #0
 800e0d2:	f045 0640 	orr.w	r6, r5, #64	; 0x40
 800e0d6:	2102      	movs	r1, #2
 800e0d8:	6216      	str	r6, [r2, #32]
 800e0da:	f360 01c3 	bfi	r1, r0, #3, #1
 800e0de:	6a16      	ldr	r6, [r2, #32]
 800e0e0:	2501      	movs	r5, #1
 800e0e2:	4604      	mov	r4, r0
 800e0e4:	f360 1145 	bfi	r1, r0, #5, #1
 800e0e8:	f365 0401 	bfi	r4, r5, #0, #2
 800e0ec:	f360 11c7 	bfi	r1, r0, #7, #1
 800e0f0:	f44f 53c0 	mov.w	r3, #6144	; 0x1800
 800e0f4:	f2c4 0300 	movt	r3, #16384	; 0x4000
 800e0f8:	f365 2409 	bfi	r4, r5, #8, #2
 800e0fc:	f44f 4061 	mov.w	r0, #57600	; 0xe100
 800e100:	f041 0111 	orr.w	r1, r1, #17
 800e104:	f026 0540 	bic.w	r5, r6, #64	; 0x40
 800e108:	6215      	str	r5, [r2, #32]
 800e10a:	f2ce 0000 	movt	r0, #57344	; 0xe000
 800e10e:	b289      	uxth	r1, r1
 800e110:	b2a4      	uxth	r4, r4
 800e112:	f64f 72ff 	movw	r2, #65535	; 0xffff
 800e116:	62da      	str	r2, [r3, #44]	; 0x2c
 800e118:	619c      	str	r4, [r3, #24]
 800e11a:	6219      	str	r1, [r3, #32]
 800e11c:	23b0      	movs	r3, #176	; 0xb0
 800e11e:	f44f 6100 	mov.w	r1, #2048	; 0x800
 800e122:	f880 332b 	strb.w	r3, [r0, #811]	; 0x32b
 800e126:	6041      	str	r1, [r0, #4]
 800e128:	bc70      	pop	{r4, r5, r6}
 800e12a:	4770      	bx	lr

0800e12c <TIM8_BRK_TIM12_IRQHandler>:
 800e12c:	f44f 52c0 	mov.w	r2, #6144	; 0x1800
 800e130:	f2c4 0200 	movt	r2, #16384	; 0x4000
 800e134:	4668      	mov	r0, sp
 800e136:	6913      	ldr	r3, [r2, #16]
 800e138:	f020 0107 	bic.w	r1, r0, #7
 800e13c:	468d      	mov	sp, r1
 800e13e:	f013 0102 	ands.w	r1, r3, #2
 800e142:	b4f1      	push	{r0, r4, r5, r6, r7}
 800e144:	d129      	bne.n	800e19a <TIM8_BRK_TIM12_IRQHandler+0x6e>
 800e146:	075b      	lsls	r3, r3, #29
 800e148:	d402      	bmi.n	800e150 <TIM8_BRK_TIM12_IRQHandler+0x24>
 800e14a:	bcf1      	pop	{r0, r4, r5, r6, r7}
 800e14c:	4685      	mov	sp, r0
 800e14e:	4770      	bx	lr
 800e150:	489f      	ldr	r0, [pc, #636]	; (800e3d0 <TIM8_BRK_TIM12_IRQHandler+0x2a4>)
 800e152:	f44f 7302 	mov.w	r3, #520	; 0x208
 800e156:	f2c4 2303 	movt	r3, #16899	; 0x4203
 800e15a:	7804      	ldrb	r4, [r0, #0]
 800e15c:	6019      	str	r1, [r3, #0]
 800e15e:	2c00      	cmp	r4, #0
 800e160:	d03d      	beq.n	800e1de <TIM8_BRK_TIM12_IRQHandler+0xb2>
 800e162:	4c9c      	ldr	r4, [pc, #624]	; (800e3d4 <TIM8_BRK_TIM12_IRQHandler+0x2a8>)
 800e164:	6b95      	ldr	r5, [r2, #56]	; 0x38
 800e166:	8822      	ldrh	r2, [r4, #0]
 800e168:	1aab      	subs	r3, r5, r2
 800e16a:	b29b      	uxth	r3, r3
 800e16c:	f5a3 65d2 	sub.w	r5, r3, #1680	; 0x690
 800e170:	b2ad      	uxth	r5, r5
 800e172:	f240 42ec 	movw	r2, #1260	; 0x4ec
 800e176:	4295      	cmp	r5, r2
 800e178:	d948      	bls.n	800e20c <TIM8_BRK_TIM12_IRQHandler+0xe0>
 800e17a:	3b54      	subs	r3, #84	; 0x54
 800e17c:	f5b3 7f3d 	cmp.w	r3, #756	; 0x2f4
 800e180:	f240 8099 	bls.w	800e2b6 <TIM8_BRK_TIM12_IRQHandler+0x18a>
 800e184:	7001      	strb	r1, [r0, #0]
 800e186:	4894      	ldr	r0, [pc, #592]	; (800e3d8 <TIM8_BRK_TIM12_IRQHandler+0x2ac>)
 800e188:	4b94      	ldr	r3, [pc, #592]	; (800e3dc <TIM8_BRK_TIM12_IRQHandler+0x2b0>)
 800e18a:	6001      	str	r1, [r0, #0]
 800e18c:	4a94      	ldr	r2, [pc, #592]	; (800e3e0 <TIM8_BRK_TIM12_IRQHandler+0x2b4>)
 800e18e:	4895      	ldr	r0, [pc, #596]	; (800e3e4 <TIM8_BRK_TIM12_IRQHandler+0x2b8>)
 800e190:	6019      	str	r1, [r3, #0]
 800e192:	8021      	strh	r1, [r4, #0]
 800e194:	7011      	strb	r1, [r2, #0]
 800e196:	6001      	str	r1, [r0, #0]
 800e198:	e7d7      	b.n	800e14a <TIM8_BRK_TIM12_IRQHandler+0x1e>
 800e19a:	488d      	ldr	r0, [pc, #564]	; (800e3d0 <TIM8_BRK_TIM12_IRQHandler+0x2a4>)
 800e19c:	f44f 7301 	mov.w	r3, #516	; 0x204
 800e1a0:	f2c4 2303 	movt	r3, #16899	; 0x4203
 800e1a4:	7804      	ldrb	r4, [r0, #0]
 800e1a6:	2100      	movs	r1, #0
 800e1a8:	6019      	str	r1, [r3, #0]
 800e1aa:	2c00      	cmp	r4, #0
 800e1ac:	d028      	beq.n	800e200 <TIM8_BRK_TIM12_IRQHandler+0xd4>
 800e1ae:	4b89      	ldr	r3, [pc, #548]	; (800e3d4 <TIM8_BRK_TIM12_IRQHandler+0x2a8>)
 800e1b0:	6b55      	ldr	r5, [r2, #52]	; 0x34
 800e1b2:	881c      	ldrh	r4, [r3, #0]
 800e1b4:	b2aa      	uxth	r2, r5
 800e1b6:	1b15      	subs	r5, r2, r4
 800e1b8:	b2ac      	uxth	r4, r5
 800e1ba:	f46f 65a8 	mvn.w	r5, #1344	; 0x540
 800e1be:	1965      	adds	r5, r4, r5
 800e1c0:	b2ad      	uxth	r5, r5
 800e1c2:	801a      	strh	r2, [r3, #0]
 800e1c4:	f640 227e 	movw	r2, #2686	; 0xa7e
 800e1c8:	4295      	cmp	r5, r2
 800e1ca:	d978      	bls.n	800e2be <TIM8_BRK_TIM12_IRQHandler+0x192>
 800e1cc:	f5a4 647c 	sub.w	r4, r4, #4032	; 0xfc0
 800e1d0:	f5b4 6f28 	cmp.w	r4, #2688	; 0xa80
 800e1d4:	d21e      	bcs.n	800e214 <TIM8_BRK_TIM12_IRQHandler+0xe8>
 800e1d6:	4a81      	ldr	r2, [pc, #516]	; (800e3dc <TIM8_BRK_TIM12_IRQHandler+0x2b0>)
 800e1d8:	2102      	movs	r1, #2
 800e1da:	6011      	str	r1, [r2, #0]
 800e1dc:	e7b5      	b.n	800e14a <TIM8_BRK_TIM12_IRQHandler+0x1e>
 800e1de:	4b7e      	ldr	r3, [pc, #504]	; (800e3d8 <TIM8_BRK_TIM12_IRQHandler+0x2ac>)
 800e1e0:	681c      	ldr	r4, [r3, #0]
 800e1e2:	2c00      	cmp	r4, #0
 800e1e4:	d0b1      	beq.n	800e14a <TIM8_BRK_TIM12_IRQHandler+0x1e>
 800e1e6:	497d      	ldr	r1, [pc, #500]	; (800e3dc <TIM8_BRK_TIM12_IRQHandler+0x2b0>)
 800e1e8:	680a      	ldr	r2, [r1, #0]
 800e1ea:	2a00      	cmp	r2, #0
 800e1ec:	d0ad      	beq.n	800e14a <TIM8_BRK_TIM12_IRQHandler+0x1e>
 800e1ee:	4e7d      	ldr	r6, [pc, #500]	; (800e3e4 <TIM8_BRK_TIM12_IRQHandler+0x2b8>)
 800e1f0:	6835      	ldr	r5, [r6, #0]
 800e1f2:	2d04      	cmp	r5, #4
 800e1f4:	d8a9      	bhi.n	800e14a <TIM8_BRK_TIM12_IRQHandler+0x1e>
 800e1f6:	e8df f005 	tbb	[pc, r5]
 800e1fa:	544c      	.short	0x544c
 800e1fc:	263e      	.short	0x263e
 800e1fe:	18          	.byte	0x18
 800e1ff:	00          	.byte	0x00
 800e200:	6b52      	ldr	r2, [r2, #52]	; 0x34
 800e202:	4b74      	ldr	r3, [pc, #464]	; (800e3d4 <TIM8_BRK_TIM12_IRQHandler+0x2a8>)
 800e204:	2101      	movs	r1, #1
 800e206:	801a      	strh	r2, [r3, #0]
 800e208:	7001      	strb	r1, [r0, #0]
 800e20a:	e79e      	b.n	800e14a <TIM8_BRK_TIM12_IRQHandler+0x1e>
 800e20c:	4b72      	ldr	r3, [pc, #456]	; (800e3d8 <TIM8_BRK_TIM12_IRQHandler+0x2ac>)
 800e20e:	2402      	movs	r4, #2
 800e210:	601c      	str	r4, [r3, #0]
 800e212:	e7e8      	b.n	800e1e6 <TIM8_BRK_TIM12_IRQHandler+0xba>
 800e214:	7001      	strb	r1, [r0, #0]
 800e216:	4870      	ldr	r0, [pc, #448]	; (800e3d8 <TIM8_BRK_TIM12_IRQHandler+0x2ac>)
 800e218:	8019      	strh	r1, [r3, #0]
 800e21a:	6001      	str	r1, [r0, #0]
 800e21c:	4a6f      	ldr	r2, [pc, #444]	; (800e3dc <TIM8_BRK_TIM12_IRQHandler+0x2b0>)
 800e21e:	4b70      	ldr	r3, [pc, #448]	; (800e3e0 <TIM8_BRK_TIM12_IRQHandler+0x2b4>)
 800e220:	4870      	ldr	r0, [pc, #448]	; (800e3e4 <TIM8_BRK_TIM12_IRQHandler+0x2b8>)
 800e222:	6011      	str	r1, [r2, #0]
 800e224:	7019      	strb	r1, [r3, #0]
 800e226:	6001      	str	r1, [r0, #0]
 800e228:	e78f      	b.n	800e14a <TIM8_BRK_TIM12_IRQHandler+0x1e>
 800e22a:	2a01      	cmp	r2, #1
 800e22c:	d04b      	beq.n	800e2c6 <TIM8_BRK_TIM12_IRQHandler+0x19a>
 800e22e:	2700      	movs	r7, #0
 800e230:	7007      	strb	r7, [r0, #0]
 800e232:	600f      	str	r7, [r1, #0]
 800e234:	4a67      	ldr	r2, [pc, #412]	; (800e3d4 <TIM8_BRK_TIM12_IRQHandler+0x2a8>)
 800e236:	486a      	ldr	r0, [pc, #424]	; (800e3e0 <TIM8_BRK_TIM12_IRQHandler+0x2b4>)
 800e238:	496b      	ldr	r1, [pc, #428]	; (800e3e8 <TIM8_BRK_TIM12_IRQHandler+0x2bc>)
 800e23a:	601f      	str	r7, [r3, #0]
 800e23c:	8017      	strh	r7, [r2, #0]
 800e23e:	7007      	strb	r7, [r0, #0]
 800e240:	6037      	str	r7, [r6, #0]
 800e242:	600f      	str	r7, [r1, #0]
 800e244:	e781      	b.n	800e14a <TIM8_BRK_TIM12_IRQHandler+0x1e>
 800e246:	2a01      	cmp	r2, #1
 800e248:	d1f1      	bne.n	800e22e <TIM8_BRK_TIM12_IRQHandler+0x102>
 800e24a:	2c01      	cmp	r4, #1
 800e24c:	4a64      	ldr	r2, [pc, #400]	; (800e3e0 <TIM8_BRK_TIM12_IRQHandler+0x2b4>)
 800e24e:	f000 8086 	beq.w	800e35e <TIM8_BRK_TIM12_IRQHandler+0x232>
 800e252:	7817      	ldrb	r7, [r2, #0]
 800e254:	1c7c      	adds	r4, r7, #1
 800e256:	b2e4      	uxtb	r4, r4
 800e258:	2c08      	cmp	r4, #8
 800e25a:	7014      	strb	r4, [r2, #0]
 800e25c:	f67f af75 	bls.w	800e14a <TIM8_BRK_TIM12_IRQHandler+0x1e>
 800e260:	2400      	movs	r4, #0
 800e262:	7004      	strb	r4, [r0, #0]
 800e264:	601c      	str	r4, [r3, #0]
 800e266:	4860      	ldr	r0, [pc, #384]	; (800e3e8 <TIM8_BRK_TIM12_IRQHandler+0x2bc>)
 800e268:	4b5a      	ldr	r3, [pc, #360]	; (800e3d4 <TIM8_BRK_TIM12_IRQHandler+0x2a8>)
 800e26a:	600c      	str	r4, [r1, #0]
 800e26c:	801c      	strh	r4, [r3, #0]
 800e26e:	7014      	strb	r4, [r2, #0]
 800e270:	6034      	str	r4, [r6, #0]
 800e272:	6004      	str	r4, [r0, #0]
 800e274:	e769      	b.n	800e14a <TIM8_BRK_TIM12_IRQHandler+0x1e>
 800e276:	2a01      	cmp	r2, #1
 800e278:	d1d9      	bne.n	800e22e <TIM8_BRK_TIM12_IRQHandler+0x102>
 800e27a:	2c02      	cmp	r4, #2
 800e27c:	f000 8082 	beq.w	800e384 <TIM8_BRK_TIM12_IRQHandler+0x258>
 800e280:	4a57      	ldr	r2, [pc, #348]	; (800e3e0 <TIM8_BRK_TIM12_IRQHandler+0x2b4>)
 800e282:	7817      	ldrb	r7, [r2, #0]
 800e284:	1c7c      	adds	r4, r7, #1
 800e286:	b2e4      	uxtb	r4, r4
 800e288:	2c06      	cmp	r4, #6
 800e28a:	7014      	strb	r4, [r2, #0]
 800e28c:	f67f af5d 	bls.w	800e14a <TIM8_BRK_TIM12_IRQHandler+0x1e>
 800e290:	e7e6      	b.n	800e260 <TIM8_BRK_TIM12_IRQHandler+0x134>
 800e292:	2c01      	cmp	r4, #1
 800e294:	f47f af59 	bne.w	800e14a <TIM8_BRK_TIM12_IRQHandler+0x1e>
 800e298:	2a02      	cmp	r2, #2
 800e29a:	f47f af56 	bne.w	800e14a <TIM8_BRK_TIM12_IRQHandler+0x1e>
 800e29e:	6034      	str	r4, [r6, #0]
 800e2a0:	e753      	b.n	800e14a <TIM8_BRK_TIM12_IRQHandler+0x1e>
 800e2a2:	2c01      	cmp	r4, #1
 800e2a4:	d1c3      	bne.n	800e22e <TIM8_BRK_TIM12_IRQHandler+0x102>
 800e2a6:	2a01      	cmp	r2, #1
 800e2a8:	f47f af4f 	bne.w	800e14a <TIM8_BRK_TIM12_IRQHandler+0x1e>
 800e2ac:	4f4c      	ldr	r7, [pc, #304]	; (800e3e0 <TIM8_BRK_TIM12_IRQHandler+0x2b4>)
 800e2ae:	2302      	movs	r3, #2
 800e2b0:	6033      	str	r3, [r6, #0]
 800e2b2:	703a      	strb	r2, [r7, #0]
 800e2b4:	e749      	b.n	800e14a <TIM8_BRK_TIM12_IRQHandler+0x1e>
 800e2b6:	4b48      	ldr	r3, [pc, #288]	; (800e3d8 <TIM8_BRK_TIM12_IRQHandler+0x2ac>)
 800e2b8:	2401      	movs	r4, #1
 800e2ba:	601c      	str	r4, [r3, #0]
 800e2bc:	e793      	b.n	800e1e6 <TIM8_BRK_TIM12_IRQHandler+0xba>
 800e2be:	4b47      	ldr	r3, [pc, #284]	; (800e3dc <TIM8_BRK_TIM12_IRQHandler+0x2b0>)
 800e2c0:	2001      	movs	r0, #1
 800e2c2:	6018      	str	r0, [r3, #0]
 800e2c4:	e741      	b.n	800e14a <TIM8_BRK_TIM12_IRQHandler+0x1e>
 800e2c6:	2c01      	cmp	r4, #1
 800e2c8:	d1b1      	bne.n	800e22e <TIM8_BRK_TIM12_IRQHandler+0x102>
 800e2ca:	4f45      	ldr	r7, [pc, #276]	; (800e3e0 <TIM8_BRK_TIM12_IRQHandler+0x2b4>)
 800e2cc:	4846      	ldr	r0, [pc, #280]	; (800e3e8 <TIM8_BRK_TIM12_IRQHandler+0x2bc>)
 800e2ce:	783a      	ldrb	r2, [r7, #0]
 800e2d0:	6803      	ldr	r3, [r0, #0]
 800e2d2:	1c51      	adds	r1, r2, #1
 800e2d4:	b2ca      	uxtb	r2, r1
 800e2d6:	2b01      	cmp	r3, #1
 800e2d8:	703a      	strb	r2, [r7, #0]
 800e2da:	d066      	beq.n	800e3aa <TIM8_BRK_TIM12_IRQHandler+0x27e>
 800e2dc:	2b02      	cmp	r3, #2
 800e2de:	f47f af34 	bne.w	800e14a <TIM8_BRK_TIM12_IRQHandler+0x1e>
 800e2e2:	2a05      	cmp	r2, #5
 800e2e4:	f47f af31 	bne.w	800e14a <TIM8_BRK_TIM12_IRQHandler+0x1e>
 800e2e8:	4e40      	ldr	r6, [pc, #256]	; (800e3ec <TIM8_BRK_TIM12_IRQHandler+0x2c0>)
 800e2ea:	4d41      	ldr	r5, [pc, #260]	; (800e3f0 <TIM8_BRK_TIM12_IRQHandler+0x2c4>)
 800e2ec:	f8b6 c000 	ldrh.w	ip, [r6]
 800e2f0:	882d      	ldrh	r5, [r5, #0]
 800e2f2:	4940      	ldr	r1, [pc, #256]	; (800e3f4 <TIM8_BRK_TIM12_IRQHandler+0x2c8>)
 800e2f4:	2400      	movs	r4, #0
 800e2f6:	4e40      	ldr	r6, [pc, #256]	; (800e3f8 <TIM8_BRK_TIM12_IRQHandler+0x2cc>)
 800e2f8:	880a      	ldrh	r2, [r1, #0]
 800e2fa:	8837      	ldrh	r7, [r6, #0]
 800e2fc:	483f      	ldr	r0, [pc, #252]	; (800e3fc <TIM8_BRK_TIM12_IRQHandler+0x2d0>)
 800e2fe:	f2c4 2403 	movt	r4, #16899	; 0x4203
 800e302:	f44f 51c0 	mov.w	r1, #6144	; 0x1800
 800e306:	f2c4 0100 	movt	r1, #16384	; 0x4000
 800e30a:	2600      	movs	r6, #0
 800e30c:	6026      	str	r6, [r4, #0]
 800e30e:	68ce      	ldr	r6, [r1, #12]
 800e310:	ebc5 050c 	rsb	r5, r5, ip
 800e314:	1bd4      	subs	r4, r2, r7
 800e316:	f3c5 05cc 	ubfx	r5, r5, #3, #13
 800e31a:	f026 0606 	bic.w	r6, r6, #6
 800e31e:	f3c4 044e 	ubfx	r4, r4, #1, #15
 800e322:	00ed      	lsls	r5, r5, #3
 800e324:	60ce      	str	r6, [r1, #12]
 800e326:	6005      	str	r5, [r0, #0]
 800e328:	6044      	str	r4, [r0, #4]
 800e32a:	f44f 6080 	mov.w	r0, #1024	; 0x400
 800e32e:	f2c4 0000 	movt	r0, #16384	; 0x4000
 800e332:	0852      	lsrs	r2, r2, #1
 800e334:	1e91      	subs	r1, r2, #2
 800e336:	2200      	movs	r2, #0
 800e338:	62c1      	str	r1, [r0, #44]	; 0x2c
 800e33a:	6242      	str	r2, [r0, #36]	; 0x24
 800e33c:	bf00      	nop
 800e33e:	f44f 4000 	mov.w	r0, #32768	; 0x8000
 800e342:	2201      	movs	r2, #1
 800e344:	f2c4 2000 	movt	r0, #16896	; 0x4200
 800e348:	4293      	cmp	r3, r2
 800e34a:	6002      	str	r2, [r0, #0]
 800e34c:	f000 808d 	beq.w	800e46a <TIM8_BRK_TIM12_IRQHandler+0x33e>
 800e350:	2b02      	cmp	r3, #2
 800e352:	f000 808b 	beq.w	800e46c <TIM8_BRK_TIM12_IRQHandler+0x340>
 800e356:	4b2a      	ldr	r3, [pc, #168]	; (800e400 <TIM8_BRK_TIM12_IRQHandler+0x2d4>)
 800e358:	2100      	movs	r1, #0
 800e35a:	6019      	str	r1, [r3, #0]
 800e35c:	e6f5      	b.n	800e14a <TIM8_BRK_TIM12_IRQHandler+0x1e>
 800e35e:	7815      	ldrb	r5, [r2, #0]
 800e360:	2d05      	cmp	r5, #5
 800e362:	d02d      	beq.n	800e3c0 <TIM8_BRK_TIM12_IRQHandler+0x294>
 800e364:	2d06      	cmp	r5, #6
 800e366:	f47f af7b 	bne.w	800e260 <TIM8_BRK_TIM12_IRQHandler+0x134>
 800e36a:	4d1f      	ldr	r5, [pc, #124]	; (800e3e8 <TIM8_BRK_TIM12_IRQHandler+0x2bc>)
 800e36c:	682c      	ldr	r4, [r5, #0]
 800e36e:	2c02      	cmp	r4, #2
 800e370:	d003      	beq.n	800e37a <TIM8_BRK_TIM12_IRQHandler+0x24e>
 800e372:	2c00      	cmp	r4, #0
 800e374:	d15b      	bne.n	800e42e <TIM8_BRK_TIM12_IRQHandler+0x302>
 800e376:	2102      	movs	r1, #2
 800e378:	6029      	str	r1, [r5, #0]
 800e37a:	2004      	movs	r0, #4
 800e37c:	2100      	movs	r1, #0
 800e37e:	6030      	str	r0, [r6, #0]
 800e380:	7011      	strb	r1, [r2, #0]
 800e382:	e6e2      	b.n	800e14a <TIM8_BRK_TIM12_IRQHandler+0x1e>
 800e384:	4d16      	ldr	r5, [pc, #88]	; (800e3e0 <TIM8_BRK_TIM12_IRQHandler+0x2b4>)
 800e386:	782f      	ldrb	r7, [r5, #0]
 800e388:	2f04      	cmp	r7, #4
 800e38a:	d03d      	beq.n	800e408 <TIM8_BRK_TIM12_IRQHandler+0x2dc>
 800e38c:	2f05      	cmp	r7, #5
 800e38e:	d049      	beq.n	800e424 <TIM8_BRK_TIM12_IRQHandler+0x2f8>
 800e390:	2f06      	cmp	r7, #6
 800e392:	d056      	beq.n	800e442 <TIM8_BRK_TIM12_IRQHandler+0x316>
 800e394:	2200      	movs	r2, #0
 800e396:	600a      	str	r2, [r1, #0]
 800e398:	601a      	str	r2, [r3, #0]
 800e39a:	490e      	ldr	r1, [pc, #56]	; (800e3d4 <TIM8_BRK_TIM12_IRQHandler+0x2a8>)
 800e39c:	4b12      	ldr	r3, [pc, #72]	; (800e3e8 <TIM8_BRK_TIM12_IRQHandler+0x2bc>)
 800e39e:	7002      	strb	r2, [r0, #0]
 800e3a0:	800a      	strh	r2, [r1, #0]
 800e3a2:	702a      	strb	r2, [r5, #0]
 800e3a4:	6032      	str	r2, [r6, #0]
 800e3a6:	601a      	str	r2, [r3, #0]
 800e3a8:	e6cf      	b.n	800e14a <TIM8_BRK_TIM12_IRQHandler+0x1e>
 800e3aa:	2a03      	cmp	r2, #3
 800e3ac:	f47f aecd 	bne.w	800e14a <TIM8_BRK_TIM12_IRQHandler+0x1e>
 800e3b0:	4f0e      	ldr	r7, [pc, #56]	; (800e3ec <TIM8_BRK_TIM12_IRQHandler+0x2c0>)
 800e3b2:	480f      	ldr	r0, [pc, #60]	; (800e3f0 <TIM8_BRK_TIM12_IRQHandler+0x2c4>)
 800e3b4:	f8b7 c000 	ldrh.w	ip, [r7]
 800e3b8:	8805      	ldrh	r5, [r0, #0]
 800e3ba:	4912      	ldr	r1, [pc, #72]	; (800e404 <TIM8_BRK_TIM12_IRQHandler+0x2d8>)
 800e3bc:	2400      	movs	r4, #0
 800e3be:	e79a      	b.n	800e2f6 <TIM8_BRK_TIM12_IRQHandler+0x1ca>
 800e3c0:	4d09      	ldr	r5, [pc, #36]	; (800e3e8 <TIM8_BRK_TIM12_IRQHandler+0x2bc>)
 800e3c2:	682f      	ldr	r7, [r5, #0]
 800e3c4:	2f01      	cmp	r7, #1
 800e3c6:	d0d8      	beq.n	800e37a <TIM8_BRK_TIM12_IRQHandler+0x24e>
 800e3c8:	bb8f      	cbnz	r7, 800e42e <TIM8_BRK_TIM12_IRQHandler+0x302>
 800e3ca:	602c      	str	r4, [r5, #0]
 800e3cc:	e7d5      	b.n	800e37a <TIM8_BRK_TIM12_IRQHandler+0x24e>
 800e3ce:	bf00      	nop
 800e3d0:	1000091c 	.word	0x1000091c
 800e3d4:	10000910 	.word	0x10000910
 800e3d8:	1000090c 	.word	0x1000090c
 800e3dc:	10000920 	.word	0x10000920
 800e3e0:	10000912 	.word	0x10000912
 800e3e4:	10000914 	.word	0x10000914
 800e3e8:	10000924 	.word	0x10000924
 800e3ec:	10000002 	.word	0x10000002
 800e3f0:	10000006 	.word	0x10000006
 800e3f4:	10000008 	.word	0x10000008
 800e3f8:	10000012 	.word	0x10000012
 800e3fc:	100008d4 	.word	0x100008d4
 800e400:	10000918 	.word	0x10000918
 800e404:	1000000c 	.word	0x1000000c
 800e408:	4c1f      	ldr	r4, [pc, #124]	; (800e488 <TIM8_BRK_TIM12_IRQHandler+0x35c>)
 800e40a:	6827      	ldr	r7, [r4, #0]
 800e40c:	2f01      	cmp	r7, #1
 800e40e:	d001      	beq.n	800e414 <TIM8_BRK_TIM12_IRQHandler+0x2e8>
 800e410:	bb0f      	cbnz	r7, 800e456 <TIM8_BRK_TIM12_IRQHandler+0x32a>
 800e412:	6022      	str	r2, [r4, #0]
 800e414:	2200      	movs	r2, #0
 800e416:	481d      	ldr	r0, [pc, #116]	; (800e48c <TIM8_BRK_TIM12_IRQHandler+0x360>)
 800e418:	7002      	strb	r2, [r0, #0]
 800e41a:	2103      	movs	r1, #3
 800e41c:	2301      	movs	r3, #1
 800e41e:	6031      	str	r1, [r6, #0]
 800e420:	702b      	strb	r3, [r5, #0]
 800e422:	e692      	b.n	800e14a <TIM8_BRK_TIM12_IRQHandler+0x1e>
 800e424:	4818      	ldr	r0, [pc, #96]	; (800e488 <TIM8_BRK_TIM12_IRQHandler+0x35c>)
 800e426:	6801      	ldr	r1, [r0, #0]
 800e428:	2901      	cmp	r1, #1
 800e42a:	d1f3      	bne.n	800e414 <TIM8_BRK_TIM12_IRQHandler+0x2e8>
 800e42c:	e7f3      	b.n	800e416 <TIM8_BRK_TIM12_IRQHandler+0x2ea>
 800e42e:	2400      	movs	r4, #0
 800e430:	601c      	str	r4, [r3, #0]
 800e432:	4b17      	ldr	r3, [pc, #92]	; (800e490 <TIM8_BRK_TIM12_IRQHandler+0x364>)
 800e434:	7004      	strb	r4, [r0, #0]
 800e436:	600c      	str	r4, [r1, #0]
 800e438:	801c      	strh	r4, [r3, #0]
 800e43a:	7014      	strb	r4, [r2, #0]
 800e43c:	6034      	str	r4, [r6, #0]
 800e43e:	602c      	str	r4, [r5, #0]
 800e440:	e683      	b.n	800e14a <TIM8_BRK_TIM12_IRQHandler+0x1e>
 800e442:	4f11      	ldr	r7, [pc, #68]	; (800e488 <TIM8_BRK_TIM12_IRQHandler+0x35c>)
 800e444:	683a      	ldr	r2, [r7, #0]
 800e446:	2a02      	cmp	r2, #2
 800e448:	d001      	beq.n	800e44e <TIM8_BRK_TIM12_IRQHandler+0x322>
 800e44a:	b992      	cbnz	r2, 800e472 <TIM8_BRK_TIM12_IRQHandler+0x346>
 800e44c:	603c      	str	r4, [r7, #0]
 800e44e:	4b0f      	ldr	r3, [pc, #60]	; (800e48c <TIM8_BRK_TIM12_IRQHandler+0x360>)
 800e450:	2101      	movs	r1, #1
 800e452:	7019      	strb	r1, [r3, #0]
 800e454:	e7e1      	b.n	800e41a <TIM8_BRK_TIM12_IRQHandler+0x2ee>
 800e456:	2200      	movs	r2, #0
 800e458:	601a      	str	r2, [r3, #0]
 800e45a:	4b0d      	ldr	r3, [pc, #52]	; (800e490 <TIM8_BRK_TIM12_IRQHandler+0x364>)
 800e45c:	7002      	strb	r2, [r0, #0]
 800e45e:	600a      	str	r2, [r1, #0]
 800e460:	801a      	strh	r2, [r3, #0]
 800e462:	702a      	strb	r2, [r5, #0]
 800e464:	6032      	str	r2, [r6, #0]
 800e466:	6022      	str	r2, [r4, #0]
 800e468:	e66f      	b.n	800e14a <TIM8_BRK_TIM12_IRQHandler+0x1e>
 800e46a:	2202      	movs	r2, #2
 800e46c:	4809      	ldr	r0, [pc, #36]	; (800e494 <TIM8_BRK_TIM12_IRQHandler+0x368>)
 800e46e:	6002      	str	r2, [r0, #0]
 800e470:	e66b      	b.n	800e14a <TIM8_BRK_TIM12_IRQHandler+0x1e>
 800e472:	2200      	movs	r2, #0
 800e474:	7002      	strb	r2, [r0, #0]
 800e476:	4806      	ldr	r0, [pc, #24]	; (800e490 <TIM8_BRK_TIM12_IRQHandler+0x364>)
 800e478:	601a      	str	r2, [r3, #0]
 800e47a:	600a      	str	r2, [r1, #0]
 800e47c:	8002      	strh	r2, [r0, #0]
 800e47e:	702a      	strb	r2, [r5, #0]
 800e480:	6032      	str	r2, [r6, #0]
 800e482:	603a      	str	r2, [r7, #0]
 800e484:	e661      	b.n	800e14a <TIM8_BRK_TIM12_IRQHandler+0x1e>
 800e486:	bf00      	nop
 800e488:	10000924 	.word	0x10000924
 800e48c:	1000000e 	.word	0x1000000e
 800e490:	10000910 	.word	0x10000910
 800e494:	10000918 	.word	0x10000918

0800e498 <_Z10setup_ledsv>:
 800e498:	f44f 5260 	mov.w	r2, #14336	; 0x3800
 800e49c:	f2c4 0202 	movt	r2, #16386	; 0x4002
 800e4a0:	f44f 6380 	mov.w	r3, #1024	; 0x400
 800e4a4:	6b11      	ldr	r1, [r2, #48]	; 0x30
 800e4a6:	f2c4 0302 	movt	r3, #16386	; 0x4002
 800e4aa:	f041 0002 	orr.w	r0, r1, #2
 800e4ae:	6310      	str	r0, [r2, #48]	; 0x30
 800e4b0:	681a      	ldr	r2, [r3, #0]
 800e4b2:	f022 7140 	bic.w	r1, r2, #50331648	; 0x3000000
 800e4b6:	f041 7080 	orr.w	r0, r1, #16777216	; 0x1000000
 800e4ba:	6018      	str	r0, [r3, #0]
 800e4bc:	685a      	ldr	r2, [r3, #4]
 800e4be:	f422 5180 	bic.w	r1, r2, #4096	; 0x1000
 800e4c2:	6059      	str	r1, [r3, #4]
 800e4c4:	6898      	ldr	r0, [r3, #8]
 800e4c6:	f020 7240 	bic.w	r2, r0, #50331648	; 0x3000000
 800e4ca:	609a      	str	r2, [r3, #8]
 800e4cc:	68d9      	ldr	r1, [r3, #12]
 800e4ce:	f021 7040 	bic.w	r0, r1, #50331648	; 0x3000000
 800e4d2:	60d8      	str	r0, [r3, #12]
 800e4d4:	695a      	ldr	r2, [r3, #20]
 800e4d6:	f422 5180 	bic.w	r1, r2, #4096	; 0x1000
 800e4da:	6159      	str	r1, [r3, #20]
 800e4dc:	4770      	bx	lr
 800e4de:	bf00      	nop

0800e4e0 <TIM1_UP_TIM10_IRQHandler>:
 800e4e0:	4668      	mov	r0, sp
 800e4e2:	f020 0107 	bic.w	r1, r0, #7
 800e4e6:	468d      	mov	sp, r1
 800e4e8:	b4f1      	push	{r0, r4, r5, r6, r7}
 800e4ea:	f44f 4388 	mov.w	r3, #17408	; 0x4400
 800e4ee:	f2c4 0301 	movt	r3, #16385	; 0x4001
 800e4f2:	4931      	ldr	r1, [pc, #196]	; (800e5b8 <TIM1_UP_TIM10_IRQHandler+0xd8>)
 800e4f4:	2200      	movs	r2, #0
 800e4f6:	611a      	str	r2, [r3, #16]
 800e4f8:	780b      	ldrb	r3, [r1, #0]
 800e4fa:	b923      	cbnz	r3, 800e506 <TIM1_UP_TIM10_IRQHandler+0x26>
 800e4fc:	f44f 7026 	mov.w	r0, #664	; 0x298
 800e500:	f2c4 2040 	movt	r0, #16960	; 0x4240
 800e504:	6003      	str	r3, [r0, #0]
 800e506:	482d      	ldr	r0, [pc, #180]	; (800e5bc <TIM1_UP_TIM10_IRQHandler+0xdc>)
 800e508:	8804      	ldrh	r4, [r0, #0]
 800e50a:	f404 4500 	and.w	r5, r4, #32768	; 0x8000
 800e50e:	b2aa      	uxth	r2, r5
 800e510:	b1ea      	cbz	r2, 800e54e <TIM1_UP_TIM10_IRQHandler+0x6e>
 800e512:	bf00      	nop
 800e514:	f44f 7227 	mov.w	r2, #668	; 0x29c
 800e518:	f2c4 2240 	movt	r2, #16960	; 0x4240
 800e51c:	2501      	movs	r5, #1
 800e51e:	6015      	str	r5, [r2, #0]
 800e520:	bf00      	nop
 800e522:	f44f 7228 	mov.w	r2, #672	; 0x2a0
 800e526:	f2c4 2241 	movt	r2, #16961	; 0x4241
 800e52a:	2500      	movs	r5, #0
 800e52c:	2b0f      	cmp	r3, #15
 800e52e:	6015      	str	r5, [r2, #0]
 800e530:	d013      	beq.n	800e55a <TIM1_UP_TIM10_IRQHandler+0x7a>
 800e532:	0064      	lsls	r4, r4, #1
 800e534:	3301      	adds	r3, #1
 800e536:	8004      	strh	r4, [r0, #0]
 800e538:	700b      	strb	r3, [r1, #0]
 800e53a:	bf00      	nop
 800e53c:	f44f 7028 	mov.w	r0, #672	; 0x2a0
 800e540:	f2c4 2041 	movt	r0, #16961	; 0x4241
 800e544:	2101      	movs	r1, #1
 800e546:	6001      	str	r1, [r0, #0]
 800e548:	bcf1      	pop	{r0, r4, r5, r6, r7}
 800e54a:	4685      	mov	sp, r0
 800e54c:	4770      	bx	lr
 800e54e:	f44f 7527 	mov.w	r5, #668	; 0x29c
 800e552:	f2c4 2540 	movt	r5, #16960	; 0x4240
 800e556:	602a      	str	r2, [r5, #0]
 800e558:	e7e2      	b.n	800e520 <TIM1_UP_TIM10_IRQHandler+0x40>
 800e55a:	4a19      	ldr	r2, [pc, #100]	; (800e5c0 <TIM1_UP_TIM10_IRQHandler+0xe0>)
 800e55c:	6853      	ldr	r3, [r2, #4]
 800e55e:	b1cb      	cbz	r3, 800e594 <TIM1_UP_TIM10_IRQHandler+0xb4>
 800e560:	6814      	ldr	r4, [r2, #0]
 800e562:	881e      	ldrh	r6, [r3, #0]
 800e564:	b324      	cbz	r4, 800e5b0 <TIM1_UP_TIM10_IRQHandler+0xd0>
 800e566:	4d16      	ldr	r5, [pc, #88]	; (800e5c0 <TIM1_UP_TIM10_IRQHandler+0xe0>)
 800e568:	3302      	adds	r3, #2
 800e56a:	f105 0718 	add.w	r7, r5, #24
 800e56e:	42bb      	cmp	r3, r7
 800e570:	6053      	str	r3, [r2, #4]
 800e572:	bf04      	itt	eq
 800e574:	f105 0308 	addeq.w	r3, r5, #8
 800e578:	606b      	streq	r3, [r5, #4]
 800e57a:	42a3      	cmp	r3, r4
 800e57c:	d015      	beq.n	800e5aa <TIM1_UP_TIM10_IRQHandler+0xca>
 800e57e:	8006      	strh	r6, [r0, #0]
 800e580:	2000      	movs	r0, #0
 800e582:	7008      	strb	r0, [r1, #0]
 800e584:	bf00      	nop
 800e586:	f44f 7126 	mov.w	r1, #664	; 0x298
 800e58a:	f2c4 2140 	movt	r1, #16960	; 0x4240
 800e58e:	2201      	movs	r2, #1
 800e590:	600a      	str	r2, [r1, #0]
 800e592:	e7d2      	b.n	800e53a <TIM1_UP_TIM10_IRQHandler+0x5a>
 800e594:	f44f 4000 	mov.w	r0, #32768	; 0x8000
 800e598:	f44f 4288 	mov.w	r2, #17408	; 0x4400
 800e59c:	f2c4 2028 	movt	r0, #16936	; 0x4228
 800e5a0:	f2c4 0201 	movt	r2, #16385	; 0x4001
 800e5a4:	6003      	str	r3, [r0, #0]
 800e5a6:	6253      	str	r3, [r2, #36]	; 0x24
 800e5a8:	e7ea      	b.n	800e580 <TIM1_UP_TIM10_IRQHandler+0xa0>
 800e5aa:	2300      	movs	r3, #0
 800e5ac:	6053      	str	r3, [r2, #4]
 800e5ae:	e7e6      	b.n	800e57e <TIM1_UP_TIM10_IRQHandler+0x9e>
 800e5b0:	6013      	str	r3, [r2, #0]
 800e5b2:	461c      	mov	r4, r3
 800e5b4:	e7d7      	b.n	800e566 <TIM1_UP_TIM10_IRQHandler+0x86>
 800e5b6:	bf00      	nop
 800e5b8:	10000942 	.word	0x10000942
 800e5bc:	10000940 	.word	0x10000940
 800e5c0:	10000928 	.word	0x10000928

0800e5c4 <_Z9Dac_setupv>:
 800e5c4:	f44f 5160 	mov.w	r1, #14336	; 0x3800
 800e5c8:	f2c4 0102 	movt	r1, #16386	; 0x4002
 800e5cc:	2300      	movs	r3, #0
 800e5ce:	6b08      	ldr	r0, [r1, #48]	; 0x30
 800e5d0:	4a8f      	ldr	r2, [pc, #572]	; (800e810 <_Z9Dac_setupv+0x24c>)
 800e5d2:	f2c4 0302 	movt	r3, #16386	; 0x4002
 800e5d6:	b430      	push	{r4, r5}
 800e5d8:	f040 0401 	orr.w	r4, r0, #1
 800e5dc:	630c      	str	r4, [r1, #48]	; 0x30
 800e5de:	681d      	ldr	r5, [r3, #0]
 800e5e0:	f425 5040 	bic.w	r0, r5, #12288	; 0x3000
 800e5e4:	f440 5480 	orr.w	r4, r0, #4096	; 0x1000
 800e5e8:	601c      	str	r4, [r3, #0]
 800e5ea:	685d      	ldr	r5, [r3, #4]
 800e5ec:	f025 0040 	bic.w	r0, r5, #64	; 0x40
 800e5f0:	6058      	str	r0, [r3, #4]
 800e5f2:	689c      	ldr	r4, [r3, #8]
 800e5f4:	f424 5540 	bic.w	r5, r4, #12288	; 0x3000
 800e5f8:	f445 5000 	orr.w	r0, r5, #8192	; 0x2000
 800e5fc:	6098      	str	r0, [r3, #8]
 800e5fe:	68dc      	ldr	r4, [r3, #12]
 800e600:	f424 5540 	bic.w	r5, r4, #12288	; 0x3000
 800e604:	60dd      	str	r5, [r3, #12]
 800e606:	6958      	ldr	r0, [r3, #20]
 800e608:	f040 0440 	orr.w	r4, r0, #64	; 0x40
 800e60c:	615c      	str	r4, [r3, #20]
 800e60e:	6b0d      	ldr	r5, [r1, #48]	; 0x30
 800e610:	f045 0001 	orr.w	r0, r5, #1
 800e614:	6308      	str	r0, [r1, #48]	; 0x30
 800e616:	681c      	ldr	r4, [r3, #0]
 800e618:	f424 4540 	bic.w	r5, r4, #49152	; 0xc000
 800e61c:	f445 4080 	orr.w	r0, r5, #16384	; 0x4000
 800e620:	6018      	str	r0, [r3, #0]
 800e622:	685c      	ldr	r4, [r3, #4]
 800e624:	f024 0580 	bic.w	r5, r4, #128	; 0x80
 800e628:	605d      	str	r5, [r3, #4]
 800e62a:	6898      	ldr	r0, [r3, #8]
 800e62c:	f420 4440 	bic.w	r4, r0, #49152	; 0xc000
 800e630:	f444 4500 	orr.w	r5, r4, #32768	; 0x8000
 800e634:	609d      	str	r5, [r3, #8]
 800e636:	68d8      	ldr	r0, [r3, #12]
 800e638:	f420 4440 	bic.w	r4, r0, #49152	; 0xc000
 800e63c:	60dc      	str	r4, [r3, #12]
 800e63e:	695d      	ldr	r5, [r3, #20]
 800e640:	f025 0080 	bic.w	r0, r5, #128	; 0x80
 800e644:	6158      	str	r0, [r3, #20]
 800e646:	6b0c      	ldr	r4, [r1, #48]	; 0x30
 800e648:	f44f 6300 	mov.w	r3, #2048	; 0x800
 800e64c:	f2c4 0302 	movt	r3, #16386	; 0x4002
 800e650:	f044 0504 	orr.w	r5, r4, #4
 800e654:	630d      	str	r5, [r1, #48]	; 0x30
 800e656:	6818      	ldr	r0, [r3, #0]
 800e658:	f420 3440 	bic.w	r4, r0, #196608	; 0x30000
 800e65c:	f444 3580 	orr.w	r5, r4, #65536	; 0x10000
 800e660:	601d      	str	r5, [r3, #0]
 800e662:	6858      	ldr	r0, [r3, #4]
 800e664:	f420 7480 	bic.w	r4, r0, #256	; 0x100
 800e668:	605c      	str	r4, [r3, #4]
 800e66a:	689d      	ldr	r5, [r3, #8]
 800e66c:	f425 3040 	bic.w	r0, r5, #196608	; 0x30000
 800e670:	f440 3400 	orr.w	r4, r0, #131072	; 0x20000
 800e674:	609c      	str	r4, [r3, #8]
 800e676:	68dd      	ldr	r5, [r3, #12]
 800e678:	f425 3040 	bic.w	r0, r5, #196608	; 0x30000
 800e67c:	60d8      	str	r0, [r3, #12]
 800e67e:	695c      	ldr	r4, [r3, #20]
 800e680:	f444 7580 	orr.w	r5, r4, #256	; 0x100
 800e684:	615d      	str	r5, [r3, #20]
 800e686:	6c4d      	ldr	r5, [r1, #68]	; 0x44
 800e688:	f44f 4388 	mov.w	r3, #17408	; 0x4400
 800e68c:	f2c4 0301 	movt	r3, #16385	; 0x4001
 800e690:	f445 3500 	orr.w	r5, r5, #131072	; 0x20000
 800e694:	644d      	str	r5, [r1, #68]	; 0x44
 800e696:	f44f 4461 	mov.w	r4, #57600	; 0xe100
 800e69a:	2504      	movs	r5, #4
 800e69c:	601d      	str	r5, [r3, #0]
 800e69e:	2000      	movs	r0, #0
 800e6a0:	f2ce 0400 	movt	r4, #57344	; 0xe000
 800e6a4:	f44f 65d2 	mov.w	r5, #1680	; 0x690
 800e6a8:	62dd      	str	r5, [r3, #44]	; 0x2c
 800e6aa:	6258      	str	r0, [r3, #36]	; 0x24
 800e6ac:	6118      	str	r0, [r3, #16]
 800e6ae:	23f0      	movs	r3, #240	; 0xf0
 800e6b0:	f884 3319 	strb.w	r3, [r4, #793]	; 0x319
 800e6b4:	f248 1180 	movw	r1, #33152	; 0x8180
 800e6b8:	6813      	ldr	r3, [r2, #0]
 800e6ba:	f2c4 2128 	movt	r1, #16936	; 0x4228
 800e6be:	f04f 7500 	mov.w	r5, #33554432	; 0x2000000
 800e6c2:	6025      	str	r5, [r4, #0]
 800e6c4:	6008      	str	r0, [r1, #0]
 800e6c6:	b193      	cbz	r3, 800e6ee <_Z9Dac_setupv+0x12a>
 800e6c8:	6851      	ldr	r1, [r2, #4]
 800e6ca:	f24c 24d0 	movw	r4, #49872	; 0xc2d0
 800e6ce:	801c      	strh	r4, [r3, #0]
 800e6d0:	2900      	cmp	r1, #0
 800e6d2:	f000 808d 	beq.w	800e7f0 <_Z9Dac_setupv+0x22c>
 800e6d6:	484e      	ldr	r0, [pc, #312]	; (800e810 <_Z9Dac_setupv+0x24c>)
 800e6d8:	3302      	adds	r3, #2
 800e6da:	f100 0418 	add.w	r4, r0, #24
 800e6de:	42a3      	cmp	r3, r4
 800e6e0:	6013      	str	r3, [r2, #0]
 800e6e2:	bf04      	itt	eq
 800e6e4:	f100 0308 	addeq.w	r3, r0, #8
 800e6e8:	6003      	streq	r3, [r0, #0]
 800e6ea:	4299      	cmp	r1, r3
 800e6ec:	d074      	beq.n	800e7d8 <_Z9Dac_setupv+0x214>
 800e6ee:	bf00      	nop
 800e6f0:	f44f 4100 	mov.w	r1, #32768	; 0x8000
 800e6f4:	f2c4 2128 	movt	r1, #16936	; 0x4228
 800e6f8:	2001      	movs	r0, #1
 800e6fa:	6008      	str	r0, [r1, #0]
 800e6fc:	bf00      	nop
 800e6fe:	f248 1180 	movw	r1, #33152	; 0x8180
 800e702:	f2c4 2128 	movt	r1, #16936	; 0x4228
 800e706:	6008      	str	r0, [r1, #0]
 800e708:	2000      	movs	r0, #0
 800e70a:	6008      	str	r0, [r1, #0]
 800e70c:	b18b      	cbz	r3, 800e732 <_Z9Dac_setupv+0x16e>
 800e70e:	6851      	ldr	r1, [r2, #4]
 800e710:	f248 4460 	movw	r4, #33888	; 0x8460
 800e714:	801c      	strh	r4, [r3, #0]
 800e716:	2900      	cmp	r1, #0
 800e718:	d06d      	beq.n	800e7f6 <_Z9Dac_setupv+0x232>
 800e71a:	483d      	ldr	r0, [pc, #244]	; (800e810 <_Z9Dac_setupv+0x24c>)
 800e71c:	3302      	adds	r3, #2
 800e71e:	f100 0418 	add.w	r4, r0, #24
 800e722:	42a3      	cmp	r3, r4
 800e724:	6013      	str	r3, [r2, #0]
 800e726:	bf04      	itt	eq
 800e728:	f100 0308 	addeq.w	r3, r0, #8
 800e72c:	6003      	streq	r3, [r0, #0]
 800e72e:	4299      	cmp	r1, r3
 800e730:	d055      	beq.n	800e7de <_Z9Dac_setupv+0x21a>
 800e732:	bf00      	nop
 800e734:	f44f 4100 	mov.w	r1, #32768	; 0x8000
 800e738:	f2c4 2128 	movt	r1, #16936	; 0x4228
 800e73c:	2001      	movs	r0, #1
 800e73e:	6008      	str	r0, [r1, #0]
 800e740:	bf00      	nop
 800e742:	f248 1180 	movw	r1, #33152	; 0x8180
 800e746:	f2c4 2128 	movt	r1, #16936	; 0x4228
 800e74a:	6008      	str	r0, [r1, #0]
 800e74c:	2000      	movs	r0, #0
 800e74e:	6008      	str	r0, [r1, #0]
 800e750:	b18b      	cbz	r3, 800e776 <_Z9Dac_setupv+0x1b2>
 800e752:	6851      	ldr	r1, [r2, #4]
 800e754:	f644 3410 	movw	r4, #19216	; 0x4b10
 800e758:	801c      	strh	r4, [r3, #0]
 800e75a:	2900      	cmp	r1, #0
 800e75c:	d053      	beq.n	800e806 <_Z9Dac_setupv+0x242>
 800e75e:	482c      	ldr	r0, [pc, #176]	; (800e810 <_Z9Dac_setupv+0x24c>)
 800e760:	3302      	adds	r3, #2
 800e762:	f100 0418 	add.w	r4, r0, #24
 800e766:	42a3      	cmp	r3, r4
 800e768:	6013      	str	r3, [r2, #0]
 800e76a:	bf04      	itt	eq
 800e76c:	f100 0308 	addeq.w	r3, r0, #8
 800e770:	6003      	streq	r3, [r0, #0]
 800e772:	4299      	cmp	r1, r3
 800e774:	d036      	beq.n	800e7e4 <_Z9Dac_setupv+0x220>
 800e776:	bf00      	nop
 800e778:	f44f 4100 	mov.w	r1, #32768	; 0x8000
 800e77c:	f2c4 2128 	movt	r1, #16936	; 0x4228
 800e780:	2001      	movs	r0, #1
 800e782:	6008      	str	r0, [r1, #0]
 800e784:	bf00      	nop
 800e786:	f248 1180 	movw	r1, #33152	; 0x8180
 800e78a:	f2c4 2128 	movt	r1, #16936	; 0x4228
 800e78e:	6008      	str	r0, [r1, #0]
 800e790:	2000      	movs	r0, #0
 800e792:	6008      	str	r0, [r1, #0]
 800e794:	b18b      	cbz	r3, 800e7ba <_Z9Dac_setupv+0x1f6>
 800e796:	6851      	ldr	r1, [r2, #4]
 800e798:	f44f 54be 	mov.w	r4, #6080	; 0x17c0
 800e79c:	801c      	strh	r4, [r3, #0]
 800e79e:	2900      	cmp	r1, #0
 800e7a0:	d02d      	beq.n	800e7fe <_Z9Dac_setupv+0x23a>
 800e7a2:	481b      	ldr	r0, [pc, #108]	; (800e810 <_Z9Dac_setupv+0x24c>)
 800e7a4:	3302      	adds	r3, #2
 800e7a6:	f100 0418 	add.w	r4, r0, #24
 800e7aa:	42a3      	cmp	r3, r4
 800e7ac:	6013      	str	r3, [r2, #0]
 800e7ae:	bf04      	itt	eq
 800e7b0:	f100 0308 	addeq.w	r3, r0, #8
 800e7b4:	6003      	streq	r3, [r0, #0]
 800e7b6:	4299      	cmp	r1, r3
 800e7b8:	d017      	beq.n	800e7ea <_Z9Dac_setupv+0x226>
 800e7ba:	bf00      	nop
 800e7bc:	f44f 4000 	mov.w	r0, #32768	; 0x8000
 800e7c0:	f2c4 2028 	movt	r0, #16936	; 0x4228
 800e7c4:	2201      	movs	r2, #1
 800e7c6:	6002      	str	r2, [r0, #0]
 800e7c8:	bf00      	nop
 800e7ca:	f248 1380 	movw	r3, #33152	; 0x8180
 800e7ce:	f2c4 2328 	movt	r3, #16936	; 0x4228
 800e7d2:	601a      	str	r2, [r3, #0]
 800e7d4:	bc30      	pop	{r4, r5}
 800e7d6:	4770      	bx	lr
 800e7d8:	2300      	movs	r3, #0
 800e7da:	6013      	str	r3, [r2, #0]
 800e7dc:	e787      	b.n	800e6ee <_Z9Dac_setupv+0x12a>
 800e7de:	2300      	movs	r3, #0
 800e7e0:	6013      	str	r3, [r2, #0]
 800e7e2:	e7a6      	b.n	800e732 <_Z9Dac_setupv+0x16e>
 800e7e4:	2300      	movs	r3, #0
 800e7e6:	6013      	str	r3, [r2, #0]
 800e7e8:	e7c5      	b.n	800e776 <_Z9Dac_setupv+0x1b2>
 800e7ea:	2100      	movs	r1, #0
 800e7ec:	6011      	str	r1, [r2, #0]
 800e7ee:	e7e4      	b.n	800e7ba <_Z9Dac_setupv+0x1f6>
 800e7f0:	6053      	str	r3, [r2, #4]
 800e7f2:	4619      	mov	r1, r3
 800e7f4:	e76f      	b.n	800e6d6 <_Z9Dac_setupv+0x112>
 800e7f6:	4906      	ldr	r1, [pc, #24]	; (800e810 <_Z9Dac_setupv+0x24c>)
 800e7f8:	604b      	str	r3, [r1, #4]
 800e7fa:	4619      	mov	r1, r3
 800e7fc:	e78d      	b.n	800e71a <_Z9Dac_setupv+0x156>
 800e7fe:	4904      	ldr	r1, [pc, #16]	; (800e810 <_Z9Dac_setupv+0x24c>)
 800e800:	604b      	str	r3, [r1, #4]
 800e802:	4619      	mov	r1, r3
 800e804:	e7cd      	b.n	800e7a2 <_Z9Dac_setupv+0x1de>
 800e806:	4902      	ldr	r1, [pc, #8]	; (800e810 <_Z9Dac_setupv+0x24c>)
 800e808:	604b      	str	r3, [r1, #4]
 800e80a:	4619      	mov	r1, r3
 800e80c:	e7a7      	b.n	800e75e <_Z9Dac_setupv+0x19a>
 800e80e:	bf00      	nop
 800e810:	10000928 	.word	0x10000928

0800e814 <_GLOBAL__sub_I__Z15dac_timer_setupv>:
 800e814:	f640 1328 	movw	r3, #2344	; 0x928
 800e818:	f2c1 0300 	movt	r3, #4096	; 0x1000
 800e81c:	f103 0208 	add.w	r2, r3, #8
 800e820:	2000      	movs	r0, #0
 800e822:	601a      	str	r2, [r3, #0]
 800e824:	6058      	str	r0, [r3, #4]
 800e826:	4770      	bx	lr

0800e828 <_ZN4quan3uav3osd7on_drawEv>:
 800e828:	4770      	bx	lr
 800e82a:	bf00      	nop

0800e82c <main>:
 800e82c:	b508      	push	{r3, lr}
 800e82e:	f000 f81d 	bl	800e86c <setup>
 800e832:	f7ff fbbd 	bl	800dfb0 <_Z16create_draw_taskv>
 800e836:	f7ff fb93 	bl	800df60 <_Z17create_telem_taskv>
 800e83a:	f000 fb7f 	bl	800ef3c <vTaskStartScheduler>
 800e83e:	e7fe      	b.n	800e83e <main+0x12>

0800e840 <_sbrk>:
 800e840:	4a08      	ldr	r2, [pc, #32]	; (800e864 <_sbrk+0x24>)
 800e842:	4909      	ldr	r1, [pc, #36]	; (800e868 <_sbrk+0x28>)
 800e844:	b508      	push	{r3, lr}
 800e846:	6813      	ldr	r3, [r2, #0]
 800e848:	1818      	adds	r0, r3, r0
 800e84a:	4288      	cmp	r0, r1
 800e84c:	d802      	bhi.n	800e854 <_sbrk+0x14>
 800e84e:	6010      	str	r0, [r2, #0]
 800e850:	4618      	mov	r0, r3
 800e852:	bd08      	pop	{r3, pc}
 800e854:	f001 ffc8 	bl	80107e8 <__errno>
 800e858:	220c      	movs	r2, #12
 800e85a:	f04f 33ff 	mov.w	r3, #4294967295
 800e85e:	6002      	str	r2, [r0, #0]
 800e860:	4618      	mov	r0, r3
 800e862:	bd08      	pop	{r3, pc}
 800e864:	10000018 	.word	0x10000018
 800e868:	20012000 	.word	0x20012000

0800e86c <setup>:
 800e86c:	e92d 4ff0 	stmdb	sp!, {r4, r5, r6, r7, r8, r9, sl, fp, lr}
 800e870:	f44f 7040 	mov.w	r0, #768	; 0x300
 800e874:	b08d      	sub	sp, #52	; 0x34
 800e876:	f001 fd57 	bl	8010328 <NVIC_PriorityGroupConfig>
 800e87a:	f44f 5060 	mov.w	r0, #14336	; 0x3800
 800e87e:	f2c4 0002 	movt	r0, #16386	; 0x4002
 800e882:	4bc5      	ldr	r3, [pc, #788]	; (800eb98 <setup+0x32c>)
 800e884:	6b01      	ldr	r1, [r0, #48]	; 0x30
 800e886:	9002      	str	r0, [sp, #8]
 800e888:	9c02      	ldr	r4, [sp, #8]
 800e88a:	48c4      	ldr	r0, [pc, #784]	; (800eb9c <setup+0x330>)
 800e88c:	1d1a      	adds	r2, r3, #4
 800e88e:	f041 0501 	orr.w	r5, r1, #1
 800e892:	6325      	str	r5, [r4, #48]	; 0x30
 800e894:	f852 6b04 	ldr.w	r6, [r2], #4
 800e898:	68df      	ldr	r7, [r3, #12]
 800e89a:	6811      	ldr	r1, [r2, #0]
 800e89c:	9603      	str	r6, [sp, #12]
 800e89e:	9104      	str	r1, [sp, #16]
 800e8a0:	9705      	str	r7, [sp, #20]
 800e8a2:	691a      	ldr	r2, [r3, #16]
 800e8a4:	9f04      	ldr	r7, [sp, #16]
 800e8a6:	9903      	ldr	r1, [sp, #12]
 800e8a8:	9206      	str	r2, [sp, #24]
 800e8aa:	695d      	ldr	r5, [r3, #20]
 800e8ac:	699c      	ldr	r4, [r3, #24]
 800e8ae:	69de      	ldr	r6, [r3, #28]
 800e8b0:	9507      	str	r5, [sp, #28]
 800e8b2:	2203      	movs	r2, #3
 800e8b4:	ea4f 0847 	mov.w	r8, r7, lsl #1
 800e8b8:	fa02 f908 	lsl.w	r9, r2, r8
 800e8bc:	ea4f 0a41 	mov.w	sl, r1, lsl #1
 800e8c0:	9408      	str	r4, [sp, #32]
 800e8c2:	9609      	str	r6, [sp, #36]	; 0x24
 800e8c4:	fa02 f40a 	lsl.w	r4, r2, sl
 800e8c8:	6a1b      	ldr	r3, [r3, #32]
 800e8ca:	9d05      	ldr	r5, [sp, #20]
 800e8cc:	930a      	str	r3, [sp, #40]	; 0x28
 800e8ce:	ea6f 0609 	mvn.w	r6, r9
 800e8d2:	ea26 0104 	bic.w	r1, r6, r4
 800e8d6:	9c07      	ldr	r4, [sp, #28]
 800e8d8:	9b06      	ldr	r3, [sp, #24]
 800e8da:	0066      	lsls	r6, r4, #1
 800e8dc:	9c09      	ldr	r4, [sp, #36]	; 0x24
 800e8de:	005f      	lsls	r7, r3, #1
 800e8e0:	ea4f 0e45 	mov.w	lr, r5, lsl #1
 800e8e4:	2301      	movs	r3, #1
 800e8e6:	fa02 f50e 	lsl.w	r5, r2, lr
 800e8ea:	409c      	lsls	r4, r3
 800e8ec:	ea21 0b05 	bic.w	fp, r1, r5
 800e8f0:	940b      	str	r4, [sp, #44]	; 0x2c
 800e8f2:	9d08      	ldr	r5, [sp, #32]
 800e8f4:	9c0a      	ldr	r4, [sp, #40]	; 0x28
 800e8f6:	fa02 f107 	lsl.w	r1, r2, r7
 800e8fa:	fa02 fc06 	lsl.w	ip, r2, r6
 800e8fe:	fa05 f503 	lsl.w	r5, r5, r3
 800e902:	ea2b 0901 	bic.w	r9, fp, r1
 800e906:	fa04 fb03 	lsl.w	fp, r4, r3
 800e90a:	2100      	movs	r1, #0
 800e90c:	9c0b      	ldr	r4, [sp, #44]	; 0x2c
 800e90e:	f2c4 0102 	movt	r1, #16386	; 0x4002
 800e912:	fa03 f808 	lsl.w	r8, r3, r8
 800e916:	fa03 fa0a 	lsl.w	sl, r3, sl
 800e91a:	ea29 090c 	bic.w	r9, r9, ip
 800e91e:	fa02 fc05 	lsl.w	ip, r2, r5
 800e922:	ea4a 0a08 	orr.w	sl, sl, r8
 800e926:	fa03 fe0e 	lsl.w	lr, r3, lr
 800e92a:	fa02 f804 	lsl.w	r8, r2, r4
 800e92e:	ea29 090c 	bic.w	r9, r9, ip
 800e932:	9c04      	ldr	r4, [sp, #16]
 800e934:	f8d1 c000 	ldr.w	ip, [r1]
 800e938:	ea4a 0e0e 	orr.w	lr, sl, lr
 800e93c:	fa03 f707 	lsl.w	r7, r3, r7
 800e940:	fa02 fa0b 	lsl.w	sl, r2, fp
 800e944:	ea29 0908 	bic.w	r9, r9, r8
 800e948:	fa03 f606 	lsl.w	r6, r3, r6
 800e94c:	fa03 f804 	lsl.w	r8, r3, r4
 800e950:	ea29 090a 	bic.w	r9, r9, sl
 800e954:	9c03      	ldr	r4, [sp, #12]
 800e956:	ea4e 0707 	orr.w	r7, lr, r7
 800e95a:	fa03 f505 	lsl.w	r5, r3, r5
 800e95e:	4337      	orrs	r7, r6
 800e960:	ea09 060c 	and.w	r6, r9, ip
 800e964:	600e      	str	r6, [r1, #0]
 800e966:	fa03 fe04 	lsl.w	lr, r3, r4
 800e96a:	432f      	orrs	r7, r5
 800e96c:	9c05      	ldr	r4, [sp, #20]
 800e96e:	9d0b      	ldr	r5, [sp, #44]	; 0x2c
 800e970:	680e      	ldr	r6, [r1, #0]
 800e972:	ea6f 0a08 	mvn.w	sl, r8
 800e976:	fa03 f804 	lsl.w	r8, r3, r4
 800e97a:	fa03 f405 	lsl.w	r4, r3, r5
 800e97e:	fa03 fb0b 	lsl.w	fp, r3, fp
 800e982:	9d06      	ldr	r5, [sp, #24]
 800e984:	4327      	orrs	r7, r4
 800e986:	9c07      	ldr	r4, [sp, #28]
 800e988:	ea2a 0c0e 	bic.w	ip, sl, lr
 800e98c:	ea47 070b 	orr.w	r7, r7, fp
 800e990:	ea2c 0908 	bic.w	r9, ip, r8
 800e994:	fa03 fe05 	lsl.w	lr, r3, r5
 800e998:	4337      	orrs	r7, r6
 800e99a:	fa03 f504 	lsl.w	r5, r3, r4
 800e99e:	9e09      	ldr	r6, [sp, #36]	; 0x24
 800e9a0:	9c08      	ldr	r4, [sp, #32]
 800e9a2:	600f      	str	r7, [r1, #0]
 800e9a4:	ea29 0a0e 	bic.w	sl, r9, lr
 800e9a8:	ea2a 0c05 	bic.w	ip, sl, r5
 800e9ac:	fa03 f706 	lsl.w	r7, r3, r6
 800e9b0:	fa03 f504 	lsl.w	r5, r3, r4
 800e9b4:	9e0a      	ldr	r6, [sp, #40]	; 0x28
 800e9b6:	ea2c 0405 	bic.w	r4, ip, r5
 800e9ba:	ea24 0407 	bic.w	r4, r4, r7
 800e9be:	694d      	ldr	r5, [r1, #20]
 800e9c0:	fa03 f706 	lsl.w	r7, r3, r6
 800e9c4:	ea24 0407 	bic.w	r4, r4, r7
 800e9c8:	402c      	ands	r4, r5
 800e9ca:	614c      	str	r4, [r1, #20]
 800e9cc:	9902      	ldr	r1, [sp, #8]
 800e9ce:	9d02      	ldr	r5, [sp, #8]
 800e9d0:	6b0c      	ldr	r4, [r1, #48]	; 0x30
 800e9d2:	1d01      	adds	r1, r0, #4
 800e9d4:	f044 0602 	orr.w	r6, r4, #2
 800e9d8:	632e      	str	r6, [r5, #48]	; 0x30
 800e9da:	f851 7b04 	ldr.w	r7, [r1], #4
 800e9de:	68c4      	ldr	r4, [r0, #12]
 800e9e0:	6809      	ldr	r1, [r1, #0]
 800e9e2:	9703      	str	r7, [sp, #12]
 800e9e4:	9109      	str	r1, [sp, #36]	; 0x24
 800e9e6:	9404      	str	r4, [sp, #16]
 800e9e8:	6906      	ldr	r6, [r0, #16]
 800e9ea:	9c09      	ldr	r4, [sp, #36]	; 0x24
 800e9ec:	6945      	ldr	r5, [r0, #20]
 800e9ee:	6987      	ldr	r7, [r0, #24]
 800e9f0:	9903      	ldr	r1, [sp, #12]
 800e9f2:	9605      	str	r6, [sp, #20]
 800e9f4:	fa04 f903 	lsl.w	r9, r4, r3
 800e9f8:	9e04      	ldr	r6, [sp, #16]
 800e9fa:	69c0      	ldr	r0, [r0, #28]
 800e9fc:	9506      	str	r5, [sp, #24]
 800e9fe:	9707      	str	r7, [sp, #28]
 800ea00:	fa01 fb03 	lsl.w	fp, r1, r3
 800ea04:	fa02 f809 	lsl.w	r8, r2, r9
 800ea08:	9f05      	ldr	r7, [sp, #20]
 800ea0a:	9008      	str	r0, [sp, #32]
 800ea0c:	fa06 fe03 	lsl.w	lr, r6, r3
 800ea10:	fa02 f50b 	lsl.w	r5, r2, fp
 800ea14:	9e06      	ldr	r6, [sp, #24]
 800ea16:	ea6f 0008 	mvn.w	r0, r8
 800ea1a:	ea20 0405 	bic.w	r4, r0, r5
 800ea1e:	fa02 f10e 	lsl.w	r1, r2, lr
 800ea22:	fa07 f703 	lsl.w	r7, r7, r3
 800ea26:	fa06 f503 	lsl.w	r5, r6, r3
 800ea2a:	ea24 0a01 	bic.w	sl, r4, r1
 800ea2e:	fa02 f607 	lsl.w	r6, r2, r7
 800ea32:	9807      	ldr	r0, [sp, #28]
 800ea34:	ea2a 0806 	bic.w	r8, sl, r6
 800ea38:	f44f 6180 	mov.w	r1, #1024	; 0x400
 800ea3c:	9e08      	ldr	r6, [sp, #32]
 800ea3e:	f2c4 0102 	movt	r1, #16386	; 0x4002
 800ea42:	fa00 f403 	lsl.w	r4, r0, r3
 800ea46:	fa02 fc05 	lsl.w	ip, r2, r5
 800ea4a:	fa06 f003 	lsl.w	r0, r6, r3
 800ea4e:	fa03 fa09 	lsl.w	sl, r3, r9
 800ea52:	fa03 fb0b 	lsl.w	fp, r3, fp
 800ea56:	fa02 f904 	lsl.w	r9, r2, r4
 800ea5a:	ea28 080c 	bic.w	r8, r8, ip
 800ea5e:	ea4b 060a 	orr.w	r6, fp, sl
 800ea62:	f8d1 c000 	ldr.w	ip, [r1]
 800ea66:	fa03 fe0e 	lsl.w	lr, r3, lr
 800ea6a:	ea28 0b09 	bic.w	fp, r8, r9
 800ea6e:	fa02 f800 	lsl.w	r8, r2, r0
 800ea72:	ea46 0a0e 	orr.w	sl, r6, lr
 800ea76:	ea2b 0908 	bic.w	r9, fp, r8
 800ea7a:	9e09      	ldr	r6, [sp, #36]	; 0x24
 800ea7c:	fa03 f707 	lsl.w	r7, r3, r7
 800ea80:	ea4a 0b07 	orr.w	fp, sl, r7
 800ea84:	fa03 f505 	lsl.w	r5, r3, r5
 800ea88:	ea09 070c 	and.w	r7, r9, ip
 800ea8c:	600f      	str	r7, [r1, #0]
 800ea8e:	fa03 fe06 	lsl.w	lr, r3, r6
 800ea92:	ea4b 0805 	orr.w	r8, fp, r5
 800ea96:	9e03      	ldr	r6, [sp, #12]
 800ea98:	9d04      	ldr	r5, [sp, #16]
 800ea9a:	680f      	ldr	r7, [r1, #0]
 800ea9c:	fa03 f404 	lsl.w	r4, r3, r4
 800eaa0:	ea48 0a04 	orr.w	sl, r8, r4
 800eaa4:	fa03 f400 	lsl.w	r4, r3, r0
 800eaa8:	9805      	ldr	r0, [sp, #20]
 800eaaa:	fa03 fc06 	lsl.w	ip, r3, r6
 800eaae:	ea6f 060e 	mvn.w	r6, lr
 800eab2:	fa03 f905 	lsl.w	r9, r3, r5
 800eab6:	ea26 060c 	bic.w	r6, r6, ip
 800eaba:	fa03 f500 	lsl.w	r5, r3, r0
 800eabe:	9806      	ldr	r0, [sp, #24]
 800eac0:	ea26 0609 	bic.w	r6, r6, r9
 800eac4:	ea4a 0404 	orr.w	r4, sl, r4
 800eac8:	ea26 0605 	bic.w	r6, r6, r5
 800eacc:	fa03 f500 	lsl.w	r5, r3, r0
 800ead0:	4327      	orrs	r7, r4
 800ead2:	ea26 0005 	bic.w	r0, r6, r5
 800ead6:	9e07      	ldr	r6, [sp, #28]
 800ead8:	600f      	str	r7, [r1, #0]
 800eada:	9f08      	ldr	r7, [sp, #32]
 800eadc:	694c      	ldr	r4, [r1, #20]
 800eade:	fa03 f506 	lsl.w	r5, r3, r6
 800eae2:	ea20 0005 	bic.w	r0, r0, r5
 800eae6:	fa03 f607 	lsl.w	r6, r3, r7
 800eaea:	ea20 0006 	bic.w	r0, r0, r6
 800eaee:	4020      	ands	r0, r4
 800eaf0:	6148      	str	r0, [r1, #20]
 800eaf2:	9802      	ldr	r0, [sp, #8]
 800eaf4:	4c2a      	ldr	r4, [pc, #168]	; (800eba0 <setup+0x334>)
 800eaf6:	6b05      	ldr	r5, [r0, #48]	; 0x30
 800eaf8:	9e02      	ldr	r6, [sp, #8]
 800eafa:	1d20      	adds	r0, r4, #4
 800eafc:	f045 0704 	orr.w	r7, r5, #4
 800eb00:	6337      	str	r7, [r6, #48]	; 0x30
 800eb02:	f850 5b04 	ldr.w	r5, [r0], #4
 800eb06:	4c26      	ldr	r4, [pc, #152]	; (800eba0 <setup+0x334>)
 800eb08:	f8d0 e000 	ldr.w	lr, [r0]
 800eb0c:	4824      	ldr	r0, [pc, #144]	; (800eba0 <setup+0x334>)
 800eb0e:	9503      	str	r5, [sp, #12]
 800eb10:	68e7      	ldr	r7, [r4, #12]
 800eb12:	4d23      	ldr	r5, [pc, #140]	; (800eba0 <setup+0x334>)
 800eb14:	6906      	ldr	r6, [r0, #16]
 800eb16:	9704      	str	r7, [sp, #16]
 800eb18:	696c      	ldr	r4, [r5, #20]
 800eb1a:	4f21      	ldr	r7, [pc, #132]	; (800eba0 <setup+0x334>)
 800eb1c:	9605      	str	r6, [sp, #20]
 800eb1e:	4e20      	ldr	r6, [pc, #128]	; (800eba0 <setup+0x334>)
 800eb20:	9406      	str	r4, [sp, #24]
 800eb22:	69b8      	ldr	r0, [r7, #24]
 800eb24:	4c1e      	ldr	r4, [pc, #120]	; (800eba0 <setup+0x334>)
 800eb26:	69f5      	ldr	r5, [r6, #28]
 800eb28:	9007      	str	r0, [sp, #28]
 800eb2a:	6a27      	ldr	r7, [r4, #32]
 800eb2c:	481c      	ldr	r0, [pc, #112]	; (800eba0 <setup+0x334>)
 800eb2e:	9508      	str	r5, [sp, #32]
 800eb30:	9d03      	ldr	r5, [sp, #12]
 800eb32:	6a46      	ldr	r6, [r0, #36]	; 0x24
 800eb34:	9709      	str	r7, [sp, #36]	; 0x24
 800eb36:	fa0e f403 	lsl.w	r4, lr, r3
 800eb3a:	9f04      	ldr	r7, [sp, #16]
 800eb3c:	960a      	str	r6, [sp, #40]	; 0x28
 800eb3e:	fa05 fb03 	lsl.w	fp, r5, r3
 800eb42:	fa02 fc04 	lsl.w	ip, r2, r4
 800eb46:	fa02 f00b 	lsl.w	r0, r2, fp
 800eb4a:	9e05      	ldr	r6, [sp, #20]
 800eb4c:	fa07 f703 	lsl.w	r7, r7, r3
 800eb50:	ea6f 080c 	mvn.w	r8, ip
 800eb54:	ea28 0500 	bic.w	r5, r8, r0
 800eb58:	fa02 f007 	lsl.w	r0, r2, r7
 800eb5c:	fa06 fc03 	lsl.w	ip, r6, r3
 800eb60:	ea25 0900 	bic.w	r9, r5, r0
 800eb64:	9e06      	ldr	r6, [sp, #24]
 800eb66:	9d07      	ldr	r5, [sp, #28]
 800eb68:	fa06 fa03 	lsl.w	sl, r6, r3
 800eb6c:	fa03 f404 	lsl.w	r4, r3, r4
 800eb70:	fa05 f603 	lsl.w	r6, r5, r3
 800eb74:	fa03 fb0b 	lsl.w	fp, r3, fp
 800eb78:	fa02 f00c 	lsl.w	r0, r2, ip
 800eb7c:	9d08      	ldr	r5, [sp, #32]
 800eb7e:	fa03 f707 	lsl.w	r7, r3, r7
 800eb82:	ea4b 0b04 	orr.w	fp, fp, r4
 800eb86:	fa02 f406 	lsl.w	r4, r2, r6
 800eb8a:	940b      	str	r4, [sp, #44]	; 0x2c
 800eb8c:	ea29 0800 	bic.w	r8, r9, r0
 800eb90:	ea4b 0b07 	orr.w	fp, fp, r7
 800eb94:	e006      	b.n	800eba4 <setup+0x338>
 800eb96:	bf00      	nop
 800eb98:	08015784 	.word	0x08015784
 800eb9c:	080157a4 	.word	0x080157a4
 800eba0:	08015760 	.word	0x08015760
 800eba4:	fa02 f00a 	lsl.w	r0, r2, sl
 800eba8:	9f0b      	ldr	r7, [sp, #44]	; 0x2c
 800ebaa:	fa05 f903 	lsl.w	r9, r5, r3
 800ebae:	ea28 0800 	bic.w	r8, r8, r0
 800ebb2:	fa02 f409 	lsl.w	r4, r2, r9
 800ebb6:	ea28 0807 	bic.w	r8, r8, r7
 800ebba:	9f0a      	ldr	r7, [sp, #40]	; 0x28
 800ebbc:	940b      	str	r4, [sp, #44]	; 0x2c
 800ebbe:	9d09      	ldr	r5, [sp, #36]	; 0x24
 800ebc0:	fa07 f403 	lsl.w	r4, r7, r3
 800ebc4:	f44f 6000 	mov.w	r0, #2048	; 0x800
 800ebc8:	9f0b      	ldr	r7, [sp, #44]	; 0x2c
 800ebca:	f2c4 0002 	movt	r0, #16386	; 0x4002
 800ebce:	fa05 f503 	lsl.w	r5, r5, r3
 800ebd2:	ea28 0807 	bic.w	r8, r8, r7
 800ebd6:	fa02 f705 	lsl.w	r7, r2, r5
 800ebda:	970b      	str	r7, [sp, #44]	; 0x2c
 800ebdc:	6807      	ldr	r7, [r0, #0]
 800ebde:	9701      	str	r7, [sp, #4]
 800ebe0:	9f03      	ldr	r7, [sp, #12]
 800ebe2:	fa03 fc0c 	lsl.w	ip, r3, ip
 800ebe6:	ea4b 0b0c 	orr.w	fp, fp, ip
 800ebea:	fa03 fc07 	lsl.w	ip, r3, r7
 800ebee:	9f0b      	ldr	r7, [sp, #44]	; 0x2c
 800ebf0:	fa03 fe0e 	lsl.w	lr, r3, lr
 800ebf4:	ea28 0807 	bic.w	r8, r8, r7
 800ebf8:	9f04      	ldr	r7, [sp, #16]
 800ebfa:	fa03 fa0a 	lsl.w	sl, r3, sl
 800ebfe:	ea6f 0e0e 	mvn.w	lr, lr
 800ec02:	fa03 f606 	lsl.w	r6, r3, r6
 800ec06:	fa02 f204 	lsl.w	r2, r2, r4
 800ec0a:	ea4b 0a0a 	orr.w	sl, fp, sl
 800ec0e:	ea2e 0e0c 	bic.w	lr, lr, ip
 800ec12:	fa03 fc07 	lsl.w	ip, r3, r7
 800ec16:	9f01      	ldr	r7, [sp, #4]
 800ec18:	ea28 0802 	bic.w	r8, r8, r2
 800ec1c:	ea4a 0a06 	orr.w	sl, sl, r6
 800ec20:	9a05      	ldr	r2, [sp, #20]
 800ec22:	fa03 f609 	lsl.w	r6, r3, r9
 800ec26:	fa03 f505 	lsl.w	r5, r3, r5
 800ec2a:	ea4a 0a06 	orr.w	sl, sl, r6
 800ec2e:	ea08 0607 	and.w	r6, r8, r7
 800ec32:	9f06      	ldr	r7, [sp, #24]
 800ec34:	6006      	str	r6, [r0, #0]
 800ec36:	ea4a 0a05 	orr.w	sl, sl, r5
 800ec3a:	ea2e 0e0c 	bic.w	lr, lr, ip
 800ec3e:	fa03 f504 	lsl.w	r5, r3, r4
 800ec42:	fa03 fc02 	lsl.w	ip, r3, r2
 800ec46:	9c07      	ldr	r4, [sp, #28]
 800ec48:	6802      	ldr	r2, [r0, #0]
 800ec4a:	ea2e 0e0c 	bic.w	lr, lr, ip
 800ec4e:	fa03 fc07 	lsl.w	ip, r3, r7
 800ec52:	ea2e 0e0c 	bic.w	lr, lr, ip
 800ec56:	9f08      	ldr	r7, [sp, #32]
 800ec58:	fa03 f604 	lsl.w	r6, r3, r4
 800ec5c:	ea2e 0c06 	bic.w	ip, lr, r6
 800ec60:	9e09      	ldr	r6, [sp, #36]	; 0x24
 800ec62:	ea4a 0505 	orr.w	r5, sl, r5
 800ec66:	fa03 f407 	lsl.w	r4, r3, r7
 800ec6a:	ea2c 0404 	bic.w	r4, ip, r4
 800ec6e:	432a      	orrs	r2, r5
 800ec70:	fa03 f506 	lsl.w	r5, r3, r6
 800ec74:	ea24 0405 	bic.w	r4, r4, r5
 800ec78:	9d0a      	ldr	r5, [sp, #40]	; 0x28
 800ec7a:	6002      	str	r2, [r0, #0]
 800ec7c:	6942      	ldr	r2, [r0, #20]
 800ec7e:	9e02      	ldr	r6, [sp, #8]
 800ec80:	fa03 f305 	lsl.w	r3, r3, r5
 800ec84:	ea24 0303 	bic.w	r3, r4, r3
 800ec88:	4013      	ands	r3, r2
 800ec8a:	6143      	str	r3, [r0, #20]
 800ec8c:	6b30      	ldr	r0, [r6, #48]	; 0x30
 800ec8e:	f040 0202 	orr.w	r2, r0, #2
 800ec92:	6332      	str	r2, [r6, #48]	; 0x30
 800ec94:	680b      	ldr	r3, [r1, #0]
 800ec96:	f043 0003 	orr.w	r0, r3, #3
 800ec9a:	6008      	str	r0, [r1, #0]
 800ec9c:	68ca      	ldr	r2, [r1, #12]
 800ec9e:	f022 0303 	bic.w	r3, r2, #3
 800eca2:	60cb      	str	r3, [r1, #12]
 800eca4:	6b30      	ldr	r0, [r6, #48]	; 0x30
 800eca6:	f040 0202 	orr.w	r2, r0, #2
 800ecaa:	6332      	str	r2, [r6, #48]	; 0x30
 800ecac:	680b      	ldr	r3, [r1, #0]
 800ecae:	f043 000c 	orr.w	r0, r3, #12
 800ecb2:	6008      	str	r0, [r1, #0]
 800ecb4:	68ca      	ldr	r2, [r1, #12]
 800ecb6:	f022 030c 	bic.w	r3, r2, #12
 800ecba:	60cb      	str	r3, [r1, #12]
 800ecbc:	f7ff fbec 	bl	800e498 <_Z10setup_ledsv>
 800ecc0:	f7ff f8ba 	bl	800de38 <_Z11video_setupv>
 800ecc4:	b00d      	add	sp, #52	; 0x34
 800ecc6:	e8bd 4ff0 	ldmia.w	sp!, {r4, r5, r6, r7, r8, r9, sl, fp, lr}
 800ecca:	f7ff bc7b 	b.w	800e5c4 <_Z9Dac_setupv>
 800ecce:	bf00      	nop

0800ecd0 <vApplicationIdleHook>:
 800ecd0:	4770      	bx	lr
 800ecd2:	bf00      	nop

0800ecd4 <vApplicationTickHook>:
 800ecd4:	4770      	bx	lr
 800ecd6:	bf00      	nop

0800ecd8 <vApplicationMallocFailedHook>:
 800ecd8:	b508      	push	{r3, lr}
 800ecda:	f001 fc4b 	bl	8010574 <ulPortSetInterruptMask>
 800ecde:	bf00      	nop
 800ece0:	f248 23b0 	movw	r3, #33456	; 0x82b0
 800ece4:	f2c4 2340 	movt	r3, #16960	; 0x4240
 800ece8:	2201      	movs	r2, #1
 800ecea:	601a      	str	r2, [r3, #0]
 800ecec:	e7fe      	b.n	800ecec <vApplicationMallocFailedHook+0x14>
 800ecee:	bf00      	nop

0800ecf0 <vApplicationStackOverflowHook>:
 800ecf0:	b508      	push	{r3, lr}
 800ecf2:	f001 fc3f 	bl	8010574 <ulPortSetInterruptMask>
 800ecf6:	bf00      	nop
 800ecf8:	f248 23b0 	movw	r3, #33456	; 0x82b0
 800ecfc:	f2c4 2340 	movt	r3, #16960	; 0x4240
 800ed00:	2201      	movs	r2, #1
 800ed02:	601a      	str	r2, [r3, #0]
 800ed04:	e7fe      	b.n	800ed04 <vApplicationStackOverflowHook+0x14>
 800ed06:	bf00      	nop

0800ed08 <xTaskGenericCreate>:
 800ed08:	e92d 4ff8 	stmdb	sp!, {r3, r4, r5, r6, r7, r8, r9, sl, fp, lr}
 800ed0c:	9e0a      	ldr	r6, [sp, #40]	; 0x28
 800ed0e:	f8dd b030 	ldr.w	fp, [sp, #48]	; 0x30
 800ed12:	4607      	mov	r7, r0
 800ed14:	460d      	mov	r5, r1
 800ed16:	4691      	mov	r9, r2
 800ed18:	469a      	mov	sl, r3
 800ed1a:	2800      	cmp	r0, #0
 800ed1c:	f000 80a4 	beq.w	800ee68 <xTaskGenericCreate+0x160>
 800ed20:	2e04      	cmp	r6, #4
 800ed22:	d902      	bls.n	800ed2a <xTaskGenericCreate+0x22>
 800ed24:	f001 fc26 	bl	8010574 <ulPortSetInterruptMask>
 800ed28:	e7fe      	b.n	800ed28 <xTaskGenericCreate+0x20>
 800ed2a:	2050      	movs	r0, #80	; 0x50
 800ed2c:	f001 fd3c 	bl	80107a8 <pvPortMalloc>
 800ed30:	4604      	mov	r4, r0
 800ed32:	2800      	cmp	r0, #0
 800ed34:	f000 80dc 	beq.w	800eef0 <xTaskGenericCreate+0x1e8>
 800ed38:	f1bb 0f00 	cmp.w	fp, #0
 800ed3c:	f000 80cc 	beq.w	800eed8 <xTaskGenericCreate+0x1d0>
 800ed40:	f8c0 b030 	str.w	fp, [r0, #48]	; 0x30
 800ed44:	ea4f 0889 	mov.w	r8, r9, lsl #2
 800ed48:	4658      	mov	r0, fp
 800ed4a:	21a5      	movs	r1, #165	; 0xa5
 800ed4c:	4642      	mov	r2, r8
 800ed4e:	f002 fa23 	bl	8011198 <memset>
 800ed52:	782a      	ldrb	r2, [r5, #0]
 800ed54:	6b23      	ldr	r3, [r4, #48]	; 0x30
 800ed56:	f884 2034 	strb.w	r2, [r4, #52]	; 0x34
 800ed5a:	f109 39ff 	add.w	r9, r9, #4294967295
 800ed5e:	7828      	ldrb	r0, [r5, #0]
 800ed60:	eb03 0189 	add.w	r1, r3, r9, lsl #2
 800ed64:	f021 0b07 	bic.w	fp, r1, #7
 800ed68:	b328      	cbz	r0, 800edb6 <xTaskGenericCreate+0xae>
 800ed6a:	786a      	ldrb	r2, [r5, #1]
 800ed6c:	f884 2035 	strb.w	r2, [r4, #53]	; 0x35
 800ed70:	786b      	ldrb	r3, [r5, #1]
 800ed72:	b303      	cbz	r3, 800edb6 <xTaskGenericCreate+0xae>
 800ed74:	78a8      	ldrb	r0, [r5, #2]
 800ed76:	f884 0036 	strb.w	r0, [r4, #54]	; 0x36
 800ed7a:	78a9      	ldrb	r1, [r5, #2]
 800ed7c:	b1d9      	cbz	r1, 800edb6 <xTaskGenericCreate+0xae>
 800ed7e:	78ea      	ldrb	r2, [r5, #3]
 800ed80:	f884 2037 	strb.w	r2, [r4, #55]	; 0x37
 800ed84:	78eb      	ldrb	r3, [r5, #3]
 800ed86:	b1b3      	cbz	r3, 800edb6 <xTaskGenericCreate+0xae>
 800ed88:	7928      	ldrb	r0, [r5, #4]
 800ed8a:	f884 0038 	strb.w	r0, [r4, #56]	; 0x38
 800ed8e:	7929      	ldrb	r1, [r5, #4]
 800ed90:	b189      	cbz	r1, 800edb6 <xTaskGenericCreate+0xae>
 800ed92:	796a      	ldrb	r2, [r5, #5]
 800ed94:	f884 2039 	strb.w	r2, [r4, #57]	; 0x39
 800ed98:	796b      	ldrb	r3, [r5, #5]
 800ed9a:	b163      	cbz	r3, 800edb6 <xTaskGenericCreate+0xae>
 800ed9c:	79a8      	ldrb	r0, [r5, #6]
 800ed9e:	f884 003a 	strb.w	r0, [r4, #58]	; 0x3a
 800eda2:	79a9      	ldrb	r1, [r5, #6]
 800eda4:	b139      	cbz	r1, 800edb6 <xTaskGenericCreate+0xae>
 800eda6:	79ea      	ldrb	r2, [r5, #7]
 800eda8:	f884 203b 	strb.w	r2, [r4, #59]	; 0x3b
 800edac:	79eb      	ldrb	r3, [r5, #7]
 800edae:	b113      	cbz	r3, 800edb6 <xTaskGenericCreate+0xae>
 800edb0:	7a2d      	ldrb	r5, [r5, #8]
 800edb2:	f884 503c 	strb.w	r5, [r4, #60]	; 0x3c
 800edb6:	2100      	movs	r1, #0
 800edb8:	f104 0904 	add.w	r9, r4, #4
 800edbc:	f884 103d 	strb.w	r1, [r4, #61]	; 0x3d
 800edc0:	64e1      	str	r1, [r4, #76]	; 0x4c
 800edc2:	4648      	mov	r0, r9
 800edc4:	62e6      	str	r6, [r4, #44]	; 0x2c
 800edc6:	64a6      	str	r6, [r4, #72]	; 0x48
 800edc8:	f001 f8ca 	bl	800ff60 <vListInitialiseItem>
 800edcc:	f104 0018 	add.w	r0, r4, #24
 800edd0:	f001 f8c6 	bl	800ff60 <vListInitialiseItem>
 800edd4:	f1c6 0005 	rsb	r0, r6, #5
 800edd8:	61a0      	str	r0, [r4, #24]
 800edda:	4639      	mov	r1, r7
 800eddc:	6124      	str	r4, [r4, #16]
 800edde:	6264      	str	r4, [r4, #36]	; 0x24
 800ede0:	4658      	mov	r0, fp
 800ede2:	4652      	mov	r2, sl
 800ede4:	f001 fb98 	bl	8010518 <pxPortInitialiseStack>
 800ede8:	9f0b      	ldr	r7, [sp, #44]	; 0x2c
 800edea:	6020      	str	r0, [r4, #0]
 800edec:	b107      	cbz	r7, 800edf0 <xTaskGenericCreate+0xe8>
 800edee:	603c      	str	r4, [r7, #0]
 800edf0:	f001 fbc8 	bl	8010584 <vPortEnterCritical>
 800edf4:	4b40      	ldr	r3, [pc, #256]	; (800eef8 <xTaskGenericCreate+0x1f0>)
 800edf6:	4d41      	ldr	r5, [pc, #260]	; (800eefc <xTaskGenericCreate+0x1f4>)
 800edf8:	681a      	ldr	r2, [r3, #0]
 800edfa:	1c51      	adds	r1, r2, #1
 800edfc:	6019      	str	r1, [r3, #0]
 800edfe:	6828      	ldr	r0, [r5, #0]
 800ee00:	2800      	cmp	r0, #0
 800ee02:	d039      	beq.n	800ee78 <xTaskGenericCreate+0x170>
 800ee04:	f8df 8128 	ldr.w	r8, [pc, #296]	; 800ef30 <xTaskGenericCreate+0x228>
 800ee08:	f8d8 7000 	ldr.w	r7, [r8]
 800ee0c:	b927      	cbnz	r7, 800ee18 <xTaskGenericCreate+0x110>
 800ee0e:	682b      	ldr	r3, [r5, #0]
 800ee10:	6ada      	ldr	r2, [r3, #44]	; 0x2c
 800ee12:	4296      	cmp	r6, r2
 800ee14:	bf28      	it	cs
 800ee16:	602c      	strcs	r4, [r5, #0]
 800ee18:	f8df e118 	ldr.w	lr, [pc, #280]	; 800ef34 <xTaskGenericCreate+0x22c>
 800ee1c:	4a38      	ldr	r2, [pc, #224]	; (800ef00 <xTaskGenericCreate+0x1f8>)
 800ee1e:	f8de 1000 	ldr.w	r1, [lr]
 800ee22:	6ae3      	ldr	r3, [r4, #44]	; 0x2c
 800ee24:	6810      	ldr	r0, [r2, #0]
 800ee26:	2701      	movs	r7, #1
 800ee28:	eb01 0c07 	add.w	ip, r1, r7
 800ee2c:	fa07 fa03 	lsl.w	sl, r7, r3
 800ee30:	eb03 0183 	add.w	r1, r3, r3, lsl #2
 800ee34:	4b33      	ldr	r3, [pc, #204]	; (800ef04 <xTaskGenericCreate+0x1fc>)
 800ee36:	f8c4 c040 	str.w	ip, [r4, #64]	; 0x40
 800ee3a:	ea4a 0a00 	orr.w	sl, sl, r0
 800ee3e:	eb03 0081 	add.w	r0, r3, r1, lsl #2
 800ee42:	4649      	mov	r1, r9
 800ee44:	f8c2 a000 	str.w	sl, [r2]
 800ee48:	f8ce c000 	str.w	ip, [lr]
 800ee4c:	f001 f88c 	bl	800ff68 <vListInsertEnd>
 800ee50:	f001 fbc4 	bl	80105dc <vPortExitCritical>
 800ee54:	f8d8 2000 	ldr.w	r2, [r8]
 800ee58:	b11a      	cbz	r2, 800ee62 <xTaskGenericCreate+0x15a>
 800ee5a:	6828      	ldr	r0, [r5, #0]
 800ee5c:	6ac1      	ldr	r1, [r0, #44]	; 0x2c
 800ee5e:	428e      	cmp	r6, r1
 800ee60:	d805      	bhi.n	800ee6e <xTaskGenericCreate+0x166>
 800ee62:	4638      	mov	r0, r7
 800ee64:	e8bd 8ff8 	ldmia.w	sp!, {r3, r4, r5, r6, r7, r8, r9, sl, fp, pc}
 800ee68:	f001 fb84 	bl	8010574 <ulPortSetInterruptMask>
 800ee6c:	e7fe      	b.n	800ee6c <xTaskGenericCreate+0x164>
 800ee6e:	f001 fb75 	bl	801055c <vPortYield>
 800ee72:	4638      	mov	r0, r7
 800ee74:	e8bd 8ff8 	ldmia.w	sp!, {r3, r4, r5, r6, r7, r8, r9, sl, fp, pc}
 800ee78:	602c      	str	r4, [r5, #0]
 800ee7a:	6819      	ldr	r1, [r3, #0]
 800ee7c:	2901      	cmp	r1, #1
 800ee7e:	d002      	beq.n	800ee86 <xTaskGenericCreate+0x17e>
 800ee80:	f8df 80ac 	ldr.w	r8, [pc, #172]	; 800ef30 <xTaskGenericCreate+0x228>
 800ee84:	e7c8      	b.n	800ee18 <xTaskGenericCreate+0x110>
 800ee86:	481f      	ldr	r0, [pc, #124]	; (800ef04 <xTaskGenericCreate+0x1fc>)
 800ee88:	f8df a0ac 	ldr.w	sl, [pc, #172]	; 800ef38 <xTaskGenericCreate+0x230>
 800ee8c:	4f1e      	ldr	r7, [pc, #120]	; (800ef08 <xTaskGenericCreate+0x200>)
 800ee8e:	f8df 80a0 	ldr.w	r8, [pc, #160]	; 800ef30 <xTaskGenericCreate+0x228>
 800ee92:	f001 f859 	bl	800ff48 <vListInitialise>
 800ee96:	481d      	ldr	r0, [pc, #116]	; (800ef0c <xTaskGenericCreate+0x204>)
 800ee98:	f001 f856 	bl	800ff48 <vListInitialise>
 800ee9c:	481c      	ldr	r0, [pc, #112]	; (800ef10 <xTaskGenericCreate+0x208>)
 800ee9e:	f001 f853 	bl	800ff48 <vListInitialise>
 800eea2:	481c      	ldr	r0, [pc, #112]	; (800ef14 <xTaskGenericCreate+0x20c>)
 800eea4:	f001 f850 	bl	800ff48 <vListInitialise>
 800eea8:	481b      	ldr	r0, [pc, #108]	; (800ef18 <xTaskGenericCreate+0x210>)
 800eeaa:	f001 f84d 	bl	800ff48 <vListInitialise>
 800eeae:	4650      	mov	r0, sl
 800eeb0:	f001 f84a 	bl	800ff48 <vListInitialise>
 800eeb4:	4638      	mov	r0, r7
 800eeb6:	f001 f847 	bl	800ff48 <vListInitialise>
 800eeba:	4818      	ldr	r0, [pc, #96]	; (800ef1c <xTaskGenericCreate+0x214>)
 800eebc:	f001 f844 	bl	800ff48 <vListInitialise>
 800eec0:	4817      	ldr	r0, [pc, #92]	; (800ef20 <xTaskGenericCreate+0x218>)
 800eec2:	f001 f841 	bl	800ff48 <vListInitialise>
 800eec6:	4817      	ldr	r0, [pc, #92]	; (800ef24 <xTaskGenericCreate+0x21c>)
 800eec8:	f001 f83e 	bl	800ff48 <vListInitialise>
 800eecc:	4816      	ldr	r0, [pc, #88]	; (800ef28 <xTaskGenericCreate+0x220>)
 800eece:	4b17      	ldr	r3, [pc, #92]	; (800ef2c <xTaskGenericCreate+0x224>)
 800eed0:	f8c0 a000 	str.w	sl, [r0]
 800eed4:	601f      	str	r7, [r3, #0]
 800eed6:	e79f      	b.n	800ee18 <xTaskGenericCreate+0x110>
 800eed8:	ea4f 0889 	mov.w	r8, r9, lsl #2
 800eedc:	4640      	mov	r0, r8
 800eede:	f001 fc63 	bl	80107a8 <pvPortMalloc>
 800eee2:	6320      	str	r0, [r4, #48]	; 0x30
 800eee4:	2800      	cmp	r0, #0
 800eee6:	f47f af30 	bne.w	800ed4a <xTaskGenericCreate+0x42>
 800eeea:	4620      	mov	r0, r4
 800eeec:	f001 fc6e 	bl	80107cc <vPortFree>
 800eef0:	f04f 30ff 	mov.w	r0, #4294967295
 800eef4:	e8bd 8ff8 	ldmia.w	sp!, {r3, r4, r5, r6, r7, r8, r9, sl, fp, pc}
 800eef8:	10000a34 	.word	0x10000a34
 800eefc:	100009e0 	.word	0x100009e0
 800ef00:	10000a38 	.word	0x10000a38
 800ef04:	10000978 	.word	0x10000978
 800ef08:	10000a1c 	.word	0x10000a1c
 800ef0c:	1000098c 	.word	0x1000098c
 800ef10:	100009a0 	.word	0x100009a0
 800ef14:	100009b4 	.word	0x100009b4
 800ef18:	100009c8 	.word	0x100009c8
 800ef1c:	100009e4 	.word	0x100009e4
 800ef20:	10000950 	.word	0x10000950
 800ef24:	10000964 	.word	0x10000964
 800ef28:	10000944 	.word	0x10000944
 800ef2c:	10000a00 	.word	0x10000a00
 800ef30:	10000948 	.word	0x10000948
 800ef34:	10000a04 	.word	0x10000a04
 800ef38:	10000a08 	.word	0x10000a08

0800ef3c <vTaskStartScheduler>:
 800ef3c:	b530      	push	{r4, r5, lr}
 800ef3e:	b085      	sub	sp, #20
 800ef40:	2400      	movs	r4, #0
 800ef42:	2282      	movs	r2, #130	; 0x82
 800ef44:	9400      	str	r4, [sp, #0]
 800ef46:	9401      	str	r4, [sp, #4]
 800ef48:	9402      	str	r4, [sp, #8]
 800ef4a:	9403      	str	r4, [sp, #12]
 800ef4c:	480e      	ldr	r0, [pc, #56]	; (800ef88 <vTaskStartScheduler+0x4c>)
 800ef4e:	490f      	ldr	r1, [pc, #60]	; (800ef8c <vTaskStartScheduler+0x50>)
 800ef50:	4623      	mov	r3, r4
 800ef52:	f7ff fed9 	bl	800ed08 <xTaskGenericCreate>
 800ef56:	2801      	cmp	r0, #1
 800ef58:	4605      	mov	r5, r0
 800ef5a:	d005      	beq.n	800ef68 <vTaskStartScheduler+0x2c>
 800ef5c:	b10d      	cbz	r5, 800ef62 <vTaskStartScheduler+0x26>
 800ef5e:	b005      	add	sp, #20
 800ef60:	bd30      	pop	{r4, r5, pc}
 800ef62:	f001 fb07 	bl	8010574 <ulPortSetInterruptMask>
 800ef66:	e7fe      	b.n	800ef66 <vTaskStartScheduler+0x2a>
 800ef68:	f001 f992 	bl	8010290 <xTimerCreateTimerTask>
 800ef6c:	2801      	cmp	r0, #1
 800ef6e:	4605      	mov	r5, r0
 800ef70:	d1f4      	bne.n	800ef5c <vTaskStartScheduler+0x20>
 800ef72:	f001 faff 	bl	8010574 <ulPortSetInterruptMask>
 800ef76:	4b06      	ldr	r3, [pc, #24]	; (800ef90 <vTaskStartScheduler+0x54>)
 800ef78:	4806      	ldr	r0, [pc, #24]	; (800ef94 <vTaskStartScheduler+0x58>)
 800ef7a:	601d      	str	r5, [r3, #0]
 800ef7c:	6004      	str	r4, [r0, #0]
 800ef7e:	b005      	add	sp, #20
 800ef80:	e8bd 4030 	ldmia.w	sp!, {r4, r5, lr}
 800ef84:	f001 bb94 	b.w	80106b0 <xPortStartScheduler>
 800ef88:	0800f20d 	.word	0x0800f20d
 800ef8c:	080157d8 	.word	0x080157d8
 800ef90:	10000948 	.word	0x10000948
 800ef94:	100009fc 	.word	0x100009fc

0800ef98 <vTaskSuspendAll>:
 800ef98:	f640 13dc 	movw	r3, #2524	; 0x9dc
 800ef9c:	f2c1 0300 	movt	r3, #4096	; 0x1000
 800efa0:	681a      	ldr	r2, [r3, #0]
 800efa2:	1c50      	adds	r0, r2, #1
 800efa4:	6018      	str	r0, [r3, #0]
 800efa6:	4770      	bx	lr

0800efa8 <xTaskGetTickCount>:
 800efa8:	b510      	push	{r4, lr}
 800efaa:	f001 faeb 	bl	8010584 <vPortEnterCritical>
 800efae:	f640 13fc 	movw	r3, #2556	; 0x9fc
 800efb2:	f2c1 0300 	movt	r3, #4096	; 0x1000
 800efb6:	681c      	ldr	r4, [r3, #0]
 800efb8:	f001 fb10 	bl	80105dc <vPortExitCritical>
 800efbc:	4620      	mov	r0, r4
 800efbe:	bd10      	pop	{r4, pc}

0800efc0 <xTaskIncrementTick>:
 800efc0:	e92d 4ff8 	stmdb	sp!, {r3, r4, r5, r6, r7, r8, r9, sl, fp, lr}
 800efc4:	4b4d      	ldr	r3, [pc, #308]	; (800f0fc <xTaskIncrementTick+0x13c>)
 800efc6:	6818      	ldr	r0, [r3, #0]
 800efc8:	2800      	cmp	r0, #0
 800efca:	d16f      	bne.n	800f0ac <xTaskIncrementTick+0xec>
 800efcc:	4d4c      	ldr	r5, [pc, #304]	; (800f100 <xTaskIncrementTick+0x140>)
 800efce:	682e      	ldr	r6, [r5, #0]
 800efd0:	1c77      	adds	r7, r6, #1
 800efd2:	602f      	str	r7, [r5, #0]
 800efd4:	682f      	ldr	r7, [r5, #0]
 800efd6:	b1f7      	cbz	r7, 800f016 <xTaskIncrementTick+0x56>
 800efd8:	f8df b144 	ldr.w	fp, [pc, #324]	; 800f120 <xTaskIncrementTick+0x160>
 800efdc:	f8db 5000 	ldr.w	r5, [fp]
 800efe0:	42af      	cmp	r7, r5
 800efe2:	d220      	bcs.n	800f026 <xTaskIncrementTick+0x66>
 800efe4:	4e47      	ldr	r6, [pc, #284]	; (800f104 <xTaskIncrementTick+0x144>)
 800efe6:	4d48      	ldr	r5, [pc, #288]	; (800f108 <xTaskIncrementTick+0x148>)
 800efe8:	2400      	movs	r4, #0
 800efea:	6828      	ldr	r0, [r5, #0]
 800efec:	4a47      	ldr	r2, [pc, #284]	; (800f10c <xTaskIncrementTick+0x14c>)
 800efee:	6ac1      	ldr	r1, [r0, #44]	; 0x2c
 800eff0:	6810      	ldr	r0, [r2, #0]
 800eff2:	eb01 0381 	add.w	r3, r1, r1, lsl #2
 800eff6:	f856 1023 	ldr.w	r1, [r6, r3, lsl #2]
 800effa:	2901      	cmp	r1, #1
 800effc:	bf88      	it	hi
 800effe:	2401      	movhi	r4, #1
 800f000:	b908      	cbnz	r0, 800f006 <xTaskIncrementTick+0x46>
 800f002:	f7ff fe67 	bl	800ecd4 <vApplicationTickHook>
 800f006:	4a42      	ldr	r2, [pc, #264]	; (800f110 <xTaskIncrementTick+0x150>)
 800f008:	6810      	ldr	r0, [r2, #0]
 800f00a:	2800      	cmp	r0, #0
 800f00c:	bf0c      	ite	eq
 800f00e:	4620      	moveq	r0, r4
 800f010:	2001      	movne	r0, #1
 800f012:	e8bd 8ff8 	ldmia.w	sp!, {r3, r4, r5, r6, r7, r8, r9, sl, fp, pc}
 800f016:	4b3f      	ldr	r3, [pc, #252]	; (800f114 <xTaskIncrementTick+0x154>)
 800f018:	6818      	ldr	r0, [r3, #0]
 800f01a:	6801      	ldr	r1, [r0, #0]
 800f01c:	2900      	cmp	r1, #0
 800f01e:	d050      	beq.n	800f0c2 <xTaskIncrementTick+0x102>
 800f020:	f001 faa8 	bl	8010574 <ulPortSetInterruptMask>
 800f024:	e7fe      	b.n	800f024 <xTaskIncrementTick+0x64>
 800f026:	4e37      	ldr	r6, [pc, #220]	; (800f104 <xTaskIncrementTick+0x144>)
 800f028:	4d37      	ldr	r5, [pc, #220]	; (800f108 <xTaskIncrementTick+0x148>)
 800f02a:	f8df 90f8 	ldr.w	r9, [pc, #248]	; 800f124 <xTaskIncrementTick+0x164>
 800f02e:	2400      	movs	r4, #0
 800f030:	f640 1344 	movw	r3, #2372	; 0x944
 800f034:	f2c1 0300 	movt	r3, #4096	; 0x1000
 800f038:	681a      	ldr	r2, [r3, #0]
 800f03a:	6810      	ldr	r0, [r2, #0]
 800f03c:	b920      	cbnz	r0, 800f048 <xTaskIncrementTick+0x88>
 800f03e:	f04f 33ff 	mov.w	r3, #4294967295
 800f042:	f8cb 3000 	str.w	r3, [fp]
 800f046:	e7d0      	b.n	800efea <xTaskIncrementTick+0x2a>
 800f048:	f640 1144 	movw	r1, #2372	; 0x944
 800f04c:	f2c1 0100 	movt	r1, #4096	; 0x1000
 800f050:	680b      	ldr	r3, [r1, #0]
 800f052:	68da      	ldr	r2, [r3, #12]
 800f054:	f8d2 800c 	ldr.w	r8, [r2, #12]
 800f058:	f8d8 1004 	ldr.w	r1, [r8, #4]
 800f05c:	f108 0a04 	add.w	sl, r8, #4
 800f060:	428f      	cmp	r7, r1
 800f062:	4650      	mov	r0, sl
 800f064:	d32a      	bcc.n	800f0bc <xTaskIncrementTick+0xfc>
 800f066:	f000 ffa7 	bl	800ffb8 <uxListRemove>
 800f06a:	f8d8 3028 	ldr.w	r3, [r8, #40]	; 0x28
 800f06e:	f108 0018 	add.w	r0, r8, #24
 800f072:	b10b      	cbz	r3, 800f078 <xTaskIncrementTick+0xb8>
 800f074:	f000 ffa0 	bl	800ffb8 <uxListRemove>
 800f078:	f8d8 202c 	ldr.w	r2, [r8, #44]	; 0x2c
 800f07c:	f8d9 0000 	ldr.w	r0, [r9]
 800f080:	2101      	movs	r1, #1
 800f082:	fa01 fe02 	lsl.w	lr, r1, r2
 800f086:	eb02 0282 	add.w	r2, r2, r2, lsl #2
 800f08a:	ea4e 0300 	orr.w	r3, lr, r0
 800f08e:	4651      	mov	r1, sl
 800f090:	eb06 0082 	add.w	r0, r6, r2, lsl #2
 800f094:	f8c9 3000 	str.w	r3, [r9]
 800f098:	f000 ff66 	bl	800ff68 <vListInsertEnd>
 800f09c:	6828      	ldr	r0, [r5, #0]
 800f09e:	f8d8 102c 	ldr.w	r1, [r8, #44]	; 0x2c
 800f0a2:	6ac2      	ldr	r2, [r0, #44]	; 0x2c
 800f0a4:	4291      	cmp	r1, r2
 800f0a6:	bf28      	it	cs
 800f0a8:	2401      	movcs	r4, #1
 800f0aa:	e7c1      	b.n	800f030 <xTaskIncrementTick+0x70>
 800f0ac:	4917      	ldr	r1, [pc, #92]	; (800f10c <xTaskIncrementTick+0x14c>)
 800f0ae:	680a      	ldr	r2, [r1, #0]
 800f0b0:	1c54      	adds	r4, r2, #1
 800f0b2:	600c      	str	r4, [r1, #0]
 800f0b4:	f7ff fe0e 	bl	800ecd4 <vApplicationTickHook>
 800f0b8:	2400      	movs	r4, #0
 800f0ba:	e7a4      	b.n	800f006 <xTaskIncrementTick+0x46>
 800f0bc:	f8cb 1000 	str.w	r1, [fp]
 800f0c0:	e793      	b.n	800efea <xTaskIncrementTick+0x2a>
 800f0c2:	4d15      	ldr	r5, [pc, #84]	; (800f118 <xTaskIncrementTick+0x158>)
 800f0c4:	681e      	ldr	r6, [r3, #0]
 800f0c6:	682c      	ldr	r4, [r5, #0]
 800f0c8:	4a14      	ldr	r2, [pc, #80]	; (800f11c <xTaskIncrementTick+0x15c>)
 800f0ca:	601c      	str	r4, [r3, #0]
 800f0cc:	602e      	str	r6, [r5, #0]
 800f0ce:	6810      	ldr	r0, [r2, #0]
 800f0d0:	1c41      	adds	r1, r0, #1
 800f0d2:	6011      	str	r1, [r2, #0]
 800f0d4:	681d      	ldr	r5, [r3, #0]
 800f0d6:	682e      	ldr	r6, [r5, #0]
 800f0d8:	b146      	cbz	r6, 800f0ec <xTaskIncrementTick+0x12c>
 800f0da:	681b      	ldr	r3, [r3, #0]
 800f0dc:	f8df b040 	ldr.w	fp, [pc, #64]	; 800f120 <xTaskIncrementTick+0x160>
 800f0e0:	68dc      	ldr	r4, [r3, #12]
 800f0e2:	68e2      	ldr	r2, [r4, #12]
 800f0e4:	6850      	ldr	r0, [r2, #4]
 800f0e6:	f8cb 0000 	str.w	r0, [fp]
 800f0ea:	e777      	b.n	800efdc <xTaskIncrementTick+0x1c>
 800f0ec:	f8df b030 	ldr.w	fp, [pc, #48]	; 800f120 <xTaskIncrementTick+0x160>
 800f0f0:	f04f 31ff 	mov.w	r1, #4294967295
 800f0f4:	f8cb 1000 	str.w	r1, [fp]
 800f0f8:	e770      	b.n	800efdc <xTaskIncrementTick+0x1c>
 800f0fa:	bf00      	nop
 800f0fc:	100009dc 	.word	0x100009dc
 800f100:	100009fc 	.word	0x100009fc
 800f104:	10000978 	.word	0x10000978
 800f108:	100009e0 	.word	0x100009e0
 800f10c:	10000a30 	.word	0x10000a30
 800f110:	10000a3c 	.word	0x10000a3c
 800f114:	10000944 	.word	0x10000944
 800f118:	10000a00 	.word	0x10000a00
 800f11c:	100009f8 	.word	0x100009f8
 800f120:	1000001c 	.word	0x1000001c
 800f124:	10000a38 	.word	0x10000a38

0800f128 <xTaskResumeAll>:
 800f128:	e92d 4ff8 	stmdb	sp!, {r3, r4, r5, r6, r7, r8, r9, sl, fp, lr}
 800f12c:	4c30      	ldr	r4, [pc, #192]	; (800f1f0 <xTaskResumeAll+0xc8>)
 800f12e:	6823      	ldr	r3, [r4, #0]
 800f130:	b913      	cbnz	r3, 800f138 <xTaskResumeAll+0x10>
 800f132:	f001 fa1f 	bl	8010574 <ulPortSetInterruptMask>
 800f136:	e7fe      	b.n	800f136 <xTaskResumeAll+0xe>
 800f138:	f001 fa24 	bl	8010584 <vPortEnterCritical>
 800f13c:	6820      	ldr	r0, [r4, #0]
 800f13e:	1e41      	subs	r1, r0, #1
 800f140:	6021      	str	r1, [r4, #0]
 800f142:	6822      	ldr	r2, [r4, #0]
 800f144:	2a00      	cmp	r2, #0
 800f146:	d13b      	bne.n	800f1c0 <xTaskResumeAll+0x98>
 800f148:	4c2a      	ldr	r4, [pc, #168]	; (800f1f4 <xTaskResumeAll+0xcc>)
 800f14a:	6823      	ldr	r3, [r4, #0]
 800f14c:	2b00      	cmp	r3, #0
 800f14e:	d037      	beq.n	800f1c0 <xTaskResumeAll+0x98>
 800f150:	f8df 90b0 	ldr.w	r9, [pc, #176]	; 800f204 <xTaskResumeAll+0xdc>
 800f154:	4d28      	ldr	r5, [pc, #160]	; (800f1f8 <xTaskResumeAll+0xd0>)
 800f156:	4f29      	ldr	r7, [pc, #164]	; (800f1fc <xTaskResumeAll+0xd4>)
 800f158:	f8df b0ac 	ldr.w	fp, [pc, #172]	; 800f208 <xTaskResumeAll+0xe0>
 800f15c:	46ca      	mov	sl, r9
 800f15e:	2601      	movs	r6, #1
 800f160:	e024      	b.n	800f1ac <xTaskResumeAll+0x84>
 800f162:	f8da 400c 	ldr.w	r4, [sl, #12]
 800f166:	68e4      	ldr	r4, [r4, #12]
 800f168:	f104 0804 	add.w	r8, r4, #4
 800f16c:	f104 0018 	add.w	r0, r4, #24
 800f170:	f000 ff22 	bl	800ffb8 <uxListRemove>
 800f174:	4640      	mov	r0, r8
 800f176:	f000 ff1f 	bl	800ffb8 <uxListRemove>
 800f17a:	6ae2      	ldr	r2, [r4, #44]	; 0x2c
 800f17c:	683b      	ldr	r3, [r7, #0]
 800f17e:	f640 1178 	movw	r1, #2424	; 0x978
 800f182:	fa06 fe02 	lsl.w	lr, r6, r2
 800f186:	eb02 0082 	add.w	r0, r2, r2, lsl #2
 800f18a:	f2c1 0100 	movt	r1, #4096	; 0x1000
 800f18e:	ea4e 0203 	orr.w	r2, lr, r3
 800f192:	eb01 0080 	add.w	r0, r1, r0, lsl #2
 800f196:	4641      	mov	r1, r8
 800f198:	603a      	str	r2, [r7, #0]
 800f19a:	f000 fee5 	bl	800ff68 <vListInsertEnd>
 800f19e:	f8db 3000 	ldr.w	r3, [fp]
 800f1a2:	6ae4      	ldr	r4, [r4, #44]	; 0x2c
 800f1a4:	6ad8      	ldr	r0, [r3, #44]	; 0x2c
 800f1a6:	4284      	cmp	r4, r0
 800f1a8:	bf28      	it	cs
 800f1aa:	602e      	strcs	r6, [r5, #0]
 800f1ac:	f8d9 0000 	ldr.w	r0, [r9]
 800f1b0:	2800      	cmp	r0, #0
 800f1b2:	d1d6      	bne.n	800f162 <xTaskResumeAll+0x3a>
 800f1b4:	4c12      	ldr	r4, [pc, #72]	; (800f200 <xTaskResumeAll+0xd8>)
 800f1b6:	6821      	ldr	r1, [r4, #0]
 800f1b8:	b941      	cbnz	r1, 800f1cc <xTaskResumeAll+0xa4>
 800f1ba:	682c      	ldr	r4, [r5, #0]
 800f1bc:	2c01      	cmp	r4, #1
 800f1be:	d014      	beq.n	800f1ea <xTaskResumeAll+0xc2>
 800f1c0:	2400      	movs	r4, #0
 800f1c2:	f001 fa0b 	bl	80105dc <vPortExitCritical>
 800f1c6:	4620      	mov	r0, r4
 800f1c8:	e8bd 8ff8 	ldmia.w	sp!, {r3, r4, r5, r6, r7, r8, r9, sl, fp, pc}
 800f1cc:	6822      	ldr	r2, [r4, #0]
 800f1ce:	2a00      	cmp	r2, #0
 800f1d0:	d0f3      	beq.n	800f1ba <xTaskResumeAll+0x92>
 800f1d2:	2601      	movs	r6, #1
 800f1d4:	f7ff fef4 	bl	800efc0 <xTaskIncrementTick>
 800f1d8:	b100      	cbz	r0, 800f1dc <xTaskResumeAll+0xb4>
 800f1da:	602e      	str	r6, [r5, #0]
 800f1dc:	6823      	ldr	r3, [r4, #0]
 800f1de:	1e58      	subs	r0, r3, #1
 800f1e0:	6020      	str	r0, [r4, #0]
 800f1e2:	6821      	ldr	r1, [r4, #0]
 800f1e4:	2900      	cmp	r1, #0
 800f1e6:	d1f5      	bne.n	800f1d4 <xTaskResumeAll+0xac>
 800f1e8:	e7e7      	b.n	800f1ba <xTaskResumeAll+0x92>
 800f1ea:	f001 f9b7 	bl	801055c <vPortYield>
 800f1ee:	e7e8      	b.n	800f1c2 <xTaskResumeAll+0x9a>
 800f1f0:	100009dc 	.word	0x100009dc
 800f1f4:	10000a34 	.word	0x10000a34
 800f1f8:	10000a3c 	.word	0x10000a3c
 800f1fc:	10000a38 	.word	0x10000a38
 800f200:	10000a30 	.word	0x10000a30
 800f204:	100009e4 	.word	0x100009e4
 800f208:	100009e0 	.word	0x100009e0

0800f20c <prvIdleTask>:
 800f20c:	e92d 4ff8 	stmdb	sp!, {r3, r4, r5, r6, r7, r8, r9, sl, fp, lr}
 800f210:	4e1d      	ldr	r6, [pc, #116]	; (800f288 <prvIdleTask+0x7c>)
 800f212:	4d1e      	ldr	r5, [pc, #120]	; (800f28c <prvIdleTask+0x80>)
 800f214:	4c1e      	ldr	r4, [pc, #120]	; (800f290 <prvIdleTask+0x84>)
 800f216:	f8df 807c 	ldr.w	r8, [pc, #124]	; 800f294 <prvIdleTask+0x88>
 800f21a:	f8df 907c 	ldr.w	r9, [pc, #124]	; 800f298 <prvIdleTask+0x8c>
 800f21e:	46b2      	mov	sl, r6
 800f220:	e006      	b.n	800f230 <prvIdleTask+0x24>
 800f222:	6821      	ldr	r1, [r4, #0]
 800f224:	6837      	ldr	r7, [r6, #0]
 800f226:	1c4a      	adds	r2, r1, #1
 800f228:	6022      	str	r2, [r4, #0]
 800f22a:	f7ff ff7d 	bl	800f128 <xTaskResumeAll>
 800f22e:	b95f      	cbnz	r7, 800f248 <prvIdleTask+0x3c>
 800f230:	682b      	ldr	r3, [r5, #0]
 800f232:	2b00      	cmp	r3, #0
 800f234:	d1f5      	bne.n	800f222 <prvIdleTask+0x16>
 800f236:	f8d9 0000 	ldr.w	r0, [r9]
 800f23a:	2801      	cmp	r0, #1
 800f23c:	d901      	bls.n	800f242 <prvIdleTask+0x36>
 800f23e:	f001 f98d 	bl	801055c <vPortYield>
 800f242:	f7ff fd45 	bl	800ecd0 <vApplicationIdleHook>
 800f246:	e7f3      	b.n	800f230 <prvIdleTask+0x24>
 800f248:	f001 f99c 	bl	8010584 <vPortEnterCritical>
 800f24c:	f8da 300c 	ldr.w	r3, [sl, #12]
 800f250:	f8d3 b00c 	ldr.w	fp, [r3, #12]
 800f254:	f10b 0004 	add.w	r0, fp, #4
 800f258:	f000 feae 	bl	800ffb8 <uxListRemove>
 800f25c:	f8d8 0000 	ldr.w	r0, [r8]
 800f260:	f640 174c 	movw	r7, #2380	; 0x94c
 800f264:	1e41      	subs	r1, r0, #1
 800f266:	f2c1 0700 	movt	r7, #4096	; 0x1000
 800f26a:	f8c8 1000 	str.w	r1, [r8]
 800f26e:	683a      	ldr	r2, [r7, #0]
 800f270:	1e53      	subs	r3, r2, #1
 800f272:	603b      	str	r3, [r7, #0]
 800f274:	f001 f9b2 	bl	80105dc <vPortExitCritical>
 800f278:	f8db 0030 	ldr.w	r0, [fp, #48]	; 0x30
 800f27c:	f001 faa6 	bl	80107cc <vPortFree>
 800f280:	4658      	mov	r0, fp
 800f282:	f001 faa3 	bl	80107cc <vPortFree>
 800f286:	e7d3      	b.n	800f230 <prvIdleTask+0x24>
 800f288:	10000950 	.word	0x10000950
 800f28c:	1000094c 	.word	0x1000094c
 800f290:	100009dc 	.word	0x100009dc
 800f294:	10000a34 	.word	0x10000a34
 800f298:	10000978 	.word	0x10000978

0800f29c <vTaskSwitchContext>:
 800f29c:	b538      	push	{r3, r4, r5, lr}
 800f29e:	4b21      	ldr	r3, [pc, #132]	; (800f324 <vTaskSwitchContext+0x88>)
 800f2a0:	6818      	ldr	r0, [r3, #0]
 800f2a2:	2800      	cmp	r0, #0
 800f2a4:	d139      	bne.n	800f31a <vTaskSwitchContext+0x7e>
 800f2a6:	4a20      	ldr	r2, [pc, #128]	; (800f328 <vTaskSwitchContext+0x8c>)
 800f2a8:	4c20      	ldr	r4, [pc, #128]	; (800f32c <vTaskSwitchContext+0x90>)
 800f2aa:	6010      	str	r0, [r2, #0]
 800f2ac:	6821      	ldr	r1, [r4, #0]
 800f2ae:	6825      	ldr	r5, [r4, #0]
 800f2b0:	6808      	ldr	r0, [r1, #0]
 800f2b2:	6b2b      	ldr	r3, [r5, #48]	; 0x30
 800f2b4:	4298      	cmp	r0, r3
 800f2b6:	d92a      	bls.n	800f30e <vTaskSwitchContext+0x72>
 800f2b8:	6822      	ldr	r2, [r4, #0]
 800f2ba:	491d      	ldr	r1, [pc, #116]	; (800f330 <vTaskSwitchContext+0x94>)
 800f2bc:	6b10      	ldr	r0, [r2, #48]	; 0x30
 800f2be:	4d1b      	ldr	r5, [pc, #108]	; (800f32c <vTaskSwitchContext+0x90>)
 800f2c0:	2214      	movs	r2, #20
 800f2c2:	f001 fd9f 	bl	8010e04 <memcmp>
 800f2c6:	b9e0      	cbnz	r0, 800f302 <vTaskSwitchContext+0x66>
 800f2c8:	491a      	ldr	r1, [pc, #104]	; (800f334 <vTaskSwitchContext+0x98>)
 800f2ca:	6808      	ldr	r0, [r1, #0]
 800f2cc:	fab0 f380 	clz	r3, r0
 800f2d0:	b2da      	uxtb	r2, r3
 800f2d2:	f1c2 011f 	rsb	r1, r2, #31
 800f2d6:	eb01 0081 	add.w	r0, r1, r1, lsl #2
 800f2da:	0083      	lsls	r3, r0, #2
 800f2dc:	4916      	ldr	r1, [pc, #88]	; (800f338 <vTaskSwitchContext+0x9c>)
 800f2de:	58c8      	ldr	r0, [r1, r3]
 800f2e0:	18ca      	adds	r2, r1, r3
 800f2e2:	b158      	cbz	r0, 800f2fc <vTaskSwitchContext+0x60>
 800f2e4:	6851      	ldr	r1, [r2, #4]
 800f2e6:	684b      	ldr	r3, [r1, #4]
 800f2e8:	f102 0008 	add.w	r0, r2, #8
 800f2ec:	4283      	cmp	r3, r0
 800f2ee:	6053      	str	r3, [r2, #4]
 800f2f0:	bf04      	itt	eq
 800f2f2:	685b      	ldreq	r3, [r3, #4]
 800f2f4:	6053      	streq	r3, [r2, #4]
 800f2f6:	68da      	ldr	r2, [r3, #12]
 800f2f8:	6022      	str	r2, [r4, #0]
 800f2fa:	bd38      	pop	{r3, r4, r5, pc}
 800f2fc:	f001 f93a 	bl	8010574 <ulPortSetInterruptMask>
 800f300:	e7fe      	b.n	800f300 <vTaskSwitchContext+0x64>
 800f302:	6828      	ldr	r0, [r5, #0]
 800f304:	6829      	ldr	r1, [r5, #0]
 800f306:	3134      	adds	r1, #52	; 0x34
 800f308:	f7ff fcf2 	bl	800ecf0 <vApplicationStackOverflowHook>
 800f30c:	e7dc      	b.n	800f2c8 <vTaskSwitchContext+0x2c>
 800f30e:	6820      	ldr	r0, [r4, #0]
 800f310:	6821      	ldr	r1, [r4, #0]
 800f312:	3134      	adds	r1, #52	; 0x34
 800f314:	f7ff fcec 	bl	800ecf0 <vApplicationStackOverflowHook>
 800f318:	e7ce      	b.n	800f2b8 <vTaskSwitchContext+0x1c>
 800f31a:	4b03      	ldr	r3, [pc, #12]	; (800f328 <vTaskSwitchContext+0x8c>)
 800f31c:	2101      	movs	r1, #1
 800f31e:	6019      	str	r1, [r3, #0]
 800f320:	bd38      	pop	{r3, r4, r5, pc}
 800f322:	bf00      	nop
 800f324:	100009dc 	.word	0x100009dc
 800f328:	10000a3c 	.word	0x10000a3c
 800f32c:	100009e0 	.word	0x100009e0
 800f330:	080157c4 	.word	0x080157c4
 800f334:	10000a38 	.word	0x10000a38
 800f338:	10000978 	.word	0x10000978

0800f33c <vTaskPlaceOnEventList>:
 800f33c:	b538      	push	{r3, r4, r5, lr}
 800f33e:	460d      	mov	r5, r1
 800f340:	2800      	cmp	r0, #0
 800f342:	d039      	beq.n	800f3b8 <vTaskPlaceOnEventList+0x7c>
 800f344:	4c1e      	ldr	r4, [pc, #120]	; (800f3c0 <vTaskPlaceOnEventList+0x84>)
 800f346:	6821      	ldr	r1, [r4, #0]
 800f348:	3118      	adds	r1, #24
 800f34a:	f000 fe1b 	bl	800ff84 <vListInsert>
 800f34e:	6820      	ldr	r0, [r4, #0]
 800f350:	3004      	adds	r0, #4
 800f352:	f000 fe31 	bl	800ffb8 <uxListRemove>
 800f356:	b948      	cbnz	r0, 800f36c <vTaskPlaceOnEventList+0x30>
 800f358:	6822      	ldr	r2, [r4, #0]
 800f35a:	4b1a      	ldr	r3, [pc, #104]	; (800f3c4 <vTaskPlaceOnEventList+0x88>)
 800f35c:	6ad1      	ldr	r1, [r2, #44]	; 0x2c
 800f35e:	681a      	ldr	r2, [r3, #0]
 800f360:	2001      	movs	r0, #1
 800f362:	fa00 f101 	lsl.w	r1, r0, r1
 800f366:	ea22 0201 	bic.w	r2, r2, r1
 800f36a:	601a      	str	r2, [r3, #0]
 800f36c:	1c69      	adds	r1, r5, #1
 800f36e:	d01c      	beq.n	800f3aa <vTaskPlaceOnEventList+0x6e>
 800f370:	4a15      	ldr	r2, [pc, #84]	; (800f3c8 <vTaskPlaceOnEventList+0x8c>)
 800f372:	4b13      	ldr	r3, [pc, #76]	; (800f3c0 <vTaskPlaceOnEventList+0x84>)
 800f374:	6810      	ldr	r0, [r2, #0]
 800f376:	6821      	ldr	r1, [r4, #0]
 800f378:	6812      	ldr	r2, [r2, #0]
 800f37a:	182c      	adds	r4, r5, r0
 800f37c:	4294      	cmp	r4, r2
 800f37e:	604c      	str	r4, [r1, #4]
 800f380:	d30b      	bcc.n	800f39a <vTaskPlaceOnEventList+0x5e>
 800f382:	4812      	ldr	r0, [pc, #72]	; (800f3cc <vTaskPlaceOnEventList+0x90>)
 800f384:	6800      	ldr	r0, [r0, #0]
 800f386:	681b      	ldr	r3, [r3, #0]
 800f388:	1d19      	adds	r1, r3, #4
 800f38a:	f000 fdfb 	bl	800ff84 <vListInsert>
 800f38e:	4910      	ldr	r1, [pc, #64]	; (800f3d0 <vTaskPlaceOnEventList+0x94>)
 800f390:	680a      	ldr	r2, [r1, #0]
 800f392:	4294      	cmp	r4, r2
 800f394:	bf38      	it	cc
 800f396:	600c      	strcc	r4, [r1, #0]
 800f398:	bd38      	pop	{r3, r4, r5, pc}
 800f39a:	480e      	ldr	r0, [pc, #56]	; (800f3d4 <vTaskPlaceOnEventList+0x98>)
 800f39c:	6800      	ldr	r0, [r0, #0]
 800f39e:	681b      	ldr	r3, [r3, #0]
 800f3a0:	1d19      	adds	r1, r3, #4
 800f3a2:	e8bd 4038 	ldmia.w	sp!, {r3, r4, r5, lr}
 800f3a6:	f000 bded 	b.w	800ff84 <vListInsert>
 800f3aa:	6821      	ldr	r1, [r4, #0]
 800f3ac:	480a      	ldr	r0, [pc, #40]	; (800f3d8 <vTaskPlaceOnEventList+0x9c>)
 800f3ae:	3104      	adds	r1, #4
 800f3b0:	e8bd 4038 	ldmia.w	sp!, {r3, r4, r5, lr}
 800f3b4:	f000 bdd8 	b.w	800ff68 <vListInsertEnd>
 800f3b8:	f001 f8dc 	bl	8010574 <ulPortSetInterruptMask>
 800f3bc:	e7fe      	b.n	800f3bc <vTaskPlaceOnEventList+0x80>
 800f3be:	bf00      	nop
 800f3c0:	100009e0 	.word	0x100009e0
 800f3c4:	10000a38 	.word	0x10000a38
 800f3c8:	100009fc 	.word	0x100009fc
 800f3cc:	10000944 	.word	0x10000944
 800f3d0:	1000001c 	.word	0x1000001c
 800f3d4:	10000a00 	.word	0x10000a00
 800f3d8:	10000964 	.word	0x10000964

0800f3dc <vTaskPlaceOnEventListRestricted>:
 800f3dc:	b538      	push	{r3, r4, r5, lr}
 800f3de:	460c      	mov	r4, r1
 800f3e0:	2800      	cmp	r0, #0
 800f3e2:	d030      	beq.n	800f446 <vTaskPlaceOnEventListRestricted+0x6a>
 800f3e4:	4d19      	ldr	r5, [pc, #100]	; (800f44c <vTaskPlaceOnEventListRestricted+0x70>)
 800f3e6:	6829      	ldr	r1, [r5, #0]
 800f3e8:	3118      	adds	r1, #24
 800f3ea:	f000 fdbd 	bl	800ff68 <vListInsertEnd>
 800f3ee:	6828      	ldr	r0, [r5, #0]
 800f3f0:	3004      	adds	r0, #4
 800f3f2:	f000 fde1 	bl	800ffb8 <uxListRemove>
 800f3f6:	b948      	cbnz	r0, 800f40c <vTaskPlaceOnEventListRestricted+0x30>
 800f3f8:	682a      	ldr	r2, [r5, #0]
 800f3fa:	4b15      	ldr	r3, [pc, #84]	; (800f450 <vTaskPlaceOnEventListRestricted+0x74>)
 800f3fc:	6ad1      	ldr	r1, [r2, #44]	; 0x2c
 800f3fe:	681a      	ldr	r2, [r3, #0]
 800f400:	2001      	movs	r0, #1
 800f402:	fa00 f101 	lsl.w	r1, r0, r1
 800f406:	ea22 0201 	bic.w	r2, r2, r1
 800f40a:	601a      	str	r2, [r3, #0]
 800f40c:	4a11      	ldr	r2, [pc, #68]	; (800f454 <vTaskPlaceOnEventListRestricted+0x78>)
 800f40e:	4b0f      	ldr	r3, [pc, #60]	; (800f44c <vTaskPlaceOnEventListRestricted+0x70>)
 800f410:	6810      	ldr	r0, [r2, #0]
 800f412:	6829      	ldr	r1, [r5, #0]
 800f414:	6812      	ldr	r2, [r2, #0]
 800f416:	1824      	adds	r4, r4, r0
 800f418:	4294      	cmp	r4, r2
 800f41a:	604c      	str	r4, [r1, #4]
 800f41c:	d30b      	bcc.n	800f436 <vTaskPlaceOnEventListRestricted+0x5a>
 800f41e:	480e      	ldr	r0, [pc, #56]	; (800f458 <vTaskPlaceOnEventListRestricted+0x7c>)
 800f420:	6800      	ldr	r0, [r0, #0]
 800f422:	681b      	ldr	r3, [r3, #0]
 800f424:	1d19      	adds	r1, r3, #4
 800f426:	f000 fdad 	bl	800ff84 <vListInsert>
 800f42a:	490c      	ldr	r1, [pc, #48]	; (800f45c <vTaskPlaceOnEventListRestricted+0x80>)
 800f42c:	680a      	ldr	r2, [r1, #0]
 800f42e:	4294      	cmp	r4, r2
 800f430:	bf38      	it	cc
 800f432:	600c      	strcc	r4, [r1, #0]
 800f434:	bd38      	pop	{r3, r4, r5, pc}
 800f436:	480a      	ldr	r0, [pc, #40]	; (800f460 <vTaskPlaceOnEventListRestricted+0x84>)
 800f438:	6800      	ldr	r0, [r0, #0]
 800f43a:	681b      	ldr	r3, [r3, #0]
 800f43c:	1d19      	adds	r1, r3, #4
 800f43e:	e8bd 4038 	ldmia.w	sp!, {r3, r4, r5, lr}
 800f442:	f000 bd9f 	b.w	800ff84 <vListInsert>
 800f446:	f001 f895 	bl	8010574 <ulPortSetInterruptMask>
 800f44a:	e7fe      	b.n	800f44a <vTaskPlaceOnEventListRestricted+0x6e>
 800f44c:	100009e0 	.word	0x100009e0
 800f450:	10000a38 	.word	0x10000a38
 800f454:	100009fc 	.word	0x100009fc
 800f458:	10000944 	.word	0x10000944
 800f45c:	1000001c 	.word	0x1000001c
 800f460:	10000a00 	.word	0x10000a00

0800f464 <xTaskRemoveFromEventList>:
 800f464:	68c3      	ldr	r3, [r0, #12]
 800f466:	b570      	push	{r4, r5, r6, lr}
 800f468:	68dc      	ldr	r4, [r3, #12]
 800f46a:	2c00      	cmp	r4, #0
 800f46c:	d02c      	beq.n	800f4c8 <xTaskRemoveFromEventList+0x64>
 800f46e:	f104 0518 	add.w	r5, r4, #24
 800f472:	4628      	mov	r0, r5
 800f474:	f000 fda0 	bl	800ffb8 <uxListRemove>
 800f478:	4815      	ldr	r0, [pc, #84]	; (800f4d0 <xTaskRemoveFromEventList+0x6c>)
 800f47a:	6801      	ldr	r1, [r0, #0]
 800f47c:	b9e9      	cbnz	r1, 800f4ba <xTaskRemoveFromEventList+0x56>
 800f47e:	1d25      	adds	r5, r4, #4
 800f480:	4628      	mov	r0, r5
 800f482:	f000 fd99 	bl	800ffb8 <uxListRemove>
 800f486:	6ae3      	ldr	r3, [r4, #44]	; 0x2c
 800f488:	4a12      	ldr	r2, [pc, #72]	; (800f4d4 <xTaskRemoveFromEventList+0x70>)
 800f48a:	2601      	movs	r6, #1
 800f48c:	6810      	ldr	r0, [r2, #0]
 800f48e:	eb03 0183 	add.w	r1, r3, r3, lsl #2
 800f492:	fa06 f603 	lsl.w	r6, r6, r3
 800f496:	4b10      	ldr	r3, [pc, #64]	; (800f4d8 <xTaskRemoveFromEventList+0x74>)
 800f498:	4306      	orrs	r6, r0
 800f49a:	eb03 0081 	add.w	r0, r3, r1, lsl #2
 800f49e:	4629      	mov	r1, r5
 800f4a0:	6016      	str	r6, [r2, #0]
 800f4a2:	f000 fd61 	bl	800ff68 <vListInsertEnd>
 800f4a6:	480d      	ldr	r0, [pc, #52]	; (800f4dc <xTaskRemoveFromEventList+0x78>)
 800f4a8:	6ae2      	ldr	r2, [r4, #44]	; 0x2c
 800f4aa:	6801      	ldr	r1, [r0, #0]
 800f4ac:	6acb      	ldr	r3, [r1, #44]	; 0x2c
 800f4ae:	429a      	cmp	r2, r3
 800f4b0:	d908      	bls.n	800f4c4 <xTaskRemoveFromEventList+0x60>
 800f4b2:	4a0b      	ldr	r2, [pc, #44]	; (800f4e0 <xTaskRemoveFromEventList+0x7c>)
 800f4b4:	2001      	movs	r0, #1
 800f4b6:	6010      	str	r0, [r2, #0]
 800f4b8:	bd70      	pop	{r4, r5, r6, pc}
 800f4ba:	480a      	ldr	r0, [pc, #40]	; (800f4e4 <xTaskRemoveFromEventList+0x80>)
 800f4bc:	4629      	mov	r1, r5
 800f4be:	f000 fd53 	bl	800ff68 <vListInsertEnd>
 800f4c2:	e7f0      	b.n	800f4a6 <xTaskRemoveFromEventList+0x42>
 800f4c4:	2000      	movs	r0, #0
 800f4c6:	bd70      	pop	{r4, r5, r6, pc}
 800f4c8:	f001 f854 	bl	8010574 <ulPortSetInterruptMask>
 800f4cc:	e7fe      	b.n	800f4cc <xTaskRemoveFromEventList+0x68>
 800f4ce:	bf00      	nop
 800f4d0:	100009dc 	.word	0x100009dc
 800f4d4:	10000a38 	.word	0x10000a38
 800f4d8:	10000978 	.word	0x10000978
 800f4dc:	100009e0 	.word	0x100009e0
 800f4e0:	10000a3c 	.word	0x10000a3c
 800f4e4:	100009e4 	.word	0x100009e4

0800f4e8 <vTaskSetTimeOutState>:
 800f4e8:	b508      	push	{r3, lr}
 800f4ea:	b130      	cbz	r0, 800f4fa <vTaskSetTimeOutState+0x12>
 800f4ec:	4b04      	ldr	r3, [pc, #16]	; (800f500 <vTaskSetTimeOutState+0x18>)
 800f4ee:	4905      	ldr	r1, [pc, #20]	; (800f504 <vTaskSetTimeOutState+0x1c>)
 800f4f0:	681a      	ldr	r2, [r3, #0]
 800f4f2:	680b      	ldr	r3, [r1, #0]
 800f4f4:	e880 000c 	stmia.w	r0, {r2, r3}
 800f4f8:	bd08      	pop	{r3, pc}
 800f4fa:	f001 f83b 	bl	8010574 <ulPortSetInterruptMask>
 800f4fe:	e7fe      	b.n	800f4fe <vTaskSetTimeOutState+0x16>
 800f500:	100009f8 	.word	0x100009f8
 800f504:	100009fc 	.word	0x100009fc

0800f508 <xTaskCheckForTimeOut>:
 800f508:	b5f8      	push	{r3, r4, r5, r6, r7, lr}
 800f50a:	4604      	mov	r4, r0
 800f50c:	460d      	mov	r5, r1
 800f50e:	b328      	cbz	r0, 800f55c <xTaskCheckForTimeOut+0x54>
 800f510:	b309      	cbz	r1, 800f556 <xTaskCheckForTimeOut+0x4e>
 800f512:	f001 f837 	bl	8010584 <vPortEnterCritical>
 800f516:	6829      	ldr	r1, [r5, #0]
 800f518:	4812      	ldr	r0, [pc, #72]	; (800f564 <xTaskCheckForTimeOut+0x5c>)
 800f51a:	1c4b      	adds	r3, r1, #1
 800f51c:	6802      	ldr	r2, [r0, #0]
 800f51e:	d018      	beq.n	800f552 <xTaskCheckForTimeOut+0x4a>
 800f520:	4e11      	ldr	r6, [pc, #68]	; (800f568 <xTaskCheckForTimeOut+0x60>)
 800f522:	6823      	ldr	r3, [r4, #0]
 800f524:	6837      	ldr	r7, [r6, #0]
 800f526:	42bb      	cmp	r3, r7
 800f528:	6863      	ldr	r3, [r4, #4]
 800f52a:	d001      	beq.n	800f530 <xTaskCheckForTimeOut+0x28>
 800f52c:	429a      	cmp	r2, r3
 800f52e:	d202      	bcs.n	800f536 <xTaskCheckForTimeOut+0x2e>
 800f530:	1ad7      	subs	r7, r2, r3
 800f532:	42b9      	cmp	r1, r7
 800f534:	d804      	bhi.n	800f540 <xTaskCheckForTimeOut+0x38>
 800f536:	2501      	movs	r5, #1
 800f538:	f001 f850 	bl	80105dc <vPortExitCritical>
 800f53c:	4628      	mov	r0, r5
 800f53e:	bdf8      	pop	{r3, r4, r5, r6, r7, pc}
 800f540:	6836      	ldr	r6, [r6, #0]
 800f542:	6800      	ldr	r0, [r0, #0]
 800f544:	1a89      	subs	r1, r1, r2
 800f546:	18ca      	adds	r2, r1, r3
 800f548:	602a      	str	r2, [r5, #0]
 800f54a:	2500      	movs	r5, #0
 800f54c:	6026      	str	r6, [r4, #0]
 800f54e:	6060      	str	r0, [r4, #4]
 800f550:	e7f2      	b.n	800f538 <xTaskCheckForTimeOut+0x30>
 800f552:	2500      	movs	r5, #0
 800f554:	e7f0      	b.n	800f538 <xTaskCheckForTimeOut+0x30>
 800f556:	f001 f80d 	bl	8010574 <ulPortSetInterruptMask>
 800f55a:	e7fe      	b.n	800f55a <xTaskCheckForTimeOut+0x52>
 800f55c:	f001 f80a 	bl	8010574 <ulPortSetInterruptMask>
 800f560:	e7fe      	b.n	800f560 <xTaskCheckForTimeOut+0x58>
 800f562:	bf00      	nop
 800f564:	100009fc 	.word	0x100009fc
 800f568:	100009f8 	.word	0x100009f8

0800f56c <vTaskMissedYield>:
 800f56c:	f640 233c 	movw	r3, #2620	; 0xa3c
 800f570:	f2c1 0300 	movt	r3, #4096	; 0x1000
 800f574:	2201      	movs	r2, #1
 800f576:	601a      	str	r2, [r3, #0]
 800f578:	4770      	bx	lr
 800f57a:	bf00      	nop

0800f57c <xTaskGetSchedulerState>:
 800f57c:	4b05      	ldr	r3, [pc, #20]	; (800f594 <xTaskGetSchedulerState+0x18>)
 800f57e:	6818      	ldr	r0, [r3, #0]
 800f580:	b130      	cbz	r0, 800f590 <xTaskGetSchedulerState+0x14>
 800f582:	4905      	ldr	r1, [pc, #20]	; (800f598 <xTaskGetSchedulerState+0x1c>)
 800f584:	680a      	ldr	r2, [r1, #0]
 800f586:	2a00      	cmp	r2, #0
 800f588:	bf0c      	ite	eq
 800f58a:	2002      	moveq	r0, #2
 800f58c:	2000      	movne	r0, #0
 800f58e:	4770      	bx	lr
 800f590:	2001      	movs	r0, #1
 800f592:	4770      	bx	lr
 800f594:	10000948 	.word	0x10000948
 800f598:	100009dc 	.word	0x100009dc

0800f59c <vTaskPriorityInherit>:
 800f59c:	b5f8      	push	{r3, r4, r5, r6, r7, lr}
 800f59e:	4604      	mov	r4, r0
 800f5a0:	b1c0      	cbz	r0, 800f5d4 <vTaskPriorityInherit+0x38>
 800f5a2:	4d20      	ldr	r5, [pc, #128]	; (800f624 <vTaskPriorityInherit+0x88>)
 800f5a4:	6ac3      	ldr	r3, [r0, #44]	; 0x2c
 800f5a6:	682a      	ldr	r2, [r5, #0]
 800f5a8:	6ad0      	ldr	r0, [r2, #44]	; 0x2c
 800f5aa:	4283      	cmp	r3, r0
 800f5ac:	d212      	bcs.n	800f5d4 <vTaskPriorityInherit+0x38>
 800f5ae:	69a1      	ldr	r1, [r4, #24]
 800f5b0:	2900      	cmp	r1, #0
 800f5b2:	db04      	blt.n	800f5be <vTaskPriorityInherit+0x22>
 800f5b4:	682e      	ldr	r6, [r5, #0]
 800f5b6:	6af2      	ldr	r2, [r6, #44]	; 0x2c
 800f5b8:	f1c2 0005 	rsb	r0, r2, #5
 800f5bc:	61a0      	str	r0, [r4, #24]
 800f5be:	4e1a      	ldr	r6, [pc, #104]	; (800f628 <vTaskPriorityInherit+0x8c>)
 800f5c0:	6961      	ldr	r1, [r4, #20]
 800f5c2:	eb03 0383 	add.w	r3, r3, r3, lsl #2
 800f5c6:	eb06 0283 	add.w	r2, r6, r3, lsl #2
 800f5ca:	4291      	cmp	r1, r2
 800f5cc:	d003      	beq.n	800f5d6 <vTaskPriorityInherit+0x3a>
 800f5ce:	6828      	ldr	r0, [r5, #0]
 800f5d0:	6ac1      	ldr	r1, [r0, #44]	; 0x2c
 800f5d2:	62e1      	str	r1, [r4, #44]	; 0x2c
 800f5d4:	bdf8      	pop	{r3, r4, r5, r6, r7, pc}
 800f5d6:	1d27      	adds	r7, r4, #4
 800f5d8:	4638      	mov	r0, r7
 800f5da:	f000 fced 	bl	800ffb8 <uxListRemove>
 800f5de:	b9f8      	cbnz	r0, 800f620 <vTaskPriorityInherit+0x84>
 800f5e0:	6ae3      	ldr	r3, [r4, #44]	; 0x2c
 800f5e2:	eb03 0283 	add.w	r2, r3, r3, lsl #2
 800f5e6:	f856 0022 	ldr.w	r0, [r6, r2, lsl #2]
 800f5ea:	b9c8      	cbnz	r0, 800f620 <vTaskPriorityInherit+0x84>
 800f5ec:	4a0f      	ldr	r2, [pc, #60]	; (800f62c <vTaskPriorityInherit+0x90>)
 800f5ee:	2001      	movs	r0, #1
 800f5f0:	6811      	ldr	r1, [r2, #0]
 800f5f2:	fa00 f303 	lsl.w	r3, r0, r3
 800f5f6:	ea21 0103 	bic.w	r1, r1, r3
 800f5fa:	6011      	str	r1, [r2, #0]
 800f5fc:	682d      	ldr	r5, [r5, #0]
 800f5fe:	6811      	ldr	r1, [r2, #0]
 800f600:	6aeb      	ldr	r3, [r5, #44]	; 0x2c
 800f602:	2501      	movs	r5, #1
 800f604:	fa05 f503 	lsl.w	r5, r5, r3
 800f608:	eb03 0083 	add.w	r0, r3, r3, lsl #2
 800f60c:	430d      	orrs	r5, r1
 800f60e:	eb06 0080 	add.w	r0, r6, r0, lsl #2
 800f612:	4639      	mov	r1, r7
 800f614:	62e3      	str	r3, [r4, #44]	; 0x2c
 800f616:	6015      	str	r5, [r2, #0]
 800f618:	e8bd 40f8 	ldmia.w	sp!, {r3, r4, r5, r6, r7, lr}
 800f61c:	f000 bca4 	b.w	800ff68 <vListInsertEnd>
 800f620:	4a02      	ldr	r2, [pc, #8]	; (800f62c <vTaskPriorityInherit+0x90>)
 800f622:	e7eb      	b.n	800f5fc <vTaskPriorityInherit+0x60>
 800f624:	100009e0 	.word	0x100009e0
 800f628:	10000978 	.word	0x10000978
 800f62c:	10000a38 	.word	0x10000a38

0800f630 <xTaskPriorityDisinherit>:
 800f630:	b5f8      	push	{r3, r4, r5, r6, r7, lr}
 800f632:	4604      	mov	r4, r0
 800f634:	b148      	cbz	r0, 800f64a <xTaskPriorityDisinherit+0x1a>
 800f636:	6cc3      	ldr	r3, [r0, #76]	; 0x4c
 800f638:	2b00      	cmp	r3, #0
 800f63a:	d02b      	beq.n	800f694 <xTaskPriorityDisinherit+0x64>
 800f63c:	6ac1      	ldr	r1, [r0, #44]	; 0x2c
 800f63e:	6c82      	ldr	r2, [r0, #72]	; 0x48
 800f640:	1e58      	subs	r0, r3, #1
 800f642:	4291      	cmp	r1, r2
 800f644:	64e0      	str	r0, [r4, #76]	; 0x4c
 800f646:	d000      	beq.n	800f64a <xTaskPriorityDisinherit+0x1a>
 800f648:	b108      	cbz	r0, 800f64e <xTaskPriorityDisinherit+0x1e>
 800f64a:	2000      	movs	r0, #0
 800f64c:	bdf8      	pop	{r3, r4, r5, r6, r7, pc}
 800f64e:	1d27      	adds	r7, r4, #4
 800f650:	4638      	mov	r0, r7
 800f652:	f000 fcb1 	bl	800ffb8 <uxListRemove>
 800f656:	bb00      	cbnz	r0, 800f69a <xTaskPriorityDisinherit+0x6a>
 800f658:	6ae6      	ldr	r6, [r4, #44]	; 0x2c
 800f65a:	4d16      	ldr	r5, [pc, #88]	; (800f6b4 <xTaskPriorityDisinherit+0x84>)
 800f65c:	eb06 0386 	add.w	r3, r6, r6, lsl #2
 800f660:	f855 1023 	ldr.w	r1, [r5, r3, lsl #2]
 800f664:	b1e1      	cbz	r1, 800f6a0 <xTaskPriorityDisinherit+0x70>
 800f666:	4b14      	ldr	r3, [pc, #80]	; (800f6b8 <xTaskPriorityDisinherit+0x88>)
 800f668:	6ca2      	ldr	r2, [r4, #72]	; 0x48
 800f66a:	6818      	ldr	r0, [r3, #0]
 800f66c:	62e2      	str	r2, [r4, #44]	; 0x2c
 800f66e:	2601      	movs	r6, #1
 800f670:	fa06 fe02 	lsl.w	lr, r6, r2
 800f674:	f1c2 0105 	rsb	r1, r2, #5
 800f678:	eb02 0282 	add.w	r2, r2, r2, lsl #2
 800f67c:	ea4e 0c00 	orr.w	ip, lr, r0
 800f680:	61a1      	str	r1, [r4, #24]
 800f682:	eb05 0082 	add.w	r0, r5, r2, lsl #2
 800f686:	4639      	mov	r1, r7
 800f688:	f8c3 c000 	str.w	ip, [r3]
 800f68c:	f000 fc6c 	bl	800ff68 <vListInsertEnd>
 800f690:	4630      	mov	r0, r6
 800f692:	bdf8      	pop	{r3, r4, r5, r6, r7, pc}
 800f694:	f000 ff6e 	bl	8010574 <ulPortSetInterruptMask>
 800f698:	e7fe      	b.n	800f698 <xTaskPriorityDisinherit+0x68>
 800f69a:	4d06      	ldr	r5, [pc, #24]	; (800f6b4 <xTaskPriorityDisinherit+0x84>)
 800f69c:	4b06      	ldr	r3, [pc, #24]	; (800f6b8 <xTaskPriorityDisinherit+0x88>)
 800f69e:	e7e3      	b.n	800f668 <xTaskPriorityDisinherit+0x38>
 800f6a0:	4b05      	ldr	r3, [pc, #20]	; (800f6b8 <xTaskPriorityDisinherit+0x88>)
 800f6a2:	2201      	movs	r2, #1
 800f6a4:	6819      	ldr	r1, [r3, #0]
 800f6a6:	fa02 f006 	lsl.w	r0, r2, r6
 800f6aa:	ea21 0600 	bic.w	r6, r1, r0
 800f6ae:	601e      	str	r6, [r3, #0]
 800f6b0:	e7da      	b.n	800f668 <xTaskPriorityDisinherit+0x38>
 800f6b2:	bf00      	nop
 800f6b4:	10000978 	.word	0x10000978
 800f6b8:	10000a38 	.word	0x10000a38

0800f6bc <pvTaskIncrementMutexHeldCount>:
 800f6bc:	4b04      	ldr	r3, [pc, #16]	; (800f6d0 <pvTaskIncrementMutexHeldCount+0x14>)
 800f6be:	681a      	ldr	r2, [r3, #0]
 800f6c0:	b11a      	cbz	r2, 800f6ca <pvTaskIncrementMutexHeldCount+0xe>
 800f6c2:	6818      	ldr	r0, [r3, #0]
 800f6c4:	6cc1      	ldr	r1, [r0, #76]	; 0x4c
 800f6c6:	1c4a      	adds	r2, r1, #1
 800f6c8:	64c2      	str	r2, [r0, #76]	; 0x4c
 800f6ca:	6818      	ldr	r0, [r3, #0]
 800f6cc:	4770      	bx	lr
 800f6ce:	bf00      	nop
 800f6d0:	100009e0 	.word	0x100009e0

0800f6d4 <prvUnlockQueue>:
 800f6d4:	b538      	push	{r3, r4, r5, lr}
 800f6d6:	4604      	mov	r4, r0
 800f6d8:	f000 ff54 	bl	8010584 <vPortEnterCritical>
 800f6dc:	6ca3      	ldr	r3, [r4, #72]	; 0x48
 800f6de:	2b00      	cmp	r3, #0
 800f6e0:	dd14      	ble.n	800f70c <prvUnlockQueue+0x38>
 800f6e2:	6a60      	ldr	r0, [r4, #36]	; 0x24
 800f6e4:	b190      	cbz	r0, 800f70c <prvUnlockQueue+0x38>
 800f6e6:	f104 0524 	add.w	r5, r4, #36	; 0x24
 800f6ea:	e007      	b.n	800f6fc <prvUnlockQueue+0x28>
 800f6ec:	6ca1      	ldr	r1, [r4, #72]	; 0x48
 800f6ee:	1e4a      	subs	r2, r1, #1
 800f6f0:	64a2      	str	r2, [r4, #72]	; 0x48
 800f6f2:	6ca3      	ldr	r3, [r4, #72]	; 0x48
 800f6f4:	2b00      	cmp	r3, #0
 800f6f6:	dd09      	ble.n	800f70c <prvUnlockQueue+0x38>
 800f6f8:	6a60      	ldr	r0, [r4, #36]	; 0x24
 800f6fa:	b138      	cbz	r0, 800f70c <prvUnlockQueue+0x38>
 800f6fc:	4628      	mov	r0, r5
 800f6fe:	f7ff feb1 	bl	800f464 <xTaskRemoveFromEventList>
 800f702:	2800      	cmp	r0, #0
 800f704:	d0f2      	beq.n	800f6ec <prvUnlockQueue+0x18>
 800f706:	f7ff ff31 	bl	800f56c <vTaskMissedYield>
 800f70a:	e7ef      	b.n	800f6ec <prvUnlockQueue+0x18>
 800f70c:	f04f 31ff 	mov.w	r1, #4294967295
 800f710:	64a1      	str	r1, [r4, #72]	; 0x48
 800f712:	f000 ff63 	bl	80105dc <vPortExitCritical>
 800f716:	f000 ff35 	bl	8010584 <vPortEnterCritical>
 800f71a:	6c62      	ldr	r2, [r4, #68]	; 0x44
 800f71c:	2a00      	cmp	r2, #0
 800f71e:	dd14      	ble.n	800f74a <prvUnlockQueue+0x76>
 800f720:	6923      	ldr	r3, [r4, #16]
 800f722:	b193      	cbz	r3, 800f74a <prvUnlockQueue+0x76>
 800f724:	f104 0510 	add.w	r5, r4, #16
 800f728:	e007      	b.n	800f73a <prvUnlockQueue+0x66>
 800f72a:	6c60      	ldr	r0, [r4, #68]	; 0x44
 800f72c:	1e41      	subs	r1, r0, #1
 800f72e:	6461      	str	r1, [r4, #68]	; 0x44
 800f730:	6c62      	ldr	r2, [r4, #68]	; 0x44
 800f732:	2a00      	cmp	r2, #0
 800f734:	dd09      	ble.n	800f74a <prvUnlockQueue+0x76>
 800f736:	6923      	ldr	r3, [r4, #16]
 800f738:	b13b      	cbz	r3, 800f74a <prvUnlockQueue+0x76>
 800f73a:	4628      	mov	r0, r5
 800f73c:	f7ff fe92 	bl	800f464 <xTaskRemoveFromEventList>
 800f740:	2800      	cmp	r0, #0
 800f742:	d0f2      	beq.n	800f72a <prvUnlockQueue+0x56>
 800f744:	f7ff ff12 	bl	800f56c <vTaskMissedYield>
 800f748:	e7ef      	b.n	800f72a <prvUnlockQueue+0x56>
 800f74a:	f04f 30ff 	mov.w	r0, #4294967295
 800f74e:	6460      	str	r0, [r4, #68]	; 0x44
 800f750:	e8bd 4038 	ldmia.w	sp!, {r3, r4, r5, lr}
 800f754:	f000 bf42 	b.w	80105dc <vPortExitCritical>

0800f758 <prvCopyDataFromQueue>:
 800f758:	6c02      	ldr	r2, [r0, #64]	; 0x40
 800f75a:	b410      	push	{r4}
 800f75c:	4603      	mov	r3, r0
 800f75e:	b16a      	cbz	r2, 800f77c <prvCopyDataFromQueue+0x24>
 800f760:	68c4      	ldr	r4, [r0, #12]
 800f762:	6840      	ldr	r0, [r0, #4]
 800f764:	18a4      	adds	r4, r4, r2
 800f766:	4284      	cmp	r4, r0
 800f768:	bf28      	it	cs
 800f76a:	6818      	ldrcs	r0, [r3, #0]
 800f76c:	60dc      	str	r4, [r3, #12]
 800f76e:	bf28      	it	cs
 800f770:	60d8      	strcs	r0, [r3, #12]
 800f772:	4608      	mov	r0, r1
 800f774:	68d9      	ldr	r1, [r3, #12]
 800f776:	bc10      	pop	{r4}
 800f778:	f001 bba0 	b.w	8010ebc <memcpy>
 800f77c:	bc10      	pop	{r4}
 800f77e:	4770      	bx	lr

0800f780 <xQueueGenericCreate>:
 800f780:	b5f8      	push	{r3, r4, r5, r6, r7, lr}
 800f782:	4605      	mov	r5, r0
 800f784:	460e      	mov	r6, r1
 800f786:	4617      	mov	r7, r2
 800f788:	2800      	cmp	r0, #0
 800f78a:	d031      	beq.n	800f7f0 <xQueueGenericCreate+0x70>
 800f78c:	2054      	movs	r0, #84	; 0x54
 800f78e:	f001 f80b 	bl	80107a8 <pvPortMalloc>
 800f792:	4604      	mov	r4, r0
 800f794:	b360      	cbz	r0, 800f7f0 <xQueueGenericCreate+0x70>
 800f796:	fb05 f006 	mul.w	r0, r5, r6
 800f79a:	3001      	adds	r0, #1
 800f79c:	f001 f804 	bl	80107a8 <pvPortMalloc>
 800f7a0:	6020      	str	r0, [r4, #0]
 800f7a2:	b310      	cbz	r0, 800f7ea <xQueueGenericCreate+0x6a>
 800f7a4:	63e5      	str	r5, [r4, #60]	; 0x3c
 800f7a6:	6426      	str	r6, [r4, #64]	; 0x40
 800f7a8:	f000 feec 	bl	8010584 <vPortEnterCritical>
 800f7ac:	6be2      	ldr	r2, [r4, #60]	; 0x3c
 800f7ae:	6823      	ldr	r3, [r4, #0]
 800f7b0:	6c21      	ldr	r1, [r4, #64]	; 0x40
 800f7b2:	60a3      	str	r3, [r4, #8]
 800f7b4:	1e55      	subs	r5, r2, #1
 800f7b6:	2000      	movs	r0, #0
 800f7b8:	fb02 3201 	mla	r2, r2, r1, r3
 800f7bc:	fb01 3305 	mla	r3, r1, r5, r3
 800f7c0:	f04f 31ff 	mov.w	r1, #4294967295
 800f7c4:	63a0      	str	r0, [r4, #56]	; 0x38
 800f7c6:	6062      	str	r2, [r4, #4]
 800f7c8:	6461      	str	r1, [r4, #68]	; 0x44
 800f7ca:	60e3      	str	r3, [r4, #12]
 800f7cc:	64a1      	str	r1, [r4, #72]	; 0x48
 800f7ce:	f104 0010 	add.w	r0, r4, #16
 800f7d2:	f000 fbb9 	bl	800ff48 <vListInitialise>
 800f7d6:	f104 0024 	add.w	r0, r4, #36	; 0x24
 800f7da:	f000 fbb5 	bl	800ff48 <vListInitialise>
 800f7de:	f000 fefd 	bl	80105dc <vPortExitCritical>
 800f7e2:	f884 7050 	strb.w	r7, [r4, #80]	; 0x50
 800f7e6:	4620      	mov	r0, r4
 800f7e8:	bdf8      	pop	{r3, r4, r5, r6, r7, pc}
 800f7ea:	4620      	mov	r0, r4
 800f7ec:	f000 ffee 	bl	80107cc <vPortFree>
 800f7f0:	f000 fec0 	bl	8010574 <ulPortSetInterruptMask>
 800f7f4:	e7fe      	b.n	800f7f4 <xQueueGenericCreate+0x74>
 800f7f6:	bf00      	nop

0800f7f8 <xQueueGenericSend>:
 800f7f8:	e92d 4ff0 	stmdb	sp!, {r4, r5, r6, r7, r8, r9, sl, fp, lr}
 800f7fc:	b085      	sub	sp, #20
 800f7fe:	4604      	mov	r4, r0
 800f800:	4689      	mov	r9, r1
 800f802:	9201      	str	r2, [sp, #4]
 800f804:	461f      	mov	r7, r3
 800f806:	2800      	cmp	r0, #0
 800f808:	f000 80e6 	beq.w	800f9d8 <xQueueGenericSend+0x1e0>
 800f80c:	2900      	cmp	r1, #0
 800f80e:	f000 8132 	beq.w	800fa76 <xQueueGenericSend+0x27e>
 800f812:	2f02      	cmp	r7, #2
 800f814:	d057      	beq.n	800f8c6 <xQueueGenericSend+0xce>
 800f816:	f7ff feb1 	bl	800f57c <xTaskGetSchedulerState>
 800f81a:	b918      	cbnz	r0, 800f824 <xQueueGenericSend+0x2c>
 800f81c:	9901      	ldr	r1, [sp, #4]
 800f81e:	2900      	cmp	r1, #0
 800f820:	f040 810e 	bne.w	800fa40 <xQueueGenericSend+0x248>
 800f824:	f000 feae 	bl	8010584 <vPortEnterCritical>
 800f828:	6ba2      	ldr	r2, [r4, #56]	; 0x38
 800f82a:	6be3      	ldr	r3, [r4, #60]	; 0x3c
 800f82c:	429a      	cmp	r2, r3
 800f82e:	f04f 0b00 	mov.w	fp, #0
 800f832:	f04f 0a00 	mov.w	sl, #0
 800f836:	f104 0510 	add.w	r5, r4, #16
 800f83a:	f104 0624 	add.w	r6, r4, #36	; 0x24
 800f83e:	f04f 38ff 	mov.w	r8, #4294967295
 800f842:	d370      	bcc.n	800f926 <xQueueGenericSend+0x12e>
 800f844:	2f02      	cmp	r7, #2
 800f846:	f000 80d8 	beq.w	800f9fa <xQueueGenericSend+0x202>
 800f84a:	9801      	ldr	r0, [sp, #4]
 800f84c:	2800      	cmp	r0, #0
 800f84e:	f000 80cf 	beq.w	800f9f0 <xQueueGenericSend+0x1f8>
 800f852:	f1bb 0f00 	cmp.w	fp, #0
 800f856:	d07a      	beq.n	800f94e <xQueueGenericSend+0x156>
 800f858:	f000 fec0 	bl	80105dc <vPortExitCritical>
 800f85c:	f7ff fb9c 	bl	800ef98 <vTaskSuspendAll>
 800f860:	f000 fe90 	bl	8010584 <vPortEnterCritical>
 800f864:	6c61      	ldr	r1, [r4, #68]	; 0x44
 800f866:	1c4b      	adds	r3, r1, #1
 800f868:	bf08      	it	eq
 800f86a:	f8c4 a044 	streq.w	sl, [r4, #68]	; 0x44
 800f86e:	6ca2      	ldr	r2, [r4, #72]	; 0x48
 800f870:	1c53      	adds	r3, r2, #1
 800f872:	bf08      	it	eq
 800f874:	f8c4 a048 	streq.w	sl, [r4, #72]	; 0x48
 800f878:	f000 feb0 	bl	80105dc <vPortExitCritical>
 800f87c:	a802      	add	r0, sp, #8
 800f87e:	a901      	add	r1, sp, #4
 800f880:	f7ff fe42 	bl	800f508 <xTaskCheckForTimeOut>
 800f884:	2800      	cmp	r0, #0
 800f886:	f040 80aa 	bne.w	800f9de <xQueueGenericSend+0x1e6>
 800f88a:	f000 fe7b 	bl	8010584 <vPortEnterCritical>
 800f88e:	6ba0      	ldr	r0, [r4, #56]	; 0x38
 800f890:	6be3      	ldr	r3, [r4, #60]	; 0x3c
 800f892:	4298      	cmp	r0, r3
 800f894:	d05f      	beq.n	800f956 <xQueueGenericSend+0x15e>
 800f896:	f000 fea1 	bl	80105dc <vPortExitCritical>
 800f89a:	f000 fe73 	bl	8010584 <vPortEnterCritical>
 800f89e:	6ca1      	ldr	r1, [r4, #72]	; 0x48
 800f8a0:	2900      	cmp	r1, #0
 800f8a2:	dc06      	bgt.n	800f8b2 <xQueueGenericSend+0xba>
 800f8a4:	e015      	b.n	800f8d2 <xQueueGenericSend+0xda>
 800f8a6:	6ca0      	ldr	r0, [r4, #72]	; 0x48
 800f8a8:	1e43      	subs	r3, r0, #1
 800f8aa:	64a3      	str	r3, [r4, #72]	; 0x48
 800f8ac:	6ca1      	ldr	r1, [r4, #72]	; 0x48
 800f8ae:	2900      	cmp	r1, #0
 800f8b0:	dd0f      	ble.n	800f8d2 <xQueueGenericSend+0xda>
 800f8b2:	6a62      	ldr	r2, [r4, #36]	; 0x24
 800f8b4:	b16a      	cbz	r2, 800f8d2 <xQueueGenericSend+0xda>
 800f8b6:	4630      	mov	r0, r6
 800f8b8:	f7ff fdd4 	bl	800f464 <xTaskRemoveFromEventList>
 800f8bc:	2800      	cmp	r0, #0
 800f8be:	d0f2      	beq.n	800f8a6 <xQueueGenericSend+0xae>
 800f8c0:	f7ff fe54 	bl	800f56c <vTaskMissedYield>
 800f8c4:	e7ef      	b.n	800f8a6 <xQueueGenericSend+0xae>
 800f8c6:	6be0      	ldr	r0, [r4, #60]	; 0x3c
 800f8c8:	2801      	cmp	r0, #1
 800f8ca:	d0a4      	beq.n	800f816 <xQueueGenericSend+0x1e>
 800f8cc:	f000 fe52 	bl	8010574 <ulPortSetInterruptMask>
 800f8d0:	e7fe      	b.n	800f8d0 <xQueueGenericSend+0xd8>
 800f8d2:	f8c4 8048 	str.w	r8, [r4, #72]	; 0x48
 800f8d6:	f000 fe81 	bl	80105dc <vPortExitCritical>
 800f8da:	f000 fe53 	bl	8010584 <vPortEnterCritical>
 800f8de:	6c62      	ldr	r2, [r4, #68]	; 0x44
 800f8e0:	2a00      	cmp	r2, #0
 800f8e2:	dd12      	ble.n	800f90a <xQueueGenericSend+0x112>
 800f8e4:	6920      	ldr	r0, [r4, #16]
 800f8e6:	b940      	cbnz	r0, 800f8fa <xQueueGenericSend+0x102>
 800f8e8:	e00f      	b.n	800f90a <xQueueGenericSend+0x112>
 800f8ea:	6c63      	ldr	r3, [r4, #68]	; 0x44
 800f8ec:	1e59      	subs	r1, r3, #1
 800f8ee:	6461      	str	r1, [r4, #68]	; 0x44
 800f8f0:	6c62      	ldr	r2, [r4, #68]	; 0x44
 800f8f2:	2a00      	cmp	r2, #0
 800f8f4:	dd09      	ble.n	800f90a <xQueueGenericSend+0x112>
 800f8f6:	6920      	ldr	r0, [r4, #16]
 800f8f8:	b138      	cbz	r0, 800f90a <xQueueGenericSend+0x112>
 800f8fa:	4628      	mov	r0, r5
 800f8fc:	f7ff fdb2 	bl	800f464 <xTaskRemoveFromEventList>
 800f900:	2800      	cmp	r0, #0
 800f902:	d0f2      	beq.n	800f8ea <xQueueGenericSend+0xf2>
 800f904:	f7ff fe32 	bl	800f56c <vTaskMissedYield>
 800f908:	e7ef      	b.n	800f8ea <xQueueGenericSend+0xf2>
 800f90a:	f8c4 8044 	str.w	r8, [r4, #68]	; 0x44
 800f90e:	f000 fe65 	bl	80105dc <vPortExitCritical>
 800f912:	f7ff fc09 	bl	800f128 <xTaskResumeAll>
 800f916:	f000 fe35 	bl	8010584 <vPortEnterCritical>
 800f91a:	6ba2      	ldr	r2, [r4, #56]	; 0x38
 800f91c:	6be3      	ldr	r3, [r4, #60]	; 0x3c
 800f91e:	429a      	cmp	r2, r3
 800f920:	f04f 0b01 	mov.w	fp, #1
 800f924:	d28e      	bcs.n	800f844 <xQueueGenericSend+0x4c>
 800f926:	6c22      	ldr	r2, [r4, #64]	; 0x40
 800f928:	2a00      	cmp	r2, #0
 800f92a:	d068      	beq.n	800f9fe <xQueueGenericSend+0x206>
 800f92c:	2f00      	cmp	r7, #0
 800f92e:	f040 808a 	bne.w	800fa46 <xQueueGenericSend+0x24e>
 800f932:	4649      	mov	r1, r9
 800f934:	68a0      	ldr	r0, [r4, #8]
 800f936:	f001 fac1 	bl	8010ebc <memcpy>
 800f93a:	68a1      	ldr	r1, [r4, #8]
 800f93c:	6c23      	ldr	r3, [r4, #64]	; 0x40
 800f93e:	6860      	ldr	r0, [r4, #4]
 800f940:	18ca      	adds	r2, r1, r3
 800f942:	4282      	cmp	r2, r0
 800f944:	60a2      	str	r2, [r4, #8]
 800f946:	d35c      	bcc.n	800fa02 <xQueueGenericSend+0x20a>
 800f948:	6821      	ldr	r1, [r4, #0]
 800f94a:	60a1      	str	r1, [r4, #8]
 800f94c:	e059      	b.n	800fa02 <xQueueGenericSend+0x20a>
 800f94e:	a802      	add	r0, sp, #8
 800f950:	f7ff fdca 	bl	800f4e8 <vTaskSetTimeOutState>
 800f954:	e780      	b.n	800f858 <xQueueGenericSend+0x60>
 800f956:	f000 fe41 	bl	80105dc <vPortExitCritical>
 800f95a:	4628      	mov	r0, r5
 800f95c:	9901      	ldr	r1, [sp, #4]
 800f95e:	f7ff fced 	bl	800f33c <vTaskPlaceOnEventList>
 800f962:	f000 fe0f 	bl	8010584 <vPortEnterCritical>
 800f966:	6ca3      	ldr	r3, [r4, #72]	; 0x48
 800f968:	2b00      	cmp	r3, #0
 800f96a:	dc06      	bgt.n	800f97a <xQueueGenericSend+0x182>
 800f96c:	e00f      	b.n	800f98e <xQueueGenericSend+0x196>
 800f96e:	6ca2      	ldr	r2, [r4, #72]	; 0x48
 800f970:	1e50      	subs	r0, r2, #1
 800f972:	64a0      	str	r0, [r4, #72]	; 0x48
 800f974:	6ca3      	ldr	r3, [r4, #72]	; 0x48
 800f976:	2b00      	cmp	r3, #0
 800f978:	dd09      	ble.n	800f98e <xQueueGenericSend+0x196>
 800f97a:	6a61      	ldr	r1, [r4, #36]	; 0x24
 800f97c:	b139      	cbz	r1, 800f98e <xQueueGenericSend+0x196>
 800f97e:	4630      	mov	r0, r6
 800f980:	f7ff fd70 	bl	800f464 <xTaskRemoveFromEventList>
 800f984:	2800      	cmp	r0, #0
 800f986:	d0f2      	beq.n	800f96e <xQueueGenericSend+0x176>
 800f988:	f7ff fdf0 	bl	800f56c <vTaskMissedYield>
 800f98c:	e7ef      	b.n	800f96e <xQueueGenericSend+0x176>
 800f98e:	f8c4 8048 	str.w	r8, [r4, #72]	; 0x48
 800f992:	f000 fe23 	bl	80105dc <vPortExitCritical>
 800f996:	f000 fdf5 	bl	8010584 <vPortEnterCritical>
 800f99a:	6c61      	ldr	r1, [r4, #68]	; 0x44
 800f99c:	2900      	cmp	r1, #0
 800f99e:	dc06      	bgt.n	800f9ae <xQueueGenericSend+0x1b6>
 800f9a0:	e00f      	b.n	800f9c2 <xQueueGenericSend+0x1ca>
 800f9a2:	6c60      	ldr	r0, [r4, #68]	; 0x44
 800f9a4:	1e43      	subs	r3, r0, #1
 800f9a6:	6463      	str	r3, [r4, #68]	; 0x44
 800f9a8:	6c61      	ldr	r1, [r4, #68]	; 0x44
 800f9aa:	2900      	cmp	r1, #0
 800f9ac:	dd09      	ble.n	800f9c2 <xQueueGenericSend+0x1ca>
 800f9ae:	6922      	ldr	r2, [r4, #16]
 800f9b0:	b13a      	cbz	r2, 800f9c2 <xQueueGenericSend+0x1ca>
 800f9b2:	4628      	mov	r0, r5
 800f9b4:	f7ff fd56 	bl	800f464 <xTaskRemoveFromEventList>
 800f9b8:	2800      	cmp	r0, #0
 800f9ba:	d0f2      	beq.n	800f9a2 <xQueueGenericSend+0x1aa>
 800f9bc:	f7ff fdd6 	bl	800f56c <vTaskMissedYield>
 800f9c0:	e7ef      	b.n	800f9a2 <xQueueGenericSend+0x1aa>
 800f9c2:	f8c4 8044 	str.w	r8, [r4, #68]	; 0x44
 800f9c6:	f000 fe09 	bl	80105dc <vPortExitCritical>
 800f9ca:	f7ff fbad 	bl	800f128 <xTaskResumeAll>
 800f9ce:	2800      	cmp	r0, #0
 800f9d0:	d1a1      	bne.n	800f916 <xQueueGenericSend+0x11e>
 800f9d2:	f000 fdc3 	bl	801055c <vPortYield>
 800f9d6:	e79e      	b.n	800f916 <xQueueGenericSend+0x11e>
 800f9d8:	f000 fdcc 	bl	8010574 <ulPortSetInterruptMask>
 800f9dc:	e7fe      	b.n	800f9dc <xQueueGenericSend+0x1e4>
 800f9de:	4620      	mov	r0, r4
 800f9e0:	f7ff fe78 	bl	800f6d4 <prvUnlockQueue>
 800f9e4:	f7ff fba0 	bl	800f128 <xTaskResumeAll>
 800f9e8:	2000      	movs	r0, #0
 800f9ea:	b005      	add	sp, #20
 800f9ec:	e8bd 8ff0 	ldmia.w	sp!, {r4, r5, r6, r7, r8, r9, sl, fp, pc}
 800f9f0:	9000      	str	r0, [sp, #0]
 800f9f2:	f000 fdf3 	bl	80105dc <vPortExitCritical>
 800f9f6:	9800      	ldr	r0, [sp, #0]
 800f9f8:	e7f7      	b.n	800f9ea <xQueueGenericSend+0x1f2>
 800f9fa:	6c22      	ldr	r2, [r4, #64]	; 0x40
 800f9fc:	bb1a      	cbnz	r2, 800fa46 <xQueueGenericSend+0x24e>
 800f9fe:	6825      	ldr	r5, [r4, #0]
 800fa00:	b17d      	cbz	r5, 800fa22 <xQueueGenericSend+0x22a>
 800fa02:	6ba0      	ldr	r0, [r4, #56]	; 0x38
 800fa04:	6a63      	ldr	r3, [r4, #36]	; 0x24
 800fa06:	1c42      	adds	r2, r0, #1
 800fa08:	63a2      	str	r2, [r4, #56]	; 0x38
 800fa0a:	b91b      	cbnz	r3, 800fa14 <xQueueGenericSend+0x21c>
 800fa0c:	f000 fde6 	bl	80105dc <vPortExitCritical>
 800fa10:	2001      	movs	r0, #1
 800fa12:	e7ea      	b.n	800f9ea <xQueueGenericSend+0x1f2>
 800fa14:	f104 0024 	add.w	r0, r4, #36	; 0x24
 800fa18:	f7ff fd24 	bl	800f464 <xTaskRemoveFromEventList>
 800fa1c:	2801      	cmp	r0, #1
 800fa1e:	d1f5      	bne.n	800fa0c <xQueueGenericSend+0x214>
 800fa20:	e00b      	b.n	800fa3a <xQueueGenericSend+0x242>
 800fa22:	6860      	ldr	r0, [r4, #4]
 800fa24:	f7ff fe04 	bl	800f630 <xTaskPriorityDisinherit>
 800fa28:	6ba1      	ldr	r1, [r4, #56]	; 0x38
 800fa2a:	6a63      	ldr	r3, [r4, #36]	; 0x24
 800fa2c:	6065      	str	r5, [r4, #4]
 800fa2e:	1c4a      	adds	r2, r1, #1
 800fa30:	63a2      	str	r2, [r4, #56]	; 0x38
 800fa32:	2b00      	cmp	r3, #0
 800fa34:	d1ee      	bne.n	800fa14 <xQueueGenericSend+0x21c>
 800fa36:	2800      	cmp	r0, #0
 800fa38:	d0e8      	beq.n	800fa0c <xQueueGenericSend+0x214>
 800fa3a:	f000 fd8f 	bl	801055c <vPortYield>
 800fa3e:	e7e5      	b.n	800fa0c <xQueueGenericSend+0x214>
 800fa40:	f000 fd98 	bl	8010574 <ulPortSetInterruptMask>
 800fa44:	e7fe      	b.n	800fa44 <xQueueGenericSend+0x24c>
 800fa46:	4649      	mov	r1, r9
 800fa48:	68e0      	ldr	r0, [r4, #12]
 800fa4a:	f001 fa37 	bl	8010ebc <memcpy>
 800fa4e:	6c20      	ldr	r0, [r4, #64]	; 0x40
 800fa50:	68e2      	ldr	r2, [r4, #12]
 800fa52:	6821      	ldr	r1, [r4, #0]
 800fa54:	4243      	negs	r3, r0
 800fa56:	18d0      	adds	r0, r2, r3
 800fa58:	4288      	cmp	r0, r1
 800fa5a:	60e0      	str	r0, [r4, #12]
 800fa5c:	d202      	bcs.n	800fa64 <xQueueGenericSend+0x26c>
 800fa5e:	6862      	ldr	r2, [r4, #4]
 800fa60:	18d1      	adds	r1, r2, r3
 800fa62:	60e1      	str	r1, [r4, #12]
 800fa64:	2f02      	cmp	r7, #2
 800fa66:	d1cc      	bne.n	800fa02 <xQueueGenericSend+0x20a>
 800fa68:	6ba3      	ldr	r3, [r4, #56]	; 0x38
 800fa6a:	2b00      	cmp	r3, #0
 800fa6c:	d0c9      	beq.n	800fa02 <xQueueGenericSend+0x20a>
 800fa6e:	6ba0      	ldr	r0, [r4, #56]	; 0x38
 800fa70:	1e42      	subs	r2, r0, #1
 800fa72:	63a2      	str	r2, [r4, #56]	; 0x38
 800fa74:	e7c5      	b.n	800fa02 <xQueueGenericSend+0x20a>
 800fa76:	6c03      	ldr	r3, [r0, #64]	; 0x40
 800fa78:	2b00      	cmp	r3, #0
 800fa7a:	f43f aeca 	beq.w	800f812 <xQueueGenericSend+0x1a>
 800fa7e:	f000 fd79 	bl	8010574 <ulPortSetInterruptMask>
 800fa82:	e7fe      	b.n	800fa82 <xQueueGenericSend+0x28a>

0800fa84 <xQueueGenericSendFromISR>:
 800fa84:	e92d 41f0 	stmdb	sp!, {r4, r5, r6, r7, r8, lr}
 800fa88:	4604      	mov	r4, r0
 800fa8a:	460f      	mov	r7, r1
 800fa8c:	4615      	mov	r5, r2
 800fa8e:	461e      	mov	r6, r3
 800fa90:	b358      	cbz	r0, 800faea <xQueueGenericSendFromISR+0x66>
 800fa92:	2900      	cmp	r1, #0
 800fa94:	d06b      	beq.n	800fb6e <xQueueGenericSendFromISR+0xea>
 800fa96:	2e02      	cmp	r6, #2
 800fa98:	d00a      	beq.n	800fab0 <xQueueGenericSendFromISR+0x2c>
 800fa9a:	f000 fe61 	bl	8010760 <vPortValidateInterruptPriority>
 800fa9e:	f000 fd69 	bl	8010574 <ulPortSetInterruptMask>
 800faa2:	6ba2      	ldr	r2, [r4, #56]	; 0x38
 800faa4:	6be1      	ldr	r1, [r4, #60]	; 0x3c
 800faa6:	4291      	cmp	r1, r2
 800faa8:	4680      	mov	r8, r0
 800faaa:	d807      	bhi.n	800fabc <xQueueGenericSendFromISR+0x38>
 800faac:	2400      	movs	r4, #0
 800faae:	e037      	b.n	800fb20 <xQueueGenericSendFromISR+0x9c>
 800fab0:	6be0      	ldr	r0, [r4, #60]	; 0x3c
 800fab2:	2801      	cmp	r0, #1
 800fab4:	d03a      	beq.n	800fb2c <xQueueGenericSendFromISR+0xa8>
 800fab6:	f000 fd5d 	bl	8010574 <ulPortSetInterruptMask>
 800faba:	e7fe      	b.n	800faba <xQueueGenericSendFromISR+0x36>
 800fabc:	6c22      	ldr	r2, [r4, #64]	; 0x40
 800fabe:	b9ba      	cbnz	r2, 800faf0 <xQueueGenericSendFromISR+0x6c>
 800fac0:	6826      	ldr	r6, [r4, #0]
 800fac2:	bb1e      	cbnz	r6, 800fb0c <xQueueGenericSendFromISR+0x88>
 800fac4:	6860      	ldr	r0, [r4, #4]
 800fac6:	f7ff fdb3 	bl	800f630 <xTaskPriorityDisinherit>
 800faca:	6ba1      	ldr	r1, [r4, #56]	; 0x38
 800facc:	6066      	str	r6, [r4, #4]
 800face:	1c4b      	adds	r3, r1, #1
 800fad0:	63a3      	str	r3, [r4, #56]	; 0x38
 800fad2:	b1f0      	cbz	r0, 800fb12 <xQueueGenericSendFromISR+0x8e>
 800fad4:	b1ed      	cbz	r5, 800fb12 <xQueueGenericSendFromISR+0x8e>
 800fad6:	2001      	movs	r0, #1
 800fad8:	6028      	str	r0, [r5, #0]
 800fada:	6ca2      	ldr	r2, [r4, #72]	; 0x48
 800fadc:	1c53      	adds	r3, r2, #1
 800fade:	d11b      	bne.n	800fb18 <xQueueGenericSendFromISR+0x94>
 800fae0:	6a60      	ldr	r0, [r4, #36]	; 0x24
 800fae2:	2800      	cmp	r0, #0
 800fae4:	d149      	bne.n	800fb7a <xQueueGenericSendFromISR+0xf6>
 800fae6:	2401      	movs	r4, #1
 800fae8:	e01a      	b.n	800fb20 <xQueueGenericSendFromISR+0x9c>
 800faea:	f000 fd43 	bl	8010574 <ulPortSetInterruptMask>
 800faee:	e7fe      	b.n	800faee <xQueueGenericSendFromISR+0x6a>
 800faf0:	bb2e      	cbnz	r6, 800fb3e <xQueueGenericSendFromISR+0xba>
 800faf2:	4639      	mov	r1, r7
 800faf4:	68a0      	ldr	r0, [r4, #8]
 800faf6:	f001 f9e1 	bl	8010ebc <memcpy>
 800fafa:	68a1      	ldr	r1, [r4, #8]
 800fafc:	6c23      	ldr	r3, [r4, #64]	; 0x40
 800fafe:	6862      	ldr	r2, [r4, #4]
 800fb00:	18c8      	adds	r0, r1, r3
 800fb02:	4290      	cmp	r0, r2
 800fb04:	60a0      	str	r0, [r4, #8]
 800fb06:	d301      	bcc.n	800fb0c <xQueueGenericSendFromISR+0x88>
 800fb08:	6821      	ldr	r1, [r4, #0]
 800fb0a:	60a1      	str	r1, [r4, #8]
 800fb0c:	6ba3      	ldr	r3, [r4, #56]	; 0x38
 800fb0e:	1c5a      	adds	r2, r3, #1
 800fb10:	63a2      	str	r2, [r4, #56]	; 0x38
 800fb12:	6ca2      	ldr	r2, [r4, #72]	; 0x48
 800fb14:	1c53      	adds	r3, r2, #1
 800fb16:	d0e3      	beq.n	800fae0 <xQueueGenericSendFromISR+0x5c>
 800fb18:	6ca1      	ldr	r1, [r4, #72]	; 0x48
 800fb1a:	1c4b      	adds	r3, r1, #1
 800fb1c:	64a3      	str	r3, [r4, #72]	; 0x48
 800fb1e:	2401      	movs	r4, #1
 800fb20:	4640      	mov	r0, r8
 800fb22:	f000 fd57 	bl	80105d4 <vPortClearInterruptMask>
 800fb26:	4620      	mov	r0, r4
 800fb28:	e8bd 81f0 	ldmia.w	sp!, {r4, r5, r6, r7, r8, pc}
 800fb2c:	f000 fe18 	bl	8010760 <vPortValidateInterruptPriority>
 800fb30:	f000 fd20 	bl	8010574 <ulPortSetInterruptMask>
 800fb34:	6ba2      	ldr	r2, [r4, #56]	; 0x38
 800fb36:	6c22      	ldr	r2, [r4, #64]	; 0x40
 800fb38:	4680      	mov	r8, r0
 800fb3a:	2a00      	cmp	r2, #0
 800fb3c:	d0c0      	beq.n	800fac0 <xQueueGenericSendFromISR+0x3c>
 800fb3e:	4639      	mov	r1, r7
 800fb40:	68e0      	ldr	r0, [r4, #12]
 800fb42:	f001 f9bb 	bl	8010ebc <memcpy>
 800fb46:	6c23      	ldr	r3, [r4, #64]	; 0x40
 800fb48:	68e0      	ldr	r0, [r4, #12]
 800fb4a:	6821      	ldr	r1, [r4, #0]
 800fb4c:	425b      	negs	r3, r3
 800fb4e:	18c2      	adds	r2, r0, r3
 800fb50:	428a      	cmp	r2, r1
 800fb52:	60e2      	str	r2, [r4, #12]
 800fb54:	d202      	bcs.n	800fb5c <xQueueGenericSendFromISR+0xd8>
 800fb56:	6860      	ldr	r0, [r4, #4]
 800fb58:	18c1      	adds	r1, r0, r3
 800fb5a:	60e1      	str	r1, [r4, #12]
 800fb5c:	2e02      	cmp	r6, #2
 800fb5e:	d1d5      	bne.n	800fb0c <xQueueGenericSendFromISR+0x88>
 800fb60:	6ba3      	ldr	r3, [r4, #56]	; 0x38
 800fb62:	2b00      	cmp	r3, #0
 800fb64:	d0d2      	beq.n	800fb0c <xQueueGenericSendFromISR+0x88>
 800fb66:	6ba2      	ldr	r2, [r4, #56]	; 0x38
 800fb68:	1e50      	subs	r0, r2, #1
 800fb6a:	63a0      	str	r0, [r4, #56]	; 0x38
 800fb6c:	e7ce      	b.n	800fb0c <xQueueGenericSendFromISR+0x88>
 800fb6e:	6c03      	ldr	r3, [r0, #64]	; 0x40
 800fb70:	2b00      	cmp	r3, #0
 800fb72:	d090      	beq.n	800fa96 <xQueueGenericSendFromISR+0x12>
 800fb74:	f000 fcfe 	bl	8010574 <ulPortSetInterruptMask>
 800fb78:	e7fe      	b.n	800fb78 <xQueueGenericSendFromISR+0xf4>
 800fb7a:	f104 0024 	add.w	r0, r4, #36	; 0x24
 800fb7e:	f7ff fc71 	bl	800f464 <xTaskRemoveFromEventList>
 800fb82:	2800      	cmp	r0, #0
 800fb84:	d0af      	beq.n	800fae6 <xQueueGenericSendFromISR+0x62>
 800fb86:	2401      	movs	r4, #1
 800fb88:	2d00      	cmp	r5, #0
 800fb8a:	d0c9      	beq.n	800fb20 <xQueueGenericSendFromISR+0x9c>
 800fb8c:	602c      	str	r4, [r5, #0]
 800fb8e:	e7c7      	b.n	800fb20 <xQueueGenericSendFromISR+0x9c>

0800fb90 <xQueueGenericReceive>:
 800fb90:	e92d 4ff0 	stmdb	sp!, {r4, r5, r6, r7, r8, r9, sl, fp, lr}
 800fb94:	b085      	sub	sp, #20
 800fb96:	4604      	mov	r4, r0
 800fb98:	4688      	mov	r8, r1
 800fb9a:	9201      	str	r2, [sp, #4]
 800fb9c:	469a      	mov	sl, r3
 800fb9e:	2800      	cmp	r0, #0
 800fba0:	f000 80dd 	beq.w	800fd5e <xQueueGenericReceive+0x1ce>
 800fba4:	2900      	cmp	r1, #0
 800fba6:	f000 810a 	beq.w	800fdbe <xQueueGenericReceive+0x22e>
 800fbaa:	f7ff fce7 	bl	800f57c <xTaskGetSchedulerState>
 800fbae:	b918      	cbnz	r0, 800fbb8 <xQueueGenericReceive+0x28>
 800fbb0:	9801      	ldr	r0, [sp, #4]
 800fbb2:	2800      	cmp	r0, #0
 800fbb4:	f040 8100 	bne.w	800fdb8 <xQueueGenericReceive+0x228>
 800fbb8:	f000 fce4 	bl	8010584 <vPortEnterCritical>
 800fbbc:	6ba1      	ldr	r1, [r4, #56]	; 0x38
 800fbbe:	f04f 0b00 	mov.w	fp, #0
 800fbc2:	f04f 0900 	mov.w	r9, #0
 800fbc6:	f104 0524 	add.w	r5, r4, #36	; 0x24
 800fbca:	f04f 37ff 	mov.w	r7, #4294967295
 800fbce:	f104 0610 	add.w	r6, r4, #16
 800fbd2:	2900      	cmp	r1, #0
 800fbd4:	f040 8089 	bne.w	800fcea <xQueueGenericReceive+0x15a>
 800fbd8:	9a01      	ldr	r2, [sp, #4]
 800fbda:	2a00      	cmp	r2, #0
 800fbdc:	f000 80d3 	beq.w	800fd86 <xQueueGenericReceive+0x1f6>
 800fbe0:	f1bb 0f00 	cmp.w	fp, #0
 800fbe4:	f000 80b7 	beq.w	800fd56 <xQueueGenericReceive+0x1c6>
 800fbe8:	f000 fcf8 	bl	80105dc <vPortExitCritical>
 800fbec:	f7ff f9d4 	bl	800ef98 <vTaskSuspendAll>
 800fbf0:	f000 fcc8 	bl	8010584 <vPortEnterCritical>
 800fbf4:	6c63      	ldr	r3, [r4, #68]	; 0x44
 800fbf6:	3301      	adds	r3, #1
 800fbf8:	bf08      	it	eq
 800fbfa:	f8c4 9044 	streq.w	r9, [r4, #68]	; 0x44
 800fbfe:	6ca0      	ldr	r0, [r4, #72]	; 0x48
 800fc00:	1c43      	adds	r3, r0, #1
 800fc02:	bf08      	it	eq
 800fc04:	f8c4 9048 	streq.w	r9, [r4, #72]	; 0x48
 800fc08:	f000 fce8 	bl	80105dc <vPortExitCritical>
 800fc0c:	a802      	add	r0, sp, #8
 800fc0e:	a901      	add	r1, sp, #4
 800fc10:	f7ff fc7a 	bl	800f508 <xTaskCheckForTimeOut>
 800fc14:	2800      	cmp	r0, #0
 800fc16:	f040 80ad 	bne.w	800fd74 <xQueueGenericReceive+0x1e4>
 800fc1a:	f000 fcb3 	bl	8010584 <vPortEnterCritical>
 800fc1e:	6ba1      	ldr	r1, [r4, #56]	; 0x38
 800fc20:	b1c1      	cbz	r1, 800fc54 <xQueueGenericReceive+0xc4>
 800fc22:	f000 fcdb 	bl	80105dc <vPortExitCritical>
 800fc26:	f000 fcad 	bl	8010584 <vPortEnterCritical>
 800fc2a:	6ca2      	ldr	r2, [r4, #72]	; 0x48
 800fc2c:	2a00      	cmp	r2, #0
 800fc2e:	dc06      	bgt.n	800fc3e <xQueueGenericReceive+0xae>
 800fc30:	e072      	b.n	800fd18 <xQueueGenericReceive+0x188>
 800fc32:	6ca0      	ldr	r0, [r4, #72]	; 0x48
 800fc34:	1e41      	subs	r1, r0, #1
 800fc36:	64a1      	str	r1, [r4, #72]	; 0x48
 800fc38:	6ca2      	ldr	r2, [r4, #72]	; 0x48
 800fc3a:	2a00      	cmp	r2, #0
 800fc3c:	dd6c      	ble.n	800fd18 <xQueueGenericReceive+0x188>
 800fc3e:	6a63      	ldr	r3, [r4, #36]	; 0x24
 800fc40:	2b00      	cmp	r3, #0
 800fc42:	d069      	beq.n	800fd18 <xQueueGenericReceive+0x188>
 800fc44:	4628      	mov	r0, r5
 800fc46:	f7ff fc0d 	bl	800f464 <xTaskRemoveFromEventList>
 800fc4a:	2800      	cmp	r0, #0
 800fc4c:	d0f1      	beq.n	800fc32 <xQueueGenericReceive+0xa2>
 800fc4e:	f7ff fc8d 	bl	800f56c <vTaskMissedYield>
 800fc52:	e7ee      	b.n	800fc32 <xQueueGenericReceive+0xa2>
 800fc54:	f000 fcc2 	bl	80105dc <vPortExitCritical>
 800fc58:	6820      	ldr	r0, [r4, #0]
 800fc5a:	2800      	cmp	r0, #0
 800fc5c:	f000 8082 	beq.w	800fd64 <xQueueGenericReceive+0x1d4>
 800fc60:	9901      	ldr	r1, [sp, #4]
 800fc62:	4628      	mov	r0, r5
 800fc64:	f7ff fb6a 	bl	800f33c <vTaskPlaceOnEventList>
 800fc68:	f000 fc8c 	bl	8010584 <vPortEnterCritical>
 800fc6c:	6ca1      	ldr	r1, [r4, #72]	; 0x48
 800fc6e:	2900      	cmp	r1, #0
 800fc70:	dc06      	bgt.n	800fc80 <xQueueGenericReceive+0xf0>
 800fc72:	e00f      	b.n	800fc94 <xQueueGenericReceive+0x104>
 800fc74:	6ca3      	ldr	r3, [r4, #72]	; 0x48
 800fc76:	1e58      	subs	r0, r3, #1
 800fc78:	64a0      	str	r0, [r4, #72]	; 0x48
 800fc7a:	6ca1      	ldr	r1, [r4, #72]	; 0x48
 800fc7c:	2900      	cmp	r1, #0
 800fc7e:	dd09      	ble.n	800fc94 <xQueueGenericReceive+0x104>
 800fc80:	6a62      	ldr	r2, [r4, #36]	; 0x24
 800fc82:	b13a      	cbz	r2, 800fc94 <xQueueGenericReceive+0x104>
 800fc84:	4628      	mov	r0, r5
 800fc86:	f7ff fbed 	bl	800f464 <xTaskRemoveFromEventList>
 800fc8a:	2800      	cmp	r0, #0
 800fc8c:	d0f2      	beq.n	800fc74 <xQueueGenericReceive+0xe4>
 800fc8e:	f7ff fc6d 	bl	800f56c <vTaskMissedYield>
 800fc92:	e7ef      	b.n	800fc74 <xQueueGenericReceive+0xe4>
 800fc94:	64a7      	str	r7, [r4, #72]	; 0x48
 800fc96:	f000 fca1 	bl	80105dc <vPortExitCritical>
 800fc9a:	f000 fc73 	bl	8010584 <vPortEnterCritical>
 800fc9e:	6c62      	ldr	r2, [r4, #68]	; 0x44
 800fca0:	2a00      	cmp	r2, #0
 800fca2:	dd12      	ble.n	800fcca <xQueueGenericReceive+0x13a>
 800fca4:	6923      	ldr	r3, [r4, #16]
 800fca6:	b943      	cbnz	r3, 800fcba <xQueueGenericReceive+0x12a>
 800fca8:	e00f      	b.n	800fcca <xQueueGenericReceive+0x13a>
 800fcaa:	6c60      	ldr	r0, [r4, #68]	; 0x44
 800fcac:	1e41      	subs	r1, r0, #1
 800fcae:	6461      	str	r1, [r4, #68]	; 0x44
 800fcb0:	6c62      	ldr	r2, [r4, #68]	; 0x44
 800fcb2:	2a00      	cmp	r2, #0
 800fcb4:	dd09      	ble.n	800fcca <xQueueGenericReceive+0x13a>
 800fcb6:	6923      	ldr	r3, [r4, #16]
 800fcb8:	b13b      	cbz	r3, 800fcca <xQueueGenericReceive+0x13a>
 800fcba:	4630      	mov	r0, r6
 800fcbc:	f7ff fbd2 	bl	800f464 <xTaskRemoveFromEventList>
 800fcc0:	2800      	cmp	r0, #0
 800fcc2:	d0f2      	beq.n	800fcaa <xQueueGenericReceive+0x11a>
 800fcc4:	f7ff fc52 	bl	800f56c <vTaskMissedYield>
 800fcc8:	e7ef      	b.n	800fcaa <xQueueGenericReceive+0x11a>
 800fcca:	6467      	str	r7, [r4, #68]	; 0x44
 800fccc:	f000 fc86 	bl	80105dc <vPortExitCritical>
 800fcd0:	f7ff fa2a 	bl	800f128 <xTaskResumeAll>
 800fcd4:	b908      	cbnz	r0, 800fcda <xQueueGenericReceive+0x14a>
 800fcd6:	f000 fc41 	bl	801055c <vPortYield>
 800fcda:	f000 fc53 	bl	8010584 <vPortEnterCritical>
 800fcde:	6ba1      	ldr	r1, [r4, #56]	; 0x38
 800fce0:	f04f 0b01 	mov.w	fp, #1
 800fce4:	2900      	cmp	r1, #0
 800fce6:	f43f af77 	beq.w	800fbd8 <xQueueGenericReceive+0x48>
 800fcea:	4620      	mov	r0, r4
 800fcec:	4641      	mov	r1, r8
 800fcee:	68e5      	ldr	r5, [r4, #12]
 800fcf0:	f7ff fd32 	bl	800f758 <prvCopyDataFromQueue>
 800fcf4:	f1ba 0f00 	cmp.w	sl, #0
 800fcf8:	d14a      	bne.n	800fd90 <xQueueGenericReceive+0x200>
 800fcfa:	6ba1      	ldr	r1, [r4, #56]	; 0x38
 800fcfc:	6823      	ldr	r3, [r4, #0]
 800fcfe:	1e4a      	subs	r2, r1, #1
 800fd00:	63a2      	str	r2, [r4, #56]	; 0x38
 800fd02:	b913      	cbnz	r3, 800fd0a <xQueueGenericReceive+0x17a>
 800fd04:	f7ff fcda 	bl	800f6bc <pvTaskIncrementMutexHeldCount>
 800fd08:	6060      	str	r0, [r4, #4]
 800fd0a:	6920      	ldr	r0, [r4, #16]
 800fd0c:	2800      	cmp	r0, #0
 800fd0e:	d14c      	bne.n	800fdaa <xQueueGenericReceive+0x21a>
 800fd10:	f000 fc64 	bl	80105dc <vPortExitCritical>
 800fd14:	2001      	movs	r0, #1
 800fd16:	e033      	b.n	800fd80 <xQueueGenericReceive+0x1f0>
 800fd18:	64a7      	str	r7, [r4, #72]	; 0x48
 800fd1a:	f000 fc5f 	bl	80105dc <vPortExitCritical>
 800fd1e:	f000 fc31 	bl	8010584 <vPortEnterCritical>
 800fd22:	6c63      	ldr	r3, [r4, #68]	; 0x44
 800fd24:	2b00      	cmp	r3, #0
 800fd26:	dc06      	bgt.n	800fd36 <xQueueGenericReceive+0x1a6>
 800fd28:	e00f      	b.n	800fd4a <xQueueGenericReceive+0x1ba>
 800fd2a:	6c61      	ldr	r1, [r4, #68]	; 0x44
 800fd2c:	1e4a      	subs	r2, r1, #1
 800fd2e:	6462      	str	r2, [r4, #68]	; 0x44
 800fd30:	6c63      	ldr	r3, [r4, #68]	; 0x44
 800fd32:	2b00      	cmp	r3, #0
 800fd34:	dd09      	ble.n	800fd4a <xQueueGenericReceive+0x1ba>
 800fd36:	6920      	ldr	r0, [r4, #16]
 800fd38:	b138      	cbz	r0, 800fd4a <xQueueGenericReceive+0x1ba>
 800fd3a:	4630      	mov	r0, r6
 800fd3c:	f7ff fb92 	bl	800f464 <xTaskRemoveFromEventList>
 800fd40:	2800      	cmp	r0, #0
 800fd42:	d0f2      	beq.n	800fd2a <xQueueGenericReceive+0x19a>
 800fd44:	f7ff fc12 	bl	800f56c <vTaskMissedYield>
 800fd48:	e7ef      	b.n	800fd2a <xQueueGenericReceive+0x19a>
 800fd4a:	6467      	str	r7, [r4, #68]	; 0x44
 800fd4c:	f000 fc46 	bl	80105dc <vPortExitCritical>
 800fd50:	f7ff f9ea 	bl	800f128 <xTaskResumeAll>
 800fd54:	e7c1      	b.n	800fcda <xQueueGenericReceive+0x14a>
 800fd56:	a802      	add	r0, sp, #8
 800fd58:	f7ff fbc6 	bl	800f4e8 <vTaskSetTimeOutState>
 800fd5c:	e744      	b.n	800fbe8 <xQueueGenericReceive+0x58>
 800fd5e:	f000 fc09 	bl	8010574 <ulPortSetInterruptMask>
 800fd62:	e7fe      	b.n	800fd62 <xQueueGenericReceive+0x1d2>
 800fd64:	f000 fc0e 	bl	8010584 <vPortEnterCritical>
 800fd68:	6860      	ldr	r0, [r4, #4]
 800fd6a:	f7ff fc17 	bl	800f59c <vTaskPriorityInherit>
 800fd6e:	f000 fc35 	bl	80105dc <vPortExitCritical>
 800fd72:	e775      	b.n	800fc60 <xQueueGenericReceive+0xd0>
 800fd74:	4620      	mov	r0, r4
 800fd76:	f7ff fcad 	bl	800f6d4 <prvUnlockQueue>
 800fd7a:	f7ff f9d5 	bl	800f128 <xTaskResumeAll>
 800fd7e:	2000      	movs	r0, #0
 800fd80:	b005      	add	sp, #20
 800fd82:	e8bd 8ff0 	ldmia.w	sp!, {r4, r5, r6, r7, r8, r9, sl, fp, pc}
 800fd86:	9200      	str	r2, [sp, #0]
 800fd88:	f000 fc28 	bl	80105dc <vPortExitCritical>
 800fd8c:	9800      	ldr	r0, [sp, #0]
 800fd8e:	e7f7      	b.n	800fd80 <xQueueGenericReceive+0x1f0>
 800fd90:	6a60      	ldr	r0, [r4, #36]	; 0x24
 800fd92:	60e5      	str	r5, [r4, #12]
 800fd94:	2800      	cmp	r0, #0
 800fd96:	d0bb      	beq.n	800fd10 <xQueueGenericReceive+0x180>
 800fd98:	f104 0024 	add.w	r0, r4, #36	; 0x24
 800fd9c:	f7ff fb62 	bl	800f464 <xTaskRemoveFromEventList>
 800fda0:	2800      	cmp	r0, #0
 800fda2:	d0b5      	beq.n	800fd10 <xQueueGenericReceive+0x180>
 800fda4:	f000 fbda 	bl	801055c <vPortYield>
 800fda8:	e7b2      	b.n	800fd10 <xQueueGenericReceive+0x180>
 800fdaa:	f104 0010 	add.w	r0, r4, #16
 800fdae:	f7ff fb59 	bl	800f464 <xTaskRemoveFromEventList>
 800fdb2:	2801      	cmp	r0, #1
 800fdb4:	d1ac      	bne.n	800fd10 <xQueueGenericReceive+0x180>
 800fdb6:	e7f5      	b.n	800fda4 <xQueueGenericReceive+0x214>
 800fdb8:	f000 fbdc 	bl	8010574 <ulPortSetInterruptMask>
 800fdbc:	e7fe      	b.n	800fdbc <xQueueGenericReceive+0x22c>
 800fdbe:	6c03      	ldr	r3, [r0, #64]	; 0x40
 800fdc0:	2b00      	cmp	r3, #0
 800fdc2:	f43f aef2 	beq.w	800fbaa <xQueueGenericReceive+0x1a>
 800fdc6:	f000 fbd5 	bl	8010574 <ulPortSetInterruptMask>
 800fdca:	e7fe      	b.n	800fdca <xQueueGenericReceive+0x23a>

0800fdcc <xQueueReceiveFromISR>:
 800fdcc:	b5f8      	push	{r3, r4, r5, r6, r7, lr}
 800fdce:	4604      	mov	r4, r0
 800fdd0:	460e      	mov	r6, r1
 800fdd2:	4615      	mov	r5, r2
 800fdd4:	b168      	cbz	r0, 800fdf2 <xQueueReceiveFromISR+0x26>
 800fdd6:	b1f1      	cbz	r1, 800fe16 <xQueueReceiveFromISR+0x4a>
 800fdd8:	f000 fcc2 	bl	8010760 <vPortValidateInterruptPriority>
 800fddc:	f000 fbca 	bl	8010574 <ulPortSetInterruptMask>
 800fde0:	4607      	mov	r7, r0
 800fde2:	6ba0      	ldr	r0, [r4, #56]	; 0x38
 800fde4:	b940      	cbnz	r0, 800fdf8 <xQueueReceiveFromISR+0x2c>
 800fde6:	4604      	mov	r4, r0
 800fde8:	4638      	mov	r0, r7
 800fdea:	f000 fbf3 	bl	80105d4 <vPortClearInterruptMask>
 800fdee:	4620      	mov	r0, r4
 800fdf0:	bdf8      	pop	{r3, r4, r5, r6, r7, pc}
 800fdf2:	f000 fbbf 	bl	8010574 <ulPortSetInterruptMask>
 800fdf6:	e7fe      	b.n	800fdf6 <xQueueReceiveFromISR+0x2a>
 800fdf8:	4631      	mov	r1, r6
 800fdfa:	4620      	mov	r0, r4
 800fdfc:	f7ff fcac 	bl	800f758 <prvCopyDataFromQueue>
 800fe00:	6ba1      	ldr	r1, [r4, #56]	; 0x38
 800fe02:	1e4a      	subs	r2, r1, #1
 800fe04:	63a2      	str	r2, [r4, #56]	; 0x38
 800fe06:	6c63      	ldr	r3, [r4, #68]	; 0x44
 800fe08:	3301      	adds	r3, #1
 800fe0a:	d00a      	beq.n	800fe22 <xQueueReceiveFromISR+0x56>
 800fe0c:	6c60      	ldr	r0, [r4, #68]	; 0x44
 800fe0e:	1c41      	adds	r1, r0, #1
 800fe10:	6461      	str	r1, [r4, #68]	; 0x44
 800fe12:	2401      	movs	r4, #1
 800fe14:	e7e8      	b.n	800fde8 <xQueueReceiveFromISR+0x1c>
 800fe16:	6c03      	ldr	r3, [r0, #64]	; 0x40
 800fe18:	2b00      	cmp	r3, #0
 800fe1a:	d0dd      	beq.n	800fdd8 <xQueueReceiveFromISR+0xc>
 800fe1c:	f000 fbaa 	bl	8010574 <ulPortSetInterruptMask>
 800fe20:	e7fe      	b.n	800fe20 <xQueueReceiveFromISR+0x54>
 800fe22:	6922      	ldr	r2, [r4, #16]
 800fe24:	2a00      	cmp	r2, #0
 800fe26:	d0f4      	beq.n	800fe12 <xQueueReceiveFromISR+0x46>
 800fe28:	f104 0010 	add.w	r0, r4, #16
 800fe2c:	f7ff fb1a 	bl	800f464 <xTaskRemoveFromEventList>
 800fe30:	2800      	cmp	r0, #0
 800fe32:	d0ee      	beq.n	800fe12 <xQueueReceiveFromISR+0x46>
 800fe34:	2d00      	cmp	r5, #0
 800fe36:	d0ec      	beq.n	800fe12 <xQueueReceiveFromISR+0x46>
 800fe38:	2401      	movs	r4, #1
 800fe3a:	602c      	str	r4, [r5, #0]
 800fe3c:	e7d4      	b.n	800fde8 <xQueueReceiveFromISR+0x1c>
 800fe3e:	bf00      	nop

0800fe40 <vQueueAddToRegistry>:
 800fe40:	4b13      	ldr	r3, [pc, #76]	; (800fe90 <vQueueAddToRegistry+0x50>)
 800fe42:	681a      	ldr	r2, [r3, #0]
 800fe44:	b410      	push	{r4}
 800fe46:	b182      	cbz	r2, 800fe6a <vQueueAddToRegistry+0x2a>
 800fe48:	689a      	ldr	r2, [r3, #8]
 800fe4a:	b1a2      	cbz	r2, 800fe76 <vQueueAddToRegistry+0x36>
 800fe4c:	691a      	ldr	r2, [r3, #16]
 800fe4e:	b1a2      	cbz	r2, 800fe7a <vQueueAddToRegistry+0x3a>
 800fe50:	699a      	ldr	r2, [r3, #24]
 800fe52:	b1a2      	cbz	r2, 800fe7e <vQueueAddToRegistry+0x3e>
 800fe54:	6a1a      	ldr	r2, [r3, #32]
 800fe56:	b1a2      	cbz	r2, 800fe82 <vQueueAddToRegistry+0x42>
 800fe58:	6a9a      	ldr	r2, [r3, #40]	; 0x28
 800fe5a:	b1a2      	cbz	r2, 800fe86 <vQueueAddToRegistry+0x46>
 800fe5c:	6b1a      	ldr	r2, [r3, #48]	; 0x30
 800fe5e:	b11a      	cbz	r2, 800fe68 <vQueueAddToRegistry+0x28>
 800fe60:	6b9a      	ldr	r2, [r3, #56]	; 0x38
 800fe62:	b192      	cbz	r2, 800fe8a <vQueueAddToRegistry+0x4a>
 800fe64:	bc10      	pop	{r4}
 800fe66:	4770      	bx	lr
 800fe68:	2206      	movs	r2, #6
 800fe6a:	eb03 04c2 	add.w	r4, r3, r2, lsl #3
 800fe6e:	f843 1032 	str.w	r1, [r3, r2, lsl #3]
 800fe72:	6060      	str	r0, [r4, #4]
 800fe74:	e7f6      	b.n	800fe64 <vQueueAddToRegistry+0x24>
 800fe76:	2201      	movs	r2, #1
 800fe78:	e7f7      	b.n	800fe6a <vQueueAddToRegistry+0x2a>
 800fe7a:	2202      	movs	r2, #2
 800fe7c:	e7f5      	b.n	800fe6a <vQueueAddToRegistry+0x2a>
 800fe7e:	2203      	movs	r2, #3
 800fe80:	e7f3      	b.n	800fe6a <vQueueAddToRegistry+0x2a>
 800fe82:	2204      	movs	r2, #4
 800fe84:	e7f1      	b.n	800fe6a <vQueueAddToRegistry+0x2a>
 800fe86:	2205      	movs	r2, #5
 800fe88:	e7ef      	b.n	800fe6a <vQueueAddToRegistry+0x2a>
 800fe8a:	2207      	movs	r2, #7
 800fe8c:	e7ed      	b.n	800fe6a <vQueueAddToRegistry+0x2a>
 800fe8e:	bf00      	nop
 800fe90:	10000b3c 	.word	0x10000b3c

0800fe94 <vQueueWaitForMessageRestricted>:
 800fe94:	b538      	push	{r3, r4, r5, lr}
 800fe96:	4604      	mov	r4, r0
 800fe98:	460d      	mov	r5, r1
 800fe9a:	f000 fb73 	bl	8010584 <vPortEnterCritical>
 800fe9e:	6c63      	ldr	r3, [r4, #68]	; 0x44
 800fea0:	3301      	adds	r3, #1
 800fea2:	d04e      	beq.n	800ff42 <vQueueWaitForMessageRestricted+0xae>
 800fea4:	6ca1      	ldr	r1, [r4, #72]	; 0x48
 800fea6:	1c4b      	adds	r3, r1, #1
 800fea8:	d048      	beq.n	800ff3c <vQueueWaitForMessageRestricted+0xa8>
 800feaa:	f000 fb97 	bl	80105dc <vPortExitCritical>
 800feae:	6ba3      	ldr	r3, [r4, #56]	; 0x38
 800feb0:	b923      	cbnz	r3, 800febc <vQueueWaitForMessageRestricted+0x28>
 800feb2:	f104 0024 	add.w	r0, r4, #36	; 0x24
 800feb6:	4629      	mov	r1, r5
 800feb8:	f7ff fa90 	bl	800f3dc <vTaskPlaceOnEventListRestricted>
 800febc:	f000 fb62 	bl	8010584 <vPortEnterCritical>
 800fec0:	6ca0      	ldr	r0, [r4, #72]	; 0x48
 800fec2:	2800      	cmp	r0, #0
 800fec4:	dd14      	ble.n	800fef0 <vQueueWaitForMessageRestricted+0x5c>
 800fec6:	6a61      	ldr	r1, [r4, #36]	; 0x24
 800fec8:	b191      	cbz	r1, 800fef0 <vQueueWaitForMessageRestricted+0x5c>
 800feca:	f104 0524 	add.w	r5, r4, #36	; 0x24
 800fece:	e007      	b.n	800fee0 <vQueueWaitForMessageRestricted+0x4c>
 800fed0:	6ca2      	ldr	r2, [r4, #72]	; 0x48
 800fed2:	1e53      	subs	r3, r2, #1
 800fed4:	64a3      	str	r3, [r4, #72]	; 0x48
 800fed6:	6ca0      	ldr	r0, [r4, #72]	; 0x48
 800fed8:	2800      	cmp	r0, #0
 800feda:	dd09      	ble.n	800fef0 <vQueueWaitForMessageRestricted+0x5c>
 800fedc:	6a61      	ldr	r1, [r4, #36]	; 0x24
 800fede:	b139      	cbz	r1, 800fef0 <vQueueWaitForMessageRestricted+0x5c>
 800fee0:	4628      	mov	r0, r5
 800fee2:	f7ff fabf 	bl	800f464 <xTaskRemoveFromEventList>
 800fee6:	2800      	cmp	r0, #0
 800fee8:	d0f2      	beq.n	800fed0 <vQueueWaitForMessageRestricted+0x3c>
 800feea:	f7ff fb3f 	bl	800f56c <vTaskMissedYield>
 800feee:	e7ef      	b.n	800fed0 <vQueueWaitForMessageRestricted+0x3c>
 800fef0:	f04f 32ff 	mov.w	r2, #4294967295
 800fef4:	64a2      	str	r2, [r4, #72]	; 0x48
 800fef6:	f000 fb71 	bl	80105dc <vPortExitCritical>
 800fefa:	f000 fb43 	bl	8010584 <vPortEnterCritical>
 800fefe:	6c63      	ldr	r3, [r4, #68]	; 0x44
 800ff00:	2b00      	cmp	r3, #0
 800ff02:	dd14      	ble.n	800ff2e <vQueueWaitForMessageRestricted+0x9a>
 800ff04:	6920      	ldr	r0, [r4, #16]
 800ff06:	b190      	cbz	r0, 800ff2e <vQueueWaitForMessageRestricted+0x9a>
 800ff08:	f104 0510 	add.w	r5, r4, #16
 800ff0c:	e007      	b.n	800ff1e <vQueueWaitForMessageRestricted+0x8a>
 800ff0e:	6c61      	ldr	r1, [r4, #68]	; 0x44
 800ff10:	1e4a      	subs	r2, r1, #1
 800ff12:	6462      	str	r2, [r4, #68]	; 0x44
 800ff14:	6c63      	ldr	r3, [r4, #68]	; 0x44
 800ff16:	2b00      	cmp	r3, #0
 800ff18:	dd09      	ble.n	800ff2e <vQueueWaitForMessageRestricted+0x9a>
 800ff1a:	6920      	ldr	r0, [r4, #16]
 800ff1c:	b138      	cbz	r0, 800ff2e <vQueueWaitForMessageRestricted+0x9a>
 800ff1e:	4628      	mov	r0, r5
 800ff20:	f7ff faa0 	bl	800f464 <xTaskRemoveFromEventList>
 800ff24:	2800      	cmp	r0, #0
 800ff26:	d0f2      	beq.n	800ff0e <vQueueWaitForMessageRestricted+0x7a>
 800ff28:	f7ff fb20 	bl	800f56c <vTaskMissedYield>
 800ff2c:	e7ef      	b.n	800ff0e <vQueueWaitForMessageRestricted+0x7a>
 800ff2e:	f04f 31ff 	mov.w	r1, #4294967295
 800ff32:	6461      	str	r1, [r4, #68]	; 0x44
 800ff34:	e8bd 4038 	ldmia.w	sp!, {r3, r4, r5, lr}
 800ff38:	f000 bb50 	b.w	80105dc <vPortExitCritical>
 800ff3c:	2200      	movs	r2, #0
 800ff3e:	64a2      	str	r2, [r4, #72]	; 0x48
 800ff40:	e7b3      	b.n	800feaa <vQueueWaitForMessageRestricted+0x16>
 800ff42:	2000      	movs	r0, #0
 800ff44:	6460      	str	r0, [r4, #68]	; 0x44
 800ff46:	e7ad      	b.n	800fea4 <vQueueWaitForMessageRestricted+0x10>

0800ff48 <vListInitialise>:
 800ff48:	f100 0308 	add.w	r3, r0, #8
 800ff4c:	f04f 32ff 	mov.w	r2, #4294967295
 800ff50:	2100      	movs	r1, #0
 800ff52:	6043      	str	r3, [r0, #4]
 800ff54:	6082      	str	r2, [r0, #8]
 800ff56:	60c3      	str	r3, [r0, #12]
 800ff58:	6103      	str	r3, [r0, #16]
 800ff5a:	6001      	str	r1, [r0, #0]
 800ff5c:	4770      	bx	lr
 800ff5e:	bf00      	nop

0800ff60 <vListInitialiseItem>:
 800ff60:	2300      	movs	r3, #0
 800ff62:	6103      	str	r3, [r0, #16]
 800ff64:	4770      	bx	lr
 800ff66:	bf00      	nop

0800ff68 <vListInsertEnd>:
 800ff68:	6843      	ldr	r3, [r0, #4]
 800ff6a:	689a      	ldr	r2, [r3, #8]
 800ff6c:	b410      	push	{r4}
 800ff6e:	6804      	ldr	r4, [r0, #0]
 800ff70:	608a      	str	r2, [r1, #8]
 800ff72:	689a      	ldr	r2, [r3, #8]
 800ff74:	604b      	str	r3, [r1, #4]
 800ff76:	3401      	adds	r4, #1
 800ff78:	6108      	str	r0, [r1, #16]
 800ff7a:	6051      	str	r1, [r2, #4]
 800ff7c:	6099      	str	r1, [r3, #8]
 800ff7e:	6004      	str	r4, [r0, #0]
 800ff80:	bc10      	pop	{r4}
 800ff82:	4770      	bx	lr

0800ff84 <vListInsert>:
 800ff84:	b430      	push	{r4, r5}
 800ff86:	680d      	ldr	r5, [r1, #0]
 800ff88:	1c6b      	adds	r3, r5, #1
 800ff8a:	d011      	beq.n	800ffb0 <vListInsert+0x2c>
 800ff8c:	f100 0208 	add.w	r2, r0, #8
 800ff90:	e000      	b.n	800ff94 <vListInsert+0x10>
 800ff92:	461a      	mov	r2, r3
 800ff94:	6853      	ldr	r3, [r2, #4]
 800ff96:	681c      	ldr	r4, [r3, #0]
 800ff98:	42a5      	cmp	r5, r4
 800ff9a:	d2fa      	bcs.n	800ff92 <vListInsert+0xe>
 800ff9c:	6804      	ldr	r4, [r0, #0]
 800ff9e:	604b      	str	r3, [r1, #4]
 800ffa0:	3401      	adds	r4, #1
 800ffa2:	6099      	str	r1, [r3, #8]
 800ffa4:	6051      	str	r1, [r2, #4]
 800ffa6:	608a      	str	r2, [r1, #8]
 800ffa8:	6108      	str	r0, [r1, #16]
 800ffaa:	6004      	str	r4, [r0, #0]
 800ffac:	bc30      	pop	{r4, r5}
 800ffae:	4770      	bx	lr
 800ffb0:	6902      	ldr	r2, [r0, #16]
 800ffb2:	6853      	ldr	r3, [r2, #4]
 800ffb4:	e7f2      	b.n	800ff9c <vListInsert+0x18>
 800ffb6:	bf00      	nop

0800ffb8 <uxListRemove>:
 800ffb8:	6842      	ldr	r2, [r0, #4]
 800ffba:	6881      	ldr	r1, [r0, #8]
 800ffbc:	6903      	ldr	r3, [r0, #16]
 800ffbe:	b410      	push	{r4}
 800ffc0:	6091      	str	r1, [r2, #8]
 800ffc2:	6881      	ldr	r1, [r0, #8]
 800ffc4:	685c      	ldr	r4, [r3, #4]
 800ffc6:	604a      	str	r2, [r1, #4]
 800ffc8:	681a      	ldr	r2, [r3, #0]
 800ffca:	4284      	cmp	r4, r0
 800ffcc:	bf08      	it	eq
 800ffce:	6059      	streq	r1, [r3, #4]
 800ffd0:	3a01      	subs	r2, #1
 800ffd2:	2100      	movs	r1, #0
 800ffd4:	6101      	str	r1, [r0, #16]
 800ffd6:	4610      	mov	r0, r2
 800ffd8:	601a      	str	r2, [r3, #0]
 800ffda:	bc10      	pop	{r4}
 800ffdc:	4770      	bx	lr
 800ffde:	bf00      	nop

0800ffe0 <prvSwitchTimerLists>:
 800ffe0:	e92d 47f0 	stmdb	sp!, {r4, r5, r6, r7, r8, r9, sl, lr}
 800ffe4:	4d1f      	ldr	r5, [pc, #124]	; (8010064 <prvSwitchTimerLists+0x84>)
 800ffe6:	4e20      	ldr	r6, [pc, #128]	; (8010068 <prvSwitchTimerLists+0x88>)
 800ffe8:	b084      	sub	sp, #16
 800ffea:	46a8      	mov	r8, r5
 800ffec:	f04f 0a00 	mov.w	sl, #0
 800fff0:	e00d      	b.n	801000e <prvSwitchTimerLists+0x2e>
 800fff2:	68df      	ldr	r7, [r3, #12]
 800fff4:	68fc      	ldr	r4, [r7, #12]
 800fff6:	683f      	ldr	r7, [r7, #0]
 800fff8:	f104 0904 	add.w	r9, r4, #4
 800fffc:	4648      	mov	r0, r9
 800fffe:	f7ff ffdb 	bl	800ffb8 <uxListRemove>
 8010002:	4620      	mov	r0, r4
 8010004:	6a62      	ldr	r2, [r4, #36]	; 0x24
 8010006:	4790      	blx	r2
 8010008:	69e0      	ldr	r0, [r4, #28]
 801000a:	2801      	cmp	r0, #1
 801000c:	d00b      	beq.n	8010026 <prvSwitchTimerLists+0x46>
 801000e:	682b      	ldr	r3, [r5, #0]
 8010010:	681a      	ldr	r2, [r3, #0]
 8010012:	2a00      	cmp	r2, #0
 8010014:	d1ed      	bne.n	800fff2 <prvSwitchTimerLists+0x12>
 8010016:	4815      	ldr	r0, [pc, #84]	; (801006c <prvSwitchTimerLists+0x8c>)
 8010018:	6801      	ldr	r1, [r0, #0]
 801001a:	6003      	str	r3, [r0, #0]
 801001c:	4b11      	ldr	r3, [pc, #68]	; (8010064 <prvSwitchTimerLists+0x84>)
 801001e:	6019      	str	r1, [r3, #0]
 8010020:	b004      	add	sp, #16
 8010022:	e8bd 87f0 	ldmia.w	sp!, {r4, r5, r6, r7, r8, r9, sl, pc}
 8010026:	69a1      	ldr	r1, [r4, #24]
 8010028:	187b      	adds	r3, r7, r1
 801002a:	42bb      	cmp	r3, r7
 801002c:	d812      	bhi.n	8010054 <prvSwitchTimerLists+0x74>
 801002e:	6832      	ldr	r2, [r6, #0]
 8010030:	b16a      	cbz	r2, 801004e <prvSwitchTimerLists+0x6e>
 8010032:	f8cd a004 	str.w	sl, [sp, #4]
 8010036:	9702      	str	r7, [sp, #8]
 8010038:	9403      	str	r4, [sp, #12]
 801003a:	f7ff fa9f 	bl	800f57c <xTaskGetSchedulerState>
 801003e:	2200      	movs	r2, #0
 8010040:	6830      	ldr	r0, [r6, #0]
 8010042:	a901      	add	r1, sp, #4
 8010044:	4613      	mov	r3, r2
 8010046:	f7ff fbd7 	bl	800f7f8 <xQueueGenericSend>
 801004a:	2800      	cmp	r0, #0
 801004c:	d1df      	bne.n	801000e <prvSwitchTimerLists+0x2e>
 801004e:	f000 fa91 	bl	8010574 <ulPortSetInterruptMask>
 8010052:	e7fe      	b.n	8010052 <prvSwitchTimerLists+0x72>
 8010054:	6063      	str	r3, [r4, #4]
 8010056:	6124      	str	r4, [r4, #16]
 8010058:	f8d8 0000 	ldr.w	r0, [r8]
 801005c:	4649      	mov	r1, r9
 801005e:	f7ff ff91 	bl	800ff84 <vListInsert>
 8010062:	e7d4      	b.n	801000e <prvSwitchTimerLists+0x2e>
 8010064:	10000a40 	.word	0x10000a40
 8010068:	10000a70 	.word	0x10000a70
 801006c:	10000a74 	.word	0x10000a74

08010070 <prvTimerTask>:
 8010070:	e92d 4ff0 	stmdb	sp!, {r4, r5, r6, r7, r8, r9, sl, fp, lr}
 8010074:	4d83      	ldr	r5, [pc, #524]	; (8010284 <prvTimerTask+0x214>)
 8010076:	4e84      	ldr	r6, [pc, #528]	; (8010288 <prvTimerTask+0x218>)
 8010078:	4c84      	ldr	r4, [pc, #528]	; (801028c <prvTimerTask+0x21c>)
 801007a:	b08d      	sub	sp, #52	; 0x34
 801007c:	462f      	mov	r7, r5
 801007e:	f04f 0901 	mov.w	r9, #1
 8010082:	6833      	ldr	r3, [r6, #0]
 8010084:	681a      	ldr	r2, [r3, #0]
 8010086:	f1d2 0a01 	rsbs	sl, r2, #1
 801008a:	bf38      	it	cc
 801008c:	f04f 0a00 	movcc.w	sl, #0
 8010090:	f1ba 0f00 	cmp.w	sl, #0
 8010094:	d147      	bne.n	8010126 <prvTimerTask+0xb6>
 8010096:	68d8      	ldr	r0, [r3, #12]
 8010098:	f8d0 b000 	ldr.w	fp, [r0]
 801009c:	f7fe ff7c 	bl	800ef98 <vTaskSuspendAll>
 80100a0:	f7fe ff82 	bl	800efa8 <xTaskGetTickCount>
 80100a4:	6829      	ldr	r1, [r5, #0]
 80100a6:	4288      	cmp	r0, r1
 80100a8:	4680      	mov	r8, r0
 80100aa:	f0c0 8086 	bcc.w	80101ba <prvTimerTask+0x14a>
 80100ae:	6038      	str	r0, [r7, #0]
 80100b0:	f1ba 0f00 	cmp.w	sl, #0
 80100b4:	d102      	bne.n	80100bc <prvTimerTask+0x4c>
 80100b6:	45c3      	cmp	fp, r8
 80100b8:	f240 8098 	bls.w	80101ec <prvTimerTask+0x17c>
 80100bc:	6820      	ldr	r0, [r4, #0]
 80100be:	ebc8 010b 	rsb	r1, r8, fp
 80100c2:	f7ff fee7 	bl	800fe94 <vQueueWaitForMessageRestricted>
 80100c6:	f7ff f82f 	bl	800f128 <xTaskResumeAll>
 80100ca:	2800      	cmp	r0, #0
 80100cc:	f000 808b 	beq.w	80101e6 <prvTimerTask+0x176>
 80100d0:	2200      	movs	r2, #0
 80100d2:	6820      	ldr	r0, [r4, #0]
 80100d4:	a906      	add	r1, sp, #24
 80100d6:	4613      	mov	r3, r2
 80100d8:	f7ff fd5a 	bl	800fb90 <xQueueGenericReceive>
 80100dc:	2800      	cmp	r0, #0
 80100de:	d0d0      	beq.n	8010082 <prvTimerTask+0x12>
 80100e0:	9906      	ldr	r1, [sp, #24]
 80100e2:	2900      	cmp	r1, #0
 80100e4:	dbf4      	blt.n	80100d0 <prvTimerTask+0x60>
 80100e6:	f8dd a020 	ldr.w	sl, [sp, #32]
 80100ea:	f8da 0014 	ldr.w	r0, [sl, #20]
 80100ee:	b118      	cbz	r0, 80100f8 <prvTimerTask+0x88>
 80100f0:	f10a 0004 	add.w	r0, sl, #4
 80100f4:	f7ff ff60 	bl	800ffb8 <uxListRemove>
 80100f8:	f7fe ff56 	bl	800efa8 <xTaskGetTickCount>
 80100fc:	682b      	ldr	r3, [r5, #0]
 80100fe:	4298      	cmp	r0, r3
 8010100:	d362      	bcc.n	80101c8 <prvTimerTask+0x158>
 8010102:	9a06      	ldr	r2, [sp, #24]
 8010104:	6028      	str	r0, [r5, #0]
 8010106:	2a09      	cmp	r2, #9
 8010108:	d8e2      	bhi.n	80100d0 <prvTimerTask+0x60>
 801010a:	fa09 f102 	lsl.w	r1, r9, r2
 801010e:	f411 7f04 	tst.w	r1, #528	; 0x210
 8010112:	d13c      	bne.n	801018e <prvTimerTask+0x11e>
 8010114:	f011 0fc7 	tst.w	r1, #199	; 0xc7
 8010118:	d108      	bne.n	801012c <prvTimerTask+0xbc>
 801011a:	068b      	lsls	r3, r1, #26
 801011c:	d5d8      	bpl.n	80100d0 <prvTimerTask+0x60>
 801011e:	4650      	mov	r0, sl
 8010120:	f000 fb54 	bl	80107cc <vPortFree>
 8010124:	e7d4      	b.n	80100d0 <prvTimerTask+0x60>
 8010126:	f04f 0b00 	mov.w	fp, #0
 801012a:	e7b7      	b.n	801009c <prvTimerTask+0x2c>
 801012c:	9a07      	ldr	r2, [sp, #28]
 801012e:	f8da 1018 	ldr.w	r1, [sl, #24]
 8010132:	f8ca a010 	str.w	sl, [sl, #16]
 8010136:	188b      	adds	r3, r1, r2
 8010138:	4283      	cmp	r3, r0
 801013a:	f8ca 3004 	str.w	r3, [sl, #4]
 801013e:	d848      	bhi.n	80101d2 <prvTimerTask+0x162>
 8010140:	1a80      	subs	r0, r0, r2
 8010142:	4281      	cmp	r1, r0
 8010144:	d82f      	bhi.n	80101a6 <prvTimerTask+0x136>
 8010146:	f8da 2024 	ldr.w	r2, [sl, #36]	; 0x24
 801014a:	4650      	mov	r0, sl
 801014c:	4790      	blx	r2
 801014e:	f8da 101c 	ldr.w	r1, [sl, #28]
 8010152:	2901      	cmp	r1, #1
 8010154:	d1bc      	bne.n	80100d0 <prvTimerTask+0x60>
 8010156:	f8da 0018 	ldr.w	r0, [sl, #24]
 801015a:	9a07      	ldr	r2, [sp, #28]
 801015c:	6823      	ldr	r3, [r4, #0]
 801015e:	1881      	adds	r1, r0, r2
 8010160:	b193      	cbz	r3, 8010188 <prvTimerTask+0x118>
 8010162:	2000      	movs	r0, #0
 8010164:	910a      	str	r1, [sp, #40]	; 0x28
 8010166:	9009      	str	r0, [sp, #36]	; 0x24
 8010168:	f8cd a02c 	str.w	sl, [sp, #44]	; 0x2c
 801016c:	f7ff fa06 	bl	800f57c <xTaskGetSchedulerState>
 8010170:	f640 2370 	movw	r3, #2672	; 0xa70
 8010174:	f2c1 0300 	movt	r3, #4096	; 0x1000
 8010178:	2200      	movs	r2, #0
 801017a:	6818      	ldr	r0, [r3, #0]
 801017c:	a909      	add	r1, sp, #36	; 0x24
 801017e:	4613      	mov	r3, r2
 8010180:	f7ff fb3a 	bl	800f7f8 <xQueueGenericSend>
 8010184:	2800      	cmp	r0, #0
 8010186:	d1a3      	bne.n	80100d0 <prvTimerTask+0x60>
 8010188:	f000 f9f4 	bl	8010574 <ulPortSetInterruptMask>
 801018c:	e7fe      	b.n	801018c <prvTimerTask+0x11c>
 801018e:	9a07      	ldr	r2, [sp, #28]
 8010190:	f8ca 2018 	str.w	r2, [sl, #24]
 8010194:	2a00      	cmp	r2, #0
 8010196:	d06a      	beq.n	801026e <prvTimerTask+0x1fe>
 8010198:	1881      	adds	r1, r0, r2
 801019a:	4288      	cmp	r0, r1
 801019c:	f8ca 1004 	str.w	r1, [sl, #4]
 80101a0:	f8ca a010 	str.w	sl, [sl, #16]
 80101a4:	d319      	bcc.n	80101da <prvTimerTask+0x16a>
 80101a6:	f640 2074 	movw	r0, #2676	; 0xa74
 80101aa:	f2c1 0000 	movt	r0, #4096	; 0x1000
 80101ae:	f10a 0104 	add.w	r1, sl, #4
 80101b2:	6800      	ldr	r0, [r0, #0]
 80101b4:	f7ff fee6 	bl	800ff84 <vListInsert>
 80101b8:	e78a      	b.n	80100d0 <prvTimerTask+0x60>
 80101ba:	f7ff ff11 	bl	800ffe0 <prvSwitchTimerLists>
 80101be:	f8c7 8000 	str.w	r8, [r7]
 80101c2:	f7fe ffb1 	bl	800f128 <xTaskResumeAll>
 80101c6:	e783      	b.n	80100d0 <prvTimerTask+0x60>
 80101c8:	9000      	str	r0, [sp, #0]
 80101ca:	f7ff ff09 	bl	800ffe0 <prvSwitchTimerLists>
 80101ce:	9800      	ldr	r0, [sp, #0]
 80101d0:	e797      	b.n	8010102 <prvTimerTask+0x92>
 80101d2:	4282      	cmp	r2, r0
 80101d4:	d901      	bls.n	80101da <prvTimerTask+0x16a>
 80101d6:	429a      	cmp	r2, r3
 80101d8:	d9b5      	bls.n	8010146 <prvTimerTask+0xd6>
 80101da:	6830      	ldr	r0, [r6, #0]
 80101dc:	f10a 0104 	add.w	r1, sl, #4
 80101e0:	f7ff fed0 	bl	800ff84 <vListInsert>
 80101e4:	e774      	b.n	80100d0 <prvTimerTask+0x60>
 80101e6:	f000 f9b9 	bl	801055c <vPortYield>
 80101ea:	e771      	b.n	80100d0 <prvTimerTask+0x60>
 80101ec:	f7fe ff9c 	bl	800f128 <xTaskResumeAll>
 80101f0:	6833      	ldr	r3, [r6, #0]
 80101f2:	68da      	ldr	r2, [r3, #12]
 80101f4:	68d0      	ldr	r0, [r2, #12]
 80101f6:	1d03      	adds	r3, r0, #4
 80101f8:	9001      	str	r0, [sp, #4]
 80101fa:	4618      	mov	r0, r3
 80101fc:	9300      	str	r3, [sp, #0]
 80101fe:	f7ff fedb 	bl	800ffb8 <uxListRemove>
 8010202:	9801      	ldr	r0, [sp, #4]
 8010204:	9900      	ldr	r1, [sp, #0]
 8010206:	69c2      	ldr	r2, [r0, #28]
 8010208:	2a01      	cmp	r2, #1
 801020a:	d003      	beq.n	8010214 <prvTimerTask+0x1a4>
 801020c:	9801      	ldr	r0, [sp, #4]
 801020e:	6a42      	ldr	r2, [r0, #36]	; 0x24
 8010210:	4790      	blx	r2
 8010212:	e75d      	b.n	80100d0 <prvTimerTask+0x60>
 8010214:	6982      	ldr	r2, [r0, #24]
 8010216:	6100      	str	r0, [r0, #16]
 8010218:	4603      	mov	r3, r0
 801021a:	eb0b 0002 	add.w	r0, fp, r2
 801021e:	4580      	cmp	r8, r0
 8010220:	6058      	str	r0, [r3, #4]
 8010222:	d207      	bcs.n	8010234 <prvTimerTask+0x1c4>
 8010224:	f640 2340 	movw	r3, #2624	; 0xa40
 8010228:	f2c1 0300 	movt	r3, #4096	; 0x1000
 801022c:	6818      	ldr	r0, [r3, #0]
 801022e:	f7ff fea9 	bl	800ff84 <vListInsert>
 8010232:	e7eb      	b.n	801020c <prvTimerTask+0x19c>
 8010234:	ebcb 0c08 	rsb	ip, fp, r8
 8010238:	4562      	cmp	r2, ip
 801023a:	d81b      	bhi.n	8010274 <prvTimerTask+0x204>
 801023c:	6821      	ldr	r1, [r4, #0]
 801023e:	b199      	cbz	r1, 8010268 <prvTimerTask+0x1f8>
 8010240:	9801      	ldr	r0, [sp, #4]
 8010242:	f8cd a00c 	str.w	sl, [sp, #12]
 8010246:	f8cd b010 	str.w	fp, [sp, #16]
 801024a:	9005      	str	r0, [sp, #20]
 801024c:	f7ff f996 	bl	800f57c <xTaskGetSchedulerState>
 8010250:	f640 2370 	movw	r3, #2672	; 0xa70
 8010254:	f2c1 0300 	movt	r3, #4096	; 0x1000
 8010258:	4652      	mov	r2, sl
 801025a:	6818      	ldr	r0, [r3, #0]
 801025c:	a903      	add	r1, sp, #12
 801025e:	4653      	mov	r3, sl
 8010260:	f7ff faca 	bl	800f7f8 <xQueueGenericSend>
 8010264:	2800      	cmp	r0, #0
 8010266:	d1d1      	bne.n	801020c <prvTimerTask+0x19c>
 8010268:	f000 f984 	bl	8010574 <ulPortSetInterruptMask>
 801026c:	e7fe      	b.n	801026c <prvTimerTask+0x1fc>
 801026e:	f000 f981 	bl	8010574 <ulPortSetInterruptMask>
 8010272:	e7fe      	b.n	8010272 <prvTimerTask+0x202>
 8010274:	f640 2274 	movw	r2, #2676	; 0xa74
 8010278:	f2c1 0200 	movt	r2, #4096	; 0x1000
 801027c:	6810      	ldr	r0, [r2, #0]
 801027e:	f7ff fe81 	bl	800ff84 <vListInsert>
 8010282:	e7c3      	b.n	801020c <prvTimerTask+0x19c>
 8010284:	10000a6c 	.word	0x10000a6c
 8010288:	10000a40 	.word	0x10000a40
 801028c:	10000a70 	.word	0x10000a70

08010290 <xTimerCreateTimerTask>:
 8010290:	b5f0      	push	{r4, r5, r6, r7, lr}
 8010292:	4c1d      	ldr	r4, [pc, #116]	; (8010308 <xTimerCreateTimerTask+0x78>)
 8010294:	b085      	sub	sp, #20
 8010296:	f000 f975 	bl	8010584 <vPortEnterCritical>
 801029a:	6826      	ldr	r6, [r4, #0]
 801029c:	b19e      	cbz	r6, 80102c6 <xTimerCreateTimerTask+0x36>
 801029e:	f000 f99d 	bl	80105dc <vPortExitCritical>
 80102a2:	6820      	ldr	r0, [r4, #0]
 80102a4:	2800      	cmp	r0, #0
 80102a6:	d029      	beq.n	80102fc <xTimerCreateTimerTask+0x6c>
 80102a8:	2300      	movs	r3, #0
 80102aa:	2202      	movs	r2, #2
 80102ac:	e88d 000c 	stmia.w	sp, {r2, r3}
 80102b0:	9302      	str	r3, [sp, #8]
 80102b2:	9303      	str	r3, [sp, #12]
 80102b4:	4815      	ldr	r0, [pc, #84]	; (801030c <xTimerCreateTimerTask+0x7c>)
 80102b6:	4916      	ldr	r1, [pc, #88]	; (8010310 <xTimerCreateTimerTask+0x80>)
 80102b8:	f44f 7282 	mov.w	r2, #260	; 0x104
 80102bc:	f7fe fd24 	bl	800ed08 <xTaskGenericCreate>
 80102c0:	b1e0      	cbz	r0, 80102fc <xTimerCreateTimerTask+0x6c>
 80102c2:	b005      	add	sp, #20
 80102c4:	bdf0      	pop	{r4, r5, r6, r7, pc}
 80102c6:	4f13      	ldr	r7, [pc, #76]	; (8010314 <xTimerCreateTimerTask+0x84>)
 80102c8:	4d13      	ldr	r5, [pc, #76]	; (8010318 <xTimerCreateTimerTask+0x88>)
 80102ca:	4638      	mov	r0, r7
 80102cc:	f7ff fe3c 	bl	800ff48 <vListInitialise>
 80102d0:	4628      	mov	r0, r5
 80102d2:	f7ff fe39 	bl	800ff48 <vListInitialise>
 80102d6:	4b11      	ldr	r3, [pc, #68]	; (801031c <xTimerCreateTimerTask+0x8c>)
 80102d8:	601f      	str	r7, [r3, #0]
 80102da:	4b11      	ldr	r3, [pc, #68]	; (8010320 <xTimerCreateTimerTask+0x90>)
 80102dc:	200a      	movs	r0, #10
 80102de:	210c      	movs	r1, #12
 80102e0:	4632      	mov	r2, r6
 80102e2:	601d      	str	r5, [r3, #0]
 80102e4:	f7ff fa4c 	bl	800f780 <xQueueGenericCreate>
 80102e8:	6020      	str	r0, [r4, #0]
 80102ea:	b150      	cbz	r0, 8010302 <xTimerCreateTimerTask+0x72>
 80102ec:	490d      	ldr	r1, [pc, #52]	; (8010324 <xTimerCreateTimerTask+0x94>)
 80102ee:	f7ff fda7 	bl	800fe40 <vQueueAddToRegistry>
 80102f2:	f000 f973 	bl	80105dc <vPortExitCritical>
 80102f6:	6820      	ldr	r0, [r4, #0]
 80102f8:	2800      	cmp	r0, #0
 80102fa:	d1d5      	bne.n	80102a8 <xTimerCreateTimerTask+0x18>
 80102fc:	f000 f93a 	bl	8010574 <ulPortSetInterruptMask>
 8010300:	e7fe      	b.n	8010300 <xTimerCreateTimerTask+0x70>
 8010302:	f000 f937 	bl	8010574 <ulPortSetInterruptMask>
 8010306:	e7fe      	b.n	8010306 <xTimerCreateTimerTask+0x76>
 8010308:	10000a70 	.word	0x10000a70
 801030c:	08010071 	.word	0x08010071
 8010310:	080157e8 	.word	0x080157e8
 8010314:	10000a44 	.word	0x10000a44
 8010318:	10000a58 	.word	0x10000a58
 801031c:	10000a40 	.word	0x10000a40
 8010320:	10000a74 	.word	0x10000a74
 8010324:	080157e0 	.word	0x080157e0

08010328 <NVIC_PriorityGroupConfig>:
 8010328:	f44f 436d 	mov.w	r3, #60672	; 0xed00
 801032c:	f040 60bf 	orr.w	r0, r0, #100139008	; 0x5f80000
 8010330:	f2ce 0300 	movt	r3, #57344	; 0xe000
 8010334:	f440 3100 	orr.w	r1, r0, #131072	; 0x20000
 8010338:	60d9      	str	r1, [r3, #12]
 801033a:	4770      	bx	lr

0801033c <_GLOBAL__sub_I__ZN4quan5errorEll>:
 801033c:	f640 2378 	movw	r3, #2680	; 0xa78
 8010340:	f2c1 0300 	movt	r3, #4096	; 0x1000
 8010344:	f103 0208 	add.w	r2, r3, #8
 8010348:	2000      	movs	r0, #0
 801034a:	601a      	str	r2, [r3, #0]
 801034c:	6058      	str	r0, [r3, #4]
 801034e:	4770      	bx	lr

08010350 <Reset_Handler>:
 8010350:	2100      	movs	r1, #0
 8010352:	f000 b804 	b.w	801035e <LoopCopyDataInit>

08010356 <CopyDataInit>:
 8010356:	4b0d      	ldr	r3, [pc, #52]	; (801038c <LoopFillZerobss+0x16>)
 8010358:	585b      	ldr	r3, [r3, r1]
 801035a:	5043      	str	r3, [r0, r1]
 801035c:	3104      	adds	r1, #4

0801035e <LoopCopyDataInit>:
 801035e:	480c      	ldr	r0, [pc, #48]	; (8010390 <LoopFillZerobss+0x1a>)
 8010360:	4b0c      	ldr	r3, [pc, #48]	; (8010394 <LoopFillZerobss+0x1e>)
 8010362:	1842      	adds	r2, r0, r1
 8010364:	429a      	cmp	r2, r3
 8010366:	f4ff aff6 	bcc.w	8010356 <CopyDataInit>
 801036a:	4a0b      	ldr	r2, [pc, #44]	; (8010398 <LoopFillZerobss+0x22>)
 801036c:	f000 b803 	b.w	8010376 <LoopFillZerobss>

08010370 <FillZerobss>:
 8010370:	2300      	movs	r3, #0
 8010372:	f842 3b04 	str.w	r3, [r2], #4

08010376 <LoopFillZerobss>:
 8010376:	4b09      	ldr	r3, [pc, #36]	; (801039c <LoopFillZerobss+0x26>)
 8010378:	429a      	cmp	r2, r3
 801037a:	f4ff aff9 	bcc.w	8010370 <FillZerobss>
 801037e:	f000 f811 	bl	80103a4 <SystemInit>
 8010382:	f000 fa37 	bl	80107f4 <__libc_init_array>
 8010386:	f7fe fa51 	bl	800e82c <main>
 801038a:	4770      	bx	lr
 801038c:	08015988 	.word	0x08015988
 8010390:	10000000 	.word	0x10000000
 8010394:	1000089c 	.word	0x1000089c
 8010398:	1000089c 	.word	0x1000089c
 801039c:	10000b80 	.word	0x10000b80

080103a0 <ADC_IRQHandler>:
 80103a0:	f7ff bffe 	b.w	80103a0 <ADC_IRQHandler>

080103a4 <SystemInit>:
 80103a4:	f44f 426d 	mov.w	r2, #60672	; 0xed00
 80103a8:	f2ce 0200 	movt	r2, #57344	; 0xe000
 80103ac:	f64e 7330 	movw	r3, #61232	; 0xef30
 80103b0:	f8d2 1088 	ldr.w	r1, [r2, #136]	; 0x88
 80103b4:	f2ce 0300 	movt	r3, #57344	; 0xe000
 80103b8:	f441 0070 	orr.w	r0, r1, #15728640	; 0xf00000
 80103bc:	f8c2 0088 	str.w	r0, [r2, #136]	; 0x88
 80103c0:	685a      	ldr	r2, [r3, #4]
 80103c2:	f022 4140 	bic.w	r1, r2, #3221225472	; 0xc0000000
 80103c6:	b082      	sub	sp, #8
 80103c8:	6059      	str	r1, [r3, #4]
 80103ca:	f3ef 8314 	mrs	r3, CONTROL
 80103ce:	f023 0004 	bic.w	r0, r3, #4
 80103d2:	f380 8814 	msr	CONTROL, r0
 80103d6:	f44f 5360 	mov.w	r3, #14336	; 0x3800
 80103da:	f2c4 0302 	movt	r3, #16386	; 0x4002
 80103de:	2200      	movs	r2, #0
 80103e0:	6819      	ldr	r1, [r3, #0]
 80103e2:	f041 0001 	orr.w	r0, r1, #1
 80103e6:	6018      	str	r0, [r3, #0]
 80103e8:	609a      	str	r2, [r3, #8]
 80103ea:	6818      	ldr	r0, [r3, #0]
 80103ec:	f243 0110 	movw	r1, #12304	; 0x3010
 80103f0:	f020 7084 	bic.w	r0, r0, #17301504	; 0x1080000
 80103f4:	f420 3080 	bic.w	r0, r0, #65536	; 0x10000
 80103f8:	f2c2 4100 	movt	r1, #9216	; 0x2400
 80103fc:	6018      	str	r0, [r3, #0]
 80103fe:	6059      	str	r1, [r3, #4]
 8010400:	6819      	ldr	r1, [r3, #0]
 8010402:	f421 2080 	bic.w	r0, r1, #262144	; 0x40000
 8010406:	6018      	str	r0, [r3, #0]
 8010408:	60da      	str	r2, [r3, #12]
 801040a:	9200      	str	r2, [sp, #0]
 801040c:	9201      	str	r2, [sp, #4]
 801040e:	681a      	ldr	r2, [r3, #0]
 8010410:	f442 3180 	orr.w	r1, r2, #65536	; 0x10000
 8010414:	6019      	str	r1, [r3, #0]
 8010416:	6818      	ldr	r0, [r3, #0]
 8010418:	f400 3200 	and.w	r2, r0, #131072	; 0x20000
 801041c:	9201      	str	r2, [sp, #4]
 801041e:	9900      	ldr	r1, [sp, #0]
 8010420:	1c48      	adds	r0, r1, #1
 8010422:	9000      	str	r0, [sp, #0]
 8010424:	9a01      	ldr	r2, [sp, #4]
 8010426:	b91a      	cbnz	r2, 8010430 <SystemInit+0x8c>
 8010428:	9900      	ldr	r1, [sp, #0]
 801042a:	f5b1 6fa0 	cmp.w	r1, #1280	; 0x500
 801042e:	d1f2      	bne.n	8010416 <SystemInit+0x72>
 8010430:	f44f 5360 	mov.w	r3, #14336	; 0x3800
 8010434:	f2c4 0302 	movt	r3, #16386	; 0x4002
 8010438:	6818      	ldr	r0, [r3, #0]
 801043a:	f410 3200 	ands.w	r2, r0, #131072	; 0x20000
 801043e:	d005      	beq.n	801044c <SystemInit+0xa8>
 8010440:	2101      	movs	r1, #1
 8010442:	9101      	str	r1, [sp, #4]
 8010444:	9b01      	ldr	r3, [sp, #4]
 8010446:	2b01      	cmp	r3, #1
 8010448:	d004      	beq.n	8010454 <SystemInit+0xb0>
 801044a:	e7fe      	b.n	801044a <SystemInit+0xa6>
 801044c:	9201      	str	r2, [sp, #4]
 801044e:	9b01      	ldr	r3, [sp, #4]
 8010450:	2b01      	cmp	r3, #1
 8010452:	d1fa      	bne.n	801044a <SystemInit+0xa6>
 8010454:	f44f 5060 	mov.w	r0, #14336	; 0x3800
 8010458:	f2c4 0002 	movt	r0, #16386	; 0x4002
 801045c:	f44f 42e0 	mov.w	r2, #28672	; 0x7000
 8010460:	6c01      	ldr	r1, [r0, #64]	; 0x40
 8010462:	f2c4 0200 	movt	r2, #16384	; 0x4000
 8010466:	f041 5380 	orr.w	r3, r1, #268435456	; 0x10000000
 801046a:	6403      	str	r3, [r0, #64]	; 0x40
 801046c:	6811      	ldr	r1, [r2, #0]
 801046e:	f441 4380 	orr.w	r3, r1, #16384	; 0x4000
 8010472:	6013      	str	r3, [r2, #0]
 8010474:	6882      	ldr	r2, [r0, #8]
 8010476:	6082      	str	r2, [r0, #8]
 8010478:	6881      	ldr	r1, [r0, #8]
 801047a:	f441 4300 	orr.w	r3, r1, #32768	; 0x8000
 801047e:	6083      	str	r3, [r0, #8]
 8010480:	6881      	ldr	r1, [r0, #8]
 8010482:	f642 2204 	movw	r2, #10756	; 0x2a04
 8010486:	f441 53a0 	orr.w	r3, r1, #5120	; 0x1400
 801048a:	f2c0 7240 	movt	r2, #1856	; 0x740
 801048e:	6083      	str	r3, [r0, #8]
 8010490:	6042      	str	r2, [r0, #4]
 8010492:	6801      	ldr	r1, [r0, #0]
 8010494:	f041 7280 	orr.w	r2, r1, #16777216	; 0x1000000
 8010498:	6002      	str	r2, [r0, #0]
 801049a:	6803      	ldr	r3, [r0, #0]
 801049c:	f44f 5260 	mov.w	r2, #14336	; 0x3800
 80104a0:	0199      	lsls	r1, r3, #6
 80104a2:	f2c4 0202 	movt	r2, #16386	; 0x4002
 80104a6:	d5f8      	bpl.n	801049a <SystemInit+0xf6>
 80104a8:	f44f 5070 	mov.w	r0, #15360	; 0x3c00
 80104ac:	f2c4 0002 	movt	r0, #16386	; 0x4002
 80104b0:	f240 6105 	movw	r1, #1541	; 0x605
 80104b4:	6001      	str	r1, [r0, #0]
 80104b6:	6893      	ldr	r3, [r2, #8]
 80104b8:	f023 0003 	bic.w	r0, r3, #3
 80104bc:	6090      	str	r0, [r2, #8]
 80104be:	6891      	ldr	r1, [r2, #8]
 80104c0:	f041 0302 	orr.w	r3, r1, #2
 80104c4:	6093      	str	r3, [r2, #8]
 80104c6:	6890      	ldr	r0, [r2, #8]
 80104c8:	f000 010c 	and.w	r1, r0, #12
 80104cc:	2908      	cmp	r1, #8
 80104ce:	d1fa      	bne.n	80104c6 <SystemInit+0x122>
 80104d0:	f44f 436d 	mov.w	r3, #60672	; 0xed00
 80104d4:	f2ce 0300 	movt	r3, #57344	; 0xe000
 80104d8:	f04f 6200 	mov.w	r2, #134217728	; 0x8000000
 80104dc:	609a      	str	r2, [r3, #8]
 80104de:	b002      	add	sp, #8
 80104e0:	4770      	bx	lr
 80104e2:	bf00      	nop

080104e4 <prvPortStartFirstTask>:
 80104e4:	4806      	ldr	r0, [pc, #24]	; (8010500 <prvPortStartFirstTask+0x1c>)
 80104e6:	6800      	ldr	r0, [r0, #0]
 80104e8:	6800      	ldr	r0, [r0, #0]
 80104ea:	f380 8808 	msr	MSP, r0
 80104ee:	b662      	cpsie	i
 80104f0:	b661      	cpsie	f
 80104f2:	f3bf 8f4f 	dsb	sy
 80104f6:	f3bf 8f6f 	isb	sy
 80104fa:	df00      	svc	0
 80104fc:	bf00      	nop
 80104fe:	0000      	.short	0x0000
 8010500:	e000ed08 	.word	0xe000ed08

08010504 <vPortEnableVFP>:
 8010504:	f8df 000c 	ldr.w	r0, [pc, #12]	; 8010514 <vPortEnableVFP+0x10>
 8010508:	6801      	ldr	r1, [r0, #0]
 801050a:	f441 0170 	orr.w	r1, r1, #15728640	; 0xf00000
 801050e:	6001      	str	r1, [r0, #0]
 8010510:	4770      	bx	lr
 8010512:	0000      	.short	0x0000
 8010514:	e000ed88 	.word	0xe000ed88

08010518 <pxPortInitialiseStack>:
 8010518:	f04f 7380 	mov.w	r3, #16777216	; 0x1000000
 801051c:	e900 000a 	stmdb	r0, {r1, r3}
 8010520:	f240 53b9 	movw	r3, #1465	; 0x5b9
 8010524:	f6c0 0301 	movt	r3, #2049	; 0x801
 8010528:	f06f 0102 	mvn.w	r1, #2
 801052c:	f840 3c0c 	str.w	r3, [r0, #-12]
 8010530:	f840 2c20 	str.w	r2, [r0, #-32]
 8010534:	f840 1c24 	str.w	r1, [r0, #-36]
 8010538:	3844      	subs	r0, #68	; 0x44
 801053a:	4770      	bx	lr

0801053c <SVC_Handler>:
 801053c:	4b06      	ldr	r3, [pc, #24]	; (8010558 <pxCurrentTCBConst2>)
 801053e:	6819      	ldr	r1, [r3, #0]
 8010540:	6808      	ldr	r0, [r1, #0]
 8010542:	e8b0 4ff0 	ldmia.w	r0!, {r4, r5, r6, r7, r8, r9, sl, fp, lr}
 8010546:	f380 8809 	msr	PSP, r0
 801054a:	f3bf 8f6f 	isb	sy
 801054e:	f04f 0000 	mov.w	r0, #0
 8010552:	f380 8811 	msr	BASEPRI, r0
 8010556:	4770      	bx	lr

08010558 <pxCurrentTCBConst2>:
 8010558:	100009e0 	.word	0x100009e0

0801055c <vPortYield>:
 801055c:	f64e 5304 	movw	r3, #60676	; 0xed04
 8010560:	f2ce 0300 	movt	r3, #57344	; 0xe000
 8010564:	f04f 5280 	mov.w	r2, #268435456	; 0x10000000
 8010568:	601a      	str	r2, [r3, #0]
 801056a:	f3bf 8f4f 	dsb	sy
 801056e:	f3bf 8f6f 	isb	sy
 8010572:	4770      	bx	lr

08010574 <ulPortSetInterruptMask>:
 8010574:	f3ef 8011 	mrs	r0, BASEPRI
 8010578:	f04f 0150 	mov.w	r1, #80	; 0x50
 801057c:	f381 8811 	msr	BASEPRI, r1
 8010580:	4770      	bx	lr
 8010582:	2000      	movs	r0, #0

08010584 <vPortEnterCritical>:
 8010584:	b508      	push	{r3, lr}
 8010586:	f7ff fff5 	bl	8010574 <ulPortSetInterruptMask>
 801058a:	4a0a      	ldr	r2, [pc, #40]	; (80105b4 <vPortEnterCritical+0x30>)
 801058c:	6813      	ldr	r3, [r2, #0]
 801058e:	1c58      	adds	r0, r3, #1
 8010590:	6010      	str	r0, [r2, #0]
 8010592:	f3bf 8f4f 	dsb	sy
 8010596:	f3bf 8f6f 	isb	sy
 801059a:	2801      	cmp	r0, #1
 801059c:	d000      	beq.n	80105a0 <vPortEnterCritical+0x1c>
 801059e:	bd08      	pop	{r3, pc}
 80105a0:	f64e 5104 	movw	r1, #60676	; 0xed04
 80105a4:	f2ce 0100 	movt	r1, #57344	; 0xe000
 80105a8:	680a      	ldr	r2, [r1, #0]
 80105aa:	06d3      	lsls	r3, r2, #27
 80105ac:	d0f7      	beq.n	801059e <vPortEnterCritical+0x1a>
 80105ae:	f7ff ffe1 	bl	8010574 <ulPortSetInterruptMask>
 80105b2:	e7fe      	b.n	80105b2 <vPortEnterCritical+0x2e>
 80105b4:	10000024 	.word	0x10000024

080105b8 <prvTaskExitError>:
 80105b8:	b508      	push	{r3, lr}
 80105ba:	4b05      	ldr	r3, [pc, #20]	; (80105d0 <prvTaskExitError+0x18>)
 80105bc:	6818      	ldr	r0, [r3, #0]
 80105be:	1c43      	adds	r3, r0, #1
 80105c0:	d002      	beq.n	80105c8 <prvTaskExitError+0x10>
 80105c2:	f7ff ffd7 	bl	8010574 <ulPortSetInterruptMask>
 80105c6:	e7fe      	b.n	80105c6 <prvTaskExitError+0xe>
 80105c8:	f7ff ffd4 	bl	8010574 <ulPortSetInterruptMask>
 80105cc:	e7fe      	b.n	80105cc <prvTaskExitError+0x14>
 80105ce:	bf00      	nop
 80105d0:	10000024 	.word	0x10000024

080105d4 <vPortClearInterruptMask>:
 80105d4:	f380 8811 	msr	BASEPRI, r0
 80105d8:	4770      	bx	lr
 80105da:	bf00      	nop

080105dc <vPortExitCritical>:
 80105dc:	b508      	push	{r3, lr}
 80105de:	4b07      	ldr	r3, [pc, #28]	; (80105fc <vPortExitCritical+0x20>)
 80105e0:	6818      	ldr	r0, [r3, #0]
 80105e2:	b118      	cbz	r0, 80105ec <vPortExitCritical+0x10>
 80105e4:	3801      	subs	r0, #1
 80105e6:	6018      	str	r0, [r3, #0]
 80105e8:	b118      	cbz	r0, 80105f2 <vPortExitCritical+0x16>
 80105ea:	bd08      	pop	{r3, pc}
 80105ec:	f7ff ffc2 	bl	8010574 <ulPortSetInterruptMask>
 80105f0:	e7fe      	b.n	80105f0 <vPortExitCritical+0x14>
 80105f2:	e8bd 4008 	ldmia.w	sp!, {r3, lr}
 80105f6:	f7ff bfed 	b.w	80105d4 <vPortClearInterruptMask>
 80105fa:	bf00      	nop
 80105fc:	10000024 	.word	0x10000024

08010600 <PendSV_Handler>:
 8010600:	f3ef 8009 	mrs	r0, PSP
 8010604:	f3bf 8f6f 	isb	sy
 8010608:	4b12      	ldr	r3, [pc, #72]	; (8010654 <pxCurrentTCBConst>)
 801060a:	681a      	ldr	r2, [r3, #0]
 801060c:	f01e 0f10 	tst.w	lr, #16
 8010610:	bf08      	it	eq
 8010612:	ed20 8a10 	vstmdbeq	r0!, {s16-s31}
 8010616:	e920 4ff0 	stmdb	r0!, {r4, r5, r6, r7, r8, r9, sl, fp, lr}
 801061a:	6010      	str	r0, [r2, #0]
 801061c:	f84d 3d04 	str.w	r3, [sp, #-4]!
 8010620:	f04f 0050 	mov.w	r0, #80	; 0x50
 8010624:	f380 8811 	msr	BASEPRI, r0
 8010628:	f7fe fe38 	bl	800f29c <vTaskSwitchContext>
 801062c:	f04f 0000 	mov.w	r0, #0
 8010630:	f380 8811 	msr	BASEPRI, r0
 8010634:	bc08      	pop	{r3}
 8010636:	6819      	ldr	r1, [r3, #0]
 8010638:	6808      	ldr	r0, [r1, #0]
 801063a:	e8b0 4ff0 	ldmia.w	r0!, {r4, r5, r6, r7, r8, r9, sl, fp, lr}
 801063e:	f01e 0f10 	tst.w	lr, #16
 8010642:	bf08      	it	eq
 8010644:	ecb0 8a10 	vldmiaeq	r0!, {s16-s31}
 8010648:	f380 8809 	msr	PSP, r0
 801064c:	f3bf 8f6f 	isb	sy
 8010650:	4770      	bx	lr
 8010652:	bf00      	nop

08010654 <pxCurrentTCBConst>:
 8010654:	100009e0 	.word	0x100009e0

08010658 <SysTick_Handler>:
 8010658:	b508      	push	{r3, lr}
 801065a:	f7ff ff8b 	bl	8010574 <ulPortSetInterruptMask>
 801065e:	f7fe fcaf 	bl	800efc0 <xTaskIncrementTick>
 8010662:	b130      	cbz	r0, 8010672 <SysTick_Handler+0x1a>
 8010664:	f64e 5304 	movw	r3, #60676	; 0xed04
 8010668:	f2ce 0300 	movt	r3, #57344	; 0xe000
 801066c:	f04f 5280 	mov.w	r2, #268435456	; 0x10000000
 8010670:	601a      	str	r2, [r3, #0]
 8010672:	2000      	movs	r0, #0
 8010674:	e8bd 4008 	ldmia.w	sp!, {r3, lr}
 8010678:	f7ff bfac 	b.w	80105d4 <vPortClearInterruptMask>

0801067c <vPortSetupTimerInterrupt>:
 801067c:	f240 0320 	movw	r3, #32
 8010680:	f2c1 0300 	movt	r3, #4096	; 0x1000
 8010684:	f644 52d3 	movw	r2, #19923	; 0x4dd3
 8010688:	6819      	ldr	r1, [r3, #0]
 801068a:	f2c1 0262 	movt	r2, #4194	; 0x1062
 801068e:	fba2 3001 	umull	r3, r0, r2, r1
 8010692:	f24e 0214 	movw	r2, #57364	; 0xe014
 8010696:	f2ce 0200 	movt	r2, #57344	; 0xe000
 801069a:	f24e 0310 	movw	r3, #57360	; 0xe010
 801069e:	0981      	lsrs	r1, r0, #6
 80106a0:	f2ce 0300 	movt	r3, #57344	; 0xe000
 80106a4:	1e48      	subs	r0, r1, #1
 80106a6:	6010      	str	r0, [r2, #0]
 80106a8:	2207      	movs	r2, #7
 80106aa:	601a      	str	r2, [r3, #0]
 80106ac:	4770      	bx	lr
 80106ae:	bf00      	nop

080106b0 <xPortStartScheduler>:
 80106b0:	b510      	push	{r4, lr}
 80106b2:	f44f 4364 	mov.w	r3, #58368	; 0xe400
 80106b6:	f2ce 0300 	movt	r3, #57344	; 0xe000
 80106ba:	b082      	sub	sp, #8
 80106bc:	781a      	ldrb	r2, [r3, #0]
 80106be:	4825      	ldr	r0, [pc, #148]	; (8010754 <xPortStartScheduler+0xa4>)
 80106c0:	9201      	str	r2, [sp, #4]
 80106c2:	21ff      	movs	r1, #255	; 0xff
 80106c4:	7019      	strb	r1, [r3, #0]
 80106c6:	781c      	ldrb	r4, [r3, #0]
 80106c8:	4923      	ldr	r1, [pc, #140]	; (8010758 <xPortStartScheduler+0xa8>)
 80106ca:	f88d 4003 	strb.w	r4, [sp, #3]
 80106ce:	f89d 3003 	ldrb.w	r3, [sp, #3]
 80106d2:	f89d 2003 	ldrb.w	r2, [sp, #3]
 80106d6:	f003 0450 	and.w	r4, r3, #80	; 0x50
 80106da:	700c      	strb	r4, [r1, #0]
 80106dc:	2307      	movs	r3, #7
 80106de:	0611      	lsls	r1, r2, #24
 80106e0:	6003      	str	r3, [r0, #0]
 80106e2:	d50d      	bpl.n	8010700 <xPortStartScheduler+0x50>
 80106e4:	2306      	movs	r3, #6
 80106e6:	e000      	b.n	80106ea <xPortStartScheduler+0x3a>
 80106e8:	4623      	mov	r3, r4
 80106ea:	f89d 2003 	ldrb.w	r2, [sp, #3]
 80106ee:	0054      	lsls	r4, r2, #1
 80106f0:	b2e1      	uxtb	r1, r4
 80106f2:	f88d 1003 	strb.w	r1, [sp, #3]
 80106f6:	f89d 2003 	ldrb.w	r2, [sp, #3]
 80106fa:	1e5c      	subs	r4, r3, #1
 80106fc:	0612      	lsls	r2, r2, #24
 80106fe:	d4f3      	bmi.n	80106e8 <xPortStartScheduler+0x38>
 8010700:	9c01      	ldr	r4, [sp, #4]
 8010702:	f44f 4164 	mov.w	r1, #58368	; 0xe400
 8010706:	f2ce 0100 	movt	r1, #57344	; 0xe000
 801070a:	021b      	lsls	r3, r3, #8
 801070c:	f64e 5220 	movw	r2, #60704	; 0xed20
 8010710:	f2ce 0200 	movt	r2, #57344	; 0xe000
 8010714:	f403 63e0 	and.w	r3, r3, #1792	; 0x700
 8010718:	b2e4      	uxtb	r4, r4
 801071a:	6003      	str	r3, [r0, #0]
 801071c:	700c      	strb	r4, [r1, #0]
 801071e:	6810      	ldr	r0, [r2, #0]
 8010720:	f440 0170 	orr.w	r1, r0, #15728640	; 0xf00000
 8010724:	6011      	str	r1, [r2, #0]
 8010726:	6813      	ldr	r3, [r2, #0]
 8010728:	f043 4470 	orr.w	r4, r3, #4026531840	; 0xf0000000
 801072c:	6014      	str	r4, [r2, #0]
 801072e:	f7ff ffa5 	bl	801067c <vPortSetupTimerInterrupt>
 8010732:	480a      	ldr	r0, [pc, #40]	; (801075c <xPortStartScheduler+0xac>)
 8010734:	2200      	movs	r2, #0
 8010736:	6002      	str	r2, [r0, #0]
 8010738:	f7ff fee4 	bl	8010504 <vPortEnableVFP>
 801073c:	f64e 7134 	movw	r1, #61236	; 0xef34
 8010740:	f2ce 0100 	movt	r1, #57344	; 0xe000
 8010744:	680b      	ldr	r3, [r1, #0]
 8010746:	f043 4440 	orr.w	r4, r3, #3221225472	; 0xc0000000
 801074a:	600c      	str	r4, [r1, #0]
 801074c:	f7ff feca 	bl	80104e4 <prvPortStartFirstTask>
 8010750:	f7ff ff32 	bl	80105b8 <prvTaskExitError>
 8010754:	10000b04 	.word	0x10000b04
 8010758:	10000b00 	.word	0x10000b00
 801075c:	10000024 	.word	0x10000024

08010760 <vPortValidateInterruptPriority>:
 8010760:	b508      	push	{r3, lr}
 8010762:	f3ef 8205 	mrs	r2, IPSR
 8010766:	2a0f      	cmp	r2, #15
 8010768:	d908      	bls.n	801077c <vPortValidateInterruptPriority+0x1c>
 801076a:	f24e 33f0 	movw	r3, #58352	; 0xe3f0
 801076e:	f2ce 0300 	movt	r3, #57344	; 0xe000
 8010772:	490b      	ldr	r1, [pc, #44]	; (80107a0 <vPortValidateInterruptPriority+0x40>)
 8010774:	5cd0      	ldrb	r0, [r2, r3]
 8010776:	780a      	ldrb	r2, [r1, #0]
 8010778:	4282      	cmp	r2, r0
 801077a:	d80e      	bhi.n	801079a <vPortValidateInterruptPriority+0x3a>
 801077c:	f64e 530c 	movw	r3, #60684	; 0xed0c
 8010780:	f2ce 0300 	movt	r3, #57344	; 0xe000
 8010784:	4907      	ldr	r1, [pc, #28]	; (80107a4 <vPortValidateInterruptPriority+0x44>)
 8010786:	6818      	ldr	r0, [r3, #0]
 8010788:	680b      	ldr	r3, [r1, #0]
 801078a:	f400 62e0 	and.w	r2, r0, #1792	; 0x700
 801078e:	429a      	cmp	r2, r3
 8010790:	d800      	bhi.n	8010794 <vPortValidateInterruptPriority+0x34>
 8010792:	bd08      	pop	{r3, pc}
 8010794:	f7ff feee 	bl	8010574 <ulPortSetInterruptMask>
 8010798:	e7fe      	b.n	8010798 <vPortValidateInterruptPriority+0x38>
 801079a:	f7ff feeb 	bl	8010574 <ulPortSetInterruptMask>
 801079e:	e7fe      	b.n	801079e <vPortValidateInterruptPriority+0x3e>
 80107a0:	10000b00 	.word	0x10000b00
 80107a4:	10000b04 	.word	0x10000b04

080107a8 <pvPortMalloc>:
 80107a8:	b510      	push	{r4, lr}
 80107aa:	4604      	mov	r4, r0
 80107ac:	f7fe fbf4 	bl	800ef98 <vTaskSuspendAll>
 80107b0:	4620      	mov	r0, r4
 80107b2:	f000 f869 	bl	8010888 <malloc>
 80107b6:	4604      	mov	r4, r0
 80107b8:	f7fe fcb6 	bl	800f128 <xTaskResumeAll>
 80107bc:	b10c      	cbz	r4, 80107c2 <pvPortMalloc+0x1a>
 80107be:	4620      	mov	r0, r4
 80107c0:	bd10      	pop	{r4, pc}
 80107c2:	f7fe fa89 	bl	800ecd8 <vApplicationMallocFailedHook>
 80107c6:	4620      	mov	r0, r4
 80107c8:	bd10      	pop	{r4, pc}
 80107ca:	bf00      	nop

080107cc <vPortFree>:
 80107cc:	b510      	push	{r4, lr}
 80107ce:	4604      	mov	r4, r0
 80107d0:	b140      	cbz	r0, 80107e4 <vPortFree+0x18>
 80107d2:	f7fe fbe1 	bl	800ef98 <vTaskSuspendAll>
 80107d6:	4620      	mov	r0, r4
 80107d8:	f000 f85e 	bl	8010898 <free>
 80107dc:	e8bd 4010 	ldmia.w	sp!, {r4, lr}
 80107e0:	f7fe bca2 	b.w	800f128 <xTaskResumeAll>
 80107e4:	bd10      	pop	{r4, pc}
 80107e6:	bf00      	nop

080107e8 <__errno>:
 80107e8:	f240 4350 	movw	r3, #1104	; 0x450
 80107ec:	f2c1 0300 	movt	r3, #4096	; 0x1000
 80107f0:	6818      	ldr	r0, [r3, #0]
 80107f2:	4770      	bx	lr

080107f4 <__libc_init_array>:
 80107f4:	b5f8      	push	{r3, r4, r5, r6, r7, lr}
 80107f6:	4f20      	ldr	r7, [pc, #128]	; (8010878 <__libc_init_array+0x84>)
 80107f8:	4c20      	ldr	r4, [pc, #128]	; (801087c <__libc_init_array+0x88>)
 80107fa:	1b38      	subs	r0, r7, r4
 80107fc:	1087      	asrs	r7, r0, #2
 80107fe:	d017      	beq.n	8010830 <__libc_init_array+0x3c>
 8010800:	1e7a      	subs	r2, r7, #1
 8010802:	6823      	ldr	r3, [r4, #0]
 8010804:	2501      	movs	r5, #1
 8010806:	f002 0601 	and.w	r6, r2, #1
 801080a:	4798      	blx	r3
 801080c:	42af      	cmp	r7, r5
 801080e:	d00f      	beq.n	8010830 <__libc_init_array+0x3c>
 8010810:	b12e      	cbz	r6, 801081e <__libc_init_array+0x2a>
 8010812:	f854 1f04 	ldr.w	r1, [r4, #4]!
 8010816:	2502      	movs	r5, #2
 8010818:	4788      	blx	r1
 801081a:	42af      	cmp	r7, r5
 801081c:	d008      	beq.n	8010830 <__libc_init_array+0x3c>
 801081e:	6860      	ldr	r0, [r4, #4]
 8010820:	4780      	blx	r0
 8010822:	3502      	adds	r5, #2
 8010824:	68a2      	ldr	r2, [r4, #8]
 8010826:	1d26      	adds	r6, r4, #4
 8010828:	4790      	blx	r2
 801082a:	3408      	adds	r4, #8
 801082c:	42af      	cmp	r7, r5
 801082e:	d1f6      	bne.n	801081e <__libc_init_array+0x2a>
 8010830:	4f13      	ldr	r7, [pc, #76]	; (8010880 <__libc_init_array+0x8c>)
 8010832:	4c14      	ldr	r4, [pc, #80]	; (8010884 <__libc_init_array+0x90>)
 8010834:	f005 f89c 	bl	8015970 <_init>
 8010838:	1b3b      	subs	r3, r7, r4
 801083a:	109f      	asrs	r7, r3, #2
 801083c:	d018      	beq.n	8010870 <__libc_init_array+0x7c>
 801083e:	1e7d      	subs	r5, r7, #1
 8010840:	6821      	ldr	r1, [r4, #0]
 8010842:	f005 0601 	and.w	r6, r5, #1
 8010846:	2501      	movs	r5, #1
 8010848:	4788      	blx	r1
 801084a:	42af      	cmp	r7, r5
 801084c:	d011      	beq.n	8010872 <__libc_init_array+0x7e>
 801084e:	b12e      	cbz	r6, 801085c <__libc_init_array+0x68>
 8010850:	f854 0f04 	ldr.w	r0, [r4, #4]!
 8010854:	2502      	movs	r5, #2
 8010856:	4780      	blx	r0
 8010858:	42af      	cmp	r7, r5
 801085a:	d00b      	beq.n	8010874 <__libc_init_array+0x80>
 801085c:	6862      	ldr	r2, [r4, #4]
 801085e:	4790      	blx	r2
 8010860:	3502      	adds	r5, #2
 8010862:	68a3      	ldr	r3, [r4, #8]
 8010864:	1d26      	adds	r6, r4, #4
 8010866:	4798      	blx	r3
 8010868:	3408      	adds	r4, #8
 801086a:	42af      	cmp	r7, r5
 801086c:	d1f6      	bne.n	801085c <__libc_init_array+0x68>
 801086e:	bdf8      	pop	{r3, r4, r5, r6, r7, pc}
 8010870:	bdf8      	pop	{r3, r4, r5, r6, r7, pc}
 8010872:	bdf8      	pop	{r3, r4, r5, r6, r7, pc}
 8010874:	bdf8      	pop	{r3, r4, r5, r6, r7, pc}
 8010876:	bf00      	nop
 8010878:	08000188 	.word	0x08000188
 801087c:	08000188 	.word	0x08000188
 8010880:	08000194 	.word	0x08000194
 8010884:	08000188 	.word	0x08000188

08010888 <malloc>:
 8010888:	f240 4350 	movw	r3, #1104	; 0x450
 801088c:	f2c1 0300 	movt	r3, #4096	; 0x1000
 8010890:	4601      	mov	r1, r0
 8010892:	6818      	ldr	r0, [r3, #0]
 8010894:	f000 b808 	b.w	80108a8 <_malloc_r>

08010898 <free>:
 8010898:	f240 4350 	movw	r3, #1104	; 0x450
 801089c:	f2c1 0300 	movt	r3, #4096	; 0x1000
 80108a0:	4601      	mov	r1, r0
 80108a2:	6818      	ldr	r0, [r3, #0]
 80108a4:	f003 bdf8 	b.w	8014498 <_free_r>

080108a8 <_malloc_r>:
 80108a8:	e92d 4ff0 	stmdb	sp!, {r4, r5, r6, r7, r8, r9, sl, fp, lr}
 80108ac:	f101 050b 	add.w	r5, r1, #11
 80108b0:	2d16      	cmp	r5, #22
 80108b2:	b083      	sub	sp, #12
 80108b4:	4606      	mov	r6, r0
 80108b6:	d927      	bls.n	8010908 <_malloc_r+0x60>
 80108b8:	f035 0507 	bics.w	r5, r5, #7
 80108bc:	d427      	bmi.n	801090e <_malloc_r+0x66>
 80108be:	42a9      	cmp	r1, r5
 80108c0:	d825      	bhi.n	801090e <_malloc_r+0x66>
 80108c2:	4630      	mov	r0, r6
 80108c4:	f000 fcfe 	bl	80112c4 <__malloc_lock>
 80108c8:	f5b5 7ffc 	cmp.w	r5, #504	; 0x1f8
 80108cc:	d223      	bcs.n	8010916 <_malloc_r+0x6e>
 80108ce:	4fba      	ldr	r7, [pc, #744]	; (8010bb8 <_malloc_r+0x310>)
 80108d0:	ea4f 0cd5 	mov.w	ip, r5, lsr #3
 80108d4:	eb07 02cc 	add.w	r2, r7, ip, lsl #3
 80108d8:	68d4      	ldr	r4, [r2, #12]
 80108da:	4294      	cmp	r4, r2
 80108dc:	f000 81de 	beq.w	8010c9c <_malloc_r+0x3f4>
 80108e0:	6863      	ldr	r3, [r4, #4]
 80108e2:	68e2      	ldr	r2, [r4, #12]
 80108e4:	68a1      	ldr	r1, [r4, #8]
 80108e6:	f023 0003 	bic.w	r0, r3, #3
 80108ea:	1823      	adds	r3, r4, r0
 80108ec:	60ca      	str	r2, [r1, #12]
 80108ee:	6858      	ldr	r0, [r3, #4]
 80108f0:	6091      	str	r1, [r2, #8]
 80108f2:	f040 0201 	orr.w	r2, r0, #1
 80108f6:	605a      	str	r2, [r3, #4]
 80108f8:	4630      	mov	r0, r6
 80108fa:	f000 fce5 	bl	80112c8 <__malloc_unlock>
 80108fe:	3408      	adds	r4, #8
 8010900:	4620      	mov	r0, r4
 8010902:	b003      	add	sp, #12
 8010904:	e8bd 8ff0 	ldmia.w	sp!, {r4, r5, r6, r7, r8, r9, sl, fp, pc}
 8010908:	2510      	movs	r5, #16
 801090a:	42a9      	cmp	r1, r5
 801090c:	d9d9      	bls.n	80108c2 <_malloc_r+0x1a>
 801090e:	240c      	movs	r4, #12
 8010910:	6034      	str	r4, [r6, #0]
 8010912:	2400      	movs	r4, #0
 8010914:	e7f4      	b.n	8010900 <_malloc_r+0x58>
 8010916:	ea5f 2c55 	movs.w	ip, r5, lsr #9
 801091a:	f000 808b 	beq.w	8010a34 <_malloc_r+0x18c>
 801091e:	f1bc 0f04 	cmp.w	ip, #4
 8010922:	f200 8155 	bhi.w	8010bd0 <_malloc_r+0x328>
 8010926:	ea4f 1795 	mov.w	r7, r5, lsr #6
 801092a:	f107 0e38 	add.w	lr, r7, #56	; 0x38
 801092e:	ea4f 014e 	mov.w	r1, lr, lsl #1
 8010932:	4fa1      	ldr	r7, [pc, #644]	; (8010bb8 <_malloc_r+0x310>)
 8010934:	eb07 0181 	add.w	r1, r7, r1, lsl #2
 8010938:	68cc      	ldr	r4, [r1, #12]
 801093a:	42a1      	cmp	r1, r4
 801093c:	d105      	bne.n	801094a <_malloc_r+0xa2>
 801093e:	e00c      	b.n	801095a <_malloc_r+0xb2>
 8010940:	2a00      	cmp	r2, #0
 8010942:	da7c      	bge.n	8010a3e <_malloc_r+0x196>
 8010944:	68e4      	ldr	r4, [r4, #12]
 8010946:	42a1      	cmp	r1, r4
 8010948:	d007      	beq.n	801095a <_malloc_r+0xb2>
 801094a:	6863      	ldr	r3, [r4, #4]
 801094c:	f023 0003 	bic.w	r0, r3, #3
 8010950:	1b42      	subs	r2, r0, r5
 8010952:	2a0f      	cmp	r2, #15
 8010954:	ddf4      	ble.n	8010940 <_malloc_r+0x98>
 8010956:	f10e 3eff 	add.w	lr, lr, #4294967295
 801095a:	f10e 0c01 	add.w	ip, lr, #1
 801095e:	4b96      	ldr	r3, [pc, #600]	; (8010bb8 <_malloc_r+0x310>)
 8010960:	693c      	ldr	r4, [r7, #16]
 8010962:	f103 0e08 	add.w	lr, r3, #8
 8010966:	4574      	cmp	r4, lr
 8010968:	f000 8175 	beq.w	8010c56 <_malloc_r+0x3ae>
 801096c:	6861      	ldr	r1, [r4, #4]
 801096e:	f021 0103 	bic.w	r1, r1, #3
 8010972:	1b4a      	subs	r2, r1, r5
 8010974:	2a0f      	cmp	r2, #15
 8010976:	f300 815b 	bgt.w	8010c30 <_malloc_r+0x388>
 801097a:	2a00      	cmp	r2, #0
 801097c:	f8c3 e014 	str.w	lr, [r3, #20]
 8010980:	f8c3 e010 	str.w	lr, [r3, #16]
 8010984:	da69      	bge.n	8010a5a <_malloc_r+0x1b2>
 8010986:	f5b1 7f00 	cmp.w	r1, #512	; 0x200
 801098a:	f080 812f 	bcs.w	8010bec <_malloc_r+0x344>
 801098e:	08ca      	lsrs	r2, r1, #3
 8010990:	eb03 01c2 	add.w	r1, r3, r2, lsl #3
 8010994:	f04f 0901 	mov.w	r9, #1
 8010998:	1092      	asrs	r2, r2, #2
 801099a:	fa09 f902 	lsl.w	r9, r9, r2
 801099e:	685a      	ldr	r2, [r3, #4]
 80109a0:	6888      	ldr	r0, [r1, #8]
 80109a2:	60e1      	str	r1, [r4, #12]
 80109a4:	ea49 0902 	orr.w	r9, r9, r2
 80109a8:	60a0      	str	r0, [r4, #8]
 80109aa:	f8c3 9004 	str.w	r9, [r3, #4]
 80109ae:	608c      	str	r4, [r1, #8]
 80109b0:	60c4      	str	r4, [r0, #12]
 80109b2:	2001      	movs	r0, #1
 80109b4:	ea4f 04ac 	mov.w	r4, ip, asr #2
 80109b8:	fa00 f004 	lsl.w	r0, r0, r4
 80109bc:	4548      	cmp	r0, r9
 80109be:	d856      	bhi.n	8010a6e <_malloc_r+0x1c6>
 80109c0:	ea19 0f00 	tst.w	r9, r0
 80109c4:	d107      	bne.n	80109d6 <_malloc_r+0x12e>
 80109c6:	f02c 0c03 	bic.w	ip, ip, #3
 80109ca:	0040      	lsls	r0, r0, #1
 80109cc:	ea19 0f00 	tst.w	r9, r0
 80109d0:	f10c 0c04 	add.w	ip, ip, #4
 80109d4:	d0f9      	beq.n	80109ca <_malloc_r+0x122>
 80109d6:	eb07 09cc 	add.w	r9, r7, ip, lsl #3
 80109da:	464c      	mov	r4, r9
 80109dc:	46e0      	mov	r8, ip
 80109de:	68e3      	ldr	r3, [r4, #12]
 80109e0:	429c      	cmp	r4, r3
 80109e2:	d107      	bne.n	80109f4 <_malloc_r+0x14c>
 80109e4:	e13a      	b.n	8010c5c <_malloc_r+0x3b4>
 80109e6:	2a00      	cmp	r2, #0
 80109e8:	f280 8162 	bge.w	8010cb0 <_malloc_r+0x408>
 80109ec:	68db      	ldr	r3, [r3, #12]
 80109ee:	429c      	cmp	r4, r3
 80109f0:	f000 8134 	beq.w	8010c5c <_malloc_r+0x3b4>
 80109f4:	6859      	ldr	r1, [r3, #4]
 80109f6:	f021 0103 	bic.w	r1, r1, #3
 80109fa:	1b4a      	subs	r2, r1, r5
 80109fc:	2a0f      	cmp	r2, #15
 80109fe:	ddf2      	ble.n	80109e6 <_malloc_r+0x13e>
 8010a00:	461c      	mov	r4, r3
 8010a02:	1959      	adds	r1, r3, r5
 8010a04:	68d8      	ldr	r0, [r3, #12]
 8010a06:	f854 cf08 	ldr.w	ip, [r4, #8]!
 8010a0a:	508a      	str	r2, [r1, r2]
 8010a0c:	f045 0501 	orr.w	r5, r5, #1
 8010a10:	f042 0201 	orr.w	r2, r2, #1
 8010a14:	f8cc 000c 	str.w	r0, [ip, #12]
 8010a18:	f8c0 c008 	str.w	ip, [r0, #8]
 8010a1c:	605d      	str	r5, [r3, #4]
 8010a1e:	6179      	str	r1, [r7, #20]
 8010a20:	6139      	str	r1, [r7, #16]
 8010a22:	f8c1 e00c 	str.w	lr, [r1, #12]
 8010a26:	f8c1 e008 	str.w	lr, [r1, #8]
 8010a2a:	604a      	str	r2, [r1, #4]
 8010a2c:	4630      	mov	r0, r6
 8010a2e:	f000 fc4b 	bl	80112c8 <__malloc_unlock>
 8010a32:	e765      	b.n	8010900 <_malloc_r+0x58>
 8010a34:	ea4f 0ed5 	mov.w	lr, r5, lsr #3
 8010a38:	ea4f 014e 	mov.w	r1, lr, lsl #1
 8010a3c:	e779      	b.n	8010932 <_malloc_r+0x8a>
 8010a3e:	1822      	adds	r2, r4, r0
 8010a40:	68e3      	ldr	r3, [r4, #12]
 8010a42:	6850      	ldr	r0, [r2, #4]
 8010a44:	68a1      	ldr	r1, [r4, #8]
 8010a46:	f040 0001 	orr.w	r0, r0, #1
 8010a4a:	6050      	str	r0, [r2, #4]
 8010a4c:	60cb      	str	r3, [r1, #12]
 8010a4e:	6099      	str	r1, [r3, #8]
 8010a50:	4630      	mov	r0, r6
 8010a52:	f000 fc39 	bl	80112c8 <__malloc_unlock>
 8010a56:	3408      	adds	r4, #8
 8010a58:	e752      	b.n	8010900 <_malloc_r+0x58>
 8010a5a:	1861      	adds	r1, r4, r1
 8010a5c:	4630      	mov	r0, r6
 8010a5e:	684b      	ldr	r3, [r1, #4]
 8010a60:	f043 0201 	orr.w	r2, r3, #1
 8010a64:	604a      	str	r2, [r1, #4]
 8010a66:	f000 fc2f 	bl	80112c8 <__malloc_unlock>
 8010a6a:	3408      	adds	r4, #8
 8010a6c:	e748      	b.n	8010900 <_malloc_r+0x58>
 8010a6e:	68bc      	ldr	r4, [r7, #8]
 8010a70:	6860      	ldr	r0, [r4, #4]
 8010a72:	f020 0903 	bic.w	r9, r0, #3
 8010a76:	45a9      	cmp	r9, r5
 8010a78:	d304      	bcc.n	8010a84 <_malloc_r+0x1dc>
 8010a7a:	ebc5 0309 	rsb	r3, r5, r9
 8010a7e:	2b0f      	cmp	r3, #15
 8010a80:	f300 808d 	bgt.w	8010b9e <_malloc_r+0x2f6>
 8010a84:	4a4d      	ldr	r2, [pc, #308]	; (8010bbc <_malloc_r+0x314>)
 8010a86:	4b4e      	ldr	r3, [pc, #312]	; (8010bc0 <_malloc_r+0x318>)
 8010a88:	6811      	ldr	r1, [r2, #0]
 8010a8a:	6818      	ldr	r0, [r3, #0]
 8010a8c:	3101      	adds	r1, #1
 8010a8e:	eb04 0b09 	add.w	fp, r4, r9
 8010a92:	eb05 0300 	add.w	r3, r5, r0
 8010a96:	f000 815a 	beq.w	8010d4e <_malloc_r+0x4a6>
 8010a9a:	f503 5080 	add.w	r0, r3, #4096	; 0x1000
 8010a9e:	300f      	adds	r0, #15
 8010aa0:	f420 617f 	bic.w	r1, r0, #4080	; 0xff0
 8010aa4:	f021 0c0f 	bic.w	ip, r1, #15
 8010aa8:	4661      	mov	r1, ip
 8010aaa:	4630      	mov	r0, r6
 8010aac:	e88d 1004 	stmia.w	sp, {r2, ip}
 8010ab0:	f000 fc0c 	bl	80112cc <_sbrk_r>
 8010ab4:	f1b0 3fff 	cmp.w	r0, #4294967295
 8010ab8:	4680      	mov	r8, r0
 8010aba:	e89d 1004 	ldmia.w	sp, {r2, ip}
 8010abe:	f000 8152 	beq.w	8010d66 <_malloc_r+0x4be>
 8010ac2:	4583      	cmp	fp, r0
 8010ac4:	f200 810f 	bhi.w	8010ce6 <_malloc_r+0x43e>
 8010ac8:	f8df a100 	ldr.w	sl, [pc, #256]	; 8010bcc <_malloc_r+0x324>
 8010acc:	f8da 3000 	ldr.w	r3, [sl]
 8010ad0:	45c3      	cmp	fp, r8
 8010ad2:	4463      	add	r3, ip
 8010ad4:	f8ca 3000 	str.w	r3, [sl]
 8010ad8:	f000 814a 	beq.w	8010d70 <_malloc_r+0x4c8>
 8010adc:	6812      	ldr	r2, [r2, #0]
 8010ade:	3201      	adds	r2, #1
 8010ae0:	f000 8157 	beq.w	8010d92 <_malloc_r+0x4ea>
 8010ae4:	ebcb 0b08 	rsb	fp, fp, r8
 8010ae8:	445b      	add	r3, fp
 8010aea:	f8ca 3000 	str.w	r3, [sl]
 8010aee:	f018 0107 	ands.w	r1, r8, #7
 8010af2:	f000 810b 	beq.w	8010d0c <_malloc_r+0x464>
 8010af6:	f1c1 0008 	rsb	r0, r1, #8
 8010afa:	f5c1 5380 	rsb	r3, r1, #4096	; 0x1000
 8010afe:	4480      	add	r8, r0
 8010b00:	f103 0208 	add.w	r2, r3, #8
 8010b04:	eb08 010c 	add.w	r1, r8, ip
 8010b08:	0508      	lsls	r0, r1, #20
 8010b0a:	0d03      	lsrs	r3, r0, #20
 8010b0c:	ebc3 0b02 	rsb	fp, r3, r2
 8010b10:	4630      	mov	r0, r6
 8010b12:	4659      	mov	r1, fp
 8010b14:	f000 fbda 	bl	80112cc <_sbrk_r>
 8010b18:	1c43      	adds	r3, r0, #1
 8010b1a:	f000 8146 	beq.w	8010daa <_malloc_r+0x502>
 8010b1e:	ebc8 0200 	rsb	r2, r8, r0
 8010b22:	eb0b 0102 	add.w	r1, fp, r2
 8010b26:	f041 0001 	orr.w	r0, r1, #1
 8010b2a:	f8da 3000 	ldr.w	r3, [sl]
 8010b2e:	f8c7 8008 	str.w	r8, [r7, #8]
 8010b32:	445b      	add	r3, fp
 8010b34:	42bc      	cmp	r4, r7
 8010b36:	f8ca 3000 	str.w	r3, [sl]
 8010b3a:	f8c8 0004 	str.w	r0, [r8, #4]
 8010b3e:	d015      	beq.n	8010b6c <_malloc_r+0x2c4>
 8010b40:	f1b9 0f0f 	cmp.w	r9, #15
 8010b44:	f240 80f2 	bls.w	8010d2c <_malloc_r+0x484>
 8010b48:	6861      	ldr	r1, [r4, #4]
 8010b4a:	f1a9 020c 	sub.w	r2, r9, #12
 8010b4e:	f022 0207 	bic.w	r2, r2, #7
 8010b52:	18a0      	adds	r0, r4, r2
 8010b54:	f001 0c01 	and.w	ip, r1, #1
 8010b58:	ea42 0e0c 	orr.w	lr, r2, ip
 8010b5c:	2105      	movs	r1, #5
 8010b5e:	2a0f      	cmp	r2, #15
 8010b60:	f8c4 e004 	str.w	lr, [r4, #4]
 8010b64:	6041      	str	r1, [r0, #4]
 8010b66:	6081      	str	r1, [r0, #8]
 8010b68:	f200 8117 	bhi.w	8010d9a <_malloc_r+0x4f2>
 8010b6c:	4a15      	ldr	r2, [pc, #84]	; (8010bc4 <_malloc_r+0x31c>)
 8010b6e:	68bc      	ldr	r4, [r7, #8]
 8010b70:	6810      	ldr	r0, [r2, #0]
 8010b72:	4283      	cmp	r3, r0
 8010b74:	bf88      	it	hi
 8010b76:	6013      	strhi	r3, [r2, #0]
 8010b78:	4a13      	ldr	r2, [pc, #76]	; (8010bc8 <_malloc_r+0x320>)
 8010b7a:	6811      	ldr	r1, [r2, #0]
 8010b7c:	428b      	cmp	r3, r1
 8010b7e:	bf88      	it	hi
 8010b80:	6013      	strhi	r3, [r2, #0]
 8010b82:	6863      	ldr	r3, [r4, #4]
 8010b84:	f023 0003 	bic.w	r0, r3, #3
 8010b88:	42a8      	cmp	r0, r5
 8010b8a:	ebc5 0300 	rsb	r3, r5, r0
 8010b8e:	d301      	bcc.n	8010b94 <_malloc_r+0x2ec>
 8010b90:	2b0f      	cmp	r3, #15
 8010b92:	dc04      	bgt.n	8010b9e <_malloc_r+0x2f6>
 8010b94:	4630      	mov	r0, r6
 8010b96:	f000 fb97 	bl	80112c8 <__malloc_unlock>
 8010b9a:	2400      	movs	r4, #0
 8010b9c:	e6b0      	b.n	8010900 <_malloc_r+0x58>
 8010b9e:	1962      	adds	r2, r4, r5
 8010ba0:	f043 0101 	orr.w	r1, r3, #1
 8010ba4:	f045 0501 	orr.w	r5, r5, #1
 8010ba8:	6065      	str	r5, [r4, #4]
 8010baa:	4630      	mov	r0, r6
 8010bac:	6051      	str	r1, [r2, #4]
 8010bae:	60ba      	str	r2, [r7, #8]
 8010bb0:	f000 fb8a 	bl	80112c8 <__malloc_unlock>
 8010bb4:	3408      	adds	r4, #8
 8010bb6:	e6a3      	b.n	8010900 <_malloc_r+0x58>
 8010bb8:	10000454 	.word	0x10000454
 8010bbc:	10000860 	.word	0x10000860
 8010bc0:	10000b10 	.word	0x10000b10
 8010bc4:	10000b0c 	.word	0x10000b0c
 8010bc8:	10000b08 	.word	0x10000b08
 8010bcc:	10000b14 	.word	0x10000b14
 8010bd0:	f1bc 0f14 	cmp.w	ip, #20
 8010bd4:	d97b      	bls.n	8010cce <_malloc_r+0x426>
 8010bd6:	f1bc 0f54 	cmp.w	ip, #84	; 0x54
 8010bda:	f200 808d 	bhi.w	8010cf8 <_malloc_r+0x450>
 8010bde:	ea4f 3415 	mov.w	r4, r5, lsr #12
 8010be2:	f104 0e6e 	add.w	lr, r4, #110	; 0x6e
 8010be6:	ea4f 014e 	mov.w	r1, lr, lsl #1
 8010bea:	e6a2      	b.n	8010932 <_malloc_r+0x8a>
 8010bec:	0a48      	lsrs	r0, r1, #9
 8010bee:	2804      	cmp	r0, #4
 8010bf0:	d972      	bls.n	8010cd8 <_malloc_r+0x430>
 8010bf2:	2814      	cmp	r0, #20
 8010bf4:	f200 80ae 	bhi.w	8010d54 <_malloc_r+0x4ac>
 8010bf8:	f100 095b 	add.w	r9, r0, #91	; 0x5b
 8010bfc:	ea4f 0249 	mov.w	r2, r9, lsl #1
 8010c00:	eb07 0082 	add.w	r0, r7, r2, lsl #2
 8010c04:	f8df 81f0 	ldr.w	r8, [pc, #496]	; 8010df8 <_malloc_r+0x550>
 8010c08:	6883      	ldr	r3, [r0, #8]
 8010c0a:	4283      	cmp	r3, r0
 8010c0c:	f000 8081 	beq.w	8010d12 <_malloc_r+0x46a>
 8010c10:	685a      	ldr	r2, [r3, #4]
 8010c12:	f022 0203 	bic.w	r2, r2, #3
 8010c16:	4291      	cmp	r1, r2
 8010c18:	d202      	bcs.n	8010c20 <_malloc_r+0x378>
 8010c1a:	689b      	ldr	r3, [r3, #8]
 8010c1c:	4298      	cmp	r0, r3
 8010c1e:	d1f7      	bne.n	8010c10 <_malloc_r+0x368>
 8010c20:	68da      	ldr	r2, [r3, #12]
 8010c22:	f8d7 9004 	ldr.w	r9, [r7, #4]
 8010c26:	60e2      	str	r2, [r4, #12]
 8010c28:	60a3      	str	r3, [r4, #8]
 8010c2a:	60dc      	str	r4, [r3, #12]
 8010c2c:	6094      	str	r4, [r2, #8]
 8010c2e:	e6c0      	b.n	80109b2 <_malloc_r+0x10a>
 8010c30:	1961      	adds	r1, r4, r5
 8010c32:	f042 0001 	orr.w	r0, r2, #1
 8010c36:	f045 0501 	orr.w	r5, r5, #1
 8010c3a:	6065      	str	r5, [r4, #4]
 8010c3c:	6159      	str	r1, [r3, #20]
 8010c3e:	6119      	str	r1, [r3, #16]
 8010c40:	6048      	str	r0, [r1, #4]
 8010c42:	f8c1 e00c 	str.w	lr, [r1, #12]
 8010c46:	f8c1 e008 	str.w	lr, [r1, #8]
 8010c4a:	508a      	str	r2, [r1, r2]
 8010c4c:	4630      	mov	r0, r6
 8010c4e:	f000 fb3b 	bl	80112c8 <__malloc_unlock>
 8010c52:	3408      	adds	r4, #8
 8010c54:	e654      	b.n	8010900 <_malloc_r+0x58>
 8010c56:	f8d3 9004 	ldr.w	r9, [r3, #4]
 8010c5a:	e6aa      	b.n	80109b2 <_malloc_r+0x10a>
 8010c5c:	f108 0801 	add.w	r8, r8, #1
 8010c60:	3408      	adds	r4, #8
 8010c62:	f018 0f03 	tst.w	r8, #3
 8010c66:	f47f aeba 	bne.w	80109de <_malloc_r+0x136>
 8010c6a:	4649      	mov	r1, r9
 8010c6c:	f01c 0f03 	tst.w	ip, #3
 8010c70:	f1a1 0408 	sub.w	r4, r1, #8
 8010c74:	f10c 3cff 	add.w	ip, ip, #4294967295
 8010c78:	f000 80b0 	beq.w	8010ddc <_malloc_r+0x534>
 8010c7c:	6809      	ldr	r1, [r1, #0]
 8010c7e:	42a1      	cmp	r1, r4
 8010c80:	d0f4      	beq.n	8010c6c <_malloc_r+0x3c4>
 8010c82:	687c      	ldr	r4, [r7, #4]
 8010c84:	0040      	lsls	r0, r0, #1
 8010c86:	42a0      	cmp	r0, r4
 8010c88:	f63f aef1 	bhi.w	8010a6e <_malloc_r+0x1c6>
 8010c8c:	2800      	cmp	r0, #0
 8010c8e:	f43f aeee 	beq.w	8010a6e <_malloc_r+0x1c6>
 8010c92:	4204      	tst	r4, r0
 8010c94:	f000 80a7 	beq.w	8010de6 <_malloc_r+0x53e>
 8010c98:	46c4      	mov	ip, r8
 8010c9a:	e69c      	b.n	80109d6 <_malloc_r+0x12e>
 8010c9c:	f104 0308 	add.w	r3, r4, #8
 8010ca0:	6964      	ldr	r4, [r4, #20]
 8010ca2:	42a3      	cmp	r3, r4
 8010ca4:	bf08      	it	eq
 8010ca6:	f10c 0c02 	addeq.w	ip, ip, #2
 8010caa:	f43f ae58 	beq.w	801095e <_malloc_r+0xb6>
 8010cae:	e617      	b.n	80108e0 <_malloc_r+0x38>
 8010cb0:	1859      	adds	r1, r3, r1
 8010cb2:	461c      	mov	r4, r3
 8010cb4:	6848      	ldr	r0, [r1, #4]
 8010cb6:	68db      	ldr	r3, [r3, #12]
 8010cb8:	f854 2f08 	ldr.w	r2, [r4, #8]!
 8010cbc:	f040 0001 	orr.w	r0, r0, #1
 8010cc0:	6048      	str	r0, [r1, #4]
 8010cc2:	60d3      	str	r3, [r2, #12]
 8010cc4:	609a      	str	r2, [r3, #8]
 8010cc6:	4630      	mov	r0, r6
 8010cc8:	f000 fafe 	bl	80112c8 <__malloc_unlock>
 8010ccc:	e618      	b.n	8010900 <_malloc_r+0x58>
 8010cce:	f10c 0e5b 	add.w	lr, ip, #91	; 0x5b
 8010cd2:	ea4f 014e 	mov.w	r1, lr, lsl #1
 8010cd6:	e62c      	b.n	8010932 <_malloc_r+0x8a>
 8010cd8:	ea4f 1891 	mov.w	r8, r1, lsr #6
 8010cdc:	f108 0938 	add.w	r9, r8, #56	; 0x38
 8010ce0:	ea4f 0249 	mov.w	r2, r9, lsl #1
 8010ce4:	e78c      	b.n	8010c00 <_malloc_r+0x358>
 8010ce6:	42bc      	cmp	r4, r7
 8010ce8:	f43f aeee 	beq.w	8010ac8 <_malloc_r+0x220>
 8010cec:	4c42      	ldr	r4, [pc, #264]	; (8010df8 <_malloc_r+0x550>)
 8010cee:	68a4      	ldr	r4, [r4, #8]
 8010cf0:	6862      	ldr	r2, [r4, #4]
 8010cf2:	f022 0003 	bic.w	r0, r2, #3
 8010cf6:	e747      	b.n	8010b88 <_malloc_r+0x2e0>
 8010cf8:	f5bc 7faa 	cmp.w	ip, #340	; 0x154
 8010cfc:	d81c      	bhi.n	8010d38 <_malloc_r+0x490>
 8010cfe:	ea4f 32d5 	mov.w	r2, r5, lsr #15
 8010d02:	f102 0e77 	add.w	lr, r2, #119	; 0x77
 8010d06:	ea4f 014e 	mov.w	r1, lr, lsl #1
 8010d0a:	e612      	b.n	8010932 <_malloc_r+0x8a>
 8010d0c:	f44f 5280 	mov.w	r2, #4096	; 0x1000
 8010d10:	e6f8      	b.n	8010b04 <_malloc_r+0x25c>
 8010d12:	f8d8 0004 	ldr.w	r0, [r8, #4]
 8010d16:	ea4f 02a9 	mov.w	r2, r9, asr #2
 8010d1a:	2101      	movs	r1, #1
 8010d1c:	fa01 f202 	lsl.w	r2, r1, r2
 8010d20:	ea42 0900 	orr.w	r9, r2, r0
 8010d24:	f8c8 9004 	str.w	r9, [r8, #4]
 8010d28:	461a      	mov	r2, r3
 8010d2a:	e77c      	b.n	8010c26 <_malloc_r+0x37e>
 8010d2c:	2201      	movs	r2, #1
 8010d2e:	f8c8 2004 	str.w	r2, [r8, #4]
 8010d32:	4644      	mov	r4, r8
 8010d34:	2000      	movs	r0, #0
 8010d36:	e727      	b.n	8010b88 <_malloc_r+0x2e0>
 8010d38:	f240 5354 	movw	r3, #1364	; 0x554
 8010d3c:	459c      	cmp	ip, r3
 8010d3e:	d824      	bhi.n	8010d8a <_malloc_r+0x4e2>
 8010d40:	ea4f 4095 	mov.w	r0, r5, lsr #18
 8010d44:	f100 0e7c 	add.w	lr, r0, #124	; 0x7c
 8010d48:	ea4f 014e 	mov.w	r1, lr, lsl #1
 8010d4c:	e5f1      	b.n	8010932 <_malloc_r+0x8a>
 8010d4e:	f103 0c10 	add.w	ip, r3, #16
 8010d52:	e6a9      	b.n	8010aa8 <_malloc_r+0x200>
 8010d54:	2854      	cmp	r0, #84	; 0x54
 8010d56:	d82c      	bhi.n	8010db2 <_malloc_r+0x50a>
 8010d58:	ea4f 3211 	mov.w	r2, r1, lsr #12
 8010d5c:	f102 096e 	add.w	r9, r2, #110	; 0x6e
 8010d60:	ea4f 0249 	mov.w	r2, r9, lsl #1
 8010d64:	e74c      	b.n	8010c00 <_malloc_r+0x358>
 8010d66:	68bc      	ldr	r4, [r7, #8]
 8010d68:	6861      	ldr	r1, [r4, #4]
 8010d6a:	f021 0003 	bic.w	r0, r1, #3
 8010d6e:	e70b      	b.n	8010b88 <_malloc_r+0x2e0>
 8010d70:	ea4f 500b 	mov.w	r0, fp, lsl #20
 8010d74:	0d01      	lsrs	r1, r0, #20
 8010d76:	2900      	cmp	r1, #0
 8010d78:	f47f aeb0 	bne.w	8010adc <_malloc_r+0x234>
 8010d7c:	68b8      	ldr	r0, [r7, #8]
 8010d7e:	eb0c 0109 	add.w	r1, ip, r9
 8010d82:	f041 0401 	orr.w	r4, r1, #1
 8010d86:	6044      	str	r4, [r0, #4]
 8010d88:	e6f0      	b.n	8010b6c <_malloc_r+0x2c4>
 8010d8a:	21fc      	movs	r1, #252	; 0xfc
 8010d8c:	f04f 0e7e 	mov.w	lr, #126	; 0x7e
 8010d90:	e5cf      	b.n	8010932 <_malloc_r+0x8a>
 8010d92:	481a      	ldr	r0, [pc, #104]	; (8010dfc <_malloc_r+0x554>)
 8010d94:	f8c0 8000 	str.w	r8, [r0]
 8010d98:	e6a9      	b.n	8010aee <_malloc_r+0x246>
 8010d9a:	f104 0108 	add.w	r1, r4, #8
 8010d9e:	4c18      	ldr	r4, [pc, #96]	; (8010e00 <_malloc_r+0x558>)
 8010da0:	4630      	mov	r0, r6
 8010da2:	f003 fb79 	bl	8014498 <_free_r>
 8010da6:	6823      	ldr	r3, [r4, #0]
 8010da8:	e6e0      	b.n	8010b6c <_malloc_r+0x2c4>
 8010daa:	2001      	movs	r0, #1
 8010dac:	f04f 0b00 	mov.w	fp, #0
 8010db0:	e6bb      	b.n	8010b2a <_malloc_r+0x282>
 8010db2:	f5b0 7faa 	cmp.w	r0, #340	; 0x154
 8010db6:	d806      	bhi.n	8010dc6 <_malloc_r+0x51e>
 8010db8:	ea4f 33d1 	mov.w	r3, r1, lsr #15
 8010dbc:	f103 0977 	add.w	r9, r3, #119	; 0x77
 8010dc0:	ea4f 0249 	mov.w	r2, r9, lsl #1
 8010dc4:	e71c      	b.n	8010c00 <_malloc_r+0x358>
 8010dc6:	f240 5354 	movw	r3, #1364	; 0x554
 8010dca:	4298      	cmp	r0, r3
 8010dcc:	d80f      	bhi.n	8010dee <_malloc_r+0x546>
 8010dce:	ea4f 4091 	mov.w	r0, r1, lsr #18
 8010dd2:	f100 097c 	add.w	r9, r0, #124	; 0x7c
 8010dd6:	ea4f 0249 	mov.w	r2, r9, lsl #1
 8010dda:	e711      	b.n	8010c00 <_malloc_r+0x358>
 8010ddc:	687c      	ldr	r4, [r7, #4]
 8010dde:	ea24 0400 	bic.w	r4, r4, r0
 8010de2:	607c      	str	r4, [r7, #4]
 8010de4:	e74e      	b.n	8010c84 <_malloc_r+0x3dc>
 8010de6:	0040      	lsls	r0, r0, #1
 8010de8:	f108 0804 	add.w	r8, r8, #4
 8010dec:	e751      	b.n	8010c92 <_malloc_r+0x3ea>
 8010dee:	22fc      	movs	r2, #252	; 0xfc
 8010df0:	f04f 097e 	mov.w	r9, #126	; 0x7e
 8010df4:	e704      	b.n	8010c00 <_malloc_r+0x358>
 8010df6:	bf00      	nop
 8010df8:	10000454 	.word	0x10000454
 8010dfc:	10000860 	.word	0x10000860
 8010e00:	10000b14 	.word	0x10000b14

08010e04 <memcmp>:
 8010e04:	2a03      	cmp	r2, #3
 8010e06:	b4f0      	push	{r4, r5, r6, r7}
 8010e08:	d931      	bls.n	8010e6e <memcmp+0x6a>
 8010e0a:	ea41 0300 	orr.w	r3, r1, r0
 8010e0e:	079c      	lsls	r4, r3, #30
 8010e10:	d12e      	bne.n	8010e70 <memcmp+0x6c>
 8010e12:	6806      	ldr	r6, [r0, #0]
 8010e14:	680f      	ldr	r7, [r1, #0]
 8010e16:	1f15      	subs	r5, r2, #4
 8010e18:	1d03      	adds	r3, r0, #4
 8010e1a:	1d0c      	adds	r4, r1, #4
 8010e1c:	42be      	cmp	r6, r7
 8010e1e:	f3c5 0c80 	ubfx	ip, r5, #2, #1
 8010e22:	d124      	bne.n	8010e6e <memcmp+0x6a>
 8010e24:	2d03      	cmp	r5, #3
 8010e26:	462a      	mov	r2, r5
 8010e28:	d91f      	bls.n	8010e6a <memcmp+0x66>
 8010e2a:	f1bc 0f00 	cmp.w	ip, #0
 8010e2e:	d008      	beq.n	8010e42 <memcmp+0x3e>
 8010e30:	6825      	ldr	r5, [r4, #0]
 8010e32:	681e      	ldr	r6, [r3, #0]
 8010e34:	4621      	mov	r1, r4
 8010e36:	4618      	mov	r0, r3
 8010e38:	3404      	adds	r4, #4
 8010e3a:	3304      	adds	r3, #4
 8010e3c:	42ae      	cmp	r6, r5
 8010e3e:	d011      	beq.n	8010e64 <memcmp+0x60>
 8010e40:	e015      	b.n	8010e6e <memcmp+0x6a>
 8010e42:	4618      	mov	r0, r3
 8010e44:	4621      	mov	r1, r4
 8010e46:	6823      	ldr	r3, [r4, #0]
 8010e48:	6804      	ldr	r4, [r0, #0]
 8010e4a:	1d05      	adds	r5, r0, #4
 8010e4c:	1d0e      	adds	r6, r1, #4
 8010e4e:	429c      	cmp	r4, r3
 8010e50:	d10d      	bne.n	8010e6e <memcmp+0x6a>
 8010e52:	4628      	mov	r0, r5
 8010e54:	4631      	mov	r1, r6
 8010e56:	6835      	ldr	r5, [r6, #0]
 8010e58:	6806      	ldr	r6, [r0, #0]
 8010e5a:	3a04      	subs	r2, #4
 8010e5c:	1d03      	adds	r3, r0, #4
 8010e5e:	1d0c      	adds	r4, r1, #4
 8010e60:	42ae      	cmp	r6, r5
 8010e62:	d104      	bne.n	8010e6e <memcmp+0x6a>
 8010e64:	3a04      	subs	r2, #4
 8010e66:	2a03      	cmp	r2, #3
 8010e68:	d8eb      	bhi.n	8010e42 <memcmp+0x3e>
 8010e6a:	4621      	mov	r1, r4
 8010e6c:	4618      	mov	r0, r3
 8010e6e:	b31a      	cbz	r2, 8010eb8 <memcmp+0xb4>
 8010e70:	7803      	ldrb	r3, [r0, #0]
 8010e72:	780c      	ldrb	r4, [r1, #0]
 8010e74:	42a3      	cmp	r3, r4
 8010e76:	d10a      	bne.n	8010e8e <memcmp+0x8a>
 8010e78:	1e55      	subs	r5, r2, #1
 8010e7a:	2200      	movs	r2, #0
 8010e7c:	07eb      	lsls	r3, r5, #31
 8010e7e:	d514      	bpl.n	8010eaa <memcmp+0xa6>
 8010e80:	f810 3f01 	ldrb.w	r3, [r0, #1]!
 8010e84:	f811 4f01 	ldrb.w	r4, [r1, #1]!
 8010e88:	2201      	movs	r2, #1
 8010e8a:	42a3      	cmp	r3, r4
 8010e8c:	d00d      	beq.n	8010eaa <memcmp+0xa6>
 8010e8e:	1b18      	subs	r0, r3, r4
 8010e90:	e010      	b.n	8010eb4 <memcmp+0xb0>
 8010e92:	f810 3f01 	ldrb.w	r3, [r0, #1]!
 8010e96:	f811 4f01 	ldrb.w	r4, [r1, #1]!
 8010e9a:	42a3      	cmp	r3, r4
 8010e9c:	d1f7      	bne.n	8010e8e <memcmp+0x8a>
 8010e9e:	f810 3f01 	ldrb.w	r3, [r0, #1]!
 8010ea2:	f811 4f01 	ldrb.w	r4, [r1, #1]!
 8010ea6:	42a3      	cmp	r3, r4
 8010ea8:	d1f1      	bne.n	8010e8e <memcmp+0x8a>
 8010eaa:	42aa      	cmp	r2, r5
 8010eac:	f102 0202 	add.w	r2, r2, #2
 8010eb0:	d1ef      	bne.n	8010e92 <memcmp+0x8e>
 8010eb2:	2000      	movs	r0, #0
 8010eb4:	bcf0      	pop	{r4, r5, r6, r7}
 8010eb6:	4770      	bx	lr
 8010eb8:	4610      	mov	r0, r2
 8010eba:	e7fb      	b.n	8010eb4 <memcmp+0xb0>

08010ebc <memcpy>:
 8010ebc:	2a0f      	cmp	r2, #15
 8010ebe:	e92d 03f0 	stmdb	sp!, {r4, r5, r6, r7, r8, r9}
 8010ec2:	f240 8095 	bls.w	8010ff0 <memcpy+0x134>
 8010ec6:	ea41 0300 	orr.w	r3, r1, r0
 8010eca:	079b      	lsls	r3, r3, #30
 8010ecc:	f040 8092 	bne.w	8010ff4 <memcpy+0x138>
 8010ed0:	680c      	ldr	r4, [r1, #0]
 8010ed2:	6004      	str	r4, [r0, #0]
 8010ed4:	684d      	ldr	r5, [r1, #4]
 8010ed6:	6045      	str	r5, [r0, #4]
 8010ed8:	688e      	ldr	r6, [r1, #8]
 8010eda:	f1a2 0310 	sub.w	r3, r2, #16
 8010ede:	6086      	str	r6, [r0, #8]
 8010ee0:	68cc      	ldr	r4, [r1, #12]
 8010ee2:	461d      	mov	r5, r3
 8010ee4:	2d0f      	cmp	r5, #15
 8010ee6:	60c4      	str	r4, [r0, #12]
 8010ee8:	f3c3 1600 	ubfx	r6, r3, #4, #1
 8010eec:	f101 0410 	add.w	r4, r1, #16
 8010ef0:	f100 0310 	add.w	r3, r0, #16
 8010ef4:	d922      	bls.n	8010f3c <memcpy+0x80>
 8010ef6:	b166      	cbz	r6, 8010f12 <memcpy+0x56>
 8010ef8:	6826      	ldr	r6, [r4, #0]
 8010efa:	601e      	str	r6, [r3, #0]
 8010efc:	6866      	ldr	r6, [r4, #4]
 8010efe:	605e      	str	r6, [r3, #4]
 8010f00:	68a6      	ldr	r6, [r4, #8]
 8010f02:	609e      	str	r6, [r3, #8]
 8010f04:	68e6      	ldr	r6, [r4, #12]
 8010f06:	3d10      	subs	r5, #16
 8010f08:	60de      	str	r6, [r3, #12]
 8010f0a:	3410      	adds	r4, #16
 8010f0c:	3310      	adds	r3, #16
 8010f0e:	2d0f      	cmp	r5, #15
 8010f10:	d914      	bls.n	8010f3c <memcpy+0x80>
 8010f12:	6826      	ldr	r6, [r4, #0]
 8010f14:	601e      	str	r6, [r3, #0]
 8010f16:	6866      	ldr	r6, [r4, #4]
 8010f18:	605e      	str	r6, [r3, #4]
 8010f1a:	68a6      	ldr	r6, [r4, #8]
 8010f1c:	609e      	str	r6, [r3, #8]
 8010f1e:	68e6      	ldr	r6, [r4, #12]
 8010f20:	60de      	str	r6, [r3, #12]
 8010f22:	6926      	ldr	r6, [r4, #16]
 8010f24:	611e      	str	r6, [r3, #16]
 8010f26:	6966      	ldr	r6, [r4, #20]
 8010f28:	615e      	str	r6, [r3, #20]
 8010f2a:	69a6      	ldr	r6, [r4, #24]
 8010f2c:	619e      	str	r6, [r3, #24]
 8010f2e:	69e6      	ldr	r6, [r4, #28]
 8010f30:	3d20      	subs	r5, #32
 8010f32:	61de      	str	r6, [r3, #28]
 8010f34:	3420      	adds	r4, #32
 8010f36:	3320      	adds	r3, #32
 8010f38:	2d0f      	cmp	r5, #15
 8010f3a:	d8ea      	bhi.n	8010f12 <memcpy+0x56>
 8010f3c:	f1a2 0310 	sub.w	r3, r2, #16
 8010f40:	f023 040f 	bic.w	r4, r3, #15
 8010f44:	f002 030f 	and.w	r3, r2, #15
 8010f48:	3410      	adds	r4, #16
 8010f4a:	2b03      	cmp	r3, #3
 8010f4c:	eb00 0804 	add.w	r8, r0, r4
 8010f50:	4421      	add	r1, r4
 8010f52:	d951      	bls.n	8010ff8 <memcpy+0x13c>
 8010f54:	f1a3 0904 	sub.w	r9, r3, #4
 8010f58:	460b      	mov	r3, r1
 8010f5a:	ea4f 0999 	mov.w	r9, r9, lsr #2
 8010f5e:	eb01 0c89 	add.w	ip, r1, r9, lsl #2
 8010f62:	f853 6b04 	ldr.w	r6, [r3], #4
 8010f66:	ebc1 050c 	rsb	r5, r1, ip
 8010f6a:	4644      	mov	r4, r8
 8010f6c:	f10c 0c04 	add.w	ip, ip, #4
 8010f70:	4563      	cmp	r3, ip
 8010f72:	f844 6b04 	str.w	r6, [r4], #4
 8010f76:	f3c5 0580 	ubfx	r5, r5, #2, #1
 8010f7a:	d012      	beq.n	8010fa2 <memcpy+0xe6>
 8010f7c:	b12d      	cbz	r5, 8010f8a <memcpy+0xce>
 8010f7e:	f853 5b04 	ldr.w	r5, [r3], #4
 8010f82:	4563      	cmp	r3, ip
 8010f84:	f844 5b04 	str.w	r5, [r4], #4
 8010f88:	d00b      	beq.n	8010fa2 <memcpy+0xe6>
 8010f8a:	461e      	mov	r6, r3
 8010f8c:	4625      	mov	r5, r4
 8010f8e:	f856 7b04 	ldr.w	r7, [r6], #4
 8010f92:	f845 7b04 	str.w	r7, [r5], #4
 8010f96:	685f      	ldr	r7, [r3, #4]
 8010f98:	1d33      	adds	r3, r6, #4
 8010f9a:	6067      	str	r7, [r4, #4]
 8010f9c:	1d2c      	adds	r4, r5, #4
 8010f9e:	4563      	cmp	r3, ip
 8010fa0:	d1f3      	bne.n	8010f8a <memcpy+0xce>
 8010fa2:	f109 0301 	add.w	r3, r9, #1
 8010fa6:	009c      	lsls	r4, r3, #2
 8010fa8:	1909      	adds	r1, r1, r4
 8010faa:	f002 0203 	and.w	r2, r2, #3
 8010fae:	4444      	add	r4, r8
 8010fb0:	b1da      	cbz	r2, 8010fea <memcpy+0x12e>
 8010fb2:	4623      	mov	r3, r4
 8010fb4:	780d      	ldrb	r5, [r1, #0]
 8010fb6:	f803 5b01 	strb.w	r5, [r3], #1
 8010fba:	18a2      	adds	r2, r4, r2
 8010fbc:	43e4      	mvns	r4, r4
 8010fbe:	1914      	adds	r4, r2, r4
 8010fc0:	4293      	cmp	r3, r2
 8010fc2:	f004 0401 	and.w	r4, r4, #1
 8010fc6:	d010      	beq.n	8010fea <memcpy+0x12e>
 8010fc8:	b12c      	cbz	r4, 8010fd6 <memcpy+0x11a>
 8010fca:	f811 4f01 	ldrb.w	r4, [r1, #1]!
 8010fce:	f803 4b01 	strb.w	r4, [r3], #1
 8010fd2:	4293      	cmp	r3, r2
 8010fd4:	d009      	beq.n	8010fea <memcpy+0x12e>
 8010fd6:	784d      	ldrb	r5, [r1, #1]
 8010fd8:	461c      	mov	r4, r3
 8010fda:	f804 5b01 	strb.w	r5, [r4], #1
 8010fde:	788d      	ldrb	r5, [r1, #2]
 8010fe0:	705d      	strb	r5, [r3, #1]
 8010fe2:	1c63      	adds	r3, r4, #1
 8010fe4:	3102      	adds	r1, #2
 8010fe6:	4293      	cmp	r3, r2
 8010fe8:	d1f5      	bne.n	8010fd6 <memcpy+0x11a>
 8010fea:	e8bd 03f0 	ldmia.w	sp!, {r4, r5, r6, r7, r8, r9}
 8010fee:	4770      	bx	lr
 8010ff0:	4604      	mov	r4, r0
 8010ff2:	e7dd      	b.n	8010fb0 <memcpy+0xf4>
 8010ff4:	4604      	mov	r4, r0
 8010ff6:	e7dc      	b.n	8010fb2 <memcpy+0xf6>
 8010ff8:	4644      	mov	r4, r8
 8010ffa:	461a      	mov	r2, r3
 8010ffc:	e7d8      	b.n	8010fb0 <memcpy+0xf4>
 8010ffe:	bf00      	nop

08011000 <memmove>:
 8011000:	4288      	cmp	r0, r1
 8011002:	e92d 03f0 	stmdb	sp!, {r4, r5, r6, r7, r8, r9}
 8011006:	d926      	bls.n	8011056 <memmove+0x56>
 8011008:	188c      	adds	r4, r1, r2
 801100a:	42a0      	cmp	r0, r4
 801100c:	d223      	bcs.n	8011056 <memmove+0x56>
 801100e:	1883      	adds	r3, r0, r2
 8011010:	1e55      	subs	r5, r2, #1
 8011012:	b1ea      	cbz	r2, 8011050 <memmove+0x50>
 8011014:	4622      	mov	r2, r4
 8011016:	f005 0401 	and.w	r4, r5, #1
 801101a:	f812 1d01 	ldrb.w	r1, [r2, #-1]!
 801101e:	f803 1d01 	strb.w	r1, [r3, #-1]!
 8011022:	1e69      	subs	r1, r5, #1
 8011024:	b1a5      	cbz	r5, 8011050 <memmove+0x50>
 8011026:	b13c      	cbz	r4, 8011038 <memmove+0x38>
 8011028:	f812 4d01 	ldrb.w	r4, [r2, #-1]!
 801102c:	3901      	subs	r1, #1
 801102e:	f1b1 3fff 	cmp.w	r1, #4294967295
 8011032:	f803 4d01 	strb.w	r4, [r3, #-1]!
 8011036:	d00b      	beq.n	8011050 <memmove+0x50>
 8011038:	f812 4d01 	ldrb.w	r4, [r2, #-1]!
 801103c:	f803 4d01 	strb.w	r4, [r3, #-1]!
 8011040:	3902      	subs	r1, #2
 8011042:	f812 4d01 	ldrb.w	r4, [r2, #-1]!
 8011046:	f1b1 3fff 	cmp.w	r1, #4294967295
 801104a:	f803 4d01 	strb.w	r4, [r3, #-1]!
 801104e:	d1f3      	bne.n	8011038 <memmove+0x38>
 8011050:	e8bd 03f0 	ldmia.w	sp!, {r4, r5, r6, r7, r8, r9}
 8011054:	4770      	bx	lr
 8011056:	2a0f      	cmp	r2, #15
 8011058:	f240 8096 	bls.w	8011188 <memmove+0x188>
 801105c:	ea41 0300 	orr.w	r3, r1, r0
 8011060:	079b      	lsls	r3, r3, #30
 8011062:	f040 8093 	bne.w	801118c <memmove+0x18c>
 8011066:	680c      	ldr	r4, [r1, #0]
 8011068:	6004      	str	r4, [r0, #0]
 801106a:	684d      	ldr	r5, [r1, #4]
 801106c:	6045      	str	r5, [r0, #4]
 801106e:	688e      	ldr	r6, [r1, #8]
 8011070:	f1a2 0310 	sub.w	r3, r2, #16
 8011074:	6086      	str	r6, [r0, #8]
 8011076:	68cc      	ldr	r4, [r1, #12]
 8011078:	461d      	mov	r5, r3
 801107a:	2d0f      	cmp	r5, #15
 801107c:	60c4      	str	r4, [r0, #12]
 801107e:	f3c3 1600 	ubfx	r6, r3, #4, #1
 8011082:	f101 0410 	add.w	r4, r1, #16
 8011086:	f100 0310 	add.w	r3, r0, #16
 801108a:	d922      	bls.n	80110d2 <memmove+0xd2>
 801108c:	b166      	cbz	r6, 80110a8 <memmove+0xa8>
 801108e:	6826      	ldr	r6, [r4, #0]
 8011090:	601e      	str	r6, [r3, #0]
 8011092:	6866      	ldr	r6, [r4, #4]
 8011094:	605e      	str	r6, [r3, #4]
 8011096:	68a6      	ldr	r6, [r4, #8]
 8011098:	609e      	str	r6, [r3, #8]
 801109a:	68e6      	ldr	r6, [r4, #12]
 801109c:	3d10      	subs	r5, #16
 801109e:	60de      	str	r6, [r3, #12]
 80110a0:	3410      	adds	r4, #16
 80110a2:	3310      	adds	r3, #16
 80110a4:	2d0f      	cmp	r5, #15
 80110a6:	d914      	bls.n	80110d2 <memmove+0xd2>
 80110a8:	6826      	ldr	r6, [r4, #0]
 80110aa:	601e      	str	r6, [r3, #0]
 80110ac:	6866      	ldr	r6, [r4, #4]
 80110ae:	605e      	str	r6, [r3, #4]
 80110b0:	68a6      	ldr	r6, [r4, #8]
 80110b2:	609e      	str	r6, [r3, #8]
 80110b4:	68e6      	ldr	r6, [r4, #12]
 80110b6:	60de      	str	r6, [r3, #12]
 80110b8:	6926      	ldr	r6, [r4, #16]
 80110ba:	611e      	str	r6, [r3, #16]
 80110bc:	6966      	ldr	r6, [r4, #20]
 80110be:	615e      	str	r6, [r3, #20]
 80110c0:	69a6      	ldr	r6, [r4, #24]
 80110c2:	619e      	str	r6, [r3, #24]
 80110c4:	69e6      	ldr	r6, [r4, #28]
 80110c6:	3d20      	subs	r5, #32
 80110c8:	61de      	str	r6, [r3, #28]
 80110ca:	3420      	adds	r4, #32
 80110cc:	3320      	adds	r3, #32
 80110ce:	2d0f      	cmp	r5, #15
 80110d0:	d8ea      	bhi.n	80110a8 <memmove+0xa8>
 80110d2:	f1a2 0310 	sub.w	r3, r2, #16
 80110d6:	f023 040f 	bic.w	r4, r3, #15
 80110da:	f002 030f 	and.w	r3, r2, #15
 80110de:	3410      	adds	r4, #16
 80110e0:	2b03      	cmp	r3, #3
 80110e2:	eb00 0804 	add.w	r8, r0, r4
 80110e6:	4421      	add	r1, r4
 80110e8:	d952      	bls.n	8011190 <memmove+0x190>
 80110ea:	f1a3 0904 	sub.w	r9, r3, #4
 80110ee:	460b      	mov	r3, r1
 80110f0:	ea4f 0999 	mov.w	r9, r9, lsr #2
 80110f4:	eb01 0c89 	add.w	ip, r1, r9, lsl #2
 80110f8:	f853 6b04 	ldr.w	r6, [r3], #4
 80110fc:	ebc1 050c 	rsb	r5, r1, ip
 8011100:	4644      	mov	r4, r8
 8011102:	f10c 0c04 	add.w	ip, ip, #4
 8011106:	4563      	cmp	r3, ip
 8011108:	f844 6b04 	str.w	r6, [r4], #4
 801110c:	f3c5 0580 	ubfx	r5, r5, #2, #1
 8011110:	d012      	beq.n	8011138 <memmove+0x138>
 8011112:	b12d      	cbz	r5, 8011120 <memmove+0x120>
 8011114:	f853 5b04 	ldr.w	r5, [r3], #4
 8011118:	4563      	cmp	r3, ip
 801111a:	f844 5b04 	str.w	r5, [r4], #4
 801111e:	d00b      	beq.n	8011138 <memmove+0x138>
 8011120:	461e      	mov	r6, r3
 8011122:	4625      	mov	r5, r4
 8011124:	f856 7b04 	ldr.w	r7, [r6], #4
 8011128:	f845 7b04 	str.w	r7, [r5], #4
 801112c:	685f      	ldr	r7, [r3, #4]
 801112e:	1d33      	adds	r3, r6, #4
 8011130:	6067      	str	r7, [r4, #4]
 8011132:	1d2c      	adds	r4, r5, #4
 8011134:	4563      	cmp	r3, ip
 8011136:	d1f3      	bne.n	8011120 <memmove+0x120>
 8011138:	f109 0301 	add.w	r3, r9, #1
 801113c:	009c      	lsls	r4, r3, #2
 801113e:	1909      	adds	r1, r1, r4
 8011140:	f002 0203 	and.w	r2, r2, #3
 8011144:	4444      	add	r4, r8
 8011146:	2a00      	cmp	r2, #0
 8011148:	d082      	beq.n	8011050 <memmove+0x50>
 801114a:	4623      	mov	r3, r4
 801114c:	780d      	ldrb	r5, [r1, #0]
 801114e:	f803 5b01 	strb.w	r5, [r3], #1
 8011152:	18a2      	adds	r2, r4, r2
 8011154:	43e4      	mvns	r4, r4
 8011156:	1914      	adds	r4, r2, r4
 8011158:	4293      	cmp	r3, r2
 801115a:	f004 0401 	and.w	r4, r4, #1
 801115e:	f43f af77 	beq.w	8011050 <memmove+0x50>
 8011162:	b134      	cbz	r4, 8011172 <memmove+0x172>
 8011164:	f811 4f01 	ldrb.w	r4, [r1, #1]!
 8011168:	f803 4b01 	strb.w	r4, [r3], #1
 801116c:	4293      	cmp	r3, r2
 801116e:	f43f af6f 	beq.w	8011050 <memmove+0x50>
 8011172:	784d      	ldrb	r5, [r1, #1]
 8011174:	461c      	mov	r4, r3
 8011176:	f804 5b01 	strb.w	r5, [r4], #1
 801117a:	788d      	ldrb	r5, [r1, #2]
 801117c:	705d      	strb	r5, [r3, #1]
 801117e:	1c63      	adds	r3, r4, #1
 8011180:	3102      	adds	r1, #2
 8011182:	4293      	cmp	r3, r2
 8011184:	d1f5      	bne.n	8011172 <memmove+0x172>
 8011186:	e763      	b.n	8011050 <memmove+0x50>
 8011188:	4604      	mov	r4, r0
 801118a:	e7dc      	b.n	8011146 <memmove+0x146>
 801118c:	4604      	mov	r4, r0
 801118e:	e7dc      	b.n	801114a <memmove+0x14a>
 8011190:	4644      	mov	r4, r8
 8011192:	461a      	mov	r2, r3
 8011194:	e7d7      	b.n	8011146 <memmove+0x146>
 8011196:	bf00      	nop

08011198 <memset>:
 8011198:	b4f0      	push	{r4, r5, r6, r7}
 801119a:	0784      	lsls	r4, r0, #30
 801119c:	4603      	mov	r3, r0
 801119e:	f000 808e 	beq.w	80112be <memset+0x126>
 80111a2:	1e54      	subs	r4, r2, #1
 80111a4:	2a00      	cmp	r2, #0
 80111a6:	f000 8088 	beq.w	80112ba <memset+0x122>
 80111aa:	07e5      	lsls	r5, r4, #31
 80111ac:	b2ce      	uxtb	r6, r1
 80111ae:	d411      	bmi.n	80111d4 <memset+0x3c>
 80111b0:	461a      	mov	r2, r3
 80111b2:	1e67      	subs	r7, r4, #1
 80111b4:	f802 6b01 	strb.w	r6, [r2], #1
 80111b8:	4613      	mov	r3, r2
 80111ba:	4615      	mov	r5, r2
 80111bc:	0792      	lsls	r2, r2, #30
 80111be:	d00f      	beq.n	80111e0 <memset+0x48>
 80111c0:	2c00      	cmp	r4, #0
 80111c2:	d07a      	beq.n	80112ba <memset+0x122>
 80111c4:	f803 6b01 	strb.w	r6, [r3], #1
 80111c8:	079a      	lsls	r2, r3, #30
 80111ca:	463c      	mov	r4, r7
 80111cc:	461d      	mov	r5, r3
 80111ce:	d007      	beq.n	80111e0 <memset+0x48>
 80111d0:	3c01      	subs	r4, #1
 80111d2:	e7ed      	b.n	80111b0 <memset+0x18>
 80111d4:	4603      	mov	r3, r0
 80111d6:	f803 6b01 	strb.w	r6, [r3], #1
 80111da:	079a      	lsls	r2, r3, #30
 80111dc:	461d      	mov	r5, r3
 80111de:	d1f7      	bne.n	80111d0 <memset+0x38>
 80111e0:	2c03      	cmp	r4, #3
 80111e2:	d952      	bls.n	801128a <memset+0xf2>
 80111e4:	b2ce      	uxtb	r6, r1
 80111e6:	ea46 2706 	orr.w	r7, r6, r6, lsl #8
 80111ea:	2c0f      	cmp	r4, #15
 80111ec:	ea47 4307 	orr.w	r3, r7, r7, lsl #16
 80111f0:	d92d      	bls.n	801124e <memset+0xb6>
 80111f2:	f1a4 0210 	sub.w	r2, r4, #16
 80111f6:	4617      	mov	r7, r2
 80111f8:	2f0f      	cmp	r7, #15
 80111fa:	f3c2 1600 	ubfx	r6, r2, #4, #1
 80111fe:	602b      	str	r3, [r5, #0]
 8011200:	606b      	str	r3, [r5, #4]
 8011202:	60ab      	str	r3, [r5, #8]
 8011204:	60eb      	str	r3, [r5, #12]
 8011206:	f105 0210 	add.w	r2, r5, #16
 801120a:	d916      	bls.n	801123a <memset+0xa2>
 801120c:	b13e      	cbz	r6, 801121e <memset+0x86>
 801120e:	3f10      	subs	r7, #16
 8011210:	6013      	str	r3, [r2, #0]
 8011212:	6053      	str	r3, [r2, #4]
 8011214:	6093      	str	r3, [r2, #8]
 8011216:	60d3      	str	r3, [r2, #12]
 8011218:	3210      	adds	r2, #16
 801121a:	2f0f      	cmp	r7, #15
 801121c:	d90d      	bls.n	801123a <memset+0xa2>
 801121e:	3f20      	subs	r7, #32
 8011220:	f102 0610 	add.w	r6, r2, #16
 8011224:	6013      	str	r3, [r2, #0]
 8011226:	6053      	str	r3, [r2, #4]
 8011228:	6093      	str	r3, [r2, #8]
 801122a:	60d3      	str	r3, [r2, #12]
 801122c:	6113      	str	r3, [r2, #16]
 801122e:	6153      	str	r3, [r2, #20]
 8011230:	6193      	str	r3, [r2, #24]
 8011232:	61d3      	str	r3, [r2, #28]
 8011234:	3220      	adds	r2, #32
 8011236:	2f0f      	cmp	r7, #15
 8011238:	d8f1      	bhi.n	801121e <memset+0x86>
 801123a:	f1a4 0210 	sub.w	r2, r4, #16
 801123e:	f022 020f 	bic.w	r2, r2, #15
 8011242:	f004 040f 	and.w	r4, r4, #15
 8011246:	3210      	adds	r2, #16
 8011248:	2c03      	cmp	r4, #3
 801124a:	4415      	add	r5, r2
 801124c:	d91d      	bls.n	801128a <memset+0xf2>
 801124e:	1f27      	subs	r7, r4, #4
 8011250:	463e      	mov	r6, r7
 8011252:	462a      	mov	r2, r5
 8011254:	2e03      	cmp	r6, #3
 8011256:	f842 3b04 	str.w	r3, [r2], #4
 801125a:	f3c7 0780 	ubfx	r7, r7, #2, #1
 801125e:	d90d      	bls.n	801127c <memset+0xe4>
 8011260:	b127      	cbz	r7, 801126c <memset+0xd4>
 8011262:	3e04      	subs	r6, #4
 8011264:	2e03      	cmp	r6, #3
 8011266:	f842 3b04 	str.w	r3, [r2], #4
 801126a:	d907      	bls.n	801127c <memset+0xe4>
 801126c:	4617      	mov	r7, r2
 801126e:	3e08      	subs	r6, #8
 8011270:	f847 3b04 	str.w	r3, [r7], #4
 8011274:	6053      	str	r3, [r2, #4]
 8011276:	1d3a      	adds	r2, r7, #4
 8011278:	2e03      	cmp	r6, #3
 801127a:	d8f7      	bhi.n	801126c <memset+0xd4>
 801127c:	1f23      	subs	r3, r4, #4
 801127e:	f023 0203 	bic.w	r2, r3, #3
 8011282:	1d13      	adds	r3, r2, #4
 8011284:	f004 0403 	and.w	r4, r4, #3
 8011288:	18ed      	adds	r5, r5, r3
 801128a:	b1b4      	cbz	r4, 80112ba <memset+0x122>
 801128c:	462b      	mov	r3, r5
 801128e:	b2c9      	uxtb	r1, r1
 8011290:	f803 1b01 	strb.w	r1, [r3], #1
 8011294:	192c      	adds	r4, r5, r4
 8011296:	43ed      	mvns	r5, r5
 8011298:	1962      	adds	r2, r4, r5
 801129a:	42a3      	cmp	r3, r4
 801129c:	f002 0501 	and.w	r5, r2, #1
 80112a0:	d00b      	beq.n	80112ba <memset+0x122>
 80112a2:	b11d      	cbz	r5, 80112ac <memset+0x114>
 80112a4:	f803 1b01 	strb.w	r1, [r3], #1
 80112a8:	42a3      	cmp	r3, r4
 80112aa:	d006      	beq.n	80112ba <memset+0x122>
 80112ac:	461a      	mov	r2, r3
 80112ae:	f802 1b01 	strb.w	r1, [r2], #1
 80112b2:	7059      	strb	r1, [r3, #1]
 80112b4:	1c53      	adds	r3, r2, #1
 80112b6:	42a3      	cmp	r3, r4
 80112b8:	d1f8      	bne.n	80112ac <memset+0x114>
 80112ba:	bcf0      	pop	{r4, r5, r6, r7}
 80112bc:	4770      	bx	lr
 80112be:	4605      	mov	r5, r0
 80112c0:	4614      	mov	r4, r2
 80112c2:	e78d      	b.n	80111e0 <memset+0x48>

080112c4 <__malloc_lock>:
 80112c4:	4770      	bx	lr
 80112c6:	bf00      	nop

080112c8 <__malloc_unlock>:
 80112c8:	4770      	bx	lr
 80112ca:	bf00      	nop

080112cc <_sbrk_r>:
 80112cc:	b538      	push	{r3, r4, r5, lr}
 80112ce:	4c07      	ldr	r4, [pc, #28]	; (80112ec <_sbrk_r+0x20>)
 80112d0:	2300      	movs	r3, #0
 80112d2:	4605      	mov	r5, r0
 80112d4:	4608      	mov	r0, r1
 80112d6:	6023      	str	r3, [r4, #0]
 80112d8:	f7fd fab2 	bl	800e840 <_sbrk>
 80112dc:	1c43      	adds	r3, r0, #1
 80112de:	d000      	beq.n	80112e2 <_sbrk_r+0x16>
 80112e0:	bd38      	pop	{r3, r4, r5, pc}
 80112e2:	6821      	ldr	r1, [r4, #0]
 80112e4:	2900      	cmp	r1, #0
 80112e6:	d0fb      	beq.n	80112e0 <_sbrk_r+0x14>
 80112e8:	6029      	str	r1, [r5, #0]
 80112ea:	bd38      	pop	{r3, r4, r5, pc}
 80112ec:	10000b7c 	.word	0x10000b7c

080112f0 <sprintf>:
 80112f0:	b40e      	push	{r1, r2, r3}
 80112f2:	b570      	push	{r4, r5, r6, lr}
 80112f4:	b09d      	sub	sp, #116	; 0x74
 80112f6:	ac21      	add	r4, sp, #132	; 0x84
 80112f8:	f240 4350 	movw	r3, #1104	; 0x450
 80112fc:	f854 2b04 	ldr.w	r2, [r4], #4
 8011300:	f2c1 0300 	movt	r3, #4096	; 0x1000
 8011304:	f06f 4500 	mvn.w	r5, #2147483648	; 0x80000000
 8011308:	f44f 7102 	mov.w	r1, #520	; 0x208
 801130c:	4606      	mov	r6, r0
 801130e:	f8ad 1014 	strh.w	r1, [sp, #20]
 8011312:	9504      	str	r5, [sp, #16]
 8011314:	9507      	str	r5, [sp, #28]
 8011316:	6818      	ldr	r0, [r3, #0]
 8011318:	9602      	str	r6, [sp, #8]
 801131a:	4623      	mov	r3, r4
 801131c:	a902      	add	r1, sp, #8
 801131e:	f64f 75ff 	movw	r5, #65535	; 0xffff
 8011322:	9606      	str	r6, [sp, #24]
 8011324:	f8ad 5016 	strh.w	r5, [sp, #22]
 8011328:	9401      	str	r4, [sp, #4]
 801132a:	f000 f839 	bl	80113a0 <_svfprintf_r>
 801132e:	9b02      	ldr	r3, [sp, #8]
 8011330:	2200      	movs	r2, #0
 8011332:	701a      	strb	r2, [r3, #0]
 8011334:	b01d      	add	sp, #116	; 0x74
 8011336:	e8bd 4070 	ldmia.w	sp!, {r4, r5, r6, lr}
 801133a:	b003      	add	sp, #12
 801133c:	4770      	bx	lr
 801133e:	bf00      	nop

08011340 <strlen>:
 8011340:	f020 0103 	bic.w	r1, r0, #3
 8011344:	f010 0003 	ands.w	r0, r0, #3
 8011348:	f1c0 0000 	rsb	r0, r0, #0
 801134c:	f851 3b04 	ldr.w	r3, [r1], #4
 8011350:	f100 0c04 	add.w	ip, r0, #4
 8011354:	ea4f 0ccc 	mov.w	ip, ip, lsl #3
 8011358:	f06f 0200 	mvn.w	r2, #0
 801135c:	bf1c      	itt	ne
 801135e:	fa22 f20c 	lsrne.w	r2, r2, ip
 8011362:	4313      	orrne	r3, r2
 8011364:	f04f 0c01 	mov.w	ip, #1
 8011368:	ea4c 2c0c 	orr.w	ip, ip, ip, lsl #8
 801136c:	ea4c 4c0c 	orr.w	ip, ip, ip, lsl #16
 8011370:	eba3 020c 	sub.w	r2, r3, ip
 8011374:	ea22 0203 	bic.w	r2, r2, r3
 8011378:	ea12 12cc 	ands.w	r2, r2, ip, lsl #7
 801137c:	bf04      	itt	eq
 801137e:	f851 3b04 	ldreq.w	r3, [r1], #4
 8011382:	3004      	addeq	r0, #4
 8011384:	d0f4      	beq.n	8011370 <strlen+0x30>
 8011386:	f013 0fff 	tst.w	r3, #255	; 0xff
 801138a:	bf1f      	itttt	ne
 801138c:	3001      	addne	r0, #1
 801138e:	f413 4f7f 	tstne.w	r3, #65280	; 0xff00
 8011392:	3001      	addne	r0, #1
 8011394:	f413 0f7f 	tstne.w	r3, #16711680	; 0xff0000
 8011398:	bf18      	it	ne
 801139a:	3001      	addne	r0, #1
 801139c:	4770      	bx	lr
 801139e:	bf00      	nop

080113a0 <_svfprintf_r>:
 80113a0:	e92d 4ff0 	stmdb	sp!, {r4, r5, r6, r7, r8, r9, sl, fp, lr}
 80113a4:	b0bf      	sub	sp, #252	; 0xfc
 80113a6:	4614      	mov	r4, r2
 80113a8:	9106      	str	r1, [sp, #24]
 80113aa:	930c      	str	r3, [sp, #48]	; 0x30
 80113ac:	9008      	str	r0, [sp, #32]
 80113ae:	f003 f93d 	bl	801462c <_localeconv_r>
 80113b2:	6800      	ldr	r0, [r0, #0]
 80113b4:	900f      	str	r0, [sp, #60]	; 0x3c
 80113b6:	f7ff ffc3 	bl	8011340 <strlen>
 80113ba:	9011      	str	r0, [sp, #68]	; 0x44
 80113bc:	9806      	ldr	r0, [sp, #24]
 80113be:	8983      	ldrh	r3, [r0, #12]
 80113c0:	f003 0180 	and.w	r1, r3, #128	; 0x80
 80113c4:	b20a      	sxth	r2, r1
 80113c6:	2000      	movs	r0, #0
 80113c8:	2100      	movs	r1, #0
 80113ca:	e9cd 0112 	strd	r0, r1, [sp, #72]	; 0x48
 80113ce:	b122      	cbz	r2, 80113da <_svfprintf_r+0x3a>
 80113d0:	9806      	ldr	r0, [sp, #24]
 80113d2:	6903      	ldr	r3, [r0, #16]
 80113d4:	2b00      	cmp	r3, #0
 80113d6:	f001 82cc 	beq.w	8012972 <_svfprintf_r+0x15d2>
 80113da:	2000      	movs	r0, #0
 80113dc:	ab2e      	add	r3, sp, #184	; 0xb8
 80113de:	f8df 9500 	ldr.w	r9, [pc, #1280]	; 80118e0 <_svfprintf_r+0x540>
 80113e2:	900d      	str	r0, [sp, #52]	; 0x34
 80113e4:	9303      	str	r3, [sp, #12]
 80113e6:	9321      	str	r3, [sp, #132]	; 0x84
 80113e8:	9023      	str	r0, [sp, #140]	; 0x8c
 80113ea:	9022      	str	r0, [sp, #136]	; 0x88
 80113ec:	46a2      	mov	sl, r4
 80113ee:	9014      	str	r0, [sp, #80]	; 0x50
 80113f0:	9015      	str	r0, [sp, #84]	; 0x54
 80113f2:	900b      	str	r0, [sp, #44]	; 0x2c
 80113f4:	461e      	mov	r6, r3
 80113f6:	f89a 4000 	ldrb.w	r4, [sl]
 80113fa:	2c00      	cmp	r4, #0
 80113fc:	f000 819c 	beq.w	8011738 <_svfprintf_r+0x398>
 8011400:	2c25      	cmp	r4, #37	; 0x25
 8011402:	f000 8199 	beq.w	8011738 <_svfprintf_r+0x398>
 8011406:	f10a 0501 	add.w	r5, sl, #1
 801140a:	e001      	b.n	8011410 <_svfprintf_r+0x70>
 801140c:	2925      	cmp	r1, #37	; 0x25
 801140e:	d004      	beq.n	801141a <_svfprintf_r+0x7a>
 8011410:	462c      	mov	r4, r5
 8011412:	3501      	adds	r5, #1
 8011414:	7821      	ldrb	r1, [r4, #0]
 8011416:	2900      	cmp	r1, #0
 8011418:	d1f8      	bne.n	801140c <_svfprintf_r+0x6c>
 801141a:	ebca 0504 	rsb	r5, sl, r4
 801141e:	b17d      	cbz	r5, 8011440 <_svfprintf_r+0xa0>
 8011420:	9b22      	ldr	r3, [sp, #136]	; 0x88
 8011422:	9a23      	ldr	r2, [sp, #140]	; 0x8c
 8011424:	f8c6 a000 	str.w	sl, [r6]
 8011428:	1c59      	adds	r1, r3, #1
 801142a:	1950      	adds	r0, r2, r5
 801142c:	2907      	cmp	r1, #7
 801142e:	6075      	str	r5, [r6, #4]
 8011430:	9023      	str	r0, [sp, #140]	; 0x8c
 8011432:	9122      	str	r1, [sp, #136]	; 0x88
 8011434:	f300 8164 	bgt.w	8011700 <_svfprintf_r+0x360>
 8011438:	3608      	adds	r6, #8
 801143a:	9a0b      	ldr	r2, [sp, #44]	; 0x2c
 801143c:	1950      	adds	r0, r2, r5
 801143e:	900b      	str	r0, [sp, #44]	; 0x2c
 8011440:	7823      	ldrb	r3, [r4, #0]
 8011442:	2b00      	cmp	r3, #0
 8011444:	f000 8164 	beq.w	8011710 <_svfprintf_r+0x370>
 8011448:	2200      	movs	r2, #0
 801144a:	f04f 31ff 	mov.w	r1, #4294967295
 801144e:	f894 8001 	ldrb.w	r8, [r4, #1]
 8011452:	9105      	str	r1, [sp, #20]
 8011454:	9209      	str	r2, [sp, #36]	; 0x24
 8011456:	f104 0a01 	add.w	sl, r4, #1
 801145a:	f88d 2063 	strb.w	r2, [sp, #99]	; 0x63
 801145e:	9204      	str	r2, [sp, #16]
 8011460:	2020      	movs	r0, #32
 8011462:	212b      	movs	r1, #43	; 0x2b
 8011464:	f10a 0a01 	add.w	sl, sl, #1
 8011468:	f1a8 0320 	sub.w	r3, r8, #32
 801146c:	2b58      	cmp	r3, #88	; 0x58
 801146e:	f200 82bb 	bhi.w	80119e8 <_svfprintf_r+0x648>
 8011472:	e8df f013 	tbh	[pc, r3, lsl #1]
 8011476:	01fd      	.short	0x01fd
 8011478:	02b902b9 	.word	0x02b902b9
 801147c:	02b90207 	.word	0x02b90207
 8011480:	02b902b9 	.word	0x02b902b9
 8011484:	02b902b9 	.word	0x02b902b9
 8011488:	01b302b9 	.word	0x01b302b9
 801148c:	02b90250 	.word	0x02b90250
 8011490:	020e013e 	.word	0x020e013e
 8011494:	02c702b9 	.word	0x02c702b9
 8011498:	02ce02ce 	.word	0x02ce02ce
 801149c:	02ce02ce 	.word	0x02ce02ce
 80114a0:	02ce02ce 	.word	0x02ce02ce
 80114a4:	02ce02ce 	.word	0x02ce02ce
 80114a8:	02b902ce 	.word	0x02b902ce
 80114ac:	02b902b9 	.word	0x02b902b9
 80114b0:	02b902b9 	.word	0x02b902b9
 80114b4:	02b902b9 	.word	0x02b902b9
 80114b8:	02b902b9 	.word	0x02b902b9
 80114bc:	008402b9 	.word	0x008402b9
 80114c0:	02b90180 	.word	0x02b90180
 80114c4:	02b90180 	.word	0x02b90180
 80114c8:	02b902b9 	.word	0x02b902b9
 80114cc:	024902b9 	.word	0x024902b9
 80114d0:	02b902b9 	.word	0x02b902b9
 80114d4:	02b9006d 	.word	0x02b9006d
 80114d8:	02b902b9 	.word	0x02b902b9
 80114dc:	02b902b9 	.word	0x02b902b9
 80114e0:	02b90059 	.word	0x02b90059
 80114e4:	01df02b9 	.word	0x01df02b9
 80114e8:	02b902b9 	.word	0x02b902b9
 80114ec:	02b902b9 	.word	0x02b902b9
 80114f0:	02b902b9 	.word	0x02b902b9
 80114f4:	02b902b9 	.word	0x02b902b9
 80114f8:	02b902b9 	.word	0x02b902b9
 80114fc:	00880237 	.word	0x00880237
 8011500:	01800180 	.word	0x01800180
 8011504:	02890180 	.word	0x02890180
 8011508:	02b90088 	.word	0x02b90088
 801150c:	02ad02b9 	.word	0x02ad02b9
 8011510:	025502b9 	.word	0x025502b9
 8011514:	02900071 	.word	0x02900071
 8011518:	02b902a6 	.word	0x02b902a6
 801151c:	02b90263 	.word	0x02b90263
 8011520:	02b9005d 	.word	0x02b9005d
 8011524:	01bf02b9 	.word	0x01bf02b9
 8011528:	9d04      	ldr	r5, [sp, #16]
 801152a:	f045 0410 	orr.w	r4, r5, #16
 801152e:	9404      	str	r4, [sp, #16]
 8011530:	9b04      	ldr	r3, [sp, #16]
 8011532:	069d      	lsls	r5, r3, #26
 8011534:	f100 8191 	bmi.w	801185a <_svfprintf_r+0x4ba>
 8011538:	9904      	ldr	r1, [sp, #16]
 801153a:	06cc      	lsls	r4, r1, #27
 801153c:	f141 8098 	bpl.w	8012670 <_svfprintf_r+0x12d0>
 8011540:	9a0c      	ldr	r2, [sp, #48]	; 0x30
 8011542:	6815      	ldr	r5, [r2, #0]
 8011544:	1d17      	adds	r7, r2, #4
 8011546:	462c      	mov	r4, r5
 8011548:	970c      	str	r7, [sp, #48]	; 0x30
 801154a:	2500      	movs	r5, #0
 801154c:	2301      	movs	r3, #1
 801154e:	e012      	b.n	8011576 <_svfprintf_r+0x1d6>
 8011550:	9a04      	ldr	r2, [sp, #16]
 8011552:	f042 0510 	orr.w	r5, r2, #16
 8011556:	9504      	str	r5, [sp, #16]
 8011558:	9f04      	ldr	r7, [sp, #16]
 801155a:	f017 0320 	ands.w	r3, r7, #32
 801155e:	f040 80ff 	bne.w	8011760 <_svfprintf_r+0x3c0>
 8011562:	9c04      	ldr	r4, [sp, #16]
 8011564:	f014 0010 	ands.w	r0, r4, #16
 8011568:	f001 8074 	beq.w	8012654 <_svfprintf_r+0x12b4>
 801156c:	9f0c      	ldr	r7, [sp, #48]	; 0x30
 801156e:	1d3a      	adds	r2, r7, #4
 8011570:	683c      	ldr	r4, [r7, #0]
 8011572:	920c      	str	r2, [sp, #48]	; 0x30
 8011574:	2500      	movs	r5, #0
 8011576:	2700      	movs	r7, #0
 8011578:	f88d 7063 	strb.w	r7, [sp, #99]	; 0x63
 801157c:	e017      	b.n	80115ae <_svfprintf_r+0x20e>
 801157e:	9d04      	ldr	r5, [sp, #16]
 8011580:	f045 0310 	orr.w	r3, r5, #16
 8011584:	9304      	str	r3, [sp, #16]
 8011586:	9f04      	ldr	r7, [sp, #16]
 8011588:	06bf      	lsls	r7, r7, #26
 801158a:	f140 80d7 	bpl.w	801173c <_svfprintf_r+0x39c>
 801158e:	9d0c      	ldr	r5, [sp, #48]	; 0x30
 8011590:	1deb      	adds	r3, r5, #7
 8011592:	f023 0007 	bic.w	r0, r3, #7
 8011596:	e9d0 2300 	ldrd	r2, r3, [r0]
 801159a:	3008      	adds	r0, #8
 801159c:	900c      	str	r0, [sp, #48]	; 0x30
 801159e:	4614      	mov	r4, r2
 80115a0:	461d      	mov	r5, r3
 80115a2:	2a00      	cmp	r2, #0
 80115a4:	f173 0000 	sbcs.w	r0, r3, #0
 80115a8:	f2c0 8735 	blt.w	8012416 <_svfprintf_r+0x1076>
 80115ac:	2301      	movs	r3, #1
 80115ae:	9905      	ldr	r1, [sp, #20]
 80115b0:	2900      	cmp	r1, #0
 80115b2:	db03      	blt.n	80115bc <_svfprintf_r+0x21c>
 80115b4:	9f04      	ldr	r7, [sp, #16]
 80115b6:	f027 0080 	bic.w	r0, r7, #128	; 0x80
 80115ba:	9004      	str	r0, [sp, #16]
 80115bc:	ea54 0205 	orrs.w	r2, r4, r5
 80115c0:	f040 83f3 	bne.w	8011daa <_svfprintf_r+0xa0a>
 80115c4:	9a05      	ldr	r2, [sp, #20]
 80115c6:	2a00      	cmp	r2, #0
 80115c8:	f040 83ef 	bne.w	8011daa <_svfprintf_r+0xa0a>
 80115cc:	2b00      	cmp	r3, #0
 80115ce:	f040 8659 	bne.w	8012284 <_svfprintf_r+0xee4>
 80115d2:	9b04      	ldr	r3, [sp, #16]
 80115d4:	07d9      	lsls	r1, r3, #31
 80115d6:	f141 800e 	bpl.w	80125f6 <_svfprintf_r+0x1256>
 80115da:	af3e      	add	r7, sp, #248	; 0xf8
 80115dc:	2030      	movs	r0, #48	; 0x30
 80115de:	f807 0d41 	strb.w	r0, [r7, #-65]!
 80115e2:	9a03      	ldr	r2, [sp, #12]
 80115e4:	1bd4      	subs	r4, r2, r7
 80115e6:	940a      	str	r4, [sp, #40]	; 0x28
 80115e8:	9c05      	ldr	r4, [sp, #20]
 80115ea:	980a      	ldr	r0, [sp, #40]	; 0x28
 80115ec:	f89d 3063 	ldrb.w	r3, [sp, #99]	; 0x63
 80115f0:	940e      	str	r4, [sp, #56]	; 0x38
 80115f2:	42a0      	cmp	r0, r4
 80115f4:	bfb8      	it	lt
 80115f6:	4620      	movlt	r0, r4
 80115f8:	2200      	movs	r2, #0
 80115fa:	9007      	str	r0, [sp, #28]
 80115fc:	9210      	str	r2, [sp, #64]	; 0x40
 80115fe:	b113      	cbz	r3, 8011606 <_svfprintf_r+0x266>
 8011600:	9b07      	ldr	r3, [sp, #28]
 8011602:	1c59      	adds	r1, r3, #1
 8011604:	9107      	str	r1, [sp, #28]
 8011606:	9b04      	ldr	r3, [sp, #16]
 8011608:	f013 0002 	ands.w	r0, r3, #2
 801160c:	9005      	str	r0, [sp, #20]
 801160e:	d002      	beq.n	8011616 <_svfprintf_r+0x276>
 8011610:	9907      	ldr	r1, [sp, #28]
 8011612:	1c8c      	adds	r4, r1, #2
 8011614:	9407      	str	r4, [sp, #28]
 8011616:	9a04      	ldr	r2, [sp, #16]
 8011618:	f012 0b84 	ands.w	fp, r2, #132	; 0x84
 801161c:	f040 822a 	bne.w	8011a74 <_svfprintf_r+0x6d4>
 8011620:	9d09      	ldr	r5, [sp, #36]	; 0x24
 8011622:	9b07      	ldr	r3, [sp, #28]
 8011624:	1aed      	subs	r5, r5, r3
 8011626:	2d00      	cmp	r5, #0
 8011628:	f340 8224 	ble.w	8011a74 <_svfprintf_r+0x6d4>
 801162c:	2d10      	cmp	r5, #16
 801162e:	f341 820e 	ble.w	8012a4e <_svfprintf_r+0x16ae>
 8011632:	9a23      	ldr	r2, [sp, #140]	; 0x8c
 8011634:	9b22      	ldr	r3, [sp, #136]	; 0x88
 8011636:	49a5      	ldr	r1, [pc, #660]	; (80118cc <_svfprintf_r+0x52c>)
 8011638:	2410      	movs	r4, #16
 801163a:	6031      	str	r1, [r6, #0]
 801163c:	9116      	str	r1, [sp, #88]	; 0x58
 801163e:	1911      	adds	r1, r2, r4
 8011640:	1c5a      	adds	r2, r3, #1
 8011642:	f1a5 0e11 	sub.w	lr, r5, #17
 8011646:	2a07      	cmp	r2, #7
 8011648:	6074      	str	r4, [r6, #4]
 801164a:	f3ce 1300 	ubfx	r3, lr, #4, #1
 801164e:	9123      	str	r1, [sp, #140]	; 0x8c
 8011650:	9222      	str	r2, [sp, #136]	; 0x88
 8011652:	f300 8572 	bgt.w	801213a <_svfprintf_r+0xd9a>
 8011656:	3608      	adds	r6, #8
 8011658:	3d10      	subs	r5, #16
 801165a:	2d10      	cmp	r5, #16
 801165c:	f340 81fe 	ble.w	8011a5c <_svfprintf_r+0x6bc>
 8011660:	b18b      	cbz	r3, 8011686 <_svfprintf_r+0x2e6>
 8011662:	3201      	adds	r2, #1
 8011664:	f645 0348 	movw	r3, #22600	; 0x5848
 8011668:	3110      	adds	r1, #16
 801166a:	f6c0 0301 	movt	r3, #2049	; 0x801
 801166e:	2a07      	cmp	r2, #7
 8011670:	e886 0018 	stmia.w	r6, {r3, r4}
 8011674:	9123      	str	r1, [sp, #140]	; 0x8c
 8011676:	9222      	str	r2, [sp, #136]	; 0x88
 8011678:	f300 856e 	bgt.w	8012158 <_svfprintf_r+0xdb8>
 801167c:	3608      	adds	r6, #8
 801167e:	3d10      	subs	r5, #16
 8011680:	2d10      	cmp	r5, #16
 8011682:	f340 81eb 	ble.w	8011a5c <_svfprintf_r+0x6bc>
 8011686:	4633      	mov	r3, r6
 8011688:	f8cd b05c 	str.w	fp, [sp, #92]	; 0x5c
 801168c:	462e      	mov	r6, r5
 801168e:	46bb      	mov	fp, r7
 8011690:	9d06      	ldr	r5, [sp, #24]
 8011692:	9f08      	ldr	r7, [sp, #32]
 8011694:	e013      	b.n	80116be <_svfprintf_r+0x31e>
 8011696:	3308      	adds	r3, #8
 8011698:	3201      	adds	r2, #1
 801169a:	f645 0048 	movw	r0, #22600	; 0x5848
 801169e:	3110      	adds	r1, #16
 80116a0:	f6c0 0001 	movt	r0, #2049	; 0x801
 80116a4:	3e10      	subs	r6, #16
 80116a6:	2a07      	cmp	r2, #7
 80116a8:	e883 0011 	stmia.w	r3, {r0, r4}
 80116ac:	9123      	str	r1, [sp, #140]	; 0x8c
 80116ae:	9222      	str	r2, [sp, #136]	; 0x88
 80116b0:	f300 81c0 	bgt.w	8011a34 <_svfprintf_r+0x694>
 80116b4:	3e10      	subs	r6, #16
 80116b6:	3308      	adds	r3, #8
 80116b8:	2e10      	cmp	r6, #16
 80116ba:	f340 81ca 	ble.w	8011a52 <_svfprintf_r+0x6b2>
 80116be:	3201      	adds	r2, #1
 80116c0:	f645 0048 	movw	r0, #22600	; 0x5848
 80116c4:	3110      	adds	r1, #16
 80116c6:	f6c0 0001 	movt	r0, #2049	; 0x801
 80116ca:	2a07      	cmp	r2, #7
 80116cc:	e883 0011 	stmia.w	r3, {r0, r4}
 80116d0:	9123      	str	r1, [sp, #140]	; 0x8c
 80116d2:	9222      	str	r2, [sp, #136]	; 0x88
 80116d4:	dddf      	ble.n	8011696 <_svfprintf_r+0x2f6>
 80116d6:	4638      	mov	r0, r7
 80116d8:	4629      	mov	r1, r5
 80116da:	aa21      	add	r2, sp, #132	; 0x84
 80116dc:	f003 fd8a 	bl	80151f4 <__ssprint_r>
 80116e0:	b9e8      	cbnz	r0, 801171e <_svfprintf_r+0x37e>
 80116e2:	9923      	ldr	r1, [sp, #140]	; 0x8c
 80116e4:	9a22      	ldr	r2, [sp, #136]	; 0x88
 80116e6:	ab2e      	add	r3, sp, #184	; 0xb8
 80116e8:	e7d6      	b.n	8011698 <_svfprintf_r+0x2f8>
 80116ea:	9a09      	ldr	r2, [sp, #36]	; 0x24
 80116ec:	930c      	str	r3, [sp, #48]	; 0x30
 80116ee:	4252      	negs	r2, r2
 80116f0:	9209      	str	r2, [sp, #36]	; 0x24
 80116f2:	9b04      	ldr	r3, [sp, #16]
 80116f4:	f043 0204 	orr.w	r2, r3, #4
 80116f8:	9204      	str	r2, [sp, #16]
 80116fa:	f89a 8000 	ldrb.w	r8, [sl]
 80116fe:	e6b1      	b.n	8011464 <_svfprintf_r+0xc4>
 8011700:	9808      	ldr	r0, [sp, #32]
 8011702:	9906      	ldr	r1, [sp, #24]
 8011704:	aa21      	add	r2, sp, #132	; 0x84
 8011706:	f003 fd75 	bl	80151f4 <__ssprint_r>
 801170a:	b940      	cbnz	r0, 801171e <_svfprintf_r+0x37e>
 801170c:	ae2e      	add	r6, sp, #184	; 0xb8
 801170e:	e694      	b.n	801143a <_svfprintf_r+0x9a>
 8011710:	9b23      	ldr	r3, [sp, #140]	; 0x8c
 8011712:	b123      	cbz	r3, 801171e <_svfprintf_r+0x37e>
 8011714:	9808      	ldr	r0, [sp, #32]
 8011716:	9906      	ldr	r1, [sp, #24]
 8011718:	aa21      	add	r2, sp, #132	; 0x84
 801171a:	f003 fd6b 	bl	80151f4 <__ssprint_r>
 801171e:	9806      	ldr	r0, [sp, #24]
 8011720:	8981      	ldrh	r1, [r0, #12]
 8011722:	980b      	ldr	r0, [sp, #44]	; 0x2c
 8011724:	f001 0240 	and.w	r2, r1, #64	; 0x40
 8011728:	b213      	sxth	r3, r2
 801172a:	2b00      	cmp	r3, #0
 801172c:	bf18      	it	ne
 801172e:	f04f 30ff 	movne.w	r0, #4294967295
 8011732:	b03f      	add	sp, #252	; 0xfc
 8011734:	e8bd 8ff0 	ldmia.w	sp!, {r4, r5, r6, r7, r8, r9, sl, fp, pc}
 8011738:	4654      	mov	r4, sl
 801173a:	e681      	b.n	8011440 <_svfprintf_r+0xa0>
 801173c:	9804      	ldr	r0, [sp, #16]
 801173e:	06c5      	lsls	r5, r0, #27
 8011740:	f100 865d 	bmi.w	80123fe <_svfprintf_r+0x105e>
 8011744:	9904      	ldr	r1, [sp, #16]
 8011746:	064c      	lsls	r4, r1, #25
 8011748:	f140 8659 	bpl.w	80123fe <_svfprintf_r+0x105e>
 801174c:	9a0c      	ldr	r2, [sp, #48]	; 0x30
 801174e:	9f0c      	ldr	r7, [sp, #48]	; 0x30
 8011750:	f9b2 4000 	ldrsh.w	r4, [r2]
 8011754:	1d38      	adds	r0, r7, #4
 8011756:	17e5      	asrs	r5, r4, #31
 8011758:	4622      	mov	r2, r4
 801175a:	462b      	mov	r3, r5
 801175c:	900c      	str	r0, [sp, #48]	; 0x30
 801175e:	e720      	b.n	80115a2 <_svfprintf_r+0x202>
 8011760:	9b0c      	ldr	r3, [sp, #48]	; 0x30
 8011762:	1ddd      	adds	r5, r3, #7
 8011764:	f025 0107 	bic.w	r1, r5, #7
 8011768:	f101 0008 	add.w	r0, r1, #8
 801176c:	900c      	str	r0, [sp, #48]	; 0x30
 801176e:	e9d1 4500 	ldrd	r4, r5, [r1]
 8011772:	2300      	movs	r3, #0
 8011774:	e6ff      	b.n	8011576 <_svfprintf_r+0x1d6>
 8011776:	9c0c      	ldr	r4, [sp, #48]	; 0x30
 8011778:	1de5      	adds	r5, r4, #7
 801177a:	f025 0107 	bic.w	r1, r5, #7
 801177e:	f101 0008 	add.w	r0, r1, #8
 8011782:	900c      	str	r0, [sp, #48]	; 0x30
 8011784:	680d      	ldr	r5, [r1, #0]
 8011786:	684c      	ldr	r4, [r1, #4]
 8011788:	462a      	mov	r2, r5
 801178a:	4623      	mov	r3, r4
 801178c:	4628      	mov	r0, r5
 801178e:	4621      	mov	r1, r4
 8011790:	ec43 2b10 	vmov	d0, r2, r3
 8011794:	e9cd 0112 	strd	r0, r1, [sp, #72]	; 0x48
 8011798:	f003 fcf4 	bl	8015184 <__fpclassifyd>
 801179c:	2801      	cmp	r0, #1
 801179e:	f040 873b 	bne.w	8012618 <_svfprintf_r+0x1278>
 80117a2:	4628      	mov	r0, r5
 80117a4:	4621      	mov	r1, r4
 80117a6:	2200      	movs	r2, #0
 80117a8:	2300      	movs	r3, #0
 80117aa:	f7fb f853 	bl	800c854 <__aeabi_dcmplt>
 80117ae:	2800      	cmp	r0, #0
 80117b0:	f041 824a 	bne.w	8012c48 <_svfprintf_r+0x18a8>
 80117b4:	f89d 3063 	ldrb.w	r3, [sp, #99]	; 0x63
 80117b8:	2700      	movs	r7, #0
 80117ba:	9904      	ldr	r1, [sp, #16]
 80117bc:	970e      	str	r7, [sp, #56]	; 0x38
 80117be:	2403      	movs	r4, #3
 80117c0:	4843      	ldr	r0, [pc, #268]	; (80118d0 <_svfprintf_r+0x530>)
 80117c2:	4f44      	ldr	r7, [pc, #272]	; (80118d4 <_svfprintf_r+0x534>)
 80117c4:	9407      	str	r4, [sp, #28]
 80117c6:	f021 0280 	bic.w	r2, r1, #128	; 0x80
 80117ca:	940a      	str	r4, [sp, #40]	; 0x28
 80117cc:	2400      	movs	r4, #0
 80117ce:	f1b8 0f47 	cmp.w	r8, #71	; 0x47
 80117d2:	bfd8      	it	le
 80117d4:	4607      	movle	r7, r0
 80117d6:	9204      	str	r2, [sp, #16]
 80117d8:	9410      	str	r4, [sp, #64]	; 0x40
 80117da:	e710      	b.n	80115fe <_svfprintf_r+0x25e>
 80117dc:	9a0c      	ldr	r2, [sp, #48]	; 0x30
 80117de:	9b0c      	ldr	r3, [sp, #48]	; 0x30
 80117e0:	6812      	ldr	r2, [r2, #0]
 80117e2:	3304      	adds	r3, #4
 80117e4:	2a00      	cmp	r2, #0
 80117e6:	9209      	str	r2, [sp, #36]	; 0x24
 80117e8:	f6ff af7f 	blt.w	80116ea <_svfprintf_r+0x34a>
 80117ec:	f89a 8000 	ldrb.w	r8, [sl]
 80117f0:	930c      	str	r3, [sp, #48]	; 0x30
 80117f2:	e637      	b.n	8011464 <_svfprintf_r+0xc4>
 80117f4:	4f38      	ldr	r7, [pc, #224]	; (80118d8 <_svfprintf_r+0x538>)
 80117f6:	9714      	str	r7, [sp, #80]	; 0x50
 80117f8:	9f04      	ldr	r7, [sp, #16]
 80117fa:	06b9      	lsls	r1, r7, #26
 80117fc:	d51f      	bpl.n	801183e <_svfprintf_r+0x49e>
 80117fe:	9c0c      	ldr	r4, [sp, #48]	; 0x30
 8011800:	1de0      	adds	r0, r4, #7
 8011802:	f020 0307 	bic.w	r3, r0, #7
 8011806:	e9d3 4500 	ldrd	r4, r5, [r3]
 801180a:	f103 0108 	add.w	r1, r3, #8
 801180e:	910c      	str	r1, [sp, #48]	; 0x30
 8011810:	9804      	ldr	r0, [sp, #16]
 8011812:	07c7      	lsls	r7, r0, #31
 8011814:	f140 8482 	bpl.w	801211c <_svfprintf_r+0xd7c>
 8011818:	ea54 0205 	orrs.w	r2, r4, r5
 801181c:	f000 847e 	beq.w	801211c <_svfprintf_r+0xd7c>
 8011820:	2230      	movs	r2, #48	; 0x30
 8011822:	f040 0702 	orr.w	r7, r0, #2
 8011826:	f88d 2064 	strb.w	r2, [sp, #100]	; 0x64
 801182a:	f88d 8065 	strb.w	r8, [sp, #101]	; 0x65
 801182e:	9704      	str	r7, [sp, #16]
 8011830:	2302      	movs	r3, #2
 8011832:	e6a0      	b.n	8011576 <_svfprintf_r+0x1d6>
 8011834:	9f04      	ldr	r7, [sp, #16]
 8011836:	4d29      	ldr	r5, [pc, #164]	; (80118dc <_svfprintf_r+0x53c>)
 8011838:	06b9      	lsls	r1, r7, #26
 801183a:	9514      	str	r5, [sp, #80]	; 0x50
 801183c:	d4df      	bmi.n	80117fe <_svfprintf_r+0x45e>
 801183e:	9c04      	ldr	r4, [sp, #16]
 8011840:	06e2      	lsls	r2, r4, #27
 8011842:	f100 85f1 	bmi.w	8012428 <_svfprintf_r+0x1088>
 8011846:	9804      	ldr	r0, [sp, #16]
 8011848:	0643      	lsls	r3, r0, #25
 801184a:	f140 85ed 	bpl.w	8012428 <_svfprintf_r+0x1088>
 801184e:	9b0c      	ldr	r3, [sp, #48]	; 0x30
 8011850:	1d19      	adds	r1, r3, #4
 8011852:	881c      	ldrh	r4, [r3, #0]
 8011854:	910c      	str	r1, [sp, #48]	; 0x30
 8011856:	2500      	movs	r5, #0
 8011858:	e7da      	b.n	8011810 <_svfprintf_r+0x470>
 801185a:	9c0c      	ldr	r4, [sp, #48]	; 0x30
 801185c:	1de3      	adds	r3, r4, #7
 801185e:	f023 0107 	bic.w	r1, r3, #7
 8011862:	f101 0008 	add.w	r0, r1, #8
 8011866:	900c      	str	r0, [sp, #48]	; 0x30
 8011868:	e9d1 4500 	ldrd	r4, r5, [r1]
 801186c:	2301      	movs	r3, #1
 801186e:	e682      	b.n	8011576 <_svfprintf_r+0x1d6>
 8011870:	f89d 3063 	ldrb.w	r3, [sp, #99]	; 0x63
 8011874:	2b00      	cmp	r3, #0
 8011876:	f040 8707 	bne.w	8012688 <_svfprintf_r+0x12e8>
 801187a:	f88d 0063 	strb.w	r0, [sp, #99]	; 0x63
 801187e:	f89a 8000 	ldrb.w	r8, [sl]
 8011882:	e5ef      	b.n	8011464 <_svfprintf_r+0xc4>
 8011884:	9b04      	ldr	r3, [sp, #16]
 8011886:	f043 0201 	orr.w	r2, r3, #1
 801188a:	9204      	str	r2, [sp, #16]
 801188c:	f89a 8000 	ldrb.w	r8, [sl]
 8011890:	e5e8      	b.n	8011464 <_svfprintf_r+0xc4>
 8011892:	4654      	mov	r4, sl
 8011894:	f814 8b01 	ldrb.w	r8, [r4], #1
 8011898:	f1b8 0f2a 	cmp.w	r8, #42	; 0x2a
 801189c:	f001 82d2 	beq.w	8012e44 <_svfprintf_r+0x1aa4>
 80118a0:	f1a8 0330 	sub.w	r3, r8, #48	; 0x30
 80118a4:	2200      	movs	r2, #0
 80118a6:	2b09      	cmp	r3, #9
 80118a8:	f201 81ff 	bhi.w	8012caa <_svfprintf_r+0x190a>
 80118ac:	f814 8b01 	ldrb.w	r8, [r4], #1
 80118b0:	eb02 0282 	add.w	r2, r2, r2, lsl #2
 80118b4:	eb03 0242 	add.w	r2, r3, r2, lsl #1
 80118b8:	f1a8 0330 	sub.w	r3, r8, #48	; 0x30
 80118bc:	2b09      	cmp	r3, #9
 80118be:	46a2      	mov	sl, r4
 80118c0:	d9f4      	bls.n	80118ac <_svfprintf_r+0x50c>
 80118c2:	ea42 72e2 	orr.w	r2, r2, r2, asr #31
 80118c6:	9205      	str	r2, [sp, #20]
 80118c8:	e5ce      	b.n	8011468 <_svfprintf_r+0xc8>
 80118ca:	bf00      	nop
 80118cc:	08015848 	.word	0x08015848
 80118d0:	080157f4 	.word	0x080157f4
 80118d4:	080157f8 	.word	0x080157f8
 80118d8:	08015818 	.word	0x08015818
 80118dc:	08015804 	.word	0x08015804
 80118e0:	08015838 	.word	0x08015838
 80118e4:	9f0c      	ldr	r7, [sp, #48]	; 0x30
 80118e6:	990c      	ldr	r1, [sp, #48]	; 0x30
 80118e8:	683c      	ldr	r4, [r7, #0]
 80118ea:	2301      	movs	r3, #1
 80118ec:	2000      	movs	r0, #0
 80118ee:	1d0a      	adds	r2, r1, #4
 80118f0:	f88d 0063 	strb.w	r0, [sp, #99]	; 0x63
 80118f4:	9307      	str	r3, [sp, #28]
 80118f6:	920c      	str	r2, [sp, #48]	; 0x30
 80118f8:	f88d 4090 	strb.w	r4, [sp, #144]	; 0x90
 80118fc:	930a      	str	r3, [sp, #40]	; 0x28
 80118fe:	af24      	add	r7, sp, #144	; 0x90
 8011900:	2200      	movs	r2, #0
 8011902:	920e      	str	r2, [sp, #56]	; 0x38
 8011904:	9210      	str	r2, [sp, #64]	; 0x40
 8011906:	e67e      	b.n	8011606 <_svfprintf_r+0x266>
 8011908:	9a04      	ldr	r2, [sp, #16]
 801190a:	f042 0308 	orr.w	r3, r2, #8
 801190e:	9304      	str	r3, [sp, #16]
 8011910:	f89a 8000 	ldrb.w	r8, [sl]
 8011914:	e5a6      	b.n	8011464 <_svfprintf_r+0xc4>
 8011916:	f88d 1063 	strb.w	r1, [sp, #99]	; 0x63
 801191a:	f89a 8000 	ldrb.w	r8, [sl]
 801191e:	e5a1      	b.n	8011464 <_svfprintf_r+0xc4>
 8011920:	9c04      	ldr	r4, [sp, #16]
 8011922:	06a1      	lsls	r1, r4, #26
 8011924:	f140 86b4 	bpl.w	8012690 <_svfprintf_r+0x12f0>
 8011928:	990c      	ldr	r1, [sp, #48]	; 0x30
 801192a:	9a0b      	ldr	r2, [sp, #44]	; 0x2c
 801192c:	980c      	ldr	r0, [sp, #48]	; 0x30
 801192e:	680b      	ldr	r3, [r1, #0]
 8011930:	17d4      	asrs	r4, r2, #31
 8011932:	1d01      	adds	r1, r0, #4
 8011934:	601a      	str	r2, [r3, #0]
 8011936:	605c      	str	r4, [r3, #4]
 8011938:	910c      	str	r1, [sp, #48]	; 0x30
 801193a:	e55c      	b.n	80113f6 <_svfprintf_r+0x56>
 801193c:	9d0c      	ldr	r5, [sp, #48]	; 0x30
 801193e:	2400      	movs	r4, #0
 8011940:	f88d 4063 	strb.w	r4, [sp, #99]	; 0x63
 8011944:	682f      	ldr	r7, [r5, #0]
 8011946:	3504      	adds	r5, #4
 8011948:	2f00      	cmp	r7, #0
 801194a:	f001 8114 	beq.w	8012b76 <_svfprintf_r+0x17d6>
 801194e:	9a05      	ldr	r2, [sp, #20]
 8011950:	2a00      	cmp	r2, #0
 8011952:	4638      	mov	r0, r7
 8011954:	f2c1 8057 	blt.w	8012a06 <_svfprintf_r+0x1666>
 8011958:	4621      	mov	r1, r4
 801195a:	9a05      	ldr	r2, [sp, #20]
 801195c:	f002 fe6c 	bl	8014638 <memchr>
 8011960:	2800      	cmp	r0, #0
 8011962:	f001 817b 	beq.w	8012c5c <_svfprintf_r+0x18bc>
 8011966:	9905      	ldr	r1, [sp, #20]
 8011968:	940e      	str	r4, [sp, #56]	; 0x38
 801196a:	1bc0      	subs	r0, r0, r7
 801196c:	4288      	cmp	r0, r1
 801196e:	900a      	str	r0, [sp, #40]	; 0x28
 8011970:	f340 87e9 	ble.w	8012946 <_svfprintf_r+0x15a6>
 8011974:	ea21 70e1 	bic.w	r0, r1, r1, asr #31
 8011978:	9905      	ldr	r1, [sp, #20]
 801197a:	9007      	str	r0, [sp, #28]
 801197c:	f89d 3063 	ldrb.w	r3, [sp, #99]	; 0x63
 8011980:	950c      	str	r5, [sp, #48]	; 0x30
 8011982:	910a      	str	r1, [sp, #40]	; 0x28
 8011984:	9410      	str	r4, [sp, #64]	; 0x40
 8011986:	e63a      	b.n	80115fe <_svfprintf_r+0x25e>
 8011988:	9b04      	ldr	r3, [sp, #16]
 801198a:	f043 0240 	orr.w	r2, r3, #64	; 0x40
 801198e:	9204      	str	r2, [sp, #16]
 8011990:	f89a 8000 	ldrb.w	r8, [sl]
 8011994:	e566      	b.n	8011464 <_svfprintf_r+0xc4>
 8011996:	9d0c      	ldr	r5, [sp, #48]	; 0x30
 8011998:	990c      	ldr	r1, [sp, #48]	; 0x30
 801199a:	6828      	ldr	r0, [r5, #0]
 801199c:	9b04      	ldr	r3, [sp, #16]
 801199e:	1d0f      	adds	r7, r1, #4
 80119a0:	49aa      	ldr	r1, [pc, #680]	; (8011c4c <_svfprintf_r+0x8ac>)
 80119a2:	970c      	str	r7, [sp, #48]	; 0x30
 80119a4:	f043 0202 	orr.w	r2, r3, #2
 80119a8:	f04f 0878 	mov.w	r8, #120	; 0x78
 80119ac:	4604      	mov	r4, r0
 80119ae:	2030      	movs	r0, #48	; 0x30
 80119b0:	f88d 8065 	strb.w	r8, [sp, #101]	; 0x65
 80119b4:	2500      	movs	r5, #0
 80119b6:	9204      	str	r2, [sp, #16]
 80119b8:	f88d 0064 	strb.w	r0, [sp, #100]	; 0x64
 80119bc:	9114      	str	r1, [sp, #80]	; 0x50
 80119be:	2302      	movs	r3, #2
 80119c0:	e5d9      	b.n	8011576 <_svfprintf_r+0x1d6>
 80119c2:	9b04      	ldr	r3, [sp, #16]
 80119c4:	f043 0220 	orr.w	r2, r3, #32
 80119c8:	9204      	str	r2, [sp, #16]
 80119ca:	f89a 8000 	ldrb.w	r8, [sl]
 80119ce:	e549      	b.n	8011464 <_svfprintf_r+0xc4>
 80119d0:	f89a 8000 	ldrb.w	r8, [sl]
 80119d4:	f1b8 0f6c 	cmp.w	r8, #108	; 0x6c
 80119d8:	4653      	mov	r3, sl
 80119da:	f000 8704 	beq.w	80127e6 <_svfprintf_r+0x1446>
 80119de:	9a04      	ldr	r2, [sp, #16]
 80119e0:	f042 0310 	orr.w	r3, r2, #16
 80119e4:	9304      	str	r3, [sp, #16]
 80119e6:	e53d      	b.n	8011464 <_svfprintf_r+0xc4>
 80119e8:	f1b8 0f00 	cmp.w	r8, #0
 80119ec:	f43f ae90 	beq.w	8011710 <_svfprintf_r+0x370>
 80119f0:	2701      	movs	r7, #1
 80119f2:	2400      	movs	r4, #0
 80119f4:	9707      	str	r7, [sp, #28]
 80119f6:	970a      	str	r7, [sp, #40]	; 0x28
 80119f8:	f88d 8090 	strb.w	r8, [sp, #144]	; 0x90
 80119fc:	f88d 4063 	strb.w	r4, [sp, #99]	; 0x63
 8011a00:	af24      	add	r7, sp, #144	; 0x90
 8011a02:	e77d      	b.n	8011900 <_svfprintf_r+0x560>
 8011a04:	9a04      	ldr	r2, [sp, #16]
 8011a06:	f042 0380 	orr.w	r3, r2, #128	; 0x80
 8011a0a:	9304      	str	r3, [sp, #16]
 8011a0c:	f89a 8000 	ldrb.w	r8, [sl]
 8011a10:	e528      	b.n	8011464 <_svfprintf_r+0xc4>
 8011a12:	4652      	mov	r2, sl
 8011a14:	2300      	movs	r3, #0
 8011a16:	f1a8 0530 	sub.w	r5, r8, #48	; 0x30
 8011a1a:	f812 8b01 	ldrb.w	r8, [r2], #1
 8011a1e:	f1a8 0430 	sub.w	r4, r8, #48	; 0x30
 8011a22:	eb03 0383 	add.w	r3, r3, r3, lsl #2
 8011a26:	2c09      	cmp	r4, #9
 8011a28:	eb05 0343 	add.w	r3, r5, r3, lsl #1
 8011a2c:	4692      	mov	sl, r2
 8011a2e:	d9f2      	bls.n	8011a16 <_svfprintf_r+0x676>
 8011a30:	9309      	str	r3, [sp, #36]	; 0x24
 8011a32:	e519      	b.n	8011468 <_svfprintf_r+0xc8>
 8011a34:	4638      	mov	r0, r7
 8011a36:	4629      	mov	r1, r5
 8011a38:	aa21      	add	r2, sp, #132	; 0x84
 8011a3a:	f003 fbdb 	bl	80151f4 <__ssprint_r>
 8011a3e:	2800      	cmp	r0, #0
 8011a40:	f47f ae6d 	bne.w	801171e <_svfprintf_r+0x37e>
 8011a44:	3e10      	subs	r6, #16
 8011a46:	2e10      	cmp	r6, #16
 8011a48:	ab2e      	add	r3, sp, #184	; 0xb8
 8011a4a:	9923      	ldr	r1, [sp, #140]	; 0x8c
 8011a4c:	9a22      	ldr	r2, [sp, #136]	; 0x88
 8011a4e:	f73f ae36 	bgt.w	80116be <_svfprintf_r+0x31e>
 8011a52:	465f      	mov	r7, fp
 8011a54:	f8dd b05c 	ldr.w	fp, [sp, #92]	; 0x5c
 8011a58:	4635      	mov	r5, r6
 8011a5a:	461e      	mov	r6, r3
 8011a5c:	1c50      	adds	r0, r2, #1
 8011a5e:	9b16      	ldr	r3, [sp, #88]	; 0x58
 8011a60:	194c      	adds	r4, r1, r5
 8011a62:	2807      	cmp	r0, #7
 8011a64:	e886 0028 	stmia.w	r6, {r3, r5}
 8011a68:	9423      	str	r4, [sp, #140]	; 0x8c
 8011a6a:	9022      	str	r0, [sp, #136]	; 0x88
 8011a6c:	f300 840f 	bgt.w	801228e <_svfprintf_r+0xeee>
 8011a70:	3608      	adds	r6, #8
 8011a72:	e000      	b.n	8011a76 <_svfprintf_r+0x6d6>
 8011a74:	9c23      	ldr	r4, [sp, #140]	; 0x8c
 8011a76:	f89d 1063 	ldrb.w	r1, [sp, #99]	; 0x63
 8011a7a:	b169      	cbz	r1, 8011a98 <_svfprintf_r+0x6f8>
 8011a7c:	9b22      	ldr	r3, [sp, #136]	; 0x88
 8011a7e:	1c58      	adds	r0, r3, #1
 8011a80:	3401      	adds	r4, #1
 8011a82:	2101      	movs	r1, #1
 8011a84:	f10d 0263 	add.w	r2, sp, #99	; 0x63
 8011a88:	2807      	cmp	r0, #7
 8011a8a:	6032      	str	r2, [r6, #0]
 8011a8c:	6071      	str	r1, [r6, #4]
 8011a8e:	9423      	str	r4, [sp, #140]	; 0x8c
 8011a90:	9022      	str	r0, [sp, #136]	; 0x88
 8011a92:	f300 82fe 	bgt.w	8012092 <_svfprintf_r+0xcf2>
 8011a96:	3608      	adds	r6, #8
 8011a98:	9b05      	ldr	r3, [sp, #20]
 8011a9a:	b163      	cbz	r3, 8011ab6 <_svfprintf_r+0x716>
 8011a9c:	9822      	ldr	r0, [sp, #136]	; 0x88
 8011a9e:	1c41      	adds	r1, r0, #1
 8011aa0:	3402      	adds	r4, #2
 8011aa2:	2302      	movs	r3, #2
 8011aa4:	aa19      	add	r2, sp, #100	; 0x64
 8011aa6:	2907      	cmp	r1, #7
 8011aa8:	6032      	str	r2, [r6, #0]
 8011aaa:	6073      	str	r3, [r6, #4]
 8011aac:	9423      	str	r4, [sp, #140]	; 0x8c
 8011aae:	9122      	str	r1, [sp, #136]	; 0x88
 8011ab0:	f300 82fa 	bgt.w	80120a8 <_svfprintf_r+0xd08>
 8011ab4:	3608      	adds	r6, #8
 8011ab6:	f1bb 0f80 	cmp.w	fp, #128	; 0x80
 8011aba:	f000 822d 	beq.w	8011f18 <_svfprintf_r+0xb78>
 8011abe:	9d0e      	ldr	r5, [sp, #56]	; 0x38
 8011ac0:	9a0a      	ldr	r2, [sp, #40]	; 0x28
 8011ac2:	1aad      	subs	r5, r5, r2
 8011ac4:	2d00      	cmp	r5, #0
 8011ac6:	dd6f      	ble.n	8011ba8 <_svfprintf_r+0x808>
 8011ac8:	2d10      	cmp	r5, #16
 8011aca:	f340 85fe 	ble.w	80126ca <_svfprintf_r+0x132a>
 8011ace:	9922      	ldr	r1, [sp, #136]	; 0x88
 8011ad0:	485f      	ldr	r0, [pc, #380]	; (8011c50 <_svfprintf_r+0x8b0>)
 8011ad2:	f8c6 9000 	str.w	r9, [r6]
 8011ad6:	f04f 0b10 	mov.w	fp, #16
 8011ada:	1c4a      	adds	r2, r1, #1
 8011adc:	f1a5 0c11 	sub.w	ip, r5, #17
 8011ae0:	445c      	add	r4, fp
 8011ae2:	2a07      	cmp	r2, #7
 8011ae4:	f8c6 b004 	str.w	fp, [r6, #4]
 8011ae8:	9005      	str	r0, [sp, #20]
 8011aea:	9423      	str	r4, [sp, #140]	; 0x8c
 8011aec:	9222      	str	r2, [sp, #136]	; 0x88
 8011aee:	f3cc 1300 	ubfx	r3, ip, #4, #1
 8011af2:	f300 82a9 	bgt.w	8012048 <_svfprintf_r+0xca8>
 8011af6:	3608      	adds	r6, #8
 8011af8:	3d10      	subs	r5, #16
 8011afa:	2d10      	cmp	r5, #16
 8011afc:	dd49      	ble.n	8011b92 <_svfprintf_r+0x7f2>
 8011afe:	b163      	cbz	r3, 8011b1a <_svfprintf_r+0x77a>
 8011b00:	3201      	adds	r2, #1
 8011b02:	3410      	adds	r4, #16
 8011b04:	2a07      	cmp	r2, #7
 8011b06:	e886 0a00 	stmia.w	r6, {r9, fp}
 8011b0a:	9423      	str	r4, [sp, #140]	; 0x8c
 8011b0c:	9222      	str	r2, [sp, #136]	; 0x88
 8011b0e:	f300 82a9 	bgt.w	8012064 <_svfprintf_r+0xcc4>
 8011b12:	3608      	adds	r6, #8
 8011b14:	3d10      	subs	r5, #16
 8011b16:	2d10      	cmp	r5, #16
 8011b18:	dd3b      	ble.n	8011b92 <_svfprintf_r+0x7f2>
 8011b1a:	4631      	mov	r1, r6
 8011b1c:	4620      	mov	r0, r4
 8011b1e:	4646      	mov	r6, r8
 8011b20:	463c      	mov	r4, r7
 8011b22:	f8dd 8018 	ldr.w	r8, [sp, #24]
 8011b26:	9f08      	ldr	r7, [sp, #32]
 8011b28:	e00d      	b.n	8011b46 <_svfprintf_r+0x7a6>
 8011b2a:	3108      	adds	r1, #8
 8011b2c:	3201      	adds	r2, #1
 8011b2e:	3010      	adds	r0, #16
 8011b30:	3d10      	subs	r5, #16
 8011b32:	2a07      	cmp	r2, #7
 8011b34:	e881 0a00 	stmia.w	r1, {r9, fp}
 8011b38:	9222      	str	r2, [sp, #136]	; 0x88
 8011b3a:	9023      	str	r0, [sp, #140]	; 0x8c
 8011b3c:	dc17      	bgt.n	8011b6e <_svfprintf_r+0x7ce>
 8011b3e:	3d10      	subs	r5, #16
 8011b40:	3108      	adds	r1, #8
 8011b42:	2d10      	cmp	r5, #16
 8011b44:	dd21      	ble.n	8011b8a <_svfprintf_r+0x7ea>
 8011b46:	3201      	adds	r2, #1
 8011b48:	3010      	adds	r0, #16
 8011b4a:	2a07      	cmp	r2, #7
 8011b4c:	e881 0a00 	stmia.w	r1, {r9, fp}
 8011b50:	9023      	str	r0, [sp, #140]	; 0x8c
 8011b52:	9222      	str	r2, [sp, #136]	; 0x88
 8011b54:	dde9      	ble.n	8011b2a <_svfprintf_r+0x78a>
 8011b56:	4638      	mov	r0, r7
 8011b58:	4641      	mov	r1, r8
 8011b5a:	aa21      	add	r2, sp, #132	; 0x84
 8011b5c:	f003 fb4a 	bl	80151f4 <__ssprint_r>
 8011b60:	2800      	cmp	r0, #0
 8011b62:	f47f addc 	bne.w	801171e <_svfprintf_r+0x37e>
 8011b66:	9823      	ldr	r0, [sp, #140]	; 0x8c
 8011b68:	9a22      	ldr	r2, [sp, #136]	; 0x88
 8011b6a:	a92e      	add	r1, sp, #184	; 0xb8
 8011b6c:	e7de      	b.n	8011b2c <_svfprintf_r+0x78c>
 8011b6e:	4638      	mov	r0, r7
 8011b70:	4641      	mov	r1, r8
 8011b72:	aa21      	add	r2, sp, #132	; 0x84
 8011b74:	f003 fb3e 	bl	80151f4 <__ssprint_r>
 8011b78:	2800      	cmp	r0, #0
 8011b7a:	f47f add0 	bne.w	801171e <_svfprintf_r+0x37e>
 8011b7e:	3d10      	subs	r5, #16
 8011b80:	2d10      	cmp	r5, #16
 8011b82:	a92e      	add	r1, sp, #184	; 0xb8
 8011b84:	9823      	ldr	r0, [sp, #140]	; 0x8c
 8011b86:	9a22      	ldr	r2, [sp, #136]	; 0x88
 8011b88:	dcdd      	bgt.n	8011b46 <_svfprintf_r+0x7a6>
 8011b8a:	46b0      	mov	r8, r6
 8011b8c:	4627      	mov	r7, r4
 8011b8e:	460e      	mov	r6, r1
 8011b90:	4604      	mov	r4, r0
 8011b92:	1c50      	adds	r0, r2, #1
 8011b94:	9b05      	ldr	r3, [sp, #20]
 8011b96:	1964      	adds	r4, r4, r5
 8011b98:	2807      	cmp	r0, #7
 8011b9a:	e886 0028 	stmia.w	r6, {r3, r5}
 8011b9e:	9423      	str	r4, [sp, #140]	; 0x8c
 8011ba0:	9022      	str	r0, [sp, #136]	; 0x88
 8011ba2:	f300 826b 	bgt.w	801207c <_svfprintf_r+0xcdc>
 8011ba6:	3608      	adds	r6, #8
 8011ba8:	9b04      	ldr	r3, [sp, #16]
 8011baa:	05da      	lsls	r2, r3, #23
 8011bac:	f100 8128 	bmi.w	8011e00 <_svfprintf_r+0xa60>
 8011bb0:	9822      	ldr	r0, [sp, #136]	; 0x88
 8011bb2:	9a0a      	ldr	r2, [sp, #40]	; 0x28
 8011bb4:	990a      	ldr	r1, [sp, #40]	; 0x28
 8011bb6:	6037      	str	r7, [r6, #0]
 8011bb8:	1c43      	adds	r3, r0, #1
 8011bba:	18a4      	adds	r4, r4, r2
 8011bbc:	2b07      	cmp	r3, #7
 8011bbe:	6071      	str	r1, [r6, #4]
 8011bc0:	9423      	str	r4, [sp, #140]	; 0x8c
 8011bc2:	9322      	str	r3, [sp, #136]	; 0x88
 8011bc4:	f300 80b0 	bgt.w	8011d28 <_svfprintf_r+0x988>
 8011bc8:	3608      	adds	r6, #8
 8011bca:	9a04      	ldr	r2, [sp, #16]
 8011bcc:	0753      	lsls	r3, r2, #29
 8011bce:	f140 80b9 	bpl.w	8011d44 <_svfprintf_r+0x9a4>
 8011bd2:	9d09      	ldr	r5, [sp, #36]	; 0x24
 8011bd4:	9807      	ldr	r0, [sp, #28]
 8011bd6:	1a2d      	subs	r5, r5, r0
 8011bd8:	2d00      	cmp	r5, #0
 8011bda:	f340 80b3 	ble.w	8011d44 <_svfprintf_r+0x9a4>
 8011bde:	2d10      	cmp	r5, #16
 8011be0:	f340 87d5 	ble.w	8012b8e <_svfprintf_r+0x17ee>
 8011be4:	9b22      	ldr	r3, [sp, #136]	; 0x88
 8011be6:	f8df 806c 	ldr.w	r8, [pc, #108]	; 8011c54 <_svfprintf_r+0x8b4>
 8011bea:	f645 0748 	movw	r7, #22600	; 0x5848
 8011bee:	f6c0 0701 	movt	r7, #2049	; 0x801
 8011bf2:	6037      	str	r7, [r6, #0]
 8011bf4:	1c59      	adds	r1, r3, #1
 8011bf6:	2710      	movs	r7, #16
 8011bf8:	f1a5 0b11 	sub.w	fp, r5, #17
 8011bfc:	19e4      	adds	r4, r4, r7
 8011bfe:	2907      	cmp	r1, #7
 8011c00:	6077      	str	r7, [r6, #4]
 8011c02:	f3cb 1b00 	ubfx	fp, fp, #4, #1
 8011c06:	9423      	str	r4, [sp, #140]	; 0x8c
 8011c08:	9122      	str	r1, [sp, #136]	; 0x88
 8011c0a:	f300 83c6 	bgt.w	801239a <_svfprintf_r+0xffa>
 8011c0e:	3608      	adds	r6, #8
 8011c10:	3d10      	subs	r5, #16
 8011c12:	2d10      	cmp	r5, #16
 8011c14:	f340 80b6 	ble.w	8011d84 <_svfprintf_r+0x9e4>
 8011c18:	f1bb 0f00 	cmp.w	fp, #0
 8011c1c:	d011      	beq.n	8011c42 <_svfprintf_r+0x8a2>
 8011c1e:	3101      	adds	r1, #1
 8011c20:	f645 0048 	movw	r0, #22600	; 0x5848
 8011c24:	3410      	adds	r4, #16
 8011c26:	f6c0 0001 	movt	r0, #2049	; 0x801
 8011c2a:	2907      	cmp	r1, #7
 8011c2c:	e886 0081 	stmia.w	r6, {r0, r7}
 8011c30:	9423      	str	r4, [sp, #140]	; 0x8c
 8011c32:	9122      	str	r1, [sp, #136]	; 0x88
 8011c34:	f300 83d7 	bgt.w	80123e6 <_svfprintf_r+0x1046>
 8011c38:	3608      	adds	r6, #8
 8011c3a:	3d10      	subs	r5, #16
 8011c3c:	2d10      	cmp	r5, #16
 8011c3e:	f340 80a1 	ble.w	8011d84 <_svfprintf_r+0x9e4>
 8011c42:	4632      	mov	r2, r6
 8011c44:	f8dd b020 	ldr.w	fp, [sp, #32]
 8011c48:	9e06      	ldr	r6, [sp, #24]
 8011c4a:	e018      	b.n	8011c7e <_svfprintf_r+0x8de>
 8011c4c:	08015818 	.word	0x08015818
 8011c50:	08015838 	.word	0x08015838
 8011c54:	08015848 	.word	0x08015848
 8011c58:	3208      	adds	r2, #8
 8011c5a:	1c41      	adds	r1, r0, #1
 8011c5c:	f645 0048 	movw	r0, #22600	; 0x5848
 8011c60:	3410      	adds	r4, #16
 8011c62:	f6c0 0001 	movt	r0, #2049	; 0x801
 8011c66:	3d10      	subs	r5, #16
 8011c68:	2907      	cmp	r1, #7
 8011c6a:	e882 0081 	stmia.w	r2, {r0, r7}
 8011c6e:	9122      	str	r1, [sp, #136]	; 0x88
 8011c70:	9423      	str	r4, [sp, #140]	; 0x8c
 8011c72:	dc77      	bgt.n	8011d64 <_svfprintf_r+0x9c4>
 8011c74:	3d10      	subs	r5, #16
 8011c76:	3208      	adds	r2, #8
 8011c78:	2d10      	cmp	r5, #16
 8011c7a:	f340 8082 	ble.w	8011d82 <_svfprintf_r+0x9e2>
 8011c7e:	1c48      	adds	r0, r1, #1
 8011c80:	f645 0148 	movw	r1, #22600	; 0x5848
 8011c84:	3410      	adds	r4, #16
 8011c86:	f6c0 0101 	movt	r1, #2049	; 0x801
 8011c8a:	2807      	cmp	r0, #7
 8011c8c:	e882 0082 	stmia.w	r2, {r1, r7}
 8011c90:	9423      	str	r4, [sp, #140]	; 0x8c
 8011c92:	9022      	str	r0, [sp, #136]	; 0x88
 8011c94:	dde0      	ble.n	8011c58 <_svfprintf_r+0x8b8>
 8011c96:	4658      	mov	r0, fp
 8011c98:	4631      	mov	r1, r6
 8011c9a:	aa21      	add	r2, sp, #132	; 0x84
 8011c9c:	f003 faaa 	bl	80151f4 <__ssprint_r>
 8011ca0:	2800      	cmp	r0, #0
 8011ca2:	f47f ad3c 	bne.w	801171e <_svfprintf_r+0x37e>
 8011ca6:	9c23      	ldr	r4, [sp, #140]	; 0x8c
 8011ca8:	9822      	ldr	r0, [sp, #136]	; 0x88
 8011caa:	aa2e      	add	r2, sp, #184	; 0xb8
 8011cac:	e7d5      	b.n	8011c5a <_svfprintf_r+0x8ba>
 8011cae:	9d0d      	ldr	r5, [sp, #52]	; 0x34
 8011cb0:	2d01      	cmp	r5, #1
 8011cb2:	f340 847b 	ble.w	80125ac <_svfprintf_r+0x120c>
 8011cb6:	9b22      	ldr	r3, [sp, #136]	; 0x88
 8011cb8:	6037      	str	r7, [r6, #0]
 8011cba:	1c5d      	adds	r5, r3, #1
 8011cbc:	3401      	adds	r4, #1
 8011cbe:	2101      	movs	r1, #1
 8011cc0:	2d07      	cmp	r5, #7
 8011cc2:	6071      	str	r1, [r6, #4]
 8011cc4:	9423      	str	r4, [sp, #140]	; 0x8c
 8011cc6:	9522      	str	r5, [sp, #136]	; 0x88
 8011cc8:	f300 847b 	bgt.w	80125c2 <_svfprintf_r+0x1222>
 8011ccc:	3608      	adds	r6, #8
 8011cce:	9b11      	ldr	r3, [sp, #68]	; 0x44
 8011cd0:	980f      	ldr	r0, [sp, #60]	; 0x3c
 8011cd2:	3501      	adds	r5, #1
 8011cd4:	18e4      	adds	r4, r4, r3
 8011cd6:	2d07      	cmp	r5, #7
 8011cd8:	e886 0009 	stmia.w	r6, {r0, r3}
 8011cdc:	9423      	str	r4, [sp, #140]	; 0x8c
 8011cde:	9522      	str	r5, [sp, #136]	; 0x88
 8011ce0:	f300 847c 	bgt.w	80125dc <_svfprintf_r+0x123c>
 8011ce4:	3608      	adds	r6, #8
 8011ce6:	e9dd 0112 	ldrd	r0, r1, [sp, #72]	; 0x48
 8011cea:	2200      	movs	r2, #0
 8011cec:	2300      	movs	r3, #0
 8011cee:	f7fa fda7 	bl	800c840 <__aeabi_dcmpeq>
 8011cf2:	2800      	cmp	r0, #0
 8011cf4:	f040 82d7 	bne.w	80122a6 <_svfprintf_r+0xf06>
 8011cf8:	9a0d      	ldr	r2, [sp, #52]	; 0x34
 8011cfa:	3701      	adds	r7, #1
 8011cfc:	1e50      	subs	r0, r2, #1
 8011cfe:	1824      	adds	r4, r4, r0
 8011d00:	3501      	adds	r5, #1
 8011d02:	6037      	str	r7, [r6, #0]
 8011d04:	2d07      	cmp	r5, #7
 8011d06:	6070      	str	r0, [r6, #4]
 8011d08:	9423      	str	r4, [sp, #140]	; 0x8c
 8011d0a:	9522      	str	r5, [sp, #136]	; 0x88
 8011d0c:	f300 8186 	bgt.w	801201c <_svfprintf_r+0xc7c>
 8011d10:	3608      	adds	r6, #8
 8011d12:	9815      	ldr	r0, [sp, #84]	; 0x54
 8011d14:	3501      	adds	r5, #1
 8011d16:	1824      	adds	r4, r4, r0
 8011d18:	ab1d      	add	r3, sp, #116	; 0x74
 8011d1a:	2d07      	cmp	r5, #7
 8011d1c:	6033      	str	r3, [r6, #0]
 8011d1e:	6070      	str	r0, [r6, #4]
 8011d20:	9423      	str	r4, [sp, #140]	; 0x8c
 8011d22:	9522      	str	r5, [sp, #136]	; 0x88
 8011d24:	f77f af50 	ble.w	8011bc8 <_svfprintf_r+0x828>
 8011d28:	9808      	ldr	r0, [sp, #32]
 8011d2a:	9906      	ldr	r1, [sp, #24]
 8011d2c:	aa21      	add	r2, sp, #132	; 0x84
 8011d2e:	f003 fa61 	bl	80151f4 <__ssprint_r>
 8011d32:	2800      	cmp	r0, #0
 8011d34:	f47f acf3 	bne.w	801171e <_svfprintf_r+0x37e>
 8011d38:	9a04      	ldr	r2, [sp, #16]
 8011d3a:	9c23      	ldr	r4, [sp, #140]	; 0x8c
 8011d3c:	0753      	lsls	r3, r2, #29
 8011d3e:	ae2e      	add	r6, sp, #184	; 0xb8
 8011d40:	f53f af47 	bmi.w	8011bd2 <_svfprintf_r+0x832>
 8011d44:	980b      	ldr	r0, [sp, #44]	; 0x2c
 8011d46:	9907      	ldr	r1, [sp, #28]
 8011d48:	9a09      	ldr	r2, [sp, #36]	; 0x24
 8011d4a:	4291      	cmp	r1, r2
 8011d4c:	bfac      	ite	ge
 8011d4e:	1840      	addge	r0, r0, r1
 8011d50:	1880      	addlt	r0, r0, r2
 8011d52:	900b      	str	r0, [sp, #44]	; 0x2c
 8011d54:	2c00      	cmp	r4, #0
 8011d56:	f040 816d 	bne.w	8012034 <_svfprintf_r+0xc94>
 8011d5a:	2400      	movs	r4, #0
 8011d5c:	9422      	str	r4, [sp, #136]	; 0x88
 8011d5e:	ae2e      	add	r6, sp, #184	; 0xb8
 8011d60:	f7ff bb49 	b.w	80113f6 <_svfprintf_r+0x56>
 8011d64:	4658      	mov	r0, fp
 8011d66:	4631      	mov	r1, r6
 8011d68:	aa21      	add	r2, sp, #132	; 0x84
 8011d6a:	f003 fa43 	bl	80151f4 <__ssprint_r>
 8011d6e:	2800      	cmp	r0, #0
 8011d70:	f47f acd5 	bne.w	801171e <_svfprintf_r+0x37e>
 8011d74:	3d10      	subs	r5, #16
 8011d76:	2d10      	cmp	r5, #16
 8011d78:	aa2e      	add	r2, sp, #184	; 0xb8
 8011d7a:	9c23      	ldr	r4, [sp, #140]	; 0x8c
 8011d7c:	9922      	ldr	r1, [sp, #136]	; 0x88
 8011d7e:	f73f af7e 	bgt.w	8011c7e <_svfprintf_r+0x8de>
 8011d82:	4616      	mov	r6, r2
 8011d84:	1c4b      	adds	r3, r1, #1
 8011d86:	192c      	adds	r4, r5, r4
 8011d88:	2b07      	cmp	r3, #7
 8011d8a:	f8c6 8000 	str.w	r8, [r6]
 8011d8e:	6075      	str	r5, [r6, #4]
 8011d90:	9423      	str	r4, [sp, #140]	; 0x8c
 8011d92:	9322      	str	r3, [sp, #136]	; 0x88
 8011d94:	ddd6      	ble.n	8011d44 <_svfprintf_r+0x9a4>
 8011d96:	9808      	ldr	r0, [sp, #32]
 8011d98:	9906      	ldr	r1, [sp, #24]
 8011d9a:	aa21      	add	r2, sp, #132	; 0x84
 8011d9c:	f003 fa2a 	bl	80151f4 <__ssprint_r>
 8011da0:	2800      	cmp	r0, #0
 8011da2:	f47f acbc 	bne.w	801171e <_svfprintf_r+0x37e>
 8011da6:	9c23      	ldr	r4, [sp, #140]	; 0x8c
 8011da8:	e7cc      	b.n	8011d44 <_svfprintf_r+0x9a4>
 8011daa:	2b01      	cmp	r3, #1
 8011dac:	f000 81a8 	beq.w	8012100 <_svfprintf_r+0xd60>
 8011db0:	2b02      	cmp	r3, #2
 8011db2:	f10d 0cb7 	add.w	ip, sp, #183	; 0xb7
 8011db6:	f000 8187 	beq.w	80120c8 <_svfprintf_r+0xd28>
 8011dba:	2307      	movs	r3, #7
 8011dbc:	ea4f 0ed4 	mov.w	lr, r4, lsr #3
 8011dc0:	ea04 0003 	and.w	r0, r4, r3
 8011dc4:	ea4e 7b45 	orr.w	fp, lr, r5, lsl #29
 8011dc8:	08e9      	lsrs	r1, r5, #3
 8011dca:	3030      	adds	r0, #48	; 0x30
 8011dcc:	465c      	mov	r4, fp
 8011dce:	460d      	mov	r5, r1
 8011dd0:	b2c0      	uxtb	r0, r0
 8011dd2:	ea54 0105 	orrs.w	r1, r4, r5
 8011dd6:	4667      	mov	r7, ip
 8011dd8:	f88c 0000 	strb.w	r0, [ip]
 8011ddc:	f10c 3cff 	add.w	ip, ip, #4294967295
 8011de0:	d1ec      	bne.n	8011dbc <_svfprintf_r+0xa1c>
 8011de2:	9a04      	ldr	r2, [sp, #16]
 8011de4:	07d4      	lsls	r4, r2, #31
 8011de6:	463b      	mov	r3, r7
 8011de8:	d505      	bpl.n	8011df6 <_svfprintf_r+0xa56>
 8011dea:	2830      	cmp	r0, #48	; 0x30
 8011dec:	d003      	beq.n	8011df6 <_svfprintf_r+0xa56>
 8011dee:	2430      	movs	r4, #48	; 0x30
 8011df0:	4667      	mov	r7, ip
 8011df2:	f803 4c01 	strb.w	r4, [r3, #-1]
 8011df6:	9c03      	ldr	r4, [sp, #12]
 8011df8:	1be2      	subs	r2, r4, r7
 8011dfa:	920a      	str	r2, [sp, #40]	; 0x28
 8011dfc:	f7ff bbf4 	b.w	80115e8 <_svfprintf_r+0x248>
 8011e00:	f1b8 0f65 	cmp.w	r8, #101	; 0x65
 8011e04:	f77f af53 	ble.w	8011cae <_svfprintf_r+0x90e>
 8011e08:	e9dd 0112 	ldrd	r0, r1, [sp, #72]	; 0x48
 8011e0c:	2200      	movs	r2, #0
 8011e0e:	2300      	movs	r3, #0
 8011e10:	f7fa fd16 	bl	800c840 <__aeabi_dcmpeq>
 8011e14:	2800      	cmp	r0, #0
 8011e16:	f000 81ac 	beq.w	8012172 <_svfprintf_r+0xdd2>
 8011e1a:	9822      	ldr	r0, [sp, #136]	; 0x88
 8011e1c:	49a8      	ldr	r1, [pc, #672]	; (80120c0 <_svfprintf_r+0xd20>)
 8011e1e:	1c43      	adds	r3, r0, #1
 8011e20:	3401      	adds	r4, #1
 8011e22:	2201      	movs	r2, #1
 8011e24:	2b07      	cmp	r3, #7
 8011e26:	6031      	str	r1, [r6, #0]
 8011e28:	6072      	str	r2, [r6, #4]
 8011e2a:	9423      	str	r4, [sp, #140]	; 0x8c
 8011e2c:	9322      	str	r3, [sp, #136]	; 0x88
 8011e2e:	f300 8451 	bgt.w	80126d4 <_svfprintf_r+0x1334>
 8011e32:	3608      	adds	r6, #8
 8011e34:	981a      	ldr	r0, [sp, #104]	; 0x68
 8011e36:	9b0d      	ldr	r3, [sp, #52]	; 0x34
 8011e38:	4298      	cmp	r0, r3
 8011e3a:	db03      	blt.n	8011e44 <_svfprintf_r+0xaa4>
 8011e3c:	9904      	ldr	r1, [sp, #16]
 8011e3e:	07cb      	lsls	r3, r1, #31
 8011e40:	f57f aec3 	bpl.w	8011bca <_svfprintf_r+0x82a>
 8011e44:	9b22      	ldr	r3, [sp, #136]	; 0x88
 8011e46:	9811      	ldr	r0, [sp, #68]	; 0x44
 8011e48:	9a0f      	ldr	r2, [sp, #60]	; 0x3c
 8011e4a:	6070      	str	r0, [r6, #4]
 8011e4c:	1c59      	adds	r1, r3, #1
 8011e4e:	1824      	adds	r4, r4, r0
 8011e50:	2907      	cmp	r1, #7
 8011e52:	6032      	str	r2, [r6, #0]
 8011e54:	9423      	str	r4, [sp, #140]	; 0x8c
 8011e56:	9122      	str	r1, [sp, #136]	; 0x88
 8011e58:	f300 857f 	bgt.w	801295a <_svfprintf_r+0x15ba>
 8011e5c:	3608      	adds	r6, #8
 8011e5e:	9d0d      	ldr	r5, [sp, #52]	; 0x34
 8011e60:	3d01      	subs	r5, #1
 8011e62:	2d00      	cmp	r5, #0
 8011e64:	f77f aeb1 	ble.w	8011bca <_svfprintf_r+0x82a>
 8011e68:	2d10      	cmp	r5, #16
 8011e6a:	f340 8288 	ble.w	801237e <_svfprintf_r+0xfde>
 8011e6e:	9822      	ldr	r0, [sp, #136]	; 0x88
 8011e70:	9a0d      	ldr	r2, [sp, #52]	; 0x34
 8011e72:	f8c6 9000 	str.w	r9, [r6]
 8011e76:	2710      	movs	r7, #16
 8011e78:	1c41      	adds	r1, r0, #1
 8011e7a:	f1a2 0e12 	sub.w	lr, r2, #18
 8011e7e:	19e4      	adds	r4, r4, r7
 8011e80:	2907      	cmp	r1, #7
 8011e82:	6077      	str	r7, [r6, #4]
 8011e84:	f8df b23c 	ldr.w	fp, [pc, #572]	; 80120c4 <_svfprintf_r+0xd24>
 8011e88:	9423      	str	r4, [sp, #140]	; 0x8c
 8011e8a:	9122      	str	r1, [sp, #136]	; 0x88
 8011e8c:	f3ce 1800 	ubfx	r8, lr, #4, #1
 8011e90:	f300 8616 	bgt.w	8012ac0 <_svfprintf_r+0x1720>
 8011e94:	3608      	adds	r6, #8
 8011e96:	3d10      	subs	r5, #16
 8011e98:	2d10      	cmp	r5, #16
 8011e9a:	f340 8273 	ble.w	8012384 <_svfprintf_r+0xfe4>
 8011e9e:	f1b8 0f00 	cmp.w	r8, #0
 8011ea2:	d00e      	beq.n	8011ec2 <_svfprintf_r+0xb22>
 8011ea4:	3101      	adds	r1, #1
 8011ea6:	3410      	adds	r4, #16
 8011ea8:	2907      	cmp	r1, #7
 8011eaa:	f8c6 9000 	str.w	r9, [r6]
 8011eae:	6077      	str	r7, [r6, #4]
 8011eb0:	9423      	str	r4, [sp, #140]	; 0x8c
 8011eb2:	9122      	str	r1, [sp, #136]	; 0x88
 8011eb4:	f300 8611 	bgt.w	8012ada <_svfprintf_r+0x173a>
 8011eb8:	3608      	adds	r6, #8
 8011eba:	3d10      	subs	r5, #16
 8011ebc:	2d10      	cmp	r5, #16
 8011ebe:	f340 8261 	ble.w	8012384 <_svfprintf_r+0xfe4>
 8011ec2:	4620      	mov	r0, r4
 8011ec4:	f8dd 8020 	ldr.w	r8, [sp, #32]
 8011ec8:	9c06      	ldr	r4, [sp, #24]
 8011eca:	e010      	b.n	8011eee <_svfprintf_r+0xb4e>
 8011ecc:	3608      	adds	r6, #8
 8011ece:	1c59      	adds	r1, r3, #1
 8011ed0:	3010      	adds	r0, #16
 8011ed2:	3d10      	subs	r5, #16
 8011ed4:	2907      	cmp	r1, #7
 8011ed6:	f8c6 9000 	str.w	r9, [r6]
 8011eda:	6077      	str	r7, [r6, #4]
 8011edc:	9122      	str	r1, [sp, #136]	; 0x88
 8011ede:	9023      	str	r0, [sp, #140]	; 0x8c
 8011ee0:	f300 811f 	bgt.w	8012122 <_svfprintf_r+0xd82>
 8011ee4:	3608      	adds	r6, #8
 8011ee6:	3d10      	subs	r5, #16
 8011ee8:	2d10      	cmp	r5, #16
 8011eea:	f340 83ec 	ble.w	80126c6 <_svfprintf_r+0x1326>
 8011eee:	1c4b      	adds	r3, r1, #1
 8011ef0:	3010      	adds	r0, #16
 8011ef2:	2b07      	cmp	r3, #7
 8011ef4:	f8c6 9000 	str.w	r9, [r6]
 8011ef8:	6077      	str	r7, [r6, #4]
 8011efa:	9023      	str	r0, [sp, #140]	; 0x8c
 8011efc:	9322      	str	r3, [sp, #136]	; 0x88
 8011efe:	dde5      	ble.n	8011ecc <_svfprintf_r+0xb2c>
 8011f00:	4640      	mov	r0, r8
 8011f02:	4621      	mov	r1, r4
 8011f04:	aa21      	add	r2, sp, #132	; 0x84
 8011f06:	f003 f975 	bl	80151f4 <__ssprint_r>
 8011f0a:	2800      	cmp	r0, #0
 8011f0c:	f47f ac07 	bne.w	801171e <_svfprintf_r+0x37e>
 8011f10:	9823      	ldr	r0, [sp, #140]	; 0x8c
 8011f12:	9b22      	ldr	r3, [sp, #136]	; 0x88
 8011f14:	ae2e      	add	r6, sp, #184	; 0xb8
 8011f16:	e7da      	b.n	8011ece <_svfprintf_r+0xb2e>
 8011f18:	9d09      	ldr	r5, [sp, #36]	; 0x24
 8011f1a:	9807      	ldr	r0, [sp, #28]
 8011f1c:	1a2d      	subs	r5, r5, r0
 8011f1e:	2d00      	cmp	r5, #0
 8011f20:	f77f adcd 	ble.w	8011abe <_svfprintf_r+0x71e>
 8011f24:	2d10      	cmp	r5, #16
 8011f26:	f340 8694 	ble.w	8012c52 <_svfprintf_r+0x18b2>
 8011f2a:	9822      	ldr	r0, [sp, #136]	; 0x88
 8011f2c:	4a65      	ldr	r2, [pc, #404]	; (80120c4 <_svfprintf_r+0xd24>)
 8011f2e:	f8c6 9000 	str.w	r9, [r6]
 8011f32:	f04f 0b10 	mov.w	fp, #16
 8011f36:	3001      	adds	r0, #1
 8011f38:	f1a5 0311 	sub.w	r3, r5, #17
 8011f3c:	445c      	add	r4, fp
 8011f3e:	2807      	cmp	r0, #7
 8011f40:	f8c6 b004 	str.w	fp, [r6, #4]
 8011f44:	9205      	str	r2, [sp, #20]
 8011f46:	9423      	str	r4, [sp, #140]	; 0x8c
 8011f48:	9022      	str	r0, [sp, #136]	; 0x88
 8011f4a:	f3c3 1300 	ubfx	r3, r3, #4, #1
 8011f4e:	f300 8313 	bgt.w	8012578 <_svfprintf_r+0x11d8>
 8011f52:	3608      	adds	r6, #8
 8011f54:	3d10      	subs	r5, #16
 8011f56:	2d10      	cmp	r5, #16
 8011f58:	dd48      	ble.n	8011fec <_svfprintf_r+0xc4c>
 8011f5a:	b163      	cbz	r3, 8011f76 <_svfprintf_r+0xbd6>
 8011f5c:	3001      	adds	r0, #1
 8011f5e:	3410      	adds	r4, #16
 8011f60:	2807      	cmp	r0, #7
 8011f62:	e886 0a00 	stmia.w	r6, {r9, fp}
 8011f66:	9423      	str	r4, [sp, #140]	; 0x8c
 8011f68:	9022      	str	r0, [sp, #136]	; 0x88
 8011f6a:	f300 8313 	bgt.w	8012594 <_svfprintf_r+0x11f4>
 8011f6e:	3608      	adds	r6, #8
 8011f70:	3d10      	subs	r5, #16
 8011f72:	2d10      	cmp	r5, #16
 8011f74:	dd3a      	ble.n	8011fec <_svfprintf_r+0xc4c>
 8011f76:	4621      	mov	r1, r4
 8011f78:	4632      	mov	r2, r6
 8011f7a:	9c08      	ldr	r4, [sp, #32]
 8011f7c:	462e      	mov	r6, r5
 8011f7e:	4603      	mov	r3, r0
 8011f80:	9d06      	ldr	r5, [sp, #24]
 8011f82:	e00d      	b.n	8011fa0 <_svfprintf_r+0xc00>
 8011f84:	3208      	adds	r2, #8
 8011f86:	1c43      	adds	r3, r0, #1
 8011f88:	3110      	adds	r1, #16
 8011f8a:	3e10      	subs	r6, #16
 8011f8c:	2b07      	cmp	r3, #7
 8011f8e:	e882 0a00 	stmia.w	r2, {r9, fp}
 8011f92:	9322      	str	r3, [sp, #136]	; 0x88
 8011f94:	9123      	str	r1, [sp, #140]	; 0x8c
 8011f96:	dc17      	bgt.n	8011fc8 <_svfprintf_r+0xc28>
 8011f98:	3e10      	subs	r6, #16
 8011f9a:	3208      	adds	r2, #8
 8011f9c:	2e10      	cmp	r6, #16
 8011f9e:	dd21      	ble.n	8011fe4 <_svfprintf_r+0xc44>
 8011fa0:	1c58      	adds	r0, r3, #1
 8011fa2:	3110      	adds	r1, #16
 8011fa4:	2807      	cmp	r0, #7
 8011fa6:	e882 0a00 	stmia.w	r2, {r9, fp}
 8011faa:	9123      	str	r1, [sp, #140]	; 0x8c
 8011fac:	9022      	str	r0, [sp, #136]	; 0x88
 8011fae:	dde9      	ble.n	8011f84 <_svfprintf_r+0xbe4>
 8011fb0:	4620      	mov	r0, r4
 8011fb2:	4629      	mov	r1, r5
 8011fb4:	aa21      	add	r2, sp, #132	; 0x84
 8011fb6:	f003 f91d 	bl	80151f4 <__ssprint_r>
 8011fba:	2800      	cmp	r0, #0
 8011fbc:	f47f abaf 	bne.w	801171e <_svfprintf_r+0x37e>
 8011fc0:	9923      	ldr	r1, [sp, #140]	; 0x8c
 8011fc2:	9822      	ldr	r0, [sp, #136]	; 0x88
 8011fc4:	aa2e      	add	r2, sp, #184	; 0xb8
 8011fc6:	e7de      	b.n	8011f86 <_svfprintf_r+0xbe6>
 8011fc8:	4620      	mov	r0, r4
 8011fca:	4629      	mov	r1, r5
 8011fcc:	aa21      	add	r2, sp, #132	; 0x84
 8011fce:	f003 f911 	bl	80151f4 <__ssprint_r>
 8011fd2:	2800      	cmp	r0, #0
 8011fd4:	f47f aba3 	bne.w	801171e <_svfprintf_r+0x37e>
 8011fd8:	3e10      	subs	r6, #16
 8011fda:	2e10      	cmp	r6, #16
 8011fdc:	aa2e      	add	r2, sp, #184	; 0xb8
 8011fde:	9923      	ldr	r1, [sp, #140]	; 0x8c
 8011fe0:	9b22      	ldr	r3, [sp, #136]	; 0x88
 8011fe2:	dcdd      	bgt.n	8011fa0 <_svfprintf_r+0xc00>
 8011fe4:	4635      	mov	r5, r6
 8011fe6:	460c      	mov	r4, r1
 8011fe8:	4616      	mov	r6, r2
 8011fea:	4618      	mov	r0, r3
 8011fec:	1c41      	adds	r1, r0, #1
 8011fee:	9b05      	ldr	r3, [sp, #20]
 8011ff0:	1964      	adds	r4, r4, r5
 8011ff2:	2907      	cmp	r1, #7
 8011ff4:	e886 0028 	stmia.w	r6, {r3, r5}
 8011ff8:	9423      	str	r4, [sp, #140]	; 0x8c
 8011ffa:	9122      	str	r1, [sp, #136]	; 0x88
 8011ffc:	f300 8300 	bgt.w	8012600 <_svfprintf_r+0x1260>
 8012000:	3608      	adds	r6, #8
 8012002:	e55c      	b.n	8011abe <_svfprintf_r+0x71e>
 8012004:	4a2f      	ldr	r2, [pc, #188]	; (80120c4 <_svfprintf_r+0xd24>)
 8012006:	9205      	str	r2, [sp, #20]
 8012008:	3501      	adds	r5, #1
 801200a:	9b05      	ldr	r3, [sp, #20]
 801200c:	19e4      	adds	r4, r4, r7
 801200e:	2d07      	cmp	r5, #7
 8012010:	e886 0088 	stmia.w	r6, {r3, r7}
 8012014:	9423      	str	r4, [sp, #140]	; 0x8c
 8012016:	9522      	str	r5, [sp, #136]	; 0x88
 8012018:	f77f ae7a 	ble.w	8011d10 <_svfprintf_r+0x970>
 801201c:	9808      	ldr	r0, [sp, #32]
 801201e:	9906      	ldr	r1, [sp, #24]
 8012020:	aa21      	add	r2, sp, #132	; 0x84
 8012022:	f003 f8e7 	bl	80151f4 <__ssprint_r>
 8012026:	2800      	cmp	r0, #0
 8012028:	f47f ab79 	bne.w	801171e <_svfprintf_r+0x37e>
 801202c:	ae2e      	add	r6, sp, #184	; 0xb8
 801202e:	9c23      	ldr	r4, [sp, #140]	; 0x8c
 8012030:	9d22      	ldr	r5, [sp, #136]	; 0x88
 8012032:	e66e      	b.n	8011d12 <_svfprintf_r+0x972>
 8012034:	9808      	ldr	r0, [sp, #32]
 8012036:	9906      	ldr	r1, [sp, #24]
 8012038:	aa21      	add	r2, sp, #132	; 0x84
 801203a:	f003 f8db 	bl	80151f4 <__ssprint_r>
 801203e:	2800      	cmp	r0, #0
 8012040:	f43f ae8b 	beq.w	8011d5a <_svfprintf_r+0x9ba>
 8012044:	f7ff bb6b 	b.w	801171e <_svfprintf_r+0x37e>
 8012048:	9808      	ldr	r0, [sp, #32]
 801204a:	9906      	ldr	r1, [sp, #24]
 801204c:	9302      	str	r3, [sp, #8]
 801204e:	aa21      	add	r2, sp, #132	; 0x84
 8012050:	f003 f8d0 	bl	80151f4 <__ssprint_r>
 8012054:	9b02      	ldr	r3, [sp, #8]
 8012056:	2800      	cmp	r0, #0
 8012058:	f47f ab61 	bne.w	801171e <_svfprintf_r+0x37e>
 801205c:	ae2e      	add	r6, sp, #184	; 0xb8
 801205e:	9c23      	ldr	r4, [sp, #140]	; 0x8c
 8012060:	9a22      	ldr	r2, [sp, #136]	; 0x88
 8012062:	e549      	b.n	8011af8 <_svfprintf_r+0x758>
 8012064:	9808      	ldr	r0, [sp, #32]
 8012066:	9906      	ldr	r1, [sp, #24]
 8012068:	aa21      	add	r2, sp, #132	; 0x84
 801206a:	f003 f8c3 	bl	80151f4 <__ssprint_r>
 801206e:	2800      	cmp	r0, #0
 8012070:	f47f ab55 	bne.w	801171e <_svfprintf_r+0x37e>
 8012074:	ae2e      	add	r6, sp, #184	; 0xb8
 8012076:	9c23      	ldr	r4, [sp, #140]	; 0x8c
 8012078:	9a22      	ldr	r2, [sp, #136]	; 0x88
 801207a:	e54b      	b.n	8011b14 <_svfprintf_r+0x774>
 801207c:	9808      	ldr	r0, [sp, #32]
 801207e:	9906      	ldr	r1, [sp, #24]
 8012080:	aa21      	add	r2, sp, #132	; 0x84
 8012082:	f003 f8b7 	bl	80151f4 <__ssprint_r>
 8012086:	2800      	cmp	r0, #0
 8012088:	f47f ab49 	bne.w	801171e <_svfprintf_r+0x37e>
 801208c:	9c23      	ldr	r4, [sp, #140]	; 0x8c
 801208e:	ae2e      	add	r6, sp, #184	; 0xb8
 8012090:	e58a      	b.n	8011ba8 <_svfprintf_r+0x808>
 8012092:	9808      	ldr	r0, [sp, #32]
 8012094:	9906      	ldr	r1, [sp, #24]
 8012096:	aa21      	add	r2, sp, #132	; 0x84
 8012098:	f003 f8ac 	bl	80151f4 <__ssprint_r>
 801209c:	2800      	cmp	r0, #0
 801209e:	f47f ab3e 	bne.w	801171e <_svfprintf_r+0x37e>
 80120a2:	9c23      	ldr	r4, [sp, #140]	; 0x8c
 80120a4:	ae2e      	add	r6, sp, #184	; 0xb8
 80120a6:	e4f7      	b.n	8011a98 <_svfprintf_r+0x6f8>
 80120a8:	9808      	ldr	r0, [sp, #32]
 80120aa:	9906      	ldr	r1, [sp, #24]
 80120ac:	aa21      	add	r2, sp, #132	; 0x84
 80120ae:	f003 f8a1 	bl	80151f4 <__ssprint_r>
 80120b2:	2800      	cmp	r0, #0
 80120b4:	f47f ab33 	bne.w	801171e <_svfprintf_r+0x37e>
 80120b8:	9c23      	ldr	r4, [sp, #140]	; 0x8c
 80120ba:	ae2e      	add	r6, sp, #184	; 0xb8
 80120bc:	e4fb      	b.n	8011ab6 <_svfprintf_r+0x716>
 80120be:	bf00      	nop
 80120c0:	08015834 	.word	0x08015834
 80120c4:	08015838 	.word	0x08015838
 80120c8:	f8dd e050 	ldr.w	lr, [sp, #80]	; 0x50
 80120cc:	9607      	str	r6, [sp, #28]
 80120ce:	210f      	movs	r1, #15
 80120d0:	ea04 0601 	and.w	r6, r4, r1
 80120d4:	eb0e 0006 	add.w	r0, lr, r6
 80120d8:	0927      	lsrs	r7, r4, #4
 80120da:	092a      	lsrs	r2, r5, #4
 80120dc:	ea47 7405 	orr.w	r4, r7, r5, lsl #28
 80120e0:	7803      	ldrb	r3, [r0, #0]
 80120e2:	4615      	mov	r5, r2
 80120e4:	ea54 0205 	orrs.w	r2, r4, r5
 80120e8:	4667      	mov	r7, ip
 80120ea:	f88c 3000 	strb.w	r3, [ip]
 80120ee:	f10c 3cff 	add.w	ip, ip, #4294967295
 80120f2:	d1ed      	bne.n	80120d0 <_svfprintf_r+0xd30>
 80120f4:	9903      	ldr	r1, [sp, #12]
 80120f6:	9e07      	ldr	r6, [sp, #28]
 80120f8:	1bc8      	subs	r0, r1, r7
 80120fa:	900a      	str	r0, [sp, #40]	; 0x28
 80120fc:	f7ff ba74 	b.w	80115e8 <_svfprintf_r+0x248>
 8012100:	2d00      	cmp	r5, #0
 8012102:	bf08      	it	eq
 8012104:	2c0a      	cmpeq	r4, #10
 8012106:	f080 8154 	bcs.w	80123b2 <_svfprintf_r+0x1012>
 801210a:	af3e      	add	r7, sp, #248	; 0xf8
 801210c:	3430      	adds	r4, #48	; 0x30
 801210e:	f807 4d41 	strb.w	r4, [r7, #-65]!
 8012112:	9b03      	ldr	r3, [sp, #12]
 8012114:	1bd9      	subs	r1, r3, r7
 8012116:	910a      	str	r1, [sp, #40]	; 0x28
 8012118:	f7ff ba66 	b.w	80115e8 <_svfprintf_r+0x248>
 801211c:	2302      	movs	r3, #2
 801211e:	f7ff ba2a 	b.w	8011576 <_svfprintf_r+0x1d6>
 8012122:	4640      	mov	r0, r8
 8012124:	4621      	mov	r1, r4
 8012126:	aa21      	add	r2, sp, #132	; 0x84
 8012128:	f003 f864 	bl	80151f4 <__ssprint_r>
 801212c:	2800      	cmp	r0, #0
 801212e:	f47f aaf6 	bne.w	801171e <_svfprintf_r+0x37e>
 8012132:	ae2e      	add	r6, sp, #184	; 0xb8
 8012134:	9823      	ldr	r0, [sp, #140]	; 0x8c
 8012136:	9922      	ldr	r1, [sp, #136]	; 0x88
 8012138:	e6d5      	b.n	8011ee6 <_svfprintf_r+0xb46>
 801213a:	9808      	ldr	r0, [sp, #32]
 801213c:	9906      	ldr	r1, [sp, #24]
 801213e:	9302      	str	r3, [sp, #8]
 8012140:	aa21      	add	r2, sp, #132	; 0x84
 8012142:	f003 f857 	bl	80151f4 <__ssprint_r>
 8012146:	9b02      	ldr	r3, [sp, #8]
 8012148:	2800      	cmp	r0, #0
 801214a:	f47f aae8 	bne.w	801171e <_svfprintf_r+0x37e>
 801214e:	ae2e      	add	r6, sp, #184	; 0xb8
 8012150:	9923      	ldr	r1, [sp, #140]	; 0x8c
 8012152:	9a22      	ldr	r2, [sp, #136]	; 0x88
 8012154:	f7ff ba80 	b.w	8011658 <_svfprintf_r+0x2b8>
 8012158:	9808      	ldr	r0, [sp, #32]
 801215a:	9906      	ldr	r1, [sp, #24]
 801215c:	aa21      	add	r2, sp, #132	; 0x84
 801215e:	f003 f849 	bl	80151f4 <__ssprint_r>
 8012162:	2800      	cmp	r0, #0
 8012164:	f47f aadb 	bne.w	801171e <_svfprintf_r+0x37e>
 8012168:	ae2e      	add	r6, sp, #184	; 0xb8
 801216a:	9923      	ldr	r1, [sp, #140]	; 0x8c
 801216c:	9a22      	ldr	r2, [sp, #136]	; 0x88
 801216e:	f7ff ba86 	b.w	801167e <_svfprintf_r+0x2de>
 8012172:	9d1a      	ldr	r5, [sp, #104]	; 0x68
 8012174:	2d00      	cmp	r5, #0
 8012176:	f340 82b9 	ble.w	80126ec <_svfprintf_r+0x134c>
 801217a:	9d0d      	ldr	r5, [sp, #52]	; 0x34
 801217c:	9910      	ldr	r1, [sp, #64]	; 0x40
 801217e:	9a0d      	ldr	r2, [sp, #52]	; 0x34
 8012180:	428d      	cmp	r5, r1
 8012182:	bfa8      	it	ge
 8012184:	460d      	movge	r5, r1
 8012186:	18b8      	adds	r0, r7, r2
 8012188:	2d00      	cmp	r5, #0
 801218a:	9005      	str	r0, [sp, #20]
 801218c:	dd0a      	ble.n	80121a4 <_svfprintf_r+0xe04>
 801218e:	9b22      	ldr	r3, [sp, #136]	; 0x88
 8012190:	6037      	str	r7, [r6, #0]
 8012192:	1c59      	adds	r1, r3, #1
 8012194:	1964      	adds	r4, r4, r5
 8012196:	2907      	cmp	r1, #7
 8012198:	6075      	str	r5, [r6, #4]
 801219a:	9423      	str	r4, [sp, #140]	; 0x8c
 801219c:	9122      	str	r1, [sp, #136]	; 0x88
 801219e:	f300 8483 	bgt.w	8012aa8 <_svfprintf_r+0x1708>
 80121a2:	3608      	adds	r6, #8
 80121a4:	9a10      	ldr	r2, [sp, #64]	; 0x40
 80121a6:	ea25 75e5 	bic.w	r5, r5, r5, asr #31
 80121aa:	1b55      	subs	r5, r2, r5
 80121ac:	2d00      	cmp	r5, #0
 80121ae:	f340 814f 	ble.w	8012450 <_svfprintf_r+0x10b0>
 80121b2:	2d10      	cmp	r5, #16
 80121b4:	f340 8278 	ble.w	80126a8 <_svfprintf_r+0x1308>
 80121b8:	9922      	ldr	r1, [sp, #136]	; 0x88
 80121ba:	4b9f      	ldr	r3, [pc, #636]	; (8012438 <_svfprintf_r+0x1098>)
 80121bc:	f8c6 9000 	str.w	r9, [r6]
 80121c0:	f04f 0810 	mov.w	r8, #16
 80121c4:	3101      	adds	r1, #1
 80121c6:	f1a5 0e11 	sub.w	lr, r5, #17
 80121ca:	4444      	add	r4, r8
 80121cc:	2907      	cmp	r1, #7
 80121ce:	f8c6 8004 	str.w	r8, [r6, #4]
 80121d2:	930a      	str	r3, [sp, #40]	; 0x28
 80121d4:	9423      	str	r4, [sp, #140]	; 0x8c
 80121d6:	9122      	str	r1, [sp, #136]	; 0x88
 80121d8:	f3ce 1b00 	ubfx	fp, lr, #4, #1
 80121dc:	f300 8457 	bgt.w	8012a8e <_svfprintf_r+0x16ee>
 80121e0:	3608      	adds	r6, #8
 80121e2:	3d10      	subs	r5, #16
 80121e4:	2d10      	cmp	r5, #16
 80121e6:	f340 8262 	ble.w	80126ae <_svfprintf_r+0x130e>
 80121ea:	f1bb 0f00 	cmp.w	fp, #0
 80121ee:	d00f      	beq.n	8012210 <_svfprintf_r+0xe70>
 80121f0:	3101      	adds	r1, #1
 80121f2:	3410      	adds	r4, #16
 80121f4:	2907      	cmp	r1, #7
 80121f6:	f8c6 9000 	str.w	r9, [r6]
 80121fa:	f8c6 8004 	str.w	r8, [r6, #4]
 80121fe:	9423      	str	r4, [sp, #140]	; 0x8c
 8012200:	9122      	str	r1, [sp, #136]	; 0x88
 8012202:	f300 8477 	bgt.w	8012af4 <_svfprintf_r+0x1754>
 8012206:	3608      	adds	r6, #8
 8012208:	3d10      	subs	r5, #16
 801220a:	2d10      	cmp	r5, #16
 801220c:	f340 824f 	ble.w	80126ae <_svfprintf_r+0x130e>
 8012210:	4620      	mov	r0, r4
 8012212:	f8dd b020 	ldr.w	fp, [sp, #32]
 8012216:	9c06      	ldr	r4, [sp, #24]
 8012218:	e012      	b.n	8012240 <_svfprintf_r+0xea0>
 801221a:	f106 0208 	add.w	r2, r6, #8
 801221e:	1c59      	adds	r1, r3, #1
 8012220:	3010      	adds	r0, #16
 8012222:	3d10      	subs	r5, #16
 8012224:	2907      	cmp	r1, #7
 8012226:	f8c2 9000 	str.w	r9, [r2]
 801222a:	f8c2 8004 	str.w	r8, [r2, #4]
 801222e:	9122      	str	r1, [sp, #136]	; 0x88
 8012230:	9023      	str	r0, [sp, #140]	; 0x8c
 8012232:	dc1b      	bgt.n	801226c <_svfprintf_r+0xecc>
 8012234:	f102 0608 	add.w	r6, r2, #8
 8012238:	3d10      	subs	r5, #16
 801223a:	2d10      	cmp	r5, #16
 801223c:	f340 840d 	ble.w	8012a5a <_svfprintf_r+0x16ba>
 8012240:	1c4b      	adds	r3, r1, #1
 8012242:	3010      	adds	r0, #16
 8012244:	2b07      	cmp	r3, #7
 8012246:	f8c6 9000 	str.w	r9, [r6]
 801224a:	f8c6 8004 	str.w	r8, [r6, #4]
 801224e:	9023      	str	r0, [sp, #140]	; 0x8c
 8012250:	9322      	str	r3, [sp, #136]	; 0x88
 8012252:	dde2      	ble.n	801221a <_svfprintf_r+0xe7a>
 8012254:	4658      	mov	r0, fp
 8012256:	4621      	mov	r1, r4
 8012258:	aa21      	add	r2, sp, #132	; 0x84
 801225a:	f002 ffcb 	bl	80151f4 <__ssprint_r>
 801225e:	2800      	cmp	r0, #0
 8012260:	f47f aa5d 	bne.w	801171e <_svfprintf_r+0x37e>
 8012264:	9823      	ldr	r0, [sp, #140]	; 0x8c
 8012266:	9b22      	ldr	r3, [sp, #136]	; 0x88
 8012268:	aa2e      	add	r2, sp, #184	; 0xb8
 801226a:	e7d8      	b.n	801221e <_svfprintf_r+0xe7e>
 801226c:	4658      	mov	r0, fp
 801226e:	4621      	mov	r1, r4
 8012270:	aa21      	add	r2, sp, #132	; 0x84
 8012272:	f002 ffbf 	bl	80151f4 <__ssprint_r>
 8012276:	2800      	cmp	r0, #0
 8012278:	f47f aa51 	bne.w	801171e <_svfprintf_r+0x37e>
 801227c:	ae2e      	add	r6, sp, #184	; 0xb8
 801227e:	9823      	ldr	r0, [sp, #140]	; 0x8c
 8012280:	9922      	ldr	r1, [sp, #136]	; 0x88
 8012282:	e7d9      	b.n	8012238 <_svfprintf_r+0xe98>
 8012284:	9c05      	ldr	r4, [sp, #20]
 8012286:	af2e      	add	r7, sp, #184	; 0xb8
 8012288:	940a      	str	r4, [sp, #40]	; 0x28
 801228a:	f7ff b9ad 	b.w	80115e8 <_svfprintf_r+0x248>
 801228e:	9808      	ldr	r0, [sp, #32]
 8012290:	9906      	ldr	r1, [sp, #24]
 8012292:	aa21      	add	r2, sp, #132	; 0x84
 8012294:	f002 ffae 	bl	80151f4 <__ssprint_r>
 8012298:	2800      	cmp	r0, #0
 801229a:	f47f aa40 	bne.w	801171e <_svfprintf_r+0x37e>
 801229e:	9c23      	ldr	r4, [sp, #140]	; 0x8c
 80122a0:	ae2e      	add	r6, sp, #184	; 0xb8
 80122a2:	f7ff bbe8 	b.w	8011a76 <_svfprintf_r+0x6d6>
 80122a6:	9f0d      	ldr	r7, [sp, #52]	; 0x34
 80122a8:	3f01      	subs	r7, #1
 80122aa:	2f00      	cmp	r7, #0
 80122ac:	f77f ad31 	ble.w	8011d12 <_svfprintf_r+0x972>
 80122b0:	2f10      	cmp	r7, #16
 80122b2:	f77f aea7 	ble.w	8012004 <_svfprintf_r+0xc64>
 80122b6:	980d      	ldr	r0, [sp, #52]	; 0x34
 80122b8:	4b5f      	ldr	r3, [pc, #380]	; (8012438 <_svfprintf_r+0x1098>)
 80122ba:	f8c6 9000 	str.w	r9, [r6]
 80122be:	f04f 0810 	mov.w	r8, #16
 80122c2:	3501      	adds	r5, #1
 80122c4:	f1a0 0b12 	sub.w	fp, r0, #18
 80122c8:	4444      	add	r4, r8
 80122ca:	2d07      	cmp	r5, #7
 80122cc:	f8c6 8004 	str.w	r8, [r6, #4]
 80122d0:	9305      	str	r3, [sp, #20]
 80122d2:	9423      	str	r4, [sp, #140]	; 0x8c
 80122d4:	9522      	str	r5, [sp, #136]	; 0x88
 80122d6:	f3cb 1b00 	ubfx	fp, fp, #4, #1
 80122da:	f300 83c0 	bgt.w	8012a5e <_svfprintf_r+0x16be>
 80122de:	3608      	adds	r6, #8
 80122e0:	3f10      	subs	r7, #16
 80122e2:	2f10      	cmp	r7, #16
 80122e4:	f77f ae90 	ble.w	8012008 <_svfprintf_r+0xc68>
 80122e8:	f1bb 0f00 	cmp.w	fp, #0
 80122ec:	d00f      	beq.n	801230e <_svfprintf_r+0xf6e>
 80122ee:	3501      	adds	r5, #1
 80122f0:	3410      	adds	r4, #16
 80122f2:	2d07      	cmp	r5, #7
 80122f4:	f8c6 9000 	str.w	r9, [r6]
 80122f8:	f8c6 8004 	str.w	r8, [r6, #4]
 80122fc:	9423      	str	r4, [sp, #140]	; 0x8c
 80122fe:	9522      	str	r5, [sp, #136]	; 0x88
 8012300:	f300 83b9 	bgt.w	8012a76 <_svfprintf_r+0x16d6>
 8012304:	3608      	adds	r6, #8
 8012306:	3f10      	subs	r7, #16
 8012308:	2f10      	cmp	r7, #16
 801230a:	f77f ae7d 	ble.w	8012008 <_svfprintf_r+0xc68>
 801230e:	4621      	mov	r1, r4
 8012310:	f8dd b020 	ldr.w	fp, [sp, #32]
 8012314:	9c06      	ldr	r4, [sp, #24]
 8012316:	e010      	b.n	801233a <_svfprintf_r+0xf9a>
 8012318:	3608      	adds	r6, #8
 801231a:	3501      	adds	r5, #1
 801231c:	3110      	adds	r1, #16
 801231e:	3f10      	subs	r7, #16
 8012320:	2d07      	cmp	r5, #7
 8012322:	f8c6 9000 	str.w	r9, [r6]
 8012326:	f8c6 8004 	str.w	r8, [r6, #4]
 801232a:	9123      	str	r1, [sp, #140]	; 0x8c
 801232c:	9522      	str	r5, [sp, #136]	; 0x88
 801232e:	dc1a      	bgt.n	8012366 <_svfprintf_r+0xfc6>
 8012330:	3608      	adds	r6, #8
 8012332:	3f10      	subs	r7, #16
 8012334:	2f10      	cmp	r7, #16
 8012336:	f340 8363 	ble.w	8012a00 <_svfprintf_r+0x1660>
 801233a:	3501      	adds	r5, #1
 801233c:	3110      	adds	r1, #16
 801233e:	2d07      	cmp	r5, #7
 8012340:	f8c6 9000 	str.w	r9, [r6]
 8012344:	f8c6 8004 	str.w	r8, [r6, #4]
 8012348:	9123      	str	r1, [sp, #140]	; 0x8c
 801234a:	9522      	str	r5, [sp, #136]	; 0x88
 801234c:	dde4      	ble.n	8012318 <_svfprintf_r+0xf78>
 801234e:	4658      	mov	r0, fp
 8012350:	4621      	mov	r1, r4
 8012352:	aa21      	add	r2, sp, #132	; 0x84
 8012354:	f002 ff4e 	bl	80151f4 <__ssprint_r>
 8012358:	2800      	cmp	r0, #0
 801235a:	f47f a9e0 	bne.w	801171e <_svfprintf_r+0x37e>
 801235e:	9923      	ldr	r1, [sp, #140]	; 0x8c
 8012360:	9d22      	ldr	r5, [sp, #136]	; 0x88
 8012362:	ae2e      	add	r6, sp, #184	; 0xb8
 8012364:	e7d9      	b.n	801231a <_svfprintf_r+0xf7a>
 8012366:	4658      	mov	r0, fp
 8012368:	4621      	mov	r1, r4
 801236a:	aa21      	add	r2, sp, #132	; 0x84
 801236c:	f002 ff42 	bl	80151f4 <__ssprint_r>
 8012370:	2800      	cmp	r0, #0
 8012372:	f47f a9d4 	bne.w	801171e <_svfprintf_r+0x37e>
 8012376:	ae2e      	add	r6, sp, #184	; 0xb8
 8012378:	9923      	ldr	r1, [sp, #140]	; 0x8c
 801237a:	9d22      	ldr	r5, [sp, #136]	; 0x88
 801237c:	e7d9      	b.n	8012332 <_svfprintf_r+0xf92>
 801237e:	9922      	ldr	r1, [sp, #136]	; 0x88
 8012380:	f8df b0b4 	ldr.w	fp, [pc, #180]	; 8012438 <_svfprintf_r+0x1098>
 8012384:	3101      	adds	r1, #1
 8012386:	1964      	adds	r4, r4, r5
 8012388:	2907      	cmp	r1, #7
 801238a:	f8c6 b000 	str.w	fp, [r6]
 801238e:	6075      	str	r5, [r6, #4]
 8012390:	9423      	str	r4, [sp, #140]	; 0x8c
 8012392:	9122      	str	r1, [sp, #136]	; 0x88
 8012394:	f77f ac18 	ble.w	8011bc8 <_svfprintf_r+0x828>
 8012398:	e4c6      	b.n	8011d28 <_svfprintf_r+0x988>
 801239a:	9808      	ldr	r0, [sp, #32]
 801239c:	9906      	ldr	r1, [sp, #24]
 801239e:	aa21      	add	r2, sp, #132	; 0x84
 80123a0:	f002 ff28 	bl	80151f4 <__ssprint_r>
 80123a4:	2800      	cmp	r0, #0
 80123a6:	f47f a9ba 	bne.w	801171e <_svfprintf_r+0x37e>
 80123aa:	ae2e      	add	r6, sp, #184	; 0xb8
 80123ac:	9c23      	ldr	r4, [sp, #140]	; 0x8c
 80123ae:	9922      	ldr	r1, [sp, #136]	; 0x88
 80123b0:	e42e      	b.n	8011c10 <_svfprintf_r+0x870>
 80123b2:	f10d 0bb7 	add.w	fp, sp, #183	; 0xb7
 80123b6:	4620      	mov	r0, r4
 80123b8:	4629      	mov	r1, r5
 80123ba:	220a      	movs	r2, #10
 80123bc:	2300      	movs	r3, #0
 80123be:	f7fa fab5 	bl	800c92c <__aeabi_uldivmod>
 80123c2:	3230      	adds	r2, #48	; 0x30
 80123c4:	f88b 2000 	strb.w	r2, [fp]
 80123c8:	4620      	mov	r0, r4
 80123ca:	4629      	mov	r1, r5
 80123cc:	220a      	movs	r2, #10
 80123ce:	2300      	movs	r3, #0
 80123d0:	f7fa faac 	bl	800c92c <__aeabi_uldivmod>
 80123d4:	4604      	mov	r4, r0
 80123d6:	460d      	mov	r5, r1
 80123d8:	ea54 0005 	orrs.w	r0, r4, r5
 80123dc:	465f      	mov	r7, fp
 80123de:	f10b 3bff 	add.w	fp, fp, #4294967295
 80123e2:	d1e8      	bne.n	80123b6 <_svfprintf_r+0x1016>
 80123e4:	e507      	b.n	8011df6 <_svfprintf_r+0xa56>
 80123e6:	9808      	ldr	r0, [sp, #32]
 80123e8:	9906      	ldr	r1, [sp, #24]
 80123ea:	aa21      	add	r2, sp, #132	; 0x84
 80123ec:	f002 ff02 	bl	80151f4 <__ssprint_r>
 80123f0:	2800      	cmp	r0, #0
 80123f2:	f47f a994 	bne.w	801171e <_svfprintf_r+0x37e>
 80123f6:	ae2e      	add	r6, sp, #184	; 0xb8
 80123f8:	9c23      	ldr	r4, [sp, #140]	; 0x8c
 80123fa:	9922      	ldr	r1, [sp, #136]	; 0x88
 80123fc:	e41d      	b.n	8011c3a <_svfprintf_r+0x89a>
 80123fe:	990c      	ldr	r1, [sp, #48]	; 0x30
 8012400:	680c      	ldr	r4, [r1, #0]
 8012402:	17e5      	asrs	r5, r4, #31
 8012404:	4622      	mov	r2, r4
 8012406:	462b      	mov	r3, r5
 8012408:	1d0f      	adds	r7, r1, #4
 801240a:	2a00      	cmp	r2, #0
 801240c:	f173 0000 	sbcs.w	r0, r3, #0
 8012410:	970c      	str	r7, [sp, #48]	; 0x30
 8012412:	f6bf a8cb 	bge.w	80115ac <_svfprintf_r+0x20c>
 8012416:	222d      	movs	r2, #45	; 0x2d
 8012418:	4264      	negs	r4, r4
 801241a:	eb65 0545 	sbc.w	r5, r5, r5, lsl #1
 801241e:	f88d 2063 	strb.w	r2, [sp, #99]	; 0x63
 8012422:	2301      	movs	r3, #1
 8012424:	f7ff b8c3 	b.w	80115ae <_svfprintf_r+0x20e>
 8012428:	9a0c      	ldr	r2, [sp, #48]	; 0x30
 801242a:	6815      	ldr	r5, [r2, #0]
 801242c:	1d17      	adds	r7, r2, #4
 801242e:	462c      	mov	r4, r5
 8012430:	970c      	str	r7, [sp, #48]	; 0x30
 8012432:	2500      	movs	r5, #0
 8012434:	f7ff b9ec 	b.w	8011810 <_svfprintf_r+0x470>
 8012438:	08015838 	.word	0x08015838
 801243c:	9808      	ldr	r0, [sp, #32]
 801243e:	9906      	ldr	r1, [sp, #24]
 8012440:	aa21      	add	r2, sp, #132	; 0x84
 8012442:	f002 fed7 	bl	80151f4 <__ssprint_r>
 8012446:	2800      	cmp	r0, #0
 8012448:	f47f a969 	bne.w	801171e <_svfprintf_r+0x37e>
 801244c:	9c23      	ldr	r4, [sp, #140]	; 0x8c
 801244e:	ae2e      	add	r6, sp, #184	; 0xb8
 8012450:	9b1a      	ldr	r3, [sp, #104]	; 0x68
 8012452:	9a0d      	ldr	r2, [sp, #52]	; 0x34
 8012454:	9810      	ldr	r0, [sp, #64]	; 0x40
 8012456:	4293      	cmp	r3, r2
 8012458:	4407      	add	r7, r0
 801245a:	db72      	blt.n	8012542 <_svfprintf_r+0x11a2>
 801245c:	9904      	ldr	r1, [sp, #16]
 801245e:	07c9      	lsls	r1, r1, #31
 8012460:	d46f      	bmi.n	8012542 <_svfprintf_r+0x11a2>
 8012462:	9d05      	ldr	r5, [sp, #20]
 8012464:	990d      	ldr	r1, [sp, #52]	; 0x34
 8012466:	1bed      	subs	r5, r5, r7
 8012468:	1ac9      	subs	r1, r1, r3
 801246a:	42a9      	cmp	r1, r5
 801246c:	bfb8      	it	lt
 801246e:	460d      	movlt	r5, r1
 8012470:	2d00      	cmp	r5, #0
 8012472:	dd0a      	ble.n	801248a <_svfprintf_r+0x10ea>
 8012474:	9a22      	ldr	r2, [sp, #136]	; 0x88
 8012476:	6037      	str	r7, [r6, #0]
 8012478:	1c50      	adds	r0, r2, #1
 801247a:	1964      	adds	r4, r4, r5
 801247c:	2807      	cmp	r0, #7
 801247e:	6075      	str	r5, [r6, #4]
 8012480:	9423      	str	r4, [sp, #140]	; 0x8c
 8012482:	9022      	str	r0, [sp, #136]	; 0x88
 8012484:	f300 8369 	bgt.w	8012b5a <_svfprintf_r+0x17ba>
 8012488:	3608      	adds	r6, #8
 801248a:	ea25 75e5 	bic.w	r5, r5, r5, asr #31
 801248e:	1b4d      	subs	r5, r1, r5
 8012490:	2d00      	cmp	r5, #0
 8012492:	f77f ab9a 	ble.w	8011bca <_svfprintf_r+0x82a>
 8012496:	2d10      	cmp	r5, #16
 8012498:	f77f af71 	ble.w	801237e <_svfprintf_r+0xfde>
 801249c:	9a22      	ldr	r2, [sp, #136]	; 0x88
 801249e:	f8c6 9000 	str.w	r9, [r6]
 80124a2:	2710      	movs	r7, #16
 80124a4:	1c51      	adds	r1, r2, #1
 80124a6:	f1a5 0811 	sub.w	r8, r5, #17
 80124aa:	19e4      	adds	r4, r4, r7
 80124ac:	2907      	cmp	r1, #7
 80124ae:	6077      	str	r7, [r6, #4]
 80124b0:	f8df b350 	ldr.w	fp, [pc, #848]	; 8012804 <_svfprintf_r+0x1464>
 80124b4:	9423      	str	r4, [sp, #140]	; 0x8c
 80124b6:	9122      	str	r1, [sp, #136]	; 0x88
 80124b8:	f3c8 1800 	ubfx	r8, r8, #4, #1
 80124bc:	f300 8341 	bgt.w	8012b42 <_svfprintf_r+0x17a2>
 80124c0:	3608      	adds	r6, #8
 80124c2:	3d10      	subs	r5, #16
 80124c4:	2d10      	cmp	r5, #16
 80124c6:	f77f af5d 	ble.w	8012384 <_svfprintf_r+0xfe4>
 80124ca:	f1b8 0f00 	cmp.w	r8, #0
 80124ce:	d00e      	beq.n	80124ee <_svfprintf_r+0x114e>
 80124d0:	3101      	adds	r1, #1
 80124d2:	3410      	adds	r4, #16
 80124d4:	2907      	cmp	r1, #7
 80124d6:	f8c6 9000 	str.w	r9, [r6]
 80124da:	6077      	str	r7, [r6, #4]
 80124dc:	9423      	str	r4, [sp, #140]	; 0x8c
 80124de:	9122      	str	r1, [sp, #136]	; 0x88
 80124e0:	f300 83a6 	bgt.w	8012c30 <_svfprintf_r+0x1890>
 80124e4:	3608      	adds	r6, #8
 80124e6:	3d10      	subs	r5, #16
 80124e8:	2d10      	cmp	r5, #16
 80124ea:	f77f af4b 	ble.w	8012384 <_svfprintf_r+0xfe4>
 80124ee:	4620      	mov	r0, r4
 80124f0:	f8dd 8020 	ldr.w	r8, [sp, #32]
 80124f4:	9c06      	ldr	r4, [sp, #24]
 80124f6:	e00f      	b.n	8012518 <_svfprintf_r+0x1178>
 80124f8:	3608      	adds	r6, #8
 80124fa:	1c59      	adds	r1, r3, #1
 80124fc:	3010      	adds	r0, #16
 80124fe:	3d10      	subs	r5, #16
 8012500:	2907      	cmp	r1, #7
 8012502:	f8c6 9000 	str.w	r9, [r6]
 8012506:	6077      	str	r7, [r6, #4]
 8012508:	9122      	str	r1, [sp, #136]	; 0x88
 801250a:	9023      	str	r0, [sp, #140]	; 0x8c
 801250c:	dc28      	bgt.n	8012560 <_svfprintf_r+0x11c0>
 801250e:	3608      	adds	r6, #8
 8012510:	3d10      	subs	r5, #16
 8012512:	2d10      	cmp	r5, #16
 8012514:	f340 80d7 	ble.w	80126c6 <_svfprintf_r+0x1326>
 8012518:	1c4b      	adds	r3, r1, #1
 801251a:	3010      	adds	r0, #16
 801251c:	2b07      	cmp	r3, #7
 801251e:	f8c6 9000 	str.w	r9, [r6]
 8012522:	6077      	str	r7, [r6, #4]
 8012524:	9023      	str	r0, [sp, #140]	; 0x8c
 8012526:	9322      	str	r3, [sp, #136]	; 0x88
 8012528:	dde6      	ble.n	80124f8 <_svfprintf_r+0x1158>
 801252a:	4640      	mov	r0, r8
 801252c:	4621      	mov	r1, r4
 801252e:	aa21      	add	r2, sp, #132	; 0x84
 8012530:	f002 fe60 	bl	80151f4 <__ssprint_r>
 8012534:	2800      	cmp	r0, #0
 8012536:	f47f a8f2 	bne.w	801171e <_svfprintf_r+0x37e>
 801253a:	9823      	ldr	r0, [sp, #140]	; 0x8c
 801253c:	9b22      	ldr	r3, [sp, #136]	; 0x88
 801253e:	ae2e      	add	r6, sp, #184	; 0xb8
 8012540:	e7db      	b.n	80124fa <_svfprintf_r+0x115a>
 8012542:	9922      	ldr	r1, [sp, #136]	; 0x88
 8012544:	980f      	ldr	r0, [sp, #60]	; 0x3c
 8012546:	9a11      	ldr	r2, [sp, #68]	; 0x44
 8012548:	6030      	str	r0, [r6, #0]
 801254a:	18a4      	adds	r4, r4, r2
 801254c:	9811      	ldr	r0, [sp, #68]	; 0x44
 801254e:	1c4a      	adds	r2, r1, #1
 8012550:	2a07      	cmp	r2, #7
 8012552:	6070      	str	r0, [r6, #4]
 8012554:	9423      	str	r4, [sp, #140]	; 0x8c
 8012556:	9222      	str	r2, [sp, #136]	; 0x88
 8012558:	f300 82d9 	bgt.w	8012b0e <_svfprintf_r+0x176e>
 801255c:	3608      	adds	r6, #8
 801255e:	e780      	b.n	8012462 <_svfprintf_r+0x10c2>
 8012560:	4640      	mov	r0, r8
 8012562:	4621      	mov	r1, r4
 8012564:	aa21      	add	r2, sp, #132	; 0x84
 8012566:	f002 fe45 	bl	80151f4 <__ssprint_r>
 801256a:	2800      	cmp	r0, #0
 801256c:	f47f a8d7 	bne.w	801171e <_svfprintf_r+0x37e>
 8012570:	ae2e      	add	r6, sp, #184	; 0xb8
 8012572:	9823      	ldr	r0, [sp, #140]	; 0x8c
 8012574:	9922      	ldr	r1, [sp, #136]	; 0x88
 8012576:	e7cb      	b.n	8012510 <_svfprintf_r+0x1170>
 8012578:	9808      	ldr	r0, [sp, #32]
 801257a:	9906      	ldr	r1, [sp, #24]
 801257c:	9302      	str	r3, [sp, #8]
 801257e:	aa21      	add	r2, sp, #132	; 0x84
 8012580:	f002 fe38 	bl	80151f4 <__ssprint_r>
 8012584:	9b02      	ldr	r3, [sp, #8]
 8012586:	2800      	cmp	r0, #0
 8012588:	f47f a8c9 	bne.w	801171e <_svfprintf_r+0x37e>
 801258c:	ae2e      	add	r6, sp, #184	; 0xb8
 801258e:	9c23      	ldr	r4, [sp, #140]	; 0x8c
 8012590:	9822      	ldr	r0, [sp, #136]	; 0x88
 8012592:	e4df      	b.n	8011f54 <_svfprintf_r+0xbb4>
 8012594:	9808      	ldr	r0, [sp, #32]
 8012596:	9906      	ldr	r1, [sp, #24]
 8012598:	aa21      	add	r2, sp, #132	; 0x84
 801259a:	f002 fe2b 	bl	80151f4 <__ssprint_r>
 801259e:	2800      	cmp	r0, #0
 80125a0:	f47f a8bd 	bne.w	801171e <_svfprintf_r+0x37e>
 80125a4:	ae2e      	add	r6, sp, #184	; 0xb8
 80125a6:	9c23      	ldr	r4, [sp, #140]	; 0x8c
 80125a8:	9822      	ldr	r0, [sp, #136]	; 0x88
 80125aa:	e4e1      	b.n	8011f70 <_svfprintf_r+0xbd0>
 80125ac:	9904      	ldr	r1, [sp, #16]
 80125ae:	07ca      	lsls	r2, r1, #31
 80125b0:	f53f ab81 	bmi.w	8011cb6 <_svfprintf_r+0x916>
 80125b4:	9a22      	ldr	r2, [sp, #136]	; 0x88
 80125b6:	6037      	str	r7, [r6, #0]
 80125b8:	3401      	adds	r4, #1
 80125ba:	1c55      	adds	r5, r2, #1
 80125bc:	2001      	movs	r0, #1
 80125be:	f7ff bba1 	b.w	8011d04 <_svfprintf_r+0x964>
 80125c2:	9808      	ldr	r0, [sp, #32]
 80125c4:	9906      	ldr	r1, [sp, #24]
 80125c6:	aa21      	add	r2, sp, #132	; 0x84
 80125c8:	f002 fe14 	bl	80151f4 <__ssprint_r>
 80125cc:	2800      	cmp	r0, #0
 80125ce:	f47f a8a6 	bne.w	801171e <_svfprintf_r+0x37e>
 80125d2:	9c23      	ldr	r4, [sp, #140]	; 0x8c
 80125d4:	9d22      	ldr	r5, [sp, #136]	; 0x88
 80125d6:	ae2e      	add	r6, sp, #184	; 0xb8
 80125d8:	f7ff bb79 	b.w	8011cce <_svfprintf_r+0x92e>
 80125dc:	9808      	ldr	r0, [sp, #32]
 80125de:	9906      	ldr	r1, [sp, #24]
 80125e0:	aa21      	add	r2, sp, #132	; 0x84
 80125e2:	f002 fe07 	bl	80151f4 <__ssprint_r>
 80125e6:	2800      	cmp	r0, #0
 80125e8:	f47f a899 	bne.w	801171e <_svfprintf_r+0x37e>
 80125ec:	9c23      	ldr	r4, [sp, #140]	; 0x8c
 80125ee:	9d22      	ldr	r5, [sp, #136]	; 0x88
 80125f0:	ae2e      	add	r6, sp, #184	; 0xb8
 80125f2:	f7ff bb78 	b.w	8011ce6 <_svfprintf_r+0x946>
 80125f6:	9905      	ldr	r1, [sp, #20]
 80125f8:	af2e      	add	r7, sp, #184	; 0xb8
 80125fa:	910a      	str	r1, [sp, #40]	; 0x28
 80125fc:	f7fe bff4 	b.w	80115e8 <_svfprintf_r+0x248>
 8012600:	9808      	ldr	r0, [sp, #32]
 8012602:	9906      	ldr	r1, [sp, #24]
 8012604:	aa21      	add	r2, sp, #132	; 0x84
 8012606:	f002 fdf5 	bl	80151f4 <__ssprint_r>
 801260a:	2800      	cmp	r0, #0
 801260c:	f47f a887 	bne.w	801171e <_svfprintf_r+0x37e>
 8012610:	9c23      	ldr	r4, [sp, #140]	; 0x8c
 8012612:	ae2e      	add	r6, sp, #184	; 0xb8
 8012614:	f7ff ba53 	b.w	8011abe <_svfprintf_r+0x71e>
 8012618:	462a      	mov	r2, r5
 801261a:	4623      	mov	r3, r4
 801261c:	ec43 2b10 	vmov	d0, r2, r3
 8012620:	f002 fdb0 	bl	8015184 <__fpclassifyd>
 8012624:	2800      	cmp	r0, #0
 8012626:	f040 80f1 	bne.w	801280c <_svfprintf_r+0x146c>
 801262a:	2703      	movs	r7, #3
 801262c:	4a73      	ldr	r2, [pc, #460]	; (80127fc <_svfprintf_r+0x145c>)
 801262e:	9707      	str	r7, [sp, #28]
 8012630:	4f73      	ldr	r7, [pc, #460]	; (8012800 <_svfprintf_r+0x1460>)
 8012632:	900e      	str	r0, [sp, #56]	; 0x38
 8012634:	9804      	ldr	r0, [sp, #16]
 8012636:	f89d 3063 	ldrb.w	r3, [sp, #99]	; 0x63
 801263a:	f1b8 0f47 	cmp.w	r8, #71	; 0x47
 801263e:	bfd8      	it	le
 8012640:	4617      	movle	r7, r2
 8012642:	9a0e      	ldr	r2, [sp, #56]	; 0x38
 8012644:	f020 0480 	bic.w	r4, r0, #128	; 0x80
 8012648:	2103      	movs	r1, #3
 801264a:	9404      	str	r4, [sp, #16]
 801264c:	910a      	str	r1, [sp, #40]	; 0x28
 801264e:	9210      	str	r2, [sp, #64]	; 0x40
 8012650:	f7fe bfd5 	b.w	80115fe <_svfprintf_r+0x25e>
 8012654:	9b04      	ldr	r3, [sp, #16]
 8012656:	f013 0340 	ands.w	r3, r3, #64	; 0x40
 801265a:	f000 81bd 	beq.w	80129d8 <_svfprintf_r+0x1638>
 801265e:	4603      	mov	r3, r0
 8012660:	980c      	ldr	r0, [sp, #48]	; 0x30
 8012662:	9d0c      	ldr	r5, [sp, #48]	; 0x30
 8012664:	1d01      	adds	r1, r0, #4
 8012666:	882c      	ldrh	r4, [r5, #0]
 8012668:	910c      	str	r1, [sp, #48]	; 0x30
 801266a:	2500      	movs	r5, #0
 801266c:	f7fe bf83 	b.w	8011576 <_svfprintf_r+0x1d6>
 8012670:	9804      	ldr	r0, [sp, #16]
 8012672:	0640      	lsls	r0, r0, #25
 8012674:	f140 81a7 	bpl.w	80129c6 <_svfprintf_r+0x1626>
 8012678:	990c      	ldr	r1, [sp, #48]	; 0x30
 801267a:	1d08      	adds	r0, r1, #4
 801267c:	880c      	ldrh	r4, [r1, #0]
 801267e:	900c      	str	r0, [sp, #48]	; 0x30
 8012680:	2301      	movs	r3, #1
 8012682:	2500      	movs	r5, #0
 8012684:	f7fe bf77 	b.w	8011576 <_svfprintf_r+0x1d6>
 8012688:	f89a 8000 	ldrb.w	r8, [sl]
 801268c:	f7fe beea 	b.w	8011464 <_svfprintf_r+0xc4>
 8012690:	9b04      	ldr	r3, [sp, #16]
 8012692:	06da      	lsls	r2, r3, #27
 8012694:	f140 81a8 	bpl.w	80129e8 <_svfprintf_r+0x1648>
 8012698:	9a0c      	ldr	r2, [sp, #48]	; 0x30
 801269a:	980b      	ldr	r0, [sp, #44]	; 0x2c
 801269c:	6813      	ldr	r3, [r2, #0]
 801269e:	1d14      	adds	r4, r2, #4
 80126a0:	940c      	str	r4, [sp, #48]	; 0x30
 80126a2:	6018      	str	r0, [r3, #0]
 80126a4:	f7fe bea7 	b.w	80113f6 <_svfprintf_r+0x56>
 80126a8:	4856      	ldr	r0, [pc, #344]	; (8012804 <_svfprintf_r+0x1464>)
 80126aa:	9922      	ldr	r1, [sp, #136]	; 0x88
 80126ac:	900a      	str	r0, [sp, #40]	; 0x28
 80126ae:	1c4b      	adds	r3, r1, #1
 80126b0:	980a      	ldr	r0, [sp, #40]	; 0x28
 80126b2:	1964      	adds	r4, r4, r5
 80126b4:	2b07      	cmp	r3, #7
 80126b6:	e886 0021 	stmia.w	r6, {r0, r5}
 80126ba:	9423      	str	r4, [sp, #140]	; 0x8c
 80126bc:	9322      	str	r3, [sp, #136]	; 0x88
 80126be:	f73f aebd 	bgt.w	801243c <_svfprintf_r+0x109c>
 80126c2:	3608      	adds	r6, #8
 80126c4:	e6c4      	b.n	8012450 <_svfprintf_r+0x10b0>
 80126c6:	4604      	mov	r4, r0
 80126c8:	e65c      	b.n	8012384 <_svfprintf_r+0xfe4>
 80126ca:	4b4e      	ldr	r3, [pc, #312]	; (8012804 <_svfprintf_r+0x1464>)
 80126cc:	9a22      	ldr	r2, [sp, #136]	; 0x88
 80126ce:	9305      	str	r3, [sp, #20]
 80126d0:	f7ff ba5f 	b.w	8011b92 <_svfprintf_r+0x7f2>
 80126d4:	9808      	ldr	r0, [sp, #32]
 80126d6:	9906      	ldr	r1, [sp, #24]
 80126d8:	aa21      	add	r2, sp, #132	; 0x84
 80126da:	f002 fd8b 	bl	80151f4 <__ssprint_r>
 80126de:	2800      	cmp	r0, #0
 80126e0:	f47f a81d 	bne.w	801171e <_svfprintf_r+0x37e>
 80126e4:	9c23      	ldr	r4, [sp, #140]	; 0x8c
 80126e6:	ae2e      	add	r6, sp, #184	; 0xb8
 80126e8:	f7ff bba4 	b.w	8011e34 <_svfprintf_r+0xa94>
 80126ec:	9a22      	ldr	r2, [sp, #136]	; 0x88
 80126ee:	4b46      	ldr	r3, [pc, #280]	; (8012808 <_svfprintf_r+0x1468>)
 80126f0:	1c50      	adds	r0, r2, #1
 80126f2:	3401      	adds	r4, #1
 80126f4:	2101      	movs	r1, #1
 80126f6:	2807      	cmp	r0, #7
 80126f8:	6033      	str	r3, [r6, #0]
 80126fa:	6071      	str	r1, [r6, #4]
 80126fc:	9423      	str	r4, [sp, #140]	; 0x8c
 80126fe:	9022      	str	r0, [sp, #136]	; 0x88
 8012700:	f300 8146 	bgt.w	8012990 <_svfprintf_r+0x15f0>
 8012704:	3608      	adds	r6, #8
 8012706:	b92d      	cbnz	r5, 8012714 <_svfprintf_r+0x1374>
 8012708:	9a0d      	ldr	r2, [sp, #52]	; 0x34
 801270a:	b91a      	cbnz	r2, 8012714 <_svfprintf_r+0x1374>
 801270c:	9804      	ldr	r0, [sp, #16]
 801270e:	07c0      	lsls	r0, r0, #31
 8012710:	f57f aa5b 	bpl.w	8011bca <_svfprintf_r+0x82a>
 8012714:	9822      	ldr	r0, [sp, #136]	; 0x88
 8012716:	9b0f      	ldr	r3, [sp, #60]	; 0x3c
 8012718:	9911      	ldr	r1, [sp, #68]	; 0x44
 801271a:	6033      	str	r3, [r6, #0]
 801271c:	1862      	adds	r2, r4, r1
 801271e:	1c43      	adds	r3, r0, #1
 8012720:	9911      	ldr	r1, [sp, #68]	; 0x44
 8012722:	2b07      	cmp	r3, #7
 8012724:	6071      	str	r1, [r6, #4]
 8012726:	9223      	str	r2, [sp, #140]	; 0x8c
 8012728:	9322      	str	r3, [sp, #136]	; 0x88
 801272a:	f300 82c9 	bgt.w	8012cc0 <_svfprintf_r+0x1920>
 801272e:	3608      	adds	r6, #8
 8012730:	426d      	negs	r5, r5
 8012732:	2d00      	cmp	r5, #0
 8012734:	f340 817f 	ble.w	8012a36 <_svfprintf_r+0x1696>
 8012738:	2d10      	cmp	r5, #16
 801273a:	f340 81f4 	ble.w	8012b26 <_svfprintf_r+0x1786>
 801273e:	2410      	movs	r4, #16
 8012740:	3301      	adds	r3, #1
 8012742:	f1a5 0c11 	sub.w	ip, r5, #17
 8012746:	1912      	adds	r2, r2, r4
 8012748:	2b07      	cmp	r3, #7
 801274a:	f8c6 9000 	str.w	r9, [r6]
 801274e:	6074      	str	r4, [r6, #4]
 8012750:	f8df b0b0 	ldr.w	fp, [pc, #176]	; 8012804 <_svfprintf_r+0x1464>
 8012754:	9223      	str	r2, [sp, #140]	; 0x8c
 8012756:	9322      	str	r3, [sp, #136]	; 0x88
 8012758:	f3cc 1800 	ubfx	r8, ip, #4, #1
 801275c:	f300 82e0 	bgt.w	8012d20 <_svfprintf_r+0x1980>
 8012760:	3608      	adds	r6, #8
 8012762:	3d10      	subs	r5, #16
 8012764:	2d10      	cmp	r5, #16
 8012766:	f340 81e0 	ble.w	8012b2a <_svfprintf_r+0x178a>
 801276a:	f1b8 0f00 	cmp.w	r8, #0
 801276e:	d00e      	beq.n	801278e <_svfprintf_r+0x13ee>
 8012770:	3301      	adds	r3, #1
 8012772:	3210      	adds	r2, #16
 8012774:	2b07      	cmp	r3, #7
 8012776:	f8c6 9000 	str.w	r9, [r6]
 801277a:	6074      	str	r4, [r6, #4]
 801277c:	9223      	str	r2, [sp, #140]	; 0x8c
 801277e:	9322      	str	r3, [sp, #136]	; 0x88
 8012780:	f300 832a 	bgt.w	8012dd8 <_svfprintf_r+0x1a38>
 8012784:	3608      	adds	r6, #8
 8012786:	3d10      	subs	r5, #16
 8012788:	2d10      	cmp	r5, #16
 801278a:	f340 81ce 	ble.w	8012b2a <_svfprintf_r+0x178a>
 801278e:	4630      	mov	r0, r6
 8012790:	f8dd 8020 	ldr.w	r8, [sp, #32]
 8012794:	462e      	mov	r6, r5
 8012796:	9d06      	ldr	r5, [sp, #24]
 8012798:	e010      	b.n	80127bc <_svfprintf_r+0x141c>
 801279a:	3008      	adds	r0, #8
 801279c:	3301      	adds	r3, #1
 801279e:	3210      	adds	r2, #16
 80127a0:	3e10      	subs	r6, #16
 80127a2:	2b07      	cmp	r3, #7
 80127a4:	f8c0 9000 	str.w	r9, [r0]
 80127a8:	6044      	str	r4, [r0, #4]
 80127aa:	9223      	str	r2, [sp, #140]	; 0x8c
 80127ac:	9322      	str	r3, [sp, #136]	; 0x88
 80127ae:	f300 80fe 	bgt.w	80129ae <_svfprintf_r+0x160e>
 80127b2:	3008      	adds	r0, #8
 80127b4:	3e10      	subs	r6, #16
 80127b6:	2e10      	cmp	r6, #16
 80127b8:	f340 828f 	ble.w	8012cda <_svfprintf_r+0x193a>
 80127bc:	3301      	adds	r3, #1
 80127be:	3210      	adds	r2, #16
 80127c0:	2b07      	cmp	r3, #7
 80127c2:	f8c0 9000 	str.w	r9, [r0]
 80127c6:	6044      	str	r4, [r0, #4]
 80127c8:	9223      	str	r2, [sp, #140]	; 0x8c
 80127ca:	9322      	str	r3, [sp, #136]	; 0x88
 80127cc:	dde5      	ble.n	801279a <_svfprintf_r+0x13fa>
 80127ce:	4640      	mov	r0, r8
 80127d0:	4629      	mov	r1, r5
 80127d2:	aa21      	add	r2, sp, #132	; 0x84
 80127d4:	f002 fd0e 	bl	80151f4 <__ssprint_r>
 80127d8:	2800      	cmp	r0, #0
 80127da:	f47e afa0 	bne.w	801171e <_svfprintf_r+0x37e>
 80127de:	9a23      	ldr	r2, [sp, #140]	; 0x8c
 80127e0:	9b22      	ldr	r3, [sp, #136]	; 0x88
 80127e2:	a82e      	add	r0, sp, #184	; 0xb8
 80127e4:	e7da      	b.n	801279c <_svfprintf_r+0x13fc>
 80127e6:	9a04      	ldr	r2, [sp, #16]
 80127e8:	f893 8001 	ldrb.w	r8, [r3, #1]
 80127ec:	f042 0220 	orr.w	r2, r2, #32
 80127f0:	f10a 0a01 	add.w	sl, sl, #1
 80127f4:	9204      	str	r2, [sp, #16]
 80127f6:	f7fe be35 	b.w	8011464 <_svfprintf_r+0xc4>
 80127fa:	bf00      	nop
 80127fc:	080157fc 	.word	0x080157fc
 8012800:	08015800 	.word	0x08015800
 8012804:	08015838 	.word	0x08015838
 8012808:	08015834 	.word	0x08015834
 801280c:	9b05      	ldr	r3, [sp, #20]
 801280e:	3301      	adds	r3, #1
 8012810:	f000 80ca 	beq.w	80129a8 <_svfprintf_r+0x1608>
 8012814:	f1b8 0f67 	cmp.w	r8, #103	; 0x67
 8012818:	f000 824c 	beq.w	8012cb4 <_svfprintf_r+0x1914>
 801281c:	f1b8 0f47 	cmp.w	r8, #71	; 0x47
 8012820:	f000 8248 	beq.w	8012cb4 <_svfprintf_r+0x1914>
 8012824:	9b04      	ldr	r3, [sp, #16]
 8012826:	2c00      	cmp	r4, #0
 8012828:	f443 7080 	orr.w	r0, r3, #256	; 0x100
 801282c:	9016      	str	r0, [sp, #88]	; 0x58
 801282e:	f2c0 826f 	blt.w	8012d10 <_svfprintf_r+0x1970>
 8012832:	2100      	movs	r1, #0
 8012834:	910e      	str	r1, [sp, #56]	; 0x38
 8012836:	f1b8 0f66 	cmp.w	r8, #102	; 0x66
 801283a:	f000 821c 	beq.w	8012c76 <_svfprintf_r+0x18d6>
 801283e:	f1b8 0f46 	cmp.w	r8, #70	; 0x46
 8012842:	f000 8279 	beq.w	8012d38 <_svfprintf_r+0x1998>
 8012846:	f1b8 0f65 	cmp.w	r8, #101	; 0x65
 801284a:	f000 824f 	beq.w	8012cec <_svfprintf_r+0x194c>
 801284e:	f1b8 0f45 	cmp.w	r8, #69	; 0x45
 8012852:	f000 824b 	beq.w	8012cec <_svfprintf_r+0x194c>
 8012856:	f8dd c014 	ldr.w	ip, [sp, #20]
 801285a:	462a      	mov	r2, r5
 801285c:	4623      	mov	r3, r4
 801285e:	a81b      	add	r0, sp, #108	; 0x6c
 8012860:	a91c      	add	r1, sp, #112	; 0x70
 8012862:	ec43 2b10 	vmov	d0, r2, r3
 8012866:	9000      	str	r0, [sp, #0]
 8012868:	9101      	str	r1, [sp, #4]
 801286a:	4662      	mov	r2, ip
 801286c:	2102      	movs	r1, #2
 801286e:	9808      	ldr	r0, [sp, #32]
 8012870:	f8cd c008 	str.w	ip, [sp, #8]
 8012874:	ab1a      	add	r3, sp, #104	; 0x68
 8012876:	f000 fc93 	bl	80131a0 <_dtoa_r>
 801287a:	f1b8 0f67 	cmp.w	r8, #103	; 0x67
 801287e:	4607      	mov	r7, r0
 8012880:	f8dd c008 	ldr.w	ip, [sp, #8]
 8012884:	d002      	beq.n	801288c <_svfprintf_r+0x14ec>
 8012886:	f1b8 0f47 	cmp.w	r8, #71	; 0x47
 801288a:	d103      	bne.n	8012894 <_svfprintf_r+0x14f4>
 801288c:	9b04      	ldr	r3, [sp, #16]
 801288e:	07d8      	lsls	r0, r3, #31
 8012890:	f140 8243 	bpl.w	8012d1a <_svfprintf_r+0x197a>
 8012894:	f1b8 0f46 	cmp.w	r8, #70	; 0x46
 8012898:	eb07 0b0c 	add.w	fp, r7, ip
 801289c:	f000 81fe 	beq.w	8012c9c <_svfprintf_r+0x18fc>
 80128a0:	4628      	mov	r0, r5
 80128a2:	4621      	mov	r1, r4
 80128a4:	2200      	movs	r2, #0
 80128a6:	2300      	movs	r3, #0
 80128a8:	f7f9 ffca 	bl	800c840 <__aeabi_dcmpeq>
 80128ac:	b9f0      	cbnz	r0, 80128ec <_svfprintf_r+0x154c>
 80128ae:	9c1c      	ldr	r4, [sp, #112]	; 0x70
 80128b0:	45a3      	cmp	fp, r4
 80128b2:	f240 82f5 	bls.w	8012ea0 <_svfprintf_r+0x1b00>
 80128b6:	4623      	mov	r3, r4
 80128b8:	2130      	movs	r1, #48	; 0x30
 80128ba:	f803 1b01 	strb.w	r1, [r3], #1
 80128be:	43e0      	mvns	r0, r4
 80128c0:	eb0b 0200 	add.w	r2, fp, r0
 80128c4:	455b      	cmp	r3, fp
 80128c6:	931c      	str	r3, [sp, #112]	; 0x70
 80128c8:	f002 0001 	and.w	r0, r2, #1
 80128cc:	d00d      	beq.n	80128ea <_svfprintf_r+0x154a>
 80128ce:	b120      	cbz	r0, 80128da <_svfprintf_r+0x153a>
 80128d0:	3301      	adds	r3, #1
 80128d2:	455b      	cmp	r3, fp
 80128d4:	7061      	strb	r1, [r4, #1]
 80128d6:	931c      	str	r3, [sp, #112]	; 0x70
 80128d8:	d007      	beq.n	80128ea <_svfprintf_r+0x154a>
 80128da:	461c      	mov	r4, r3
 80128dc:	f804 1b01 	strb.w	r1, [r4], #1
 80128e0:	7059      	strb	r1, [r3, #1]
 80128e2:	1c63      	adds	r3, r4, #1
 80128e4:	455b      	cmp	r3, fp
 80128e6:	931c      	str	r3, [sp, #112]	; 0x70
 80128e8:	d1f7      	bne.n	80128da <_svfprintf_r+0x153a>
 80128ea:	469b      	mov	fp, r3
 80128ec:	ebc7 010b 	rsb	r1, r7, fp
 80128f0:	f1b8 0f67 	cmp.w	r8, #103	; 0x67
 80128f4:	910d      	str	r1, [sp, #52]	; 0x34
 80128f6:	f000 815d 	beq.w	8012bb4 <_svfprintf_r+0x1814>
 80128fa:	f1b8 0f47 	cmp.w	r8, #71	; 0x47
 80128fe:	f000 8159 	beq.w	8012bb4 <_svfprintf_r+0x1814>
 8012902:	f1b8 0f66 	cmp.w	r8, #102	; 0x66
 8012906:	f040 82c9 	bne.w	8012e9c <_svfprintf_r+0x1afc>
 801290a:	9a1a      	ldr	r2, [sp, #104]	; 0x68
 801290c:	2a00      	cmp	r2, #0
 801290e:	f340 8290 	ble.w	8012e32 <_svfprintf_r+0x1a92>
 8012912:	9c05      	ldr	r4, [sp, #20]
 8012914:	2c00      	cmp	r4, #0
 8012916:	f040 826b 	bne.w	8012df0 <_svfprintf_r+0x1a50>
 801291a:	9904      	ldr	r1, [sp, #16]
 801291c:	07cb      	lsls	r3, r1, #31
 801291e:	f100 8267 	bmi.w	8012df0 <_svfprintf_r+0x1a50>
 8012922:	ea22 70e2 	bic.w	r0, r2, r2, asr #31
 8012926:	9007      	str	r0, [sp, #28]
 8012928:	920a      	str	r2, [sp, #40]	; 0x28
 801292a:	9210      	str	r2, [sp, #64]	; 0x40
 801292c:	9c0e      	ldr	r4, [sp, #56]	; 0x38
 801292e:	2c00      	cmp	r4, #0
 8012930:	f000 813a 	beq.w	8012ba8 <_svfprintf_r+0x1808>
 8012934:	9816      	ldr	r0, [sp, #88]	; 0x58
 8012936:	212d      	movs	r1, #45	; 0x2d
 8012938:	2400      	movs	r4, #0
 801293a:	f88d 1063 	strb.w	r1, [sp, #99]	; 0x63
 801293e:	9004      	str	r0, [sp, #16]
 8012940:	940e      	str	r4, [sp, #56]	; 0x38
 8012942:	f7fe be5d 	b.w	8011600 <_svfprintf_r+0x260>
 8012946:	9b0a      	ldr	r3, [sp, #40]	; 0x28
 8012948:	950c      	str	r5, [sp, #48]	; 0x30
 801294a:	ea23 72e3 	bic.w	r2, r3, r3, asr #31
 801294e:	9207      	str	r2, [sp, #28]
 8012950:	f89d 3063 	ldrb.w	r3, [sp, #99]	; 0x63
 8012954:	9410      	str	r4, [sp, #64]	; 0x40
 8012956:	f7fe be52 	b.w	80115fe <_svfprintf_r+0x25e>
 801295a:	9808      	ldr	r0, [sp, #32]
 801295c:	9906      	ldr	r1, [sp, #24]
 801295e:	aa21      	add	r2, sp, #132	; 0x84
 8012960:	f002 fc48 	bl	80151f4 <__ssprint_r>
 8012964:	2800      	cmp	r0, #0
 8012966:	f47e aeda 	bne.w	801171e <_svfprintf_r+0x37e>
 801296a:	9c23      	ldr	r4, [sp, #140]	; 0x8c
 801296c:	ae2e      	add	r6, sp, #184	; 0xb8
 801296e:	f7ff ba76 	b.w	8011e5e <_svfprintf_r+0xabe>
 8012972:	2140      	movs	r1, #64	; 0x40
 8012974:	9808      	ldr	r0, [sp, #32]
 8012976:	f7fd ff97 	bl	80108a8 <_malloc_r>
 801297a:	9906      	ldr	r1, [sp, #24]
 801297c:	6008      	str	r0, [r1, #0]
 801297e:	6108      	str	r0, [r1, #16]
 8012980:	2800      	cmp	r0, #0
 8012982:	f000 828f 	beq.w	8012ea4 <_svfprintf_r+0x1b04>
 8012986:	9a06      	ldr	r2, [sp, #24]
 8012988:	2640      	movs	r6, #64	; 0x40
 801298a:	6156      	str	r6, [r2, #20]
 801298c:	f7fe bd25 	b.w	80113da <_svfprintf_r+0x3a>
 8012990:	9808      	ldr	r0, [sp, #32]
 8012992:	9906      	ldr	r1, [sp, #24]
 8012994:	aa21      	add	r2, sp, #132	; 0x84
 8012996:	f002 fc2d 	bl	80151f4 <__ssprint_r>
 801299a:	2800      	cmp	r0, #0
 801299c:	f47e aebf 	bne.w	801171e <_svfprintf_r+0x37e>
 80129a0:	9d1a      	ldr	r5, [sp, #104]	; 0x68
 80129a2:	9c23      	ldr	r4, [sp, #140]	; 0x8c
 80129a4:	ae2e      	add	r6, sp, #184	; 0xb8
 80129a6:	e6ae      	b.n	8012706 <_svfprintf_r+0x1366>
 80129a8:	2706      	movs	r7, #6
 80129aa:	9705      	str	r7, [sp, #20]
 80129ac:	e73a      	b.n	8012824 <_svfprintf_r+0x1484>
 80129ae:	4640      	mov	r0, r8
 80129b0:	4629      	mov	r1, r5
 80129b2:	aa21      	add	r2, sp, #132	; 0x84
 80129b4:	f002 fc1e 	bl	80151f4 <__ssprint_r>
 80129b8:	2800      	cmp	r0, #0
 80129ba:	f47e aeb0 	bne.w	801171e <_svfprintf_r+0x37e>
 80129be:	a82e      	add	r0, sp, #184	; 0xb8
 80129c0:	9a23      	ldr	r2, [sp, #140]	; 0x8c
 80129c2:	9b22      	ldr	r3, [sp, #136]	; 0x88
 80129c4:	e6f6      	b.n	80127b4 <_svfprintf_r+0x1414>
 80129c6:	9a0c      	ldr	r2, [sp, #48]	; 0x30
 80129c8:	6817      	ldr	r7, [r2, #0]
 80129ca:	1d13      	adds	r3, r2, #4
 80129cc:	930c      	str	r3, [sp, #48]	; 0x30
 80129ce:	463c      	mov	r4, r7
 80129d0:	2500      	movs	r5, #0
 80129d2:	2301      	movs	r3, #1
 80129d4:	f7fe bdcf 	b.w	8011576 <_svfprintf_r+0x1d6>
 80129d8:	990c      	ldr	r1, [sp, #48]	; 0x30
 80129da:	680a      	ldr	r2, [r1, #0]
 80129dc:	1d0f      	adds	r7, r1, #4
 80129de:	4614      	mov	r4, r2
 80129e0:	2500      	movs	r5, #0
 80129e2:	970c      	str	r7, [sp, #48]	; 0x30
 80129e4:	f7fe bdc7 	b.w	8011576 <_svfprintf_r+0x1d6>
 80129e8:	9a04      	ldr	r2, [sp, #16]
 80129ea:	0653      	lsls	r3, r2, #25
 80129ec:	f140 80d4 	bpl.w	8012b98 <_svfprintf_r+0x17f8>
 80129f0:	9a0c      	ldr	r2, [sp, #48]	; 0x30
 80129f2:	990b      	ldr	r1, [sp, #44]	; 0x2c
 80129f4:	6814      	ldr	r4, [r2, #0]
 80129f6:	1d10      	adds	r0, r2, #4
 80129f8:	900c      	str	r0, [sp, #48]	; 0x30
 80129fa:	8021      	strh	r1, [r4, #0]
 80129fc:	f7fe bcfb 	b.w	80113f6 <_svfprintf_r+0x56>
 8012a00:	460c      	mov	r4, r1
 8012a02:	f7ff bb01 	b.w	8012008 <_svfprintf_r+0xc68>
 8012a06:	f7fe fc9b 	bl	8011340 <strlen>
 8012a0a:	ea20 71e0 	bic.w	r1, r0, r0, asr #31
 8012a0e:	900a      	str	r0, [sp, #40]	; 0x28
 8012a10:	940e      	str	r4, [sp, #56]	; 0x38
 8012a12:	9107      	str	r1, [sp, #28]
 8012a14:	f89d 3063 	ldrb.w	r3, [sp, #99]	; 0x63
 8012a18:	950c      	str	r5, [sp, #48]	; 0x30
 8012a1a:	9410      	str	r4, [sp, #64]	; 0x40
 8012a1c:	f7fe bdef 	b.w	80115fe <_svfprintf_r+0x25e>
 8012a20:	9808      	ldr	r0, [sp, #32]
 8012a22:	9906      	ldr	r1, [sp, #24]
 8012a24:	aa21      	add	r2, sp, #132	; 0x84
 8012a26:	f002 fbe5 	bl	80151f4 <__ssprint_r>
 8012a2a:	2800      	cmp	r0, #0
 8012a2c:	f47e ae77 	bne.w	801171e <_svfprintf_r+0x37e>
 8012a30:	9a23      	ldr	r2, [sp, #140]	; 0x8c
 8012a32:	9b22      	ldr	r3, [sp, #136]	; 0x88
 8012a34:	ae2e      	add	r6, sp, #184	; 0xb8
 8012a36:	990d      	ldr	r1, [sp, #52]	; 0x34
 8012a38:	6037      	str	r7, [r6, #0]
 8012a3a:	1854      	adds	r4, r2, r1
 8012a3c:	1c5a      	adds	r2, r3, #1
 8012a3e:	2a07      	cmp	r2, #7
 8012a40:	6071      	str	r1, [r6, #4]
 8012a42:	9423      	str	r4, [sp, #140]	; 0x8c
 8012a44:	9222      	str	r2, [sp, #136]	; 0x88
 8012a46:	f77f a8bf 	ble.w	8011bc8 <_svfprintf_r+0x828>
 8012a4a:	f7ff b96d 	b.w	8011d28 <_svfprintf_r+0x988>
 8012a4e:	48a4      	ldr	r0, [pc, #656]	; (8012ce0 <_svfprintf_r+0x1940>)
 8012a50:	9923      	ldr	r1, [sp, #140]	; 0x8c
 8012a52:	9a22      	ldr	r2, [sp, #136]	; 0x88
 8012a54:	9016      	str	r0, [sp, #88]	; 0x58
 8012a56:	f7ff b801 	b.w	8011a5c <_svfprintf_r+0x6bc>
 8012a5a:	4604      	mov	r4, r0
 8012a5c:	e627      	b.n	80126ae <_svfprintf_r+0x130e>
 8012a5e:	9808      	ldr	r0, [sp, #32]
 8012a60:	9906      	ldr	r1, [sp, #24]
 8012a62:	aa21      	add	r2, sp, #132	; 0x84
 8012a64:	f002 fbc6 	bl	80151f4 <__ssprint_r>
 8012a68:	2800      	cmp	r0, #0
 8012a6a:	f47e ae58 	bne.w	801171e <_svfprintf_r+0x37e>
 8012a6e:	ae2e      	add	r6, sp, #184	; 0xb8
 8012a70:	9c23      	ldr	r4, [sp, #140]	; 0x8c
 8012a72:	9d22      	ldr	r5, [sp, #136]	; 0x88
 8012a74:	e434      	b.n	80122e0 <_svfprintf_r+0xf40>
 8012a76:	9808      	ldr	r0, [sp, #32]
 8012a78:	9906      	ldr	r1, [sp, #24]
 8012a7a:	aa21      	add	r2, sp, #132	; 0x84
 8012a7c:	f002 fbba 	bl	80151f4 <__ssprint_r>
 8012a80:	2800      	cmp	r0, #0
 8012a82:	f47e ae4c 	bne.w	801171e <_svfprintf_r+0x37e>
 8012a86:	ae2e      	add	r6, sp, #184	; 0xb8
 8012a88:	9c23      	ldr	r4, [sp, #140]	; 0x8c
 8012a8a:	9d22      	ldr	r5, [sp, #136]	; 0x88
 8012a8c:	e43b      	b.n	8012306 <_svfprintf_r+0xf66>
 8012a8e:	9808      	ldr	r0, [sp, #32]
 8012a90:	9906      	ldr	r1, [sp, #24]
 8012a92:	aa21      	add	r2, sp, #132	; 0x84
 8012a94:	f002 fbae 	bl	80151f4 <__ssprint_r>
 8012a98:	2800      	cmp	r0, #0
 8012a9a:	f47e ae40 	bne.w	801171e <_svfprintf_r+0x37e>
 8012a9e:	ae2e      	add	r6, sp, #184	; 0xb8
 8012aa0:	9c23      	ldr	r4, [sp, #140]	; 0x8c
 8012aa2:	9922      	ldr	r1, [sp, #136]	; 0x88
 8012aa4:	f7ff bb9d 	b.w	80121e2 <_svfprintf_r+0xe42>
 8012aa8:	9808      	ldr	r0, [sp, #32]
 8012aaa:	9906      	ldr	r1, [sp, #24]
 8012aac:	aa21      	add	r2, sp, #132	; 0x84
 8012aae:	f002 fba1 	bl	80151f4 <__ssprint_r>
 8012ab2:	2800      	cmp	r0, #0
 8012ab4:	f47e ae33 	bne.w	801171e <_svfprintf_r+0x37e>
 8012ab8:	9c23      	ldr	r4, [sp, #140]	; 0x8c
 8012aba:	ae2e      	add	r6, sp, #184	; 0xb8
 8012abc:	f7ff bb72 	b.w	80121a4 <_svfprintf_r+0xe04>
 8012ac0:	9808      	ldr	r0, [sp, #32]
 8012ac2:	9906      	ldr	r1, [sp, #24]
 8012ac4:	aa21      	add	r2, sp, #132	; 0x84
 8012ac6:	f002 fb95 	bl	80151f4 <__ssprint_r>
 8012aca:	2800      	cmp	r0, #0
 8012acc:	f47e ae27 	bne.w	801171e <_svfprintf_r+0x37e>
 8012ad0:	ae2e      	add	r6, sp, #184	; 0xb8
 8012ad2:	9c23      	ldr	r4, [sp, #140]	; 0x8c
 8012ad4:	9922      	ldr	r1, [sp, #136]	; 0x88
 8012ad6:	f7ff b9de 	b.w	8011e96 <_svfprintf_r+0xaf6>
 8012ada:	9808      	ldr	r0, [sp, #32]
 8012adc:	9906      	ldr	r1, [sp, #24]
 8012ade:	aa21      	add	r2, sp, #132	; 0x84
 8012ae0:	f002 fb88 	bl	80151f4 <__ssprint_r>
 8012ae4:	2800      	cmp	r0, #0
 8012ae6:	f47e ae1a 	bne.w	801171e <_svfprintf_r+0x37e>
 8012aea:	ae2e      	add	r6, sp, #184	; 0xb8
 8012aec:	9c23      	ldr	r4, [sp, #140]	; 0x8c
 8012aee:	9922      	ldr	r1, [sp, #136]	; 0x88
 8012af0:	f7ff b9e3 	b.w	8011eba <_svfprintf_r+0xb1a>
 8012af4:	9808      	ldr	r0, [sp, #32]
 8012af6:	9906      	ldr	r1, [sp, #24]
 8012af8:	aa21      	add	r2, sp, #132	; 0x84
 8012afa:	f002 fb7b 	bl	80151f4 <__ssprint_r>
 8012afe:	2800      	cmp	r0, #0
 8012b00:	f47e ae0d 	bne.w	801171e <_svfprintf_r+0x37e>
 8012b04:	ae2e      	add	r6, sp, #184	; 0xb8
 8012b06:	9c23      	ldr	r4, [sp, #140]	; 0x8c
 8012b08:	9922      	ldr	r1, [sp, #136]	; 0x88
 8012b0a:	f7ff bb7d 	b.w	8012208 <_svfprintf_r+0xe68>
 8012b0e:	9808      	ldr	r0, [sp, #32]
 8012b10:	9906      	ldr	r1, [sp, #24]
 8012b12:	aa21      	add	r2, sp, #132	; 0x84
 8012b14:	f002 fb6e 	bl	80151f4 <__ssprint_r>
 8012b18:	2800      	cmp	r0, #0
 8012b1a:	f47e ae00 	bne.w	801171e <_svfprintf_r+0x37e>
 8012b1e:	9b1a      	ldr	r3, [sp, #104]	; 0x68
 8012b20:	9c23      	ldr	r4, [sp, #140]	; 0x8c
 8012b22:	ae2e      	add	r6, sp, #184	; 0xb8
 8012b24:	e49d      	b.n	8012462 <_svfprintf_r+0x10c2>
 8012b26:	f8df b1c0 	ldr.w	fp, [pc, #448]	; 8012ce8 <_svfprintf_r+0x1948>
 8012b2a:	3301      	adds	r3, #1
 8012b2c:	1952      	adds	r2, r2, r5
 8012b2e:	2b07      	cmp	r3, #7
 8012b30:	f8c6 b000 	str.w	fp, [r6]
 8012b34:	6075      	str	r5, [r6, #4]
 8012b36:	9223      	str	r2, [sp, #140]	; 0x8c
 8012b38:	9322      	str	r3, [sp, #136]	; 0x88
 8012b3a:	f73f af71 	bgt.w	8012a20 <_svfprintf_r+0x1680>
 8012b3e:	3608      	adds	r6, #8
 8012b40:	e779      	b.n	8012a36 <_svfprintf_r+0x1696>
 8012b42:	9808      	ldr	r0, [sp, #32]
 8012b44:	9906      	ldr	r1, [sp, #24]
 8012b46:	aa21      	add	r2, sp, #132	; 0x84
 8012b48:	f002 fb54 	bl	80151f4 <__ssprint_r>
 8012b4c:	2800      	cmp	r0, #0
 8012b4e:	f47e ade6 	bne.w	801171e <_svfprintf_r+0x37e>
 8012b52:	ae2e      	add	r6, sp, #184	; 0xb8
 8012b54:	9c23      	ldr	r4, [sp, #140]	; 0x8c
 8012b56:	9922      	ldr	r1, [sp, #136]	; 0x88
 8012b58:	e4b3      	b.n	80124c2 <_svfprintf_r+0x1122>
 8012b5a:	9808      	ldr	r0, [sp, #32]
 8012b5c:	9906      	ldr	r1, [sp, #24]
 8012b5e:	aa21      	add	r2, sp, #132	; 0x84
 8012b60:	f002 fb48 	bl	80151f4 <__ssprint_r>
 8012b64:	2800      	cmp	r0, #0
 8012b66:	f47e adda 	bne.w	801171e <_svfprintf_r+0x37e>
 8012b6a:	9e1a      	ldr	r6, [sp, #104]	; 0x68
 8012b6c:	9b0d      	ldr	r3, [sp, #52]	; 0x34
 8012b6e:	9c23      	ldr	r4, [sp, #140]	; 0x8c
 8012b70:	1b99      	subs	r1, r3, r6
 8012b72:	ae2e      	add	r6, sp, #184	; 0xb8
 8012b74:	e489      	b.n	801248a <_svfprintf_r+0x10ea>
 8012b76:	9f05      	ldr	r7, [sp, #20]
 8012b78:	950c      	str	r5, [sp, #48]	; 0x30
 8012b7a:	2f06      	cmp	r7, #6
 8012b7c:	bf28      	it	cs
 8012b7e:	2706      	movcs	r7, #6
 8012b80:	ea27 74e7 	bic.w	r4, r7, r7, asr #31
 8012b84:	970a      	str	r7, [sp, #40]	; 0x28
 8012b86:	9407      	str	r4, [sp, #28]
 8012b88:	4f56      	ldr	r7, [pc, #344]	; (8012ce4 <_svfprintf_r+0x1944>)
 8012b8a:	f7fe beb9 	b.w	8011900 <_svfprintf_r+0x560>
 8012b8e:	9922      	ldr	r1, [sp, #136]	; 0x88
 8012b90:	f8df 814c 	ldr.w	r8, [pc, #332]	; 8012ce0 <_svfprintf_r+0x1940>
 8012b94:	f7ff b8f6 	b.w	8011d84 <_svfprintf_r+0x9e4>
 8012b98:	980c      	ldr	r0, [sp, #48]	; 0x30
 8012b9a:	9b0b      	ldr	r3, [sp, #44]	; 0x2c
 8012b9c:	6801      	ldr	r1, [r0, #0]
 8012b9e:	1d04      	adds	r4, r0, #4
 8012ba0:	940c      	str	r4, [sp, #48]	; 0x30
 8012ba2:	600b      	str	r3, [r1, #0]
 8012ba4:	f7fe bc27 	b.w	80113f6 <_svfprintf_r+0x56>
 8012ba8:	9a16      	ldr	r2, [sp, #88]	; 0x58
 8012baa:	f89d 3063 	ldrb.w	r3, [sp, #99]	; 0x63
 8012bae:	9204      	str	r2, [sp, #16]
 8012bb0:	f7fe bd25 	b.w	80115fe <_svfprintf_r+0x25e>
 8012bb4:	9a1a      	ldr	r2, [sp, #104]	; 0x68
 8012bb6:	1cd1      	adds	r1, r2, #3
 8012bb8:	4613      	mov	r3, r2
 8012bba:	db02      	blt.n	8012bc2 <_svfprintf_r+0x1822>
 8012bbc:	9c05      	ldr	r4, [sp, #20]
 8012bbe:	4294      	cmp	r4, r2
 8012bc0:	da28      	bge.n	8012c14 <_svfprintf_r+0x1874>
 8012bc2:	f1a8 0802 	sub.w	r8, r8, #2
 8012bc6:	3b01      	subs	r3, #1
 8012bc8:	2b00      	cmp	r3, #0
 8012bca:	931a      	str	r3, [sp, #104]	; 0x68
 8012bcc:	f88d 8074 	strb.w	r8, [sp, #116]	; 0x74
 8012bd0:	f2c0 8151 	blt.w	8012e76 <_svfprintf_r+0x1ad6>
 8012bd4:	222b      	movs	r2, #43	; 0x2b
 8012bd6:	f88d 2075 	strb.w	r2, [sp, #117]	; 0x75
 8012bda:	2b09      	cmp	r3, #9
 8012bdc:	f300 80c0 	bgt.w	8012d60 <_svfprintf_r+0x19c0>
 8012be0:	3330      	adds	r3, #48	; 0x30
 8012be2:	2030      	movs	r0, #48	; 0x30
 8012be4:	f88d 0076 	strb.w	r0, [sp, #118]	; 0x76
 8012be8:	f88d 3077 	strb.w	r3, [sp, #119]	; 0x77
 8012bec:	ac1e      	add	r4, sp, #120	; 0x78
 8012bee:	aa1d      	add	r2, sp, #116	; 0x74
 8012bf0:	980d      	ldr	r0, [sp, #52]	; 0x34
 8012bf2:	9b0d      	ldr	r3, [sp, #52]	; 0x34
 8012bf4:	1aa1      	subs	r1, r4, r2
 8012bf6:	1844      	adds	r4, r0, r1
 8012bf8:	2b01      	cmp	r3, #1
 8012bfa:	9115      	str	r1, [sp, #84]	; 0x54
 8012bfc:	940a      	str	r4, [sp, #40]	; 0x28
 8012bfe:	f340 813f 	ble.w	8012e80 <_svfprintf_r+0x1ae0>
 8012c02:	9b0a      	ldr	r3, [sp, #40]	; 0x28
 8012c04:	1c5a      	adds	r2, r3, #1
 8012c06:	ea22 71e2 	bic.w	r1, r2, r2, asr #31
 8012c0a:	2000      	movs	r0, #0
 8012c0c:	920a      	str	r2, [sp, #40]	; 0x28
 8012c0e:	9107      	str	r1, [sp, #28]
 8012c10:	9010      	str	r0, [sp, #64]	; 0x40
 8012c12:	e68b      	b.n	801292c <_svfprintf_r+0x158c>
 8012c14:	990d      	ldr	r1, [sp, #52]	; 0x34
 8012c16:	428a      	cmp	r2, r1
 8012c18:	db6c      	blt.n	8012cf4 <_svfprintf_r+0x1954>
 8012c1a:	9904      	ldr	r1, [sp, #16]
 8012c1c:	07c8      	lsls	r0, r1, #31
 8012c1e:	f100 8100 	bmi.w	8012e22 <_svfprintf_r+0x1a82>
 8012c22:	ea22 70e2 	bic.w	r0, r2, r2, asr #31
 8012c26:	9007      	str	r0, [sp, #28]
 8012c28:	920a      	str	r2, [sp, #40]	; 0x28
 8012c2a:	f04f 0867 	mov.w	r8, #103	; 0x67
 8012c2e:	e67c      	b.n	801292a <_svfprintf_r+0x158a>
 8012c30:	9808      	ldr	r0, [sp, #32]
 8012c32:	9906      	ldr	r1, [sp, #24]
 8012c34:	aa21      	add	r2, sp, #132	; 0x84
 8012c36:	f002 fadd 	bl	80151f4 <__ssprint_r>
 8012c3a:	2800      	cmp	r0, #0
 8012c3c:	f47e ad6f 	bne.w	801171e <_svfprintf_r+0x37e>
 8012c40:	ae2e      	add	r6, sp, #184	; 0xb8
 8012c42:	9c23      	ldr	r4, [sp, #140]	; 0x8c
 8012c44:	9922      	ldr	r1, [sp, #136]	; 0x88
 8012c46:	e44e      	b.n	80124e6 <_svfprintf_r+0x1146>
 8012c48:	232d      	movs	r3, #45	; 0x2d
 8012c4a:	f88d 3063 	strb.w	r3, [sp, #99]	; 0x63
 8012c4e:	f7fe bdb3 	b.w	80117b8 <_svfprintf_r+0x418>
 8012c52:	4925      	ldr	r1, [pc, #148]	; (8012ce8 <_svfprintf_r+0x1948>)
 8012c54:	9822      	ldr	r0, [sp, #136]	; 0x88
 8012c56:	9105      	str	r1, [sp, #20]
 8012c58:	f7ff b9c8 	b.w	8011fec <_svfprintf_r+0xc4c>
 8012c5c:	9b05      	ldr	r3, [sp, #20]
 8012c5e:	9a05      	ldr	r2, [sp, #20]
 8012c60:	900e      	str	r0, [sp, #56]	; 0x38
 8012c62:	ea23 74e3 	bic.w	r4, r3, r3, asr #31
 8012c66:	9407      	str	r4, [sp, #28]
 8012c68:	f89d 3063 	ldrb.w	r3, [sp, #99]	; 0x63
 8012c6c:	950c      	str	r5, [sp, #48]	; 0x30
 8012c6e:	920a      	str	r2, [sp, #40]	; 0x28
 8012c70:	9010      	str	r0, [sp, #64]	; 0x40
 8012c72:	f7fe bcc4 	b.w	80115fe <_svfprintf_r+0x25e>
 8012c76:	462a      	mov	r2, r5
 8012c78:	4623      	mov	r3, r4
 8012c7a:	a91b      	add	r1, sp, #108	; 0x6c
 8012c7c:	af1c      	add	r7, sp, #112	; 0x70
 8012c7e:	ec43 2b10 	vmov	d0, r2, r3
 8012c82:	9100      	str	r1, [sp, #0]
 8012c84:	9701      	str	r7, [sp, #4]
 8012c86:	ab1a      	add	r3, sp, #104	; 0x68
 8012c88:	9808      	ldr	r0, [sp, #32]
 8012c8a:	9a05      	ldr	r2, [sp, #20]
 8012c8c:	2103      	movs	r1, #3
 8012c8e:	f000 fa87 	bl	80131a0 <_dtoa_r>
 8012c92:	9b05      	ldr	r3, [sp, #20]
 8012c94:	4607      	mov	r7, r0
 8012c96:	eb00 0b03 	add.w	fp, r0, r3
 8012c9a:	469c      	mov	ip, r3
 8012c9c:	7838      	ldrb	r0, [r7, #0]
 8012c9e:	2830      	cmp	r0, #48	; 0x30
 8012ca0:	f000 80ae 	beq.w	8012e00 <_svfprintf_r+0x1a60>
 8012ca4:	9a1a      	ldr	r2, [sp, #104]	; 0x68
 8012ca6:	4493      	add	fp, r2
 8012ca8:	e5fa      	b.n	80128a0 <_svfprintf_r+0x1500>
 8012caa:	2200      	movs	r2, #0
 8012cac:	46a2      	mov	sl, r4
 8012cae:	9205      	str	r2, [sp, #20]
 8012cb0:	f7fe bbda 	b.w	8011468 <_svfprintf_r+0xc8>
 8012cb4:	9805      	ldr	r0, [sp, #20]
 8012cb6:	2800      	cmp	r0, #0
 8012cb8:	bf08      	it	eq
 8012cba:	2001      	moveq	r0, #1
 8012cbc:	9005      	str	r0, [sp, #20]
 8012cbe:	e5b1      	b.n	8012824 <_svfprintf_r+0x1484>
 8012cc0:	9808      	ldr	r0, [sp, #32]
 8012cc2:	9906      	ldr	r1, [sp, #24]
 8012cc4:	aa21      	add	r2, sp, #132	; 0x84
 8012cc6:	f002 fa95 	bl	80151f4 <__ssprint_r>
 8012cca:	2800      	cmp	r0, #0
 8012ccc:	f47e ad27 	bne.w	801171e <_svfprintf_r+0x37e>
 8012cd0:	9d1a      	ldr	r5, [sp, #104]	; 0x68
 8012cd2:	9a23      	ldr	r2, [sp, #140]	; 0x8c
 8012cd4:	9b22      	ldr	r3, [sp, #136]	; 0x88
 8012cd6:	ae2e      	add	r6, sp, #184	; 0xb8
 8012cd8:	e52a      	b.n	8012730 <_svfprintf_r+0x1390>
 8012cda:	4635      	mov	r5, r6
 8012cdc:	4606      	mov	r6, r0
 8012cde:	e724      	b.n	8012b2a <_svfprintf_r+0x178a>
 8012ce0:	08015848 	.word	0x08015848
 8012ce4:	0801582c 	.word	0x0801582c
 8012ce8:	08015838 	.word	0x08015838
 8012cec:	9a05      	ldr	r2, [sp, #20]
 8012cee:	f102 0c01 	add.w	ip, r2, #1
 8012cf2:	e5b2      	b.n	801285a <_svfprintf_r+0x14ba>
 8012cf4:	2a00      	cmp	r2, #0
 8012cf6:	980d      	ldr	r0, [sp, #52]	; 0x34
 8012cf8:	bfd4      	ite	le
 8012cfa:	f1c2 0302 	rsble	r3, r2, #2
 8012cfe:	2301      	movgt	r3, #1
 8012d00:	181b      	adds	r3, r3, r0
 8012d02:	ea23 74e3 	bic.w	r4, r3, r3, asr #31
 8012d06:	930a      	str	r3, [sp, #40]	; 0x28
 8012d08:	9407      	str	r4, [sp, #28]
 8012d0a:	f04f 0867 	mov.w	r8, #103	; 0x67
 8012d0e:	e60c      	b.n	801292a <_svfprintf_r+0x158a>
 8012d10:	272d      	movs	r7, #45	; 0x2d
 8012d12:	f104 4400 	add.w	r4, r4, #2147483648	; 0x80000000
 8012d16:	970e      	str	r7, [sp, #56]	; 0x38
 8012d18:	e58d      	b.n	8012836 <_svfprintf_r+0x1496>
 8012d1a:	f8dd b070 	ldr.w	fp, [sp, #112]	; 0x70
 8012d1e:	e5e5      	b.n	80128ec <_svfprintf_r+0x154c>
 8012d20:	9808      	ldr	r0, [sp, #32]
 8012d22:	9906      	ldr	r1, [sp, #24]
 8012d24:	aa21      	add	r2, sp, #132	; 0x84
 8012d26:	f002 fa65 	bl	80151f4 <__ssprint_r>
 8012d2a:	2800      	cmp	r0, #0
 8012d2c:	f47e acf7 	bne.w	801171e <_svfprintf_r+0x37e>
 8012d30:	ae2e      	add	r6, sp, #184	; 0xb8
 8012d32:	9a23      	ldr	r2, [sp, #140]	; 0x8c
 8012d34:	9b22      	ldr	r3, [sp, #136]	; 0x88
 8012d36:	e514      	b.n	8012762 <_svfprintf_r+0x13c2>
 8012d38:	462a      	mov	r2, r5
 8012d3a:	4623      	mov	r3, r4
 8012d3c:	af1b      	add	r7, sp, #108	; 0x6c
 8012d3e:	a81c      	add	r0, sp, #112	; 0x70
 8012d40:	ec43 2b10 	vmov	d0, r2, r3
 8012d44:	9700      	str	r7, [sp, #0]
 8012d46:	9001      	str	r0, [sp, #4]
 8012d48:	9a05      	ldr	r2, [sp, #20]
 8012d4a:	9808      	ldr	r0, [sp, #32]
 8012d4c:	2103      	movs	r1, #3
 8012d4e:	ab1a      	add	r3, sp, #104	; 0x68
 8012d50:	f000 fa26 	bl	80131a0 <_dtoa_r>
 8012d54:	9a05      	ldr	r2, [sp, #20]
 8012d56:	4607      	mov	r7, r0
 8012d58:	eb00 0b02 	add.w	fp, r0, r2
 8012d5c:	4694      	mov	ip, r2
 8012d5e:	e79d      	b.n	8012c9c <_svfprintf_r+0x18fc>
 8012d60:	f246 6467 	movw	r4, #26215	; 0x6667
 8012d64:	f10d 0182 	add.w	r1, sp, #130	; 0x82
 8012d68:	f2c6 6466 	movt	r4, #26214	; 0x6666
 8012d6c:	fb84 2503 	smull	r2, r5, r4, r3
 8012d70:	17da      	asrs	r2, r3, #31
 8012d72:	ebc2 00a5 	rsb	r0, r2, r5, asr #2
 8012d76:	eb00 0580 	add.w	r5, r0, r0, lsl #2
 8012d7a:	460a      	mov	r2, r1
 8012d7c:	eba3 0345 	sub.w	r3, r3, r5, lsl #1
 8012d80:	f103 0130 	add.w	r1, r3, #48	; 0x30
 8012d84:	7011      	strb	r1, [r2, #0]
 8012d86:	1e51      	subs	r1, r2, #1
 8012d88:	2809      	cmp	r0, #9
 8012d8a:	4603      	mov	r3, r0
 8012d8c:	dcee      	bgt.n	8012d6c <_svfprintf_r+0x19cc>
 8012d8e:	3330      	adds	r3, #48	; 0x30
 8012d90:	f10d 0583 	add.w	r5, sp, #131	; 0x83
 8012d94:	b2d8      	uxtb	r0, r3
 8012d96:	428d      	cmp	r5, r1
 8012d98:	f802 0c01 	strb.w	r0, [r2, #-1]
 8012d9c:	d97b      	bls.n	8012e96 <_svfprintf_r+0x1af6>
 8012d9e:	1aac      	subs	r4, r5, r2
 8012da0:	07e4      	lsls	r4, r4, #31
 8012da2:	f10d 0175 	add.w	r1, sp, #117	; 0x75
 8012da6:	4613      	mov	r3, r2
 8012da8:	d50d      	bpl.n	8012dc6 <_svfprintf_r+0x1a26>
 8012daa:	4613      	mov	r3, r2
 8012dac:	f88d 0076 	strb.w	r0, [sp, #118]	; 0x76
 8012db0:	f10d 0176 	add.w	r1, sp, #118	; 0x76
 8012db4:	f813 0b01 	ldrb.w	r0, [r3], #1
 8012db8:	e005      	b.n	8012dc6 <_svfprintf_r+0x1a26>
 8012dba:	f813 1b01 	ldrb.w	r1, [r3], #1
 8012dbe:	7061      	strb	r1, [r4, #1]
 8012dc0:	f813 0b01 	ldrb.w	r0, [r3], #1
 8012dc4:	1c61      	adds	r1, r4, #1
 8012dc6:	1c4c      	adds	r4, r1, #1
 8012dc8:	42ab      	cmp	r3, r5
 8012dca:	7048      	strb	r0, [r1, #1]
 8012dcc:	d1f5      	bne.n	8012dba <_svfprintf_r+0x1a1a>
 8012dce:	ab3e      	add	r3, sp, #248	; 0xf8
 8012dd0:	ebc2 0443 	rsb	r4, r2, r3, lsl #1
 8012dd4:	3cf6      	subs	r4, #246	; 0xf6
 8012dd6:	e70a      	b.n	8012bee <_svfprintf_r+0x184e>
 8012dd8:	9808      	ldr	r0, [sp, #32]
 8012dda:	9906      	ldr	r1, [sp, #24]
 8012ddc:	aa21      	add	r2, sp, #132	; 0x84
 8012dde:	f002 fa09 	bl	80151f4 <__ssprint_r>
 8012de2:	2800      	cmp	r0, #0
 8012de4:	f47e ac9b 	bne.w	801171e <_svfprintf_r+0x37e>
 8012de8:	ae2e      	add	r6, sp, #184	; 0xb8
 8012dea:	9a23      	ldr	r2, [sp, #140]	; 0x8c
 8012dec:	9b22      	ldr	r3, [sp, #136]	; 0x88
 8012dee:	e4ca      	b.n	8012786 <_svfprintf_r+0x13e6>
 8012df0:	9b05      	ldr	r3, [sp, #20]
 8012df2:	1c5c      	adds	r4, r3, #1
 8012df4:	1911      	adds	r1, r2, r4
 8012df6:	ea21 70e1 	bic.w	r0, r1, r1, asr #31
 8012dfa:	910a      	str	r1, [sp, #40]	; 0x28
 8012dfc:	9007      	str	r0, [sp, #28]
 8012dfe:	e594      	b.n	801292a <_svfprintf_r+0x158a>
 8012e00:	4628      	mov	r0, r5
 8012e02:	4621      	mov	r1, r4
 8012e04:	2200      	movs	r2, #0
 8012e06:	2300      	movs	r3, #0
 8012e08:	f8cd c008 	str.w	ip, [sp, #8]
 8012e0c:	f7f9 fd18 	bl	800c840 <__aeabi_dcmpeq>
 8012e10:	f8dd c008 	ldr.w	ip, [sp, #8]
 8012e14:	2800      	cmp	r0, #0
 8012e16:	f47f af45 	bne.w	8012ca4 <_svfprintf_r+0x1904>
 8012e1a:	f1cc 0201 	rsb	r2, ip, #1
 8012e1e:	921a      	str	r2, [sp, #104]	; 0x68
 8012e20:	e741      	b.n	8012ca6 <_svfprintf_r+0x1906>
 8012e22:	1c53      	adds	r3, r2, #1
 8012e24:	ea23 74e3 	bic.w	r4, r3, r3, asr #31
 8012e28:	930a      	str	r3, [sp, #40]	; 0x28
 8012e2a:	9407      	str	r4, [sp, #28]
 8012e2c:	f04f 0867 	mov.w	r8, #103	; 0x67
 8012e30:	e57b      	b.n	801292a <_svfprintf_r+0x158a>
 8012e32:	9805      	ldr	r0, [sp, #20]
 8012e34:	b9c0      	cbnz	r0, 8012e68 <_svfprintf_r+0x1ac8>
 8012e36:	9b04      	ldr	r3, [sp, #16]
 8012e38:	07dc      	lsls	r4, r3, #31
 8012e3a:	d415      	bmi.n	8012e68 <_svfprintf_r+0x1ac8>
 8012e3c:	2401      	movs	r4, #1
 8012e3e:	9407      	str	r4, [sp, #28]
 8012e40:	940a      	str	r4, [sp, #40]	; 0x28
 8012e42:	e572      	b.n	801292a <_svfprintf_r+0x158a>
 8012e44:	9b0c      	ldr	r3, [sp, #48]	; 0x30
 8012e46:	f89a 8001 	ldrb.w	r8, [sl, #1]
 8012e4a:	681a      	ldr	r2, [r3, #0]
 8012e4c:	9b0c      	ldr	r3, [sp, #48]	; 0x30
 8012e4e:	9205      	str	r2, [sp, #20]
 8012e50:	9a05      	ldr	r2, [sp, #20]
 8012e52:	3304      	adds	r3, #4
 8012e54:	2a00      	cmp	r2, #0
 8012e56:	930c      	str	r3, [sp, #48]	; 0x30
 8012e58:	46a2      	mov	sl, r4
 8012e5a:	f6be ab03 	bge.w	8011464 <_svfprintf_r+0xc4>
 8012e5e:	f04f 33ff 	mov.w	r3, #4294967295
 8012e62:	9305      	str	r3, [sp, #20]
 8012e64:	f7fe bafe 	b.w	8011464 <_svfprintf_r+0xc4>
 8012e68:	9905      	ldr	r1, [sp, #20]
 8012e6a:	1c88      	adds	r0, r1, #2
 8012e6c:	ea20 73e0 	bic.w	r3, r0, r0, asr #31
 8012e70:	900a      	str	r0, [sp, #40]	; 0x28
 8012e72:	9307      	str	r3, [sp, #28]
 8012e74:	e559      	b.n	801292a <_svfprintf_r+0x158a>
 8012e76:	212d      	movs	r1, #45	; 0x2d
 8012e78:	425b      	negs	r3, r3
 8012e7a:	f88d 1075 	strb.w	r1, [sp, #117]	; 0x75
 8012e7e:	e6ac      	b.n	8012bda <_svfprintf_r+0x183a>
 8012e80:	9a04      	ldr	r2, [sp, #16]
 8012e82:	f012 0101 	ands.w	r1, r2, #1
 8012e86:	f47f aebc 	bne.w	8012c02 <_svfprintf_r+0x1862>
 8012e8a:	980a      	ldr	r0, [sp, #40]	; 0x28
 8012e8c:	9110      	str	r1, [sp, #64]	; 0x40
 8012e8e:	ea20 74e0 	bic.w	r4, r0, r0, asr #31
 8012e92:	9407      	str	r4, [sp, #28]
 8012e94:	e54a      	b.n	801292c <_svfprintf_r+0x158c>
 8012e96:	f10d 0476 	add.w	r4, sp, #118	; 0x76
 8012e9a:	e6a8      	b.n	8012bee <_svfprintf_r+0x184e>
 8012e9c:	9b1a      	ldr	r3, [sp, #104]	; 0x68
 8012e9e:	e692      	b.n	8012bc6 <_svfprintf_r+0x1826>
 8012ea0:	46a3      	mov	fp, r4
 8012ea2:	e523      	b.n	80128ec <_svfprintf_r+0x154c>
 8012ea4:	9a08      	ldr	r2, [sp, #32]
 8012ea6:	210c      	movs	r1, #12
 8012ea8:	6011      	str	r1, [r2, #0]
 8012eaa:	f04f 30ff 	mov.w	r0, #4294967295
 8012eae:	f7fe bc40 	b.w	8011732 <_svfprintf_r+0x392>
 8012eb2:	bf00      	nop

08012eb4 <quorem>:
 8012eb4:	e92d 4ff0 	stmdb	sp!, {r4, r5, r6, r7, r8, r9, sl, fp, lr}
 8012eb8:	6903      	ldr	r3, [r0, #16]
 8012eba:	690c      	ldr	r4, [r1, #16]
 8012ebc:	429c      	cmp	r4, r3
 8012ebe:	b083      	sub	sp, #12
 8012ec0:	4606      	mov	r6, r0
 8012ec2:	f300 816b 	bgt.w	801319c <quorem+0x2e8>
 8012ec6:	1ce0      	adds	r0, r4, #3
 8012ec8:	0082      	lsls	r2, r0, #2
 8012eca:	188f      	adds	r7, r1, r2
 8012ecc:	18b5      	adds	r5, r6, r2
 8012ece:	687b      	ldr	r3, [r7, #4]
 8012ed0:	6868      	ldr	r0, [r5, #4]
 8012ed2:	1c5a      	adds	r2, r3, #1
 8012ed4:	fbb0 f5f2 	udiv	r5, r0, r2
 8012ed8:	f101 0314 	add.w	r3, r1, #20
 8012edc:	9301      	str	r3, [sp, #4]
 8012ede:	3c01      	subs	r4, #1
 8012ee0:	3704      	adds	r7, #4
 8012ee2:	f106 0814 	add.w	r8, r6, #20
 8012ee6:	2d00      	cmp	r5, #0
 8012ee8:	f000 80be 	beq.w	8013068 <quorem+0x1b4>
 8012eec:	694a      	ldr	r2, [r1, #20]
 8012eee:	f8d8 3000 	ldr.w	r3, [r8]
 8012ef2:	f8dd 9004 	ldr.w	r9, [sp, #4]
 8012ef6:	b290      	uxth	r0, r2
 8012ef8:	ea4f 4c12 	mov.w	ip, r2, lsr #16
 8012efc:	fb05 f000 	mul.w	r0, r5, r0
 8012f00:	fb05 f20c 	mul.w	r2, r5, ip
 8012f04:	eb02 4c10 	add.w	ip, r2, r0, lsr #16
 8012f08:	fa1f fe8c 	uxth.w	lr, ip
 8012f0c:	b29a      	uxth	r2, r3
 8012f0e:	b280      	uxth	r0, r0
 8012f10:	1a12      	subs	r2, r2, r0
 8012f12:	ebce 4313 	rsb	r3, lr, r3, lsr #16
 8012f16:	eb03 4e22 	add.w	lr, r3, r2, asr #16
 8012f1a:	b292      	uxth	r2, r2
 8012f1c:	ebc9 0007 	rsb	r0, r9, r7
 8012f20:	f106 0318 	add.w	r3, r6, #24
 8012f24:	ea42 490e 	orr.w	r9, r2, lr, lsl #16
 8012f28:	f101 0218 	add.w	r2, r1, #24
 8012f2c:	4297      	cmp	r7, r2
 8012f2e:	f843 9c04 	str.w	r9, [r3, #-4]
 8012f32:	f3c0 0080 	ubfx	r0, r0, #2, #1
 8012f36:	ea4f 4c1c 	mov.w	ip, ip, lsr #16
 8012f3a:	ea4f 4e2e 	mov.w	lr, lr, asr #16
 8012f3e:	d370      	bcc.n	8013022 <quorem+0x16e>
 8012f40:	b328      	cbz	r0, 8012f8e <quorem+0xda>
 8012f42:	6810      	ldr	r0, [r2, #0]
 8012f44:	681b      	ldr	r3, [r3, #0]
 8012f46:	b282      	uxth	r2, r0
 8012f48:	0c00      	lsrs	r0, r0, #16
 8012f4a:	fb05 cc02 	mla	ip, r5, r2, ip
 8012f4e:	fb05 f000 	mul.w	r0, r5, r0
 8012f52:	eb00 401c 	add.w	r0, r0, ip, lsr #16
 8012f56:	fa1e f283 	uxtah	r2, lr, r3
 8012f5a:	fa1f fc8c 	uxth.w	ip, ip
 8012f5e:	fa1f fe80 	uxth.w	lr, r0
 8012f62:	ebcc 0202 	rsb	r2, ip, r2
 8012f66:	ebce 4313 	rsb	r3, lr, r3, lsr #16
 8012f6a:	eb03 4e22 	add.w	lr, r3, r2, asr #16
 8012f6e:	fa1f fc82 	uxth.w	ip, r2
 8012f72:	f106 031c 	add.w	r3, r6, #28
 8012f76:	f101 021c 	add.w	r2, r1, #28
 8012f7a:	ea4c 4c0e 	orr.w	ip, ip, lr, lsl #16
 8012f7e:	4297      	cmp	r7, r2
 8012f80:	f843 cc04 	str.w	ip, [r3, #-4]
 8012f84:	ea4f 4e2e 	mov.w	lr, lr, asr #16
 8012f88:	ea4f 4c10 	mov.w	ip, r0, lsr #16
 8012f8c:	d349      	bcc.n	8013022 <quorem+0x16e>
 8012f8e:	4610      	mov	r0, r2
 8012f90:	f8d3 9000 	ldr.w	r9, [r3]
 8012f94:	f850 bb04 	ldr.w	fp, [r0], #4
 8012f98:	fa1f fa8b 	uxth.w	sl, fp
 8012f9c:	ea4f 4b1b 	mov.w	fp, fp, lsr #16
 8012fa0:	fb05 cc0a 	mla	ip, r5, sl, ip
 8012fa4:	fb05 fa0b 	mul.w	sl, r5, fp
 8012fa8:	eb0a 4b1c 	add.w	fp, sl, ip, lsr #16
 8012fac:	fa1f fa8b 	uxth.w	sl, fp
 8012fb0:	fa1e fe89 	uxtah	lr, lr, r9
 8012fb4:	fa1f fc8c 	uxth.w	ip, ip
 8012fb8:	ebcc 0e0e 	rsb	lr, ip, lr
 8012fbc:	ebca 4c19 	rsb	ip, sl, r9, lsr #16
 8012fc0:	eb0c 4a2e 	add.w	sl, ip, lr, asr #16
 8012fc4:	4699      	mov	r9, r3
 8012fc6:	fa1f fe8e 	uxth.w	lr, lr
 8012fca:	ea4e 4c0a 	orr.w	ip, lr, sl, lsl #16
 8012fce:	f849 cb04 	str.w	ip, [r9], #4
 8012fd2:	6852      	ldr	r2, [r2, #4]
 8012fd4:	685b      	ldr	r3, [r3, #4]
 8012fd6:	fa1f fe82 	uxth.w	lr, r2
 8012fda:	fb05 fe0e 	mul.w	lr, r5, lr
 8012fde:	ea4f 4c12 	mov.w	ip, r2, lsr #16
 8012fe2:	eb0e 4b1b 	add.w	fp, lr, fp, lsr #16
 8012fe6:	fb05 f20c 	mul.w	r2, r5, ip
 8012fea:	eb02 4c1b 	add.w	ip, r2, fp, lsr #16
 8012fee:	b29a      	uxth	r2, r3
 8012ff0:	fa1f fe8c 	uxth.w	lr, ip
 8012ff4:	eb02 422a 	add.w	r2, r2, sl, asr #16
 8012ff8:	fa1f fb8b 	uxth.w	fp, fp
 8012ffc:	ebcb 0202 	rsb	r2, fp, r2
 8013000:	ebce 4313 	rsb	r3, lr, r3, lsr #16
 8013004:	eb03 4e22 	add.w	lr, r3, r2, asr #16
 8013008:	b292      	uxth	r2, r2
 801300a:	464b      	mov	r3, r9
 801300c:	ea42 490e 	orr.w	r9, r2, lr, lsl #16
 8013010:	1d02      	adds	r2, r0, #4
 8013012:	4297      	cmp	r7, r2
 8013014:	f843 9b04 	str.w	r9, [r3], #4
 8013018:	ea4f 4c1c 	mov.w	ip, ip, lsr #16
 801301c:	ea4f 4e2e 	mov.w	lr, lr, asr #16
 8013020:	d2b5      	bcs.n	8012f8e <quorem+0xda>
 8013022:	1d20      	adds	r0, r4, #4
 8013024:	eb06 0380 	add.w	r3, r6, r0, lsl #2
 8013028:	685a      	ldr	r2, [r3, #4]
 801302a:	b9ea      	cbnz	r2, 8013068 <quorem+0x1b4>
 801302c:	1d18      	adds	r0, r3, #4
 801302e:	4598      	cmp	r8, r3
 8013030:	d219      	bcs.n	8013066 <quorem+0x1b2>
 8013032:	f850 2c04 	ldr.w	r2, [r0, #-4]
 8013036:	b9b2      	cbnz	r2, 8013066 <quorem+0x1b2>
 8013038:	3b04      	subs	r3, #4
 801303a:	ebc8 0003 	rsb	r0, r8, r3
 801303e:	1cc2      	adds	r2, r0, #3
 8013040:	0750      	lsls	r0, r2, #29
 8013042:	d50d      	bpl.n	8013060 <quorem+0x1ac>
 8013044:	3c01      	subs	r4, #1
 8013046:	4598      	cmp	r8, r3
 8013048:	d20d      	bcs.n	8013066 <quorem+0x1b2>
 801304a:	681a      	ldr	r2, [r3, #0]
 801304c:	3b04      	subs	r3, #4
 801304e:	b13a      	cbz	r2, 8013060 <quorem+0x1ac>
 8013050:	e009      	b.n	8013066 <quorem+0x1b2>
 8013052:	6818      	ldr	r0, [r3, #0]
 8013054:	3b04      	subs	r3, #4
 8013056:	b930      	cbnz	r0, 8013066 <quorem+0x1b2>
 8013058:	681a      	ldr	r2, [r3, #0]
 801305a:	3c01      	subs	r4, #1
 801305c:	3b04      	subs	r3, #4
 801305e:	b912      	cbnz	r2, 8013066 <quorem+0x1b2>
 8013060:	3c01      	subs	r4, #1
 8013062:	4598      	cmp	r8, r3
 8013064:	d3f5      	bcc.n	8013052 <quorem+0x19e>
 8013066:	6134      	str	r4, [r6, #16]
 8013068:	4630      	mov	r0, r6
 801306a:	f001 fefd 	bl	8014e68 <__mcmp>
 801306e:	2800      	cmp	r0, #0
 8013070:	f2c0 8083 	blt.w	801317a <quorem+0x2c6>
 8013074:	9a01      	ldr	r2, [sp, #4]
 8013076:	f8d8 3000 	ldr.w	r3, [r8]
 801307a:	f852 0b04 	ldr.w	r0, [r2], #4
 801307e:	fa1f f983 	uxth.w	r9, r3
 8013082:	b281      	uxth	r1, r0
 8013084:	0c00      	lsrs	r0, r0, #16
 8013086:	ebc1 0109 	rsb	r1, r1, r9
 801308a:	ebc0 4313 	rsb	r3, r0, r3, lsr #16
 801308e:	f8dd 9004 	ldr.w	r9, [sp, #4]
 8013092:	eb03 4021 	add.w	r0, r3, r1, asr #16
 8013096:	4643      	mov	r3, r8
 8013098:	b289      	uxth	r1, r1
 801309a:	ea41 4100 	orr.w	r1, r1, r0, lsl #16
 801309e:	ebc9 0c07 	rsb	ip, r9, r7
 80130a2:	3501      	adds	r5, #1
 80130a4:	1400      	asrs	r0, r0, #16
 80130a6:	4297      	cmp	r7, r2
 80130a8:	f843 1b04 	str.w	r1, [r3], #4
 80130ac:	f3cc 0180 	ubfx	r1, ip, #2, #1
 80130b0:	d34b      	bcc.n	801314a <quorem+0x296>
 80130b2:	b1b9      	cbz	r1, 80130e4 <quorem+0x230>
 80130b4:	f852 eb04 	ldr.w	lr, [r2], #4
 80130b8:	6819      	ldr	r1, [r3, #0]
 80130ba:	fa1f f98e 	uxth.w	r9, lr
 80130be:	fa1f fa81 	uxth.w	sl, r1
 80130c2:	ebc9 090a 	rsb	r9, r9, sl
 80130c6:	ea4f 4c1e 	mov.w	ip, lr, lsr #16
 80130ca:	4448      	add	r0, r9
 80130cc:	ebcc 4111 	rsb	r1, ip, r1, lsr #16
 80130d0:	eb01 4120 	add.w	r1, r1, r0, asr #16
 80130d4:	b280      	uxth	r0, r0
 80130d6:	ea40 4001 	orr.w	r0, r0, r1, lsl #16
 80130da:	f843 0b04 	str.w	r0, [r3], #4
 80130de:	1408      	asrs	r0, r1, #16
 80130e0:	4297      	cmp	r7, r2
 80130e2:	d332      	bcc.n	801314a <quorem+0x296>
 80130e4:	4682      	mov	sl, r0
 80130e6:	4611      	mov	r1, r2
 80130e8:	f8d3 e000 	ldr.w	lr, [r3]
 80130ec:	f851 0b04 	ldr.w	r0, [r1], #4
 80130f0:	fa1f fb8e 	uxth.w	fp, lr
 80130f4:	fa1f f980 	uxth.w	r9, r0
 80130f8:	ea4f 4c10 	mov.w	ip, r0, lsr #16
 80130fc:	ebc9 0b0b 	rsb	fp, r9, fp
 8013100:	eb0b 000a 	add.w	r0, fp, sl
 8013104:	ebcc 4a1e 	rsb	sl, ip, lr, lsr #16
 8013108:	eb0a 4920 	add.w	r9, sl, r0, asr #16
 801310c:	469e      	mov	lr, r3
 801310e:	b280      	uxth	r0, r0
 8013110:	ea40 4009 	orr.w	r0, r0, r9, lsl #16
 8013114:	f84e 0b04 	str.w	r0, [lr], #4
 8013118:	6850      	ldr	r0, [r2, #4]
 801311a:	685b      	ldr	r3, [r3, #4]
 801311c:	b282      	uxth	r2, r0
 801311e:	fa1f fc83 	uxth.w	ip, r3
 8013122:	0c00      	lsrs	r0, r0, #16
 8013124:	ebc2 020c 	rsb	r2, r2, ip
 8013128:	eb02 4229 	add.w	r2, r2, r9, asr #16
 801312c:	ebc0 4313 	rsb	r3, r0, r3, lsr #16
 8013130:	eb03 4022 	add.w	r0, r3, r2, asr #16
 8013134:	b292      	uxth	r2, r2
 8013136:	ea42 4a00 	orr.w	sl, r2, r0, lsl #16
 801313a:	4673      	mov	r3, lr
 801313c:	1d0a      	adds	r2, r1, #4
 801313e:	4297      	cmp	r7, r2
 8013140:	f843 ab04 	str.w	sl, [r3], #4
 8013144:	ea4f 4a20 	mov.w	sl, r0, asr #16
 8013148:	d2cd      	bcs.n	80130e6 <quorem+0x232>
 801314a:	1d21      	adds	r1, r4, #4
 801314c:	eb06 0381 	add.w	r3, r6, r1, lsl #2
 8013150:	6858      	ldr	r0, [r3, #4]
 8013152:	b990      	cbnz	r0, 801317a <quorem+0x2c6>
 8013154:	1d1a      	adds	r2, r3, #4
 8013156:	4598      	cmp	r8, r3
 8013158:	d20e      	bcs.n	8013178 <quorem+0x2c4>
 801315a:	f852 1c04 	ldr.w	r1, [r2, #-4]
 801315e:	b959      	cbnz	r1, 8013178 <quorem+0x2c4>
 8013160:	3b04      	subs	r3, #4
 8013162:	ebc8 0003 	rsb	r0, r8, r3
 8013166:	1cc2      	adds	r2, r0, #3
 8013168:	0752      	lsls	r2, r2, #29
 801316a:	d513      	bpl.n	8013194 <quorem+0x2e0>
 801316c:	3c01      	subs	r4, #1
 801316e:	4598      	cmp	r8, r3
 8013170:	d202      	bcs.n	8013178 <quorem+0x2c4>
 8013172:	6818      	ldr	r0, [r3, #0]
 8013174:	3b04      	subs	r3, #4
 8013176:	b168      	cbz	r0, 8013194 <quorem+0x2e0>
 8013178:	6134      	str	r4, [r6, #16]
 801317a:	4628      	mov	r0, r5
 801317c:	b003      	add	sp, #12
 801317e:	e8bd 8ff0 	ldmia.w	sp!, {r4, r5, r6, r7, r8, r9, sl, fp, pc}
 8013182:	681a      	ldr	r2, [r3, #0]
 8013184:	3b04      	subs	r3, #4
 8013186:	2a00      	cmp	r2, #0
 8013188:	d1f6      	bne.n	8013178 <quorem+0x2c4>
 801318a:	6819      	ldr	r1, [r3, #0]
 801318c:	3c01      	subs	r4, #1
 801318e:	3b04      	subs	r3, #4
 8013190:	2900      	cmp	r1, #0
 8013192:	d1f1      	bne.n	8013178 <quorem+0x2c4>
 8013194:	3c01      	subs	r4, #1
 8013196:	4598      	cmp	r8, r3
 8013198:	d3f3      	bcc.n	8013182 <quorem+0x2ce>
 801319a:	e7ed      	b.n	8013178 <quorem+0x2c4>
 801319c:	2000      	movs	r0, #0
 801319e:	e7ed      	b.n	801317c <quorem+0x2c8>

080131a0 <_dtoa_r>:
 80131a0:	e92d 4ff0 	stmdb	sp!, {r4, r5, r6, r7, r8, r9, sl, fp, lr}
 80131a4:	b09d      	sub	sp, #116	; 0x74
 80131a6:	4681      	mov	r9, r0
 80131a8:	9102      	str	r1, [sp, #8]
 80131aa:	6c01      	ldr	r1, [r0, #64]	; 0x40
 80131ac:	9c26      	ldr	r4, [sp, #152]	; 0x98
 80131ae:	9205      	str	r2, [sp, #20]
 80131b0:	9308      	str	r3, [sp, #32]
 80131b2:	ec5b ab10 	vmov	sl, fp, d0
 80131b6:	b151      	cbz	r1, 80131ce <_dtoa_r+0x2e>
 80131b8:	6c43      	ldr	r3, [r0, #68]	; 0x44
 80131ba:	2201      	movs	r2, #1
 80131bc:	fa02 f203 	lsl.w	r2, r2, r3
 80131c0:	604b      	str	r3, [r1, #4]
 80131c2:	608a      	str	r2, [r1, #8]
 80131c4:	f001 fafe 	bl	80147c4 <_Bfree>
 80131c8:	2000      	movs	r0, #0
 80131ca:	f8c9 0040 	str.w	r0, [r9, #64]	; 0x40
 80131ce:	f1bb 0800 	subs.w	r8, fp, #0
 80131d2:	db3b      	blt.n	801324c <_dtoa_r+0xac>
 80131d4:	2100      	movs	r1, #0
 80131d6:	6021      	str	r1, [r4, #0]
 80131d8:	2300      	movs	r3, #0
 80131da:	461a      	mov	r2, r3
 80131dc:	f6c7 73f0 	movt	r3, #32752	; 0x7ff0
 80131e0:	f6c7 72f0 	movt	r2, #32752	; 0x7ff0
 80131e4:	ea08 0003 	and.w	r0, r8, r3
 80131e8:	4290      	cmp	r0, r2
 80131ea:	d018      	beq.n	801321e <_dtoa_r+0x7e>
 80131ec:	2200      	movs	r2, #0
 80131ee:	2300      	movs	r3, #0
 80131f0:	4650      	mov	r0, sl
 80131f2:	4659      	mov	r1, fp
 80131f4:	4654      	mov	r4, sl
 80131f6:	465d      	mov	r5, fp
 80131f8:	f7f9 fb22 	bl	800c840 <__aeabi_dcmpeq>
 80131fc:	2800      	cmp	r0, #0
 80131fe:	d02b      	beq.n	8013258 <_dtoa_r+0xb8>
 8013200:	9808      	ldr	r0, [sp, #32]
 8013202:	9d27      	ldr	r5, [sp, #156]	; 0x9c
 8013204:	2301      	movs	r3, #1
 8013206:	6003      	str	r3, [r0, #0]
 8013208:	2d00      	cmp	r5, #0
 801320a:	f000 80d1 	beq.w	80133b0 <_dtoa_r+0x210>
 801320e:	49a4      	ldr	r1, [pc, #656]	; (80134a0 <_dtoa_r+0x300>)
 8013210:	1e4a      	subs	r2, r1, #1
 8013212:	6029      	str	r1, [r5, #0]
 8013214:	9204      	str	r2, [sp, #16]
 8013216:	9804      	ldr	r0, [sp, #16]
 8013218:	b01d      	add	sp, #116	; 0x74
 801321a:	e8bd 8ff0 	ldmia.w	sp!, {r4, r5, r6, r7, r8, r9, sl, fp, pc}
 801321e:	9d08      	ldr	r5, [sp, #32]
 8013220:	f242 730f 	movw	r3, #9999	; 0x270f
 8013224:	602b      	str	r3, [r5, #0]
 8013226:	f1ba 0f00 	cmp.w	sl, #0
 801322a:	f000 80a8 	beq.w	801337e <_dtoa_r+0x1de>
 801322e:	489d      	ldr	r0, [pc, #628]	; (80134a4 <_dtoa_r+0x304>)
 8013230:	9004      	str	r0, [sp, #16]
 8013232:	9d27      	ldr	r5, [sp, #156]	; 0x9c
 8013234:	2d00      	cmp	r5, #0
 8013236:	d0ee      	beq.n	8013216 <_dtoa_r+0x76>
 8013238:	9d04      	ldr	r5, [sp, #16]
 801323a:	78eb      	ldrb	r3, [r5, #3]
 801323c:	2b00      	cmp	r3, #0
 801323e:	f000 820e 	beq.w	801365e <_dtoa_r+0x4be>
 8013242:	4629      	mov	r1, r5
 8013244:	3108      	adds	r1, #8
 8013246:	9d27      	ldr	r5, [sp, #156]	; 0x9c
 8013248:	6029      	str	r1, [r5, #0]
 801324a:	e7e4      	b.n	8013216 <_dtoa_r+0x76>
 801324c:	f028 4800 	bic.w	r8, r8, #2147483648	; 0x80000000
 8013250:	2501      	movs	r5, #1
 8013252:	6025      	str	r5, [r4, #0]
 8013254:	46c3      	mov	fp, r8
 8013256:	e7bf      	b.n	80131d8 <_dtoa_r+0x38>
 8013258:	4648      	mov	r0, r9
 801325a:	ec45 4b10 	vmov	d0, r4, r5
 801325e:	a91b      	add	r1, sp, #108	; 0x6c
 8013260:	aa1a      	add	r2, sp, #104	; 0x68
 8013262:	f001 ff35 	bl	80150d0 <__d2b>
 8013266:	f3c8 560a 	ubfx	r6, r8, #20, #11
 801326a:	900a      	str	r0, [sp, #40]	; 0x28
 801326c:	2e00      	cmp	r6, #0
 801326e:	f040 8090 	bne.w	8013392 <_dtoa_r+0x1f2>
 8013272:	9f1a      	ldr	r7, [sp, #104]	; 0x68
 8013274:	9c1b      	ldr	r4, [sp, #108]	; 0x6c
 8013276:	f46f 6182 	mvn.w	r1, #1040	; 0x410
 801327a:	193e      	adds	r6, r7, r4
 801327c:	428e      	cmp	r6, r1
 801327e:	f2c0 8339 	blt.w	80138f4 <_dtoa_r+0x754>
 8013282:	f64f 420e 	movw	r2, #64526	; 0xfc0e
 8013286:	f6cf 72ff 	movt	r2, #65535	; 0xffff
 801328a:	1b90      	subs	r0, r2, r6
 801328c:	f206 4412 	addw	r4, r6, #1042	; 0x412
 8013290:	fa08 f100 	lsl.w	r1, r8, r0
 8013294:	fa2a f504 	lsr.w	r5, sl, r4
 8013298:	ea41 0005 	orr.w	r0, r1, r5
 801329c:	f7f8 fff2 	bl	800c284 <__aeabi_ui2d>
 80132a0:	2501      	movs	r5, #1
 80132a2:	3e01      	subs	r6, #1
 80132a4:	f1a1 71f8 	sub.w	r1, r1, #32505856	; 0x1f00000
 80132a8:	950b      	str	r5, [sp, #44]	; 0x2c
 80132aa:	2300      	movs	r3, #0
 80132ac:	2200      	movs	r2, #0
 80132ae:	f6c3 73f8 	movt	r3, #16376	; 0x3ff8
 80132b2:	f7f8 fea9 	bl	800c008 <__aeabi_dsub>
 80132b6:	a374      	add	r3, pc, #464	; (adr r3, 8013488 <_dtoa_r+0x2e8>)
 80132b8:	e9d3 2300 	ldrd	r2, r3, [r3]
 80132bc:	f7f9 f858 	bl	800c370 <__aeabi_dmul>
 80132c0:	a373      	add	r3, pc, #460	; (adr r3, 8013490 <_dtoa_r+0x2f0>)
 80132c2:	e9d3 2300 	ldrd	r2, r3, [r3]
 80132c6:	f7f8 fea1 	bl	800c00c <__adddf3>
 80132ca:	4604      	mov	r4, r0
 80132cc:	4630      	mov	r0, r6
 80132ce:	460d      	mov	r5, r1
 80132d0:	f7f8 ffe8 	bl	800c2a4 <__aeabi_i2d>
 80132d4:	a370      	add	r3, pc, #448	; (adr r3, 8013498 <_dtoa_r+0x2f8>)
 80132d6:	e9d3 2300 	ldrd	r2, r3, [r3]
 80132da:	f7f9 f849 	bl	800c370 <__aeabi_dmul>
 80132de:	4602      	mov	r2, r0
 80132e0:	460b      	mov	r3, r1
 80132e2:	4620      	mov	r0, r4
 80132e4:	4629      	mov	r1, r5
 80132e6:	f7f8 fe91 	bl	800c00c <__adddf3>
 80132ea:	4604      	mov	r4, r0
 80132ec:	460d      	mov	r5, r1
 80132ee:	f7f9 fad9 	bl	800c8a4 <__aeabi_d2iz>
 80132f2:	4629      	mov	r1, r5
 80132f4:	9006      	str	r0, [sp, #24]
 80132f6:	2200      	movs	r2, #0
 80132f8:	4620      	mov	r0, r4
 80132fa:	2300      	movs	r3, #0
 80132fc:	f7f9 faaa 	bl	800c854 <__aeabi_dcmplt>
 8013300:	2800      	cmp	r0, #0
 8013302:	f040 82c7 	bne.w	8013894 <_dtoa_r+0x6f4>
 8013306:	9a06      	ldr	r2, [sp, #24]
 8013308:	2a16      	cmp	r2, #22
 801330a:	f200 82c0 	bhi.w	801388e <_dtoa_r+0x6ee>
 801330e:	4c66      	ldr	r4, [pc, #408]	; (80134a8 <_dtoa_r+0x308>)
 8013310:	eb04 05c2 	add.w	r5, r4, r2, lsl #3
 8013314:	e9d5 0100 	ldrd	r0, r1, [r5]
 8013318:	4652      	mov	r2, sl
 801331a:	465b      	mov	r3, fp
 801331c:	f7f9 fab8 	bl	800c890 <__aeabi_dcmpgt>
 8013320:	2800      	cmp	r0, #0
 8013322:	f000 82ef 	beq.w	8013904 <_dtoa_r+0x764>
 8013326:	9806      	ldr	r0, [sp, #24]
 8013328:	2200      	movs	r2, #0
 801332a:	1e41      	subs	r1, r0, #1
 801332c:	9106      	str	r1, [sp, #24]
 801332e:	9210      	str	r2, [sp, #64]	; 0x40
 8013330:	1bbe      	subs	r6, r7, r6
 8013332:	3e01      	subs	r6, #1
 8013334:	f100 82c8 	bmi.w	80138c8 <_dtoa_r+0x728>
 8013338:	2400      	movs	r4, #0
 801333a:	9607      	str	r6, [sp, #28]
 801333c:	940c      	str	r4, [sp, #48]	; 0x30
 801333e:	9d06      	ldr	r5, [sp, #24]
 8013340:	2d00      	cmp	r5, #0
 8013342:	f2c0 82b5 	blt.w	80138b0 <_dtoa_r+0x710>
 8013346:	f8dd 801c 	ldr.w	r8, [sp, #28]
 801334a:	950f      	str	r5, [sp, #60]	; 0x3c
 801334c:	eb08 0c05 	add.w	ip, r8, r5
 8013350:	2400      	movs	r4, #0
 8013352:	f8cd c01c 	str.w	ip, [sp, #28]
 8013356:	940e      	str	r4, [sp, #56]	; 0x38
 8013358:	9d02      	ldr	r5, [sp, #8]
 801335a:	2d09      	cmp	r5, #9
 801335c:	d82b      	bhi.n	80133b6 <_dtoa_r+0x216>
 801335e:	2d05      	cmp	r5, #5
 8013360:	f341 8044 	ble.w	80143ec <_dtoa_r+0x124c>
 8013364:	1f28      	subs	r0, r5, #4
 8013366:	9002      	str	r0, [sp, #8]
 8013368:	2500      	movs	r5, #0
 801336a:	9902      	ldr	r1, [sp, #8]
 801336c:	1e8a      	subs	r2, r1, #2
 801336e:	2a03      	cmp	r2, #3
 8013370:	d823      	bhi.n	80133ba <_dtoa_r+0x21a>
 8013372:	e8df f012 	tbh	[pc, r2, lsl #1]
 8013376:	0544      	.short	0x0544
 8013378:	034a0530 	.word	0x034a0530
 801337c:	0541      	.short	0x0541
 801337e:	4949      	ldr	r1, [pc, #292]	; (80134a4 <_dtoa_r+0x304>)
 8013380:	4a4a      	ldr	r2, [pc, #296]	; (80134ac <_dtoa_r+0x30c>)
 8013382:	f3c8 0813 	ubfx	r8, r8, #0, #20
 8013386:	f1b8 0f00 	cmp.w	r8, #0
 801338a:	bf18      	it	ne
 801338c:	460a      	movne	r2, r1
 801338e:	9204      	str	r2, [sp, #16]
 8013390:	e74f      	b.n	8013232 <_dtoa_r+0x92>
 8013392:	f02b 437f 	bic.w	r3, fp, #4278190080	; 0xff000000
 8013396:	f423 0270 	bic.w	r2, r3, #15728640	; 0xf00000
 801339a:	f042 547f 	orr.w	r4, r2, #1069547520	; 0x3fc00000
 801339e:	2500      	movs	r5, #0
 80133a0:	4650      	mov	r0, sl
 80133a2:	f444 1140 	orr.w	r1, r4, #3145728	; 0x300000
 80133a6:	f2a6 36ff 	subw	r6, r6, #1023	; 0x3ff
 80133aa:	9f1a      	ldr	r7, [sp, #104]	; 0x68
 80133ac:	950b      	str	r5, [sp, #44]	; 0x2c
 80133ae:	e77c      	b.n	80132aa <_dtoa_r+0x10a>
 80133b0:	4d3f      	ldr	r5, [pc, #252]	; (80134b0 <_dtoa_r+0x310>)
 80133b2:	9504      	str	r5, [sp, #16]
 80133b4:	e72f      	b.n	8013216 <_dtoa_r+0x76>
 80133b6:	2400      	movs	r4, #0
 80133b8:	9402      	str	r4, [sp, #8]
 80133ba:	2400      	movs	r4, #0
 80133bc:	f8c9 4044 	str.w	r4, [r9, #68]	; 0x44
 80133c0:	4648      	mov	r0, r9
 80133c2:	4621      	mov	r1, r4
 80133c4:	f001 f9d8 	bl	8014778 <_Balloc>
 80133c8:	2501      	movs	r5, #1
 80133ca:	f04f 32ff 	mov.w	r2, #4294967295
 80133ce:	9004      	str	r0, [sp, #16]
 80133d0:	9209      	str	r2, [sp, #36]	; 0x24
 80133d2:	f8c9 0040 	str.w	r0, [r9, #64]	; 0x40
 80133d6:	9211      	str	r2, [sp, #68]	; 0x44
 80133d8:	9405      	str	r4, [sp, #20]
 80133da:	950d      	str	r5, [sp, #52]	; 0x34
 80133dc:	9b1b      	ldr	r3, [sp, #108]	; 0x6c
 80133de:	2b00      	cmp	r3, #0
 80133e0:	f2c0 8140 	blt.w	8013664 <_dtoa_r+0x4c4>
 80133e4:	9906      	ldr	r1, [sp, #24]
 80133e6:	290e      	cmp	r1, #14
 80133e8:	f300 813c 	bgt.w	8013664 <_dtoa_r+0x4c4>
 80133ec:	4d2e      	ldr	r5, [pc, #184]	; (80134a8 <_dtoa_r+0x308>)
 80133ee:	eb05 00c1 	add.w	r0, r5, r1, lsl #3
 80133f2:	ed90 7b00 	vldr	d7, [r0]
 80133f6:	9905      	ldr	r1, [sp, #20]
 80133f8:	2900      	cmp	r1, #0
 80133fa:	ed8d 7b02 	vstr	d7, [sp, #8]
 80133fe:	f2c0 8501 	blt.w	8013e04 <_dtoa_r+0xc64>
 8013402:	e9dd 2302 	ldrd	r2, r3, [sp, #8]
 8013406:	4650      	mov	r0, sl
 8013408:	4659      	mov	r1, fp
 801340a:	f7f9 f8db 	bl	800c5c4 <__aeabi_ddiv>
 801340e:	f7f9 fa49 	bl	800c8a4 <__aeabi_d2iz>
 8013412:	4606      	mov	r6, r0
 8013414:	f7f8 ff46 	bl	800c2a4 <__aeabi_i2d>
 8013418:	e9dd 2302 	ldrd	r2, r3, [sp, #8]
 801341c:	f7f8 ffa8 	bl	800c370 <__aeabi_dmul>
 8013420:	4602      	mov	r2, r0
 8013422:	460b      	mov	r3, r1
 8013424:	4650      	mov	r0, sl
 8013426:	4659      	mov	r1, fp
 8013428:	f7f8 fdee 	bl	800c008 <__aeabi_dsub>
 801342c:	9a09      	ldr	r2, [sp, #36]	; 0x24
 801342e:	f8dd 8010 	ldr.w	r8, [sp, #16]
 8013432:	f106 0330 	add.w	r3, r6, #48	; 0x30
 8013436:	2a01      	cmp	r2, #1
 8013438:	4604      	mov	r4, r0
 801343a:	460d      	mov	r5, r1
 801343c:	f808 3b01 	strb.w	r3, [r8], #1
 8013440:	f000 8092 	beq.w	8013568 <_dtoa_r+0x3c8>
 8013444:	2300      	movs	r3, #0
 8013446:	2200      	movs	r2, #0
 8013448:	f2c4 0324 	movt	r3, #16420	; 0x4024
 801344c:	f7f8 ff90 	bl	800c370 <__aeabi_dmul>
 8013450:	2200      	movs	r2, #0
 8013452:	2300      	movs	r3, #0
 8013454:	4604      	mov	r4, r0
 8013456:	460d      	mov	r5, r1
 8013458:	f7f9 f9f2 	bl	800c840 <__aeabi_dcmpeq>
 801345c:	2800      	cmp	r0, #0
 801345e:	f040 80c1 	bne.w	80135e4 <_dtoa_r+0x444>
 8013462:	9f04      	ldr	r7, [sp, #16]
 8013464:	9e04      	ldr	r6, [sp, #16]
 8013466:	9809      	ldr	r0, [sp, #36]	; 0x24
 8013468:	3702      	adds	r7, #2
 801346a:	eb06 0b00 	add.w	fp, r6, r0
 801346e:	ebc7 010b 	rsb	r1, r7, fp
 8013472:	07c9      	lsls	r1, r1, #31
 8013474:	f100 80c8 	bmi.w	8013608 <_dtoa_r+0x468>
 8013478:	f8cd b014 	str.w	fp, [sp, #20]
 801347c:	e9dd ab02 	ldrd	sl, fp, [sp, #8]
 8013480:	e04c      	b.n	801351c <_dtoa_r+0x37c>
 8013482:	bf00      	nop
 8013484:	f3af 8000 	nop.w
 8013488:	636f4361 	.word	0x636f4361
 801348c:	3fd287a7 	.word	0x3fd287a7
 8013490:	8b60c8b3 	.word	0x8b60c8b3
 8013494:	3fc68a28 	.word	0x3fc68a28
 8013498:	509f79fb 	.word	0x509f79fb
 801349c:	3fd34413 	.word	0x3fd34413
 80134a0:	08015835 	.word	0x08015835
 80134a4:	08015864 	.word	0x08015864
 80134a8:	08015880 	.word	0x08015880
 80134ac:	08015858 	.word	0x08015858
 80134b0:	08015834 	.word	0x08015834
 80134b4:	f7f8 ff5c 	bl	800c370 <__aeabi_dmul>
 80134b8:	2200      	movs	r2, #0
 80134ba:	2300      	movs	r3, #0
 80134bc:	4604      	mov	r4, r0
 80134be:	460d      	mov	r5, r1
 80134c0:	f7f9 f9be 	bl	800c840 <__aeabi_dcmpeq>
 80134c4:	4652      	mov	r2, sl
 80134c6:	465b      	mov	r3, fp
 80134c8:	2800      	cmp	r0, #0
 80134ca:	f040 808b 	bne.w	80135e4 <_dtoa_r+0x444>
 80134ce:	4620      	mov	r0, r4
 80134d0:	4629      	mov	r1, r5
 80134d2:	f7f9 f877 	bl	800c5c4 <__aeabi_ddiv>
 80134d6:	f7f9 f9e5 	bl	800c8a4 <__aeabi_d2iz>
 80134da:	4606      	mov	r6, r0
 80134dc:	f7f8 fee2 	bl	800c2a4 <__aeabi_i2d>
 80134e0:	4652      	mov	r2, sl
 80134e2:	465b      	mov	r3, fp
 80134e4:	f7f8 ff44 	bl	800c370 <__aeabi_dmul>
 80134e8:	4602      	mov	r2, r0
 80134ea:	460b      	mov	r3, r1
 80134ec:	4620      	mov	r0, r4
 80134ee:	4629      	mov	r1, r5
 80134f0:	f7f8 fd8a 	bl	800c008 <__aeabi_dsub>
 80134f4:	3630      	adds	r6, #48	; 0x30
 80134f6:	2300      	movs	r3, #0
 80134f8:	2200      	movs	r2, #0
 80134fa:	f2c4 0324 	movt	r3, #16420	; 0x4024
 80134fe:	f807 6c01 	strb.w	r6, [r7, #-1]
 8013502:	f7f8 ff35 	bl	800c370 <__aeabi_dmul>
 8013506:	2200      	movs	r2, #0
 8013508:	2300      	movs	r3, #0
 801350a:	46b8      	mov	r8, r7
 801350c:	4604      	mov	r4, r0
 801350e:	460d      	mov	r5, r1
 8013510:	f107 0701 	add.w	r7, r7, #1
 8013514:	f7f9 f994 	bl	800c840 <__aeabi_dcmpeq>
 8013518:	2800      	cmp	r0, #0
 801351a:	d163      	bne.n	80135e4 <_dtoa_r+0x444>
 801351c:	4652      	mov	r2, sl
 801351e:	465b      	mov	r3, fp
 8013520:	4620      	mov	r0, r4
 8013522:	4629      	mov	r1, r5
 8013524:	f7f9 f84e 	bl	800c5c4 <__aeabi_ddiv>
 8013528:	f7f9 f9bc 	bl	800c8a4 <__aeabi_d2iz>
 801352c:	4606      	mov	r6, r0
 801352e:	f7f8 feb9 	bl	800c2a4 <__aeabi_i2d>
 8013532:	4652      	mov	r2, sl
 8013534:	465b      	mov	r3, fp
 8013536:	f7f8 ff1b 	bl	800c370 <__aeabi_dmul>
 801353a:	4602      	mov	r2, r0
 801353c:	460b      	mov	r3, r1
 801353e:	4620      	mov	r0, r4
 8013540:	4629      	mov	r1, r5
 8013542:	f7f8 fd61 	bl	800c008 <__aeabi_dsub>
 8013546:	f8dd c014 	ldr.w	ip, [sp, #20]
 801354a:	2300      	movs	r3, #0
 801354c:	f106 0830 	add.w	r8, r6, #48	; 0x30
 8013550:	2200      	movs	r2, #0
 8013552:	4567      	cmp	r7, ip
 8013554:	f807 8c01 	strb.w	r8, [r7, #-1]
 8013558:	4604      	mov	r4, r0
 801355a:	46b8      	mov	r8, r7
 801355c:	460d      	mov	r5, r1
 801355e:	f2c4 0324 	movt	r3, #16420	; 0x4024
 8013562:	f107 0701 	add.w	r7, r7, #1
 8013566:	d1a5      	bne.n	80134b4 <_dtoa_r+0x314>
 8013568:	4622      	mov	r2, r4
 801356a:	462b      	mov	r3, r5
 801356c:	4620      	mov	r0, r4
 801356e:	4629      	mov	r1, r5
 8013570:	f7f8 fd4c 	bl	800c00c <__adddf3>
 8013574:	4604      	mov	r4, r0
 8013576:	460d      	mov	r5, r1
 8013578:	4622      	mov	r2, r4
 801357a:	e9dd 0102 	ldrd	r0, r1, [sp, #8]
 801357e:	462b      	mov	r3, r5
 8013580:	f7f9 f968 	bl	800c854 <__aeabi_dcmplt>
 8013584:	b940      	cbnz	r0, 8013598 <_dtoa_r+0x3f8>
 8013586:	e9dd 0102 	ldrd	r0, r1, [sp, #8]
 801358a:	4622      	mov	r2, r4
 801358c:	462b      	mov	r3, r5
 801358e:	f7f9 f957 	bl	800c840 <__aeabi_dcmpeq>
 8013592:	b338      	cbz	r0, 80135e4 <_dtoa_r+0x444>
 8013594:	07f5      	lsls	r5, r6, #31
 8013596:	d525      	bpl.n	80135e4 <_dtoa_r+0x444>
 8013598:	f818 bc01 	ldrb.w	fp, [r8, #-1]
 801359c:	9a04      	ldr	r2, [sp, #16]
 801359e:	43d3      	mvns	r3, r2
 80135a0:	eb08 0003 	add.w	r0, r8, r3
 80135a4:	07c0      	lsls	r0, r0, #31
 80135a6:	f100 8505 	bmi.w	8013fb4 <_dtoa_r+0xe14>
 80135aa:	4615      	mov	r5, r2
 80135ac:	f1bb 0f39 	cmp.w	fp, #57	; 0x39
 80135b0:	f108 31ff 	add.w	r1, r8, #4294967295
 80135b4:	d112      	bne.n	80135dc <_dtoa_r+0x43c>
 80135b6:	428d      	cmp	r5, r1
 80135b8:	f000 853f 	beq.w	801403a <_dtoa_r+0xe9a>
 80135bc:	f811 bc01 	ldrb.w	fp, [r1, #-1]
 80135c0:	f1bb 0f39 	cmp.w	fp, #57	; 0x39
 80135c4:	4688      	mov	r8, r1
 80135c6:	f101 31ff 	add.w	r1, r1, #4294967295
 80135ca:	d107      	bne.n	80135dc <_dtoa_r+0x43c>
 80135cc:	f811 bc01 	ldrb.w	fp, [r1, #-1]
 80135d0:	4688      	mov	r8, r1
 80135d2:	f1bb 0f39 	cmp.w	fp, #57	; 0x39
 80135d6:	f108 31ff 	add.w	r1, r8, #4294967295
 80135da:	d0ec      	beq.n	80135b6 <_dtoa_r+0x416>
 80135dc:	f10b 0201 	add.w	r2, fp, #1
 80135e0:	b2d3      	uxtb	r3, r2
 80135e2:	700b      	strb	r3, [r1, #0]
 80135e4:	4648      	mov	r0, r9
 80135e6:	990a      	ldr	r1, [sp, #40]	; 0x28
 80135e8:	f001 f8ec 	bl	80147c4 <_Bfree>
 80135ec:	9806      	ldr	r0, [sp, #24]
 80135ee:	9d08      	ldr	r5, [sp, #32]
 80135f0:	1c41      	adds	r1, r0, #1
 80135f2:	2200      	movs	r2, #0
 80135f4:	f888 2000 	strb.w	r2, [r8]
 80135f8:	6029      	str	r1, [r5, #0]
 80135fa:	9d27      	ldr	r5, [sp, #156]	; 0x9c
 80135fc:	2d00      	cmp	r5, #0
 80135fe:	f43f ae0a 	beq.w	8013216 <_dtoa_r+0x76>
 8013602:	f8c5 8000 	str.w	r8, [r5]
 8013606:	e606      	b.n	8013216 <_dtoa_r+0x76>
 8013608:	e9dd 2302 	ldrd	r2, r3, [sp, #8]
 801360c:	4620      	mov	r0, r4
 801360e:	4629      	mov	r1, r5
 8013610:	f7f8 ffd8 	bl	800c5c4 <__aeabi_ddiv>
 8013614:	f7f9 f946 	bl	800c8a4 <__aeabi_d2iz>
 8013618:	4606      	mov	r6, r0
 801361a:	f7f8 fe43 	bl	800c2a4 <__aeabi_i2d>
 801361e:	e9dd 2302 	ldrd	r2, r3, [sp, #8]
 8013622:	f7f8 fea5 	bl	800c370 <__aeabi_dmul>
 8013626:	4602      	mov	r2, r0
 8013628:	460b      	mov	r3, r1
 801362a:	4620      	mov	r0, r4
 801362c:	4629      	mov	r1, r5
 801362e:	f7f8 fceb 	bl	800c008 <__aeabi_dsub>
 8013632:	3630      	adds	r6, #48	; 0x30
 8013634:	2300      	movs	r3, #0
 8013636:	2200      	movs	r2, #0
 8013638:	f2c4 0324 	movt	r3, #16420	; 0x4024
 801363c:	f807 6c01 	strb.w	r6, [r7, #-1]
 8013640:	f7f8 fe96 	bl	800c370 <__aeabi_dmul>
 8013644:	46b8      	mov	r8, r7
 8013646:	9f04      	ldr	r7, [sp, #16]
 8013648:	2200      	movs	r2, #0
 801364a:	2300      	movs	r3, #0
 801364c:	4604      	mov	r4, r0
 801364e:	460d      	mov	r5, r1
 8013650:	3703      	adds	r7, #3
 8013652:	f7f9 f8f5 	bl	800c840 <__aeabi_dcmpeq>
 8013656:	2800      	cmp	r0, #0
 8013658:	f43f af0e 	beq.w	8013478 <_dtoa_r+0x2d8>
 801365c:	e7c2      	b.n	80135e4 <_dtoa_r+0x444>
 801365e:	9804      	ldr	r0, [sp, #16]
 8013660:	1cc1      	adds	r1, r0, #3
 8013662:	e5f0      	b.n	8013246 <_dtoa_r+0xa6>
 8013664:	9f0d      	ldr	r7, [sp, #52]	; 0x34
 8013666:	2f00      	cmp	r7, #0
 8013668:	f000 8133 	beq.w	80138d2 <_dtoa_r+0x732>
 801366c:	9c02      	ldr	r4, [sp, #8]
 801366e:	2c01      	cmp	r4, #1
 8013670:	f340 83f8 	ble.w	8013e64 <_dtoa_r+0xcc4>
 8013674:	9a09      	ldr	r2, [sp, #36]	; 0x24
 8013676:	9b0e      	ldr	r3, [sp, #56]	; 0x38
 8013678:	1e57      	subs	r7, r2, #1
 801367a:	42bb      	cmp	r3, r7
 801367c:	f2c0 84e8 	blt.w	8014050 <_dtoa_r+0xeb0>
 8013680:	1bdd      	subs	r5, r3, r7
 8013682:	9c09      	ldr	r4, [sp, #36]	; 0x24
 8013684:	2c00      	cmp	r4, #0
 8013686:	f2c0 8637 	blt.w	80142f8 <_dtoa_r+0x1158>
 801368a:	9c0c      	ldr	r4, [sp, #48]	; 0x30
 801368c:	9f09      	ldr	r7, [sp, #36]	; 0x24
 801368e:	f8dd e030 	ldr.w	lr, [sp, #48]	; 0x30
 8013692:	9a07      	ldr	r2, [sp, #28]
 8013694:	eb0e 0807 	add.w	r8, lr, r7
 8013698:	4648      	mov	r0, r9
 801369a:	19d7      	adds	r7, r2, r7
 801369c:	2101      	movs	r1, #1
 801369e:	f8cd 8030 	str.w	r8, [sp, #48]	; 0x30
 80136a2:	9707      	str	r7, [sp, #28]
 80136a4:	f001 f960 	bl	8014968 <__i2b>
 80136a8:	900b      	str	r0, [sp, #44]	; 0x2c
 80136aa:	b164      	cbz	r4, 80136c6 <_dtoa_r+0x526>
 80136ac:	9907      	ldr	r1, [sp, #28]
 80136ae:	2900      	cmp	r1, #0
 80136b0:	dd09      	ble.n	80136c6 <_dtoa_r+0x526>
 80136b2:	9b0c      	ldr	r3, [sp, #48]	; 0x30
 80136b4:	4608      	mov	r0, r1
 80136b6:	42a0      	cmp	r0, r4
 80136b8:	bfa8      	it	ge
 80136ba:	4620      	movge	r0, r4
 80136bc:	1a1a      	subs	r2, r3, r0
 80136be:	1a0f      	subs	r7, r1, r0
 80136c0:	920c      	str	r2, [sp, #48]	; 0x30
 80136c2:	1a24      	subs	r4, r4, r0
 80136c4:	9707      	str	r7, [sp, #28]
 80136c6:	990e      	ldr	r1, [sp, #56]	; 0x38
 80136c8:	2900      	cmp	r1, #0
 80136ca:	dd1a      	ble.n	8013702 <_dtoa_r+0x562>
 80136cc:	980d      	ldr	r0, [sp, #52]	; 0x34
 80136ce:	2800      	cmp	r0, #0
 80136d0:	f000 84ab 	beq.w	801402a <_dtoa_r+0xe8a>
 80136d4:	2d00      	cmp	r5, #0
 80136d6:	dd10      	ble.n	80136fa <_dtoa_r+0x55a>
 80136d8:	990b      	ldr	r1, [sp, #44]	; 0x2c
 80136da:	462a      	mov	r2, r5
 80136dc:	4648      	mov	r0, r9
 80136de:	f001 fab5 	bl	8014c4c <__pow5mult>
 80136e2:	900b      	str	r0, [sp, #44]	; 0x2c
 80136e4:	990b      	ldr	r1, [sp, #44]	; 0x2c
 80136e6:	9a0a      	ldr	r2, [sp, #40]	; 0x28
 80136e8:	4648      	mov	r0, r9
 80136ea:	f001 f947 	bl	801497c <__multiply>
 80136ee:	990a      	ldr	r1, [sp, #40]	; 0x28
 80136f0:	4606      	mov	r6, r0
 80136f2:	4648      	mov	r0, r9
 80136f4:	f001 f866 	bl	80147c4 <_Bfree>
 80136f8:	960a      	str	r6, [sp, #40]	; 0x28
 80136fa:	9b0e      	ldr	r3, [sp, #56]	; 0x38
 80136fc:	1b5a      	subs	r2, r3, r5
 80136fe:	f040 83ab 	bne.w	8013e58 <_dtoa_r+0xcb8>
 8013702:	2101      	movs	r1, #1
 8013704:	4648      	mov	r0, r9
 8013706:	f001 f92f 	bl	8014968 <__i2b>
 801370a:	9d0f      	ldr	r5, [sp, #60]	; 0x3c
 801370c:	2d00      	cmp	r5, #0
 801370e:	4607      	mov	r7, r0
 8013710:	dd05      	ble.n	801371e <_dtoa_r+0x57e>
 8013712:	4639      	mov	r1, r7
 8013714:	4648      	mov	r0, r9
 8013716:	462a      	mov	r2, r5
 8013718:	f001 fa98 	bl	8014c4c <__pow5mult>
 801371c:	4607      	mov	r7, r0
 801371e:	9a02      	ldr	r2, [sp, #8]
 8013720:	2a01      	cmp	r2, #1
 8013722:	f340 8159 	ble.w	80139d8 <_dtoa_r+0x838>
 8013726:	2500      	movs	r5, #0
 8013728:	9b0f      	ldr	r3, [sp, #60]	; 0x3c
 801372a:	2b00      	cmp	r3, #0
 801372c:	f040 841a 	bne.w	8013f64 <_dtoa_r+0xdc4>
 8013730:	2101      	movs	r1, #1
 8013732:	9b07      	ldr	r3, [sp, #28]
 8013734:	18c9      	adds	r1, r1, r3
 8013736:	f011 001f 	ands.w	r0, r1, #31
 801373a:	f000 80cf 	beq.w	80138dc <_dtoa_r+0x73c>
 801373e:	f1c0 0220 	rsb	r2, r0, #32
 8013742:	2a04      	cmp	r2, #4
 8013744:	f340 8655 	ble.w	80143f2 <_dtoa_r+0x1252>
 8013748:	f8dd 8030 	ldr.w	r8, [sp, #48]	; 0x30
 801374c:	9a07      	ldr	r2, [sp, #28]
 801374e:	f1c0 031c 	rsb	r3, r0, #28
 8013752:	eb08 0c03 	add.w	ip, r8, r3
 8013756:	18d1      	adds	r1, r2, r3
 8013758:	f8cd c030 	str.w	ip, [sp, #48]	; 0x30
 801375c:	18e4      	adds	r4, r4, r3
 801375e:	9107      	str	r1, [sp, #28]
 8013760:	980c      	ldr	r0, [sp, #48]	; 0x30
 8013762:	2800      	cmp	r0, #0
 8013764:	dd05      	ble.n	8013772 <_dtoa_r+0x5d2>
 8013766:	4648      	mov	r0, r9
 8013768:	990a      	ldr	r1, [sp, #40]	; 0x28
 801376a:	9a0c      	ldr	r2, [sp, #48]	; 0x30
 801376c:	f001 fab8 	bl	8014ce0 <__lshift>
 8013770:	900a      	str	r0, [sp, #40]	; 0x28
 8013772:	9a07      	ldr	r2, [sp, #28]
 8013774:	2a00      	cmp	r2, #0
 8013776:	dd04      	ble.n	8013782 <_dtoa_r+0x5e2>
 8013778:	4639      	mov	r1, r7
 801377a:	4648      	mov	r0, r9
 801377c:	f001 fab0 	bl	8014ce0 <__lshift>
 8013780:	4607      	mov	r7, r0
 8013782:	9b10      	ldr	r3, [sp, #64]	; 0x40
 8013784:	2b00      	cmp	r3, #0
 8013786:	f040 83d2 	bne.w	8013f2e <_dtoa_r+0xd8e>
 801378a:	9b09      	ldr	r3, [sp, #36]	; 0x24
 801378c:	2b00      	cmp	r3, #0
 801378e:	f340 83f3 	ble.w	8013f78 <_dtoa_r+0xdd8>
 8013792:	990d      	ldr	r1, [sp, #52]	; 0x34
 8013794:	2900      	cmp	r1, #0
 8013796:	f040 80b7 	bne.w	8013908 <_dtoa_r+0x768>
 801379a:	9809      	ldr	r0, [sp, #36]	; 0x24
 801379c:	9d0d      	ldr	r5, [sp, #52]	; 0x34
 801379e:	07c2      	lsls	r2, r0, #31
 80137a0:	f140 83a2 	bpl.w	8013ee8 <_dtoa_r+0xd48>
 80137a4:	4682      	mov	sl, r0
 80137a6:	9e0a      	ldr	r6, [sp, #40]	; 0x28
 80137a8:	f8dd 8010 	ldr.w	r8, [sp, #16]
 80137ac:	e010      	b.n	80137d0 <_dtoa_r+0x630>
 80137ae:	f001 f813 	bl	80147d8 <__multadd>
 80137b2:	4639      	mov	r1, r7
 80137b4:	4606      	mov	r6, r0
 80137b6:	f7ff fb7d 	bl	8012eb4 <quorem>
 80137ba:	3030      	adds	r0, #48	; 0x30
 80137bc:	f808 0004 	strb.w	r0, [r8, r4]
 80137c0:	4631      	mov	r1, r6
 80137c2:	4648      	mov	r0, r9
 80137c4:	220a      	movs	r2, #10
 80137c6:	2300      	movs	r3, #0
 80137c8:	f001 f806 	bl	80147d8 <__multadd>
 80137cc:	1c65      	adds	r5, r4, #1
 80137ce:	4606      	mov	r6, r0
 80137d0:	4639      	mov	r1, r7
 80137d2:	4630      	mov	r0, r6
 80137d4:	f7ff fb6e 	bl	8012eb4 <quorem>
 80137d8:	1c6c      	adds	r4, r5, #1
 80137da:	f100 0b30 	add.w	fp, r0, #48	; 0x30
 80137de:	220a      	movs	r2, #10
 80137e0:	2300      	movs	r3, #0
 80137e2:	45a2      	cmp	sl, r4
 80137e4:	4631      	mov	r1, r6
 80137e6:	4648      	mov	r0, r9
 80137e8:	f808 b005 	strb.w	fp, [r8, r5]
 80137ec:	dcdf      	bgt.n	80137ae <_dtoa_r+0x60e>
 80137ee:	960a      	str	r6, [sp, #40]	; 0x28
 80137f0:	f8dd 8010 	ldr.w	r8, [sp, #16]
 80137f4:	9a09      	ldr	r2, [sp, #36]	; 0x24
 80137f6:	2500      	movs	r5, #0
 80137f8:	2a01      	cmp	r2, #1
 80137fa:	bfac      	ite	ge
 80137fc:	4490      	addge	r8, r2
 80137fe:	f108 0801 	addlt.w	r8, r8, #1
 8013802:	2201      	movs	r2, #1
 8013804:	990a      	ldr	r1, [sp, #40]	; 0x28
 8013806:	4648      	mov	r0, r9
 8013808:	f001 fa6a 	bl	8014ce0 <__lshift>
 801380c:	4639      	mov	r1, r7
 801380e:	900a      	str	r0, [sp, #40]	; 0x28
 8013810:	f001 fb2a 	bl	8014e68 <__mcmp>
 8013814:	2800      	cmp	r0, #0
 8013816:	f340 844f 	ble.w	80140b8 <_dtoa_r+0xf18>
 801381a:	f818 2c01 	ldrb.w	r2, [r8, #-1]
 801381e:	9904      	ldr	r1, [sp, #16]
 8013820:	43c8      	mvns	r0, r1
 8013822:	eb08 0300 	add.w	r3, r8, r0
 8013826:	07db      	lsls	r3, r3, #31
 8013828:	d507      	bpl.n	801383a <_dtoa_r+0x69a>
 801382a:	2a39      	cmp	r2, #57	; 0x39
 801382c:	f108 30ff 	add.w	r0, r8, #4294967295
 8013830:	d118      	bne.n	8013864 <_dtoa_r+0x6c4>
 8013832:	f810 2c01 	ldrb.w	r2, [r0, #-1]
 8013836:	9904      	ldr	r1, [sp, #16]
 8013838:	4680      	mov	r8, r0
 801383a:	2a39      	cmp	r2, #57	; 0x39
 801383c:	f108 30ff 	add.w	r0, r8, #4294967295
 8013840:	d110      	bne.n	8013864 <_dtoa_r+0x6c4>
 8013842:	4281      	cmp	r1, r0
 8013844:	f000 836c 	beq.w	8013f20 <_dtoa_r+0xd80>
 8013848:	f810 2c01 	ldrb.w	r2, [r0, #-1]
 801384c:	2a39      	cmp	r2, #57	; 0x39
 801384e:	4680      	mov	r8, r0
 8013850:	f100 30ff 	add.w	r0, r0, #4294967295
 8013854:	d106      	bne.n	8013864 <_dtoa_r+0x6c4>
 8013856:	f810 2c01 	ldrb.w	r2, [r0, #-1]
 801385a:	4680      	mov	r8, r0
 801385c:	2a39      	cmp	r2, #57	; 0x39
 801385e:	f108 30ff 	add.w	r0, r8, #4294967295
 8013862:	d0ee      	beq.n	8013842 <_dtoa_r+0x6a2>
 8013864:	3201      	adds	r2, #1
 8013866:	7002      	strb	r2, [r0, #0]
 8013868:	4648      	mov	r0, r9
 801386a:	4639      	mov	r1, r7
 801386c:	f000 ffaa 	bl	80147c4 <_Bfree>
 8013870:	9b0b      	ldr	r3, [sp, #44]	; 0x2c
 8013872:	2b00      	cmp	r3, #0
 8013874:	f43f aeb6 	beq.w	80135e4 <_dtoa_r+0x444>
 8013878:	2d00      	cmp	r5, #0
 801387a:	f000 82e7 	beq.w	8013e4c <_dtoa_r+0xcac>
 801387e:	429d      	cmp	r5, r3
 8013880:	f000 82e4 	beq.w	8013e4c <_dtoa_r+0xcac>
 8013884:	4648      	mov	r0, r9
 8013886:	4629      	mov	r1, r5
 8013888:	f000 ff9c 	bl	80147c4 <_Bfree>
 801388c:	e2de      	b.n	8013e4c <_dtoa_r+0xcac>
 801388e:	2301      	movs	r3, #1
 8013890:	9310      	str	r3, [sp, #64]	; 0x40
 8013892:	e54d      	b.n	8013330 <_dtoa_r+0x190>
 8013894:	9806      	ldr	r0, [sp, #24]
 8013896:	f7f8 fd05 	bl	800c2a4 <__aeabi_i2d>
 801389a:	4622      	mov	r2, r4
 801389c:	462b      	mov	r3, r5
 801389e:	f7f8 ffcf 	bl	800c840 <__aeabi_dcmpeq>
 80138a2:	2800      	cmp	r0, #0
 80138a4:	f47f ad2f 	bne.w	8013306 <_dtoa_r+0x166>
 80138a8:	9806      	ldr	r0, [sp, #24]
 80138aa:	1e41      	subs	r1, r0, #1
 80138ac:	9106      	str	r1, [sp, #24]
 80138ae:	e52a      	b.n	8013306 <_dtoa_r+0x166>
 80138b0:	980c      	ldr	r0, [sp, #48]	; 0x30
 80138b2:	f8dd e018 	ldr.w	lr, [sp, #24]
 80138b6:	2300      	movs	r3, #0
 80138b8:	ebce 0100 	rsb	r1, lr, r0
 80138bc:	f1ce 0200 	rsb	r2, lr, #0
 80138c0:	910c      	str	r1, [sp, #48]	; 0x30
 80138c2:	920e      	str	r2, [sp, #56]	; 0x38
 80138c4:	930f      	str	r3, [sp, #60]	; 0x3c
 80138c6:	e547      	b.n	8013358 <_dtoa_r+0x1b8>
 80138c8:	4276      	negs	r6, r6
 80138ca:	2300      	movs	r3, #0
 80138cc:	960c      	str	r6, [sp, #48]	; 0x30
 80138ce:	9307      	str	r3, [sp, #28]
 80138d0:	e535      	b.n	801333e <_dtoa_r+0x19e>
 80138d2:	980d      	ldr	r0, [sp, #52]	; 0x34
 80138d4:	9d0e      	ldr	r5, [sp, #56]	; 0x38
 80138d6:	9c0c      	ldr	r4, [sp, #48]	; 0x30
 80138d8:	900b      	str	r0, [sp, #44]	; 0x2c
 80138da:	e6e6      	b.n	80136aa <_dtoa_r+0x50a>
 80138dc:	231c      	movs	r3, #28
 80138de:	990c      	ldr	r1, [sp, #48]	; 0x30
 80138e0:	f8dd c01c 	ldr.w	ip, [sp, #28]
 80138e4:	18c8      	adds	r0, r1, r3
 80138e6:	eb0c 0e03 	add.w	lr, ip, r3
 80138ea:	900c      	str	r0, [sp, #48]	; 0x30
 80138ec:	18e4      	adds	r4, r4, r3
 80138ee:	f8cd e01c 	str.w	lr, [sp, #28]
 80138f2:	e735      	b.n	8013760 <_dtoa_r+0x5c0>
 80138f4:	f64f 35ee 	movw	r5, #64494	; 0xfbee
 80138f8:	f6cf 75ff 	movt	r5, #65535	; 0xffff
 80138fc:	1bab      	subs	r3, r5, r6
 80138fe:	fa0a f003 	lsl.w	r0, sl, r3
 8013902:	e4cb      	b.n	801329c <_dtoa_r+0xfc>
 8013904:	9010      	str	r0, [sp, #64]	; 0x40
 8013906:	e513      	b.n	8013330 <_dtoa_r+0x190>
 8013908:	2c00      	cmp	r4, #0
 801390a:	dd05      	ble.n	8013918 <_dtoa_r+0x778>
 801390c:	4648      	mov	r0, r9
 801390e:	990b      	ldr	r1, [sp, #44]	; 0x2c
 8013910:	4622      	mov	r2, r4
 8013912:	f001 f9e5 	bl	8014ce0 <__lshift>
 8013916:	900b      	str	r0, [sp, #44]	; 0x2c
 8013918:	2d00      	cmp	r5, #0
 801391a:	f040 8405 	bne.w	8014128 <_dtoa_r+0xf88>
 801391e:	9e0b      	ldr	r6, [sp, #44]	; 0x2c
 8013920:	9d09      	ldr	r5, [sp, #36]	; 0x24
 8013922:	9a04      	ldr	r2, [sp, #16]
 8013924:	9b04      	ldr	r3, [sp, #16]
 8013926:	1951      	adds	r1, r2, r5
 8013928:	f00a 0001 	and.w	r0, sl, #1
 801392c:	9d0b      	ldr	r5, [sp, #44]	; 0x2c
 801392e:	f8dd a028 	ldr.w	sl, [sp, #40]	; 0x28
 8013932:	9107      	str	r1, [sp, #28]
 8013934:	1c5c      	adds	r4, r3, #1
 8013936:	9009      	str	r0, [sp, #36]	; 0x24
 8013938:	4639      	mov	r1, r7
 801393a:	4650      	mov	r0, sl
 801393c:	f7ff faba 	bl	8012eb4 <quorem>
 8013940:	4629      	mov	r1, r5
 8013942:	4680      	mov	r8, r0
 8013944:	4650      	mov	r0, sl
 8013946:	f001 fa8f 	bl	8014e68 <__mcmp>
 801394a:	4639      	mov	r1, r7
 801394c:	4632      	mov	r2, r6
 801394e:	4683      	mov	fp, r0
 8013950:	4648      	mov	r0, r9
 8013952:	f001 fab7 	bl	8014ec4 <__mdiff>
 8013956:	68c1      	ldr	r1, [r0, #12]
 8013958:	1e63      	subs	r3, r4, #1
 801395a:	4602      	mov	r2, r0
 801395c:	9305      	str	r3, [sp, #20]
 801395e:	f108 0c30 	add.w	ip, r8, #48	; 0x30
 8013962:	2900      	cmp	r1, #0
 8013964:	f000 8287 	beq.w	8013e76 <_dtoa_r+0xcd6>
 8013968:	4648      	mov	r0, r9
 801396a:	4611      	mov	r1, r2
 801396c:	f8cd c000 	str.w	ip, [sp]
 8013970:	f000 ff28 	bl	80147c4 <_Bfree>
 8013974:	f8dd c000 	ldr.w	ip, [sp]
 8013978:	2001      	movs	r0, #1
 801397a:	f1bb 0f00 	cmp.w	fp, #0
 801397e:	f2c0 837b 	blt.w	8014078 <_dtoa_r+0xed8>
 8013982:	d105      	bne.n	8013990 <_dtoa_r+0x7f0>
 8013984:	9a02      	ldr	r2, [sp, #8]
 8013986:	b91a      	cbnz	r2, 8013990 <_dtoa_r+0x7f0>
 8013988:	9909      	ldr	r1, [sp, #36]	; 0x24
 801398a:	2900      	cmp	r1, #0
 801398c:	f000 8374 	beq.w	8014078 <_dtoa_r+0xed8>
 8013990:	2800      	cmp	r0, #0
 8013992:	f300 83e0 	bgt.w	8014156 <_dtoa_r+0xfb6>
 8013996:	9807      	ldr	r0, [sp, #28]
 8013998:	f804 cc01 	strb.w	ip, [r4, #-1]
 801399c:	4284      	cmp	r4, r0
 801399e:	46a0      	mov	r8, r4
 80139a0:	f000 83e8 	beq.w	8014174 <_dtoa_r+0xfd4>
 80139a4:	4651      	mov	r1, sl
 80139a6:	220a      	movs	r2, #10
 80139a8:	2300      	movs	r3, #0
 80139aa:	4648      	mov	r0, r9
 80139ac:	f000 ff14 	bl	80147d8 <__multadd>
 80139b0:	42b5      	cmp	r5, r6
 80139b2:	4682      	mov	sl, r0
 80139b4:	f000 828e 	beq.w	8013ed4 <_dtoa_r+0xd34>
 80139b8:	4629      	mov	r1, r5
 80139ba:	220a      	movs	r2, #10
 80139bc:	2300      	movs	r3, #0
 80139be:	4648      	mov	r0, r9
 80139c0:	f000 ff0a 	bl	80147d8 <__multadd>
 80139c4:	4631      	mov	r1, r6
 80139c6:	4605      	mov	r5, r0
 80139c8:	220a      	movs	r2, #10
 80139ca:	4648      	mov	r0, r9
 80139cc:	2300      	movs	r3, #0
 80139ce:	f000 ff03 	bl	80147d8 <__multadd>
 80139d2:	3401      	adds	r4, #1
 80139d4:	4606      	mov	r6, r0
 80139d6:	e7af      	b.n	8013938 <_dtoa_r+0x798>
 80139d8:	f1ba 0f00 	cmp.w	sl, #0
 80139dc:	f47f aea3 	bne.w	8013726 <_dtoa_r+0x586>
 80139e0:	f3cb 0013 	ubfx	r0, fp, #0, #20
 80139e4:	4659      	mov	r1, fp
 80139e6:	2800      	cmp	r0, #0
 80139e8:	f040 8492 	bne.w	8014310 <_dtoa_r+0x1170>
 80139ec:	2500      	movs	r5, #0
 80139ee:	f6c7 75f0 	movt	r5, #32752	; 0x7ff0
 80139f2:	400d      	ands	r5, r1
 80139f4:	2d00      	cmp	r5, #0
 80139f6:	f43f ae97 	beq.w	8013728 <_dtoa_r+0x588>
 80139fa:	9b0c      	ldr	r3, [sp, #48]	; 0x30
 80139fc:	9907      	ldr	r1, [sp, #28]
 80139fe:	1c5a      	adds	r2, r3, #1
 8013a00:	1c48      	adds	r0, r1, #1
 8013a02:	920c      	str	r2, [sp, #48]	; 0x30
 8013a04:	9007      	str	r0, [sp, #28]
 8013a06:	2501      	movs	r5, #1
 8013a08:	e68e      	b.n	8013728 <_dtoa_r+0x588>
 8013a0a:	2301      	movs	r3, #1
 8013a0c:	930d      	str	r3, [sp, #52]	; 0x34
 8013a0e:	9905      	ldr	r1, [sp, #20]
 8013a10:	2900      	cmp	r1, #0
 8013a12:	f340 832c 	ble.w	801406e <_dtoa_r+0xece>
 8013a16:	460c      	mov	r4, r1
 8013a18:	9111      	str	r1, [sp, #68]	; 0x44
 8013a1a:	9109      	str	r1, [sp, #36]	; 0x24
 8013a1c:	2100      	movs	r1, #0
 8013a1e:	2c17      	cmp	r4, #23
 8013a20:	f8c9 1044 	str.w	r1, [r9, #68]	; 0x44
 8013a24:	d90a      	bls.n	8013a3c <_dtoa_r+0x89c>
 8013a26:	2201      	movs	r2, #1
 8013a28:	2304      	movs	r3, #4
 8013a2a:	005b      	lsls	r3, r3, #1
 8013a2c:	f103 0014 	add.w	r0, r3, #20
 8013a30:	4611      	mov	r1, r2
 8013a32:	3201      	adds	r2, #1
 8013a34:	42a0      	cmp	r0, r4
 8013a36:	d9f8      	bls.n	8013a2a <_dtoa_r+0x88a>
 8013a38:	f8c9 1044 	str.w	r1, [r9, #68]	; 0x44
 8013a3c:	4648      	mov	r0, r9
 8013a3e:	f000 fe9b 	bl	8014778 <_Balloc>
 8013a42:	2c0e      	cmp	r4, #14
 8013a44:	9004      	str	r0, [sp, #16]
 8013a46:	f8c9 0040 	str.w	r0, [r9, #64]	; 0x40
 8013a4a:	f63f acc7 	bhi.w	80133dc <_dtoa_r+0x23c>
 8013a4e:	2d00      	cmp	r5, #0
 8013a50:	f43f acc4 	beq.w	80133dc <_dtoa_r+0x23c>
 8013a54:	9f06      	ldr	r7, [sp, #24]
 8013a56:	2f00      	cmp	r7, #0
 8013a58:	e9cd ab12 	strd	sl, fp, [sp, #72]	; 0x48
 8013a5c:	f340 8340 	ble.w	80140e0 <_dtoa_r+0xf40>
 8013a60:	4c99      	ldr	r4, [pc, #612]	; (8013cc8 <_dtoa_r+0xb28>)
 8013a62:	f007 060f 	and.w	r6, r7, #15
 8013a66:	eb04 00c6 	add.w	r0, r4, r6, lsl #3
 8013a6a:	113e      	asrs	r6, r7, #4
 8013a6c:	06f1      	lsls	r1, r6, #27
 8013a6e:	e9d0 4500 	ldrd	r4, r5, [r0]
 8013a72:	f140 82f8 	bpl.w	8014066 <_dtoa_r+0xec6>
 8013a76:	4f95      	ldr	r7, [pc, #596]	; (8013ccc <_dtoa_r+0xb2c>)
 8013a78:	4650      	mov	r0, sl
 8013a7a:	4659      	mov	r1, fp
 8013a7c:	e9d7 2308 	ldrd	r2, r3, [r7, #32]
 8013a80:	f7f8 fda0 	bl	800c5c4 <__aeabi_ddiv>
 8013a84:	f006 060f 	and.w	r6, r6, #15
 8013a88:	4682      	mov	sl, r0
 8013a8a:	468b      	mov	fp, r1
 8013a8c:	2703      	movs	r7, #3
 8013a8e:	b186      	cbz	r6, 8013ab2 <_dtoa_r+0x912>
 8013a90:	f8df 8238 	ldr.w	r8, [pc, #568]	; 8013ccc <_dtoa_r+0xb2c>
 8013a94:	4620      	mov	r0, r4
 8013a96:	4629      	mov	r1, r5
 8013a98:	07f2      	lsls	r2, r6, #31
 8013a9a:	d504      	bpl.n	8013aa6 <_dtoa_r+0x906>
 8013a9c:	e9d8 2300 	ldrd	r2, r3, [r8]
 8013aa0:	f7f8 fc66 	bl	800c370 <__aeabi_dmul>
 8013aa4:	3701      	adds	r7, #1
 8013aa6:	1076      	asrs	r6, r6, #1
 8013aa8:	f108 0808 	add.w	r8, r8, #8
 8013aac:	d1f4      	bne.n	8013a98 <_dtoa_r+0x8f8>
 8013aae:	4604      	mov	r4, r0
 8013ab0:	460d      	mov	r5, r1
 8013ab2:	4650      	mov	r0, sl
 8013ab4:	4659      	mov	r1, fp
 8013ab6:	4622      	mov	r2, r4
 8013ab8:	462b      	mov	r3, r5
 8013aba:	f7f8 fd83 	bl	800c5c4 <__aeabi_ddiv>
 8013abe:	4682      	mov	sl, r0
 8013ac0:	468b      	mov	fp, r1
 8013ac2:	9910      	ldr	r1, [sp, #64]	; 0x40
 8013ac4:	b151      	cbz	r1, 8013adc <_dtoa_r+0x93c>
 8013ac6:	2300      	movs	r3, #0
 8013ac8:	4650      	mov	r0, sl
 8013aca:	4659      	mov	r1, fp
 8013acc:	2200      	movs	r2, #0
 8013ace:	f6c3 73f0 	movt	r3, #16368	; 0x3ff0
 8013ad2:	f7f8 febf 	bl	800c854 <__aeabi_dcmplt>
 8013ad6:	2800      	cmp	r0, #0
 8013ad8:	f040 8422 	bne.w	8014320 <_dtoa_r+0x1180>
 8013adc:	4638      	mov	r0, r7
 8013ade:	f7f8 fbe1 	bl	800c2a4 <__aeabi_i2d>
 8013ae2:	4652      	mov	r2, sl
 8013ae4:	465b      	mov	r3, fp
 8013ae6:	f7f8 fc43 	bl	800c370 <__aeabi_dmul>
 8013aea:	2300      	movs	r3, #0
 8013aec:	2200      	movs	r2, #0
 8013aee:	f2c4 031c 	movt	r3, #16412	; 0x401c
 8013af2:	f7f8 fa8b 	bl	800c00c <__adddf3>
 8013af6:	9a09      	ldr	r2, [sp, #36]	; 0x24
 8013af8:	4604      	mov	r4, r0
 8013afa:	f1a1 7550 	sub.w	r5, r1, #54525952	; 0x3400000
 8013afe:	2a00      	cmp	r2, #0
 8013b00:	f000 8276 	beq.w	8013ff0 <_dtoa_r+0xe50>
 8013b04:	9e06      	ldr	r6, [sp, #24]
 8013b06:	9619      	str	r6, [sp, #100]	; 0x64
 8013b08:	9e09      	ldr	r6, [sp, #36]	; 0x24
 8013b0a:	980d      	ldr	r0, [sp, #52]	; 0x34
 8013b0c:	2800      	cmp	r0, #0
 8013b0e:	f000 8337 	beq.w	8014180 <_dtoa_r+0xfe0>
 8013b12:	4a6d      	ldr	r2, [pc, #436]	; (8013cc8 <_dtoa_r+0xb28>)
 8013b14:	2100      	movs	r1, #0
 8013b16:	eb02 03c6 	add.w	r3, r2, r6, lsl #3
 8013b1a:	e953 2302 	ldrd	r2, r3, [r3, #-8]
 8013b1e:	2000      	movs	r0, #0
 8013b20:	f6c3 71e0 	movt	r1, #16352	; 0x3fe0
 8013b24:	f7f8 fd4e 	bl	800c5c4 <__aeabi_ddiv>
 8013b28:	4622      	mov	r2, r4
 8013b2a:	462b      	mov	r3, r5
 8013b2c:	f7f8 fa6c 	bl	800c008 <__aeabi_dsub>
 8013b30:	e9cd 0116 	strd	r0, r1, [sp, #88]	; 0x58
 8013b34:	4659      	mov	r1, fp
 8013b36:	4650      	mov	r0, sl
 8013b38:	f7f8 feb4 	bl	800c8a4 <__aeabi_d2iz>
 8013b3c:	4604      	mov	r4, r0
 8013b3e:	f7f8 fbb1 	bl	800c2a4 <__aeabi_i2d>
 8013b42:	4602      	mov	r2, r0
 8013b44:	460b      	mov	r3, r1
 8013b46:	4650      	mov	r0, sl
 8013b48:	4659      	mov	r1, fp
 8013b4a:	f7f8 fa5d 	bl	800c008 <__aeabi_dsub>
 8013b4e:	3430      	adds	r4, #48	; 0x30
 8013b50:	f8dd 8010 	ldr.w	r8, [sp, #16]
 8013b54:	e9cd 0114 	strd	r0, r1, [sp, #80]	; 0x50
 8013b58:	fa5f fb84 	uxtb.w	fp, r4
 8013b5c:	f808 bb01 	strb.w	fp, [r8], #1
 8013b60:	e9dd 0116 	ldrd	r0, r1, [sp, #88]	; 0x58
 8013b64:	e9dd 2314 	ldrd	r2, r3, [sp, #80]	; 0x50
 8013b68:	f7f8 fe92 	bl	800c890 <__aeabi_dcmpgt>
 8013b6c:	2800      	cmp	r0, #0
 8013b6e:	f040 812f 	bne.w	8013dd0 <_dtoa_r+0xc30>
 8013b72:	2100      	movs	r1, #0
 8013b74:	e9dd 2314 	ldrd	r2, r3, [sp, #80]	; 0x50
 8013b78:	2000      	movs	r0, #0
 8013b7a:	f6c3 71f0 	movt	r1, #16368	; 0x3ff0
 8013b7e:	f7f8 fa43 	bl	800c008 <__aeabi_dsub>
 8013b82:	4602      	mov	r2, r0
 8013b84:	460b      	mov	r3, r1
 8013b86:	e9dd 0116 	ldrd	r0, r1, [sp, #88]	; 0x58
 8013b8a:	f7f8 fe81 	bl	800c890 <__aeabi_dcmpgt>
 8013b8e:	2800      	cmp	r0, #0
 8013b90:	f040 840d 	bne.w	80143ae <_dtoa_r+0x120e>
 8013b94:	2e01      	cmp	r6, #1
 8013b96:	f340 829f 	ble.w	80140d8 <_dtoa_r+0xf38>
 8013b9a:	9c04      	ldr	r4, [sp, #16]
 8013b9c:	ea6f 0708 	mvn.w	r7, r8
 8013ba0:	19a6      	adds	r6, r4, r6
 8013ba2:	19bd      	adds	r5, r7, r6
 8013ba4:	2300      	movs	r3, #0
 8013ba6:	f005 0701 	and.w	r7, r5, #1
 8013baa:	2200      	movs	r2, #0
 8013bac:	f2c4 0324 	movt	r3, #16420	; 0x4024
 8013bb0:	e9dd 0116 	ldrd	r0, r1, [sp, #88]	; 0x58
 8013bb4:	9618      	str	r6, [sp, #96]	; 0x60
 8013bb6:	9716      	str	r7, [sp, #88]	; 0x58
 8013bb8:	f7f8 fbda 	bl	800c370 <__aeabi_dmul>
 8013bbc:	2300      	movs	r3, #0
 8013bbe:	2200      	movs	r2, #0
 8013bc0:	f2c4 0324 	movt	r3, #16420	; 0x4024
 8013bc4:	4604      	mov	r4, r0
 8013bc6:	460d      	mov	r5, r1
 8013bc8:	e9dd 0114 	ldrd	r0, r1, [sp, #80]	; 0x50
 8013bcc:	f7f8 fbd0 	bl	800c370 <__aeabi_dmul>
 8013bd0:	460f      	mov	r7, r1
 8013bd2:	4606      	mov	r6, r0
 8013bd4:	f7f8 fe66 	bl	800c8a4 <__aeabi_d2iz>
 8013bd8:	4683      	mov	fp, r0
 8013bda:	f7f8 fb63 	bl	800c2a4 <__aeabi_i2d>
 8013bde:	4602      	mov	r2, r0
 8013be0:	460b      	mov	r3, r1
 8013be2:	4630      	mov	r0, r6
 8013be4:	4639      	mov	r1, r7
 8013be6:	f7f8 fa0f 	bl	800c008 <__aeabi_dsub>
 8013bea:	46c2      	mov	sl, r8
 8013bec:	f10b 0230 	add.w	r2, fp, #48	; 0x30
 8013bf0:	fa5f fb82 	uxtb.w	fp, r2
 8013bf4:	f80a bb01 	strb.w	fp, [sl], #1
 8013bf8:	4622      	mov	r2, r4
 8013bfa:	462b      	mov	r3, r5
 8013bfc:	4606      	mov	r6, r0
 8013bfe:	460f      	mov	r7, r1
 8013c00:	46d0      	mov	r8, sl
 8013c02:	f7f8 fe27 	bl	800c854 <__aeabi_dcmplt>
 8013c06:	2800      	cmp	r0, #0
 8013c08:	f040 80e2 	bne.w	8013dd0 <_dtoa_r+0xc30>
 8013c0c:	2100      	movs	r1, #0
 8013c0e:	4632      	mov	r2, r6
 8013c10:	463b      	mov	r3, r7
 8013c12:	2000      	movs	r0, #0
 8013c14:	f6c3 71f0 	movt	r1, #16368	; 0x3ff0
 8013c18:	f7f8 f9f6 	bl	800c008 <__aeabi_dsub>
 8013c1c:	4622      	mov	r2, r4
 8013c1e:	462b      	mov	r3, r5
 8013c20:	f7f8 fe18 	bl	800c854 <__aeabi_dcmplt>
 8013c24:	2800      	cmp	r0, #0
 8013c26:	f040 83c2 	bne.w	80143ae <_dtoa_r+0x120e>
 8013c2a:	9918      	ldr	r1, [sp, #96]	; 0x60
 8013c2c:	458a      	cmp	sl, r1
 8013c2e:	f000 8253 	beq.w	80140d8 <_dtoa_r+0xf38>
 8013c32:	9816      	ldr	r0, [sp, #88]	; 0x58
 8013c34:	2800      	cmp	r0, #0
 8013c36:	d042      	beq.n	8013cbe <_dtoa_r+0xb1e>
 8013c38:	2300      	movs	r3, #0
 8013c3a:	2200      	movs	r2, #0
 8013c3c:	f2c4 0324 	movt	r3, #16420	; 0x4024
 8013c40:	4620      	mov	r0, r4
 8013c42:	4629      	mov	r1, r5
 8013c44:	f7f8 fb94 	bl	800c370 <__aeabi_dmul>
 8013c48:	2300      	movs	r3, #0
 8013c4a:	2200      	movs	r2, #0
 8013c4c:	f2c4 0324 	movt	r3, #16420	; 0x4024
 8013c50:	4604      	mov	r4, r0
 8013c52:	460d      	mov	r5, r1
 8013c54:	4630      	mov	r0, r6
 8013c56:	4639      	mov	r1, r7
 8013c58:	f7f8 fb8a 	bl	800c370 <__aeabi_dmul>
 8013c5c:	460f      	mov	r7, r1
 8013c5e:	4606      	mov	r6, r0
 8013c60:	f7f8 fe20 	bl	800c8a4 <__aeabi_d2iz>
 8013c64:	4680      	mov	r8, r0
 8013c66:	f7f8 fb1d 	bl	800c2a4 <__aeabi_i2d>
 8013c6a:	4602      	mov	r2, r0
 8013c6c:	460b      	mov	r3, r1
 8013c6e:	4630      	mov	r0, r6
 8013c70:	4639      	mov	r1, r7
 8013c72:	f7f8 f9c9 	bl	800c008 <__aeabi_dsub>
 8013c76:	f108 0330 	add.w	r3, r8, #48	; 0x30
 8013c7a:	fa5f fb83 	uxtb.w	fp, r3
 8013c7e:	f80a bb01 	strb.w	fp, [sl], #1
 8013c82:	4622      	mov	r2, r4
 8013c84:	462b      	mov	r3, r5
 8013c86:	4606      	mov	r6, r0
 8013c88:	460f      	mov	r7, r1
 8013c8a:	46d0      	mov	r8, sl
 8013c8c:	f7f8 fde2 	bl	800c854 <__aeabi_dcmplt>
 8013c90:	2800      	cmp	r0, #0
 8013c92:	f040 809d 	bne.w	8013dd0 <_dtoa_r+0xc30>
 8013c96:	2100      	movs	r1, #0
 8013c98:	4632      	mov	r2, r6
 8013c9a:	463b      	mov	r3, r7
 8013c9c:	2000      	movs	r0, #0
 8013c9e:	f6c3 71f0 	movt	r1, #16368	; 0x3ff0
 8013ca2:	f7f8 f9b1 	bl	800c008 <__aeabi_dsub>
 8013ca6:	4622      	mov	r2, r4
 8013ca8:	462b      	mov	r3, r5
 8013caa:	f7f8 fdd3 	bl	800c854 <__aeabi_dcmplt>
 8013cae:	2800      	cmp	r0, #0
 8013cb0:	f040 837d 	bne.w	80143ae <_dtoa_r+0x120e>
 8013cb4:	f8dd e060 	ldr.w	lr, [sp, #96]	; 0x60
 8013cb8:	45f2      	cmp	sl, lr
 8013cba:	f000 820d 	beq.w	80140d8 <_dtoa_r+0xf38>
 8013cbe:	f8cd 9050 	str.w	r9, [sp, #80]	; 0x50
 8013cc2:	f8dd 9060 	ldr.w	r9, [sp, #96]	; 0x60
 8013cc6:	e050      	b.n	8013d6a <_dtoa_r+0xbca>
 8013cc8:	08015880 	.word	0x08015880
 8013ccc:	08015948 	.word	0x08015948
 8013cd0:	2100      	movs	r1, #0
 8013cd2:	2000      	movs	r0, #0
 8013cd4:	f6c3 71f0 	movt	r1, #16368	; 0x3ff0
 8013cd8:	f7f8 f996 	bl	800c008 <__aeabi_dsub>
 8013cdc:	4622      	mov	r2, r4
 8013cde:	462b      	mov	r3, r5
 8013ce0:	f7f8 fdb8 	bl	800c854 <__aeabi_dcmplt>
 8013ce4:	2300      	movs	r3, #0
 8013ce6:	2200      	movs	r2, #0
 8013ce8:	f2c4 0324 	movt	r3, #16420	; 0x4024
 8013cec:	2800      	cmp	r0, #0
 8013cee:	f040 835c 	bne.w	80143aa <_dtoa_r+0x120a>
 8013cf2:	4620      	mov	r0, r4
 8013cf4:	4629      	mov	r1, r5
 8013cf6:	f7f8 fb3b 	bl	800c370 <__aeabi_dmul>
 8013cfa:	2300      	movs	r3, #0
 8013cfc:	2200      	movs	r2, #0
 8013cfe:	f2c4 0324 	movt	r3, #16420	; 0x4024
 8013d02:	4604      	mov	r4, r0
 8013d04:	460d      	mov	r5, r1
 8013d06:	4630      	mov	r0, r6
 8013d08:	4639      	mov	r1, r7
 8013d0a:	f7f8 fb31 	bl	800c370 <__aeabi_dmul>
 8013d0e:	460f      	mov	r7, r1
 8013d10:	4606      	mov	r6, r0
 8013d12:	f7f8 fdc7 	bl	800c8a4 <__aeabi_d2iz>
 8013d16:	4680      	mov	r8, r0
 8013d18:	f7f8 fac4 	bl	800c2a4 <__aeabi_i2d>
 8013d1c:	4602      	mov	r2, r0
 8013d1e:	460b      	mov	r3, r1
 8013d20:	4630      	mov	r0, r6
 8013d22:	4639      	mov	r1, r7
 8013d24:	f7f8 f970 	bl	800c008 <__aeabi_dsub>
 8013d28:	f108 0330 	add.w	r3, r8, #48	; 0x30
 8013d2c:	fa5f fb83 	uxtb.w	fp, r3
 8013d30:	f80a bb01 	strb.w	fp, [sl], #1
 8013d34:	4622      	mov	r2, r4
 8013d36:	462b      	mov	r3, r5
 8013d38:	4606      	mov	r6, r0
 8013d3a:	460f      	mov	r7, r1
 8013d3c:	f7f8 fd8a 	bl	800c854 <__aeabi_dcmplt>
 8013d40:	46d0      	mov	r8, sl
 8013d42:	4632      	mov	r2, r6
 8013d44:	463b      	mov	r3, r7
 8013d46:	2800      	cmp	r0, #0
 8013d48:	d140      	bne.n	8013dcc <_dtoa_r+0xc2c>
 8013d4a:	2100      	movs	r1, #0
 8013d4c:	2000      	movs	r0, #0
 8013d4e:	f6c3 71f0 	movt	r1, #16368	; 0x3ff0
 8013d52:	f7f8 f959 	bl	800c008 <__aeabi_dsub>
 8013d56:	4622      	mov	r2, r4
 8013d58:	462b      	mov	r3, r5
 8013d5a:	f7f8 fd7b 	bl	800c854 <__aeabi_dcmplt>
 8013d5e:	2800      	cmp	r0, #0
 8013d60:	f040 8323 	bne.w	80143aa <_dtoa_r+0x120a>
 8013d64:	45ca      	cmp	sl, r9
 8013d66:	f000 81b5 	beq.w	80140d4 <_dtoa_r+0xf34>
 8013d6a:	2300      	movs	r3, #0
 8013d6c:	4620      	mov	r0, r4
 8013d6e:	4629      	mov	r1, r5
 8013d70:	2200      	movs	r2, #0
 8013d72:	f2c4 0324 	movt	r3, #16420	; 0x4024
 8013d76:	f7f8 fafb 	bl	800c370 <__aeabi_dmul>
 8013d7a:	2300      	movs	r3, #0
 8013d7c:	2200      	movs	r2, #0
 8013d7e:	f2c4 0324 	movt	r3, #16420	; 0x4024
 8013d82:	4604      	mov	r4, r0
 8013d84:	460d      	mov	r5, r1
 8013d86:	4630      	mov	r0, r6
 8013d88:	4639      	mov	r1, r7
 8013d8a:	f7f8 faf1 	bl	800c370 <__aeabi_dmul>
 8013d8e:	460f      	mov	r7, r1
 8013d90:	4606      	mov	r6, r0
 8013d92:	f7f8 fd87 	bl	800c8a4 <__aeabi_d2iz>
 8013d96:	4683      	mov	fp, r0
 8013d98:	f7f8 fa84 	bl	800c2a4 <__aeabi_i2d>
 8013d9c:	4602      	mov	r2, r0
 8013d9e:	460b      	mov	r3, r1
 8013da0:	4630      	mov	r0, r6
 8013da2:	4639      	mov	r1, r7
 8013da4:	f7f8 f930 	bl	800c008 <__aeabi_dsub>
 8013da8:	46d0      	mov	r8, sl
 8013daa:	f10b 0230 	add.w	r2, fp, #48	; 0x30
 8013dae:	fa5f fb82 	uxtb.w	fp, r2
 8013db2:	f808 bb01 	strb.w	fp, [r8], #1
 8013db6:	4622      	mov	r2, r4
 8013db8:	462b      	mov	r3, r5
 8013dba:	4606      	mov	r6, r0
 8013dbc:	460f      	mov	r7, r1
 8013dbe:	f7f8 fd49 	bl	800c854 <__aeabi_dcmplt>
 8013dc2:	46c2      	mov	sl, r8
 8013dc4:	4632      	mov	r2, r6
 8013dc6:	463b      	mov	r3, r7
 8013dc8:	2800      	cmp	r0, #0
 8013dca:	d081      	beq.n	8013cd0 <_dtoa_r+0xb30>
 8013dcc:	f8dd 9050 	ldr.w	r9, [sp, #80]	; 0x50
 8013dd0:	9819      	ldr	r0, [sp, #100]	; 0x64
 8013dd2:	9006      	str	r0, [sp, #24]
 8013dd4:	e406      	b.n	80135e4 <_dtoa_r+0x444>
 8013dd6:	2400      	movs	r4, #0
 8013dd8:	940d      	str	r4, [sp, #52]	; 0x34
 8013dda:	9b05      	ldr	r3, [sp, #20]
 8013ddc:	f8dd e018 	ldr.w	lr, [sp, #24]
 8013de0:	eb03 040e 	add.w	r4, r3, lr
 8013de4:	9411      	str	r4, [sp, #68]	; 0x44
 8013de6:	3401      	adds	r4, #1
 8013de8:	2c00      	cmp	r4, #0
 8013dea:	9409      	str	r4, [sp, #36]	; 0x24
 8013dec:	f73f ae16 	bgt.w	8013a1c <_dtoa_r+0x87c>
 8013df0:	2100      	movs	r1, #0
 8013df2:	f8c9 1044 	str.w	r1, [r9, #68]	; 0x44
 8013df6:	e621      	b.n	8013a3c <_dtoa_r+0x89c>
 8013df8:	2201      	movs	r2, #1
 8013dfa:	920d      	str	r2, [sp, #52]	; 0x34
 8013dfc:	e7ed      	b.n	8013dda <_dtoa_r+0xc3a>
 8013dfe:	2000      	movs	r0, #0
 8013e00:	900d      	str	r0, [sp, #52]	; 0x34
 8013e02:	e604      	b.n	8013a0e <_dtoa_r+0x86e>
 8013e04:	9a09      	ldr	r2, [sp, #36]	; 0x24
 8013e06:	2a00      	cmp	r2, #0
 8013e08:	f73f aafb 	bgt.w	8013402 <_dtoa_r+0x262>
 8013e0c:	f040 82e9 	bne.w	80143e2 <_dtoa_r+0x1242>
 8013e10:	2300      	movs	r3, #0
 8013e12:	2200      	movs	r2, #0
 8013e14:	f2c4 0314 	movt	r3, #16404	; 0x4014
 8013e18:	e9dd 0102 	ldrd	r0, r1, [sp, #8]
 8013e1c:	f7f8 faa8 	bl	800c370 <__aeabi_dmul>
 8013e20:	4652      	mov	r2, sl
 8013e22:	465b      	mov	r3, fp
 8013e24:	f7f8 fd2a 	bl	800c87c <__aeabi_dcmpge>
 8013e28:	9f09      	ldr	r7, [sp, #36]	; 0x24
 8013e2a:	970b      	str	r7, [sp, #44]	; 0x2c
 8013e2c:	2800      	cmp	r0, #0
 8013e2e:	f000 80b8 	beq.w	8013fa2 <_dtoa_r+0xe02>
 8013e32:	9a05      	ldr	r2, [sp, #20]
 8013e34:	f8dd 8010 	ldr.w	r8, [sp, #16]
 8013e38:	43d5      	mvns	r5, r2
 8013e3a:	9506      	str	r5, [sp, #24]
 8013e3c:	4648      	mov	r0, r9
 8013e3e:	4639      	mov	r1, r7
 8013e40:	f000 fcc0 	bl	80147c4 <_Bfree>
 8013e44:	9b0b      	ldr	r3, [sp, #44]	; 0x2c
 8013e46:	2b00      	cmp	r3, #0
 8013e48:	f43f abcc 	beq.w	80135e4 <_dtoa_r+0x444>
 8013e4c:	4648      	mov	r0, r9
 8013e4e:	990b      	ldr	r1, [sp, #44]	; 0x2c
 8013e50:	f000 fcb8 	bl	80147c4 <_Bfree>
 8013e54:	f7ff bbc6 	b.w	80135e4 <_dtoa_r+0x444>
 8013e58:	4648      	mov	r0, r9
 8013e5a:	990a      	ldr	r1, [sp, #40]	; 0x28
 8013e5c:	f000 fef6 	bl	8014c4c <__pow5mult>
 8013e60:	900a      	str	r0, [sp, #40]	; 0x28
 8013e62:	e44e      	b.n	8013702 <_dtoa_r+0x562>
 8013e64:	9d0b      	ldr	r5, [sp, #44]	; 0x2c
 8013e66:	2d00      	cmp	r5, #0
 8013e68:	f000 824b 	beq.w	8014302 <_dtoa_r+0x1162>
 8013e6c:	f203 4733 	addw	r7, r3, #1075	; 0x433
 8013e70:	9d0e      	ldr	r5, [sp, #56]	; 0x38
 8013e72:	9c0c      	ldr	r4, [sp, #48]	; 0x30
 8013e74:	e40b      	b.n	801368e <_dtoa_r+0x4ee>
 8013e76:	4611      	mov	r1, r2
 8013e78:	4650      	mov	r0, sl
 8013e7a:	f8cd c000 	str.w	ip, [sp]
 8013e7e:	9201      	str	r2, [sp, #4]
 8013e80:	f000 fff2 	bl	8014e68 <__mcmp>
 8013e84:	9a01      	ldr	r2, [sp, #4]
 8013e86:	4603      	mov	r3, r0
 8013e88:	4611      	mov	r1, r2
 8013e8a:	4648      	mov	r0, r9
 8013e8c:	9301      	str	r3, [sp, #4]
 8013e8e:	f000 fc99 	bl	80147c4 <_Bfree>
 8013e92:	9801      	ldr	r0, [sp, #4]
 8013e94:	f8dd c000 	ldr.w	ip, [sp]
 8013e98:	2800      	cmp	r0, #0
 8013e9a:	f47f ad6e 	bne.w	801397a <_dtoa_r+0x7da>
 8013e9e:	9902      	ldr	r1, [sp, #8]
 8013ea0:	2900      	cmp	r1, #0
 8013ea2:	f47f ad6a 	bne.w	801397a <_dtoa_r+0x7da>
 8013ea6:	9b09      	ldr	r3, [sp, #36]	; 0x24
 8013ea8:	2b00      	cmp	r3, #0
 8013eaa:	f47f ad66 	bne.w	801397a <_dtoa_r+0x7da>
 8013eae:	f1bc 0f39 	cmp.w	ip, #57	; 0x39
 8013eb2:	f8cd a028 	str.w	sl, [sp, #40]	; 0x28
 8013eb6:	46da      	mov	sl, fp
 8013eb8:	46e3      	mov	fp, ip
 8013eba:	f000 80f5 	beq.w	80140a8 <_dtoa_r+0xf08>
 8013ebe:	f1ba 0f00 	cmp.w	sl, #0
 8013ec2:	dd01      	ble.n	8013ec8 <_dtoa_r+0xd28>
 8013ec4:	f108 0b31 	add.w	fp, r8, #49	; 0x31
 8013ec8:	f8dd 8014 	ldr.w	r8, [sp, #20]
 8013ecc:	960b      	str	r6, [sp, #44]	; 0x2c
 8013ece:	f808 bb01 	strb.w	fp, [r8], #1
 8013ed2:	e4c9      	b.n	8013868 <_dtoa_r+0x6c8>
 8013ed4:	4629      	mov	r1, r5
 8013ed6:	4648      	mov	r0, r9
 8013ed8:	220a      	movs	r2, #10
 8013eda:	2300      	movs	r3, #0
 8013edc:	f000 fc7c 	bl	80147d8 <__multadd>
 8013ee0:	3401      	adds	r4, #1
 8013ee2:	4605      	mov	r5, r0
 8013ee4:	4606      	mov	r6, r0
 8013ee6:	e527      	b.n	8013938 <_dtoa_r+0x798>
 8013ee8:	980a      	ldr	r0, [sp, #40]	; 0x28
 8013eea:	4639      	mov	r1, r7
 8013eec:	f7fe ffe2 	bl	8012eb4 <quorem>
 8013ef0:	9b09      	ldr	r3, [sp, #36]	; 0x24
 8013ef2:	f8dd c010 	ldr.w	ip, [sp, #16]
 8013ef6:	2501      	movs	r5, #1
 8013ef8:	f100 0b30 	add.w	fp, r0, #48	; 0x30
 8013efc:	42ab      	cmp	r3, r5
 8013efe:	f88c b000 	strb.w	fp, [ip]
 8013f02:	f77f ac75 	ble.w	80137f0 <_dtoa_r+0x650>
 8013f06:	4648      	mov	r0, r9
 8013f08:	990a      	ldr	r1, [sp, #40]	; 0x28
 8013f0a:	9b0d      	ldr	r3, [sp, #52]	; 0x34
 8013f0c:	220a      	movs	r2, #10
 8013f0e:	f000 fc63 	bl	80147d8 <__multadd>
 8013f12:	f8dd a024 	ldr.w	sl, [sp, #36]	; 0x24
 8013f16:	900a      	str	r0, [sp, #40]	; 0x28
 8013f18:	4606      	mov	r6, r0
 8013f1a:	f8dd 8010 	ldr.w	r8, [sp, #16]
 8013f1e:	e457      	b.n	80137d0 <_dtoa_r+0x630>
 8013f20:	9b06      	ldr	r3, [sp, #24]
 8013f22:	9a04      	ldr	r2, [sp, #16]
 8013f24:	1c58      	adds	r0, r3, #1
 8013f26:	2131      	movs	r1, #49	; 0x31
 8013f28:	9006      	str	r0, [sp, #24]
 8013f2a:	7011      	strb	r1, [r2, #0]
 8013f2c:	e49c      	b.n	8013868 <_dtoa_r+0x6c8>
 8013f2e:	980a      	ldr	r0, [sp, #40]	; 0x28
 8013f30:	4639      	mov	r1, r7
 8013f32:	f000 ff99 	bl	8014e68 <__mcmp>
 8013f36:	2800      	cmp	r0, #0
 8013f38:	f6bf ac27 	bge.w	801378a <_dtoa_r+0x5ea>
 8013f3c:	220a      	movs	r2, #10
 8013f3e:	4648      	mov	r0, r9
 8013f40:	990a      	ldr	r1, [sp, #40]	; 0x28
 8013f42:	2300      	movs	r3, #0
 8013f44:	f000 fc48 	bl	80147d8 <__multadd>
 8013f48:	f8dd e018 	ldr.w	lr, [sp, #24]
 8013f4c:	9a0d      	ldr	r2, [sp, #52]	; 0x34
 8013f4e:	900a      	str	r0, [sp, #40]	; 0x28
 8013f50:	f10e 38ff 	add.w	r8, lr, #4294967295
 8013f54:	f8cd 8018 	str.w	r8, [sp, #24]
 8013f58:	2a00      	cmp	r2, #0
 8013f5a:	f040 8237 	bne.w	80143cc <_dtoa_r+0x122c>
 8013f5e:	9911      	ldr	r1, [sp, #68]	; 0x44
 8013f60:	9109      	str	r1, [sp, #36]	; 0x24
 8013f62:	e412      	b.n	801378a <_dtoa_r+0x5ea>
 8013f64:	693a      	ldr	r2, [r7, #16]
 8013f66:	eb07 0082 	add.w	r0, r7, r2, lsl #2
 8013f6a:	6900      	ldr	r0, [r0, #16]
 8013f6c:	f000 fcb0 	bl	80148d0 <__hi0bits>
 8013f70:	f1c0 0120 	rsb	r1, r0, #32
 8013f74:	f7ff bbdd 	b.w	8013732 <_dtoa_r+0x592>
 8013f78:	9a02      	ldr	r2, [sp, #8]
 8013f7a:	2a02      	cmp	r2, #2
 8013f7c:	f77f ac09 	ble.w	8013792 <_dtoa_r+0x5f2>
 8013f80:	2b00      	cmp	r3, #0
 8013f82:	f47f af56 	bne.w	8013e32 <_dtoa_r+0xc92>
 8013f86:	4639      	mov	r1, r7
 8013f88:	2205      	movs	r2, #5
 8013f8a:	9b09      	ldr	r3, [sp, #36]	; 0x24
 8013f8c:	4648      	mov	r0, r9
 8013f8e:	f000 fc23 	bl	80147d8 <__multadd>
 8013f92:	4607      	mov	r7, r0
 8013f94:	4639      	mov	r1, r7
 8013f96:	980a      	ldr	r0, [sp, #40]	; 0x28
 8013f98:	f000 ff66 	bl	8014e68 <__mcmp>
 8013f9c:	2800      	cmp	r0, #0
 8013f9e:	f77f af48 	ble.w	8013e32 <_dtoa_r+0xc92>
 8013fa2:	9806      	ldr	r0, [sp, #24]
 8013fa4:	f8dd 8010 	ldr.w	r8, [sp, #16]
 8013fa8:	2331      	movs	r3, #49	; 0x31
 8013faa:	1c41      	adds	r1, r0, #1
 8013fac:	f808 3b01 	strb.w	r3, [r8], #1
 8013fb0:	9106      	str	r1, [sp, #24]
 8013fb2:	e743      	b.n	8013e3c <_dtoa_r+0xc9c>
 8013fb4:	f1bb 0f39 	cmp.w	fp, #57	; 0x39
 8013fb8:	f108 31ff 	add.w	r1, r8, #4294967295
 8013fbc:	f47f ab0e 	bne.w	80135dc <_dtoa_r+0x43c>
 8013fc0:	f811 bc01 	ldrb.w	fp, [r1, #-1]
 8013fc4:	9d04      	ldr	r5, [sp, #16]
 8013fc6:	4688      	mov	r8, r1
 8013fc8:	f7ff baf0 	b.w	80135ac <_dtoa_r+0x40c>
 8013fcc:	4638      	mov	r0, r7
 8013fce:	f7f8 f969 	bl	800c2a4 <__aeabi_i2d>
 8013fd2:	4602      	mov	r2, r0
 8013fd4:	460b      	mov	r3, r1
 8013fd6:	4650      	mov	r0, sl
 8013fd8:	4659      	mov	r1, fp
 8013fda:	f7f8 f9c9 	bl	800c370 <__aeabi_dmul>
 8013fde:	2300      	movs	r3, #0
 8013fe0:	2200      	movs	r2, #0
 8013fe2:	f2c4 031c 	movt	r3, #16412	; 0x401c
 8013fe6:	f7f8 f811 	bl	800c00c <__adddf3>
 8013fea:	4604      	mov	r4, r0
 8013fec:	f1a1 7550 	sub.w	r5, r1, #54525952	; 0x3400000
 8013ff0:	2300      	movs	r3, #0
 8013ff2:	2200      	movs	r2, #0
 8013ff4:	f2c4 0314 	movt	r3, #16404	; 0x4014
 8013ff8:	4650      	mov	r0, sl
 8013ffa:	4659      	mov	r1, fp
 8013ffc:	f7f8 f804 	bl	800c008 <__aeabi_dsub>
 8014000:	4622      	mov	r2, r4
 8014002:	462b      	mov	r3, r5
 8014004:	4682      	mov	sl, r0
 8014006:	468b      	mov	fp, r1
 8014008:	f7f8 fc42 	bl	800c890 <__aeabi_dcmpgt>
 801400c:	4607      	mov	r7, r0
 801400e:	2800      	cmp	r0, #0
 8014010:	f040 816f 	bne.w	80142f2 <_dtoa_r+0x1152>
 8014014:	4622      	mov	r2, r4
 8014016:	f105 4300 	add.w	r3, r5, #2147483648	; 0x80000000
 801401a:	4650      	mov	r0, sl
 801401c:	4659      	mov	r1, fp
 801401e:	f7f8 fc19 	bl	800c854 <__aeabi_dcmplt>
 8014022:	2800      	cmp	r0, #0
 8014024:	d058      	beq.n	80140d8 <_dtoa_r+0xf38>
 8014026:	970b      	str	r7, [sp, #44]	; 0x2c
 8014028:	e703      	b.n	8013e32 <_dtoa_r+0xc92>
 801402a:	4648      	mov	r0, r9
 801402c:	990a      	ldr	r1, [sp, #40]	; 0x28
 801402e:	9a0e      	ldr	r2, [sp, #56]	; 0x38
 8014030:	f000 fe0c 	bl	8014c4c <__pow5mult>
 8014034:	900a      	str	r0, [sp, #40]	; 0x28
 8014036:	f7ff bb64 	b.w	8013702 <_dtoa_r+0x562>
 801403a:	9806      	ldr	r0, [sp, #24]
 801403c:	9d04      	ldr	r5, [sp, #16]
 801403e:	1c41      	adds	r1, r0, #1
 8014040:	9106      	str	r1, [sp, #24]
 8014042:	4629      	mov	r1, r5
 8014044:	2230      	movs	r2, #48	; 0x30
 8014046:	2331      	movs	r3, #49	; 0x31
 8014048:	702a      	strb	r2, [r5, #0]
 801404a:	700b      	strb	r3, [r1, #0]
 801404c:	f7ff baca 	b.w	80135e4 <_dtoa_r+0x444>
 8014050:	f8dd c038 	ldr.w	ip, [sp, #56]	; 0x38
 8014054:	990f      	ldr	r1, [sp, #60]	; 0x3c
 8014056:	970e      	str	r7, [sp, #56]	; 0x38
 8014058:	ebcc 0507 	rsb	r5, ip, r7
 801405c:	1948      	adds	r0, r1, r5
 801405e:	900f      	str	r0, [sp, #60]	; 0x3c
 8014060:	2500      	movs	r5, #0
 8014062:	f7ff bb0e 	b.w	8013682 <_dtoa_r+0x4e2>
 8014066:	e9dd ab12 	ldrd	sl, fp, [sp, #72]	; 0x48
 801406a:	2702      	movs	r7, #2
 801406c:	e50f      	b.n	8013a8e <_dtoa_r+0x8ee>
 801406e:	2401      	movs	r4, #1
 8014070:	9411      	str	r4, [sp, #68]	; 0x44
 8014072:	9409      	str	r4, [sp, #36]	; 0x24
 8014074:	9405      	str	r4, [sp, #20]
 8014076:	e6bb      	b.n	8013df0 <_dtoa_r+0xc50>
 8014078:	2800      	cmp	r0, #0
 801407a:	46e3      	mov	fp, ip
 801407c:	f8cd a028 	str.w	sl, [sp, #40]	; 0x28
 8014080:	4664      	mov	r4, ip
 8014082:	f77f af21 	ble.w	8013ec8 <_dtoa_r+0xd28>
 8014086:	2201      	movs	r2, #1
 8014088:	990a      	ldr	r1, [sp, #40]	; 0x28
 801408a:	4648      	mov	r0, r9
 801408c:	f000 fe28 	bl	8014ce0 <__lshift>
 8014090:	4639      	mov	r1, r7
 8014092:	900a      	str	r0, [sp, #40]	; 0x28
 8014094:	f000 fee8 	bl	8014e68 <__mcmp>
 8014098:	2800      	cmp	r0, #0
 801409a:	f340 818c 	ble.w	80143b6 <_dtoa_r+0x1216>
 801409e:	2c39      	cmp	r4, #57	; 0x39
 80140a0:	f108 0b31 	add.w	fp, r8, #49	; 0x31
 80140a4:	f47f af10 	bne.w	8013ec8 <_dtoa_r+0xd28>
 80140a8:	f8dd 8014 	ldr.w	r8, [sp, #20]
 80140ac:	960b      	str	r6, [sp, #44]	; 0x2c
 80140ae:	2239      	movs	r2, #57	; 0x39
 80140b0:	f808 2b01 	strb.w	r2, [r8], #1
 80140b4:	f7ff bbb3 	b.w	801381e <_dtoa_r+0x67e>
 80140b8:	d103      	bne.n	80140c2 <_dtoa_r+0xf22>
 80140ba:	f01b 0f01 	tst.w	fp, #1
 80140be:	f47f abac 	bne.w	801381a <_dtoa_r+0x67a>
 80140c2:	4643      	mov	r3, r8
 80140c4:	4698      	mov	r8, r3
 80140c6:	3b01      	subs	r3, #1
 80140c8:	f818 2c01 	ldrb.w	r2, [r8, #-1]
 80140cc:	2a30      	cmp	r2, #48	; 0x30
 80140ce:	d0f9      	beq.n	80140c4 <_dtoa_r+0xf24>
 80140d0:	f7ff bbca 	b.w	8013868 <_dtoa_r+0x6c8>
 80140d4:	f8dd 9050 	ldr.w	r9, [sp, #80]	; 0x50
 80140d8:	e9dd ab12 	ldrd	sl, fp, [sp, #72]	; 0x48
 80140dc:	f7ff b97e 	b.w	80133dc <_dtoa_r+0x23c>
 80140e0:	9d06      	ldr	r5, [sp, #24]
 80140e2:	426c      	negs	r4, r5
 80140e4:	2c00      	cmp	r4, #0
 80140e6:	f000 8116 	beq.w	8014316 <_dtoa_r+0x1176>
 80140ea:	4bb6      	ldr	r3, [pc, #728]	; (80143c4 <_dtoa_r+0x1224>)
 80140ec:	f004 010f 	and.w	r1, r4, #15
 80140f0:	eb03 02c1 	add.w	r2, r3, r1, lsl #3
 80140f4:	e9d2 2300 	ldrd	r2, r3, [r2]
 80140f8:	e9dd 0112 	ldrd	r0, r1, [sp, #72]	; 0x48
 80140fc:	f7f8 f938 	bl	800c370 <__aeabi_dmul>
 8014100:	1124      	asrs	r4, r4, #4
 8014102:	4682      	mov	sl, r0
 8014104:	468b      	mov	fp, r1
 8014106:	f000 816e 	beq.w	80143e6 <_dtoa_r+0x1246>
 801410a:	4daf      	ldr	r5, [pc, #700]	; (80143c8 <_dtoa_r+0x1228>)
 801410c:	2702      	movs	r7, #2
 801410e:	07e3      	lsls	r3, r4, #31
 8014110:	d504      	bpl.n	801411c <_dtoa_r+0xf7c>
 8014112:	e9d5 2300 	ldrd	r2, r3, [r5]
 8014116:	f7f8 f92b 	bl	800c370 <__aeabi_dmul>
 801411a:	3701      	adds	r7, #1
 801411c:	3508      	adds	r5, #8
 801411e:	1064      	asrs	r4, r4, #1
 8014120:	d1f5      	bne.n	801410e <_dtoa_r+0xf6e>
 8014122:	4682      	mov	sl, r0
 8014124:	468b      	mov	fp, r1
 8014126:	e4cc      	b.n	8013ac2 <_dtoa_r+0x922>
 8014128:	9d0b      	ldr	r5, [sp, #44]	; 0x2c
 801412a:	4648      	mov	r0, r9
 801412c:	6869      	ldr	r1, [r5, #4]
 801412e:	f000 fb23 	bl	8014778 <_Balloc>
 8014132:	6929      	ldr	r1, [r5, #16]
 8014134:	4604      	mov	r4, r0
 8014136:	1c88      	adds	r0, r1, #2
 8014138:	4629      	mov	r1, r5
 801413a:	0082      	lsls	r2, r0, #2
 801413c:	310c      	adds	r1, #12
 801413e:	f104 000c 	add.w	r0, r4, #12
 8014142:	f7fc febb 	bl	8010ebc <memcpy>
 8014146:	4648      	mov	r0, r9
 8014148:	4621      	mov	r1, r4
 801414a:	2201      	movs	r2, #1
 801414c:	f000 fdc8 	bl	8014ce0 <__lshift>
 8014150:	4606      	mov	r6, r0
 8014152:	f7ff bbe5 	b.w	8013920 <_dtoa_r+0x780>
 8014156:	f1bc 0f39 	cmp.w	ip, #57	; 0x39
 801415a:	46e3      	mov	fp, ip
 801415c:	f8cd a028 	str.w	sl, [sp, #40]	; 0x28
 8014160:	d0a2      	beq.n	80140a8 <_dtoa_r+0xf08>
 8014162:	f8dd 8014 	ldr.w	r8, [sp, #20]
 8014166:	960b      	str	r6, [sp, #44]	; 0x2c
 8014168:	f10c 0e01 	add.w	lr, ip, #1
 801416c:	f808 eb01 	strb.w	lr, [r8], #1
 8014170:	f7ff bb7a 	b.w	8013868 <_dtoa_r+0x6c8>
 8014174:	46e3      	mov	fp, ip
 8014176:	f8cd a028 	str.w	sl, [sp, #40]	; 0x28
 801417a:	960b      	str	r6, [sp, #44]	; 0x2c
 801417c:	f7ff bb41 	b.w	8013802 <_dtoa_r+0x662>
 8014180:	4990      	ldr	r1, [pc, #576]	; (80143c4 <_dtoa_r+0x1224>)
 8014182:	1e73      	subs	r3, r6, #1
 8014184:	eb01 00c3 	add.w	r0, r1, r3, lsl #3
 8014188:	4622      	mov	r2, r4
 801418a:	9318      	str	r3, [sp, #96]	; 0x60
 801418c:	e9d0 0100 	ldrd	r0, r1, [r0]
 8014190:	462b      	mov	r3, r5
 8014192:	f7f8 f8ed 	bl	800c370 <__aeabi_dmul>
 8014196:	e9cd 0114 	strd	r0, r1, [sp, #80]	; 0x50
 801419a:	4659      	mov	r1, fp
 801419c:	4650      	mov	r0, sl
 801419e:	f7f8 fb81 	bl	800c8a4 <__aeabi_d2iz>
 80141a2:	4604      	mov	r4, r0
 80141a4:	f7f8 f87e 	bl	800c2a4 <__aeabi_i2d>
 80141a8:	4602      	mov	r2, r0
 80141aa:	460b      	mov	r3, r1
 80141ac:	4650      	mov	r0, sl
 80141ae:	4659      	mov	r1, fp
 80141b0:	f7f7 ff2a 	bl	800c008 <__aeabi_dsub>
 80141b4:	f8dd 8010 	ldr.w	r8, [sp, #16]
 80141b8:	3430      	adds	r4, #48	; 0x30
 80141ba:	2e01      	cmp	r6, #1
 80141bc:	4682      	mov	sl, r0
 80141be:	468b      	mov	fp, r1
 80141c0:	f808 4b01 	strb.w	r4, [r8], #1
 80141c4:	f000 8081 	beq.w	80142ca <_dtoa_r+0x112a>
 80141c8:	9c04      	ldr	r4, [sp, #16]
 80141ca:	2300      	movs	r3, #0
 80141cc:	1e67      	subs	r7, r4, #1
 80141ce:	eb07 0a06 	add.w	sl, r7, r6
 80141d2:	2200      	movs	r2, #0
 80141d4:	f2c4 0324 	movt	r3, #16420	; 0x4024
 80141d8:	f8cd a000 	str.w	sl, [sp]
 80141dc:	f7f8 f8c8 	bl	800c370 <__aeabi_dmul>
 80141e0:	43e6      	mvns	r6, r4
 80141e2:	460f      	mov	r7, r1
 80141e4:	eb06 050a 	add.w	r5, r6, sl
 80141e8:	4606      	mov	r6, r0
 80141ea:	f7f8 fb5b 	bl	800c8a4 <__aeabi_d2iz>
 80141ee:	4604      	mov	r4, r0
 80141f0:	f7f8 f858 	bl	800c2a4 <__aeabi_i2d>
 80141f4:	4602      	mov	r2, r0
 80141f6:	460b      	mov	r3, r1
 80141f8:	4630      	mov	r0, r6
 80141fa:	4639      	mov	r1, r7
 80141fc:	f7f7 ff04 	bl	800c008 <__aeabi_dsub>
 8014200:	f8dd c010 	ldr.w	ip, [sp, #16]
 8014204:	3430      	adds	r4, #48	; 0x30
 8014206:	f88c 4001 	strb.w	r4, [ip, #1]
 801420a:	f8dd c000 	ldr.w	ip, [sp]
 801420e:	45e0      	cmp	r8, ip
 8014210:	f005 0501 	and.w	r5, r5, #1
 8014214:	4682      	mov	sl, r0
 8014216:	468b      	mov	fp, r1
 8014218:	4647      	mov	r7, r8
 801421a:	d054      	beq.n	80142c6 <_dtoa_r+0x1126>
 801421c:	b1f5      	cbz	r5, 801425c <_dtoa_r+0x10bc>
 801421e:	2300      	movs	r3, #0
 8014220:	2200      	movs	r2, #0
 8014222:	f2c4 0324 	movt	r3, #16420	; 0x4024
 8014226:	f8cd c000 	str.w	ip, [sp]
 801422a:	f7f8 f8a1 	bl	800c370 <__aeabi_dmul>
 801422e:	468b      	mov	fp, r1
 8014230:	4682      	mov	sl, r0
 8014232:	f7f8 fb37 	bl	800c8a4 <__aeabi_d2iz>
 8014236:	4604      	mov	r4, r0
 8014238:	f7f8 f834 	bl	800c2a4 <__aeabi_i2d>
 801423c:	4647      	mov	r7, r8
 801423e:	4602      	mov	r2, r0
 8014240:	460b      	mov	r3, r1
 8014242:	4650      	mov	r0, sl
 8014244:	4659      	mov	r1, fp
 8014246:	3430      	adds	r4, #48	; 0x30
 8014248:	f7f7 fede 	bl	800c008 <__aeabi_dsub>
 801424c:	f807 4f01 	strb.w	r4, [r7, #1]!
 8014250:	f8dd c000 	ldr.w	ip, [sp]
 8014254:	4567      	cmp	r7, ip
 8014256:	4682      	mov	sl, r0
 8014258:	468b      	mov	fp, r1
 801425a:	d034      	beq.n	80142c6 <_dtoa_r+0x1126>
 801425c:	4650      	mov	r0, sl
 801425e:	4659      	mov	r1, fp
 8014260:	4666      	mov	r6, ip
 8014262:	2300      	movs	r3, #0
 8014264:	2200      	movs	r2, #0
 8014266:	f2c4 0324 	movt	r3, #16420	; 0x4024
 801426a:	f7f8 f881 	bl	800c370 <__aeabi_dmul>
 801426e:	460d      	mov	r5, r1
 8014270:	4604      	mov	r4, r0
 8014272:	f7f8 fb17 	bl	800c8a4 <__aeabi_d2iz>
 8014276:	4682      	mov	sl, r0
 8014278:	f7f8 f814 	bl	800c2a4 <__aeabi_i2d>
 801427c:	4602      	mov	r2, r0
 801427e:	460b      	mov	r3, r1
 8014280:	4620      	mov	r0, r4
 8014282:	4629      	mov	r1, r5
 8014284:	f7f7 fec0 	bl	800c008 <__aeabi_dsub>
 8014288:	f10a 0430 	add.w	r4, sl, #48	; 0x30
 801428c:	2300      	movs	r3, #0
 801428e:	2200      	movs	r2, #0
 8014290:	f2c4 0324 	movt	r3, #16420	; 0x4024
 8014294:	f807 4f01 	strb.w	r4, [r7, #1]!
 8014298:	f7f8 f86a 	bl	800c370 <__aeabi_dmul>
 801429c:	460d      	mov	r5, r1
 801429e:	4604      	mov	r4, r0
 80142a0:	f7f8 fb00 	bl	800c8a4 <__aeabi_d2iz>
 80142a4:	4683      	mov	fp, r0
 80142a6:	f7f7 fffd 	bl	800c2a4 <__aeabi_i2d>
 80142aa:	4602      	mov	r2, r0
 80142ac:	460b      	mov	r3, r1
 80142ae:	4620      	mov	r0, r4
 80142b0:	4629      	mov	r1, r5
 80142b2:	f7f7 fea9 	bl	800c008 <__aeabi_dsub>
 80142b6:	f10b 0230 	add.w	r2, fp, #48	; 0x30
 80142ba:	f807 2f01 	strb.w	r2, [r7, #1]!
 80142be:	42b7      	cmp	r7, r6
 80142c0:	d1cf      	bne.n	8014262 <_dtoa_r+0x10c2>
 80142c2:	4682      	mov	sl, r0
 80142c4:	468b      	mov	fp, r1
 80142c6:	9b18      	ldr	r3, [sp, #96]	; 0x60
 80142c8:	4498      	add	r8, r3
 80142ca:	2300      	movs	r3, #0
 80142cc:	2200      	movs	r2, #0
 80142ce:	f6c3 73e0 	movt	r3, #16352	; 0x3fe0
 80142d2:	e9dd 0114 	ldrd	r0, r1, [sp, #80]	; 0x50
 80142d6:	f7f7 fe99 	bl	800c00c <__adddf3>
 80142da:	4652      	mov	r2, sl
 80142dc:	465b      	mov	r3, fp
 80142de:	f7f8 fab9 	bl	800c854 <__aeabi_dcmplt>
 80142e2:	2800      	cmp	r0, #0
 80142e4:	d049      	beq.n	801437a <_dtoa_r+0x11da>
 80142e6:	9d19      	ldr	r5, [sp, #100]	; 0x64
 80142e8:	f818 bc01 	ldrb.w	fp, [r8, #-1]
 80142ec:	9506      	str	r5, [sp, #24]
 80142ee:	f7ff b955 	b.w	801359c <_dtoa_r+0x3fc>
 80142f2:	2700      	movs	r7, #0
 80142f4:	970b      	str	r7, [sp, #44]	; 0x2c
 80142f6:	e654      	b.n	8013fa2 <_dtoa_r+0xe02>
 80142f8:	9a0c      	ldr	r2, [sp, #48]	; 0x30
 80142fa:	2700      	movs	r7, #0
 80142fc:	1b14      	subs	r4, r2, r4
 80142fe:	f7ff b9c6 	b.w	801368e <_dtoa_r+0x4ee>
 8014302:	9b1a      	ldr	r3, [sp, #104]	; 0x68
 8014304:	9d0e      	ldr	r5, [sp, #56]	; 0x38
 8014306:	9c0c      	ldr	r4, [sp, #48]	; 0x30
 8014308:	f1c3 0736 	rsb	r7, r3, #54	; 0x36
 801430c:	f7ff b9bf 	b.w	801368e <_dtoa_r+0x4ee>
 8014310:	4655      	mov	r5, sl
 8014312:	f7ff ba09 	b.w	8013728 <_dtoa_r+0x588>
 8014316:	e9dd ab12 	ldrd	sl, fp, [sp, #72]	; 0x48
 801431a:	2702      	movs	r7, #2
 801431c:	f7ff bbd1 	b.w	8013ac2 <_dtoa_r+0x922>
 8014320:	9d09      	ldr	r5, [sp, #36]	; 0x24
 8014322:	2d00      	cmp	r5, #0
 8014324:	f43f ae52 	beq.w	8013fcc <_dtoa_r+0xe2c>
 8014328:	9b11      	ldr	r3, [sp, #68]	; 0x44
 801432a:	2b00      	cmp	r3, #0
 801432c:	f77f aed4 	ble.w	80140d8 <_dtoa_r+0xf38>
 8014330:	2300      	movs	r3, #0
 8014332:	2200      	movs	r2, #0
 8014334:	f2c4 0324 	movt	r3, #16420	; 0x4024
 8014338:	4650      	mov	r0, sl
 801433a:	4659      	mov	r1, fp
 801433c:	f7f8 f818 	bl	800c370 <__aeabi_dmul>
 8014340:	4682      	mov	sl, r0
 8014342:	1c78      	adds	r0, r7, #1
 8014344:	468b      	mov	fp, r1
 8014346:	f7f7 ffad 	bl	800c2a4 <__aeabi_i2d>
 801434a:	4602      	mov	r2, r0
 801434c:	460b      	mov	r3, r1
 801434e:	4650      	mov	r0, sl
 8014350:	4659      	mov	r1, fp
 8014352:	f7f8 f80d 	bl	800c370 <__aeabi_dmul>
 8014356:	2300      	movs	r3, #0
 8014358:	2200      	movs	r2, #0
 801435a:	f2c4 031c 	movt	r3, #16412	; 0x401c
 801435e:	f7f7 fe55 	bl	800c00c <__adddf3>
 8014362:	f8dd c018 	ldr.w	ip, [sp, #24]
 8014366:	9e11      	ldr	r6, [sp, #68]	; 0x44
 8014368:	f10c 3eff 	add.w	lr, ip, #4294967295
 801436c:	4604      	mov	r4, r0
 801436e:	f8cd e064 	str.w	lr, [sp, #100]	; 0x64
 8014372:	f1a1 7550 	sub.w	r5, r1, #54525952	; 0x3400000
 8014376:	f7ff bbc8 	b.w	8013b0a <_dtoa_r+0x96a>
 801437a:	2100      	movs	r1, #0
 801437c:	e9dd 2314 	ldrd	r2, r3, [sp, #80]	; 0x50
 8014380:	2000      	movs	r0, #0
 8014382:	f6c3 71e0 	movt	r1, #16352	; 0x3fe0
 8014386:	f7f7 fe3f 	bl	800c008 <__aeabi_dsub>
 801438a:	4652      	mov	r2, sl
 801438c:	465b      	mov	r3, fp
 801438e:	f7f8 fa7f 	bl	800c890 <__aeabi_dcmpgt>
 8014392:	2800      	cmp	r0, #0
 8014394:	f43f aea0 	beq.w	80140d8 <_dtoa_r+0xf38>
 8014398:	4641      	mov	r1, r8
 801439a:	4688      	mov	r8, r1
 801439c:	f101 31ff 	add.w	r1, r1, #4294967295
 80143a0:	f818 0c01 	ldrb.w	r0, [r8, #-1]
 80143a4:	2830      	cmp	r0, #48	; 0x30
 80143a6:	d0f8      	beq.n	801439a <_dtoa_r+0x11fa>
 80143a8:	e512      	b.n	8013dd0 <_dtoa_r+0xc30>
 80143aa:	f8dd 9050 	ldr.w	r9, [sp, #80]	; 0x50
 80143ae:	9919      	ldr	r1, [sp, #100]	; 0x64
 80143b0:	9106      	str	r1, [sp, #24]
 80143b2:	f7ff b8f3 	b.w	801359c <_dtoa_r+0x3fc>
 80143b6:	f47f ad87 	bne.w	8013ec8 <_dtoa_r+0xd28>
 80143ba:	f01b 0f01 	tst.w	fp, #1
 80143be:	f43f ad83 	beq.w	8013ec8 <_dtoa_r+0xd28>
 80143c2:	e66c      	b.n	801409e <_dtoa_r+0xefe>
 80143c4:	08015880 	.word	0x08015880
 80143c8:	08015948 	.word	0x08015948
 80143cc:	4648      	mov	r0, r9
 80143ce:	990b      	ldr	r1, [sp, #44]	; 0x2c
 80143d0:	220a      	movs	r2, #10
 80143d2:	2300      	movs	r3, #0
 80143d4:	f000 fa00 	bl	80147d8 <__multadd>
 80143d8:	900b      	str	r0, [sp, #44]	; 0x2c
 80143da:	9811      	ldr	r0, [sp, #68]	; 0x44
 80143dc:	9009      	str	r0, [sp, #36]	; 0x24
 80143de:	f7ff b9d4 	b.w	801378a <_dtoa_r+0x5ea>
 80143e2:	2700      	movs	r7, #0
 80143e4:	e61f      	b.n	8014026 <_dtoa_r+0xe86>
 80143e6:	2702      	movs	r7, #2
 80143e8:	f7ff bb6b 	b.w	8013ac2 <_dtoa_r+0x922>
 80143ec:	2501      	movs	r5, #1
 80143ee:	f7fe bfbc 	b.w	801336a <_dtoa_r+0x1ca>
 80143f2:	f43f a9b5 	beq.w	8013760 <_dtoa_r+0x5c0>
 80143f6:	f1c0 033c 	rsb	r3, r0, #60	; 0x3c
 80143fa:	f7ff ba70 	b.w	80138de <_dtoa_r+0x73e>
 80143fe:	bf00      	nop

08014400 <_malloc_trim_r>:
 8014400:	b5f8      	push	{r3, r4, r5, r6, r7, lr}
 8014402:	4d22      	ldr	r5, [pc, #136]	; (801448c <_malloc_trim_r+0x8c>)
 8014404:	460f      	mov	r7, r1
 8014406:	4604      	mov	r4, r0
 8014408:	f7fc ff5c 	bl	80112c4 <__malloc_lock>
 801440c:	68ab      	ldr	r3, [r5, #8]
 801440e:	685e      	ldr	r6, [r3, #4]
 8014410:	f026 0603 	bic.w	r6, r6, #3
 8014414:	f606 70ef 	addw	r0, r6, #4079	; 0xfef
 8014418:	1bc1      	subs	r1, r0, r7
 801441a:	0b0a      	lsrs	r2, r1, #12
 801441c:	1e57      	subs	r7, r2, #1
 801441e:	033f      	lsls	r7, r7, #12
 8014420:	f5b7 5f80 	cmp.w	r7, #4096	; 0x1000
 8014424:	db07      	blt.n	8014436 <_malloc_trim_r+0x36>
 8014426:	2100      	movs	r1, #0
 8014428:	4620      	mov	r0, r4
 801442a:	f7fc ff4f 	bl	80112cc <_sbrk_r>
 801442e:	68ab      	ldr	r3, [r5, #8]
 8014430:	1999      	adds	r1, r3, r6
 8014432:	4288      	cmp	r0, r1
 8014434:	d004      	beq.n	8014440 <_malloc_trim_r+0x40>
 8014436:	4620      	mov	r0, r4
 8014438:	f7fc ff46 	bl	80112c8 <__malloc_unlock>
 801443c:	2000      	movs	r0, #0
 801443e:	bdf8      	pop	{r3, r4, r5, r6, r7, pc}
 8014440:	4279      	negs	r1, r7
 8014442:	4620      	mov	r0, r4
 8014444:	f7fc ff42 	bl	80112cc <_sbrk_r>
 8014448:	3001      	adds	r0, #1
 801444a:	d00d      	beq.n	8014468 <_malloc_trim_r+0x68>
 801444c:	4b10      	ldr	r3, [pc, #64]	; (8014490 <_malloc_trim_r+0x90>)
 801444e:	68a8      	ldr	r0, [r5, #8]
 8014450:	681a      	ldr	r2, [r3, #0]
 8014452:	1bf6      	subs	r6, r6, r7
 8014454:	f046 0601 	orr.w	r6, r6, #1
 8014458:	1bd7      	subs	r7, r2, r7
 801445a:	6046      	str	r6, [r0, #4]
 801445c:	4620      	mov	r0, r4
 801445e:	601f      	str	r7, [r3, #0]
 8014460:	f7fc ff32 	bl	80112c8 <__malloc_unlock>
 8014464:	2001      	movs	r0, #1
 8014466:	bdf8      	pop	{r3, r4, r5, r6, r7, pc}
 8014468:	2100      	movs	r1, #0
 801446a:	4620      	mov	r0, r4
 801446c:	f7fc ff2e 	bl	80112cc <_sbrk_r>
 8014470:	68ab      	ldr	r3, [r5, #8]
 8014472:	1ac2      	subs	r2, r0, r3
 8014474:	2a0f      	cmp	r2, #15
 8014476:	ddde      	ble.n	8014436 <_malloc_trim_r+0x36>
 8014478:	4906      	ldr	r1, [pc, #24]	; (8014494 <_malloc_trim_r+0x94>)
 801447a:	6809      	ldr	r1, [r1, #0]
 801447c:	1a40      	subs	r0, r0, r1
 801447e:	4904      	ldr	r1, [pc, #16]	; (8014490 <_malloc_trim_r+0x90>)
 8014480:	f042 0201 	orr.w	r2, r2, #1
 8014484:	6008      	str	r0, [r1, #0]
 8014486:	605a      	str	r2, [r3, #4]
 8014488:	e7d5      	b.n	8014436 <_malloc_trim_r+0x36>
 801448a:	bf00      	nop
 801448c:	10000454 	.word	0x10000454
 8014490:	10000b14 	.word	0x10000b14
 8014494:	10000860 	.word	0x10000860

08014498 <_free_r>:
 8014498:	e92d 41f0 	stmdb	sp!, {r4, r5, r6, r7, r8, lr}
 801449c:	460d      	mov	r5, r1
 801449e:	4606      	mov	r6, r0
 80144a0:	2900      	cmp	r1, #0
 80144a2:	d055      	beq.n	8014550 <_free_r+0xb8>
 80144a4:	f7fc ff0e 	bl	80112c4 <__malloc_lock>
 80144a8:	f855 1c04 	ldr.w	r1, [r5, #-4]
 80144ac:	f8df c16c 	ldr.w	ip, [pc, #364]	; 801461c <_free_r+0x184>
 80144b0:	f1a5 0408 	sub.w	r4, r5, #8
 80144b4:	f021 0301 	bic.w	r3, r1, #1
 80144b8:	18e2      	adds	r2, r4, r3
 80144ba:	f8dc 0008 	ldr.w	r0, [ip, #8]
 80144be:	6857      	ldr	r7, [r2, #4]
 80144c0:	4290      	cmp	r0, r2
 80144c2:	f027 0703 	bic.w	r7, r7, #3
 80144c6:	d065      	beq.n	8014594 <_free_r+0xfc>
 80144c8:	f011 0101 	ands.w	r1, r1, #1
 80144cc:	6057      	str	r7, [r2, #4]
 80144ce:	d032      	beq.n	8014536 <_free_r+0x9e>
 80144d0:	2100      	movs	r1, #0
 80144d2:	19d0      	adds	r0, r2, r7
 80144d4:	6840      	ldr	r0, [r0, #4]
 80144d6:	07c0      	lsls	r0, r0, #31
 80144d8:	d406      	bmi.n	80144e8 <_free_r+0x50>
 80144da:	19db      	adds	r3, r3, r7
 80144dc:	6890      	ldr	r0, [r2, #8]
 80144de:	2900      	cmp	r1, #0
 80144e0:	d04a      	beq.n	8014578 <_free_r+0xe0>
 80144e2:	68d2      	ldr	r2, [r2, #12]
 80144e4:	60c2      	str	r2, [r0, #12]
 80144e6:	6090      	str	r0, [r2, #8]
 80144e8:	f043 0001 	orr.w	r0, r3, #1
 80144ec:	6060      	str	r0, [r4, #4]
 80144ee:	50e3      	str	r3, [r4, r3]
 80144f0:	b9e1      	cbnz	r1, 801452c <_free_r+0x94>
 80144f2:	f5b3 7f00 	cmp.w	r3, #512	; 0x200
 80144f6:	d32d      	bcc.n	8014554 <_free_r+0xbc>
 80144f8:	0a5a      	lsrs	r2, r3, #9
 80144fa:	2a04      	cmp	r2, #4
 80144fc:	d866      	bhi.n	80145cc <_free_r+0x134>
 80144fe:	0998      	lsrs	r0, r3, #6
 8014500:	3038      	adds	r0, #56	; 0x38
 8014502:	0042      	lsls	r2, r0, #1
 8014504:	eb0c 0e82 	add.w	lr, ip, r2, lsl #2
 8014508:	4944      	ldr	r1, [pc, #272]	; (801461c <_free_r+0x184>)
 801450a:	f8de 2008 	ldr.w	r2, [lr, #8]
 801450e:	4572      	cmp	r2, lr
 8014510:	d062      	beq.n	80145d8 <_free_r+0x140>
 8014512:	6850      	ldr	r0, [r2, #4]
 8014514:	f020 0103 	bic.w	r1, r0, #3
 8014518:	428b      	cmp	r3, r1
 801451a:	d202      	bcs.n	8014522 <_free_r+0x8a>
 801451c:	6892      	ldr	r2, [r2, #8]
 801451e:	4596      	cmp	lr, r2
 8014520:	d1f7      	bne.n	8014512 <_free_r+0x7a>
 8014522:	68d0      	ldr	r0, [r2, #12]
 8014524:	60e0      	str	r0, [r4, #12]
 8014526:	60a2      	str	r2, [r4, #8]
 8014528:	60d4      	str	r4, [r2, #12]
 801452a:	6084      	str	r4, [r0, #8]
 801452c:	4630      	mov	r0, r6
 801452e:	e8bd 41f0 	ldmia.w	sp!, {r4, r5, r6, r7, r8, lr}
 8014532:	f7fc bec9 	b.w	80112c8 <__malloc_unlock>
 8014536:	f855 5c08 	ldr.w	r5, [r5, #-8]
 801453a:	1b64      	subs	r4, r4, r5
 801453c:	f10c 0808 	add.w	r8, ip, #8
 8014540:	68a0      	ldr	r0, [r4, #8]
 8014542:	4540      	cmp	r0, r8
 8014544:	442b      	add	r3, r5
 8014546:	d03f      	beq.n	80145c8 <_free_r+0x130>
 8014548:	68e5      	ldr	r5, [r4, #12]
 801454a:	60c5      	str	r5, [r0, #12]
 801454c:	60a8      	str	r0, [r5, #8]
 801454e:	e7c0      	b.n	80144d2 <_free_r+0x3a>
 8014550:	e8bd 81f0 	ldmia.w	sp!, {r4, r5, r6, r7, r8, pc}
 8014554:	08dd      	lsrs	r5, r3, #3
 8014556:	eb0c 02c5 	add.w	r2, ip, r5, lsl #3
 801455a:	f8dc 0004 	ldr.w	r0, [ip, #4]
 801455e:	6891      	ldr	r1, [r2, #8]
 8014560:	60e2      	str	r2, [r4, #12]
 8014562:	10ab      	asrs	r3, r5, #2
 8014564:	2501      	movs	r5, #1
 8014566:	fa05 f303 	lsl.w	r3, r5, r3
 801456a:	4318      	orrs	r0, r3
 801456c:	60a1      	str	r1, [r4, #8]
 801456e:	f8cc 0004 	str.w	r0, [ip, #4]
 8014572:	6094      	str	r4, [r2, #8]
 8014574:	60cc      	str	r4, [r1, #12]
 8014576:	e7d9      	b.n	801452c <_free_r+0x94>
 8014578:	4d29      	ldr	r5, [pc, #164]	; (8014620 <_free_r+0x188>)
 801457a:	42a8      	cmp	r0, r5
 801457c:	d1b1      	bne.n	80144e2 <_free_r+0x4a>
 801457e:	f043 0201 	orr.w	r2, r3, #1
 8014582:	f8cc 4014 	str.w	r4, [ip, #20]
 8014586:	f8cc 4010 	str.w	r4, [ip, #16]
 801458a:	60e0      	str	r0, [r4, #12]
 801458c:	60a0      	str	r0, [r4, #8]
 801458e:	6062      	str	r2, [r4, #4]
 8014590:	50e3      	str	r3, [r4, r3]
 8014592:	e7cb      	b.n	801452c <_free_r+0x94>
 8014594:	18ff      	adds	r7, r7, r3
 8014596:	07cb      	lsls	r3, r1, #31
 8014598:	d407      	bmi.n	80145aa <_free_r+0x112>
 801459a:	f855 1c08 	ldr.w	r1, [r5, #-8]
 801459e:	1a64      	subs	r4, r4, r1
 80145a0:	187f      	adds	r7, r7, r1
 80145a2:	68e3      	ldr	r3, [r4, #12]
 80145a4:	68a0      	ldr	r0, [r4, #8]
 80145a6:	60c3      	str	r3, [r0, #12]
 80145a8:	6098      	str	r0, [r3, #8]
 80145aa:	4a1e      	ldr	r2, [pc, #120]	; (8014624 <_free_r+0x18c>)
 80145ac:	f8cc 4008 	str.w	r4, [ip, #8]
 80145b0:	6811      	ldr	r1, [r2, #0]
 80145b2:	f047 0301 	orr.w	r3, r7, #1
 80145b6:	428f      	cmp	r7, r1
 80145b8:	6063      	str	r3, [r4, #4]
 80145ba:	d3b7      	bcc.n	801452c <_free_r+0x94>
 80145bc:	4a1a      	ldr	r2, [pc, #104]	; (8014628 <_free_r+0x190>)
 80145be:	4630      	mov	r0, r6
 80145c0:	6811      	ldr	r1, [r2, #0]
 80145c2:	f7ff ff1d 	bl	8014400 <_malloc_trim_r>
 80145c6:	e7b1      	b.n	801452c <_free_r+0x94>
 80145c8:	2101      	movs	r1, #1
 80145ca:	e782      	b.n	80144d2 <_free_r+0x3a>
 80145cc:	2a14      	cmp	r2, #20
 80145ce:	d80c      	bhi.n	80145ea <_free_r+0x152>
 80145d0:	f102 005b 	add.w	r0, r2, #91	; 0x5b
 80145d4:	0042      	lsls	r2, r0, #1
 80145d6:	e795      	b.n	8014504 <_free_r+0x6c>
 80145d8:	684b      	ldr	r3, [r1, #4]
 80145da:	1080      	asrs	r0, r0, #2
 80145dc:	2501      	movs	r5, #1
 80145de:	fa05 f000 	lsl.w	r0, r5, r0
 80145e2:	4303      	orrs	r3, r0
 80145e4:	604b      	str	r3, [r1, #4]
 80145e6:	4610      	mov	r0, r2
 80145e8:	e79c      	b.n	8014524 <_free_r+0x8c>
 80145ea:	2a54      	cmp	r2, #84	; 0x54
 80145ec:	d803      	bhi.n	80145f6 <_free_r+0x15e>
 80145ee:	0b18      	lsrs	r0, r3, #12
 80145f0:	306e      	adds	r0, #110	; 0x6e
 80145f2:	0042      	lsls	r2, r0, #1
 80145f4:	e786      	b.n	8014504 <_free_r+0x6c>
 80145f6:	f5b2 7faa 	cmp.w	r2, #340	; 0x154
 80145fa:	d803      	bhi.n	8014604 <_free_r+0x16c>
 80145fc:	0bd8      	lsrs	r0, r3, #15
 80145fe:	3077      	adds	r0, #119	; 0x77
 8014600:	0042      	lsls	r2, r0, #1
 8014602:	e77f      	b.n	8014504 <_free_r+0x6c>
 8014604:	f240 5154 	movw	r1, #1364	; 0x554
 8014608:	428a      	cmp	r2, r1
 801460a:	d803      	bhi.n	8014614 <_free_r+0x17c>
 801460c:	0c98      	lsrs	r0, r3, #18
 801460e:	307c      	adds	r0, #124	; 0x7c
 8014610:	0042      	lsls	r2, r0, #1
 8014612:	e777      	b.n	8014504 <_free_r+0x6c>
 8014614:	22fc      	movs	r2, #252	; 0xfc
 8014616:	207e      	movs	r0, #126	; 0x7e
 8014618:	e774      	b.n	8014504 <_free_r+0x6c>
 801461a:	bf00      	nop
 801461c:	10000454 	.word	0x10000454
 8014620:	1000045c 	.word	0x1000045c
 8014624:	1000085c 	.word	0x1000085c
 8014628:	10000b10 	.word	0x10000b10

0801462c <_localeconv_r>:
 801462c:	f640 0064 	movw	r0, #2148	; 0x864
 8014630:	f2c1 0000 	movt	r0, #4096	; 0x1000
 8014634:	4770      	bx	lr
 8014636:	bf00      	nop

08014638 <memchr>:
 8014638:	0783      	lsls	r3, r0, #30
 801463a:	b4f0      	push	{r4, r5, r6, r7}
 801463c:	b2c9      	uxtb	r1, r1
 801463e:	f000 8096 	beq.w	801476e <memchr+0x136>
 8014642:	1e53      	subs	r3, r2, #1
 8014644:	2a00      	cmp	r2, #0
 8014646:	f000 8094 	beq.w	8014772 <memchr+0x13a>
 801464a:	7802      	ldrb	r2, [r0, #0]
 801464c:	428a      	cmp	r2, r1
 801464e:	d00b      	beq.n	8014668 <memchr+0x30>
 8014650:	1c42      	adds	r2, r0, #1
 8014652:	07d8      	lsls	r0, r3, #31
 8014654:	d51a      	bpl.n	801468c <memchr+0x54>
 8014656:	f012 0f03 	tst.w	r2, #3
 801465a:	4610      	mov	r0, r2
 801465c:	d01c      	beq.n	8014698 <memchr+0x60>
 801465e:	7814      	ldrb	r4, [r2, #0]
 8014660:	3b01      	subs	r3, #1
 8014662:	3201      	adds	r2, #1
 8014664:	428c      	cmp	r4, r1
 8014666:	d111      	bne.n	801468c <memchr+0x54>
 8014668:	bcf0      	pop	{r4, r5, r6, r7}
 801466a:	4770      	bx	lr
 801466c:	2b00      	cmp	r3, #0
 801466e:	d07c      	beq.n	801476a <memchr+0x132>
 8014670:	7812      	ldrb	r2, [r2, #0]
 8014672:	3b01      	subs	r3, #1
 8014674:	428a      	cmp	r2, r1
 8014676:	d0f7      	beq.n	8014668 <memchr+0x30>
 8014678:	f014 0f03 	tst.w	r4, #3
 801467c:	4620      	mov	r0, r4
 801467e:	f104 0201 	add.w	r2, r4, #1
 8014682:	d009      	beq.n	8014698 <memchr+0x60>
 8014684:	7824      	ldrb	r4, [r4, #0]
 8014686:	3b01      	subs	r3, #1
 8014688:	428c      	cmp	r4, r1
 801468a:	d0ed      	beq.n	8014668 <memchr+0x30>
 801468c:	f012 0f03 	tst.w	r2, #3
 8014690:	4610      	mov	r0, r2
 8014692:	f102 0401 	add.w	r4, r2, #1
 8014696:	d1e9      	bne.n	801466c <memchr+0x34>
 8014698:	2b03      	cmp	r3, #3
 801469a:	d93f      	bls.n	801471c <memchr+0xe4>
 801469c:	6804      	ldr	r4, [r0, #0]
 801469e:	ea41 2501 	orr.w	r5, r1, r1, lsl #8
 80146a2:	ea45 4505 	orr.w	r5, r5, r5, lsl #16
 80146a6:	ea85 0704 	eor.w	r7, r5, r4
 80146aa:	f1a7 3201 	sub.w	r2, r7, #16843009	; 0x1010101
 80146ae:	ea22 0207 	bic.w	r2, r2, r7
 80146b2:	1f1e      	subs	r6, r3, #4
 80146b4:	1d04      	adds	r4, r0, #4
 80146b6:	f012 3f80 	tst.w	r2, #2155905152	; 0x80808080
 80146ba:	f3c6 0780 	ubfx	r7, r6, #2, #1
 80146be:	d12d      	bne.n	801471c <memchr+0xe4>
 80146c0:	2e03      	cmp	r6, #3
 80146c2:	4633      	mov	r3, r6
 80146c4:	d929      	bls.n	801471a <memchr+0xe2>
 80146c6:	b167      	cbz	r7, 80146e2 <memchr+0xaa>
 80146c8:	4620      	mov	r0, r4
 80146ca:	3404      	adds	r4, #4
 80146cc:	6806      	ldr	r6, [r0, #0]
 80146ce:	ea85 0206 	eor.w	r2, r5, r6
 80146d2:	f1a2 3601 	sub.w	r6, r2, #16843009	; 0x1010101
 80146d6:	ea26 0202 	bic.w	r2, r6, r2
 80146da:	f012 3f80 	tst.w	r2, #2155905152	; 0x80808080
 80146de:	d019      	beq.n	8014714 <memchr+0xdc>
 80146e0:	e01c      	b.n	801471c <memchr+0xe4>
 80146e2:	1d26      	adds	r6, r4, #4
 80146e4:	4620      	mov	r0, r4
 80146e6:	6824      	ldr	r4, [r4, #0]
 80146e8:	ea85 0204 	eor.w	r2, r5, r4
 80146ec:	f1a2 3401 	sub.w	r4, r2, #16843009	; 0x1010101
 80146f0:	ea24 0202 	bic.w	r2, r4, r2
 80146f4:	f012 3f80 	tst.w	r2, #2155905152	; 0x80808080
 80146f8:	d110      	bne.n	801471c <memchr+0xe4>
 80146fa:	6834      	ldr	r4, [r6, #0]
 80146fc:	ea85 0204 	eor.w	r2, r5, r4
 8014700:	f1a2 3401 	sub.w	r4, r2, #16843009	; 0x1010101
 8014704:	ea24 0202 	bic.w	r2, r4, r2
 8014708:	3b04      	subs	r3, #4
 801470a:	1d34      	adds	r4, r6, #4
 801470c:	f012 3f80 	tst.w	r2, #2155905152	; 0x80808080
 8014710:	4630      	mov	r0, r6
 8014712:	d103      	bne.n	801471c <memchr+0xe4>
 8014714:	3b04      	subs	r3, #4
 8014716:	2b03      	cmp	r3, #3
 8014718:	d8e3      	bhi.n	80146e2 <memchr+0xaa>
 801471a:	4620      	mov	r0, r4
 801471c:	1e5d      	subs	r5, r3, #1
 801471e:	b323      	cbz	r3, 801476a <memchr+0x132>
 8014720:	7803      	ldrb	r3, [r0, #0]
 8014722:	428b      	cmp	r3, r1
 8014724:	d0a0      	beq.n	8014668 <memchr+0x30>
 8014726:	1c43      	adds	r3, r0, #1
 8014728:	2200      	movs	r2, #0
 801472a:	07e8      	lsls	r0, r5, #31
 801472c:	d514      	bpl.n	8014758 <memchr+0x120>
 801472e:	4618      	mov	r0, r3
 8014730:	2201      	movs	r2, #1
 8014732:	7804      	ldrb	r4, [r0, #0]
 8014734:	3301      	adds	r3, #1
 8014736:	428c      	cmp	r4, r1
 8014738:	d096      	beq.n	8014668 <memchr+0x30>
 801473a:	4295      	cmp	r5, r2
 801473c:	4618      	mov	r0, r3
 801473e:	f103 0401 	add.w	r4, r3, #1
 8014742:	f102 0202 	add.w	r2, r2, #2
 8014746:	d00e      	beq.n	8014766 <memchr+0x12e>
 8014748:	781b      	ldrb	r3, [r3, #0]
 801474a:	428b      	cmp	r3, r1
 801474c:	d08c      	beq.n	8014668 <memchr+0x30>
 801474e:	1c63      	adds	r3, r4, #1
 8014750:	4620      	mov	r0, r4
 8014752:	7824      	ldrb	r4, [r4, #0]
 8014754:	428c      	cmp	r4, r1
 8014756:	d087      	beq.n	8014668 <memchr+0x30>
 8014758:	4295      	cmp	r5, r2
 801475a:	4618      	mov	r0, r3
 801475c:	f103 0401 	add.w	r4, r3, #1
 8014760:	f102 0202 	add.w	r2, r2, #2
 8014764:	d1f0      	bne.n	8014748 <memchr+0x110>
 8014766:	2000      	movs	r0, #0
 8014768:	e77e      	b.n	8014668 <memchr+0x30>
 801476a:	4618      	mov	r0, r3
 801476c:	e77c      	b.n	8014668 <memchr+0x30>
 801476e:	4613      	mov	r3, r2
 8014770:	e792      	b.n	8014698 <memchr+0x60>
 8014772:	4610      	mov	r0, r2
 8014774:	e778      	b.n	8014668 <memchr+0x30>
 8014776:	bf00      	nop

08014778 <_Balloc>:
 8014778:	6cc3      	ldr	r3, [r0, #76]	; 0x4c
 801477a:	b570      	push	{r4, r5, r6, lr}
 801477c:	4605      	mov	r5, r0
 801477e:	460c      	mov	r4, r1
 8014780:	b14b      	cbz	r3, 8014796 <_Balloc+0x1e>
 8014782:	f853 0024 	ldr.w	r0, [r3, r4, lsl #2]
 8014786:	b180      	cbz	r0, 80147aa <_Balloc+0x32>
 8014788:	6801      	ldr	r1, [r0, #0]
 801478a:	f843 1024 	str.w	r1, [r3, r4, lsl #2]
 801478e:	2300      	movs	r3, #0
 8014790:	6103      	str	r3, [r0, #16]
 8014792:	60c3      	str	r3, [r0, #12]
 8014794:	bd70      	pop	{r4, r5, r6, pc}
 8014796:	2104      	movs	r1, #4
 8014798:	2221      	movs	r2, #33	; 0x21
 801479a:	f000 fdab 	bl	80152f4 <_calloc_r>
 801479e:	4603      	mov	r3, r0
 80147a0:	64e8      	str	r0, [r5, #76]	; 0x4c
 80147a2:	2800      	cmp	r0, #0
 80147a4:	d1ed      	bne.n	8014782 <_Balloc+0xa>
 80147a6:	2000      	movs	r0, #0
 80147a8:	bd70      	pop	{r4, r5, r6, pc}
 80147aa:	2101      	movs	r1, #1
 80147ac:	fa01 f604 	lsl.w	r6, r1, r4
 80147b0:	1d72      	adds	r2, r6, #5
 80147b2:	4628      	mov	r0, r5
 80147b4:	0092      	lsls	r2, r2, #2
 80147b6:	f000 fd9d 	bl	80152f4 <_calloc_r>
 80147ba:	2800      	cmp	r0, #0
 80147bc:	d0f3      	beq.n	80147a6 <_Balloc+0x2e>
 80147be:	6044      	str	r4, [r0, #4]
 80147c0:	6086      	str	r6, [r0, #8]
 80147c2:	e7e4      	b.n	801478e <_Balloc+0x16>

080147c4 <_Bfree>:
 80147c4:	b131      	cbz	r1, 80147d4 <_Bfree+0x10>
 80147c6:	6cc3      	ldr	r3, [r0, #76]	; 0x4c
 80147c8:	684a      	ldr	r2, [r1, #4]
 80147ca:	f853 0022 	ldr.w	r0, [r3, r2, lsl #2]
 80147ce:	6008      	str	r0, [r1, #0]
 80147d0:	f843 1022 	str.w	r1, [r3, r2, lsl #2]
 80147d4:	4770      	bx	lr
 80147d6:	bf00      	nop

080147d8 <__multadd>:
 80147d8:	e92d 41f0 	stmdb	sp!, {r4, r5, r6, r7, r8, lr}
 80147dc:	460e      	mov	r6, r1
 80147de:	6949      	ldr	r1, [r1, #20]
 80147e0:	6937      	ldr	r7, [r6, #16]
 80147e2:	b28c      	uxth	r4, r1
 80147e4:	0c0d      	lsrs	r5, r1, #16
 80147e6:	fb02 3304 	mla	r3, r2, r4, r3
 80147ea:	fb02 f105 	mul.w	r1, r2, r5
 80147ee:	eb01 4513 	add.w	r5, r1, r3, lsr #16
 80147f2:	f106 0418 	add.w	r4, r6, #24
 80147f6:	b29b      	uxth	r3, r3
 80147f8:	eb03 4305 	add.w	r3, r3, r5, lsl #16
 80147fc:	f844 3c04 	str.w	r3, [r4, #-4]
 8014800:	2301      	movs	r3, #1
 8014802:	1e79      	subs	r1, r7, #1
 8014804:	0c2d      	lsrs	r5, r5, #16
 8014806:	429f      	cmp	r7, r3
 8014808:	4680      	mov	r8, r0
 801480a:	f001 0001 	and.w	r0, r1, #1
 801480e:	dd39      	ble.n	8014884 <__multadd+0xac>
 8014810:	b198      	cbz	r0, 801483a <__multadd+0x62>
 8014812:	6824      	ldr	r4, [r4, #0]
 8014814:	b2a3      	uxth	r3, r4
 8014816:	0c21      	lsrs	r1, r4, #16
 8014818:	fb02 5503 	mla	r5, r2, r3, r5
 801481c:	fb02 f101 	mul.w	r1, r2, r1
 8014820:	b2ab      	uxth	r3, r5
 8014822:	eb01 4015 	add.w	r0, r1, r5, lsr #16
 8014826:	eb03 4100 	add.w	r1, r3, r0, lsl #16
 801482a:	f106 041c 	add.w	r4, r6, #28
 801482e:	2302      	movs	r3, #2
 8014830:	0c05      	lsrs	r5, r0, #16
 8014832:	429f      	cmp	r7, r3
 8014834:	f844 1c04 	str.w	r1, [r4, #-4]
 8014838:	dd24      	ble.n	8014884 <__multadd+0xac>
 801483a:	6820      	ldr	r0, [r4, #0]
 801483c:	b281      	uxth	r1, r0
 801483e:	0c00      	lsrs	r0, r0, #16
 8014840:	fb02 5101 	mla	r1, r2, r1, r5
 8014844:	fb02 f000 	mul.w	r0, r2, r0
 8014848:	4625      	mov	r5, r4
 801484a:	eb00 4011 	add.w	r0, r0, r1, lsr #16
 801484e:	b289      	uxth	r1, r1
 8014850:	eb01 4100 	add.w	r1, r1, r0, lsl #16
 8014854:	f845 1b04 	str.w	r1, [r5], #4
 8014858:	6864      	ldr	r4, [r4, #4]
 801485a:	fa1f fc84 	uxth.w	ip, r4
 801485e:	0c21      	lsrs	r1, r4, #16
 8014860:	fb02 fc0c 	mul.w	ip, r2, ip
 8014864:	eb0c 4010 	add.w	r0, ip, r0, lsr #16
 8014868:	fb02 f101 	mul.w	r1, r2, r1
 801486c:	eb01 4110 	add.w	r1, r1, r0, lsr #16
 8014870:	462c      	mov	r4, r5
 8014872:	3302      	adds	r3, #2
 8014874:	b285      	uxth	r5, r0
 8014876:	eb05 4001 	add.w	r0, r5, r1, lsl #16
 801487a:	0c0d      	lsrs	r5, r1, #16
 801487c:	429f      	cmp	r7, r3
 801487e:	f844 0b04 	str.w	r0, [r4], #4
 8014882:	dcda      	bgt.n	801483a <__multadd+0x62>
 8014884:	b13d      	cbz	r5, 8014896 <__multadd+0xbe>
 8014886:	68b2      	ldr	r2, [r6, #8]
 8014888:	4297      	cmp	r7, r2
 801488a:	da07      	bge.n	801489c <__multadd+0xc4>
 801488c:	eb06 0287 	add.w	r2, r6, r7, lsl #2
 8014890:	3701      	adds	r7, #1
 8014892:	6155      	str	r5, [r2, #20]
 8014894:	6137      	str	r7, [r6, #16]
 8014896:	4630      	mov	r0, r6
 8014898:	e8bd 81f0 	ldmia.w	sp!, {r4, r5, r6, r7, r8, pc}
 801489c:	6873      	ldr	r3, [r6, #4]
 801489e:	4640      	mov	r0, r8
 80148a0:	1c59      	adds	r1, r3, #1
 80148a2:	f7ff ff69 	bl	8014778 <_Balloc>
 80148a6:	6931      	ldr	r1, [r6, #16]
 80148a8:	1c8a      	adds	r2, r1, #2
 80148aa:	4604      	mov	r4, r0
 80148ac:	f106 010c 	add.w	r1, r6, #12
 80148b0:	f100 000c 	add.w	r0, r0, #12
 80148b4:	0092      	lsls	r2, r2, #2
 80148b6:	f7fc fb01 	bl	8010ebc <memcpy>
 80148ba:	6870      	ldr	r0, [r6, #4]
 80148bc:	f8d8 304c 	ldr.w	r3, [r8, #76]	; 0x4c
 80148c0:	f853 1020 	ldr.w	r1, [r3, r0, lsl #2]
 80148c4:	6031      	str	r1, [r6, #0]
 80148c6:	f843 6020 	str.w	r6, [r3, r0, lsl #2]
 80148ca:	4626      	mov	r6, r4
 80148cc:	e7de      	b.n	801488c <__multadd+0xb4>
 80148ce:	bf00      	nop

080148d0 <__hi0bits>:
 80148d0:	0c02      	lsrs	r2, r0, #16
 80148d2:	4603      	mov	r3, r0
 80148d4:	d116      	bne.n	8014904 <__hi0bits+0x34>
 80148d6:	0403      	lsls	r3, r0, #16
 80148d8:	2010      	movs	r0, #16
 80148da:	f013 4f7f 	tst.w	r3, #4278190080	; 0xff000000
 80148de:	d101      	bne.n	80148e4 <__hi0bits+0x14>
 80148e0:	3008      	adds	r0, #8
 80148e2:	021b      	lsls	r3, r3, #8
 80148e4:	f013 4f70 	tst.w	r3, #4026531840	; 0xf0000000
 80148e8:	d101      	bne.n	80148ee <__hi0bits+0x1e>
 80148ea:	3004      	adds	r0, #4
 80148ec:	011b      	lsls	r3, r3, #4
 80148ee:	f013 4f40 	tst.w	r3, #3221225472	; 0xc0000000
 80148f2:	d101      	bne.n	80148f8 <__hi0bits+0x28>
 80148f4:	3002      	adds	r0, #2
 80148f6:	009b      	lsls	r3, r3, #2
 80148f8:	2b00      	cmp	r3, #0
 80148fa:	db02      	blt.n	8014902 <__hi0bits+0x32>
 80148fc:	005b      	lsls	r3, r3, #1
 80148fe:	d403      	bmi.n	8014908 <__hi0bits+0x38>
 8014900:	2020      	movs	r0, #32
 8014902:	4770      	bx	lr
 8014904:	2000      	movs	r0, #0
 8014906:	e7e8      	b.n	80148da <__hi0bits+0xa>
 8014908:	3001      	adds	r0, #1
 801490a:	4770      	bx	lr

0801490c <__lo0bits>:
 801490c:	6803      	ldr	r3, [r0, #0]
 801490e:	4602      	mov	r2, r0
 8014910:	f013 0007 	ands.w	r0, r3, #7
 8014914:	d007      	beq.n	8014926 <__lo0bits+0x1a>
 8014916:	07d9      	lsls	r1, r3, #31
 8014918:	d41f      	bmi.n	801495a <__lo0bits+0x4e>
 801491a:	0798      	lsls	r0, r3, #30
 801491c:	d41f      	bmi.n	801495e <__lo0bits+0x52>
 801491e:	0898      	lsrs	r0, r3, #2
 8014920:	6010      	str	r0, [r2, #0]
 8014922:	2002      	movs	r0, #2
 8014924:	4770      	bx	lr
 8014926:	b299      	uxth	r1, r3
 8014928:	b909      	cbnz	r1, 801492e <__lo0bits+0x22>
 801492a:	0c1b      	lsrs	r3, r3, #16
 801492c:	2010      	movs	r0, #16
 801492e:	f013 0fff 	tst.w	r3, #255	; 0xff
 8014932:	d101      	bne.n	8014938 <__lo0bits+0x2c>
 8014934:	3008      	adds	r0, #8
 8014936:	0a1b      	lsrs	r3, r3, #8
 8014938:	0719      	lsls	r1, r3, #28
 801493a:	d101      	bne.n	8014940 <__lo0bits+0x34>
 801493c:	3004      	adds	r0, #4
 801493e:	091b      	lsrs	r3, r3, #4
 8014940:	0799      	lsls	r1, r3, #30
 8014942:	d101      	bne.n	8014948 <__lo0bits+0x3c>
 8014944:	3002      	adds	r0, #2
 8014946:	089b      	lsrs	r3, r3, #2
 8014948:	07d9      	lsls	r1, r3, #31
 801494a:	d404      	bmi.n	8014956 <__lo0bits+0x4a>
 801494c:	085b      	lsrs	r3, r3, #1
 801494e:	d101      	bne.n	8014954 <__lo0bits+0x48>
 8014950:	2020      	movs	r0, #32
 8014952:	4770      	bx	lr
 8014954:	3001      	adds	r0, #1
 8014956:	6013      	str	r3, [r2, #0]
 8014958:	4770      	bx	lr
 801495a:	2000      	movs	r0, #0
 801495c:	4770      	bx	lr
 801495e:	0859      	lsrs	r1, r3, #1
 8014960:	6011      	str	r1, [r2, #0]
 8014962:	2001      	movs	r0, #1
 8014964:	4770      	bx	lr
 8014966:	bf00      	nop

08014968 <__i2b>:
 8014968:	b510      	push	{r4, lr}
 801496a:	460c      	mov	r4, r1
 801496c:	2101      	movs	r1, #1
 801496e:	f7ff ff03 	bl	8014778 <_Balloc>
 8014972:	2201      	movs	r2, #1
 8014974:	6144      	str	r4, [r0, #20]
 8014976:	6102      	str	r2, [r0, #16]
 8014978:	bd10      	pop	{r4, pc}
 801497a:	bf00      	nop

0801497c <__multiply>:
 801497c:	e92d 4ff0 	stmdb	sp!, {r4, r5, r6, r7, r8, r9, sl, fp, lr}
 8014980:	690c      	ldr	r4, [r1, #16]
 8014982:	6917      	ldr	r7, [r2, #16]
 8014984:	42bc      	cmp	r4, r7
 8014986:	b085      	sub	sp, #20
 8014988:	460e      	mov	r6, r1
 801498a:	4690      	mov	r8, r2
 801498c:	da04      	bge.n	8014998 <__multiply+0x1c>
 801498e:	4622      	mov	r2, r4
 8014990:	4646      	mov	r6, r8
 8014992:	463c      	mov	r4, r7
 8014994:	4688      	mov	r8, r1
 8014996:	4617      	mov	r7, r2
 8014998:	68b3      	ldr	r3, [r6, #8]
 801499a:	6871      	ldr	r1, [r6, #4]
 801499c:	19e2      	adds	r2, r4, r7
 801499e:	429a      	cmp	r2, r3
 80149a0:	bfc8      	it	gt
 80149a2:	3101      	addgt	r1, #1
 80149a4:	9201      	str	r2, [sp, #4]
 80149a6:	f7ff fee7 	bl	8014778 <_Balloc>
 80149aa:	9901      	ldr	r1, [sp, #4]
 80149ac:	9003      	str	r0, [sp, #12]
 80149ae:	eb00 0381 	add.w	r3, r0, r1, lsl #2
 80149b2:	3314      	adds	r3, #20
 80149b4:	3014      	adds	r0, #20
 80149b6:	4298      	cmp	r0, r3
 80149b8:	9302      	str	r3, [sp, #8]
 80149ba:	d21a      	bcs.n	80149f2 <__multiply+0x76>
 80149bc:	9902      	ldr	r1, [sp, #8]
 80149be:	9b03      	ldr	r3, [sp, #12]
 80149c0:	43c2      	mvns	r2, r0
 80149c2:	188a      	adds	r2, r1, r2
 80149c4:	9902      	ldr	r1, [sp, #8]
 80149c6:	3318      	adds	r3, #24
 80149c8:	2500      	movs	r5, #0
 80149ca:	4299      	cmp	r1, r3
 80149cc:	6005      	str	r5, [r0, #0]
 80149ce:	f3c2 0080 	ubfx	r0, r2, #2, #1
 80149d2:	d90e      	bls.n	80149f2 <__multiply+0x76>
 80149d4:	b128      	cbz	r0, 80149e2 <__multiply+0x66>
 80149d6:	601d      	str	r5, [r3, #0]
 80149d8:	9b03      	ldr	r3, [sp, #12]
 80149da:	9a02      	ldr	r2, [sp, #8]
 80149dc:	331c      	adds	r3, #28
 80149de:	429a      	cmp	r2, r3
 80149e0:	d907      	bls.n	80149f2 <__multiply+0x76>
 80149e2:	9802      	ldr	r0, [sp, #8]
 80149e4:	4619      	mov	r1, r3
 80149e6:	f841 5b04 	str.w	r5, [r1], #4
 80149ea:	605d      	str	r5, [r3, #4]
 80149ec:	1d0b      	adds	r3, r1, #4
 80149ee:	4298      	cmp	r0, r3
 80149f0:	d8f8      	bhi.n	80149e4 <__multiply+0x68>
 80149f2:	eb08 0387 	add.w	r3, r8, r7, lsl #2
 80149f6:	3314      	adds	r3, #20
 80149f8:	eb06 0484 	add.w	r4, r6, r4, lsl #2
 80149fc:	f108 0714 	add.w	r7, r8, #20
 8014a00:	3414      	adds	r4, #20
 8014a02:	429f      	cmp	r7, r3
 8014a04:	9300      	str	r3, [sp, #0]
 8014a06:	f106 0c14 	add.w	ip, r6, #20
 8014a0a:	f080 80f8 	bcs.w	8014bfe <__multiply+0x282>
 8014a0e:	9803      	ldr	r0, [sp, #12]
 8014a10:	3018      	adds	r0, #24
 8014a12:	f857 3b04 	ldr.w	r3, [r7], #4
 8014a16:	b29a      	uxth	r2, r3
 8014a18:	2a00      	cmp	r2, #0
 8014a1a:	d06e      	beq.n	8014afa <__multiply+0x17e>
 8014a1c:	4661      	mov	r1, ip
 8014a1e:	f850 5c04 	ldr.w	r5, [r0, #-4]
 8014a22:	f851 6b04 	ldr.w	r6, [r1], #4
 8014a26:	b2ab      	uxth	r3, r5
 8014a28:	fa1f f886 	uxth.w	r8, r6
 8014a2c:	0c2d      	lsrs	r5, r5, #16
 8014a2e:	0c36      	lsrs	r6, r6, #16
 8014a30:	fb02 3308 	mla	r3, r2, r8, r3
 8014a34:	fb02 5606 	mla	r6, r2, r6, r5
 8014a38:	eb06 4613 	add.w	r6, r6, r3, lsr #16
 8014a3c:	ea6f 050c 	mvn.w	r5, ip
 8014a40:	b29b      	uxth	r3, r3
 8014a42:	ea43 4306 	orr.w	r3, r3, r6, lsl #16
 8014a46:	1965      	adds	r5, r4, r5
 8014a48:	0c36      	lsrs	r6, r6, #16
 8014a4a:	428c      	cmp	r4, r1
 8014a4c:	f840 3c04 	str.w	r3, [r0, #-4]
 8014a50:	f3c5 0580 	ubfx	r5, r5, #2, #1
 8014a54:	4603      	mov	r3, r0
 8014a56:	d94d      	bls.n	8014af4 <__multiply+0x178>
 8014a58:	b1cd      	cbz	r5, 8014a8e <__multiply+0x112>
 8014a5a:	f8dc 5004 	ldr.w	r5, [ip, #4]
 8014a5e:	6803      	ldr	r3, [r0, #0]
 8014a60:	fa1f f985 	uxth.w	r9, r5
 8014a64:	fa1f f883 	uxth.w	r8, r3
 8014a68:	0c2d      	lsrs	r5, r5, #16
 8014a6a:	0c1b      	lsrs	r3, r3, #16
 8014a6c:	fb02 8809 	mla	r8, r2, r9, r8
 8014a70:	4446      	add	r6, r8
 8014a72:	fb02 3505 	mla	r5, r2, r5, r3
 8014a76:	eb05 4516 	add.w	r5, r5, r6, lsr #16
 8014a7a:	4603      	mov	r3, r0
 8014a7c:	b2b6      	uxth	r6, r6
 8014a7e:	ea46 4605 	orr.w	r6, r6, r5, lsl #16
 8014a82:	3104      	adds	r1, #4
 8014a84:	f843 6b04 	str.w	r6, [r3], #4
 8014a88:	0c2e      	lsrs	r6, r5, #16
 8014a8a:	428c      	cmp	r4, r1
 8014a8c:	d932      	bls.n	8014af4 <__multiply+0x178>
 8014a8e:	460d      	mov	r5, r1
 8014a90:	f8d3 e000 	ldr.w	lr, [r3]
 8014a94:	f855 9b04 	ldr.w	r9, [r5], #4
 8014a98:	fa1f fa8e 	uxth.w	sl, lr
 8014a9c:	fa1f fb89 	uxth.w	fp, r9
 8014aa0:	fb02 aa0b 	mla	sl, r2, fp, sl
 8014aa4:	ea4f 4919 	mov.w	r9, r9, lsr #16
 8014aa8:	ea4f 481e 	mov.w	r8, lr, lsr #16
 8014aac:	4456      	add	r6, sl
 8014aae:	fb02 8e09 	mla	lr, r2, r9, r8
 8014ab2:	eb0e 4916 	add.w	r9, lr, r6, lsr #16
 8014ab6:	4698      	mov	r8, r3
 8014ab8:	b2b6      	uxth	r6, r6
 8014aba:	ea46 4609 	orr.w	r6, r6, r9, lsl #16
 8014abe:	f848 6b04 	str.w	r6, [r8], #4
 8014ac2:	684e      	ldr	r6, [r1, #4]
 8014ac4:	685b      	ldr	r3, [r3, #4]
 8014ac6:	fa1f fa86 	uxth.w	sl, r6
 8014aca:	b299      	uxth	r1, r3
 8014acc:	0c36      	lsrs	r6, r6, #16
 8014ace:	0c1b      	lsrs	r3, r3, #16
 8014ad0:	fb02 110a 	mla	r1, r2, sl, r1
 8014ad4:	eb01 4119 	add.w	r1, r1, r9, lsr #16
 8014ad8:	fb02 3606 	mla	r6, r2, r6, r3
 8014adc:	eb06 4611 	add.w	r6, r6, r1, lsr #16
 8014ae0:	b289      	uxth	r1, r1
 8014ae2:	4643      	mov	r3, r8
 8014ae4:	ea41 4806 	orr.w	r8, r1, r6, lsl #16
 8014ae8:	1d29      	adds	r1, r5, #4
 8014aea:	0c36      	lsrs	r6, r6, #16
 8014aec:	428c      	cmp	r4, r1
 8014aee:	f843 8b04 	str.w	r8, [r3], #4
 8014af2:	d8cc      	bhi.n	8014a8e <__multiply+0x112>
 8014af4:	601e      	str	r6, [r3, #0]
 8014af6:	f857 3c04 	ldr.w	r3, [r7, #-4]
 8014afa:	0c1a      	lsrs	r2, r3, #16
 8014afc:	d07a      	beq.n	8014bf4 <__multiply+0x278>
 8014afe:	f850 6c04 	ldr.w	r6, [r0, #-4]
 8014b02:	f8bc 5000 	ldrh.w	r5, [ip]
 8014b06:	0c31      	lsrs	r1, r6, #16
 8014b08:	fb02 1505 	mla	r5, r2, r5, r1
 8014b0c:	b2b3      	uxth	r3, r6
 8014b0e:	ea43 4605 	orr.w	r6, r3, r5, lsl #16
 8014b12:	46e1      	mov	r9, ip
 8014b14:	4603      	mov	r3, r0
 8014b16:	f840 6c04 	str.w	r6, [r0, #-4]
 8014b1a:	f859 1b04 	ldr.w	r1, [r9], #4
 8014b1e:	f853 6b04 	ldr.w	r6, [r3], #4
 8014b22:	0c09      	lsrs	r1, r1, #16
 8014b24:	fa1f fa86 	uxth.w	sl, r6
 8014b28:	fb02 a101 	mla	r1, r2, r1, sl
 8014b2c:	ea6f 0e0c 	mvn.w	lr, ip
 8014b30:	eb04 080e 	add.w	r8, r4, lr
 8014b34:	eb01 4115 	add.w	r1, r1, r5, lsr #16
 8014b38:	454c      	cmp	r4, r9
 8014b3a:	f3c8 0a80 	ubfx	sl, r8, #2, #1
 8014b3e:	4605      	mov	r5, r0
 8014b40:	ea4f 4811 	mov.w	r8, r1, lsr #16
 8014b44:	d955      	bls.n	8014bf2 <__multiply+0x276>
 8014b46:	f1ba 0f00 	cmp.w	sl, #0
 8014b4a:	d01b      	beq.n	8014b84 <__multiply+0x208>
 8014b4c:	f8bc 5004 	ldrh.w	r5, [ip, #4]
 8014b50:	0c36      	lsrs	r6, r6, #16
 8014b52:	fb02 6505 	mla	r5, r2, r5, r6
 8014b56:	eb05 0e08 	add.w	lr, r5, r8
 8014b5a:	b289      	uxth	r1, r1
 8014b5c:	ea41 460e 	orr.w	r6, r1, lr, lsl #16
 8014b60:	f843 6c04 	str.w	r6, [r3, #-4]
 8014b64:	f859 1b04 	ldr.w	r1, [r9], #4
 8014b68:	461d      	mov	r5, r3
 8014b6a:	f853 6b04 	ldr.w	r6, [r3], #4
 8014b6e:	0c09      	lsrs	r1, r1, #16
 8014b70:	fa1f fa86 	uxth.w	sl, r6
 8014b74:	fb02 a101 	mla	r1, r2, r1, sl
 8014b78:	eb01 411e 	add.w	r1, r1, lr, lsr #16
 8014b7c:	454c      	cmp	r4, r9
 8014b7e:	ea4f 4811 	mov.w	r8, r1, lsr #16
 8014b82:	d936      	bls.n	8014bf2 <__multiply+0x276>
 8014b84:	f8b9 b000 	ldrh.w	fp, [r9]
 8014b88:	0c35      	lsrs	r5, r6, #16
 8014b8a:	fb02 5a0b 	mla	sl, r2, fp, r5
 8014b8e:	44c2      	add	sl, r8
 8014b90:	b289      	uxth	r1, r1
 8014b92:	461d      	mov	r5, r3
 8014b94:	464e      	mov	r6, r9
 8014b96:	ea41 410a 	orr.w	r1, r1, sl, lsl #16
 8014b9a:	f843 1c04 	str.w	r1, [r3, #-4]
 8014b9e:	f856 eb04 	ldr.w	lr, [r6], #4
 8014ba2:	f855 1b04 	ldr.w	r1, [r5], #4
 8014ba6:	f8d9 8004 	ldr.w	r8, [r9, #4]
 8014baa:	fa1f fb81 	uxth.w	fp, r1
 8014bae:	ea4f 491e 	mov.w	r9, lr, lsr #16
 8014bb2:	0c09      	lsrs	r1, r1, #16
 8014bb4:	fb02 be09 	mla	lr, r2, r9, fp
 8014bb8:	fa1f f888 	uxth.w	r8, r8
 8014bbc:	eb0e 491a 	add.w	r9, lr, sl, lsr #16
 8014bc0:	fb02 1e08 	mla	lr, r2, r8, r1
 8014bc4:	eb0e 4819 	add.w	r8, lr, r9, lsr #16
 8014bc8:	fa1f f189 	uxth.w	r1, r9
 8014bcc:	46b1      	mov	r9, r6
 8014bce:	ea41 4608 	orr.w	r6, r1, r8, lsl #16
 8014bd2:	f845 6c04 	str.w	r6, [r5, #-4]
 8014bd6:	f859 1b04 	ldr.w	r1, [r9], #4
 8014bda:	685e      	ldr	r6, [r3, #4]
 8014bdc:	0c09      	lsrs	r1, r1, #16
 8014bde:	b2b3      	uxth	r3, r6
 8014be0:	fb02 3301 	mla	r3, r2, r1, r3
 8014be4:	eb03 4118 	add.w	r1, r3, r8, lsr #16
 8014be8:	1d2b      	adds	r3, r5, #4
 8014bea:	454c      	cmp	r4, r9
 8014bec:	ea4f 4811 	mov.w	r8, r1, lsr #16
 8014bf0:	d8c8      	bhi.n	8014b84 <__multiply+0x208>
 8014bf2:	6029      	str	r1, [r5, #0]
 8014bf4:	9a00      	ldr	r2, [sp, #0]
 8014bf6:	3004      	adds	r0, #4
 8014bf8:	42ba      	cmp	r2, r7
 8014bfa:	f63f af0a 	bhi.w	8014a12 <__multiply+0x96>
 8014bfe:	9901      	ldr	r1, [sp, #4]
 8014c00:	2900      	cmp	r1, #0
 8014c02:	dd1a      	ble.n	8014c3a <__multiply+0x2be>
 8014c04:	9b02      	ldr	r3, [sp, #8]
 8014c06:	f853 0c04 	ldr.w	r0, [r3, #-4]
 8014c0a:	3b04      	subs	r3, #4
 8014c0c:	b9a8      	cbnz	r0, 8014c3a <__multiply+0x2be>
 8014c0e:	9901      	ldr	r1, [sp, #4]
 8014c10:	1e4a      	subs	r2, r1, #1
 8014c12:	07d0      	lsls	r0, r2, #31
 8014c14:	d517      	bpl.n	8014c46 <__multiply+0x2ca>
 8014c16:	f853 0d04 	ldr.w	r0, [r3, #-4]!
 8014c1a:	9201      	str	r2, [sp, #4]
 8014c1c:	b968      	cbnz	r0, 8014c3a <__multiply+0x2be>
 8014c1e:	9a01      	ldr	r2, [sp, #4]
 8014c20:	e008      	b.n	8014c34 <__multiply+0x2b8>
 8014c22:	f853 1c04 	ldr.w	r1, [r3, #-4]
 8014c26:	3b04      	subs	r3, #4
 8014c28:	b931      	cbnz	r1, 8014c38 <__multiply+0x2bc>
 8014c2a:	f853 0c04 	ldr.w	r0, [r3, #-4]
 8014c2e:	3a01      	subs	r2, #1
 8014c30:	3b04      	subs	r3, #4
 8014c32:	b908      	cbnz	r0, 8014c38 <__multiply+0x2bc>
 8014c34:	3a01      	subs	r2, #1
 8014c36:	d1f4      	bne.n	8014c22 <__multiply+0x2a6>
 8014c38:	9201      	str	r2, [sp, #4]
 8014c3a:	9901      	ldr	r1, [sp, #4]
 8014c3c:	9803      	ldr	r0, [sp, #12]
 8014c3e:	6101      	str	r1, [r0, #16]
 8014c40:	b005      	add	sp, #20
 8014c42:	e8bd 8ff0 	ldmia.w	sp!, {r4, r5, r6, r7, r8, r9, sl, fp, pc}
 8014c46:	460a      	mov	r2, r1
 8014c48:	e7f4      	b.n	8014c34 <__multiply+0x2b8>
 8014c4a:	bf00      	nop

08014c4c <__pow5mult>:
 8014c4c:	f012 0303 	ands.w	r3, r2, #3
 8014c50:	e92d 41f0 	stmdb	sp!, {r4, r5, r6, r7, r8, lr}
 8014c54:	4614      	mov	r4, r2
 8014c56:	4680      	mov	r8, r0
 8014c58:	460f      	mov	r7, r1
 8014c5a:	d12b      	bne.n	8014cb4 <__pow5mult+0x68>
 8014c5c:	10a4      	asrs	r4, r4, #2
 8014c5e:	d01b      	beq.n	8014c98 <__pow5mult+0x4c>
 8014c60:	f8d8 6048 	ldr.w	r6, [r8, #72]	; 0x48
 8014c64:	b92e      	cbnz	r6, 8014c72 <__pow5mult+0x26>
 8014c66:	e02e      	b.n	8014cc6 <__pow5mult+0x7a>
 8014c68:	1064      	asrs	r4, r4, #1
 8014c6a:	d015      	beq.n	8014c98 <__pow5mult+0x4c>
 8014c6c:	6835      	ldr	r5, [r6, #0]
 8014c6e:	b1b5      	cbz	r5, 8014c9e <__pow5mult+0x52>
 8014c70:	462e      	mov	r6, r5
 8014c72:	07e3      	lsls	r3, r4, #31
 8014c74:	d5f8      	bpl.n	8014c68 <__pow5mult+0x1c>
 8014c76:	4639      	mov	r1, r7
 8014c78:	4632      	mov	r2, r6
 8014c7a:	4640      	mov	r0, r8
 8014c7c:	f7ff fe7e 	bl	801497c <__multiply>
 8014c80:	b1b7      	cbz	r7, 8014cb0 <__pow5mult+0x64>
 8014c82:	687a      	ldr	r2, [r7, #4]
 8014c84:	f8d8 304c 	ldr.w	r3, [r8, #76]	; 0x4c
 8014c88:	f853 1022 	ldr.w	r1, [r3, r2, lsl #2]
 8014c8c:	1064      	asrs	r4, r4, #1
 8014c8e:	6039      	str	r1, [r7, #0]
 8014c90:	f843 7022 	str.w	r7, [r3, r2, lsl #2]
 8014c94:	4607      	mov	r7, r0
 8014c96:	d1e9      	bne.n	8014c6c <__pow5mult+0x20>
 8014c98:	4638      	mov	r0, r7
 8014c9a:	e8bd 81f0 	ldmia.w	sp!, {r4, r5, r6, r7, r8, pc}
 8014c9e:	4631      	mov	r1, r6
 8014ca0:	4632      	mov	r2, r6
 8014ca2:	4640      	mov	r0, r8
 8014ca4:	f7ff fe6a 	bl	801497c <__multiply>
 8014ca8:	6030      	str	r0, [r6, #0]
 8014caa:	6005      	str	r5, [r0, #0]
 8014cac:	4606      	mov	r6, r0
 8014cae:	e7e0      	b.n	8014c72 <__pow5mult+0x26>
 8014cb0:	4607      	mov	r7, r0
 8014cb2:	e7d9      	b.n	8014c68 <__pow5mult+0x1c>
 8014cb4:	1e5d      	subs	r5, r3, #1
 8014cb6:	4a09      	ldr	r2, [pc, #36]	; (8014cdc <__pow5mult+0x90>)
 8014cb8:	2300      	movs	r3, #0
 8014cba:	f852 2025 	ldr.w	r2, [r2, r5, lsl #2]
 8014cbe:	f7ff fd8b 	bl	80147d8 <__multadd>
 8014cc2:	4607      	mov	r7, r0
 8014cc4:	e7ca      	b.n	8014c5c <__pow5mult+0x10>
 8014cc6:	4640      	mov	r0, r8
 8014cc8:	f240 2171 	movw	r1, #625	; 0x271
 8014ccc:	f7ff fe4c 	bl	8014968 <__i2b>
 8014cd0:	4606      	mov	r6, r0
 8014cd2:	f8c8 0048 	str.w	r0, [r8, #72]	; 0x48
 8014cd6:	2000      	movs	r0, #0
 8014cd8:	6030      	str	r0, [r6, #0]
 8014cda:	e7ca      	b.n	8014c72 <__pow5mult+0x26>
 8014cdc:	08015874 	.word	0x08015874

08014ce0 <__lshift>:
 8014ce0:	e92d 4ff0 	stmdb	sp!, {r4, r5, r6, r7, r8, r9, sl, fp, lr}
 8014ce4:	4617      	mov	r7, r2
 8014ce6:	690a      	ldr	r2, [r1, #16]
 8014ce8:	688b      	ldr	r3, [r1, #8]
 8014cea:	117e      	asrs	r6, r7, #5
 8014cec:	b083      	sub	sp, #12
 8014cee:	18b4      	adds	r4, r6, r2
 8014cf0:	9401      	str	r4, [sp, #4]
 8014cf2:	3401      	adds	r4, #1
 8014cf4:	429c      	cmp	r4, r3
 8014cf6:	460d      	mov	r5, r1
 8014cf8:	4680      	mov	r8, r0
 8014cfa:	6849      	ldr	r1, [r1, #4]
 8014cfc:	dd03      	ble.n	8014d06 <__lshift+0x26>
 8014cfe:	005b      	lsls	r3, r3, #1
 8014d00:	3101      	adds	r1, #1
 8014d02:	429c      	cmp	r4, r3
 8014d04:	dcfb      	bgt.n	8014cfe <__lshift+0x1e>
 8014d06:	4640      	mov	r0, r8
 8014d08:	f7ff fd36 	bl	8014778 <_Balloc>
 8014d0c:	2e00      	cmp	r6, #0
 8014d0e:	f100 0114 	add.w	r1, r0, #20
 8014d12:	dd1f      	ble.n	8014d54 <__lshift+0x74>
 8014d14:	2301      	movs	r3, #1
 8014d16:	1e72      	subs	r2, r6, #1
 8014d18:	f04f 0c00 	mov.w	ip, #0
 8014d1c:	42b3      	cmp	r3, r6
 8014d1e:	f8c1 c000 	str.w	ip, [r1]
 8014d22:	ea02 0103 	and.w	r1, r2, r3
 8014d26:	f100 0218 	add.w	r2, r0, #24
 8014d2a:	d010      	beq.n	8014d4e <__lshift+0x6e>
 8014d2c:	b131      	cbz	r1, 8014d3c <__lshift+0x5c>
 8014d2e:	2302      	movs	r3, #2
 8014d30:	42b3      	cmp	r3, r6
 8014d32:	f8c2 c000 	str.w	ip, [r2]
 8014d36:	f100 021c 	add.w	r2, r0, #28
 8014d3a:	d008      	beq.n	8014d4e <__lshift+0x6e>
 8014d3c:	4611      	mov	r1, r2
 8014d3e:	3302      	adds	r3, #2
 8014d40:	f841 cb04 	str.w	ip, [r1], #4
 8014d44:	f8c2 c004 	str.w	ip, [r2, #4]
 8014d48:	1d0a      	adds	r2, r1, #4
 8014d4a:	42b3      	cmp	r3, r6
 8014d4c:	d1f6      	bne.n	8014d3c <__lshift+0x5c>
 8014d4e:	eb00 0183 	add.w	r1, r0, r3, lsl #2
 8014d52:	3114      	adds	r1, #20
 8014d54:	692e      	ldr	r6, [r5, #16]
 8014d56:	eb05 0686 	add.w	r6, r5, r6, lsl #2
 8014d5a:	3614      	adds	r6, #20
 8014d5c:	f017 071f 	ands.w	r7, r7, #31
 8014d60:	f105 0e14 	add.w	lr, r5, #20
 8014d64:	9700      	str	r7, [sp, #0]
 8014d66:	d05b      	beq.n	8014e20 <__lshift+0x140>
 8014d68:	f8de 2000 	ldr.w	r2, [lr]
 8014d6c:	fa02 f207 	lsl.w	r2, r2, r7
 8014d70:	f105 0318 	add.w	r3, r5, #24
 8014d74:	f841 2b04 	str.w	r2, [r1], #4
 8014d78:	ea6f 090e 	mvn.w	r9, lr
 8014d7c:	f853 2c04 	ldr.w	r2, [r3, #-4]
 8014d80:	eb06 0a09 	add.w	sl, r6, r9
 8014d84:	f1c7 0e20 	rsb	lr, r7, #32
 8014d88:	429e      	cmp	r6, r3
 8014d8a:	f3ca 0a80 	ubfx	sl, sl, #2, #1
 8014d8e:	fa22 f90e 	lsr.w	r9, r2, lr
 8014d92:	d931      	bls.n	8014df8 <__lshift+0x118>
 8014d94:	f1ba 0f00 	cmp.w	sl, #0
 8014d98:	d00f      	beq.n	8014dba <__lshift+0xda>
 8014d9a:	681f      	ldr	r7, [r3, #0]
 8014d9c:	9b00      	ldr	r3, [sp, #0]
 8014d9e:	fa07 f703 	lsl.w	r7, r7, r3
 8014da2:	ea49 0207 	orr.w	r2, r9, r7
 8014da6:	f105 031c 	add.w	r3, r5, #28
 8014daa:	f841 2b04 	str.w	r2, [r1], #4
 8014dae:	f853 7c04 	ldr.w	r7, [r3, #-4]
 8014db2:	429e      	cmp	r6, r3
 8014db4:	fa27 f90e 	lsr.w	r9, r7, lr
 8014db8:	d91e      	bls.n	8014df8 <__lshift+0x118>
 8014dba:	681a      	ldr	r2, [r3, #0]
 8014dbc:	f8dd b000 	ldr.w	fp, [sp]
 8014dc0:	460f      	mov	r7, r1
 8014dc2:	fa02 fc0b 	lsl.w	ip, r2, fp
 8014dc6:	ea49 090c 	orr.w	r9, r9, ip
 8014dca:	f847 9b04 	str.w	r9, [r7], #4
 8014dce:	461a      	mov	r2, r3
 8014dd0:	f8d3 a004 	ldr.w	sl, [r3, #4]
 8014dd4:	f852 3b04 	ldr.w	r3, [r2], #4
 8014dd8:	fa0a fc0b 	lsl.w	ip, sl, fp
 8014ddc:	fa23 fb0e 	lsr.w	fp, r3, lr
 8014de0:	ea4b 0a0c 	orr.w	sl, fp, ip
 8014de4:	4613      	mov	r3, r2
 8014de6:	f8c1 a004 	str.w	sl, [r1, #4]
 8014dea:	f853 9b04 	ldr.w	r9, [r3], #4
 8014dee:	1d39      	adds	r1, r7, #4
 8014df0:	429e      	cmp	r6, r3
 8014df2:	fa29 f90e 	lsr.w	r9, r9, lr
 8014df6:	d8e0      	bhi.n	8014dba <__lshift+0xda>
 8014df8:	f8c1 9000 	str.w	r9, [r1]
 8014dfc:	f1b9 0f00 	cmp.w	r9, #0
 8014e00:	d001      	beq.n	8014e06 <__lshift+0x126>
 8014e02:	9c01      	ldr	r4, [sp, #4]
 8014e04:	3402      	adds	r4, #2
 8014e06:	f8d8 304c 	ldr.w	r3, [r8, #76]	; 0x4c
 8014e0a:	686a      	ldr	r2, [r5, #4]
 8014e0c:	f853 1022 	ldr.w	r1, [r3, r2, lsl #2]
 8014e10:	3c01      	subs	r4, #1
 8014e12:	6104      	str	r4, [r0, #16]
 8014e14:	6029      	str	r1, [r5, #0]
 8014e16:	f843 5022 	str.w	r5, [r3, r2, lsl #2]
 8014e1a:	b003      	add	sp, #12
 8014e1c:	e8bd 8ff0 	ldmia.w	sp!, {r4, r5, r6, r7, r8, r9, sl, fp, pc}
 8014e20:	ea6f 030e 	mvn.w	r3, lr
 8014e24:	f8de 7000 	ldr.w	r7, [lr]
 8014e28:	f105 0218 	add.w	r2, r5, #24
 8014e2c:	18f3      	adds	r3, r6, r3
 8014e2e:	4296      	cmp	r6, r2
 8014e30:	f841 7b04 	str.w	r7, [r1], #4
 8014e34:	f3c3 0380 	ubfx	r3, r3, #2, #1
 8014e38:	d9e5      	bls.n	8014e06 <__lshift+0x126>
 8014e3a:	b133      	cbz	r3, 8014e4a <__lshift+0x16a>
 8014e3c:	6813      	ldr	r3, [r2, #0]
 8014e3e:	f105 021c 	add.w	r2, r5, #28
 8014e42:	4296      	cmp	r6, r2
 8014e44:	f841 3b04 	str.w	r3, [r1], #4
 8014e48:	d9dd      	bls.n	8014e06 <__lshift+0x126>
 8014e4a:	4694      	mov	ip, r2
 8014e4c:	460f      	mov	r7, r1
 8014e4e:	f85c 3b04 	ldr.w	r3, [ip], #4
 8014e52:	f847 3b04 	str.w	r3, [r7], #4
 8014e56:	6853      	ldr	r3, [r2, #4]
 8014e58:	f10c 0204 	add.w	r2, ip, #4
 8014e5c:	604b      	str	r3, [r1, #4]
 8014e5e:	1d39      	adds	r1, r7, #4
 8014e60:	4296      	cmp	r6, r2
 8014e62:	d8f2      	bhi.n	8014e4a <__lshift+0x16a>
 8014e64:	e7cf      	b.n	8014e06 <__lshift+0x126>
 8014e66:	bf00      	nop

08014e68 <__mcmp>:
 8014e68:	b4f0      	push	{r4, r5, r6, r7}
 8014e6a:	690b      	ldr	r3, [r1, #16]
 8014e6c:	4605      	mov	r5, r0
 8014e6e:	6900      	ldr	r0, [r0, #16]
 8014e70:	1ac0      	subs	r0, r0, r3
 8014e72:	d124      	bne.n	8014ebe <__mcmp+0x56>
 8014e74:	1d1a      	adds	r2, r3, #4
 8014e76:	0094      	lsls	r4, r2, #2
 8014e78:	192b      	adds	r3, r5, r4
 8014e7a:	1d1e      	adds	r6, r3, #4
 8014e7c:	1909      	adds	r1, r1, r4
 8014e7e:	3514      	adds	r5, #20
 8014e80:	f856 4c04 	ldr.w	r4, [r6, #-4]
 8014e84:	680a      	ldr	r2, [r1, #0]
 8014e86:	43ef      	mvns	r7, r5
 8014e88:	19be      	adds	r6, r7, r6
 8014e8a:	4294      	cmp	r4, r2
 8014e8c:	f3c6 0680 	ubfx	r6, r6, #2, #1
 8014e90:	d110      	bne.n	8014eb4 <__mcmp+0x4c>
 8014e92:	429d      	cmp	r5, r3
 8014e94:	d213      	bcs.n	8014ebe <__mcmp+0x56>
 8014e96:	b13e      	cbz	r6, 8014ea8 <__mcmp+0x40>
 8014e98:	f853 4d04 	ldr.w	r4, [r3, #-4]!
 8014e9c:	f851 2d04 	ldr.w	r2, [r1, #-4]!
 8014ea0:	4294      	cmp	r4, r2
 8014ea2:	d107      	bne.n	8014eb4 <__mcmp+0x4c>
 8014ea4:	429d      	cmp	r5, r3
 8014ea6:	d20a      	bcs.n	8014ebe <__mcmp+0x56>
 8014ea8:	f853 4d04 	ldr.w	r4, [r3, #-4]!
 8014eac:	f851 2d04 	ldr.w	r2, [r1, #-4]!
 8014eb0:	4294      	cmp	r4, r2
 8014eb2:	d0f1      	beq.n	8014e98 <__mcmp+0x30>
 8014eb4:	42a2      	cmp	r2, r4
 8014eb6:	bf94      	ite	ls
 8014eb8:	2001      	movls	r0, #1
 8014eba:	f04f 30ff 	movhi.w	r0, #4294967295
 8014ebe:	bcf0      	pop	{r4, r5, r6, r7}
 8014ec0:	4770      	bx	lr
 8014ec2:	bf00      	nop

08014ec4 <__mdiff>:
 8014ec4:	e92d 4ff8 	stmdb	sp!, {r3, r4, r5, r6, r7, r8, r9, sl, fp, lr}
 8014ec8:	460f      	mov	r7, r1
 8014eca:	4605      	mov	r5, r0
 8014ecc:	4611      	mov	r1, r2
 8014ece:	4638      	mov	r0, r7
 8014ed0:	4693      	mov	fp, r2
 8014ed2:	f7ff ffc9 	bl	8014e68 <__mcmp>
 8014ed6:	1e04      	subs	r4, r0, #0
 8014ed8:	f000 80f1 	beq.w	80150be <__mdiff+0x1fa>
 8014edc:	f2c0 80ea 	blt.w	80150b4 <__mdiff+0x1f0>
 8014ee0:	2400      	movs	r4, #0
 8014ee2:	4628      	mov	r0, r5
 8014ee4:	6879      	ldr	r1, [r7, #4]
 8014ee6:	f7ff fc47 	bl	8014778 <_Balloc>
 8014eea:	f8db 6014 	ldr.w	r6, [fp, #20]
 8014eee:	697a      	ldr	r2, [r7, #20]
 8014ef0:	f8db 5010 	ldr.w	r5, [fp, #16]
 8014ef4:	60c4      	str	r4, [r0, #12]
 8014ef6:	fa1f fc82 	uxth.w	ip, r2
 8014efa:	ea4f 4a16 	mov.w	sl, r6, lsr #16
 8014efe:	b2b4      	uxth	r4, r6
 8014f00:	ebc4 060c 	rsb	r6, r4, ip
 8014f04:	693b      	ldr	r3, [r7, #16]
 8014f06:	eb0b 0585 	add.w	r5, fp, r5, lsl #2
 8014f0a:	ebca 4212 	rsb	r2, sl, r2, lsr #16
 8014f0e:	f10b 0114 	add.w	r1, fp, #20
 8014f12:	eb02 4a26 	add.w	sl, r2, r6, asr #16
 8014f16:	f105 0814 	add.w	r8, r5, #20
 8014f1a:	43c9      	mvns	r1, r1
 8014f1c:	b2b4      	uxth	r4, r6
 8014f1e:	f10b 0618 	add.w	r6, fp, #24
 8014f22:	eb08 0201 	add.w	r2, r8, r1
 8014f26:	ea44 440a 	orr.w	r4, r4, sl, lsl #16
 8014f2a:	eb07 0983 	add.w	r9, r7, r3, lsl #2
 8014f2e:	f100 0518 	add.w	r5, r0, #24
 8014f32:	45b0      	cmp	r8, r6
 8014f34:	f3c2 0180 	ubfx	r1, r2, #2, #1
 8014f38:	6144      	str	r4, [r0, #20]
 8014f3a:	f109 0914 	add.w	r9, r9, #20
 8014f3e:	f107 0c18 	add.w	ip, r7, #24
 8014f42:	ea4f 4a2a 	mov.w	sl, sl, asr #16
 8014f46:	462a      	mov	r2, r5
 8014f48:	d952      	bls.n	8014ff0 <__mdiff+0x12c>
 8014f4a:	b1d9      	cbz	r1, 8014f84 <__mdiff+0xc0>
 8014f4c:	f8dc 2000 	ldr.w	r2, [ip]
 8014f50:	6836      	ldr	r6, [r6, #0]
 8014f52:	fa1a fe82 	uxtah	lr, sl, r2
 8014f56:	0c31      	lsrs	r1, r6, #16
 8014f58:	b2b4      	uxth	r4, r6
 8014f5a:	ebc4 060e 	rsb	r6, r4, lr
 8014f5e:	ebc1 4c12 	rsb	ip, r1, r2, lsr #16
 8014f62:	eb0c 4a26 	add.w	sl, ip, r6, asr #16
 8014f66:	b2b2      	uxth	r2, r6
 8014f68:	ea42 440a 	orr.w	r4, r2, sl, lsl #16
 8014f6c:	f10b 061c 	add.w	r6, fp, #28
 8014f70:	602c      	str	r4, [r5, #0]
 8014f72:	45b0      	cmp	r8, r6
 8014f74:	f100 051c 	add.w	r5, r0, #28
 8014f78:	f107 0c1c 	add.w	ip, r7, #28
 8014f7c:	ea4f 4a2a 	mov.w	sl, sl, asr #16
 8014f80:	462a      	mov	r2, r5
 8014f82:	d935      	bls.n	8014ff0 <__mdiff+0x12c>
 8014f84:	4662      	mov	r2, ip
 8014f86:	4637      	mov	r7, r6
 8014f88:	f852 1b04 	ldr.w	r1, [r2], #4
 8014f8c:	f857 4b04 	ldr.w	r4, [r7], #4
 8014f90:	fa1a fe81 	uxtah	lr, sl, r1
 8014f94:	fa1f fb84 	uxth.w	fp, r4
 8014f98:	0c24      	lsrs	r4, r4, #16
 8014f9a:	ebcb 0a0e 	rsb	sl, fp, lr
 8014f9e:	ebc4 4111 	rsb	r1, r4, r1, lsr #16
 8014fa2:	eb01 442a 	add.w	r4, r1, sl, asr #16
 8014fa6:	fa1f fe8a 	uxth.w	lr, sl
 8014faa:	4629      	mov	r1, r5
 8014fac:	ea4e 4b04 	orr.w	fp, lr, r4, lsl #16
 8014fb0:	f841 bb04 	str.w	fp, [r1], #4
 8014fb4:	f8dc c004 	ldr.w	ip, [ip, #4]
 8014fb8:	6876      	ldr	r6, [r6, #4]
 8014fba:	fa1f fa8c 	uxth.w	sl, ip
 8014fbe:	eb0a 4424 	add.w	r4, sl, r4, asr #16
 8014fc2:	fa1f fb86 	uxth.w	fp, r6
 8014fc6:	ea4f 4616 	mov.w	r6, r6, lsr #16
 8014fca:	ebcb 0404 	rsb	r4, fp, r4
 8014fce:	ebc6 4e1c 	rsb	lr, r6, ip, lsr #16
 8014fd2:	eb0e 4a24 	add.w	sl, lr, r4, asr #16
 8014fd6:	b2a6      	uxth	r6, r4
 8014fd8:	ea46 440a 	orr.w	r4, r6, sl, lsl #16
 8014fdc:	1d3e      	adds	r6, r7, #4
 8014fde:	606c      	str	r4, [r5, #4]
 8014fe0:	1d0d      	adds	r5, r1, #4
 8014fe2:	45b0      	cmp	r8, r6
 8014fe4:	f102 0c04 	add.w	ip, r2, #4
 8014fe8:	ea4f 4a2a 	mov.w	sl, sl, asr #16
 8014fec:	462a      	mov	r2, r5
 8014fee:	d8c9      	bhi.n	8014f84 <__mdiff+0xc0>
 8014ff0:	45e1      	cmp	r9, ip
 8014ff2:	d955      	bls.n	80150a0 <__mdiff+0x1dc>
 8014ff4:	4662      	mov	r2, ip
 8014ff6:	ea6f 040c 	mvn.w	r4, ip
 8014ffa:	f852 1b04 	ldr.w	r1, [r2], #4
 8014ffe:	fa1a fe81 	uxtah	lr, sl, r1
 8015002:	ea4f 4811 	mov.w	r8, r1, lsr #16
 8015006:	eb08 482e 	add.w	r8, r8, lr, asr #16
 801500a:	fa1f fa8e 	uxth.w	sl, lr
 801500e:	4629      	mov	r1, r5
 8015010:	eb09 0604 	add.w	r6, r9, r4
 8015014:	4591      	cmp	r9, r2
 8015016:	ea4a 4408 	orr.w	r4, sl, r8, lsl #16
 801501a:	f841 4b04 	str.w	r4, [r1], #4
 801501e:	f3c6 0680 	ubfx	r6, r6, #2, #1
 8015022:	ea4f 4828 	mov.w	r8, r8, asr #16
 8015026:	d933      	bls.n	8015090 <__mdiff+0x1cc>
 8015028:	b186      	cbz	r6, 801504c <__mdiff+0x188>
 801502a:	f852 4b04 	ldr.w	r4, [r2], #4
 801502e:	fa18 fe84 	uxtah	lr, r8, r4
 8015032:	0c26      	lsrs	r6, r4, #16
 8015034:	eb06 462e 	add.w	r6, r6, lr, asr #16
 8015038:	fa1f f88e 	uxth.w	r8, lr
 801503c:	ea48 4406 	orr.w	r4, r8, r6, lsl #16
 8015040:	4591      	cmp	r9, r2
 8015042:	f841 4b04 	str.w	r4, [r1], #4
 8015046:	ea4f 4826 	mov.w	r8, r6, asr #16
 801504a:	d921      	bls.n	8015090 <__mdiff+0x1cc>
 801504c:	4617      	mov	r7, r2
 801504e:	460e      	mov	r6, r1
 8015050:	f857 4b04 	ldr.w	r4, [r7], #4
 8015054:	fa18 fe84 	uxtah	lr, r8, r4
 8015058:	0c24      	lsrs	r4, r4, #16
 801505a:	eb04 442e 	add.w	r4, r4, lr, asr #16
 801505e:	fa1f f88e 	uxth.w	r8, lr
 8015062:	ea48 4e04 	orr.w	lr, r8, r4, lsl #16
 8015066:	f846 eb04 	str.w	lr, [r6], #4
 801506a:	6852      	ldr	r2, [r2, #4]
 801506c:	fa1f f882 	uxth.w	r8, r2
 8015070:	eb08 4424 	add.w	r4, r8, r4, asr #16
 8015074:	ea4f 4212 	mov.w	r2, r2, lsr #16
 8015078:	eb02 4e24 	add.w	lr, r2, r4, asr #16
 801507c:	b2a4      	uxth	r4, r4
 801507e:	ea44 440e 	orr.w	r4, r4, lr, lsl #16
 8015082:	1d3a      	adds	r2, r7, #4
 8015084:	604c      	str	r4, [r1, #4]
 8015086:	1d31      	adds	r1, r6, #4
 8015088:	4591      	cmp	r9, r2
 801508a:	ea4f 482e 	mov.w	r8, lr, asr #16
 801508e:	d8dd      	bhi.n	801504c <__mdiff+0x188>
 8015090:	ea6f 010c 	mvn.w	r1, ip
 8015094:	eb01 0209 	add.w	r2, r1, r9
 8015098:	f022 0103 	bic.w	r1, r2, #3
 801509c:	1d0a      	adds	r2, r1, #4
 801509e:	18aa      	adds	r2, r5, r2
 80150a0:	3a04      	subs	r2, #4
 80150a2:	b924      	cbnz	r4, 80150ae <__mdiff+0x1ea>
 80150a4:	f852 1d04 	ldr.w	r1, [r2, #-4]!
 80150a8:	3b01      	subs	r3, #1
 80150aa:	2900      	cmp	r1, #0
 80150ac:	d0fa      	beq.n	80150a4 <__mdiff+0x1e0>
 80150ae:	6103      	str	r3, [r0, #16]
 80150b0:	e8bd 8ff8 	ldmia.w	sp!, {r3, r4, r5, r6, r7, r8, r9, sl, fp, pc}
 80150b4:	463b      	mov	r3, r7
 80150b6:	2401      	movs	r4, #1
 80150b8:	465f      	mov	r7, fp
 80150ba:	469b      	mov	fp, r3
 80150bc:	e711      	b.n	8014ee2 <__mdiff+0x1e>
 80150be:	4628      	mov	r0, r5
 80150c0:	4621      	mov	r1, r4
 80150c2:	f7ff fb59 	bl	8014778 <_Balloc>
 80150c6:	2201      	movs	r2, #1
 80150c8:	6102      	str	r2, [r0, #16]
 80150ca:	6144      	str	r4, [r0, #20]
 80150cc:	e8bd 8ff8 	ldmia.w	sp!, {r3, r4, r5, r6, r7, r8, r9, sl, fp, pc}

080150d0 <__d2b>:
 80150d0:	e92d 43f0 	stmdb	sp!, {r4, r5, r6, r7, r8, r9, lr}
 80150d4:	4689      	mov	r9, r1
 80150d6:	b083      	sub	sp, #12
 80150d8:	2101      	movs	r1, #1
 80150da:	ec55 4b10 	vmov	r4, r5, d0
 80150de:	4690      	mov	r8, r2
 80150e0:	f7ff fb4a 	bl	8014778 <_Balloc>
 80150e4:	f3c5 570a 	ubfx	r7, r5, #20, #11
 80150e8:	f025 437f 	bic.w	r3, r5, #4278190080	; 0xff000000
 80150ec:	4606      	mov	r6, r0
 80150ee:	f423 0070 	bic.w	r0, r3, #15728640	; 0xf00000
 80150f2:	b10f      	cbz	r7, 80150f8 <__d2b+0x28>
 80150f4:	f440 1080 	orr.w	r0, r0, #1048576	; 0x100000
 80150f8:	9001      	str	r0, [sp, #4]
 80150fa:	2c00      	cmp	r4, #0
 80150fc:	d022      	beq.n	8015144 <__d2b+0x74>
 80150fe:	aa02      	add	r2, sp, #8
 8015100:	4668      	mov	r0, sp
 8015102:	f842 4d08 	str.w	r4, [r2, #-8]!
 8015106:	f7ff fc01 	bl	801490c <__lo0bits>
 801510a:	9b01      	ldr	r3, [sp, #4]
 801510c:	2800      	cmp	r0, #0
 801510e:	d12d      	bne.n	801516c <__d2b+0x9c>
 8015110:	9c00      	ldr	r4, [sp, #0]
 8015112:	6174      	str	r4, [r6, #20]
 8015114:	2b00      	cmp	r3, #0
 8015116:	bf0c      	ite	eq
 8015118:	2401      	moveq	r4, #1
 801511a:	2402      	movne	r4, #2
 801511c:	61b3      	str	r3, [r6, #24]
 801511e:	6134      	str	r4, [r6, #16]
 8015120:	b9d7      	cbnz	r7, 8015158 <__d2b+0x88>
 8015122:	eb06 0284 	add.w	r2, r6, r4, lsl #2
 8015126:	f2a0 4332 	subw	r3, r0, #1074	; 0x432
 801512a:	6910      	ldr	r0, [r2, #16]
 801512c:	f8c9 3000 	str.w	r3, [r9]
 8015130:	f7ff fbce 	bl	80148d0 <__hi0bits>
 8015134:	ebc0 1044 	rsb	r0, r0, r4, lsl #5
 8015138:	f8c8 0000 	str.w	r0, [r8]
 801513c:	4630      	mov	r0, r6
 801513e:	b003      	add	sp, #12
 8015140:	e8bd 83f0 	ldmia.w	sp!, {r4, r5, r6, r7, r8, r9, pc}
 8015144:	a801      	add	r0, sp, #4
 8015146:	f7ff fbe1 	bl	801490c <__lo0bits>
 801514a:	9901      	ldr	r1, [sp, #4]
 801514c:	2401      	movs	r4, #1
 801514e:	6171      	str	r1, [r6, #20]
 8015150:	6134      	str	r4, [r6, #16]
 8015152:	3020      	adds	r0, #32
 8015154:	2f00      	cmp	r7, #0
 8015156:	d0e4      	beq.n	8015122 <__d2b+0x52>
 8015158:	f2a7 4733 	subw	r7, r7, #1075	; 0x433
 801515c:	183f      	adds	r7, r7, r0
 801515e:	f1c0 0135 	rsb	r1, r0, #53	; 0x35
 8015162:	f8c9 7000 	str.w	r7, [r9]
 8015166:	f8c8 1000 	str.w	r1, [r8]
 801516a:	e7e7      	b.n	801513c <__d2b+0x6c>
 801516c:	f1c0 0120 	rsb	r1, r0, #32
 8015170:	9a00      	ldr	r2, [sp, #0]
 8015172:	fa03 f401 	lsl.w	r4, r3, r1
 8015176:	ea44 0102 	orr.w	r1, r4, r2
 801517a:	fa23 f300 	lsr.w	r3, r3, r0
 801517e:	6171      	str	r1, [r6, #20]
 8015180:	9301      	str	r3, [sp, #4]
 8015182:	e7c7      	b.n	8015114 <__d2b+0x44>

08015184 <__fpclassifyd>:
 8015184:	ec53 2b10 	vmov	r2, r3, d0
 8015188:	ee10 0a10 	vmov	r0, s0
 801518c:	461a      	mov	r2, r3
 801518e:	b163      	cbz	r3, 80151aa <__fpclassifyd+0x26>
 8015190:	f1b3 4f00 	cmp.w	r3, #2147483648	; 0x80000000
 8015194:	d009      	beq.n	80151aa <__fpclassifyd+0x26>
 8015196:	f64f 73ff 	movw	r3, #65535	; 0xffff
 801519a:	f5a2 1180 	sub.w	r1, r2, #1048576	; 0x100000
 801519e:	f6c7 73df 	movt	r3, #32735	; 0x7fdf
 80151a2:	4299      	cmp	r1, r3
 80151a4:	d805      	bhi.n	80151b2 <__fpclassifyd+0x2e>
 80151a6:	2004      	movs	r0, #4
 80151a8:	4770      	bx	lr
 80151aa:	2800      	cmp	r0, #0
 80151ac:	d1f3      	bne.n	8015196 <__fpclassifyd+0x12>
 80151ae:	2002      	movs	r0, #2
 80151b0:	4770      	bx	lr
 80151b2:	f102 41ff 	add.w	r1, r2, #2139095040	; 0x7f800000
 80151b6:	f501 01e0 	add.w	r1, r1, #7340032	; 0x700000
 80151ba:	4299      	cmp	r1, r3
 80151bc:	d9f3      	bls.n	80151a6 <__fpclassifyd+0x22>
 80151be:	f64f 73ff 	movw	r3, #65535	; 0xffff
 80151c2:	f2c0 030f 	movt	r3, #15
 80151c6:	429a      	cmp	r2, r3
 80151c8:	d801      	bhi.n	80151ce <__fpclassifyd+0x4a>
 80151ca:	2003      	movs	r0, #3
 80151cc:	4770      	bx	lr
 80151ce:	f102 4100 	add.w	r1, r2, #2147483648	; 0x80000000
 80151d2:	4299      	cmp	r1, r3
 80151d4:	d9f9      	bls.n	80151ca <__fpclassifyd+0x46>
 80151d6:	2300      	movs	r3, #0
 80151d8:	f6c7 73f0 	movt	r3, #32752	; 0x7ff0
 80151dc:	429a      	cmp	r2, r3
 80151de:	d004      	beq.n	80151ea <__fpclassifyd+0x66>
 80151e0:	f512 1f80 	cmn.w	r2, #1048576	; 0x100000
 80151e4:	d001      	beq.n	80151ea <__fpclassifyd+0x66>
 80151e6:	2000      	movs	r0, #0
 80151e8:	4770      	bx	lr
 80151ea:	f1d0 0001 	rsbs	r0, r0, #1
 80151ee:	bf38      	it	cc
 80151f0:	2000      	movcc	r0, #0
 80151f2:	4770      	bx	lr

080151f4 <__ssprint_r>:
 80151f4:	e92d 4ff0 	stmdb	sp!, {r4, r5, r6, r7, r8, r9, sl, fp, lr}
 80151f8:	6894      	ldr	r4, [r2, #8]
 80151fa:	6817      	ldr	r7, [r2, #0]
 80151fc:	b083      	sub	sp, #12
 80151fe:	4692      	mov	sl, r2
 8015200:	4681      	mov	r9, r0
 8015202:	460d      	mov	r5, r1
 8015204:	2c00      	cmp	r4, #0
 8015206:	d06e      	beq.n	80152e6 <__ssprint_r+0xf2>
 8015208:	f04f 0b00 	mov.w	fp, #0
 801520c:	6808      	ldr	r0, [r1, #0]
 801520e:	688e      	ldr	r6, [r1, #8]
 8015210:	465c      	mov	r4, fp
 8015212:	2c00      	cmp	r4, #0
 8015214:	d047      	beq.n	80152a6 <__ssprint_r+0xb2>
 8015216:	42b4      	cmp	r4, r6
 8015218:	46b0      	mov	r8, r6
 801521a:	d349      	bcc.n	80152b0 <__ssprint_r+0xbc>
 801521c:	89ab      	ldrh	r3, [r5, #12]
 801521e:	f413 6f90 	tst.w	r3, #1152	; 0x480
 8015222:	d030      	beq.n	8015286 <__ssprint_r+0x92>
 8015224:	696e      	ldr	r6, [r5, #20]
 8015226:	6929      	ldr	r1, [r5, #16]
 8015228:	eb06 0246 	add.w	r2, r6, r6, lsl #1
 801522c:	ebc1 0800 	rsb	r8, r1, r0
 8015230:	eb02 76d2 	add.w	r6, r2, r2, lsr #31
 8015234:	1c60      	adds	r0, r4, #1
 8015236:	1076      	asrs	r6, r6, #1
 8015238:	4440      	add	r0, r8
 801523a:	4286      	cmp	r6, r0
 801523c:	f403 6380 	and.w	r3, r3, #1024	; 0x400
 8015240:	4632      	mov	r2, r6
 8015242:	b21b      	sxth	r3, r3
 8015244:	bf3c      	itt	cc
 8015246:	4606      	movcc	r6, r0
 8015248:	4632      	movcc	r2, r6
 801524a:	4648      	mov	r0, r9
 801524c:	2b00      	cmp	r3, #0
 801524e:	d032      	beq.n	80152b6 <__ssprint_r+0xc2>
 8015250:	4611      	mov	r1, r2
 8015252:	f7fb fb29 	bl	80108a8 <_malloc_r>
 8015256:	2800      	cmp	r0, #0
 8015258:	d036      	beq.n	80152c8 <__ssprint_r+0xd4>
 801525a:	6929      	ldr	r1, [r5, #16]
 801525c:	9001      	str	r0, [sp, #4]
 801525e:	4642      	mov	r2, r8
 8015260:	f7fb fe2c 	bl	8010ebc <memcpy>
 8015264:	89aa      	ldrh	r2, [r5, #12]
 8015266:	f422 6090 	bic.w	r0, r2, #1152	; 0x480
 801526a:	f040 0180 	orr.w	r1, r0, #128	; 0x80
 801526e:	81a9      	strh	r1, [r5, #12]
 8015270:	9901      	ldr	r1, [sp, #4]
 8015272:	ebc8 0306 	rsb	r3, r8, r6
 8015276:	eb01 0008 	add.w	r0, r1, r8
 801527a:	616e      	str	r6, [r5, #20]
 801527c:	6129      	str	r1, [r5, #16]
 801527e:	6028      	str	r0, [r5, #0]
 8015280:	4626      	mov	r6, r4
 8015282:	60ab      	str	r3, [r5, #8]
 8015284:	46a0      	mov	r8, r4
 8015286:	4659      	mov	r1, fp
 8015288:	4642      	mov	r2, r8
 801528a:	f7fb feb9 	bl	8011000 <memmove>
 801528e:	f8da 1008 	ldr.w	r1, [sl, #8]
 8015292:	68aa      	ldr	r2, [r5, #8]
 8015294:	6828      	ldr	r0, [r5, #0]
 8015296:	1b96      	subs	r6, r2, r6
 8015298:	4440      	add	r0, r8
 801529a:	1b0c      	subs	r4, r1, r4
 801529c:	60ae      	str	r6, [r5, #8]
 801529e:	6028      	str	r0, [r5, #0]
 80152a0:	f8ca 4008 	str.w	r4, [sl, #8]
 80152a4:	b1fc      	cbz	r4, 80152e6 <__ssprint_r+0xf2>
 80152a6:	f8d7 b000 	ldr.w	fp, [r7]
 80152aa:	687c      	ldr	r4, [r7, #4]
 80152ac:	3708      	adds	r7, #8
 80152ae:	e7b0      	b.n	8015212 <__ssprint_r+0x1e>
 80152b0:	4626      	mov	r6, r4
 80152b2:	46a0      	mov	r8, r4
 80152b4:	e7e7      	b.n	8015286 <__ssprint_r+0x92>
 80152b6:	f000 f84d 	bl	8015354 <_realloc_r>
 80152ba:	4601      	mov	r1, r0
 80152bc:	2800      	cmp	r0, #0
 80152be:	d1d8      	bne.n	8015272 <__ssprint_r+0x7e>
 80152c0:	4648      	mov	r0, r9
 80152c2:	6929      	ldr	r1, [r5, #16]
 80152c4:	f7ff f8e8 	bl	8014498 <_free_r>
 80152c8:	89aa      	ldrh	r2, [r5, #12]
 80152ca:	2100      	movs	r1, #0
 80152cc:	f042 0040 	orr.w	r0, r2, #64	; 0x40
 80152d0:	230c      	movs	r3, #12
 80152d2:	f8c9 3000 	str.w	r3, [r9]
 80152d6:	81a8      	strh	r0, [r5, #12]
 80152d8:	f04f 30ff 	mov.w	r0, #4294967295
 80152dc:	f8ca 1008 	str.w	r1, [sl, #8]
 80152e0:	f8ca 1004 	str.w	r1, [sl, #4]
 80152e4:	e002      	b.n	80152ec <__ssprint_r+0xf8>
 80152e6:	f8ca 4004 	str.w	r4, [sl, #4]
 80152ea:	4620      	mov	r0, r4
 80152ec:	b003      	add	sp, #12
 80152ee:	e8bd 8ff0 	ldmia.w	sp!, {r4, r5, r6, r7, r8, r9, sl, fp, pc}
 80152f2:	bf00      	nop

080152f4 <_calloc_r>:
 80152f4:	b510      	push	{r4, lr}
 80152f6:	fb01 f102 	mul.w	r1, r1, r2
 80152fa:	f7fb fad5 	bl	80108a8 <_malloc_r>
 80152fe:	4604      	mov	r4, r0
 8015300:	b168      	cbz	r0, 801531e <_calloc_r+0x2a>
 8015302:	f850 2c04 	ldr.w	r2, [r0, #-4]
 8015306:	f022 0103 	bic.w	r1, r2, #3
 801530a:	1f0a      	subs	r2, r1, #4
 801530c:	2a24      	cmp	r2, #36	; 0x24
 801530e:	d818      	bhi.n	8015342 <_calloc_r+0x4e>
 8015310:	2a13      	cmp	r2, #19
 8015312:	d806      	bhi.n	8015322 <_calloc_r+0x2e>
 8015314:	4603      	mov	r3, r0
 8015316:	2000      	movs	r0, #0
 8015318:	6018      	str	r0, [r3, #0]
 801531a:	6058      	str	r0, [r3, #4]
 801531c:	6098      	str	r0, [r3, #8]
 801531e:	4620      	mov	r0, r4
 8015320:	bd10      	pop	{r4, pc}
 8015322:	2300      	movs	r3, #0
 8015324:	2a1b      	cmp	r2, #27
 8015326:	6003      	str	r3, [r0, #0]
 8015328:	6043      	str	r3, [r0, #4]
 801532a:	d90f      	bls.n	801534c <_calloc_r+0x58>
 801532c:	2a24      	cmp	r2, #36	; 0x24
 801532e:	6083      	str	r3, [r0, #8]
 8015330:	60c3      	str	r3, [r0, #12]
 8015332:	bf05      	ittet	eq
 8015334:	6103      	streq	r3, [r0, #16]
 8015336:	6143      	streq	r3, [r0, #20]
 8015338:	f100 0310 	addne.w	r3, r0, #16
 801533c:	f100 0318 	addeq.w	r3, r0, #24
 8015340:	e7e9      	b.n	8015316 <_calloc_r+0x22>
 8015342:	2100      	movs	r1, #0
 8015344:	f7fb ff28 	bl	8011198 <memset>
 8015348:	4620      	mov	r0, r4
 801534a:	bd10      	pop	{r4, pc}
 801534c:	f100 0308 	add.w	r3, r0, #8
 8015350:	e7e1      	b.n	8015316 <_calloc_r+0x22>
 8015352:	bf00      	nop

08015354 <_realloc_r>:
 8015354:	e92d 4ff0 	stmdb	sp!, {r4, r5, r6, r7, r8, r9, sl, fp, lr}
 8015358:	460c      	mov	r4, r1
 801535a:	b083      	sub	sp, #12
 801535c:	4681      	mov	r9, r0
 801535e:	4617      	mov	r7, r2
 8015360:	2900      	cmp	r1, #0
 8015362:	f000 80c5 	beq.w	80154f0 <_realloc_r+0x19c>
 8015366:	f7fb ffad 	bl	80112c4 <__malloc_lock>
 801536a:	f107 050b 	add.w	r5, r7, #11
 801536e:	f854 3c04 	ldr.w	r3, [r4, #-4]
 8015372:	2d16      	cmp	r5, #22
 8015374:	f1a4 0a08 	sub.w	sl, r4, #8
 8015378:	f023 0603 	bic.w	r6, r3, #3
 801537c:	d84f      	bhi.n	801541e <_realloc_r+0xca>
 801537e:	2110      	movs	r1, #16
 8015380:	460d      	mov	r5, r1
 8015382:	42af      	cmp	r7, r5
 8015384:	d850      	bhi.n	8015428 <_realloc_r+0xd4>
 8015386:	428e      	cmp	r6, r1
 8015388:	da53      	bge.n	8015432 <_realloc_r+0xde>
 801538a:	f8df c3a0 	ldr.w	ip, [pc, #928]	; 801572c <_realloc_r+0x3d8>
 801538e:	f8dc 0008 	ldr.w	r0, [ip, #8]
 8015392:	eb0a 0206 	add.w	r2, sl, r6
 8015396:	4290      	cmp	r0, r2
 8015398:	f000 80b0 	beq.w	80154fc <_realloc_r+0x1a8>
 801539c:	f8d2 e004 	ldr.w	lr, [r2, #4]
 80153a0:	f02e 0801 	bic.w	r8, lr, #1
 80153a4:	4490      	add	r8, r2
 80153a6:	f8d8 8004 	ldr.w	r8, [r8, #4]
 80153aa:	f018 0f01 	tst.w	r8, #1
 80153ae:	d059      	beq.n	8015464 <_realloc_r+0x110>
 80153b0:	f04f 0e00 	mov.w	lr, #0
 80153b4:	4672      	mov	r2, lr
 80153b6:	07db      	lsls	r3, r3, #31
 80153b8:	d476      	bmi.n	80154a8 <_realloc_r+0x154>
 80153ba:	f854 3c08 	ldr.w	r3, [r4, #-8]
 80153be:	ebc3 0b0a 	rsb	fp, r3, sl
 80153c2:	f8db 3004 	ldr.w	r3, [fp, #4]
 80153c6:	f023 0303 	bic.w	r3, r3, #3
 80153ca:	199b      	adds	r3, r3, r6
 80153cc:	9301      	str	r3, [sp, #4]
 80153ce:	2a00      	cmp	r2, #0
 80153d0:	d067      	beq.n	80154a2 <_realloc_r+0x14e>
 80153d2:	4282      	cmp	r2, r0
 80153d4:	eb0e 0803 	add.w	r8, lr, r3
 80153d8:	f000 80f1 	beq.w	80155be <_realloc_r+0x26a>
 80153dc:	4588      	cmp	r8, r1
 80153de:	db60      	blt.n	80154a2 <_realloc_r+0x14e>
 80153e0:	68d1      	ldr	r1, [r2, #12]
 80153e2:	6890      	ldr	r0, [r2, #8]
 80153e4:	465f      	mov	r7, fp
 80153e6:	60c1      	str	r1, [r0, #12]
 80153e8:	6088      	str	r0, [r1, #8]
 80153ea:	f8db 300c 	ldr.w	r3, [fp, #12]
 80153ee:	f857 1f08 	ldr.w	r1, [r7, #8]!
 80153f2:	1f32      	subs	r2, r6, #4
 80153f4:	2a24      	cmp	r2, #36	; 0x24
 80153f6:	60cb      	str	r3, [r1, #12]
 80153f8:	6099      	str	r1, [r3, #8]
 80153fa:	f200 812a 	bhi.w	8015652 <_realloc_r+0x2fe>
 80153fe:	2a13      	cmp	r2, #19
 8015400:	f240 80b9 	bls.w	8015576 <_realloc_r+0x222>
 8015404:	6823      	ldr	r3, [r4, #0]
 8015406:	f8cb 3008 	str.w	r3, [fp, #8]
 801540a:	6861      	ldr	r1, [r4, #4]
 801540c:	2a1b      	cmp	r2, #27
 801540e:	f8cb 100c 	str.w	r1, [fp, #12]
 8015412:	f200 8134 	bhi.w	801567e <_realloc_r+0x32a>
 8015416:	f10b 0010 	add.w	r0, fp, #16
 801541a:	3408      	adds	r4, #8
 801541c:	e0ac      	b.n	8015578 <_realloc_r+0x224>
 801541e:	f025 0507 	bic.w	r5, r5, #7
 8015422:	2d00      	cmp	r5, #0
 8015424:	4629      	mov	r1, r5
 8015426:	daac      	bge.n	8015382 <_realloc_r+0x2e>
 8015428:	270c      	movs	r7, #12
 801542a:	f8c9 7000 	str.w	r7, [r9]
 801542e:	2700      	movs	r7, #0
 8015430:	e014      	b.n	801545c <_realloc_r+0x108>
 8015432:	46b0      	mov	r8, r6
 8015434:	ebc5 0708 	rsb	r7, r5, r8
 8015438:	2f0f      	cmp	r7, #15
 801543a:	d81e      	bhi.n	801547a <_realloc_r+0x126>
 801543c:	f003 0301 	and.w	r3, r3, #1
 8015440:	eb0a 0108 	add.w	r1, sl, r8
 8015444:	ea43 0008 	orr.w	r0, r3, r8
 8015448:	f8ca 0004 	str.w	r0, [sl, #4]
 801544c:	684a      	ldr	r2, [r1, #4]
 801544e:	f042 0701 	orr.w	r7, r2, #1
 8015452:	604f      	str	r7, [r1, #4]
 8015454:	4648      	mov	r0, r9
 8015456:	f7fb ff37 	bl	80112c8 <__malloc_unlock>
 801545a:	4627      	mov	r7, r4
 801545c:	4638      	mov	r0, r7
 801545e:	b003      	add	sp, #12
 8015460:	e8bd 8ff0 	ldmia.w	sp!, {r4, r5, r6, r7, r8, r9, sl, fp, pc}
 8015464:	f02e 0e03 	bic.w	lr, lr, #3
 8015468:	eb0e 0806 	add.w	r8, lr, r6
 801546c:	4588      	cmp	r8, r1
 801546e:	dba2      	blt.n	80153b6 <_realloc_r+0x62>
 8015470:	68d7      	ldr	r7, [r2, #12]
 8015472:	6892      	ldr	r2, [r2, #8]
 8015474:	60d7      	str	r7, [r2, #12]
 8015476:	60ba      	str	r2, [r7, #8]
 8015478:	e7dc      	b.n	8015434 <_realloc_r+0xe0>
 801547a:	eb0a 0105 	add.w	r1, sl, r5
 801547e:	f003 0301 	and.w	r3, r3, #1
 8015482:	19c8      	adds	r0, r1, r7
 8015484:	431d      	orrs	r5, r3
 8015486:	f047 0201 	orr.w	r2, r7, #1
 801548a:	f8ca 5004 	str.w	r5, [sl, #4]
 801548e:	604a      	str	r2, [r1, #4]
 8015490:	6847      	ldr	r7, [r0, #4]
 8015492:	f047 0301 	orr.w	r3, r7, #1
 8015496:	6043      	str	r3, [r0, #4]
 8015498:	3108      	adds	r1, #8
 801549a:	4648      	mov	r0, r9
 801549c:	f7fe fffc 	bl	8014498 <_free_r>
 80154a0:	e7d8      	b.n	8015454 <_realloc_r+0x100>
 80154a2:	9b01      	ldr	r3, [sp, #4]
 80154a4:	428b      	cmp	r3, r1
 80154a6:	da34      	bge.n	8015512 <_realloc_r+0x1be>
 80154a8:	4639      	mov	r1, r7
 80154aa:	4648      	mov	r0, r9
 80154ac:	f7fb f9fc 	bl	80108a8 <_malloc_r>
 80154b0:	4607      	mov	r7, r0
 80154b2:	b1c8      	cbz	r0, 80154e8 <_realloc_r+0x194>
 80154b4:	f854 3c04 	ldr.w	r3, [r4, #-4]
 80154b8:	f023 0201 	bic.w	r2, r3, #1
 80154bc:	f1a0 0108 	sub.w	r1, r0, #8
 80154c0:	4452      	add	r2, sl
 80154c2:	4291      	cmp	r1, r2
 80154c4:	f000 80be 	beq.w	8015644 <_realloc_r+0x2f0>
 80154c8:	1f32      	subs	r2, r6, #4
 80154ca:	2a24      	cmp	r2, #36	; 0x24
 80154cc:	d873      	bhi.n	80155b6 <_realloc_r+0x262>
 80154ce:	2a13      	cmp	r2, #19
 80154d0:	d846      	bhi.n	8015560 <_realloc_r+0x20c>
 80154d2:	4623      	mov	r3, r4
 80154d4:	6819      	ldr	r1, [r3, #0]
 80154d6:	6001      	str	r1, [r0, #0]
 80154d8:	685a      	ldr	r2, [r3, #4]
 80154da:	6042      	str	r2, [r0, #4]
 80154dc:	689b      	ldr	r3, [r3, #8]
 80154de:	6083      	str	r3, [r0, #8]
 80154e0:	4648      	mov	r0, r9
 80154e2:	4621      	mov	r1, r4
 80154e4:	f7fe ffd8 	bl	8014498 <_free_r>
 80154e8:	4648      	mov	r0, r9
 80154ea:	f7fb feed 	bl	80112c8 <__malloc_unlock>
 80154ee:	e7b5      	b.n	801545c <_realloc_r+0x108>
 80154f0:	4611      	mov	r1, r2
 80154f2:	b003      	add	sp, #12
 80154f4:	e8bd 4ff0 	ldmia.w	sp!, {r4, r5, r6, r7, r8, r9, sl, fp, lr}
 80154f8:	f7fb b9d6 	b.w	80108a8 <_malloc_r>
 80154fc:	6842      	ldr	r2, [r0, #4]
 80154fe:	f022 0e03 	bic.w	lr, r2, #3
 8015502:	eb0e 0206 	add.w	r2, lr, r6
 8015506:	f105 0810 	add.w	r8, r5, #16
 801550a:	4542      	cmp	r2, r8
 801550c:	da3f      	bge.n	801558e <_realloc_r+0x23a>
 801550e:	4602      	mov	r2, r0
 8015510:	e751      	b.n	80153b6 <_realloc_r+0x62>
 8015512:	465f      	mov	r7, fp
 8015514:	f8db 000c 	ldr.w	r0, [fp, #12]
 8015518:	f857 1f08 	ldr.w	r1, [r7, #8]!
 801551c:	1f32      	subs	r2, r6, #4
 801551e:	2a24      	cmp	r2, #36	; 0x24
 8015520:	60c8      	str	r0, [r1, #12]
 8015522:	6081      	str	r1, [r0, #8]
 8015524:	f200 80a0 	bhi.w	8015668 <_realloc_r+0x314>
 8015528:	2a13      	cmp	r2, #19
 801552a:	f240 809b 	bls.w	8015664 <_realloc_r+0x310>
 801552e:	6820      	ldr	r0, [r4, #0]
 8015530:	f8cb 0008 	str.w	r0, [fp, #8]
 8015534:	6861      	ldr	r1, [r4, #4]
 8015536:	2a1b      	cmp	r2, #27
 8015538:	f8cb 100c 	str.w	r1, [fp, #12]
 801553c:	f200 80b4 	bhi.w	80156a8 <_realloc_r+0x354>
 8015540:	f10b 0310 	add.w	r3, fp, #16
 8015544:	3408      	adds	r4, #8
 8015546:	6820      	ldr	r0, [r4, #0]
 8015548:	f8dd 8004 	ldr.w	r8, [sp, #4]
 801554c:	6018      	str	r0, [r3, #0]
 801554e:	6862      	ldr	r2, [r4, #4]
 8015550:	605a      	str	r2, [r3, #4]
 8015552:	68a4      	ldr	r4, [r4, #8]
 8015554:	609c      	str	r4, [r3, #8]
 8015556:	f8db 3004 	ldr.w	r3, [fp, #4]
 801555a:	463c      	mov	r4, r7
 801555c:	46da      	mov	sl, fp
 801555e:	e769      	b.n	8015434 <_realloc_r+0xe0>
 8015560:	6821      	ldr	r1, [r4, #0]
 8015562:	6001      	str	r1, [r0, #0]
 8015564:	6860      	ldr	r0, [r4, #4]
 8015566:	2a1b      	cmp	r2, #27
 8015568:	6078      	str	r0, [r7, #4]
 801556a:	d860      	bhi.n	801562e <_realloc_r+0x2da>
 801556c:	f107 0008 	add.w	r0, r7, #8
 8015570:	f104 0308 	add.w	r3, r4, #8
 8015574:	e7ae      	b.n	80154d4 <_realloc_r+0x180>
 8015576:	4638      	mov	r0, r7
 8015578:	6823      	ldr	r3, [r4, #0]
 801557a:	6003      	str	r3, [r0, #0]
 801557c:	6862      	ldr	r2, [r4, #4]
 801557e:	6042      	str	r2, [r0, #4]
 8015580:	68a4      	ldr	r4, [r4, #8]
 8015582:	6084      	str	r4, [r0, #8]
 8015584:	f8db 3004 	ldr.w	r3, [fp, #4]
 8015588:	463c      	mov	r4, r7
 801558a:	46da      	mov	sl, fp
 801558c:	e752      	b.n	8015434 <_realloc_r+0xe0>
 801558e:	eb0a 0705 	add.w	r7, sl, r5
 8015592:	1b50      	subs	r0, r2, r5
 8015594:	f040 0201 	orr.w	r2, r0, #1
 8015598:	607a      	str	r2, [r7, #4]
 801559a:	f854 1c04 	ldr.w	r1, [r4, #-4]
 801559e:	f8cc 7008 	str.w	r7, [ip, #8]
 80155a2:	f001 0301 	and.w	r3, r1, #1
 80155a6:	431d      	orrs	r5, r3
 80155a8:	f844 5c04 	str.w	r5, [r4, #-4]
 80155ac:	4648      	mov	r0, r9
 80155ae:	f7fb fe8b 	bl	80112c8 <__malloc_unlock>
 80155b2:	4627      	mov	r7, r4
 80155b4:	e752      	b.n	801545c <_realloc_r+0x108>
 80155b6:	4621      	mov	r1, r4
 80155b8:	f7fb fd22 	bl	8011000 <memmove>
 80155bc:	e790      	b.n	80154e0 <_realloc_r+0x18c>
 80155be:	f105 0010 	add.w	r0, r5, #16
 80155c2:	4580      	cmp	r8, r0
 80155c4:	f6ff af6d 	blt.w	80154a2 <_realloc_r+0x14e>
 80155c8:	465f      	mov	r7, fp
 80155ca:	f8db 000c 	ldr.w	r0, [fp, #12]
 80155ce:	f857 1f08 	ldr.w	r1, [r7, #8]!
 80155d2:	1f32      	subs	r2, r6, #4
 80155d4:	2a24      	cmp	r2, #36	; 0x24
 80155d6:	60c8      	str	r0, [r1, #12]
 80155d8:	6081      	str	r1, [r0, #8]
 80155da:	f200 8087 	bhi.w	80156ec <_realloc_r+0x398>
 80155de:	2a13      	cmp	r2, #19
 80155e0:	d978      	bls.n	80156d4 <_realloc_r+0x380>
 80155e2:	6820      	ldr	r0, [r4, #0]
 80155e4:	f8cb 0008 	str.w	r0, [fp, #8]
 80155e8:	6861      	ldr	r1, [r4, #4]
 80155ea:	2a1b      	cmp	r2, #27
 80155ec:	f8cb 100c 	str.w	r1, [fp, #12]
 80155f0:	f200 8085 	bhi.w	80156fe <_realloc_r+0x3aa>
 80155f4:	f10b 0310 	add.w	r3, fp, #16
 80155f8:	3408      	adds	r4, #8
 80155fa:	6820      	ldr	r0, [r4, #0]
 80155fc:	6018      	str	r0, [r3, #0]
 80155fe:	6862      	ldr	r2, [r4, #4]
 8015600:	605a      	str	r2, [r3, #4]
 8015602:	68a1      	ldr	r1, [r4, #8]
 8015604:	6099      	str	r1, [r3, #8]
 8015606:	eb0b 0305 	add.w	r3, fp, r5
 801560a:	ebc5 0008 	rsb	r0, r5, r8
 801560e:	f040 0201 	orr.w	r2, r0, #1
 8015612:	605a      	str	r2, [r3, #4]
 8015614:	f8db 1004 	ldr.w	r1, [fp, #4]
 8015618:	f8cc 3008 	str.w	r3, [ip, #8]
 801561c:	f001 0301 	and.w	r3, r1, #1
 8015620:	431d      	orrs	r5, r3
 8015622:	f8cb 5004 	str.w	r5, [fp, #4]
 8015626:	4648      	mov	r0, r9
 8015628:	f7fb fe4e 	bl	80112c8 <__malloc_unlock>
 801562c:	e716      	b.n	801545c <_realloc_r+0x108>
 801562e:	68a3      	ldr	r3, [r4, #8]
 8015630:	60bb      	str	r3, [r7, #8]
 8015632:	68e1      	ldr	r1, [r4, #12]
 8015634:	2a24      	cmp	r2, #36	; 0x24
 8015636:	60f9      	str	r1, [r7, #12]
 8015638:	d02d      	beq.n	8015696 <_realloc_r+0x342>
 801563a:	f107 0010 	add.w	r0, r7, #16
 801563e:	f104 0310 	add.w	r3, r4, #16
 8015642:	e747      	b.n	80154d4 <_realloc_r+0x180>
 8015644:	f850 7c04 	ldr.w	r7, [r0, #-4]
 8015648:	f027 0c03 	bic.w	ip, r7, #3
 801564c:	eb0c 0806 	add.w	r8, ip, r6
 8015650:	e6f0      	b.n	8015434 <_realloc_r+0xe0>
 8015652:	4621      	mov	r1, r4
 8015654:	4638      	mov	r0, r7
 8015656:	f7fb fcd3 	bl	8011000 <memmove>
 801565a:	463c      	mov	r4, r7
 801565c:	f8db 3004 	ldr.w	r3, [fp, #4]
 8015660:	46da      	mov	sl, fp
 8015662:	e6e7      	b.n	8015434 <_realloc_r+0xe0>
 8015664:	463b      	mov	r3, r7
 8015666:	e76e      	b.n	8015546 <_realloc_r+0x1f2>
 8015668:	4621      	mov	r1, r4
 801566a:	4638      	mov	r0, r7
 801566c:	f7fb fcc8 	bl	8011000 <memmove>
 8015670:	463c      	mov	r4, r7
 8015672:	f8db 3004 	ldr.w	r3, [fp, #4]
 8015676:	f8dd 8004 	ldr.w	r8, [sp, #4]
 801567a:	46da      	mov	sl, fp
 801567c:	e6da      	b.n	8015434 <_realloc_r+0xe0>
 801567e:	68a0      	ldr	r0, [r4, #8]
 8015680:	f8cb 0010 	str.w	r0, [fp, #16]
 8015684:	68e3      	ldr	r3, [r4, #12]
 8015686:	2a24      	cmp	r2, #36	; 0x24
 8015688:	f8cb 3014 	str.w	r3, [fp, #20]
 801568c:	d018      	beq.n	80156c0 <_realloc_r+0x36c>
 801568e:	f10b 0018 	add.w	r0, fp, #24
 8015692:	3410      	adds	r4, #16
 8015694:	e770      	b.n	8015578 <_realloc_r+0x224>
 8015696:	6922      	ldr	r2, [r4, #16]
 8015698:	613a      	str	r2, [r7, #16]
 801569a:	6963      	ldr	r3, [r4, #20]
 801569c:	f107 0018 	add.w	r0, r7, #24
 80156a0:	617b      	str	r3, [r7, #20]
 80156a2:	f104 0318 	add.w	r3, r4, #24
 80156a6:	e715      	b.n	80154d4 <_realloc_r+0x180>
 80156a8:	68a3      	ldr	r3, [r4, #8]
 80156aa:	f8cb 3010 	str.w	r3, [fp, #16]
 80156ae:	68e0      	ldr	r0, [r4, #12]
 80156b0:	2a24      	cmp	r2, #36	; 0x24
 80156b2:	f8cb 0014 	str.w	r0, [fp, #20]
 80156b6:	d00f      	beq.n	80156d8 <_realloc_r+0x384>
 80156b8:	f10b 0318 	add.w	r3, fp, #24
 80156bc:	3410      	adds	r4, #16
 80156be:	e742      	b.n	8015546 <_realloc_r+0x1f2>
 80156c0:	6922      	ldr	r2, [r4, #16]
 80156c2:	f8cb 2018 	str.w	r2, [fp, #24]
 80156c6:	6961      	ldr	r1, [r4, #20]
 80156c8:	f10b 0020 	add.w	r0, fp, #32
 80156cc:	f8cb 101c 	str.w	r1, [fp, #28]
 80156d0:	3418      	adds	r4, #24
 80156d2:	e751      	b.n	8015578 <_realloc_r+0x224>
 80156d4:	463b      	mov	r3, r7
 80156d6:	e790      	b.n	80155fa <_realloc_r+0x2a6>
 80156d8:	6922      	ldr	r2, [r4, #16]
 80156da:	f8cb 2018 	str.w	r2, [fp, #24]
 80156de:	6961      	ldr	r1, [r4, #20]
 80156e0:	f10b 0320 	add.w	r3, fp, #32
 80156e4:	f8cb 101c 	str.w	r1, [fp, #28]
 80156e8:	3418      	adds	r4, #24
 80156ea:	e72c      	b.n	8015546 <_realloc_r+0x1f2>
 80156ec:	4638      	mov	r0, r7
 80156ee:	4621      	mov	r1, r4
 80156f0:	f8cd c000 	str.w	ip, [sp]
 80156f4:	f7fb fc84 	bl	8011000 <memmove>
 80156f8:	f8dd c000 	ldr.w	ip, [sp]
 80156fc:	e783      	b.n	8015606 <_realloc_r+0x2b2>
 80156fe:	68a3      	ldr	r3, [r4, #8]
 8015700:	f8cb 3010 	str.w	r3, [fp, #16]
 8015704:	68e0      	ldr	r0, [r4, #12]
 8015706:	2a24      	cmp	r2, #36	; 0x24
 8015708:	f8cb 0014 	str.w	r0, [fp, #20]
 801570c:	d003      	beq.n	8015716 <_realloc_r+0x3c2>
 801570e:	f10b 0318 	add.w	r3, fp, #24
 8015712:	3410      	adds	r4, #16
 8015714:	e771      	b.n	80155fa <_realloc_r+0x2a6>
 8015716:	6922      	ldr	r2, [r4, #16]
 8015718:	f8cb 2018 	str.w	r2, [fp, #24]
 801571c:	6961      	ldr	r1, [r4, #20]
 801571e:	f10b 0320 	add.w	r3, fp, #32
 8015722:	f8cb 101c 	str.w	r1, [fp, #28]
 8015726:	3418      	adds	r4, #24
 8015728:	e767      	b.n	80155fa <_realloc_r+0x2a6>
 801572a:	bf00      	nop
 801572c:	10000454 	.word	0x10000454
 8015730:	656d6974 	.word	0x656d6974
 8015734:	25203d20 	.word	0x25203d20
 8015738:	756c3330 	.word	0x756c3330
 801573c:	6e696d20 	.word	0x6e696d20
 8015740:	32302520 	.word	0x32302520
 8015744:	7320756c 	.word	0x7320756c
 8015748:	00000000 	.word	0x00000000
 801574c:	656c6574 	.word	0x656c6574
 8015750:	61745f6d 	.word	0x61745f6d
 8015754:	00006b73 	.word	0x00006b73
 8015758:	77617264 	.word	0x77617264
 801575c:	7361745f 	.word	0x7361745f
 8015760:	0000006b 	.word	0x0000006b

08015764 <_ZN12_GLOBAL__N_1L12gpioc_unusedE>:
 8015764:	00000000 00000001 00000003 00000004     ................
 8015774:	00000005 00000009 0000000c 0000000e     ................
 8015784:	0000000f                                ....

08015788 <_ZN12_GLOBAL__N_1L12gpioa_unusedE>:
 8015788:	00000000 00000001 00000005 00000008     ................
 8015798:	0000000b 0000000c 0000000d 0000000e     ................

080157a8 <_ZN12_GLOBAL__N_1L12gpiob_unusedE>:
 80157a8:	00000003 00000004 00000005 00000006     ................
 80157b8:	00000007 00000008 00000009              ............

080157c4 <ucExpectedStackBytes.5286>:
 80157c4:	a5a5a5a5 a5a5a5a5 a5a5a5a5 a5a5a5a5     ................
 80157d4:	a5a5a5a5 454c4449 00000000 51726d54     ....IDLE....TmrQ
 80157e4:	00000000 20726d54 00637653 00000043     ....Tmr Svc.C...
 80157f4:	00464e49 00666e69 004e414e 006e616e     INF.inf.NAN.nan.
 8015804:	33323130 37363534 42413938 46454443     0123456789ABCDEF
 8015814:	00000000 33323130 37363534 62613938     ....0123456789ab
 8015824:	66656463 00000000 6c756e28 0000296c     cdef....(null)..
 8015834:	00000030                                0...

08015838 <zeroes.6721>:
 8015838:	30303030 30303030 30303030 30303030     0000000000000000

08015848 <blanks.6720>:
 8015848:	20202020 20202020 20202020 20202020                     
 8015858:	69666e49 7974696e 00000000 004e614e     Infinity....NaN.
 8015868:	49534f50 00000058 0000002e              POSIX.......

08015874 <p05.5242>:
 8015874:	00000005 00000019 0000007d              ........}...

08015880 <__mprec_tens>:
 8015880:	00000000 3ff00000 00000000 40240000     .......?......$@
 8015890:	00000000 40590000 00000000 408f4000     ......Y@.....@.@
 80158a0:	00000000 40c38800 00000000 40f86a00     .......@.....j.@
 80158b0:	00000000 412e8480 00000000 416312d0     .......A......cA
 80158c0:	00000000 4197d784 00000000 41cdcd65     .......A....e..A
 80158d0:	20000000 4202a05f e8000000 42374876     ... _..B....vH7B
 80158e0:	a2000000 426d1a94 e5400000 42a2309c     ......mB..@..0.B
 80158f0:	1e900000 42d6bcc4 26340000 430c6bf5     .......B..4&.k.C
 8015900:	37e08000 4341c379 85d8a000 43763457     ...7y.AC....W4vC
 8015910:	674ec800 43abc16d 60913d00 43e158e4     ..Ngm..C.=.`.X.C
 8015920:	78b58c40 4415af1d d6e2ef50 444b1ae4     @..x...DP.....KD
 8015930:	064dd592 4480f0cf c7e14af6 44b52d02     ..M....D.J...-.D
 8015940:	79d99db4 44ea7843                       ...yCx.D

08015948 <__mprec_bigtens>:
 8015948:	37e08000 4341c379 b5056e17 4693b8b5     ...7y.AC.n.....F
 8015958:	e93ff9f5 4d384f03 f9301d32 5a827748     ..?..O8M2.0.Hw.Z
 8015968:	7f73bf3c 75154fdd                       <.s..O.u

08015970 <_init>:
 8015970:	b5f8      	push	{r3, r4, r5, r6, r7, lr}
 8015972:	bf00      	nop
 8015974:	bcf8      	pop	{r3, r4, r5, r6, r7}
 8015976:	bc08      	pop	{r3}
 8015978:	469e      	mov	lr, r3
 801597a:	4770      	bx	lr

0801597c <_fini>:
 801597c:	b5f8      	push	{r3, r4, r5, r6, r7, lr}
 801597e:	bf00      	nop
 8015980:	bcf8      	pop	{r3, r4, r5, r6, r7}
 8015982:	bc08      	pop	{r3}
 8015984:	469e      	mov	lr, r3
 8015986:	4770      	bx	lr
