
main.elf:     file format elf32-littlearm


Disassembly of section .text:

0800c000 <_ZN13video_buffers4initEv>:
 800c000:	4b67      	ldr	r3, [pc, #412]	; (800c1a0 <_ZN13video_buffers4initEv+0x1a0>)
 800c002:	f5b3 1f80 	cmp.w	r3, #1048576	; 0x100000
 800c006:	e92d 41f0 	stmdb	sp!, {r4, r5, r6, r7, r8, lr}
 800c00a:	f080 80bd 	bcs.w	800c188 <_ZN13video_buffers4initEv+0x188>
 800c00e:	4865      	ldr	r0, [pc, #404]	; (800c1a4 <_ZN13video_buffers4initEv+0x1a4>)
 800c010:	0142      	lsls	r2, r0, #5
 800c012:	4c65      	ldr	r4, [pc, #404]	; (800c1a8 <_ZN13video_buffers4initEv+0x1a8>)
 800c014:	4965      	ldr	r1, [pc, #404]	; (800c1ac <_ZN13video_buffers4initEv+0x1ac>)
 800c016:	f5b4 1f80 	cmp.w	r4, #1048576	; 0x100000
 800c01a:	600a      	str	r2, [r1, #0]
 800c01c:	f080 80b8 	bcs.w	800c190 <_ZN13video_buffers4initEv+0x190>
 800c020:	4e63      	ldr	r6, [pc, #396]	; (800c1b0 <_ZN13video_buffers4initEv+0x1b0>)
 800c022:	0175      	lsls	r5, r6, #5
 800c024:	4b63      	ldr	r3, [pc, #396]	; (800c1b4 <_ZN13video_buffers4initEv+0x1b4>)
 800c026:	4f64      	ldr	r7, [pc, #400]	; (800c1b8 <_ZN13video_buffers4initEv+0x1b8>)
 800c028:	f5b3 1f80 	cmp.w	r3, #1048576	; 0x100000
 800c02c:	603d      	str	r5, [r7, #0]
 800c02e:	f080 80ad 	bcs.w	800c18c <_ZN13video_buffers4initEv+0x18c>
 800c032:	4862      	ldr	r0, [pc, #392]	; (800c1bc <_ZN13video_buffers4initEv+0x1bc>)
 800c034:	0142      	lsls	r2, r0, #5
 800c036:	4c62      	ldr	r4, [pc, #392]	; (800c1c0 <_ZN13video_buffers4initEv+0x1c0>)
 800c038:	4962      	ldr	r1, [pc, #392]	; (800c1c4 <_ZN13video_buffers4initEv+0x1c4>)
 800c03a:	f5b4 1f80 	cmp.w	r4, #1048576	; 0x100000
 800c03e:	600a      	str	r2, [r1, #0]
 800c040:	f080 80a8 	bcs.w	800c194 <_ZN13video_buffers4initEv+0x194>
 800c044:	4e60      	ldr	r6, [pc, #384]	; (800c1c8 <_ZN13video_buffers4initEv+0x1c8>)
 800c046:	0175      	lsls	r5, r6, #5
 800c048:	4b60      	ldr	r3, [pc, #384]	; (800c1cc <_ZN13video_buffers4initEv+0x1cc>)
 800c04a:	4f61      	ldr	r7, [pc, #388]	; (800c1d0 <_ZN13video_buffers4initEv+0x1d0>)
 800c04c:	8818      	ldrh	r0, [r3, #0]
 800c04e:	883a      	ldrh	r2, [r7, #0]
 800c050:	4c60      	ldr	r4, [pc, #384]	; (800c1d4 <_ZN13video_buffers4initEv+0x1d4>)
 800c052:	4e61      	ldr	r6, [pc, #388]	; (800c1d8 <_ZN13video_buffers4initEv+0x1d8>)
 800c054:	6025      	str	r5, [r4, #0]
 800c056:	1a11      	subs	r1, r2, r0
 800c058:	f64f 77f8 	movw	r7, #65528	; 0xfff8
 800c05c:	400f      	ands	r7, r1
 800c05e:	f001 f857 	bl	800d110 <_ZN9video_cfg14get_video_modeEv>
 800c062:	2801      	cmp	r0, #1
 800c064:	bf0c      	ite	eq
 800c066:	4d5d      	ldreq	r5, [pc, #372]	; (800c1dc <_ZN13video_buffers4initEv+0x1dc>)
 800c068:	4d5d      	ldrne	r5, [pc, #372]	; (800c1e0 <_ZN13video_buffers4initEv+0x1e0>)
 800c06a:	8832      	ldrh	r2, [r6, #0]
 800c06c:	8829      	ldrh	r1, [r5, #0]
 800c06e:	4e5d      	ldr	r6, [pc, #372]	; (800c1e4 <_ZN13video_buffers4initEv+0x1e4>)
 800c070:	4d5d      	ldr	r5, [pc, #372]	; (800c1e8 <_ZN13video_buffers4initEv+0x1e8>)
 800c072:	6037      	str	r7, [r6, #0]
 800c074:	1a8b      	subs	r3, r1, r2
 800c076:	08ff      	lsrs	r7, r7, #3
 800c078:	f3c3 034e 	ubfx	r3, r3, #1, #15
 800c07c:	6828      	ldr	r0, [r5, #0]
 800c07e:	6073      	str	r3, [r6, #4]
 800c080:	1c79      	adds	r1, r7, #1
 800c082:	fb03 1701 	mla	r7, r3, r1, r1
 800c086:	463a      	mov	r2, r7
 800c088:	21ff      	movs	r1, #255	; 0xff
 800c08a:	3004      	adds	r0, #4
 800c08c:	f008 fc56 	bl	801493c <memset>
 800c090:	682a      	ldr	r2, [r5, #0]
 800c092:	4c56      	ldr	r4, [pc, #344]	; (800c1ec <_ZN13video_buffers4initEv+0x1ec>)
 800c094:	f502 5050 	add.w	r0, r2, #13312	; 0x3400
 800c098:	21ff      	movs	r1, #255	; 0xff
 800c09a:	463a      	mov	r2, r7
 800c09c:	3004      	adds	r0, #4
 800c09e:	f008 fc4d 	bl	801493c <memset>
 800c0a2:	ce48      	ldmia	r6, {r3, r6}
 800c0a4:	686f      	ldr	r7, [r5, #4]
 800c0a6:	08db      	lsrs	r3, r3, #3
 800c0a8:	3601      	adds	r6, #1
 800c0aa:	fb03 6606 	mla	r6, r3, r6, r6
 800c0ae:	21ff      	movs	r1, #255	; 0xff
 800c0b0:	4632      	mov	r2, r6
 800c0b2:	1d38      	adds	r0, r7, #4
 800c0b4:	f008 fc42 	bl	801493c <memset>
 800c0b8:	6869      	ldr	r1, [r5, #4]
 800c0ba:	f501 5250 	add.w	r2, r1, #13312	; 0x3400
 800c0be:	1d10      	adds	r0, r2, #4
 800c0c0:	21ff      	movs	r1, #255	; 0xff
 800c0c2:	4632      	mov	r2, r6
 800c0c4:	f008 fc3a 	bl	801493c <memset>
 800c0c8:	4849      	ldr	r0, [pc, #292]	; (800c1f0 <_ZN13video_buffers4initEv+0x1f0>)
 800c0ca:	4b4a      	ldr	r3, [pc, #296]	; (800c1f4 <_ZN13video_buffers4initEv+0x1f4>)
 800c0cc:	494a      	ldr	r1, [pc, #296]	; (800c1f8 <_ZN13video_buffers4initEv+0x1f8>)
 800c0ce:	4a4b      	ldr	r2, [pc, #300]	; (800c1fc <_ZN13video_buffers4initEv+0x1fc>)
 800c0d0:	881e      	ldrh	r6, [r3, #0]
 800c0d2:	8807      	ldrh	r7, [r0, #0]
 800c0d4:	8808      	ldrh	r0, [r1, #0]
 800c0d6:	8811      	ldrh	r1, [r2, #0]
 800c0d8:	1bbf      	subs	r7, r7, r6
 800c0da:	1a46      	subs	r6, r0, r1
 800c0dc:	2100      	movs	r1, #0
 800c0de:	60a9      	str	r1, [r5, #8]
 800c0e0:	4d47      	ldr	r5, [pc, #284]	; (800c200 <_ZN13video_buffers4initEv+0x200>)
 800c0e2:	b2bb      	uxth	r3, r7
 800c0e4:	b2b2      	uxth	r2, r6
 800c0e6:	f5b5 1f80 	cmp.w	r5, #1048576	; 0x100000
 800c0ea:	6023      	str	r3, [r4, #0]
 800c0ec:	6062      	str	r2, [r4, #4]
 800c0ee:	d255      	bcs.n	800c19c <_ZN13video_buffers4initEv+0x19c>
 800c0f0:	4f44      	ldr	r7, [pc, #272]	; (800c204 <_ZN13video_buffers4initEv+0x204>)
 800c0f2:	0178      	lsls	r0, r7, #5
 800c0f4:	4944      	ldr	r1, [pc, #272]	; (800c208 <_ZN13video_buffers4initEv+0x208>)
 800c0f6:	4e45      	ldr	r6, [pc, #276]	; (800c20c <_ZN13video_buffers4initEv+0x20c>)
 800c0f8:	f5b1 1f80 	cmp.w	r1, #1048576	; 0x100000
 800c0fc:	6030      	str	r0, [r6, #0]
 800c0fe:	d24b      	bcs.n	800c198 <_ZN13video_buffers4initEv+0x198>
 800c100:	4843      	ldr	r0, [pc, #268]	; (800c210 <_ZN13video_buffers4initEv+0x210>)
 800c102:	0145      	lsls	r5, r0, #5
 800c104:	4f43      	ldr	r7, [pc, #268]	; (800c214 <_ZN13video_buffers4initEv+0x214>)
 800c106:	f8c6 5100 	str.w	r5, [r6, #256]	; 0x100
 800c10a:	f013 0107 	ands.w	r1, r3, #7
 800c10e:	bf18      	it	ne
 800c110:	2101      	movne	r1, #1
 800c112:	687d      	ldr	r5, [r7, #4]
 800c114:	4e40      	ldr	r6, [pc, #256]	; (800c218 <_ZN13video_buffers4initEv+0x218>)
 800c116:	eb01 03d3 	add.w	r3, r1, r3, lsr #3
 800c11a:	fb02 f203 	mul.w	r2, r2, r3
 800c11e:	21ff      	movs	r1, #255	; 0xff
 800c120:	1d28      	adds	r0, r5, #4
 800c122:	f008 fc0b 	bl	801493c <memset>
 800c126:	6821      	ldr	r1, [r4, #0]
 800c128:	6878      	ldr	r0, [r7, #4]
 800c12a:	6862      	ldr	r2, [r4, #4]
 800c12c:	f011 0507 	ands.w	r5, r1, #7
 800c130:	bf18      	it	ne
 800c132:	2501      	movne	r5, #1
 800c134:	eb05 03d1 	add.w	r3, r5, r1, lsr #3
 800c138:	fb02 f203 	mul.w	r2, r2, r3
 800c13c:	21ff      	movs	r1, #255	; 0xff
 800c13e:	3004      	adds	r0, #4
 800c140:	f008 fbfc 	bl	801493c <memset>
 800c144:	6821      	ldr	r1, [r4, #0]
 800c146:	6863      	ldr	r3, [r4, #4]
 800c148:	6830      	ldr	r0, [r6, #0]
 800c14a:	f64c 48cd 	movw	r8, #52429	; 0xcccd
 800c14e:	f6cc 48cc 	movt	r8, #52428	; 0xcccc
 800c152:	3908      	subs	r1, #8
 800c154:	fba8 1201 	umull	r1, r2, r8, r1
 800c158:	2500      	movs	r5, #0
 800c15a:	08d2      	lsrs	r2, r2, #3
 800c15c:	fb03 f202 	mul.w	r2, r3, r2
 800c160:	4629      	mov	r1, r5
 800c162:	60bd      	str	r5, [r7, #8]
 800c164:	f008 fbea 	bl	801493c <memset>
 800c168:	6821      	ldr	r1, [r4, #0]
 800c16a:	6863      	ldr	r3, [r4, #4]
 800c16c:	6870      	ldr	r0, [r6, #4]
 800c16e:	3908      	subs	r1, #8
 800c170:	fba8 1c01 	umull	r1, ip, r8, r1
 800c174:	ea4f 08dc 	mov.w	r8, ip, lsr #3
 800c178:	4629      	mov	r1, r5
 800c17a:	fb03 f208 	mul.w	r2, r3, r8
 800c17e:	f008 fbdd 	bl	801493c <memset>
 800c182:	60b5      	str	r5, [r6, #8]
 800c184:	e8bd 81f0 	ldmia.w	sp!, {r4, r5, r6, r7, r8, pc}
 800c188:	2200      	movs	r2, #0
 800c18a:	e742      	b.n	800c012 <_ZN13video_buffers4initEv+0x12>
 800c18c:	2200      	movs	r2, #0
 800c18e:	e752      	b.n	800c036 <_ZN13video_buffers4initEv+0x36>
 800c190:	2500      	movs	r5, #0
 800c192:	e747      	b.n	800c024 <_ZN13video_buffers4initEv+0x24>
 800c194:	2500      	movs	r5, #0
 800c196:	e757      	b.n	800c048 <_ZN13video_buffers4initEv+0x48>
 800c198:	2500      	movs	r5, #0
 800c19a:	e7b3      	b.n	800c104 <_ZN13video_buffers4initEv+0x104>
 800c19c:	4608      	mov	r0, r1
 800c19e:	e7a9      	b.n	800c0f4 <_ZN13video_buffers4initEv+0xf4>
 800c1a0:	00012004 	.word	0x00012004
 800c1a4:	21112004 	.word	0x21112004
 800c1a8:	00015404 	.word	0x00015404
 800c1ac:	20012000 	.word	0x20012000
 800c1b0:	21115404 	.word	0x21115404
 800c1b4:	00018804 	.word	0x00018804
 800c1b8:	20015400 	.word	0x20015400
 800c1bc:	21118804 	.word	0x21118804
 800c1c0:	0001bc04 	.word	0x0001bc04
 800c1c4:	20018800 	.word	0x20018800
 800c1c8:	2111bc04 	.word	0x2111bc04
 800c1cc:	10000006 	.word	0x10000006
 800c1d0:	10000002 	.word	0x10000002
 800c1d4:	2001bc00 	.word	0x2001bc00
 800c1d8:	10000010 	.word	0x10000010
 800c1dc:	1000000c 	.word	0x1000000c
 800c1e0:	10000008 	.word	0x10000008
 800c1e4:	1000089c 	.word	0x1000089c
 800c1e8:	1000087c 	.word	0x1000087c
 800c1ec:	10000874 	.word	0x10000874
 800c1f0:	10000004 	.word	0x10000004
 800c1f4:	10000000 	.word	0x10000000
 800c1f8:	1000000e 	.word	0x1000000e
 800c1fc:	1000000a 	.word	0x1000000a
 800c200:	0001f004 	.word	0x0001f004
 800c204:	2111f004 	.word	0x2111f004
 800c208:	0001f104 	.word	0x0001f104
 800c20c:	2001f000 	.word	0x2001f000
 800c210:	2111f104 	.word	0x2111f104
 800c214:	1000088c 	.word	0x1000088c
 800c218:	10000864 	.word	0x10000864

0800c21c <_GLOBAL__sub_I__ZN13video_buffers3osd9m_buffersE>:
 800c21c:	e92d 01f0 	stmdb	sp!, {r4, r5, r6, r7, r8}
 800c220:	f640 018c 	movw	r1, #2188	; 0x88c
 800c224:	f640 047c 	movw	r4, #2172	; 0x87c
 800c228:	f242 0500 	movw	r5, #8192	; 0x2000
 800c22c:	f24f 0000 	movw	r0, #61440	; 0xf000
 800c230:	f640 0364 	movw	r3, #2148	; 0x864
 800c234:	f2c1 0400 	movt	r4, #4096	; 0x1000
 800c238:	f2c1 0100 	movt	r1, #4096	; 0x1000
 800c23c:	f2c2 0001 	movt	r0, #8193	; 0x2001
 800c240:	f2c1 0300 	movt	r3, #4096	; 0x1000
 800c244:	f2c2 0501 	movt	r5, #8193	; 0x2001
 800c248:	2200      	movs	r2, #0
 800c24a:	f505 48d0 	add.w	r8, r5, #26624	; 0x6800
 800c24e:	f500 7c80 	add.w	ip, r0, #256	; 0x100
 800c252:	f500 7700 	add.w	r7, r0, #512	; 0x200
 800c256:	f500 6600 	add.w	r6, r0, #2048	; 0x800
 800c25a:	6025      	str	r5, [r4, #0]
 800c25c:	60a2      	str	r2, [r4, #8]
 800c25e:	f8c4 8004 	str.w	r8, [r4, #4]
 800c262:	608a      	str	r2, [r1, #8]
 800c264:	7322      	strb	r2, [r4, #12]
 800c266:	609a      	str	r2, [r3, #8]
 800c268:	6008      	str	r0, [r1, #0]
 800c26a:	f8c1 c004 	str.w	ip, [r1, #4]
 800c26e:	730a      	strb	r2, [r1, #12]
 800c270:	601f      	str	r7, [r3, #0]
 800c272:	605e      	str	r6, [r3, #4]
 800c274:	731a      	strb	r2, [r3, #12]
 800c276:	e8bd 01f0 	ldmia.w	sp!, {r4, r5, r6, r7, r8}
 800c27a:	4770      	bx	lr

0800c27c <_ZN6detail26create_osd_swap_semaphoresEv>:
 800c27c:	b508      	push	{r3, lr}
 800c27e:	2100      	movs	r1, #0
 800c280:	2203      	movs	r2, #3
 800c282:	2001      	movs	r0, #1
 800c284:	f002 fce0 	bl	800ec48 <xQueueGenericCreate>
 800c288:	f640 03b4 	movw	r3, #2228	; 0x8b4
 800c28c:	f2c1 0300 	movt	r3, #4096	; 0x1000
 800c290:	2100      	movs	r1, #0
 800c292:	6018      	str	r0, [r3, #0]
 800c294:	2203      	movs	r2, #3
 800c296:	2001      	movs	r0, #1
 800c298:	f002 fcd6 	bl	800ec48 <xQueueGenericCreate>
 800c29c:	f640 01ac 	movw	r1, #2220	; 0x8ac
 800c2a0:	f2c1 0100 	movt	r1, #4096	; 0x1000
 800c2a4:	6008      	str	r0, [r1, #0]
 800c2a6:	bd08      	pop	{r3, pc}

0800c2a8 <_ZN6detail16swap_osd_buffersEv>:
 800c2a8:	f640 00b4 	movw	r0, #2228	; 0x8b4
 800c2ac:	f2c1 0000 	movt	r0, #4096	; 0x1000
 800c2b0:	b538      	push	{r3, r4, r5, lr}
 800c2b2:	2100      	movs	r1, #0
 800c2b4:	f640 04ac 	movw	r4, #2220	; 0x8ac
 800c2b8:	460a      	mov	r2, r1
 800c2ba:	460b      	mov	r3, r1
 800c2bc:	f2c1 0400 	movt	r4, #4096	; 0x1000
 800c2c0:	6800      	ldr	r0, [r0, #0]
 800c2c2:	f002 fcfd 	bl	800ecc0 <xQueueGenericSend>
 800c2c6:	2100      	movs	r1, #0
 800c2c8:	460b      	mov	r3, r1
 800c2ca:	f04f 32ff 	mov.w	r2, #4294967295
 800c2ce:	6820      	ldr	r0, [r4, #0]
 800c2d0:	f002 feec 	bl	800f0ac <xQueueGenericReceive>
 800c2d4:	f640 039c 	movw	r3, #2204	; 0x89c
 800c2d8:	f2c1 0300 	movt	r3, #4096	; 0x1000
 800c2dc:	e893 0024 	ldmia.w	r3, {r2, r5}
 800c2e0:	f640 047c 	movw	r4, #2172	; 0x87c
 800c2e4:	f2c1 0400 	movt	r4, #4096	; 0x1000
 800c2e8:	08d1      	lsrs	r1, r2, #3
 800c2ea:	6860      	ldr	r0, [r4, #4]
 800c2ec:	3501      	adds	r5, #1
 800c2ee:	fb01 5505 	mla	r5, r1, r5, r5
 800c2f2:	462a      	mov	r2, r5
 800c2f4:	21ff      	movs	r1, #255	; 0xff
 800c2f6:	3004      	adds	r0, #4
 800c2f8:	f008 fb20 	bl	801493c <memset>
 800c2fc:	6862      	ldr	r2, [r4, #4]
 800c2fe:	f502 5350 	add.w	r3, r2, #13312	; 0x3400
 800c302:	1d18      	adds	r0, r3, #4
 800c304:	21ff      	movs	r1, #255	; 0xff
 800c306:	462a      	mov	r2, r5
 800c308:	e8bd 4038 	ldmia.w	sp!, {r3, r4, r5, lr}
 800c30c:	f008 bb16 	b.w	801493c <memset>

0800c310 <_ZN6detail31create_telem_rx_swap_semaphoresEv>:
 800c310:	b508      	push	{r3, lr}
 800c312:	2100      	movs	r1, #0
 800c314:	2203      	movs	r2, #3
 800c316:	2001      	movs	r0, #1
 800c318:	f002 fc96 	bl	800ec48 <xQueueGenericCreate>
 800c31c:	f640 03a8 	movw	r3, #2216	; 0x8a8
 800c320:	f2c1 0300 	movt	r3, #4096	; 0x1000
 800c324:	2100      	movs	r1, #0
 800c326:	6018      	str	r0, [r3, #0]
 800c328:	2203      	movs	r2, #3
 800c32a:	2001      	movs	r0, #1
 800c32c:	f002 fc8c 	bl	800ec48 <xQueueGenericCreate>
 800c330:	f640 01b0 	movw	r1, #2224	; 0x8b0
 800c334:	f2c1 0100 	movt	r1, #4096	; 0x1000
 800c338:	6008      	str	r0, [r1, #0]
 800c33a:	bd08      	pop	{r3, pc}

0800c33c <_ZN6detail21swap_telem_rx_buffersEv>:
 800c33c:	f640 0374 	movw	r3, #2164	; 0x874
 800c340:	f2c1 0300 	movt	r3, #4096	; 0x1000
 800c344:	b510      	push	{r4, lr}
 800c346:	f640 0164 	movw	r1, #2148	; 0x864
 800c34a:	681c      	ldr	r4, [r3, #0]
 800c34c:	685a      	ldr	r2, [r3, #4]
 800c34e:	f2c1 0100 	movt	r1, #4096	; 0x1000
 800c352:	f64c 43cd 	movw	r3, #52429	; 0xcccd
 800c356:	3c08      	subs	r4, #8
 800c358:	f6cc 43cc 	movt	r3, #52428	; 0xcccc
 800c35c:	6808      	ldr	r0, [r1, #0]
 800c35e:	fba3 1304 	umull	r1, r3, r3, r4
 800c362:	08db      	lsrs	r3, r3, #3
 800c364:	2100      	movs	r1, #0
 800c366:	fb02 f203 	mul.w	r2, r2, r3
 800c36a:	f008 fae7 	bl	801493c <memset>
 800c36e:	f640 00a8 	movw	r0, #2216	; 0x8a8
 800c372:	f2c1 0000 	movt	r0, #4096	; 0x1000
 800c376:	2100      	movs	r1, #0
 800c378:	460a      	mov	r2, r1
 800c37a:	460b      	mov	r3, r1
 800c37c:	6800      	ldr	r0, [r0, #0]
 800c37e:	f002 fc9f 	bl	800ecc0 <xQueueGenericSend>
 800c382:	f640 02b0 	movw	r2, #2224	; 0x8b0
 800c386:	f2c1 0200 	movt	r2, #4096	; 0x1000
 800c38a:	2100      	movs	r1, #0
 800c38c:	6810      	ldr	r0, [r2, #0]
 800c38e:	460b      	mov	r3, r1
 800c390:	f04f 32ff 	mov.w	r2, #4294967295
 800c394:	e8bd 4010 	ldmia.w	sp!, {r4, lr}
 800c398:	f002 be88 	b.w	800f0ac <xQueueGenericReceive>

0800c39c <_ZN9video_cfg7columns3osd6enableEv>:
 800c39c:	4b2b      	ldr	r3, [pc, #172]	; (800c44c <_ZN9video_cfg7columns3osd6enableEv+0xb0>)
 800c39e:	4a2c      	ldr	r2, [pc, #176]	; (800c450 <_ZN9video_cfg7columns3osd6enableEv+0xb4>)
 800c3a0:	8818      	ldrh	r0, [r3, #0]
 800c3a2:	492c      	ldr	r1, [pc, #176]	; (800c454 <_ZN9video_cfg7columns3osd6enableEv+0xb8>)
 800c3a4:	b570      	push	{r4, r5, r6, lr}
 800c3a6:	8814      	ldrh	r4, [r2, #0]
 800c3a8:	880d      	ldrh	r5, [r1, #0]
 800c3aa:	0446      	lsls	r6, r0, #17
 800c3ac:	0c73      	lsrs	r3, r6, #17
 800c3ae:	3407      	adds	r4, #7
 800c3b0:	f44f 4180 	mov.w	r1, #16384	; 0x4000
 800c3b4:	f04f 4280 	mov.w	r2, #1073741824	; 0x40000000
 800c3b8:	f2c4 0101 	movt	r1, #16385	; 0x4001
 800c3bc:	005e      	lsls	r6, r3, #1
 800c3be:	fb03 f505 	mul.w	r5, r3, r5
 800c3c2:	fb03 f404 	mul.w	r4, r3, r4
 800c3c6:	2000      	movs	r0, #0
 800c3c8:	3b01      	subs	r3, #1
 800c3ca:	3c01      	subs	r4, #1
 800c3cc:	3e01      	subs	r6, #1
 800c3ce:	3d01      	subs	r5, #1
 800c3d0:	6248      	str	r0, [r1, #36]	; 0x24
 800c3d2:	62ce      	str	r6, [r1, #44]	; 0x2c
 800c3d4:	634b      	str	r3, [r1, #52]	; 0x34
 800c3d6:	6250      	str	r0, [r2, #36]	; 0x24
 800c3d8:	6415      	str	r5, [r2, #64]	; 0x40
 800c3da:	62d4      	str	r4, [r2, #44]	; 0x2c
 800c3dc:	6891      	ldr	r1, [r2, #8]
 800c3de:	f44f 7306 	mov.w	r3, #536	; 0x218
 800c3e2:	f2c4 2300 	movt	r3, #16896	; 0x4200
 800c3e6:	f041 0406 	orr.w	r4, r1, #6
 800c3ea:	6094      	str	r4, [r2, #8]
 800c3ec:	b082      	sub	sp, #8
 800c3ee:	6018      	str	r0, [r3, #0]
 800c3f0:	bf00      	nop
 800c3f2:	f44f 70cc 	mov.w	r0, #408	; 0x198
 800c3f6:	f2c4 2000 	movt	r0, #16896	; 0x4200
 800c3fa:	4b17      	ldr	r3, [pc, #92]	; (800c458 <_ZN9video_cfg7columns3osd6enableEv+0xbc>)
 800c3fc:	4c17      	ldr	r4, [pc, #92]	; (800c45c <_ZN9video_cfg7columns3osd6enableEv+0xc0>)
 800c3fe:	2100      	movs	r1, #0
 800c400:	2201      	movs	r2, #1
 800c402:	6002      	str	r2, [r0, #0]
 800c404:	6818      	ldr	r0, [r3, #0]
 800c406:	460a      	mov	r2, r1
 800c408:	f002 ff6e 	bl	800f2e8 <xQueueReceiveFromISR>
 800c40c:	2801      	cmp	r0, #1
 800c40e:	d00d      	beq.n	800c42c <_ZN9video_cfg7columns3osd6enableEv+0x90>
 800c410:	4813      	ldr	r0, [pc, #76]	; (800c460 <_ZN9video_cfg7columns3osd6enableEv+0xc4>)
 800c412:	6803      	ldr	r3, [r0, #0]
 800c414:	2200      	movs	r2, #0
 800c416:	60a2      	str	r2, [r4, #8]
 800c418:	b133      	cbz	r3, 800c428 <_ZN9video_cfg7columns3osd6enableEv+0x8c>
 800c41a:	f64e 5104 	movw	r1, #60676	; 0xed04
 800c41e:	f2ce 0100 	movt	r1, #57344	; 0xe000
 800c422:	f04f 5080 	mov.w	r0, #268435456	; 0x10000000
 800c426:	6008      	str	r0, [r1, #0]
 800c428:	b002      	add	sp, #8
 800c42a:	bd70      	pop	{r4, r5, r6, pc}
 800c42c:	6825      	ldr	r5, [r4, #0]
 800c42e:	4e0d      	ldr	r6, [pc, #52]	; (800c464 <_ZN9video_cfg7columns3osd6enableEv+0xc8>)
 800c430:	9501      	str	r5, [sp, #4]
 800c432:	6861      	ldr	r1, [r4, #4]
 800c434:	6830      	ldr	r0, [r6, #0]
 800c436:	6021      	str	r1, [r4, #0]
 800c438:	9e01      	ldr	r6, [sp, #4]
 800c43a:	4a09      	ldr	r2, [pc, #36]	; (800c460 <_ZN9video_cfg7columns3osd6enableEv+0xc4>)
 800c43c:	6066      	str	r6, [r4, #4]
 800c43e:	2500      	movs	r5, #0
 800c440:	4629      	mov	r1, r5
 800c442:	462b      	mov	r3, r5
 800c444:	7325      	strb	r5, [r4, #12]
 800c446:	f002 fdab 	bl	800efa0 <xQueueGenericSendFromISR>
 800c44a:	e7e1      	b.n	800c410 <_ZN9video_cfg7columns3osd6enableEv+0x74>
 800c44c:	10000012 	.word	0x10000012
 800c450:	10000002 	.word	0x10000002
 800c454:	10000006 	.word	0x10000006
 800c458:	100008b4 	.word	0x100008b4
 800c45c:	1000087c 	.word	0x1000087c
 800c460:	100008a4 	.word	0x100008a4
 800c464:	100008ac 	.word	0x100008ac

0800c468 <_ZN9video_cfg7columns3osd7disableEv>:
 800c468:	f04f 4080 	mov.w	r0, #1073741824	; 0x40000000
 800c46c:	b410      	push	{r4}
 800c46e:	f44f 7106 	mov.w	r1, #536	; 0x218
 800c472:	6884      	ldr	r4, [r0, #8]
 800c474:	f44f 73cc 	mov.w	r3, #408	; 0x198
 800c478:	f2c4 2100 	movt	r1, #16896	; 0x4200
 800c47c:	f2c4 2300 	movt	r3, #16896	; 0x4200
 800c480:	2200      	movs	r2, #0
 800c482:	f024 0407 	bic.w	r4, r4, #7
 800c486:	6084      	str	r4, [r0, #8]
 800c488:	600a      	str	r2, [r1, #0]
 800c48a:	601a      	str	r2, [r3, #0]
 800c48c:	bc10      	pop	{r4}
 800c48e:	4770      	bx	lr

0800c490 <_ZN9video_cfg7columns5telem6enableEv>:
 800c490:	f240 0314 	movw	r3, #20
 800c494:	f2c1 0300 	movt	r3, #4096	; 0x1000
 800c498:	f240 0104 	movw	r1, #4
 800c49c:	f2c1 0100 	movt	r1, #4096	; 0x1000
 800c4a0:	f240 0200 	movw	r2, #0
 800c4a4:	b410      	push	{r4}
 800c4a6:	f2c1 0200 	movt	r2, #4096	; 0x1000
 800c4aa:	881c      	ldrh	r4, [r3, #0]
 800c4ac:	8808      	ldrh	r0, [r1, #0]
 800c4ae:	8811      	ldrh	r1, [r2, #0]
 800c4b0:	0463      	lsls	r3, r4, #17
 800c4b2:	0c5c      	lsrs	r4, r3, #17
 800c4b4:	3801      	subs	r0, #1
 800c4b6:	f04f 4280 	mov.w	r2, #1073741824	; 0x40000000
 800c4ba:	fb04 f300 	mul.w	r3, r4, r0
 800c4be:	fb04 f101 	mul.w	r1, r4, r1
 800c4c2:	3901      	subs	r1, #1
 800c4c4:	1e5c      	subs	r4, r3, #1
 800c4c6:	2000      	movs	r0, #0
 800c4c8:	6250      	str	r0, [r2, #36]	; 0x24
 800c4ca:	6411      	str	r1, [r2, #64]	; 0x40
 800c4cc:	62d4      	str	r4, [r2, #44]	; 0x2c
 800c4ce:	bf00      	nop
 800c4d0:	f44f 6286 	mov.w	r2, #1072	; 0x430
 800c4d4:	f44f 7306 	mov.w	r3, #536	; 0x218
 800c4d8:	f2c4 2200 	movt	r2, #16896	; 0x4200
 800c4dc:	f2c4 2300 	movt	r3, #16896	; 0x4200
 800c4e0:	2101      	movs	r1, #1
 800c4e2:	2400      	movs	r4, #0
 800c4e4:	6011      	str	r1, [r2, #0]
 800c4e6:	601c      	str	r4, [r3, #0]
 800c4e8:	bf00      	nop
 800c4ea:	f44f 70cc 	mov.w	r0, #408	; 0x198
 800c4ee:	f2c4 2000 	movt	r0, #16896	; 0x4200
 800c4f2:	f04f 4280 	mov.w	r2, #1073741824	; 0x40000000
 800c4f6:	6001      	str	r1, [r0, #0]
 800c4f8:	6891      	ldr	r1, [r2, #8]
 800c4fa:	f640 0364 	movw	r3, #2148	; 0x864
 800c4fe:	f041 0406 	orr.w	r4, r1, #6
 800c502:	f2c1 0300 	movt	r3, #4096	; 0x1000
 800c506:	6094      	str	r4, [r2, #8]
 800c508:	f246 4228 	movw	r2, #25640	; 0x6428
 800c50c:	6858      	ldr	r0, [r3, #4]
 800c50e:	f2c4 0202 	movt	r2, #16386	; 0x4002
 800c512:	f640 0374 	movw	r3, #2164	; 0x874
 800c516:	f2c1 0300 	movt	r3, #4096	; 0x1000
 800c51a:	60d0      	str	r0, [r2, #12]
 800c51c:	6819      	ldr	r1, [r3, #0]
 800c51e:	6858      	ldr	r0, [r3, #4]
 800c520:	f64c 44cd 	movw	r4, #52429	; 0xcccd
 800c524:	3908      	subs	r1, #8
 800c526:	f6cc 44cc 	movt	r4, #52428	; 0xcccc
 800c52a:	fba4 4301 	umull	r4, r3, r4, r1
 800c52e:	08dc      	lsrs	r4, r3, #3
 800c530:	f44f 41c8 	mov.w	r1, #25600	; 0x6400
 800c534:	f2c4 0102 	movt	r1, #16386	; 0x4002
 800c538:	fb00 f404 	mul.w	r4, r0, r4
 800c53c:	6054      	str	r4, [r2, #4]
 800c53e:	6888      	ldr	r0, [r1, #8]
 800c540:	f440 6374 	orr.w	r3, r0, #3904	; 0xf40
 800c544:	608b      	str	r3, [r1, #8]
 800c546:	688c      	ldr	r4, [r1, #8]
 800c548:	f44f 53a0 	mov.w	r3, #5120	; 0x1400
 800c54c:	f2c4 0301 	movt	r3, #16385	; 0x4001
 800c550:	f424 6074 	bic.w	r0, r4, #3904	; 0xf40
 800c554:	6088      	str	r0, [r1, #8]
 800c556:	6919      	ldr	r1, [r3, #16]
 800c558:	f421 4480 	bic.w	r4, r1, #16384	; 0x4000
 800c55c:	611c      	str	r4, [r3, #16]
 800c55e:	6958      	ldr	r0, [r3, #20]
 800c560:	f040 0140 	orr.w	r1, r0, #64	; 0x40
 800c564:	6159      	str	r1, [r3, #20]
 800c566:	695c      	ldr	r4, [r3, #20]
 800c568:	2100      	movs	r1, #0
 800c56a:	f444 6000 	orr.w	r0, r4, #2048	; 0x800
 800c56e:	6158      	str	r0, [r3, #20]
 800c570:	6019      	str	r1, [r3, #0]
 800c572:	68dc      	ldr	r4, [r3, #12]
 800c574:	f444 5000 	orr.w	r0, r4, #8192	; 0x2000
 800c578:	60d8      	str	r0, [r3, #12]
 800c57a:	6813      	ldr	r3, [r2, #0]
 800c57c:	f043 0101 	orr.w	r1, r3, #1
 800c580:	6011      	str	r1, [r2, #0]
 800c582:	bc10      	pop	{r4}
 800c584:	4770      	bx	lr
 800c586:	bf00      	nop

0800c588 <_ZN9video_cfg7columns5telem7disableEv>:
 800c588:	b570      	push	{r4, r5, r6, lr}
 800c58a:	f04f 4580 	mov.w	r5, #1073741824	; 0x40000000
 800c58e:	f44f 7406 	mov.w	r4, #536	; 0x218
 800c592:	68ae      	ldr	r6, [r5, #8]
 800c594:	4a35      	ldr	r2, [pc, #212]	; (800c66c <_ZN9video_cfg7columns5telem7disableEv+0xe4>)
 800c596:	f44f 70cc 	mov.w	r0, #408	; 0x198
 800c59a:	f44f 6186 	mov.w	r1, #1072	; 0x430
 800c59e:	f2c4 2400 	movt	r4, #16896	; 0x4200
 800c5a2:	f2c4 2000 	movt	r0, #16896	; 0x4200
 800c5a6:	f2c4 2100 	movt	r1, #16896	; 0x4200
 800c5aa:	2300      	movs	r3, #0
 800c5ac:	f026 0607 	bic.w	r6, r6, #7
 800c5b0:	60ae      	str	r6, [r5, #8]
 800c5b2:	6023      	str	r3, [r4, #0]
 800c5b4:	6003      	str	r3, [r0, #0]
 800c5b6:	600b      	str	r3, [r1, #0]
 800c5b8:	6814      	ldr	r4, [r2, #0]
 800c5ba:	6850      	ldr	r0, [r2, #4]
 800c5bc:	f64c 45cd 	movw	r5, #52429	; 0xcccd
 800c5c0:	f246 4228 	movw	r2, #25640	; 0x6428
 800c5c4:	3c08      	subs	r4, #8
 800c5c6:	f2c4 0202 	movt	r2, #16386	; 0x4002
 800c5ca:	f6cc 45cc 	movt	r5, #52428	; 0xcccc
 800c5ce:	fba5 5104 	umull	r5, r1, r5, r4
 800c5d2:	08c9      	lsrs	r1, r1, #3
 800c5d4:	6852      	ldr	r2, [r2, #4]
 800c5d6:	fb00 f101 	mul.w	r1, r0, r1
 800c5da:	428a      	cmp	r2, r1
 800c5dc:	b082      	sub	sp, #8
 800c5de:	d02e      	beq.n	800c63e <_ZN9video_cfg7columns5telem7disableEv+0xb6>
 800c5e0:	bf00      	nop
 800c5e2:	f248 23b0 	movw	r3, #33456	; 0x82b0
 800c5e6:	f2c4 2340 	movt	r3, #16960	; 0x4240
 800c5ea:	2001      	movs	r0, #1
 800c5ec:	6018      	str	r0, [r3, #0]
 800c5ee:	f246 4028 	movw	r0, #25640	; 0x6428
 800c5f2:	f2c4 0002 	movt	r0, #16386	; 0x4002
 800c5f6:	f44f 53a0 	mov.w	r3, #5120	; 0x1400
 800c5fa:	6801      	ldr	r1, [r0, #0]
 800c5fc:	f2c4 0301 	movt	r3, #16385	; 0x4001
 800c600:	f021 0201 	bic.w	r2, r1, #1
 800c604:	6002      	str	r2, [r0, #0]
 800c606:	695a      	ldr	r2, [r3, #20]
 800c608:	4819      	ldr	r0, [pc, #100]	; (800c670 <_ZN9video_cfg7columns5telem7disableEv+0xe8>)
 800c60a:	f022 0140 	bic.w	r1, r2, #64	; 0x40
 800c60e:	6800      	ldr	r0, [r0, #0]
 800c610:	6159      	str	r1, [r3, #20]
 800c612:	68da      	ldr	r2, [r3, #12]
 800c614:	2100      	movs	r1, #0
 800c616:	f422 5200 	bic.w	r2, r2, #8192	; 0x2000
 800c61a:	60da      	str	r2, [r3, #12]
 800c61c:	460a      	mov	r2, r1
 800c61e:	f002 fe63 	bl	800f2e8 <xQueueReceiveFromISR>
 800c622:	2801      	cmp	r0, #1
 800c624:	d011      	beq.n	800c64a <_ZN9video_cfg7columns5telem7disableEv+0xc2>
 800c626:	4813      	ldr	r0, [pc, #76]	; (800c674 <_ZN9video_cfg7columns5telem7disableEv+0xec>)
 800c628:	6801      	ldr	r1, [r0, #0]
 800c62a:	b131      	cbz	r1, 800c63a <_ZN9video_cfg7columns5telem7disableEv+0xb2>
 800c62c:	f64e 5304 	movw	r3, #60676	; 0xed04
 800c630:	f2ce 0300 	movt	r3, #57344	; 0xe000
 800c634:	f04f 5280 	mov.w	r2, #268435456	; 0x10000000
 800c638:	601a      	str	r2, [r3, #0]
 800c63a:	b002      	add	sp, #8
 800c63c:	bd70      	pop	{r4, r5, r6, pc}
 800c63e:	f248 22b0 	movw	r2, #33456	; 0x82b0
 800c642:	f2c4 2240 	movt	r2, #16960	; 0x4240
 800c646:	6013      	str	r3, [r2, #0]
 800c648:	e7d1      	b.n	800c5ee <_ZN9video_cfg7columns5telem7disableEv+0x66>
 800c64a:	4c0b      	ldr	r4, [pc, #44]	; (800c678 <_ZN9video_cfg7columns5telem7disableEv+0xf0>)
 800c64c:	4d0b      	ldr	r5, [pc, #44]	; (800c67c <_ZN9video_cfg7columns5telem7disableEv+0xf4>)
 800c64e:	6826      	ldr	r6, [r4, #0]
 800c650:	6828      	ldr	r0, [r5, #0]
 800c652:	9601      	str	r6, [sp, #4]
 800c654:	6863      	ldr	r3, [r4, #4]
 800c656:	4a07      	ldr	r2, [pc, #28]	; (800c674 <_ZN9video_cfg7columns5telem7disableEv+0xec>)
 800c658:	6023      	str	r3, [r4, #0]
 800c65a:	9e01      	ldr	r6, [sp, #4]
 800c65c:	2500      	movs	r5, #0
 800c65e:	6066      	str	r6, [r4, #4]
 800c660:	4629      	mov	r1, r5
 800c662:	462b      	mov	r3, r5
 800c664:	7325      	strb	r5, [r4, #12]
 800c666:	f002 fc9b 	bl	800efa0 <xQueueGenericSendFromISR>
 800c66a:	e7dc      	b.n	800c626 <_ZN9video_cfg7columns5telem7disableEv+0x9e>
 800c66c:	10000874 	.word	0x10000874
 800c670:	100008a8 	.word	0x100008a8
 800c674:	100008b8 	.word	0x100008b8
 800c678:	10000864 	.word	0x10000864
 800c67c:	100008b0 	.word	0x100008b0

0800c680 <_ZN9video_cfg7columns3osd5beginEv>:
 800c680:	f240 0102 	movw	r1, #2
 800c684:	f240 0206 	movw	r2, #6
 800c688:	f2c1 0100 	movt	r1, #4096	; 0x1000
 800c68c:	f2c1 0200 	movt	r2, #4096	; 0x1000
 800c690:	f640 037c 	movw	r3, #2172	; 0x87c
 800c694:	f2c1 0300 	movt	r3, #4096	; 0x1000
 800c698:	e92d 07f0 	stmdb	sp!, {r4, r5, r6, r7, r8, r9, sl}
 800c69c:	8816      	ldrh	r6, [r2, #0]
 800c69e:	880d      	ldrh	r5, [r1, #0]
 800c6a0:	681c      	ldr	r4, [r3, #0]
 800c6a2:	6898      	ldr	r0, [r3, #8]
 800c6a4:	681f      	ldr	r7, [r3, #0]
 800c6a6:	1ba9      	subs	r1, r5, r6
 800c6a8:	1824      	adds	r4, r4, r0
 800c6aa:	f3c1 05cc 	ubfx	r5, r1, #3, #13
 800c6ae:	1c6b      	adds	r3, r5, #1
 800c6b0:	1d22      	adds	r2, r4, #4
 800c6b2:	f500 5c50 	add.w	ip, r0, #13312	; 0x3400
 800c6b6:	5cd6      	ldrb	r6, [r2, r3]
 800c6b8:	eb07 0a0c 	add.w	sl, r7, ip
 800c6bc:	f046 010f 	orr.w	r1, r6, #15
 800c6c0:	54d1      	strb	r1, [r2, r3]
 800c6c2:	f10a 0804 	add.w	r8, sl, #4
 800c6c6:	f246 0670 	movw	r6, #24688	; 0x6070
 800c6ca:	f818 9003 	ldrb.w	r9, [r8, r3]
 800c6ce:	f246 0188 	movw	r1, #24712	; 0x6088
 800c6d2:	f2c4 0602 	movt	r6, #16386	; 0x4002
 800c6d6:	f2c4 0102 	movt	r1, #16386	; 0x4002
 800c6da:	f049 0c0f 	orr.w	ip, r9, #15
 800c6de:	f44f 42c0 	mov.w	r2, #24576	; 0x6000
 800c6e2:	f808 c003 	strb.w	ip, [r8, r3]
 800c6e6:	f2c4 0202 	movt	r2, #16386	; 0x4002
 800c6ea:	f104 0805 	add.w	r8, r4, #5
 800c6ee:	f10a 0305 	add.w	r3, sl, #5
 800c6f2:	f8c6 800c 	str.w	r8, [r6, #12]
 800c6f6:	60cb      	str	r3, [r1, #12]
 800c6f8:	6075      	str	r5, [r6, #4]
 800c6fa:	604d      	str	r5, [r1, #4]
 800c6fc:	68d5      	ldr	r5, [r2, #12]
 800c6fe:	f445 6677 	orr.w	r6, r5, #3952	; 0xf70
 800c702:	f046 010d 	orr.w	r1, r6, #13
 800c706:	60d1      	str	r1, [r2, #12]
 800c708:	68d5      	ldr	r5, [r2, #12]
 800c70a:	f44f 5360 	mov.w	r3, #14336	; 0x3800
 800c70e:	f425 6677 	bic.w	r6, r5, #3952	; 0xf70
 800c712:	f2c4 0302 	movt	r3, #16386	; 0x4002
 800c716:	f026 010d 	bic.w	r1, r6, #13
 800c71a:	60d1      	str	r1, [r2, #12]
 800c71c:	6c1a      	ldr	r2, [r3, #64]	; 0x40
 800c71e:	f442 4540 	orr.w	r5, r2, #49152	; 0xc000
 800c722:	641d      	str	r5, [r3, #64]	; 0x40
 800c724:	6a1e      	ldr	r6, [r3, #32]
 800c726:	f446 4140 	orr.w	r1, r6, #49152	; 0xc000
 800c72a:	6219      	str	r1, [r3, #32]
 800c72c:	f8d3 a020 	ldr.w	sl, [r3, #32]
 800c730:	f44f 5160 	mov.w	r1, #14336	; 0x3800
 800c734:	f44f 5270 	mov.w	r2, #15360	; 0x3c00
 800c738:	f04f 0c20 	mov.w	ip, #32
 800c73c:	f248 0520 	movw	r5, #32800	; 0x8020
 800c740:	f2c4 0100 	movt	r1, #16384	; 0x4000
 800c744:	f2c4 0200 	movt	r2, #16384	; 0x4000
 800c748:	f2c4 2c07 	movt	ip, #16903	; 0x4207
 800c74c:	f2c4 2507 	movt	r5, #16903	; 0x4207
 800c750:	f24c 3980 	movw	r9, #50048	; 0xc380
 800c754:	f04f 0802 	mov.w	r8, #2
 800c758:	2600      	movs	r6, #0
 800c75a:	f42a 4a40 	bic.w	sl, sl, #49152	; 0xc000
 800c75e:	f8c3 a020 	str.w	sl, [r3, #32]
 800c762:	f8c1 9000 	str.w	r9, [r1]
 800c766:	f8c1 8004 	str.w	r8, [r1, #4]
 800c76a:	f8c2 9000 	str.w	r9, [r2]
 800c76e:	f8c2 8004 	str.w	r8, [r2, #4]
 800c772:	f8cc 6000 	str.w	r6, [ip]
 800c776:	602e      	str	r6, [r5, #0]
 800c778:	7923      	ldrb	r3, [r4, #4]
 800c77a:	1838      	adds	r0, r7, r0
 800c77c:	f043 0301 	orr.w	r3, r3, #1
 800c780:	f500 5050 	add.w	r0, r0, #13312	; 0x3400
 800c784:	818b      	strh	r3, [r1, #12]
 800c786:	7901      	ldrb	r1, [r0, #4]
 800c788:	f041 0301 	orr.w	r3, r1, #1
 800c78c:	8193      	strh	r3, [r2, #12]
 800c78e:	bf00      	nop
 800c790:	2018      	movs	r0, #24
 800c792:	f2c4 2007 	movt	r0, #16903	; 0x4207
 800c796:	2201      	movs	r2, #1
 800c798:	6002      	str	r2, [r0, #0]
 800c79a:	bf00      	nop
 800c79c:	f248 0318 	movw	r3, #32792	; 0x8018
 800c7a0:	f2c4 2307 	movt	r3, #16903	; 0x4207
 800c7a4:	f246 0070 	movw	r0, #24688	; 0x6070
 800c7a8:	f2c4 0002 	movt	r0, #16386	; 0x4002
 800c7ac:	2101      	movs	r1, #1
 800c7ae:	6019      	str	r1, [r3, #0]
 800c7b0:	6802      	ldr	r2, [r0, #0]
 800c7b2:	f246 0388 	movw	r3, #24712	; 0x6088
 800c7b6:	f2c4 0302 	movt	r3, #16386	; 0x4002
 800c7ba:	f042 0101 	orr.w	r1, r2, #1
 800c7be:	6001      	str	r1, [r0, #0]
 800c7c0:	6818      	ldr	r0, [r3, #0]
 800c7c2:	f040 0201 	orr.w	r2, r0, #1
 800c7c6:	601a      	str	r2, [r3, #0]
 800c7c8:	e8bd 07f0 	ldmia.w	sp!, {r4, r5, r6, r7, r8, r9, sl}
 800c7cc:	4770      	bx	lr
 800c7ce:	bf00      	nop

0800c7d0 <_ZN9video_cfg7columns5setupEv>:
 800c7d0:	f44f 5160 	mov.w	r1, #14336	; 0x3800
 800c7d4:	f2c4 0102 	movt	r1, #16386	; 0x4002
 800c7d8:	b410      	push	{r4}
 800c7da:	6c0b      	ldr	r3, [r1, #64]	; 0x40
 800c7dc:	f043 0001 	orr.w	r0, r3, #1
 800c7e0:	6408      	str	r0, [r1, #64]	; 0x40
 800c7e2:	2200      	movs	r2, #0
 800c7e4:	6a0c      	ldr	r4, [r1, #32]
 800c7e6:	4610      	mov	r0, r2
 800c7e8:	f362 0000 	bfi	r0, r2, #0, #1
 800c7ec:	f044 0301 	orr.w	r3, r4, #1
 800c7f0:	f362 0041 	bfi	r0, r2, #1, #1
 800c7f4:	620b      	str	r3, [r1, #32]
 800c7f6:	f040 000c 	orr.w	r0, r0, #12
 800c7fa:	6a0c      	ldr	r4, [r1, #32]
 800c7fc:	f420 707c 	bic.w	r0, r0, #1008	; 0x3f0
 800c800:	f04f 4380 	mov.w	r3, #1073741824	; 0x40000000
 800c804:	0400      	lsls	r0, r0, #16
 800c806:	0c00      	lsrs	r0, r0, #16
 800c808:	f024 0401 	bic.w	r4, r4, #1
 800c80c:	620c      	str	r4, [r1, #32]
 800c80e:	6018      	str	r0, [r3, #0]
 800c810:	6859      	ldr	r1, [r3, #4]
 800c812:	f362 11c7 	bfi	r1, r2, #7, #1
 800c816:	f041 0070 	orr.w	r0, r1, #112	; 0x70
 800c81a:	b281      	uxth	r1, r0
 800c81c:	6059      	str	r1, [r3, #4]
 800c81e:	6899      	ldr	r1, [r3, #8]
 800c820:	2005      	movs	r0, #5
 800c822:	f362 11c7 	bfi	r1, r2, #7, #1
 800c826:	f360 1106 	bfi	r1, r0, #4, #3
 800c82a:	f021 0107 	bic.w	r1, r1, #7
 800c82e:	0408      	lsls	r0, r1, #16
 800c830:	0c01      	lsrs	r1, r0, #16
 800c832:	6099      	str	r1, [r3, #8]
 800c834:	6999      	ldr	r1, [r3, #24]
 800c836:	2001      	movs	r0, #1
 800c838:	f360 0101 	bfi	r1, r0, #0, #2
 800c83c:	f021 01fc 	bic.w	r1, r1, #252	; 0xfc
 800c840:	0408      	lsls	r0, r1, #16
 800c842:	0c01      	lsrs	r1, r0, #16
 800c844:	6199      	str	r1, [r3, #24]
 800c846:	69d8      	ldr	r0, [r3, #28]
 800c848:	f362 2009 	bfi	r0, r2, #8, #2
 800c84c:	f362 208a 	bfi	r0, r2, #10, #1
 800c850:	f362 20cb 	bfi	r0, r2, #11, #1
 800c854:	f440 41e0 	orr.w	r1, r0, #28672	; 0x7000
 800c858:	b288      	uxth	r0, r1
 800c85a:	61d8      	str	r0, [r3, #28]
 800c85c:	6a19      	ldr	r1, [r3, #32]
 800c85e:	f362 01c3 	bfi	r1, r2, #3, #1
 800c862:	f362 0141 	bfi	r1, r2, #1, #1
 800c866:	f441 5040 	orr.w	r0, r1, #12288	; 0x3000
 800c86a:	b281      	uxth	r1, r0
 800c86c:	6219      	str	r1, [r3, #32]
 800c86e:	629a      	str	r2, [r3, #40]	; 0x28
 800c870:	68d8      	ldr	r0, [r3, #12]
 800c872:	f44f 4161 	mov.w	r1, #57600	; 0xe100
 800c876:	f040 0041 	orr.w	r0, r0, #65	; 0x41
 800c87a:	f2ce 0100 	movt	r1, #57344	; 0xe000
 800c87e:	b280      	uxth	r0, r0
 800c880:	60d8      	str	r0, [r3, #12]
 800c882:	611a      	str	r2, [r3, #16]
 800c884:	22b0      	movs	r2, #176	; 0xb0
 800c886:	f04f 5380 	mov.w	r3, #268435456	; 0x10000000
 800c88a:	f881 231c 	strb.w	r2, [r1, #796]	; 0x31c
 800c88e:	600b      	str	r3, [r1, #0]
 800c890:	bc10      	pop	{r4}
 800c892:	4770      	bx	lr

0800c894 <TIM2_IRQHandler>:
 800c894:	f44f 7306 	mov.w	r3, #536	; 0x218
 800c898:	4668      	mov	r0, sp
 800c89a:	f2c4 2300 	movt	r3, #16896	; 0x4200
 800c89e:	f020 0107 	bic.w	r1, r0, #7
 800c8a2:	468d      	mov	sp, r1
 800c8a4:	6819      	ldr	r1, [r3, #0]
 800c8a6:	b531      	push	{r0, r4, r5, lr}
 800c8a8:	2900      	cmp	r1, #0
 800c8aa:	d148      	bne.n	800c93e <TIM2_IRQHandler+0xaa>
 800c8ac:	f44f 7200 	mov.w	r2, #512	; 0x200
 800c8b0:	f2c4 2200 	movt	r2, #16896	; 0x4200
 800c8b4:	6810      	ldr	r0, [r2, #0]
 800c8b6:	b918      	cbnz	r0, 800c8c0 <TIM2_IRQHandler+0x2c>
 800c8b8:	e8bd 4031 	ldmia.w	sp!, {r0, r4, r5, lr}
 800c8bc:	4685      	mov	sp, r0
 800c8be:	4770      	bx	lr
 800c8c0:	6011      	str	r1, [r2, #0]
 800c8c2:	4a26      	ldr	r2, [pc, #152]	; (800c95c <TIM2_IRQHandler+0xc8>)
 800c8c4:	6810      	ldr	r0, [r2, #0]
 800c8c6:	2801      	cmp	r0, #1
 800c8c8:	d0f6      	beq.n	800c8b8 <TIM2_IRQHandler+0x24>
 800c8ca:	6019      	str	r1, [r3, #0]
 800c8cc:	bf00      	nop
 800c8ce:	f44f 75cc 	mov.w	r5, #408	; 0x198
 800c8d2:	f2c4 2500 	movt	r5, #16896	; 0x4200
 800c8d6:	4b22      	ldr	r3, [pc, #136]	; (800c960 <TIM2_IRQHandler+0xcc>)
 800c8d8:	4c22      	ldr	r4, [pc, #136]	; (800c964 <TIM2_IRQHandler+0xd0>)
 800c8da:	4823      	ldr	r0, [pc, #140]	; (800c968 <TIM2_IRQHandler+0xd4>)
 800c8dc:	8824      	ldrh	r4, [r4, #0]
 800c8de:	881a      	ldrh	r2, [r3, #0]
 800c8e0:	2101      	movs	r1, #1
 800c8e2:	6029      	str	r1, [r5, #0]
 800c8e4:	6885      	ldr	r5, [r0, #8]
 800c8e6:	1aa4      	subs	r4, r4, r2
 800c8e8:	186d      	adds	r5, r5, r1
 800c8ea:	f3c4 04cc 	ubfx	r4, r4, #3, #13
 800c8ee:	f44f 4280 	mov.w	r2, #16384	; 0x4000
 800c8f2:	192c      	adds	r4, r5, r4
 800c8f4:	6084      	str	r4, [r0, #8]
 800c8f6:	f2c4 0201 	movt	r2, #16385	; 0x4001
 800c8fa:	f04f 4080 	mov.w	r0, #1073741824	; 0x40000000
 800c8fe:	f44f 5360 	mov.w	r3, #14336	; 0x3800
 800c902:	f2c4 0302 	movt	r3, #16386	; 0x4002
 800c906:	2100      	movs	r1, #0
 800c908:	6241      	str	r1, [r0, #36]	; 0x24
 800c90a:	6251      	str	r1, [r2, #36]	; 0x24
 800c90c:	6c1a      	ldr	r2, [r3, #64]	; 0x40
 800c90e:	f422 4140 	bic.w	r1, r2, #49152	; 0xc000
 800c912:	6419      	str	r1, [r3, #64]	; 0x40
 800c914:	6a18      	ldr	r0, [r3, #32]
 800c916:	f246 0270 	movw	r2, #24688	; 0x6070
 800c91a:	f2c4 0202 	movt	r2, #16386	; 0x4002
 800c91e:	f440 4140 	orr.w	r1, r0, #49152	; 0xc000
 800c922:	6219      	str	r1, [r3, #32]
 800c924:	6810      	ldr	r0, [r2, #0]
 800c926:	f246 0388 	movw	r3, #24712	; 0x6088
 800c92a:	f2c4 0302 	movt	r3, #16386	; 0x4002
 800c92e:	f020 0101 	bic.w	r1, r0, #1
 800c932:	6011      	str	r1, [r2, #0]
 800c934:	681a      	ldr	r2, [r3, #0]
 800c936:	f022 0001 	bic.w	r0, r2, #1
 800c93a:	6018      	str	r0, [r3, #0]
 800c93c:	e7bc      	b.n	800c8b8 <TIM2_IRQHandler+0x24>
 800c93e:	4907      	ldr	r1, [pc, #28]	; (800c95c <TIM2_IRQHandler+0xc8>)
 800c940:	f44f 72cc 	mov.w	r2, #408	; 0x198
 800c944:	6808      	ldr	r0, [r1, #0]
 800c946:	f2c4 2200 	movt	r2, #16896	; 0x4200
 800c94a:	2100      	movs	r1, #0
 800c94c:	2801      	cmp	r0, #1
 800c94e:	6019      	str	r1, [r3, #0]
 800c950:	6011      	str	r1, [r2, #0]
 800c952:	d0b1      	beq.n	800c8b8 <TIM2_IRQHandler+0x24>
 800c954:	f7ff fe94 	bl	800c680 <_ZN9video_cfg7columns3osd5beginEv>
 800c958:	e7ae      	b.n	800c8b8 <TIM2_IRQHandler+0x24>
 800c95a:	bf00      	nop
 800c95c:	100008bc 	.word	0x100008bc
 800c960:	10000006 	.word	0x10000006
 800c964:	10000002 	.word	0x10000002
 800c968:	1000087c 	.word	0x1000087c

0800c96c <_ZN9video_cfg4rows5setupEv>:
 800c96c:	f44f 5260 	mov.w	r2, #14336	; 0x3800
 800c970:	f2c4 0202 	movt	r2, #16386	; 0x4002
 800c974:	4831      	ldr	r0, [pc, #196]	; (800ca3c <_ZN9video_cfg4rows5setupEv+0xd0>)
 800c976:	4932      	ldr	r1, [pc, #200]	; (800ca40 <_ZN9video_cfg4rows5setupEv+0xd4>)
 800c978:	b538      	push	{r3, r4, r5, lr}
 800c97a:	6c15      	ldr	r5, [r2, #64]	; 0x40
 800c97c:	8804      	ldrh	r4, [r0, #0]
 800c97e:	4831      	ldr	r0, [pc, #196]	; (800ca44 <_ZN9video_cfg4rows5setupEv+0xd8>)
 800c980:	8809      	ldrh	r1, [r1, #0]
 800c982:	8800      	ldrh	r0, [r0, #0]
 800c984:	f045 0502 	orr.w	r5, r5, #2
 800c988:	6415      	str	r5, [r2, #64]	; 0x40
 800c98a:	6a15      	ldr	r5, [r2, #32]
 800c98c:	f045 0502 	orr.w	r5, r5, #2
 800c990:	6215      	str	r5, [r2, #32]
 800c992:	6a15      	ldr	r5, [r2, #32]
 800c994:	f44f 6380 	mov.w	r3, #1024	; 0x400
 800c998:	f2c4 0300 	movt	r3, #16384	; 0x4000
 800c99c:	f025 0502 	bic.w	r5, r5, #2
 800c9a0:	6215      	str	r5, [r2, #32]
 800c9a2:	681a      	ldr	r2, [r3, #0]
 800c9a4:	f042 0508 	orr.w	r5, r2, #8
 800c9a8:	b2aa      	uxth	r2, r5
 800c9aa:	601a      	str	r2, [r3, #0]
 800c9ac:	685d      	ldr	r5, [r3, #4]
 800c9ae:	f64f 727f 	movw	r2, #65407	; 0xff7f
 800c9b2:	402a      	ands	r2, r5
 800c9b4:	605a      	str	r2, [r3, #4]
 800c9b6:	689d      	ldr	r5, [r3, #8]
 800c9b8:	f24c 02ff 	movw	r2, #49407	; 0xc0ff
 800c9bc:	f445 4540 	orr.w	r5, r5, #49152	; 0xc000
 800c9c0:	402a      	ands	r2, r5
 800c9c2:	609a      	str	r2, [r3, #8]
 800c9c4:	699a      	ldr	r2, [r3, #24]
 800c9c6:	2501      	movs	r5, #1
 800c9c8:	f365 0201 	bfi	r2, r5, #0, #2
 800c9cc:	f422 42f7 	bic.w	r2, r2, #31616	; 0x7b80
 800c9d0:	f022 0570 	bic.w	r5, r2, #112	; 0x70
 800c9d4:	042a      	lsls	r2, r5, #16
 800c9d6:	0c15      	lsrs	r5, r2, #16
 800c9d8:	619d      	str	r5, [r3, #24]
 800c9da:	6a1a      	ldr	r2, [r3, #32]
 800c9dc:	f042 0510 	orr.w	r5, r2, #16
 800c9e0:	b2aa      	uxth	r2, r5
 800c9e2:	621a      	str	r2, [r3, #32]
 800c9e4:	69dd      	ldr	r5, [r3, #28]
 800c9e6:	0849      	lsrs	r1, r1, #1
 800c9e8:	f248 4284 	movw	r2, #33924	; 0x8484
 800c9ec:	3901      	subs	r1, #1
 800c9ee:	402a      	ands	r2, r5
 800c9f0:	3801      	subs	r0, #1
 800c9f2:	3c01      	subs	r4, #1
 800c9f4:	61da      	str	r2, [r3, #28]
 800c9f6:	639c      	str	r4, [r3, #56]	; 0x38
 800c9f8:	63d8      	str	r0, [r3, #60]	; 0x3c
 800c9fa:	6419      	str	r1, [r3, #64]	; 0x40
 800c9fc:	f000 fb88 	bl	800d110 <_ZN9video_cfg14get_video_modeEv>
 800ca00:	2801      	cmp	r0, #1
 800ca02:	bf0c      	ite	eq
 800ca04:	4b10      	ldreq	r3, [pc, #64]	; (800ca48 <_ZN9video_cfg4rows5setupEv+0xdc>)
 800ca06:	4b11      	ldrne	r3, [pc, #68]	; (800ca4c <_ZN9video_cfg4rows5setupEv+0xe0>)
 800ca08:	881a      	ldrh	r2, [r3, #0]
 800ca0a:	f44f 6080 	mov.w	r0, #1024	; 0x400
 800ca0e:	f2c4 0000 	movt	r0, #16384	; 0x4000
 800ca12:	0851      	lsrs	r1, r2, #1
 800ca14:	1e8b      	subs	r3, r1, #2
 800ca16:	62c3      	str	r3, [r0, #44]	; 0x2c
 800ca18:	68c1      	ldr	r1, [r0, #12]
 800ca1a:	f44f 4261 	mov.w	r2, #57600	; 0xe100
 800ca1e:	f041 031d 	orr.w	r3, r1, #29
 800ca22:	b299      	uxth	r1, r3
 800ca24:	f2ce 0200 	movt	r2, #57344	; 0xe000
 800ca28:	2300      	movs	r3, #0
 800ca2a:	60c1      	str	r1, [r0, #12]
 800ca2c:	6243      	str	r3, [r0, #36]	; 0x24
 800ca2e:	f04f 5100 	mov.w	r1, #536870912	; 0x20000000
 800ca32:	20b0      	movs	r0, #176	; 0xb0
 800ca34:	f882 031d 	strb.w	r0, [r2, #797]	; 0x31d
 800ca38:	6011      	str	r1, [r2, #0]
 800ca3a:	bd38      	pop	{r3, r4, r5, pc}
 800ca3c:	1000000a 	.word	0x1000000a
 800ca40:	10000010 	.word	0x10000010
 800ca44:	1000000e 	.word	0x1000000e
 800ca48:	1000000c 	.word	0x1000000c
 800ca4c:	10000008 	.word	0x10000008

0800ca50 <TIM3_IRQHandler>:
 800ca50:	4668      	mov	r0, sp
 800ca52:	f020 0107 	bic.w	r1, r0, #7
 800ca56:	468d      	mov	sp, r1
 800ca58:	b519      	push	{r0, r3, r4, lr}
 800ca5a:	f44f 6380 	mov.w	r3, #1024	; 0x400
 800ca5e:	f2c4 0300 	movt	r3, #16384	; 0x4000
 800ca62:	6918      	ldr	r0, [r3, #16]
 800ca64:	f010 0404 	ands.w	r4, r0, #4
 800ca68:	d124      	bne.n	800cab4 <TIM3_IRQHandler+0x64>
 800ca6a:	f010 0208 	ands.w	r2, r0, #8
 800ca6e:	d12d      	bne.n	800cacc <TIM3_IRQHandler+0x7c>
 800ca70:	f010 0410 	ands.w	r4, r0, #16
 800ca74:	d113      	bne.n	800ca9e <TIM3_IRQHandler+0x4e>
 800ca76:	f44f 4102 	mov.w	r1, #33280	; 0x8200
 800ca7a:	f2c4 2100 	movt	r1, #16896	; 0x4200
 800ca7e:	600c      	str	r4, [r1, #0]
 800ca80:	f7ff fcf2 	bl	800c468 <_ZN9video_cfg7columns3osd7disableEv>
 800ca84:	f44f 4300 	mov.w	r3, #32768	; 0x8000
 800ca88:	f2c4 2300 	movt	r3, #16896	; 0x4200
 800ca8c:	4814      	ldr	r0, [pc, #80]	; (800cae0 <TIM3_IRQHandler+0x90>)
 800ca8e:	6004      	str	r4, [r0, #0]
 800ca90:	601c      	str	r4, [r3, #0]
 800ca92:	f000 fb43 	bl	800d11c <_ZN6detail15sync_sep_enableEv>
 800ca96:	e8bd 4019 	ldmia.w	sp!, {r0, r3, r4, lr}
 800ca9a:	4685      	mov	sp, r0
 800ca9c:	4770      	bx	lr
 800ca9e:	f248 2110 	movw	r1, #33296	; 0x8210
 800caa2:	f2c4 2100 	movt	r1, #16896	; 0x4200
 800caa6:	4b0e      	ldr	r3, [pc, #56]	; (800cae0 <TIM3_IRQHandler+0x90>)
 800caa8:	600a      	str	r2, [r1, #0]
 800caaa:	2202      	movs	r2, #2
 800caac:	601a      	str	r2, [r3, #0]
 800caae:	f7ff fc75 	bl	800c39c <_ZN9video_cfg7columns3osd6enableEv>
 800cab2:	e7f0      	b.n	800ca96 <TIM3_IRQHandler+0x46>
 800cab4:	f248 2308 	movw	r3, #33288	; 0x8208
 800cab8:	f2c4 2300 	movt	r3, #16896	; 0x4200
 800cabc:	2200      	movs	r2, #0
 800cabe:	4908      	ldr	r1, [pc, #32]	; (800cae0 <TIM3_IRQHandler+0x90>)
 800cac0:	601a      	str	r2, [r3, #0]
 800cac2:	2001      	movs	r0, #1
 800cac4:	6008      	str	r0, [r1, #0]
 800cac6:	f7ff fce3 	bl	800c490 <_ZN9video_cfg7columns5telem6enableEv>
 800caca:	e7e4      	b.n	800ca96 <TIM3_IRQHandler+0x46>
 800cacc:	f248 200c 	movw	r0, #33292	; 0x820c
 800cad0:	f2c4 2000 	movt	r0, #16896	; 0x4200
 800cad4:	6004      	str	r4, [r0, #0]
 800cad6:	f7ff fd57 	bl	800c588 <_ZN9video_cfg7columns5telem7disableEv>
 800cada:	4901      	ldr	r1, [pc, #4]	; (800cae0 <TIM3_IRQHandler+0x90>)
 800cadc:	600c      	str	r4, [r1, #0]
 800cade:	e7da      	b.n	800ca96 <TIM3_IRQHandler+0x46>
 800cae0:	100008bc 	.word	0x100008bc

0800cae4 <_ZN9video_cfg9spi_clock5setupEv>:
 800cae4:	f44f 5260 	mov.w	r2, #14336	; 0x3800
 800cae8:	f2c4 0202 	movt	r2, #16386	; 0x4002
 800caec:	2300      	movs	r3, #0
 800caee:	6b11      	ldr	r1, [r2, #48]	; 0x30
 800caf0:	f2c4 0302 	movt	r3, #16386	; 0x4002
 800caf4:	f041 0001 	orr.w	r0, r1, #1
 800caf8:	b410      	push	{r4}
 800cafa:	6310      	str	r0, [r2, #48]	; 0x30
 800cafc:	681c      	ldr	r4, [r3, #0]
 800cafe:	f024 0130 	bic.w	r1, r4, #48	; 0x30
 800cb02:	f041 0020 	orr.w	r0, r1, #32
 800cb06:	6018      	str	r0, [r3, #0]
 800cb08:	689c      	ldr	r4, [r3, #8]
 800cb0a:	f044 0130 	orr.w	r1, r4, #48	; 0x30
 800cb0e:	6099      	str	r1, [r3, #8]
 800cb10:	6958      	ldr	r0, [r3, #20]
 800cb12:	f020 0404 	bic.w	r4, r0, #4
 800cb16:	615c      	str	r4, [r3, #20]
 800cb18:	6a19      	ldr	r1, [r3, #32]
 800cb1a:	f421 6070 	bic.w	r0, r1, #3840	; 0xf00
 800cb1e:	f440 7440 	orr.w	r4, r0, #768	; 0x300
 800cb22:	621c      	str	r4, [r3, #32]
 800cb24:	6c53      	ldr	r3, [r2, #68]	; 0x44
 800cb26:	f443 3180 	orr.w	r1, r3, #65536	; 0x10000
 800cb2a:	6451      	str	r1, [r2, #68]	; 0x44
 800cb2c:	6a50      	ldr	r0, [r2, #36]	; 0x24
 800cb2e:	f440 3480 	orr.w	r4, r0, #65536	; 0x10000
 800cb32:	6254      	str	r4, [r2, #36]	; 0x24
 800cb34:	6a51      	ldr	r1, [r2, #36]	; 0x24
 800cb36:	f44f 4380 	mov.w	r3, #16384	; 0x4000
 800cb3a:	f2c4 0301 	movt	r3, #16385	; 0x4001
 800cb3e:	f421 3080 	bic.w	r0, r1, #65536	; 0x10000
 800cb42:	6250      	str	r0, [r2, #36]	; 0x24
 800cb44:	681a      	ldr	r2, [r3, #0]
 800cb46:	f36f 2209 	bfc	r2, #8, #2
 800cb4a:	f36f 12c7 	bfc	r2, #7, #1
 800cb4e:	f042 0404 	orr.w	r4, r2, #4
 800cb52:	f024 010b 	bic.w	r1, r4, #11
 800cb56:	0408      	lsls	r0, r1, #16
 800cb58:	0c02      	lsrs	r2, r0, #16
 800cb5a:	601a      	str	r2, [r3, #0]
 800cb5c:	689c      	ldr	r4, [r3, #8]
 800cb5e:	f36f 34cf 	bfc	r4, #15, #1
 800cb62:	f36f 348e 	bfc	r4, #14, #1
 800cb66:	f36f 340d 	bfc	r4, #12, #2
 800cb6a:	f36f 240b 	bfc	r4, #8, #4
 800cb6e:	2105      	movs	r1, #5
 800cb70:	f36f 1406 	bfc	r4, #4, #3
 800cb74:	f361 0402 	bfi	r4, r1, #0, #3
 800cb78:	b2a0      	uxth	r0, r4
 800cb7a:	6098      	str	r0, [r3, #8]
 800cb7c:	699a      	ldr	r2, [r3, #24]
 800cb7e:	f36f 0201 	bfc	r2, #0, #2
 800cb82:	f042 0470 	orr.w	r4, r2, #112	; 0x70
 800cb86:	f024 010c 	bic.w	r1, r4, #12
 800cb8a:	0408      	lsls	r0, r1, #16
 800cb8c:	f240 0412 	movw	r4, #18
 800cb90:	0c02      	lsrs	r2, r0, #16
 800cb92:	f2c1 0400 	movt	r4, #4096	; 0x1000
 800cb96:	619a      	str	r2, [r3, #24]
 800cb98:	6a19      	ldr	r1, [r3, #32]
 800cb9a:	8820      	ldrh	r0, [r4, #0]
 800cb9c:	f041 0401 	orr.w	r4, r1, #1
 800cba0:	0042      	lsls	r2, r0, #1
 800cba2:	b290      	uxth	r0, r2
 800cba4:	f024 0102 	bic.w	r1, r4, #2
 800cba8:	040a      	lsls	r2, r1, #16
 800cbaa:	0844      	lsrs	r4, r0, #1
 800cbac:	2100      	movs	r1, #0
 800cbae:	0c12      	lsrs	r2, r2, #16
 800cbb0:	3801      	subs	r0, #1
 800cbb2:	3c01      	subs	r4, #1
 800cbb4:	621a      	str	r2, [r3, #32]
 800cbb6:	62d8      	str	r0, [r3, #44]	; 0x2c
 800cbb8:	635c      	str	r4, [r3, #52]	; 0x34
 800cbba:	6259      	str	r1, [r3, #36]	; 0x24
 800cbbc:	6119      	str	r1, [r3, #16]
 800cbbe:	60d9      	str	r1, [r3, #12]
 800cbc0:	6819      	ldr	r1, [r3, #0]
 800cbc2:	f041 0201 	orr.w	r2, r1, #1
 800cbc6:	601a      	str	r2, [r3, #0]
 800cbc8:	bc10      	pop	{r4}
 800cbca:	4770      	bx	lr

0800cbcc <_Z9spi_setupv>:
 800cbcc:	f44f 5260 	mov.w	r2, #14336	; 0x3800
 800cbd0:	f2c4 0202 	movt	r2, #16386	; 0x4002
 800cbd4:	f44f 6380 	mov.w	r3, #1024	; 0x400
 800cbd8:	6b11      	ldr	r1, [r2, #48]	; 0x30
 800cbda:	f2c4 0302 	movt	r3, #16386	; 0x4002
 800cbde:	f041 0002 	orr.w	r0, r1, #2
 800cbe2:	6310      	str	r0, [r2, #48]	; 0x30
 800cbe4:	6819      	ldr	r1, [r3, #0]
 800cbe6:	f021 6040 	bic.w	r0, r1, #201326592	; 0xc000000
 800cbea:	f040 6100 	orr.w	r1, r0, #134217728	; 0x8000000
 800cbee:	6019      	str	r1, [r3, #0]
 800cbf0:	68d8      	ldr	r0, [r3, #12]
 800cbf2:	f020 6140 	bic.w	r1, r0, #201326592	; 0xc000000
 800cbf6:	f041 6000 	orr.w	r0, r1, #134217728	; 0x8000000
 800cbfa:	60d8      	str	r0, [r3, #12]
 800cbfc:	6a59      	ldr	r1, [r3, #36]	; 0x24
 800cbfe:	f421 0070 	bic.w	r0, r1, #15728640	; 0xf00000
 800cc02:	f440 01a0 	orr.w	r1, r0, #5242880	; 0x500000
 800cc06:	6259      	str	r1, [r3, #36]	; 0x24
 800cc08:	6b10      	ldr	r0, [r2, #48]	; 0x30
 800cc0a:	f44f 6300 	mov.w	r3, #2048	; 0x800
 800cc0e:	f2c4 0302 	movt	r3, #16386	; 0x4002
 800cc12:	f040 0104 	orr.w	r1, r0, #4
 800cc16:	6311      	str	r1, [r2, #48]	; 0x30
 800cc18:	6818      	ldr	r0, [r3, #0]
 800cc1a:	f020 0130 	bic.w	r1, r0, #48	; 0x30
 800cc1e:	f041 0020 	orr.w	r0, r1, #32
 800cc22:	6018      	str	r0, [r3, #0]
 800cc24:	6859      	ldr	r1, [r3, #4]
 800cc26:	f021 0004 	bic.w	r0, r1, #4
 800cc2a:	6058      	str	r0, [r3, #4]
 800cc2c:	6899      	ldr	r1, [r3, #8]
 800cc2e:	f041 0030 	orr.w	r0, r1, #48	; 0x30
 800cc32:	6098      	str	r0, [r3, #8]
 800cc34:	68d9      	ldr	r1, [r3, #12]
 800cc36:	f021 0030 	bic.w	r0, r1, #48	; 0x30
 800cc3a:	f040 0110 	orr.w	r1, r0, #16
 800cc3e:	60d9      	str	r1, [r3, #12]
 800cc40:	6958      	ldr	r0, [r3, #20]
 800cc42:	f040 0104 	orr.w	r1, r0, #4
 800cc46:	6159      	str	r1, [r3, #20]
 800cc48:	6a18      	ldr	r0, [r3, #32]
 800cc4a:	f420 6170 	bic.w	r1, r0, #3840	; 0xf00
 800cc4e:	f441 60a0 	orr.w	r0, r1, #1280	; 0x500
 800cc52:	6218      	str	r0, [r3, #32]
 800cc54:	6b11      	ldr	r1, [r2, #48]	; 0x30
 800cc56:	f041 0004 	orr.w	r0, r1, #4
 800cc5a:	6310      	str	r0, [r2, #48]	; 0x30
 800cc5c:	6819      	ldr	r1, [r3, #0]
 800cc5e:	f421 1040 	bic.w	r0, r1, #3145728	; 0x300000
 800cc62:	f440 1100 	orr.w	r1, r0, #2097152	; 0x200000
 800cc66:	6019      	str	r1, [r3, #0]
 800cc68:	68d8      	ldr	r0, [r3, #12]
 800cc6a:	f420 1140 	bic.w	r1, r0, #3145728	; 0x300000
 800cc6e:	f441 1000 	orr.w	r0, r1, #2097152	; 0x200000
 800cc72:	60d8      	str	r0, [r3, #12]
 800cc74:	6a59      	ldr	r1, [r3, #36]	; 0x24
 800cc76:	f421 6070 	bic.w	r0, r1, #3840	; 0xf00
 800cc7a:	f440 61c0 	orr.w	r1, r0, #1536	; 0x600
 800cc7e:	6259      	str	r1, [r3, #36]	; 0x24
 800cc80:	6b10      	ldr	r0, [r2, #48]	; 0x30
 800cc82:	f040 0104 	orr.w	r1, r0, #4
 800cc86:	6311      	str	r1, [r2, #48]	; 0x30
 800cc88:	681a      	ldr	r2, [r3, #0]
 800cc8a:	f422 0040 	bic.w	r0, r2, #12582912	; 0xc00000
 800cc8e:	f440 0100 	orr.w	r1, r0, #8388608	; 0x800000
 800cc92:	6019      	str	r1, [r3, #0]
 800cc94:	685a      	ldr	r2, [r3, #4]
 800cc96:	f422 6000 	bic.w	r0, r2, #2048	; 0x800
 800cc9a:	6058      	str	r0, [r3, #4]
 800cc9c:	6899      	ldr	r1, [r3, #8]
 800cc9e:	f441 0240 	orr.w	r2, r1, #12582912	; 0xc00000
 800cca2:	609a      	str	r2, [r3, #8]
 800cca4:	68d8      	ldr	r0, [r3, #12]
 800cca6:	f420 0140 	bic.w	r1, r0, #12582912	; 0xc00000
 800ccaa:	f441 0280 	orr.w	r2, r1, #4194304	; 0x400000
 800ccae:	60da      	str	r2, [r3, #12]
 800ccb0:	6958      	ldr	r0, [r3, #20]
 800ccb2:	f440 6100 	orr.w	r1, r0, #2048	; 0x800
 800ccb6:	6159      	str	r1, [r3, #20]
 800ccb8:	6a5a      	ldr	r2, [r3, #36]	; 0x24
 800ccba:	f422 4070 	bic.w	r0, r2, #61440	; 0xf000
 800ccbe:	f440 41c0 	orr.w	r1, r0, #24576	; 0x6000
 800ccc2:	6259      	str	r1, [r3, #36]	; 0x24
 800ccc4:	4770      	bx	lr
 800ccc6:	bf00      	nop

0800ccc8 <_Z15pixel_dma_setupv>:
 800ccc8:	f44f 5260 	mov.w	r2, #14336	; 0x3800
 800cccc:	f2c4 0202 	movt	r2, #16386	; 0x4002
 800ccd0:	2314      	movs	r3, #20
 800ccd2:	6b11      	ldr	r1, [r2, #48]	; 0x30
 800ccd4:	f441 1000 	orr.w	r0, r1, #2097152	; 0x200000
 800ccd8:	6310      	str	r0, [r2, #48]	; 0x30
 800ccda:	bf00      	nop
 800ccdc:	3b01      	subs	r3, #1
 800ccde:	b2da      	uxtb	r2, r3
 800cce0:	bf00      	nop
 800cce2:	1e51      	subs	r1, r2, #1
 800cce4:	f011 03ff 	ands.w	r3, r1, #255	; 0xff
 800cce8:	d1f7      	bne.n	800ccda <_Z15pixel_dma_setupv+0x12>
 800ccea:	f44f 5060 	mov.w	r0, #14336	; 0x3800
 800ccee:	f2c4 0002 	movt	r0, #16386	; 0x4002
 800ccf2:	f246 0270 	movw	r2, #24688	; 0x6070
 800ccf6:	6901      	ldr	r1, [r0, #16]
 800ccf8:	f441 1300 	orr.w	r3, r1, #2097152	; 0x200000
 800ccfc:	6103      	str	r3, [r0, #16]
 800ccfe:	6901      	ldr	r1, [r0, #16]
 800cd00:	f2c4 0202 	movt	r2, #16386	; 0x4002
 800cd04:	f421 1300 	bic.w	r3, r1, #2097152	; 0x200000
 800cd08:	6103      	str	r3, [r0, #16]
 800cd0a:	6810      	ldr	r0, [r2, #0]
 800cd0c:	07c3      	lsls	r3, r0, #31
 800cd0e:	d506      	bpl.n	800cd1e <_Z15pixel_dma_setupv+0x56>
 800cd10:	6811      	ldr	r1, [r2, #0]
 800cd12:	f021 0301 	bic.w	r3, r1, #1
 800cd16:	6013      	str	r3, [r2, #0]
 800cd18:	6810      	ldr	r0, [r2, #0]
 800cd1a:	07c1      	lsls	r1, r0, #31
 800cd1c:	d4fc      	bmi.n	800cd18 <_Z15pixel_dma_setupv+0x50>
 800cd1e:	f246 0370 	movw	r3, #24688	; 0x6070
 800cd22:	f2c4 0302 	movt	r3, #16386	; 0x4002
 800cd26:	f44f 6288 	mov.w	r2, #1088	; 0x440
 800cd2a:	f2c0 0203 	movt	r2, #3
 800cd2e:	601a      	str	r2, [r3, #0]
 800cd30:	6959      	ldr	r1, [r3, #20]
 800cd32:	f041 0004 	orr.w	r0, r1, #4
 800cd36:	6158      	str	r0, [r3, #20]
 800cd38:	6958      	ldr	r0, [r3, #20]
 800cd3a:	f643 010c 	movw	r1, #14348	; 0x380c
 800cd3e:	f246 0288 	movw	r2, #24712	; 0x6088
 800cd42:	f040 0003 	orr.w	r0, r0, #3
 800cd46:	f2c4 0100 	movt	r1, #16384	; 0x4000
 800cd4a:	f2c4 0202 	movt	r2, #16386	; 0x4002
 800cd4e:	6158      	str	r0, [r3, #20]
 800cd50:	6099      	str	r1, [r3, #8]
 800cd52:	6813      	ldr	r3, [r2, #0]
 800cd54:	07d8      	lsls	r0, r3, #31
 800cd56:	d506      	bpl.n	800cd66 <_Z15pixel_dma_setupv+0x9e>
 800cd58:	6811      	ldr	r1, [r2, #0]
 800cd5a:	f021 0001 	bic.w	r0, r1, #1
 800cd5e:	6010      	str	r0, [r2, #0]
 800cd60:	6813      	ldr	r3, [r2, #0]
 800cd62:	07db      	lsls	r3, r3, #31
 800cd64:	d4fc      	bmi.n	800cd60 <_Z15pixel_dma_setupv+0x98>
 800cd66:	f246 0088 	movw	r0, #24712	; 0x6088
 800cd6a:	f2c4 0002 	movt	r0, #16386	; 0x4002
 800cd6e:	f44f 6288 	mov.w	r2, #1088	; 0x440
 800cd72:	f2c0 0203 	movt	r2, #3
 800cd76:	6002      	str	r2, [r0, #0]
 800cd78:	6941      	ldr	r1, [r0, #20]
 800cd7a:	f041 0304 	orr.w	r3, r1, #4
 800cd7e:	6143      	str	r3, [r0, #20]
 800cd80:	6941      	ldr	r1, [r0, #20]
 800cd82:	f643 420c 	movw	r2, #15372	; 0x3c0c
 800cd86:	f041 0303 	orr.w	r3, r1, #3
 800cd8a:	f2c4 0200 	movt	r2, #16384	; 0x4000
 800cd8e:	6143      	str	r3, [r0, #20]
 800cd90:	6082      	str	r2, [r0, #8]
 800cd92:	4770      	bx	lr

0800cd94 <_Z11video_setupv>:
 800cd94:	b508      	push	{r3, lr}
 800cd96:	f7ff ff19 	bl	800cbcc <_Z9spi_setupv>
 800cd9a:	f7ff ff95 	bl	800ccc8 <_Z15pixel_dma_setupv>
 800cd9e:	f44f 5260 	mov.w	r2, #14336	; 0x3800
 800cda2:	f2c4 0202 	movt	r2, #16386	; 0x4002
 800cda6:	2300      	movs	r3, #0
 800cda8:	6b11      	ldr	r1, [r2, #48]	; 0x30
 800cdaa:	f2c4 0302 	movt	r3, #16386	; 0x4002
 800cdae:	f041 0001 	orr.w	r0, r1, #1
 800cdb2:	6310      	str	r0, [r2, #48]	; 0x30
 800cdb4:	6819      	ldr	r1, [r3, #0]
 800cdb6:	f021 4040 	bic.w	r0, r1, #3221225472	; 0xc0000000
 800cdba:	f040 4100 	orr.w	r1, r0, #2147483648	; 0x80000000
 800cdbe:	6019      	str	r1, [r3, #0]
 800cdc0:	6a58      	ldr	r0, [r3, #36]	; 0x24
 800cdc2:	f020 4170 	bic.w	r1, r0, #4026531840	; 0xf0000000
 800cdc6:	f041 5080 	orr.w	r0, r1, #268435456	; 0x10000000
 800cdca:	6258      	str	r0, [r3, #36]	; 0x24
 800cdcc:	6b11      	ldr	r1, [r2, #48]	; 0x30
 800cdce:	f44f 6340 	mov.w	r3, #3072	; 0xc00
 800cdd2:	f2c4 0302 	movt	r3, #16386	; 0x4002
 800cdd6:	f041 0008 	orr.w	r0, r1, #8
 800cdda:	6310      	str	r0, [r2, #48]	; 0x30
 800cddc:	681a      	ldr	r2, [r3, #0]
 800cdde:	f022 0130 	bic.w	r1, r2, #48	; 0x30
 800cde2:	f041 0020 	orr.w	r0, r1, #32
 800cde6:	6018      	str	r0, [r3, #0]
 800cde8:	6a1a      	ldr	r2, [r3, #32]
 800cdea:	f422 6170 	bic.w	r1, r2, #3840	; 0xf00
 800cdee:	f441 7000 	orr.w	r0, r1, #512	; 0x200
 800cdf2:	6218      	str	r0, [r3, #32]
 800cdf4:	f000 f8c8 	bl	800cf88 <_Z25vsync_telem_rx_task_setupv>
 800cdf8:	f7ff fe74 	bl	800cae4 <_ZN9video_cfg9spi_clock5setupEv>
 800cdfc:	f7ff fce8 	bl	800c7d0 <_ZN9video_cfg7columns5setupEv>
 800ce00:	f7ff fdb4 	bl	800c96c <_ZN9video_cfg4rows5setupEv>
 800ce04:	f7ff f8fc 	bl	800c000 <_ZN13video_buffers4initEv>
 800ce08:	f000 f9ba 	bl	800d180 <_Z14sync_sep_setupv>
 800ce0c:	f000 f986 	bl	800d11c <_ZN6detail15sync_sep_enableEv>
 800ce10:	e8bd 4008 	ldmia.w	sp!, {r3, lr}
 800ce14:	f000 bc6c 	b.w	800d6f0 <_Z9Dac_setupv>

0800ce18 <_ZN4quan3uav3osd16transform_to_rawERKNS_5two_d4vectIlEE>:
 800ce18:	b570      	push	{r4, r5, r6, lr}
 800ce1a:	4b0f      	ldr	r3, [pc, #60]	; (800ce58 <_ZN4quan3uav3osd16transform_to_rawERKNS_5two_d4vectIlEE+0x40>)
 800ce1c:	4c0f      	ldr	r4, [pc, #60]	; (800ce5c <_ZN4quan3uav3osd16transform_to_rawERKNS_5two_d4vectIlEE+0x44>)
 800ce1e:	881a      	ldrh	r2, [r3, #0]
 800ce20:	8826      	ldrh	r6, [r4, #0]
 800ce22:	f64f 75f8 	movw	r5, #65528	; 0xfff8
 800ce26:	1b93      	subs	r3, r2, r6
 800ce28:	4604      	mov	r4, r0
 800ce2a:	460e      	mov	r6, r1
 800ce2c:	401d      	ands	r5, r3
 800ce2e:	f000 f96f 	bl	800d110 <_ZN9video_cfg14get_video_modeEv>
 800ce32:	2801      	cmp	r0, #1
 800ce34:	bf0c      	ite	eq
 800ce36:	480a      	ldreq	r0, [pc, #40]	; (800ce60 <_ZN4quan3uav3osd16transform_to_rawERKNS_5two_d4vectIlEE+0x48>)
 800ce38:	480a      	ldrne	r0, [pc, #40]	; (800ce64 <_ZN4quan3uav3osd16transform_to_rawERKNS_5two_d4vectIlEE+0x4c>)
 800ce3a:	4a0b      	ldr	r2, [pc, #44]	; (800ce68 <_ZN4quan3uav3osd16transform_to_rawERKNS_5two_d4vectIlEE+0x50>)
 800ce3c:	8800      	ldrh	r0, [r0, #0]
 800ce3e:	8813      	ldrh	r3, [r2, #0]
 800ce40:	6871      	ldr	r1, [r6, #4]
 800ce42:	6832      	ldr	r2, [r6, #0]
 800ce44:	1ac0      	subs	r0, r0, r3
 800ce46:	f3c0 038d 	ubfx	r3, r0, #2, #14
 800ce4a:	1a59      	subs	r1, r3, r1
 800ce4c:	eb02 0555 	add.w	r5, r2, r5, lsr #1
 800ce50:	6025      	str	r5, [r4, #0]
 800ce52:	6061      	str	r1, [r4, #4]
 800ce54:	4620      	mov	r0, r4
 800ce56:	bd70      	pop	{r4, r5, r6, pc}
 800ce58:	10000002 	.word	0x10000002
 800ce5c:	10000006 	.word	0x10000006
 800ce60:	1000000c 	.word	0x1000000c
 800ce64:	10000008 	.word	0x10000008
 800ce68:	10000010 	.word	0x10000010

0800ce6c <_ZN4quan3uav3osd13set_pixel_rawERKNS_5two_d4vectIlEENS1_11colour_typeE>:
 800ce6c:	6803      	ldr	r3, [r0, #0]
 800ce6e:	2b00      	cmp	r3, #0
 800ce70:	b470      	push	{r4, r5, r6}
 800ce72:	db1c      	blt.n	800ceae <_ZN4quan3uav3osd13set_pixel_rawERKNS_5two_d4vectIlEENS1_11colour_typeE+0x42>
 800ce74:	6842      	ldr	r2, [r0, #4]
 800ce76:	2a00      	cmp	r2, #0
 800ce78:	db19      	blt.n	800ceae <_ZN4quan3uav3osd13set_pixel_rawERKNS_5two_d4vectIlEENS1_11colour_typeE+0x42>
 800ce7a:	480e      	ldr	r0, [pc, #56]	; (800ceb4 <_ZN4quan3uav3osd13set_pixel_rawERKNS_5two_d4vectIlEENS1_11colour_typeE+0x48>)
 800ce7c:	6844      	ldr	r4, [r0, #4]
 800ce7e:	3c01      	subs	r4, #1
 800ce80:	42a2      	cmp	r2, r4
 800ce82:	d814      	bhi.n	800ceae <_ZN4quan3uav3osd13set_pixel_rawERKNS_5two_d4vectIlEENS1_11colour_typeE+0x42>
 800ce84:	6800      	ldr	r0, [r0, #0]
 800ce86:	1e44      	subs	r4, r0, #1
 800ce88:	42a3      	cmp	r3, r4
 800ce8a:	d810      	bhi.n	800ceae <_ZN4quan3uav3osd13set_pixel_rawERKNS_5two_d4vectIlEENS1_11colour_typeE+0x42>
 800ce8c:	4d0a      	ldr	r5, [pc, #40]	; (800ceb8 <_ZN4quan3uav3osd13set_pixel_rawERKNS_5two_d4vectIlEENS1_11colour_typeE+0x4c>)
 800ce8e:	686e      	ldr	r6, [r5, #4]
 800ce90:	686d      	ldr	r5, [r5, #4]
 800ce92:	6834      	ldr	r4, [r6, #0]
 800ce94:	f505 5550 	add.w	r5, r5, #13312	; 0x3400
 800ce98:	3301      	adds	r3, #1
 800ce9a:	3008      	adds	r0, #8
 800ce9c:	fb02 3200 	mla	r2, r2, r0, r3
 800cea0:	b2c9      	uxtb	r1, r1
 800cea2:	6828      	ldr	r0, [r5, #0]
 800cea4:	f844 1022 	str.w	r1, [r4, r2, lsl #2]
 800cea8:	104b      	asrs	r3, r1, #1
 800ceaa:	f840 3022 	str.w	r3, [r0, r2, lsl #2]
 800ceae:	bc70      	pop	{r4, r5, r6}
 800ceb0:	4770      	bx	lr
 800ceb2:	bf00      	nop
 800ceb4:	1000089c 	.word	0x1000089c
 800ceb8:	1000087c 	.word	0x1000087c

0800cebc <_ZN4quan3uav3osd13get_pixel_rawEPKNS1_12basic_bitmapERKNS_5two_d4vectIlEE>:
 800cebc:	b530      	push	{r4, r5, lr}
 800cebe:	6803      	ldr	r3, [r0, #0]
 800cec0:	b083      	sub	sp, #12
 800cec2:	4604      	mov	r4, r0
 800cec4:	460d      	mov	r5, r1
 800cec6:	681a      	ldr	r2, [r3, #0]
 800cec8:	4668      	mov	r0, sp
 800ceca:	4621      	mov	r1, r4
 800cecc:	4790      	blx	r2
 800cece:	682b      	ldr	r3, [r5, #0]
 800ced0:	9a00      	ldr	r2, [sp, #0]
 800ced2:	2b00      	cmp	r3, #0
 800ced4:	db01      	blt.n	800ceda <_ZN4quan3uav3osd13get_pixel_rawEPKNS1_12basic_bitmapERKNS_5two_d4vectIlEE+0x1e>
 800ced6:	429a      	cmp	r2, r3
 800ced8:	dc02      	bgt.n	800cee0 <_ZN4quan3uav3osd13get_pixel_rawEPKNS1_12basic_bitmapERKNS_5two_d4vectIlEE+0x24>
 800ceda:	2003      	movs	r0, #3
 800cedc:	b003      	add	sp, #12
 800cede:	bd30      	pop	{r4, r5, pc}
 800cee0:	6869      	ldr	r1, [r5, #4]
 800cee2:	2900      	cmp	r1, #0
 800cee4:	dbf9      	blt.n	800ceda <_ZN4quan3uav3osd13get_pixel_rawEPKNS1_12basic_bitmapERKNS_5two_d4vectIlEE+0x1e>
 800cee6:	9801      	ldr	r0, [sp, #4]
 800cee8:	4281      	cmp	r1, r0
 800ceea:	daf6      	bge.n	800ceda <_ZN4quan3uav3osd13get_pixel_rawEPKNS1_12basic_bitmapERKNS_5two_d4vectIlEE+0x1e>
 800ceec:	6825      	ldr	r5, [r4, #0]
 800ceee:	fb01 3302 	mla	r3, r1, r2, r3
 800cef2:	4620      	mov	r0, r4
 800cef4:	686d      	ldr	r5, [r5, #4]
 800cef6:	005c      	lsls	r4, r3, #1
 800cef8:	47a8      	blx	r5
 800cefa:	08e2      	lsrs	r2, r4, #3
 800cefc:	f004 0107 	and.w	r1, r4, #7
 800cf00:	5c80      	ldrb	r0, [r0, r2]
 800cf02:	fa40 f401 	asr.w	r4, r0, r1
 800cf06:	f004 0003 	and.w	r0, r4, #3
 800cf0a:	e7e7      	b.n	800cedc <_ZN4quan3uav3osd13get_pixel_rawEPKNS1_12basic_bitmapERKNS_5two_d4vectIlEE+0x20>

0800cf0c <_ZN4quan3uav3osd8get_charEPKNS1_10basic_fontEl>:
 800cf0c:	b508      	push	{r3, lr}
 800cf0e:	6803      	ldr	r3, [r0, #0]
 800cf10:	691a      	ldr	r2, [r3, #16]
 800cf12:	4790      	blx	r2
 800cf14:	bd08      	pop	{r3, pc}
 800cf16:	bf00      	nop

0800cf18 <_ZN4quan3uav3osd8get_sizeEPKNS1_12basic_bitmapE>:
 800cf18:	680b      	ldr	r3, [r1, #0]
 800cf1a:	b510      	push	{r4, lr}
 800cf1c:	681a      	ldr	r2, [r3, #0]
 800cf1e:	4604      	mov	r4, r0
 800cf20:	4790      	blx	r2
 800cf22:	4620      	mov	r0, r4
 800cf24:	bd10      	pop	{r4, pc}
 800cf26:	bf00      	nop

0800cf28 <_ZN12_GLOBAL__N_119vsync_telem_rx_taskEPv>:
 800cf28:	b508      	push	{r3, lr}
 800cf2a:	f7ff fa07 	bl	800c33c <_ZN6detail21swap_telem_rx_buffersEv>
 800cf2e:	4802      	ldr	r0, [pc, #8]	; (800cf38 <_ZN12_GLOBAL__N_119vsync_telem_rx_taskEPv+0x10>)
 800cf30:	f001 f918 	bl	800e164 <_ZN12rx_telemetry7refreshEv>
 800cf34:	e7f9      	b.n	800cf2a <_ZN12_GLOBAL__N_119vsync_telem_rx_taskEPv+0x2>
 800cf36:	bf00      	nop
 800cf38:	1000091c 	.word	0x1000091c

0800cf3c <_Z26create_vsync_telem_rx_taskv>:
 800cf3c:	b500      	push	{lr}
 800cf3e:	b085      	sub	sp, #20
 800cf40:	f7ff f9e6 	bl	800c310 <_ZN6detail31create_telem_rx_swap_semaphoresEv>
 800cf44:	f640 101c 	movw	r0, #2332	; 0x91c
 800cf48:	f2c1 0000 	movt	r0, #4096	; 0x1000
 800cf4c:	f001 f8ec 	bl	800e128 <_ZN12rx_telemetry4initEv>
 800cf50:	f640 00c4 	movw	r0, #2244	; 0x8c4
 800cf54:	2300      	movs	r3, #0
 800cf56:	f2c1 0000 	movt	r0, #4096	; 0x1000
 800cf5a:	2203      	movs	r2, #3
 800cf5c:	9001      	str	r0, [sp, #4]
 800cf5e:	9302      	str	r3, [sp, #8]
 800cf60:	9303      	str	r3, [sp, #12]
 800cf62:	f64c 7029 	movw	r0, #53033	; 0xcf29
 800cf66:	f644 51cc 	movw	r1, #19916	; 0x4dcc
 800cf6a:	f640 03c0 	movw	r3, #2240	; 0x8c0
 800cf6e:	9200      	str	r2, [sp, #0]
 800cf70:	f6c0 0101 	movt	r1, #2049	; 0x801
 800cf74:	f44f 7216 	mov.w	r2, #600	; 0x258
 800cf78:	f2c1 0300 	movt	r3, #4096	; 0x1000
 800cf7c:	f6c0 0000 	movt	r0, #2048	; 0x800
 800cf80:	f001 f926 	bl	800e1d0 <xTaskGenericCreate>
 800cf84:	b005      	add	sp, #20
 800cf86:	bd00      	pop	{pc}

0800cf88 <_Z25vsync_telem_rx_task_setupv>:
 800cf88:	f44f 5360 	mov.w	r3, #14336	; 0x3800
 800cf8c:	f2c4 0302 	movt	r3, #16386	; 0x4002
 800cf90:	2200      	movs	r2, #0
 800cf92:	6b19      	ldr	r1, [r3, #48]	; 0x30
 800cf94:	f2c4 0202 	movt	r2, #16386	; 0x4002
 800cf98:	f041 0001 	orr.w	r0, r1, #1
 800cf9c:	6318      	str	r0, [r3, #48]	; 0x30
 800cf9e:	6811      	ldr	r1, [r2, #0]
 800cfa0:	f021 00c0 	bic.w	r0, r1, #192	; 0xc0
 800cfa4:	f040 0180 	orr.w	r1, r0, #128	; 0x80
 800cfa8:	6011      	str	r1, [r2, #0]
 800cfaa:	68d0      	ldr	r0, [r2, #12]
 800cfac:	f020 01c0 	bic.w	r1, r0, #192	; 0xc0
 800cfb0:	f041 0040 	orr.w	r0, r1, #64	; 0x40
 800cfb4:	60d0      	str	r0, [r2, #12]
 800cfb6:	6a11      	ldr	r1, [r2, #32]
 800cfb8:	f421 4070 	bic.w	r0, r1, #61440	; 0xf000
 800cfbc:	f440 5180 	orr.w	r1, r0, #4096	; 0x1000
 800cfc0:	6211      	str	r1, [r2, #32]
 800cfc2:	6b18      	ldr	r0, [r3, #48]	; 0x30
 800cfc4:	f44f 6200 	mov.w	r2, #2048	; 0x800
 800cfc8:	f2c4 0202 	movt	r2, #16386	; 0x4002
 800cfcc:	f040 0104 	orr.w	r1, r0, #4
 800cfd0:	6319      	str	r1, [r3, #48]	; 0x30
 800cfd2:	6810      	ldr	r0, [r2, #0]
 800cfd4:	f420 4140 	bic.w	r1, r0, #49152	; 0xc000
 800cfd8:	f441 4000 	orr.w	r0, r1, #32768	; 0x8000
 800cfdc:	6010      	str	r0, [r2, #0]
 800cfde:	68d1      	ldr	r1, [r2, #12]
 800cfe0:	f421 4040 	bic.w	r0, r1, #49152	; 0xc000
 800cfe4:	f440 4180 	orr.w	r1, r0, #16384	; 0x4000
 800cfe8:	60d1      	str	r1, [r2, #12]
 800cfea:	6a10      	ldr	r0, [r2, #32]
 800cfec:	f020 4170 	bic.w	r1, r0, #4026531840	; 0xf0000000
 800cff0:	f041 4000 	orr.w	r0, r1, #2147483648	; 0x80000000
 800cff4:	6210      	str	r0, [r2, #32]
 800cff6:	6a5a      	ldr	r2, [r3, #36]	; 0x24
 800cff8:	f042 0120 	orr.w	r1, r2, #32
 800cffc:	6259      	str	r1, [r3, #36]	; 0x24
 800cffe:	6a58      	ldr	r0, [r3, #36]	; 0x24
 800d000:	f020 0220 	bic.w	r2, r0, #32
 800d004:	625a      	str	r2, [r3, #36]	; 0x24
 800d006:	6c59      	ldr	r1, [r3, #68]	; 0x44
 800d008:	f44f 50a0 	mov.w	r0, #5120	; 0x1400
 800d00c:	f2c4 0001 	movt	r0, #16385	; 0x4001
 800d010:	f041 0220 	orr.w	r2, r1, #32
 800d014:	212a      	movs	r1, #42	; 0x2a
 800d016:	645a      	str	r2, [r3, #68]	; 0x44
 800d018:	6081      	str	r1, [r0, #8]
 800d01a:	68c2      	ldr	r2, [r0, #12]
 800d01c:	f422 4115 	bic.w	r1, r2, #38144	; 0x9500
 800d020:	f021 02fc 	bic.w	r2, r1, #252	; 0xfc
 800d024:	f042 0104 	orr.w	r1, r2, #4
 800d028:	60c1      	str	r1, [r0, #12]
 800d02a:	6902      	ldr	r2, [r0, #16]
 800d02c:	f422 5161 	bic.w	r1, r2, #14400	; 0x3840
 800d030:	6101      	str	r1, [r0, #16]
 800d032:	6942      	ldr	r2, [r0, #20]
 800d034:	f422 61e0 	bic.w	r1, r2, #1792	; 0x700
 800d038:	f021 0201 	bic.w	r2, r1, #1
 800d03c:	6142      	str	r2, [r0, #20]
 800d03e:	68c1      	ldr	r1, [r0, #12]
 800d040:	f041 0204 	orr.w	r2, r1, #4
 800d044:	60c2      	str	r2, [r0, #12]
 800d046:	6b18      	ldr	r0, [r3, #48]	; 0x30
 800d048:	f440 0180 	orr.w	r1, r0, #4194304	; 0x400000
 800d04c:	6319      	str	r1, [r3, #48]	; 0x30
 800d04e:	2114      	movs	r1, #20
 800d050:	bf00      	nop
 800d052:	1e4b      	subs	r3, r1, #1
 800d054:	b2da      	uxtb	r2, r3
 800d056:	bf00      	nop
 800d058:	1e50      	subs	r0, r2, #1
 800d05a:	f010 01ff 	ands.w	r1, r0, #255	; 0xff
 800d05e:	d1f7      	bne.n	800d050 <_Z25vsync_telem_rx_task_setupv+0xc8>
 800d060:	f44f 5360 	mov.w	r3, #14336	; 0x3800
 800d064:	f2c4 0302 	movt	r3, #16386	; 0x4002
 800d068:	f246 4228 	movw	r2, #25640	; 0x6428
 800d06c:	6918      	ldr	r0, [r3, #16]
 800d06e:	f440 0180 	orr.w	r1, r0, #4194304	; 0x400000
 800d072:	6119      	str	r1, [r3, #16]
 800d074:	6918      	ldr	r0, [r3, #16]
 800d076:	f2c4 0202 	movt	r2, #16386	; 0x4002
 800d07a:	f420 0180 	bic.w	r1, r0, #4194304	; 0x400000
 800d07e:	6119      	str	r1, [r3, #16]
 800d080:	6813      	ldr	r3, [r2, #0]
 800d082:	07d9      	lsls	r1, r3, #31
 800d084:	d506      	bpl.n	800d094 <_Z25vsync_telem_rx_task_setupv+0x10c>
 800d086:	6810      	ldr	r0, [r2, #0]
 800d088:	f020 0101 	bic.w	r1, r0, #1
 800d08c:	6011      	str	r1, [r2, #0]
 800d08e:	6813      	ldr	r3, [r2, #0]
 800d090:	07db      	lsls	r3, r3, #31
 800d092:	d4fc      	bmi.n	800d08e <_Z25vsync_telem_rx_task_setupv+0x106>
 800d094:	f246 4028 	movw	r0, #25640	; 0x6428
 800d098:	f2c4 0002 	movt	r0, #16386	; 0x4002
 800d09c:	f44f 6280 	mov.w	r2, #1024	; 0x400
 800d0a0:	f6c0 2202 	movt	r2, #2562	; 0xa02
 800d0a4:	6002      	str	r2, [r0, #0]
 800d0a6:	6941      	ldr	r1, [r0, #20]
 800d0a8:	f041 0304 	orr.w	r3, r1, #4
 800d0ac:	6143      	str	r3, [r0, #20]
 800d0ae:	6941      	ldr	r1, [r0, #20]
 800d0b0:	f241 4204 	movw	r2, #5124	; 0x1404
 800d0b4:	f041 0303 	orr.w	r3, r1, #3
 800d0b8:	f2c4 0201 	movt	r2, #16385	; 0x4001
 800d0bc:	6143      	str	r3, [r0, #20]
 800d0be:	6082      	str	r2, [r0, #8]
 800d0c0:	4770      	bx	lr
 800d0c2:	bf00      	nop

0800d0c4 <_ZN12_GLOBAL__N_19draw_taskEPv>:
 800d0c4:	b508      	push	{r3, lr}
 800d0c6:	f000 fc45 	bl	800d954 <_ZN4quan3uav3osd7on_drawEv>
 800d0ca:	f7ff f8ed 	bl	800c2a8 <_ZN6detail16swap_osd_buffersEv>
 800d0ce:	e7fa      	b.n	800d0c6 <_ZN12_GLOBAL__N_19draw_taskEPv+0x2>

0800d0d0 <_Z16create_draw_taskv>:
 800d0d0:	b500      	push	{lr}
 800d0d2:	b085      	sub	sp, #20
 800d0d4:	f7ff f8d2 	bl	800c27c <_ZN6detail26create_osd_swap_semaphoresEv>
 800d0d8:	f640 00cc 	movw	r0, #2252	; 0x8cc
 800d0dc:	2300      	movs	r3, #0
 800d0de:	f2c1 0000 	movt	r0, #4096	; 0x1000
 800d0e2:	2202      	movs	r2, #2
 800d0e4:	9001      	str	r0, [sp, #4]
 800d0e6:	9302      	str	r3, [sp, #8]
 800d0e8:	9303      	str	r3, [sp, #12]
 800d0ea:	f24d 00c5 	movw	r0, #53445	; 0xd0c5
 800d0ee:	f644 51e0 	movw	r1, #19936	; 0x4de0
 800d0f2:	f640 03c8 	movw	r3, #2248	; 0x8c8
 800d0f6:	9200      	str	r2, [sp, #0]
 800d0f8:	f6c0 0101 	movt	r1, #2049	; 0x801
 800d0fc:	f241 3288 	movw	r2, #5000	; 0x1388
 800d100:	f2c1 0300 	movt	r3, #4096	; 0x1000
 800d104:	f6c0 0000 	movt	r0, #2048	; 0x800
 800d108:	f001 f862 	bl	800e1d0 <xTaskGenericCreate>
 800d10c:	b005      	add	sp, #20
 800d10e:	bd00      	pop	{pc}

0800d110 <_ZN9video_cfg14get_video_modeEv>:
 800d110:	f640 03e8 	movw	r3, #2280	; 0x8e8
 800d114:	f2c1 0300 	movt	r3, #4096	; 0x1000
 800d118:	6818      	ldr	r0, [r3, #0]
 800d11a:	4770      	bx	lr

0800d11c <_ZN6detail15sync_sep_enableEv>:
 800d11c:	4910      	ldr	r1, [pc, #64]	; (800d160 <_ZN6detail15sync_sep_enableEv+0x44>)
 800d11e:	4811      	ldr	r0, [pc, #68]	; (800d164 <_ZN6detail15sync_sep_enableEv+0x48>)
 800d120:	2300      	movs	r3, #0
 800d122:	700b      	strb	r3, [r1, #0]
 800d124:	7003      	strb	r3, [r0, #0]
 800d126:	4910      	ldr	r1, [pc, #64]	; (800d168 <_ZN6detail15sync_sep_enableEv+0x4c>)
 800d128:	4810      	ldr	r0, [pc, #64]	; (800d16c <_ZN6detail15sync_sep_enableEv+0x50>)
 800d12a:	600b      	str	r3, [r1, #0]
 800d12c:	f44f 52c0 	mov.w	r2, #6144	; 0x1800
 800d130:	6003      	str	r3, [r0, #0]
 800d132:	f2c4 0200 	movt	r2, #16384	; 0x4000
 800d136:	490e      	ldr	r1, [pc, #56]	; (800d170 <_ZN6detail15sync_sep_enableEv+0x54>)
 800d138:	480e      	ldr	r0, [pc, #56]	; (800d174 <_ZN6detail15sync_sep_enableEv+0x58>)
 800d13a:	800b      	strh	r3, [r1, #0]
 800d13c:	6003      	str	r3, [r0, #0]
 800d13e:	6113      	str	r3, [r2, #16]
 800d140:	68d3      	ldr	r3, [r2, #12]
 800d142:	f043 0106 	orr.w	r1, r3, #6
 800d146:	60d1      	str	r1, [r2, #12]
 800d148:	bf00      	nop
 800d14a:	2000      	movs	r0, #0
 800d14c:	f2c4 2003 	movt	r0, #16899	; 0x4203
 800d150:	2201      	movs	r2, #1
 800d152:	4b09      	ldr	r3, [pc, #36]	; (800d178 <_ZN6detail15sync_sep_enableEv+0x5c>)
 800d154:	6002      	str	r2, [r0, #0]
 800d156:	7819      	ldrb	r1, [r3, #0]
 800d158:	b109      	cbz	r1, 800d15e <_ZN6detail15sync_sep_enableEv+0x42>
 800d15a:	4808      	ldr	r0, [pc, #32]	; (800d17c <_ZN6detail15sync_sep_enableEv+0x60>)
 800d15c:	7002      	strb	r2, [r0, #0]
 800d15e:	4770      	bx	lr
 800d160:	100008d2 	.word	0x100008d2
 800d164:	100008e1 	.word	0x100008e1
 800d168:	100008dc 	.word	0x100008dc
 800d16c:	100008e4 	.word	0x100008e4
 800d170:	100008d0 	.word	0x100008d0
 800d174:	100008d4 	.word	0x100008d4
 800d178:	100008e0 	.word	0x100008e0
 800d17c:	10000016 	.word	0x10000016

0800d180 <_Z14sync_sep_setupv>:
 800d180:	f44f 5260 	mov.w	r2, #14336	; 0x3800
 800d184:	f2c4 0202 	movt	r2, #16386	; 0x4002
 800d188:	b470      	push	{r4, r5, r6}
 800d18a:	6b11      	ldr	r1, [r2, #48]	; 0x30
 800d18c:	f041 0002 	orr.w	r0, r1, #2
 800d190:	6310      	str	r0, [r2, #48]	; 0x30
 800d192:	6b14      	ldr	r4, [r2, #48]	; 0x30
 800d194:	f44f 6380 	mov.w	r3, #1024	; 0x400
 800d198:	f2c4 0302 	movt	r3, #16386	; 0x4002
 800d19c:	f044 0502 	orr.w	r5, r4, #2
 800d1a0:	6315      	str	r5, [r2, #48]	; 0x30
 800d1a2:	681e      	ldr	r6, [r3, #0]
 800d1a4:	f026 5140 	bic.w	r1, r6, #805306368	; 0x30000000
 800d1a8:	f041 5000 	orr.w	r0, r1, #536870912	; 0x20000000
 800d1ac:	6018      	str	r0, [r3, #0]
 800d1ae:	68dc      	ldr	r4, [r3, #12]
 800d1b0:	f024 5540 	bic.w	r5, r4, #805306368	; 0x30000000
 800d1b4:	f045 5680 	orr.w	r6, r5, #268435456	; 0x10000000
 800d1b8:	60de      	str	r6, [r3, #12]
 800d1ba:	6a59      	ldr	r1, [r3, #36]	; 0x24
 800d1bc:	f021 6070 	bic.w	r0, r1, #251658240	; 0xf000000
 800d1c0:	f040 6410 	orr.w	r4, r0, #150994944	; 0x9000000
 800d1c4:	625c      	str	r4, [r3, #36]	; 0x24
 800d1c6:	681d      	ldr	r5, [r3, #0]
 800d1c8:	f025 4640 	bic.w	r6, r5, #3221225472	; 0xc0000000
 800d1cc:	f046 4100 	orr.w	r1, r6, #2147483648	; 0x80000000
 800d1d0:	6019      	str	r1, [r3, #0]
 800d1d2:	68d8      	ldr	r0, [r3, #12]
 800d1d4:	f020 4440 	bic.w	r4, r0, #3221225472	; 0xc0000000
 800d1d8:	f044 4580 	orr.w	r5, r4, #1073741824	; 0x40000000
 800d1dc:	60dd      	str	r5, [r3, #12]
 800d1de:	6a5e      	ldr	r6, [r3, #36]	; 0x24
 800d1e0:	f026 4170 	bic.w	r1, r6, #4026531840	; 0xf0000000
 800d1e4:	f041 4010 	orr.w	r0, r1, #2415919104	; 0x90000000
 800d1e8:	6258      	str	r0, [r3, #36]	; 0x24
 800d1ea:	6c13      	ldr	r3, [r2, #64]	; 0x40
 800d1ec:	f043 0440 	orr.w	r4, r3, #64	; 0x40
 800d1f0:	6414      	str	r4, [r2, #64]	; 0x40
 800d1f2:	6a15      	ldr	r5, [r2, #32]
 800d1f4:	2000      	movs	r0, #0
 800d1f6:	f045 0640 	orr.w	r6, r5, #64	; 0x40
 800d1fa:	2102      	movs	r1, #2
 800d1fc:	6216      	str	r6, [r2, #32]
 800d1fe:	f360 01c3 	bfi	r1, r0, #3, #1
 800d202:	6a16      	ldr	r6, [r2, #32]
 800d204:	2501      	movs	r5, #1
 800d206:	4604      	mov	r4, r0
 800d208:	f360 1145 	bfi	r1, r0, #5, #1
 800d20c:	f365 0401 	bfi	r4, r5, #0, #2
 800d210:	f360 11c7 	bfi	r1, r0, #7, #1
 800d214:	f44f 53c0 	mov.w	r3, #6144	; 0x1800
 800d218:	f2c4 0300 	movt	r3, #16384	; 0x4000
 800d21c:	f365 2409 	bfi	r4, r5, #8, #2
 800d220:	f44f 4061 	mov.w	r0, #57600	; 0xe100
 800d224:	f041 0111 	orr.w	r1, r1, #17
 800d228:	f026 0540 	bic.w	r5, r6, #64	; 0x40
 800d22c:	6215      	str	r5, [r2, #32]
 800d22e:	f2ce 0000 	movt	r0, #57344	; 0xe000
 800d232:	b289      	uxth	r1, r1
 800d234:	b2a4      	uxth	r4, r4
 800d236:	f64f 72ff 	movw	r2, #65535	; 0xffff
 800d23a:	62da      	str	r2, [r3, #44]	; 0x2c
 800d23c:	619c      	str	r4, [r3, #24]
 800d23e:	6219      	str	r1, [r3, #32]
 800d240:	23b0      	movs	r3, #176	; 0xb0
 800d242:	f44f 6100 	mov.w	r1, #2048	; 0x800
 800d246:	f880 332b 	strb.w	r3, [r0, #811]	; 0x32b
 800d24a:	6041      	str	r1, [r0, #4]
 800d24c:	bc70      	pop	{r4, r5, r6}
 800d24e:	4770      	bx	lr

0800d250 <TIM8_BRK_TIM12_IRQHandler>:
 800d250:	f44f 52c0 	mov.w	r2, #6144	; 0x1800
 800d254:	f2c4 0200 	movt	r2, #16384	; 0x4000
 800d258:	4668      	mov	r0, sp
 800d25a:	6913      	ldr	r3, [r2, #16]
 800d25c:	f020 0107 	bic.w	r1, r0, #7
 800d260:	468d      	mov	sp, r1
 800d262:	f013 0102 	ands.w	r1, r3, #2
 800d266:	b4f1      	push	{r0, r4, r5, r6, r7}
 800d268:	d129      	bne.n	800d2be <TIM8_BRK_TIM12_IRQHandler+0x6e>
 800d26a:	075b      	lsls	r3, r3, #29
 800d26c:	d402      	bmi.n	800d274 <TIM8_BRK_TIM12_IRQHandler+0x24>
 800d26e:	bcf1      	pop	{r0, r4, r5, r6, r7}
 800d270:	4685      	mov	sp, r0
 800d272:	4770      	bx	lr
 800d274:	48a0      	ldr	r0, [pc, #640]	; (800d4f8 <TIM8_BRK_TIM12_IRQHandler+0x2a8>)
 800d276:	f44f 7302 	mov.w	r3, #520	; 0x208
 800d27a:	f2c4 2303 	movt	r3, #16899	; 0x4203
 800d27e:	7804      	ldrb	r4, [r0, #0]
 800d280:	6019      	str	r1, [r3, #0]
 800d282:	2c00      	cmp	r4, #0
 800d284:	d03d      	beq.n	800d302 <TIM8_BRK_TIM12_IRQHandler+0xb2>
 800d286:	4c9d      	ldr	r4, [pc, #628]	; (800d4fc <TIM8_BRK_TIM12_IRQHandler+0x2ac>)
 800d288:	6b95      	ldr	r5, [r2, #56]	; 0x38
 800d28a:	8822      	ldrh	r2, [r4, #0]
 800d28c:	1aab      	subs	r3, r5, r2
 800d28e:	b29b      	uxth	r3, r3
 800d290:	f5a3 65d2 	sub.w	r5, r3, #1680	; 0x690
 800d294:	b2ad      	uxth	r5, r5
 800d296:	f240 42ec 	movw	r2, #1260	; 0x4ec
 800d29a:	4295      	cmp	r5, r2
 800d29c:	d94c      	bls.n	800d338 <TIM8_BRK_TIM12_IRQHandler+0xe8>
 800d29e:	3b54      	subs	r3, #84	; 0x54
 800d2a0:	f5b3 7f3d 	cmp.w	r3, #756	; 0x2f4
 800d2a4:	f240 809c 	bls.w	800d3e0 <TIM8_BRK_TIM12_IRQHandler+0x190>
 800d2a8:	7001      	strb	r1, [r0, #0]
 800d2aa:	4895      	ldr	r0, [pc, #596]	; (800d500 <TIM8_BRK_TIM12_IRQHandler+0x2b0>)
 800d2ac:	4b95      	ldr	r3, [pc, #596]	; (800d504 <TIM8_BRK_TIM12_IRQHandler+0x2b4>)
 800d2ae:	6001      	str	r1, [r0, #0]
 800d2b0:	4a95      	ldr	r2, [pc, #596]	; (800d508 <TIM8_BRK_TIM12_IRQHandler+0x2b8>)
 800d2b2:	4896      	ldr	r0, [pc, #600]	; (800d50c <TIM8_BRK_TIM12_IRQHandler+0x2bc>)
 800d2b4:	6019      	str	r1, [r3, #0]
 800d2b6:	8021      	strh	r1, [r4, #0]
 800d2b8:	7011      	strb	r1, [r2, #0]
 800d2ba:	6001      	str	r1, [r0, #0]
 800d2bc:	e7d7      	b.n	800d26e <TIM8_BRK_TIM12_IRQHandler+0x1e>
 800d2be:	488e      	ldr	r0, [pc, #568]	; (800d4f8 <TIM8_BRK_TIM12_IRQHandler+0x2a8>)
 800d2c0:	f44f 7301 	mov.w	r3, #516	; 0x204
 800d2c4:	f2c4 2303 	movt	r3, #16899	; 0x4203
 800d2c8:	7804      	ldrb	r4, [r0, #0]
 800d2ca:	2100      	movs	r1, #0
 800d2cc:	6019      	str	r1, [r3, #0]
 800d2ce:	2c00      	cmp	r4, #0
 800d2d0:	d028      	beq.n	800d324 <TIM8_BRK_TIM12_IRQHandler+0xd4>
 800d2d2:	4b8a      	ldr	r3, [pc, #552]	; (800d4fc <TIM8_BRK_TIM12_IRQHandler+0x2ac>)
 800d2d4:	6b55      	ldr	r5, [r2, #52]	; 0x34
 800d2d6:	881c      	ldrh	r4, [r3, #0]
 800d2d8:	b2aa      	uxth	r2, r5
 800d2da:	1b15      	subs	r5, r2, r4
 800d2dc:	b2ac      	uxth	r4, r5
 800d2de:	f46f 65a8 	mvn.w	r5, #1344	; 0x540
 800d2e2:	1965      	adds	r5, r4, r5
 800d2e4:	b2ad      	uxth	r5, r5
 800d2e6:	801a      	strh	r2, [r3, #0]
 800d2e8:	f640 227e 	movw	r2, #2686	; 0xa7e
 800d2ec:	4295      	cmp	r5, r2
 800d2ee:	d97b      	bls.n	800d3e8 <TIM8_BRK_TIM12_IRQHandler+0x198>
 800d2f0:	f5a4 647c 	sub.w	r4, r4, #4032	; 0xfc0
 800d2f4:	f5b4 6f28 	cmp.w	r4, #2688	; 0xa80
 800d2f8:	d222      	bcs.n	800d340 <TIM8_BRK_TIM12_IRQHandler+0xf0>
 800d2fa:	4a82      	ldr	r2, [pc, #520]	; (800d504 <TIM8_BRK_TIM12_IRQHandler+0x2b4>)
 800d2fc:	2102      	movs	r1, #2
 800d2fe:	6011      	str	r1, [r2, #0]
 800d300:	e7b5      	b.n	800d26e <TIM8_BRK_TIM12_IRQHandler+0x1e>
 800d302:	4b7f      	ldr	r3, [pc, #508]	; (800d500 <TIM8_BRK_TIM12_IRQHandler+0x2b0>)
 800d304:	681c      	ldr	r4, [r3, #0]
 800d306:	2c00      	cmp	r4, #0
 800d308:	d0b1      	beq.n	800d26e <TIM8_BRK_TIM12_IRQHandler+0x1e>
 800d30a:	497e      	ldr	r1, [pc, #504]	; (800d504 <TIM8_BRK_TIM12_IRQHandler+0x2b4>)
 800d30c:	680a      	ldr	r2, [r1, #0]
 800d30e:	2a00      	cmp	r2, #0
 800d310:	d0ad      	beq.n	800d26e <TIM8_BRK_TIM12_IRQHandler+0x1e>
 800d312:	4e7e      	ldr	r6, [pc, #504]	; (800d50c <TIM8_BRK_TIM12_IRQHandler+0x2bc>)
 800d314:	6835      	ldr	r5, [r6, #0]
 800d316:	2d04      	cmp	r5, #4
 800d318:	d8a9      	bhi.n	800d26e <TIM8_BRK_TIM12_IRQHandler+0x1e>
 800d31a:	e8df f005 	tbb	[pc, r5]
 800d31e:	4259      	.short	0x4259
 800d320:	2a4c      	.short	0x2a4c
 800d322:	1c          	.byte	0x1c
 800d323:	00          	.byte	0x00
 800d324:	4b7a      	ldr	r3, [pc, #488]	; (800d510 <TIM8_BRK_TIM12_IRQHandler+0x2c0>)
 800d326:	7819      	ldrb	r1, [r3, #0]
 800d328:	2900      	cmp	r1, #0
 800d32a:	d061      	beq.n	800d3f0 <TIM8_BRK_TIM12_IRQHandler+0x1a0>
 800d32c:	4a79      	ldr	r2, [pc, #484]	; (800d514 <TIM8_BRK_TIM12_IRQHandler+0x2c4>)
 800d32e:	7812      	ldrb	r2, [r2, #0]
 800d330:	2a00      	cmp	r2, #0
 800d332:	d19c      	bne.n	800d26e <TIM8_BRK_TIM12_IRQHandler+0x1e>
 800d334:	701a      	strb	r2, [r3, #0]
 800d336:	e79a      	b.n	800d26e <TIM8_BRK_TIM12_IRQHandler+0x1e>
 800d338:	4b71      	ldr	r3, [pc, #452]	; (800d500 <TIM8_BRK_TIM12_IRQHandler+0x2b0>)
 800d33a:	2402      	movs	r4, #2
 800d33c:	601c      	str	r4, [r3, #0]
 800d33e:	e7e4      	b.n	800d30a <TIM8_BRK_TIM12_IRQHandler+0xba>
 800d340:	7001      	strb	r1, [r0, #0]
 800d342:	486f      	ldr	r0, [pc, #444]	; (800d500 <TIM8_BRK_TIM12_IRQHandler+0x2b0>)
 800d344:	8019      	strh	r1, [r3, #0]
 800d346:	6001      	str	r1, [r0, #0]
 800d348:	4a6e      	ldr	r2, [pc, #440]	; (800d504 <TIM8_BRK_TIM12_IRQHandler+0x2b4>)
 800d34a:	4b6f      	ldr	r3, [pc, #444]	; (800d508 <TIM8_BRK_TIM12_IRQHandler+0x2b8>)
 800d34c:	486f      	ldr	r0, [pc, #444]	; (800d50c <TIM8_BRK_TIM12_IRQHandler+0x2bc>)
 800d34e:	6011      	str	r1, [r2, #0]
 800d350:	7019      	strb	r1, [r3, #0]
 800d352:	6001      	str	r1, [r0, #0]
 800d354:	e78b      	b.n	800d26e <TIM8_BRK_TIM12_IRQHandler+0x1e>
 800d356:	2a01      	cmp	r2, #1
 800d358:	d050      	beq.n	800d3fc <TIM8_BRK_TIM12_IRQHandler+0x1ac>
 800d35a:	2700      	movs	r7, #0
 800d35c:	600f      	str	r7, [r1, #0]
 800d35e:	601f      	str	r7, [r3, #0]
 800d360:	4a66      	ldr	r2, [pc, #408]	; (800d4fc <TIM8_BRK_TIM12_IRQHandler+0x2ac>)
 800d362:	4969      	ldr	r1, [pc, #420]	; (800d508 <TIM8_BRK_TIM12_IRQHandler+0x2b8>)
 800d364:	4b6c      	ldr	r3, [pc, #432]	; (800d518 <TIM8_BRK_TIM12_IRQHandler+0x2c8>)
 800d366:	7007      	strb	r7, [r0, #0]
 800d368:	8017      	strh	r7, [r2, #0]
 800d36a:	700f      	strb	r7, [r1, #0]
 800d36c:	6037      	str	r7, [r6, #0]
 800d36e:	601f      	str	r7, [r3, #0]
 800d370:	e77d      	b.n	800d26e <TIM8_BRK_TIM12_IRQHandler+0x1e>
 800d372:	2a01      	cmp	r2, #1
 800d374:	d1f1      	bne.n	800d35a <TIM8_BRK_TIM12_IRQHandler+0x10a>
 800d376:	2c01      	cmp	r4, #1
 800d378:	4a63      	ldr	r2, [pc, #396]	; (800d508 <TIM8_BRK_TIM12_IRQHandler+0x2b8>)
 800d37a:	f000 808a 	beq.w	800d492 <TIM8_BRK_TIM12_IRQHandler+0x242>
 800d37e:	7817      	ldrb	r7, [r2, #0]
 800d380:	1c7c      	adds	r4, r7, #1
 800d382:	b2e4      	uxtb	r4, r4
 800d384:	2c08      	cmp	r4, #8
 800d386:	7014      	strb	r4, [r2, #0]
 800d388:	f67f af71 	bls.w	800d26e <TIM8_BRK_TIM12_IRQHandler+0x1e>
 800d38c:	2400      	movs	r4, #0
 800d38e:	7004      	strb	r4, [r0, #0]
 800d390:	601c      	str	r4, [r3, #0]
 800d392:	4861      	ldr	r0, [pc, #388]	; (800d518 <TIM8_BRK_TIM12_IRQHandler+0x2c8>)
 800d394:	4b59      	ldr	r3, [pc, #356]	; (800d4fc <TIM8_BRK_TIM12_IRQHandler+0x2ac>)
 800d396:	600c      	str	r4, [r1, #0]
 800d398:	801c      	strh	r4, [r3, #0]
 800d39a:	7014      	strb	r4, [r2, #0]
 800d39c:	6034      	str	r4, [r6, #0]
 800d39e:	6004      	str	r4, [r0, #0]
 800d3a0:	e765      	b.n	800d26e <TIM8_BRK_TIM12_IRQHandler+0x1e>
 800d3a2:	2c01      	cmp	r4, #1
 800d3a4:	d1d9      	bne.n	800d35a <TIM8_BRK_TIM12_IRQHandler+0x10a>
 800d3a6:	2a01      	cmp	r2, #1
 800d3a8:	f47f af61 	bne.w	800d26e <TIM8_BRK_TIM12_IRQHandler+0x1e>
 800d3ac:	4b56      	ldr	r3, [pc, #344]	; (800d508 <TIM8_BRK_TIM12_IRQHandler+0x2b8>)
 800d3ae:	2002      	movs	r0, #2
 800d3b0:	6030      	str	r0, [r6, #0]
 800d3b2:	701a      	strb	r2, [r3, #0]
 800d3b4:	e75b      	b.n	800d26e <TIM8_BRK_TIM12_IRQHandler+0x1e>
 800d3b6:	2a01      	cmp	r2, #1
 800d3b8:	d1cf      	bne.n	800d35a <TIM8_BRK_TIM12_IRQHandler+0x10a>
 800d3ba:	2c02      	cmp	r4, #2
 800d3bc:	d07c      	beq.n	800d4b8 <TIM8_BRK_TIM12_IRQHandler+0x268>
 800d3be:	4a52      	ldr	r2, [pc, #328]	; (800d508 <TIM8_BRK_TIM12_IRQHandler+0x2b8>)
 800d3c0:	7817      	ldrb	r7, [r2, #0]
 800d3c2:	1c7c      	adds	r4, r7, #1
 800d3c4:	b2e4      	uxtb	r4, r4
 800d3c6:	2c06      	cmp	r4, #6
 800d3c8:	7014      	strb	r4, [r2, #0]
 800d3ca:	f67f af50 	bls.w	800d26e <TIM8_BRK_TIM12_IRQHandler+0x1e>
 800d3ce:	e7dd      	b.n	800d38c <TIM8_BRK_TIM12_IRQHandler+0x13c>
 800d3d0:	2c01      	cmp	r4, #1
 800d3d2:	f47f af4c 	bne.w	800d26e <TIM8_BRK_TIM12_IRQHandler+0x1e>
 800d3d6:	2a02      	cmp	r2, #2
 800d3d8:	f47f af49 	bne.w	800d26e <TIM8_BRK_TIM12_IRQHandler+0x1e>
 800d3dc:	6034      	str	r4, [r6, #0]
 800d3de:	e746      	b.n	800d26e <TIM8_BRK_TIM12_IRQHandler+0x1e>
 800d3e0:	4b47      	ldr	r3, [pc, #284]	; (800d500 <TIM8_BRK_TIM12_IRQHandler+0x2b0>)
 800d3e2:	2401      	movs	r4, #1
 800d3e4:	601c      	str	r4, [r3, #0]
 800d3e6:	e790      	b.n	800d30a <TIM8_BRK_TIM12_IRQHandler+0xba>
 800d3e8:	4b46      	ldr	r3, [pc, #280]	; (800d504 <TIM8_BRK_TIM12_IRQHandler+0x2b4>)
 800d3ea:	2001      	movs	r0, #1
 800d3ec:	6018      	str	r0, [r3, #0]
 800d3ee:	e73e      	b.n	800d26e <TIM8_BRK_TIM12_IRQHandler+0x1e>
 800d3f0:	6b51      	ldr	r1, [r2, #52]	; 0x34
 800d3f2:	4b42      	ldr	r3, [pc, #264]	; (800d4fc <TIM8_BRK_TIM12_IRQHandler+0x2ac>)
 800d3f4:	2201      	movs	r2, #1
 800d3f6:	8019      	strh	r1, [r3, #0]
 800d3f8:	7002      	strb	r2, [r0, #0]
 800d3fa:	e738      	b.n	800d26e <TIM8_BRK_TIM12_IRQHandler+0x1e>
 800d3fc:	2c01      	cmp	r4, #1
 800d3fe:	d1ac      	bne.n	800d35a <TIM8_BRK_TIM12_IRQHandler+0x10a>
 800d400:	4f41      	ldr	r7, [pc, #260]	; (800d508 <TIM8_BRK_TIM12_IRQHandler+0x2b8>)
 800d402:	4b45      	ldr	r3, [pc, #276]	; (800d518 <TIM8_BRK_TIM12_IRQHandler+0x2c8>)
 800d404:	7838      	ldrb	r0, [r7, #0]
 800d406:	681b      	ldr	r3, [r3, #0]
 800d408:	1c41      	adds	r1, r0, #1
 800d40a:	b2ca      	uxtb	r2, r1
 800d40c:	2b01      	cmp	r3, #1
 800d40e:	703a      	strb	r2, [r7, #0]
 800d410:	f000 8090 	beq.w	800d534 <TIM8_BRK_TIM12_IRQHandler+0x2e4>
 800d414:	2b02      	cmp	r3, #2
 800d416:	f47f af2a 	bne.w	800d26e <TIM8_BRK_TIM12_IRQHandler+0x1e>
 800d41a:	2a05      	cmp	r2, #5
 800d41c:	f47f af27 	bne.w	800d26e <TIM8_BRK_TIM12_IRQHandler+0x1e>
 800d420:	4e3e      	ldr	r6, [pc, #248]	; (800d51c <TIM8_BRK_TIM12_IRQHandler+0x2cc>)
 800d422:	4d3f      	ldr	r5, [pc, #252]	; (800d520 <TIM8_BRK_TIM12_IRQHandler+0x2d0>)
 800d424:	f8b6 c000 	ldrh.w	ip, [r6]
 800d428:	882d      	ldrh	r5, [r5, #0]
 800d42a:	4f3e      	ldr	r7, [pc, #248]	; (800d524 <TIM8_BRK_TIM12_IRQHandler+0x2d4>)
 800d42c:	2400      	movs	r4, #0
 800d42e:	4e3e      	ldr	r6, [pc, #248]	; (800d528 <TIM8_BRK_TIM12_IRQHandler+0x2d8>)
 800d430:	883a      	ldrh	r2, [r7, #0]
 800d432:	8837      	ldrh	r7, [r6, #0]
 800d434:	483d      	ldr	r0, [pc, #244]	; (800d52c <TIM8_BRK_TIM12_IRQHandler+0x2dc>)
 800d436:	f2c4 2403 	movt	r4, #16899	; 0x4203
 800d43a:	f44f 51c0 	mov.w	r1, #6144	; 0x1800
 800d43e:	f2c4 0100 	movt	r1, #16384	; 0x4000
 800d442:	2600      	movs	r6, #0
 800d444:	6026      	str	r6, [r4, #0]
 800d446:	68ce      	ldr	r6, [r1, #12]
 800d448:	ebc5 050c 	rsb	r5, r5, ip
 800d44c:	1bd4      	subs	r4, r2, r7
 800d44e:	f3c5 05cc 	ubfx	r5, r5, #3, #13
 800d452:	f026 0606 	bic.w	r6, r6, #6
 800d456:	f3c4 044e 	ubfx	r4, r4, #1, #15
 800d45a:	00ed      	lsls	r5, r5, #3
 800d45c:	60ce      	str	r6, [r1, #12]
 800d45e:	6005      	str	r5, [r0, #0]
 800d460:	6044      	str	r4, [r0, #4]
 800d462:	f44f 6080 	mov.w	r0, #1024	; 0x400
 800d466:	f2c4 0000 	movt	r0, #16384	; 0x4000
 800d46a:	0852      	lsrs	r2, r2, #1
 800d46c:	1e91      	subs	r1, r2, #2
 800d46e:	2200      	movs	r2, #0
 800d470:	62c1      	str	r1, [r0, #44]	; 0x2c
 800d472:	6242      	str	r2, [r0, #36]	; 0x24
 800d474:	bf00      	nop
 800d476:	f44f 4000 	mov.w	r0, #32768	; 0x8000
 800d47a:	2201      	movs	r2, #1
 800d47c:	f2c4 2000 	movt	r0, #16896	; 0x4200
 800d480:	4293      	cmp	r3, r2
 800d482:	6002      	str	r2, [r0, #0]
 800d484:	d079      	beq.n	800d57a <TIM8_BRK_TIM12_IRQHandler+0x32a>
 800d486:	2b02      	cmp	r3, #2
 800d488:	d078      	beq.n	800d57c <TIM8_BRK_TIM12_IRQHandler+0x32c>
 800d48a:	4b29      	ldr	r3, [pc, #164]	; (800d530 <TIM8_BRK_TIM12_IRQHandler+0x2e0>)
 800d48c:	2100      	movs	r1, #0
 800d48e:	6019      	str	r1, [r3, #0]
 800d490:	e6ed      	b.n	800d26e <TIM8_BRK_TIM12_IRQHandler+0x1e>
 800d492:	7815      	ldrb	r5, [r2, #0]
 800d494:	2d05      	cmp	r5, #5
 800d496:	d058      	beq.n	800d54a <TIM8_BRK_TIM12_IRQHandler+0x2fa>
 800d498:	2d06      	cmp	r5, #6
 800d49a:	f47f af77 	bne.w	800d38c <TIM8_BRK_TIM12_IRQHandler+0x13c>
 800d49e:	4d1e      	ldr	r5, [pc, #120]	; (800d518 <TIM8_BRK_TIM12_IRQHandler+0x2c8>)
 800d4a0:	682c      	ldr	r4, [r5, #0]
 800d4a2:	2c02      	cmp	r4, #2
 800d4a4:	d003      	beq.n	800d4ae <TIM8_BRK_TIM12_IRQHandler+0x25e>
 800d4a6:	2c00      	cmp	r4, #0
 800d4a8:	d15d      	bne.n	800d566 <TIM8_BRK_TIM12_IRQHandler+0x316>
 800d4aa:	2102      	movs	r1, #2
 800d4ac:	6029      	str	r1, [r5, #0]
 800d4ae:	2004      	movs	r0, #4
 800d4b0:	2100      	movs	r1, #0
 800d4b2:	6030      	str	r0, [r6, #0]
 800d4b4:	7011      	strb	r1, [r2, #0]
 800d4b6:	e6da      	b.n	800d26e <TIM8_BRK_TIM12_IRQHandler+0x1e>
 800d4b8:	4d13      	ldr	r5, [pc, #76]	; (800d508 <TIM8_BRK_TIM12_IRQHandler+0x2b8>)
 800d4ba:	782f      	ldrb	r7, [r5, #0]
 800d4bc:	2f04      	cmp	r7, #4
 800d4be:	d00e      	beq.n	800d4de <TIM8_BRK_TIM12_IRQHandler+0x28e>
 800d4c0:	2f05      	cmp	r7, #5
 800d4c2:	d013      	beq.n	800d4ec <TIM8_BRK_TIM12_IRQHandler+0x29c>
 800d4c4:	2f06      	cmp	r7, #6
 800d4c6:	d047      	beq.n	800d558 <TIM8_BRK_TIM12_IRQHandler+0x308>
 800d4c8:	2200      	movs	r2, #0
 800d4ca:	600a      	str	r2, [r1, #0]
 800d4cc:	601a      	str	r2, [r3, #0]
 800d4ce:	490b      	ldr	r1, [pc, #44]	; (800d4fc <TIM8_BRK_TIM12_IRQHandler+0x2ac>)
 800d4d0:	4b11      	ldr	r3, [pc, #68]	; (800d518 <TIM8_BRK_TIM12_IRQHandler+0x2c8>)
 800d4d2:	7002      	strb	r2, [r0, #0]
 800d4d4:	800a      	strh	r2, [r1, #0]
 800d4d6:	702a      	strb	r2, [r5, #0]
 800d4d8:	6032      	str	r2, [r6, #0]
 800d4da:	601a      	str	r2, [r3, #0]
 800d4dc:	e6c7      	b.n	800d26e <TIM8_BRK_TIM12_IRQHandler+0x1e>
 800d4de:	4c0e      	ldr	r4, [pc, #56]	; (800d518 <TIM8_BRK_TIM12_IRQHandler+0x2c8>)
 800d4e0:	6827      	ldr	r7, [r4, #0]
 800d4e2:	2f01      	cmp	r7, #1
 800d4e4:	d002      	beq.n	800d4ec <TIM8_BRK_TIM12_IRQHandler+0x29c>
 800d4e6:	2f00      	cmp	r7, #0
 800d4e8:	d14b      	bne.n	800d582 <TIM8_BRK_TIM12_IRQHandler+0x332>
 800d4ea:	6022      	str	r2, [r4, #0]
 800d4ec:	2303      	movs	r3, #3
 800d4ee:	2001      	movs	r0, #1
 800d4f0:	6033      	str	r3, [r6, #0]
 800d4f2:	7028      	strb	r0, [r5, #0]
 800d4f4:	e6bb      	b.n	800d26e <TIM8_BRK_TIM12_IRQHandler+0x1e>
 800d4f6:	bf00      	nop
 800d4f8:	100008e1 	.word	0x100008e1
 800d4fc:	100008d0 	.word	0x100008d0
 800d500:	100008dc 	.word	0x100008dc
 800d504:	100008e4 	.word	0x100008e4
 800d508:	100008d2 	.word	0x100008d2
 800d50c:	100008d4 	.word	0x100008d4
 800d510:	10000016 	.word	0x10000016
 800d514:	100008e0 	.word	0x100008e0
 800d518:	100008e8 	.word	0x100008e8
 800d51c:	10000002 	.word	0x10000002
 800d520:	10000006 	.word	0x10000006
 800d524:	10000008 	.word	0x10000008
 800d528:	10000010 	.word	0x10000010
 800d52c:	1000089c 	.word	0x1000089c
 800d530:	100008d8 	.word	0x100008d8
 800d534:	2a03      	cmp	r2, #3
 800d536:	f47f ae9a 	bne.w	800d26e <TIM8_BRK_TIM12_IRQHandler+0x1e>
 800d53a:	481c      	ldr	r0, [pc, #112]	; (800d5ac <TIM8_BRK_TIM12_IRQHandler+0x35c>)
 800d53c:	491c      	ldr	r1, [pc, #112]	; (800d5b0 <TIM8_BRK_TIM12_IRQHandler+0x360>)
 800d53e:	f8b0 c000 	ldrh.w	ip, [r0]
 800d542:	880d      	ldrh	r5, [r1, #0]
 800d544:	4f1b      	ldr	r7, [pc, #108]	; (800d5b4 <TIM8_BRK_TIM12_IRQHandler+0x364>)
 800d546:	2400      	movs	r4, #0
 800d548:	e771      	b.n	800d42e <TIM8_BRK_TIM12_IRQHandler+0x1de>
 800d54a:	4d1b      	ldr	r5, [pc, #108]	; (800d5b8 <TIM8_BRK_TIM12_IRQHandler+0x368>)
 800d54c:	682f      	ldr	r7, [r5, #0]
 800d54e:	2f01      	cmp	r7, #1
 800d550:	d0ad      	beq.n	800d4ae <TIM8_BRK_TIM12_IRQHandler+0x25e>
 800d552:	b947      	cbnz	r7, 800d566 <TIM8_BRK_TIM12_IRQHandler+0x316>
 800d554:	602c      	str	r4, [r5, #0]
 800d556:	e7aa      	b.n	800d4ae <TIM8_BRK_TIM12_IRQHandler+0x25e>
 800d558:	4f17      	ldr	r7, [pc, #92]	; (800d5b8 <TIM8_BRK_TIM12_IRQHandler+0x368>)
 800d55a:	683a      	ldr	r2, [r7, #0]
 800d55c:	2a02      	cmp	r2, #2
 800d55e:	d0c5      	beq.n	800d4ec <TIM8_BRK_TIM12_IRQHandler+0x29c>
 800d560:	b9ca      	cbnz	r2, 800d596 <TIM8_BRK_TIM12_IRQHandler+0x346>
 800d562:	603c      	str	r4, [r7, #0]
 800d564:	e7c2      	b.n	800d4ec <TIM8_BRK_TIM12_IRQHandler+0x29c>
 800d566:	2400      	movs	r4, #0
 800d568:	601c      	str	r4, [r3, #0]
 800d56a:	4b14      	ldr	r3, [pc, #80]	; (800d5bc <TIM8_BRK_TIM12_IRQHandler+0x36c>)
 800d56c:	7004      	strb	r4, [r0, #0]
 800d56e:	600c      	str	r4, [r1, #0]
 800d570:	801c      	strh	r4, [r3, #0]
 800d572:	7014      	strb	r4, [r2, #0]
 800d574:	6034      	str	r4, [r6, #0]
 800d576:	602c      	str	r4, [r5, #0]
 800d578:	e679      	b.n	800d26e <TIM8_BRK_TIM12_IRQHandler+0x1e>
 800d57a:	2202      	movs	r2, #2
 800d57c:	4810      	ldr	r0, [pc, #64]	; (800d5c0 <TIM8_BRK_TIM12_IRQHandler+0x370>)
 800d57e:	6002      	str	r2, [r0, #0]
 800d580:	e675      	b.n	800d26e <TIM8_BRK_TIM12_IRQHandler+0x1e>
 800d582:	2200      	movs	r2, #0
 800d584:	600a      	str	r2, [r1, #0]
 800d586:	490d      	ldr	r1, [pc, #52]	; (800d5bc <TIM8_BRK_TIM12_IRQHandler+0x36c>)
 800d588:	7002      	strb	r2, [r0, #0]
 800d58a:	601a      	str	r2, [r3, #0]
 800d58c:	800a      	strh	r2, [r1, #0]
 800d58e:	702a      	strb	r2, [r5, #0]
 800d590:	6032      	str	r2, [r6, #0]
 800d592:	6022      	str	r2, [r4, #0]
 800d594:	e66b      	b.n	800d26e <TIM8_BRK_TIM12_IRQHandler+0x1e>
 800d596:	2200      	movs	r2, #0
 800d598:	7002      	strb	r2, [r0, #0]
 800d59a:	4808      	ldr	r0, [pc, #32]	; (800d5bc <TIM8_BRK_TIM12_IRQHandler+0x36c>)
 800d59c:	601a      	str	r2, [r3, #0]
 800d59e:	600a      	str	r2, [r1, #0]
 800d5a0:	8002      	strh	r2, [r0, #0]
 800d5a2:	702a      	strb	r2, [r5, #0]
 800d5a4:	6032      	str	r2, [r6, #0]
 800d5a6:	603a      	str	r2, [r7, #0]
 800d5a8:	e661      	b.n	800d26e <TIM8_BRK_TIM12_IRQHandler+0x1e>
 800d5aa:	bf00      	nop
 800d5ac:	10000002 	.word	0x10000002
 800d5b0:	10000006 	.word	0x10000006
 800d5b4:	1000000c 	.word	0x1000000c
 800d5b8:	100008e8 	.word	0x100008e8
 800d5bc:	100008d0 	.word	0x100008d0
 800d5c0:	100008d8 	.word	0x100008d8

0800d5c4 <_Z10setup_ledsv>:
 800d5c4:	f44f 5260 	mov.w	r2, #14336	; 0x3800
 800d5c8:	f2c4 0202 	movt	r2, #16386	; 0x4002
 800d5cc:	f44f 6380 	mov.w	r3, #1024	; 0x400
 800d5d0:	6b11      	ldr	r1, [r2, #48]	; 0x30
 800d5d2:	f2c4 0302 	movt	r3, #16386	; 0x4002
 800d5d6:	f041 0002 	orr.w	r0, r1, #2
 800d5da:	6310      	str	r0, [r2, #48]	; 0x30
 800d5dc:	681a      	ldr	r2, [r3, #0]
 800d5de:	f022 7140 	bic.w	r1, r2, #50331648	; 0x3000000
 800d5e2:	f041 7080 	orr.w	r0, r1, #16777216	; 0x1000000
 800d5e6:	6018      	str	r0, [r3, #0]
 800d5e8:	685a      	ldr	r2, [r3, #4]
 800d5ea:	f422 5180 	bic.w	r1, r2, #4096	; 0x1000
 800d5ee:	6059      	str	r1, [r3, #4]
 800d5f0:	6898      	ldr	r0, [r3, #8]
 800d5f2:	f020 7240 	bic.w	r2, r0, #50331648	; 0x3000000
 800d5f6:	609a      	str	r2, [r3, #8]
 800d5f8:	68d9      	ldr	r1, [r3, #12]
 800d5fa:	f021 7040 	bic.w	r0, r1, #50331648	; 0x3000000
 800d5fe:	60d8      	str	r0, [r3, #12]
 800d600:	695a      	ldr	r2, [r3, #20]
 800d602:	f422 5180 	bic.w	r1, r2, #4096	; 0x1000
 800d606:	6159      	str	r1, [r3, #20]
 800d608:	4770      	bx	lr
 800d60a:	bf00      	nop

0800d60c <TIM1_UP_TIM10_IRQHandler>:
 800d60c:	4668      	mov	r0, sp
 800d60e:	f020 0107 	bic.w	r1, r0, #7
 800d612:	468d      	mov	sp, r1
 800d614:	b4f1      	push	{r0, r4, r5, r6, r7}
 800d616:	f44f 4388 	mov.w	r3, #17408	; 0x4400
 800d61a:	f2c4 0301 	movt	r3, #16385	; 0x4001
 800d61e:	4931      	ldr	r1, [pc, #196]	; (800d6e4 <TIM1_UP_TIM10_IRQHandler+0xd8>)
 800d620:	2200      	movs	r2, #0
 800d622:	611a      	str	r2, [r3, #16]
 800d624:	780b      	ldrb	r3, [r1, #0]
 800d626:	b923      	cbnz	r3, 800d632 <TIM1_UP_TIM10_IRQHandler+0x26>
 800d628:	f44f 7026 	mov.w	r0, #664	; 0x298
 800d62c:	f2c4 2040 	movt	r0, #16960	; 0x4240
 800d630:	6003      	str	r3, [r0, #0]
 800d632:	482d      	ldr	r0, [pc, #180]	; (800d6e8 <TIM1_UP_TIM10_IRQHandler+0xdc>)
 800d634:	8804      	ldrh	r4, [r0, #0]
 800d636:	f404 4500 	and.w	r5, r4, #32768	; 0x8000
 800d63a:	b2aa      	uxth	r2, r5
 800d63c:	b1ea      	cbz	r2, 800d67a <TIM1_UP_TIM10_IRQHandler+0x6e>
 800d63e:	bf00      	nop
 800d640:	f44f 7227 	mov.w	r2, #668	; 0x29c
 800d644:	f2c4 2240 	movt	r2, #16960	; 0x4240
 800d648:	2501      	movs	r5, #1
 800d64a:	6015      	str	r5, [r2, #0]
 800d64c:	bf00      	nop
 800d64e:	f44f 7228 	mov.w	r2, #672	; 0x2a0
 800d652:	f2c4 2241 	movt	r2, #16961	; 0x4241
 800d656:	2500      	movs	r5, #0
 800d658:	2b0f      	cmp	r3, #15
 800d65a:	6015      	str	r5, [r2, #0]
 800d65c:	d013      	beq.n	800d686 <TIM1_UP_TIM10_IRQHandler+0x7a>
 800d65e:	0064      	lsls	r4, r4, #1
 800d660:	3301      	adds	r3, #1
 800d662:	8004      	strh	r4, [r0, #0]
 800d664:	700b      	strb	r3, [r1, #0]
 800d666:	bf00      	nop
 800d668:	f44f 7028 	mov.w	r0, #672	; 0x2a0
 800d66c:	f2c4 2041 	movt	r0, #16961	; 0x4241
 800d670:	2101      	movs	r1, #1
 800d672:	6001      	str	r1, [r0, #0]
 800d674:	bcf1      	pop	{r0, r4, r5, r6, r7}
 800d676:	4685      	mov	sp, r0
 800d678:	4770      	bx	lr
 800d67a:	f44f 7527 	mov.w	r5, #668	; 0x29c
 800d67e:	f2c4 2540 	movt	r5, #16960	; 0x4240
 800d682:	602a      	str	r2, [r5, #0]
 800d684:	e7e2      	b.n	800d64c <TIM1_UP_TIM10_IRQHandler+0x40>
 800d686:	4a19      	ldr	r2, [pc, #100]	; (800d6ec <TIM1_UP_TIM10_IRQHandler+0xe0>)
 800d688:	6853      	ldr	r3, [r2, #4]
 800d68a:	b1cb      	cbz	r3, 800d6c0 <TIM1_UP_TIM10_IRQHandler+0xb4>
 800d68c:	6814      	ldr	r4, [r2, #0]
 800d68e:	881e      	ldrh	r6, [r3, #0]
 800d690:	b324      	cbz	r4, 800d6dc <TIM1_UP_TIM10_IRQHandler+0xd0>
 800d692:	4d16      	ldr	r5, [pc, #88]	; (800d6ec <TIM1_UP_TIM10_IRQHandler+0xe0>)
 800d694:	3302      	adds	r3, #2
 800d696:	f105 0718 	add.w	r7, r5, #24
 800d69a:	42bb      	cmp	r3, r7
 800d69c:	6053      	str	r3, [r2, #4]
 800d69e:	bf04      	itt	eq
 800d6a0:	f105 0308 	addeq.w	r3, r5, #8
 800d6a4:	606b      	streq	r3, [r5, #4]
 800d6a6:	42a3      	cmp	r3, r4
 800d6a8:	d015      	beq.n	800d6d6 <TIM1_UP_TIM10_IRQHandler+0xca>
 800d6aa:	8006      	strh	r6, [r0, #0]
 800d6ac:	2000      	movs	r0, #0
 800d6ae:	7008      	strb	r0, [r1, #0]
 800d6b0:	bf00      	nop
 800d6b2:	f44f 7126 	mov.w	r1, #664	; 0x298
 800d6b6:	f2c4 2140 	movt	r1, #16960	; 0x4240
 800d6ba:	2201      	movs	r2, #1
 800d6bc:	600a      	str	r2, [r1, #0]
 800d6be:	e7d2      	b.n	800d666 <TIM1_UP_TIM10_IRQHandler+0x5a>
 800d6c0:	f44f 4000 	mov.w	r0, #32768	; 0x8000
 800d6c4:	f44f 4288 	mov.w	r2, #17408	; 0x4400
 800d6c8:	f2c4 2028 	movt	r0, #16936	; 0x4228
 800d6cc:	f2c4 0201 	movt	r2, #16385	; 0x4001
 800d6d0:	6003      	str	r3, [r0, #0]
 800d6d2:	6253      	str	r3, [r2, #36]	; 0x24
 800d6d4:	e7ea      	b.n	800d6ac <TIM1_UP_TIM10_IRQHandler+0xa0>
 800d6d6:	2300      	movs	r3, #0
 800d6d8:	6053      	str	r3, [r2, #4]
 800d6da:	e7e6      	b.n	800d6aa <TIM1_UP_TIM10_IRQHandler+0x9e>
 800d6dc:	6013      	str	r3, [r2, #0]
 800d6de:	461c      	mov	r4, r3
 800d6e0:	e7d7      	b.n	800d692 <TIM1_UP_TIM10_IRQHandler+0x86>
 800d6e2:	bf00      	nop
 800d6e4:	10000906 	.word	0x10000906
 800d6e8:	10000904 	.word	0x10000904
 800d6ec:	100008ec 	.word	0x100008ec

0800d6f0 <_Z9Dac_setupv>:
 800d6f0:	f44f 5160 	mov.w	r1, #14336	; 0x3800
 800d6f4:	f2c4 0102 	movt	r1, #16386	; 0x4002
 800d6f8:	2300      	movs	r3, #0
 800d6fa:	6b08      	ldr	r0, [r1, #48]	; 0x30
 800d6fc:	4a8f      	ldr	r2, [pc, #572]	; (800d93c <_Z9Dac_setupv+0x24c>)
 800d6fe:	f2c4 0302 	movt	r3, #16386	; 0x4002
 800d702:	b430      	push	{r4, r5}
 800d704:	f040 0401 	orr.w	r4, r0, #1
 800d708:	630c      	str	r4, [r1, #48]	; 0x30
 800d70a:	681d      	ldr	r5, [r3, #0]
 800d70c:	f425 5040 	bic.w	r0, r5, #12288	; 0x3000
 800d710:	f440 5480 	orr.w	r4, r0, #4096	; 0x1000
 800d714:	601c      	str	r4, [r3, #0]
 800d716:	685d      	ldr	r5, [r3, #4]
 800d718:	f025 0040 	bic.w	r0, r5, #64	; 0x40
 800d71c:	6058      	str	r0, [r3, #4]
 800d71e:	689c      	ldr	r4, [r3, #8]
 800d720:	f424 5540 	bic.w	r5, r4, #12288	; 0x3000
 800d724:	f445 5000 	orr.w	r0, r5, #8192	; 0x2000
 800d728:	6098      	str	r0, [r3, #8]
 800d72a:	68dc      	ldr	r4, [r3, #12]
 800d72c:	f424 5540 	bic.w	r5, r4, #12288	; 0x3000
 800d730:	60dd      	str	r5, [r3, #12]
 800d732:	6958      	ldr	r0, [r3, #20]
 800d734:	f040 0440 	orr.w	r4, r0, #64	; 0x40
 800d738:	615c      	str	r4, [r3, #20]
 800d73a:	6b0d      	ldr	r5, [r1, #48]	; 0x30
 800d73c:	f045 0001 	orr.w	r0, r5, #1
 800d740:	6308      	str	r0, [r1, #48]	; 0x30
 800d742:	681c      	ldr	r4, [r3, #0]
 800d744:	f424 4540 	bic.w	r5, r4, #49152	; 0xc000
 800d748:	f445 4080 	orr.w	r0, r5, #16384	; 0x4000
 800d74c:	6018      	str	r0, [r3, #0]
 800d74e:	685c      	ldr	r4, [r3, #4]
 800d750:	f024 0580 	bic.w	r5, r4, #128	; 0x80
 800d754:	605d      	str	r5, [r3, #4]
 800d756:	6898      	ldr	r0, [r3, #8]
 800d758:	f420 4440 	bic.w	r4, r0, #49152	; 0xc000
 800d75c:	f444 4500 	orr.w	r5, r4, #32768	; 0x8000
 800d760:	609d      	str	r5, [r3, #8]
 800d762:	68d8      	ldr	r0, [r3, #12]
 800d764:	f420 4440 	bic.w	r4, r0, #49152	; 0xc000
 800d768:	60dc      	str	r4, [r3, #12]
 800d76a:	695d      	ldr	r5, [r3, #20]
 800d76c:	f025 0080 	bic.w	r0, r5, #128	; 0x80
 800d770:	6158      	str	r0, [r3, #20]
 800d772:	6b0c      	ldr	r4, [r1, #48]	; 0x30
 800d774:	f44f 6300 	mov.w	r3, #2048	; 0x800
 800d778:	f2c4 0302 	movt	r3, #16386	; 0x4002
 800d77c:	f044 0504 	orr.w	r5, r4, #4
 800d780:	630d      	str	r5, [r1, #48]	; 0x30
 800d782:	6818      	ldr	r0, [r3, #0]
 800d784:	f420 3440 	bic.w	r4, r0, #196608	; 0x30000
 800d788:	f444 3580 	orr.w	r5, r4, #65536	; 0x10000
 800d78c:	601d      	str	r5, [r3, #0]
 800d78e:	6858      	ldr	r0, [r3, #4]
 800d790:	f420 7480 	bic.w	r4, r0, #256	; 0x100
 800d794:	605c      	str	r4, [r3, #4]
 800d796:	689d      	ldr	r5, [r3, #8]
 800d798:	f425 3040 	bic.w	r0, r5, #196608	; 0x30000
 800d79c:	f440 3400 	orr.w	r4, r0, #131072	; 0x20000
 800d7a0:	609c      	str	r4, [r3, #8]
 800d7a2:	68dd      	ldr	r5, [r3, #12]
 800d7a4:	f425 3040 	bic.w	r0, r5, #196608	; 0x30000
 800d7a8:	60d8      	str	r0, [r3, #12]
 800d7aa:	695c      	ldr	r4, [r3, #20]
 800d7ac:	f444 7580 	orr.w	r5, r4, #256	; 0x100
 800d7b0:	615d      	str	r5, [r3, #20]
 800d7b2:	6c4d      	ldr	r5, [r1, #68]	; 0x44
 800d7b4:	f44f 4388 	mov.w	r3, #17408	; 0x4400
 800d7b8:	f2c4 0301 	movt	r3, #16385	; 0x4001
 800d7bc:	f445 3500 	orr.w	r5, r5, #131072	; 0x20000
 800d7c0:	644d      	str	r5, [r1, #68]	; 0x44
 800d7c2:	f44f 4461 	mov.w	r4, #57600	; 0xe100
 800d7c6:	2504      	movs	r5, #4
 800d7c8:	601d      	str	r5, [r3, #0]
 800d7ca:	2000      	movs	r0, #0
 800d7cc:	f2ce 0400 	movt	r4, #57344	; 0xe000
 800d7d0:	f44f 65d2 	mov.w	r5, #1680	; 0x690
 800d7d4:	62dd      	str	r5, [r3, #44]	; 0x2c
 800d7d6:	6258      	str	r0, [r3, #36]	; 0x24
 800d7d8:	6118      	str	r0, [r3, #16]
 800d7da:	23f0      	movs	r3, #240	; 0xf0
 800d7dc:	f884 3319 	strb.w	r3, [r4, #793]	; 0x319
 800d7e0:	f248 1180 	movw	r1, #33152	; 0x8180
 800d7e4:	6813      	ldr	r3, [r2, #0]
 800d7e6:	f2c4 2128 	movt	r1, #16936	; 0x4228
 800d7ea:	f04f 7500 	mov.w	r5, #33554432	; 0x2000000
 800d7ee:	6025      	str	r5, [r4, #0]
 800d7f0:	6008      	str	r0, [r1, #0]
 800d7f2:	b193      	cbz	r3, 800d81a <_Z9Dac_setupv+0x12a>
 800d7f4:	6851      	ldr	r1, [r2, #4]
 800d7f6:	f24c 24d0 	movw	r4, #49872	; 0xc2d0
 800d7fa:	801c      	strh	r4, [r3, #0]
 800d7fc:	2900      	cmp	r1, #0
 800d7fe:	f000 808d 	beq.w	800d91c <_Z9Dac_setupv+0x22c>
 800d802:	484e      	ldr	r0, [pc, #312]	; (800d93c <_Z9Dac_setupv+0x24c>)
 800d804:	3302      	adds	r3, #2
 800d806:	f100 0418 	add.w	r4, r0, #24
 800d80a:	42a3      	cmp	r3, r4
 800d80c:	6013      	str	r3, [r2, #0]
 800d80e:	bf04      	itt	eq
 800d810:	f100 0308 	addeq.w	r3, r0, #8
 800d814:	6003      	streq	r3, [r0, #0]
 800d816:	4299      	cmp	r1, r3
 800d818:	d074      	beq.n	800d904 <_Z9Dac_setupv+0x214>
 800d81a:	bf00      	nop
 800d81c:	f44f 4100 	mov.w	r1, #32768	; 0x8000
 800d820:	f2c4 2128 	movt	r1, #16936	; 0x4228
 800d824:	2001      	movs	r0, #1
 800d826:	6008      	str	r0, [r1, #0]
 800d828:	bf00      	nop
 800d82a:	f248 1180 	movw	r1, #33152	; 0x8180
 800d82e:	f2c4 2128 	movt	r1, #16936	; 0x4228
 800d832:	6008      	str	r0, [r1, #0]
 800d834:	2000      	movs	r0, #0
 800d836:	6008      	str	r0, [r1, #0]
 800d838:	b18b      	cbz	r3, 800d85e <_Z9Dac_setupv+0x16e>
 800d83a:	6851      	ldr	r1, [r2, #4]
 800d83c:	f248 4460 	movw	r4, #33888	; 0x8460
 800d840:	801c      	strh	r4, [r3, #0]
 800d842:	2900      	cmp	r1, #0
 800d844:	d06d      	beq.n	800d922 <_Z9Dac_setupv+0x232>
 800d846:	483d      	ldr	r0, [pc, #244]	; (800d93c <_Z9Dac_setupv+0x24c>)
 800d848:	3302      	adds	r3, #2
 800d84a:	f100 0418 	add.w	r4, r0, #24
 800d84e:	42a3      	cmp	r3, r4
 800d850:	6013      	str	r3, [r2, #0]
 800d852:	bf04      	itt	eq
 800d854:	f100 0308 	addeq.w	r3, r0, #8
 800d858:	6003      	streq	r3, [r0, #0]
 800d85a:	4299      	cmp	r1, r3
 800d85c:	d055      	beq.n	800d90a <_Z9Dac_setupv+0x21a>
 800d85e:	bf00      	nop
 800d860:	f44f 4100 	mov.w	r1, #32768	; 0x8000
 800d864:	f2c4 2128 	movt	r1, #16936	; 0x4228
 800d868:	2001      	movs	r0, #1
 800d86a:	6008      	str	r0, [r1, #0]
 800d86c:	bf00      	nop
 800d86e:	f248 1180 	movw	r1, #33152	; 0x8180
 800d872:	f2c4 2128 	movt	r1, #16936	; 0x4228
 800d876:	6008      	str	r0, [r1, #0]
 800d878:	2000      	movs	r0, #0
 800d87a:	6008      	str	r0, [r1, #0]
 800d87c:	b18b      	cbz	r3, 800d8a2 <_Z9Dac_setupv+0x1b2>
 800d87e:	6851      	ldr	r1, [r2, #4]
 800d880:	f644 3410 	movw	r4, #19216	; 0x4b10
 800d884:	801c      	strh	r4, [r3, #0]
 800d886:	2900      	cmp	r1, #0
 800d888:	d053      	beq.n	800d932 <_Z9Dac_setupv+0x242>
 800d88a:	482c      	ldr	r0, [pc, #176]	; (800d93c <_Z9Dac_setupv+0x24c>)
 800d88c:	3302      	adds	r3, #2
 800d88e:	f100 0418 	add.w	r4, r0, #24
 800d892:	42a3      	cmp	r3, r4
 800d894:	6013      	str	r3, [r2, #0]
 800d896:	bf04      	itt	eq
 800d898:	f100 0308 	addeq.w	r3, r0, #8
 800d89c:	6003      	streq	r3, [r0, #0]
 800d89e:	4299      	cmp	r1, r3
 800d8a0:	d036      	beq.n	800d910 <_Z9Dac_setupv+0x220>
 800d8a2:	bf00      	nop
 800d8a4:	f44f 4100 	mov.w	r1, #32768	; 0x8000
 800d8a8:	f2c4 2128 	movt	r1, #16936	; 0x4228
 800d8ac:	2001      	movs	r0, #1
 800d8ae:	6008      	str	r0, [r1, #0]
 800d8b0:	bf00      	nop
 800d8b2:	f248 1180 	movw	r1, #33152	; 0x8180
 800d8b6:	f2c4 2128 	movt	r1, #16936	; 0x4228
 800d8ba:	6008      	str	r0, [r1, #0]
 800d8bc:	2000      	movs	r0, #0
 800d8be:	6008      	str	r0, [r1, #0]
 800d8c0:	b18b      	cbz	r3, 800d8e6 <_Z9Dac_setupv+0x1f6>
 800d8c2:	6851      	ldr	r1, [r2, #4]
 800d8c4:	f44f 54be 	mov.w	r4, #6080	; 0x17c0
 800d8c8:	801c      	strh	r4, [r3, #0]
 800d8ca:	2900      	cmp	r1, #0
 800d8cc:	d02d      	beq.n	800d92a <_Z9Dac_setupv+0x23a>
 800d8ce:	481b      	ldr	r0, [pc, #108]	; (800d93c <_Z9Dac_setupv+0x24c>)
 800d8d0:	3302      	adds	r3, #2
 800d8d2:	f100 0418 	add.w	r4, r0, #24
 800d8d6:	42a3      	cmp	r3, r4
 800d8d8:	6013      	str	r3, [r2, #0]
 800d8da:	bf04      	itt	eq
 800d8dc:	f100 0308 	addeq.w	r3, r0, #8
 800d8e0:	6003      	streq	r3, [r0, #0]
 800d8e2:	4299      	cmp	r1, r3
 800d8e4:	d017      	beq.n	800d916 <_Z9Dac_setupv+0x226>
 800d8e6:	bf00      	nop
 800d8e8:	f44f 4000 	mov.w	r0, #32768	; 0x8000
 800d8ec:	f2c4 2028 	movt	r0, #16936	; 0x4228
 800d8f0:	2201      	movs	r2, #1
 800d8f2:	6002      	str	r2, [r0, #0]
 800d8f4:	bf00      	nop
 800d8f6:	f248 1380 	movw	r3, #33152	; 0x8180
 800d8fa:	f2c4 2328 	movt	r3, #16936	; 0x4228
 800d8fe:	601a      	str	r2, [r3, #0]
 800d900:	bc30      	pop	{r4, r5}
 800d902:	4770      	bx	lr
 800d904:	2300      	movs	r3, #0
 800d906:	6013      	str	r3, [r2, #0]
 800d908:	e787      	b.n	800d81a <_Z9Dac_setupv+0x12a>
 800d90a:	2300      	movs	r3, #0
 800d90c:	6013      	str	r3, [r2, #0]
 800d90e:	e7a6      	b.n	800d85e <_Z9Dac_setupv+0x16e>
 800d910:	2300      	movs	r3, #0
 800d912:	6013      	str	r3, [r2, #0]
 800d914:	e7c5      	b.n	800d8a2 <_Z9Dac_setupv+0x1b2>
 800d916:	2100      	movs	r1, #0
 800d918:	6011      	str	r1, [r2, #0]
 800d91a:	e7e4      	b.n	800d8e6 <_Z9Dac_setupv+0x1f6>
 800d91c:	6053      	str	r3, [r2, #4]
 800d91e:	4619      	mov	r1, r3
 800d920:	e76f      	b.n	800d802 <_Z9Dac_setupv+0x112>
 800d922:	4906      	ldr	r1, [pc, #24]	; (800d93c <_Z9Dac_setupv+0x24c>)
 800d924:	604b      	str	r3, [r1, #4]
 800d926:	4619      	mov	r1, r3
 800d928:	e78d      	b.n	800d846 <_Z9Dac_setupv+0x156>
 800d92a:	4904      	ldr	r1, [pc, #16]	; (800d93c <_Z9Dac_setupv+0x24c>)
 800d92c:	604b      	str	r3, [r1, #4]
 800d92e:	4619      	mov	r1, r3
 800d930:	e7cd      	b.n	800d8ce <_Z9Dac_setupv+0x1de>
 800d932:	4902      	ldr	r1, [pc, #8]	; (800d93c <_Z9Dac_setupv+0x24c>)
 800d934:	604b      	str	r3, [r1, #4]
 800d936:	4619      	mov	r1, r3
 800d938:	e7a7      	b.n	800d88a <_Z9Dac_setupv+0x19a>
 800d93a:	bf00      	nop
 800d93c:	100008ec 	.word	0x100008ec

0800d940 <_GLOBAL__sub_I__Z15dac_timer_setupv>:
 800d940:	f640 03ec 	movw	r3, #2284	; 0x8ec
 800d944:	f2c1 0300 	movt	r3, #4096	; 0x1000
 800d948:	f103 0208 	add.w	r2, r3, #8
 800d94c:	2000      	movs	r0, #0
 800d94e:	601a      	str	r2, [r3, #0]
 800d950:	6058      	str	r0, [r3, #4]
 800d952:	4770      	bx	lr

0800d954 <_ZN4quan3uav3osd7on_drawEv>:
 800d954:	b500      	push	{lr}
 800d956:	2000      	movs	r0, #0
 800d958:	b083      	sub	sp, #12
 800d95a:	f004 fd5f 	bl	801241c <_ZN4quan3uav3osd8get_fontEm>
 800d95e:	4602      	mov	r2, r0
 800d960:	b130      	cbz	r0, 800d970 <_ZN4quan3uav3osd7on_drawEv+0x1c>
 800d962:	2300      	movs	r3, #0
 800d964:	4803      	ldr	r0, [pc, #12]	; (800d974 <_ZN4quan3uav3osd7on_drawEv+0x20>)
 800d966:	9300      	str	r3, [sp, #0]
 800d968:	4669      	mov	r1, sp
 800d96a:	9301      	str	r3, [sp, #4]
 800d96c:	f001 fffa 	bl	800f964 <_ZN4quan3uav3osd9draw_textEPKcRKNS_5two_d4vectIlEEPKNS1_10basic_fontE>
 800d970:	b003      	add	sp, #12
 800d972:	bd00      	pop	{pc}
 800d974:	08014dec 	.word	0x08014dec

0800d978 <main>:
 800d978:	b508      	push	{r3, lr}
 800d97a:	f000 f823 	bl	800d9c4 <setup>
 800d97e:	f000 fa8f 	bl	800dea0 <_Z24create_tracker_mode_taskv>
 800d982:	f7ff fba5 	bl	800d0d0 <_Z16create_draw_taskv>
 800d986:	f7ff fad9 	bl	800cf3c <_Z26create_vsync_telem_rx_taskv>
 800d98a:	f000 fd3b 	bl	800e404 <vTaskStartScheduler>
 800d98e:	e7fe      	b.n	800d98e <main+0x16>

0800d990 <_sbrk>:
 800d990:	4a08      	ldr	r2, [pc, #32]	; (800d9b4 <_sbrk+0x24>)
 800d992:	4909      	ldr	r1, [pc, #36]	; (800d9b8 <_sbrk+0x28>)
 800d994:	b508      	push	{r3, lr}
 800d996:	6813      	ldr	r3, [r2, #0]
 800d998:	1818      	adds	r0, r3, r0
 800d99a:	4288      	cmp	r0, r1
 800d99c:	d802      	bhi.n	800d9a4 <_sbrk+0x14>
 800d99e:	6010      	str	r0, [r2, #0]
 800d9a0:	4618      	mov	r0, r3
 800d9a2:	bd08      	pop	{r3, pc}
 800d9a4:	f006 fbbe 	bl	8014124 <__errno>
 800d9a8:	220c      	movs	r2, #12
 800d9aa:	f04f 33ff 	mov.w	r3, #4294967295
 800d9ae:	6002      	str	r2, [r0, #0]
 800d9b0:	4618      	mov	r0, r3
 800d9b2:	bd08      	pop	{r3, pc}
 800d9b4:	10000018 	.word	0x10000018
 800d9b8:	20012000 	.word	0x20012000

0800d9bc <__cxa_pure_virtual>:
 800d9bc:	e7fe      	b.n	800d9bc <__cxa_pure_virtual>
 800d9be:	bf00      	nop

0800d9c0 <_ZdlPv>:
 800d9c0:	f006 bb92 	b.w	80140e8 <vPortFree>

0800d9c4 <setup>:
 800d9c4:	e92d 4ff0 	stmdb	sp!, {r4, r5, r6, r7, r8, r9, sl, fp, lr}
 800d9c8:	f44f 7040 	mov.w	r0, #768	; 0x300
 800d9cc:	b08b      	sub	sp, #44	; 0x2c
 800d9ce:	f001 ff45 	bl	800f85c <NVIC_PriorityGroupConfig>
 800d9d2:	f44f 5160 	mov.w	r1, #14336	; 0x3800
 800d9d6:	f2c4 0102 	movt	r1, #16386	; 0x4002
 800d9da:	4bc5      	ldr	r3, [pc, #788]	; (800dcf0 <setup+0x32c>)
 800d9dc:	6b08      	ldr	r0, [r1, #48]	; 0x30
 800d9de:	4cc5      	ldr	r4, [pc, #788]	; (800dcf4 <setup+0x330>)
 800d9e0:	1d1a      	adds	r2, r3, #4
 800d9e2:	f040 0501 	orr.w	r5, r0, #1
 800d9e6:	630d      	str	r5, [r1, #48]	; 0x30
 800d9e8:	f852 6b04 	ldr.w	r6, [r2], #4
 800d9ec:	68df      	ldr	r7, [r3, #12]
 800d9ee:	6810      	ldr	r0, [r2, #0]
 800d9f0:	695d      	ldr	r5, [r3, #20]
 800d9f2:	9002      	str	r0, [sp, #8]
 800d9f4:	9601      	str	r6, [sp, #4]
 800d9f6:	691a      	ldr	r2, [r3, #16]
 800d9f8:	699e      	ldr	r6, [r3, #24]
 800d9fa:	9802      	ldr	r0, [sp, #8]
 800d9fc:	9703      	str	r7, [sp, #12]
 800d9fe:	9505      	str	r5, [sp, #20]
 800da00:	9d01      	ldr	r5, [sp, #4]
 800da02:	9204      	str	r2, [sp, #16]
 800da04:	9606      	str	r6, [sp, #24]
 800da06:	2203      	movs	r2, #3
 800da08:	69df      	ldr	r7, [r3, #28]
 800da0a:	9e03      	ldr	r6, [sp, #12]
 800da0c:	6a1b      	ldr	r3, [r3, #32]
 800da0e:	9707      	str	r7, [sp, #28]
 800da10:	ea4f 0940 	mov.w	r9, r0, lsl #1
 800da14:	fa02 fa09 	lsl.w	sl, r2, r9
 800da18:	ea4f 0b45 	mov.w	fp, r5, lsl #1
 800da1c:	9308      	str	r3, [sp, #32]
 800da1e:	ea6f 000a 	mvn.w	r0, sl
 800da22:	fa02 f30b 	lsl.w	r3, r2, fp
 800da26:	ea4f 0c46 	mov.w	ip, r6, lsl #1
 800da2a:	9f04      	ldr	r7, [sp, #16]
 800da2c:	ea20 0503 	bic.w	r5, r0, r3
 800da30:	fa02 f60c 	lsl.w	r6, r2, ip
 800da34:	9b05      	ldr	r3, [sp, #20]
 800da36:	ea25 0806 	bic.w	r8, r5, r6
 800da3a:	9d06      	ldr	r5, [sp, #24]
 800da3c:	ea4f 0e47 	mov.w	lr, r7, lsl #1
 800da40:	005f      	lsls	r7, r3, #1
 800da42:	2301      	movs	r3, #1
 800da44:	fa05 f603 	lsl.w	r6, r5, r3
 800da48:	9d07      	ldr	r5, [sp, #28]
 800da4a:	409d      	lsls	r5, r3
 800da4c:	9500      	str	r5, [sp, #0]
 800da4e:	9d08      	ldr	r5, [sp, #32]
 800da50:	409d      	lsls	r5, r3
 800da52:	9509      	str	r5, [sp, #36]	; 0x24
 800da54:	9d00      	ldr	r5, [sp, #0]
 800da56:	fa02 f00e 	lsl.w	r0, r2, lr
 800da5a:	fa03 f909 	lsl.w	r9, r3, r9
 800da5e:	fa03 fb0b 	lsl.w	fp, r3, fp
 800da62:	ea28 0a00 	bic.w	sl, r8, r0
 800da66:	ea4b 0b09 	orr.w	fp, fp, r9
 800da6a:	fa02 f807 	lsl.w	r8, r2, r7
 800da6e:	fa02 f905 	lsl.w	r9, r2, r5
 800da72:	2000      	movs	r0, #0
 800da74:	9d09      	ldr	r5, [sp, #36]	; 0x24
 800da76:	f2c4 0002 	movt	r0, #16386	; 0x4002
 800da7a:	ea2a 0a08 	bic.w	sl, sl, r8
 800da7e:	fa03 fc0c 	lsl.w	ip, r3, ip
 800da82:	fa02 f806 	lsl.w	r8, r2, r6
 800da86:	ea4b 0c0c 	orr.w	ip, fp, ip
 800da8a:	ea2a 0a08 	bic.w	sl, sl, r8
 800da8e:	fa02 fb05 	lsl.w	fp, r2, r5
 800da92:	9d02      	ldr	r5, [sp, #8]
 800da94:	f8d0 8000 	ldr.w	r8, [r0]
 800da98:	fa03 fe0e 	lsl.w	lr, r3, lr
 800da9c:	ea2a 0a09 	bic.w	sl, sl, r9
 800daa0:	fa03 f707 	lsl.w	r7, r3, r7
 800daa4:	fa03 f905 	lsl.w	r9, r3, r5
 800daa8:	ea2a 0a0b 	bic.w	sl, sl, fp
 800daac:	9d01      	ldr	r5, [sp, #4]
 800daae:	ea4c 0e0e 	orr.w	lr, ip, lr
 800dab2:	ea4e 0e07 	orr.w	lr, lr, r7
 800dab6:	fa03 f606 	lsl.w	r6, r3, r6
 800daba:	ea0a 0708 	and.w	r7, sl, r8
 800dabe:	6007      	str	r7, [r0, #0]
 800dac0:	fa03 fc05 	lsl.w	ip, r3, r5
 800dac4:	ea4e 0a06 	orr.w	sl, lr, r6
 800dac8:	9d03      	ldr	r5, [sp, #12]
 800daca:	9e00      	ldr	r6, [sp, #0]
 800dacc:	6807      	ldr	r7, [r0, #0]
 800dace:	ea6f 0b09 	mvn.w	fp, r9
 800dad2:	fa03 f905 	lsl.w	r9, r3, r5
 800dad6:	fa03 f506 	lsl.w	r5, r3, r6
 800dada:	ea4a 0e05 	orr.w	lr, sl, r5
 800dade:	9e04      	ldr	r6, [sp, #16]
 800dae0:	9d09      	ldr	r5, [sp, #36]	; 0x24
 800dae2:	ea2b 080c 	bic.w	r8, fp, ip
 800dae6:	fa03 f505 	lsl.w	r5, r3, r5
 800daea:	fa03 fc06 	lsl.w	ip, r3, r6
 800daee:	9e05      	ldr	r6, [sp, #20]
 800daf0:	ea4e 0a05 	orr.w	sl, lr, r5
 800daf4:	ea28 0b09 	bic.w	fp, r8, r9
 800daf8:	9d06      	ldr	r5, [sp, #24]
 800dafa:	fa03 f906 	lsl.w	r9, r3, r6
 800dafe:	ea2b 080c 	bic.w	r8, fp, ip
 800db02:	ea28 0b09 	bic.w	fp, r8, r9
 800db06:	fa03 f605 	lsl.w	r6, r3, r5
 800db0a:	ea2b 0506 	bic.w	r5, fp, r6
 800db0e:	9e07      	ldr	r6, [sp, #28]
 800db10:	ea4a 0707 	orr.w	r7, sl, r7
 800db14:	6007      	str	r7, [r0, #0]
 800db16:	fa03 f706 	lsl.w	r7, r3, r6
 800db1a:	ea25 0c07 	bic.w	ip, r5, r7
 800db1e:	9d08      	ldr	r5, [sp, #32]
 800db20:	6946      	ldr	r6, [r0, #20]
 800db22:	fa03 f705 	lsl.w	r7, r3, r5
 800db26:	ea2c 0507 	bic.w	r5, ip, r7
 800db2a:	4035      	ands	r5, r6
 800db2c:	6145      	str	r5, [r0, #20]
 800db2e:	6b0e      	ldr	r6, [r1, #48]	; 0x30
 800db30:	1d20      	adds	r0, r4, #4
 800db32:	f046 0702 	orr.w	r7, r6, #2
 800db36:	630f      	str	r7, [r1, #48]	; 0x30
 800db38:	f850 5b04 	ldr.w	r5, [r0], #4
 800db3c:	6927      	ldr	r7, [r4, #16]
 800db3e:	6800      	ldr	r0, [r0, #0]
 800db40:	9501      	str	r5, [sp, #4]
 800db42:	9002      	str	r0, [sp, #8]
 800db44:	68e6      	ldr	r6, [r4, #12]
 800db46:	9802      	ldr	r0, [sp, #8]
 800db48:	9704      	str	r7, [sp, #16]
 800db4a:	6965      	ldr	r5, [r4, #20]
 800db4c:	9f01      	ldr	r7, [sp, #4]
 800db4e:	9603      	str	r6, [sp, #12]
 800db50:	fa00 f903 	lsl.w	r9, r0, r3
 800db54:	69a6      	ldr	r6, [r4, #24]
 800db56:	69e4      	ldr	r4, [r4, #28]
 800db58:	9505      	str	r5, [sp, #20]
 800db5a:	fa07 fa03 	lsl.w	sl, r7, r3
 800db5e:	fa02 f809 	lsl.w	r8, r2, r9
 800db62:	9d03      	ldr	r5, [sp, #12]
 800db64:	9606      	str	r6, [sp, #24]
 800db66:	9407      	str	r4, [sp, #28]
 800db68:	fa02 f60a 	lsl.w	r6, r2, sl
 800db6c:	9804      	ldr	r0, [sp, #16]
 800db6e:	ea6f 0408 	mvn.w	r4, r8
 800db72:	ea24 0b06 	bic.w	fp, r4, r6
 800db76:	fa05 fe03 	lsl.w	lr, r5, r3
 800db7a:	9c06      	ldr	r4, [sp, #24]
 800db7c:	9e05      	ldr	r6, [sp, #20]
 800db7e:	fa00 f703 	lsl.w	r7, r0, r3
 800db82:	fa02 f50e 	lsl.w	r5, r2, lr
 800db86:	fa02 fc07 	lsl.w	ip, r2, r7
 800db8a:	fa06 f603 	lsl.w	r6, r6, r3
 800db8e:	ea2b 0805 	bic.w	r8, fp, r5
 800db92:	fa04 f503 	lsl.w	r5, r4, r3
 800db96:	9c07      	ldr	r4, [sp, #28]
 800db98:	ea28 080c 	bic.w	r8, r8, ip
 800db9c:	fa02 fc06 	lsl.w	ip, r2, r6
 800dba0:	409c      	lsls	r4, r3
 800dba2:	fa03 fb0a 	lsl.w	fp, r3, sl
 800dba6:	ea28 080c 	bic.w	r8, r8, ip
 800dbaa:	fa03 fa09 	lsl.w	sl, r3, r9
 800dbae:	fa02 f905 	lsl.w	r9, r2, r5
 800dbb2:	9408      	str	r4, [sp, #32]
 800dbb4:	ea28 0809 	bic.w	r8, r8, r9
 800dbb8:	fa02 f404 	lsl.w	r4, r2, r4
 800dbbc:	f44f 6080 	mov.w	r0, #1024	; 0x400
 800dbc0:	f2c4 0002 	movt	r0, #16386	; 0x4002
 800dbc4:	ea28 0904 	bic.w	r9, r8, r4
 800dbc8:	fa03 fe0e 	lsl.w	lr, r3, lr
 800dbcc:	9c02      	ldr	r4, [sp, #8]
 800dbce:	f8d0 c000 	ldr.w	ip, [r0]
 800dbd2:	ea4b 0b0a 	orr.w	fp, fp, sl
 800dbd6:	ea4b 0a0e 	orr.w	sl, fp, lr
 800dbda:	fa03 f707 	lsl.w	r7, r3, r7
 800dbde:	fa03 fb04 	lsl.w	fp, r3, r4
 800dbe2:	ea4a 0e07 	orr.w	lr, sl, r7
 800dbe6:	9c01      	ldr	r4, [sp, #4]
 800dbe8:	fa03 f606 	lsl.w	r6, r3, r6
 800dbec:	ea4e 0a06 	orr.w	sl, lr, r6
 800dbf0:	fa03 f505 	lsl.w	r5, r3, r5
 800dbf4:	9e03      	ldr	r6, [sp, #12]
 800dbf6:	ea09 070c 	and.w	r7, r9, ip
 800dbfa:	ea4a 0e05 	orr.w	lr, sl, r5
 800dbfe:	fa03 fc04 	lsl.w	ip, r3, r4
 800dc02:	9d08      	ldr	r5, [sp, #32]
 800dc04:	6007      	str	r7, [r0, #0]
 800dc06:	ea6f 080b 	mvn.w	r8, fp
 800dc0a:	ea28 090c 	bic.w	r9, r8, ip
 800dc0e:	fa03 f406 	lsl.w	r4, r3, r6
 800dc12:	6807      	ldr	r7, [r0, #0]
 800dc14:	ea29 0b04 	bic.w	fp, r9, r4
 800dc18:	fa03 f605 	lsl.w	r6, r3, r5
 800dc1c:	9c04      	ldr	r4, [sp, #16]
 800dc1e:	ea4e 0506 	orr.w	r5, lr, r6
 800dc22:	9e05      	ldr	r6, [sp, #20]
 800dc24:	fa03 fc04 	lsl.w	ip, r3, r4
 800dc28:	432f      	orrs	r7, r5
 800dc2a:	9d06      	ldr	r5, [sp, #24]
 800dc2c:	6007      	str	r7, [r0, #0]
 800dc2e:	ea2b 080c 	bic.w	r8, fp, ip
 800dc32:	9f07      	ldr	r7, [sp, #28]
 800dc34:	fa03 f406 	lsl.w	r4, r3, r6
 800dc38:	ea28 0404 	bic.w	r4, r8, r4
 800dc3c:	fa03 f605 	lsl.w	r6, r3, r5
 800dc40:	ea24 0406 	bic.w	r4, r4, r6
 800dc44:	6945      	ldr	r5, [r0, #20]
 800dc46:	fa03 f607 	lsl.w	r6, r3, r7
 800dc4a:	ea24 0406 	bic.w	r4, r4, r6
 800dc4e:	402c      	ands	r4, r5
 800dc50:	6144      	str	r4, [r0, #20]
 800dc52:	6b0c      	ldr	r4, [r1, #48]	; 0x30
 800dc54:	4828      	ldr	r0, [pc, #160]	; (800dcf8 <setup+0x334>)
 800dc56:	4e28      	ldr	r6, [pc, #160]	; (800dcf8 <setup+0x334>)
 800dc58:	1d05      	adds	r5, r0, #4
 800dc5a:	f044 0704 	orr.w	r7, r4, #4
 800dc5e:	630f      	str	r7, [r1, #48]	; 0x30
 800dc60:	f855 1b04 	ldr.w	r1, [r5], #4
 800dc64:	68f4      	ldr	r4, [r6, #12]
 800dc66:	4824      	ldr	r0, [pc, #144]	; (800dcf8 <setup+0x334>)
 800dc68:	4e23      	ldr	r6, [pc, #140]	; (800dcf8 <setup+0x334>)
 800dc6a:	9401      	str	r4, [sp, #4]
 800dc6c:	f8d5 c000 	ldr.w	ip, [r5]
 800dc70:	69b4      	ldr	r4, [r6, #24]
 800dc72:	6905      	ldr	r5, [r0, #16]
 800dc74:	4f20      	ldr	r7, [pc, #128]	; (800dcf8 <setup+0x334>)
 800dc76:	4820      	ldr	r0, [pc, #128]	; (800dcf8 <setup+0x334>)
 800dc78:	4e1f      	ldr	r6, [pc, #124]	; (800dcf8 <setup+0x334>)
 800dc7a:	9108      	str	r1, [sp, #32]
 800dc7c:	9502      	str	r5, [sp, #8]
 800dc7e:	6979      	ldr	r1, [r7, #20]
 800dc80:	9404      	str	r4, [sp, #16]
 800dc82:	69c5      	ldr	r5, [r0, #28]
 800dc84:	6a74      	ldr	r4, [r6, #36]	; 0x24
 800dc86:	4f1c      	ldr	r7, [pc, #112]	; (800dcf8 <setup+0x334>)
 800dc88:	9808      	ldr	r0, [sp, #32]
 800dc8a:	9103      	str	r1, [sp, #12]
 800dc8c:	9505      	str	r5, [sp, #20]
 800dc8e:	6a39      	ldr	r1, [r7, #32]
 800dc90:	9407      	str	r4, [sp, #28]
 800dc92:	9d01      	ldr	r5, [sp, #4]
 800dc94:	9f02      	ldr	r7, [sp, #8]
 800dc96:	9106      	str	r1, [sp, #24]
 800dc98:	fa0c f403 	lsl.w	r4, ip, r3
 800dc9c:	fa00 fa03 	lsl.w	sl, r0, r3
 800dca0:	fa02 f904 	lsl.w	r9, r2, r4
 800dca4:	fa05 fb03 	lsl.w	fp, r5, r3
 800dca8:	fa02 f10a 	lsl.w	r1, r2, sl
 800dcac:	9d03      	ldr	r5, [sp, #12]
 800dcae:	ea6f 0e09 	mvn.w	lr, r9
 800dcb2:	fa07 f003 	lsl.w	r0, r7, r3
 800dcb6:	ea2e 0801 	bic.w	r8, lr, r1
 800dcba:	fa02 f60b 	lsl.w	r6, r2, fp
 800dcbe:	9f04      	ldr	r7, [sp, #16]
 800dcc0:	fa05 fe03 	lsl.w	lr, r5, r3
 800dcc4:	fa02 f100 	lsl.w	r1, r2, r0
 800dcc8:	ea28 0906 	bic.w	r9, r8, r6
 800dccc:	fa03 f404 	lsl.w	r4, r3, r4
 800dcd0:	9d05      	ldr	r5, [sp, #20]
 800dcd2:	fa03 fa0a 	lsl.w	sl, r3, sl
 800dcd6:	fa07 f603 	lsl.w	r6, r7, r3
 800dcda:	ea29 0801 	bic.w	r8, r9, r1
 800dcde:	fa02 f70e 	lsl.w	r7, r2, lr
 800dce2:	fa03 fb0b 	lsl.w	fp, r3, fp
 800dce6:	ea4a 0a04 	orr.w	sl, sl, r4
 800dcea:	9c06      	ldr	r4, [sp, #24]
 800dcec:	e006      	b.n	800dcfc <setup+0x338>
 800dcee:	bf00      	nop
 800dcf0:	08014e18 	.word	0x08014e18
 800dcf4:	08014e38 	.word	0x08014e38
 800dcf8:	08014df4 	.word	0x08014df4
 800dcfc:	fa02 f906 	lsl.w	r9, r2, r6
 800dd00:	fa05 f503 	lsl.w	r5, r5, r3
 800dd04:	ea28 0807 	bic.w	r8, r8, r7
 800dd08:	ea4a 0a0b 	orr.w	sl, sl, fp
 800dd0c:	9f08      	ldr	r7, [sp, #32]
 800dd0e:	fa03 fb00 	lsl.w	fp, r3, r0
 800dd12:	f44f 6100 	mov.w	r1, #2048	; 0x800
 800dd16:	9807      	ldr	r0, [sp, #28]
 800dd18:	f2c4 0102 	movt	r1, #16386	; 0x4002
 800dd1c:	fa04 f403 	lsl.w	r4, r4, r3
 800dd20:	ea28 0809 	bic.w	r8, r8, r9
 800dd24:	fa02 f905 	lsl.w	r9, r2, r5
 800dd28:	fa00 f003 	lsl.w	r0, r0, r3
 800dd2c:	fa03 f707 	lsl.w	r7, r3, r7
 800dd30:	ea4a 0a0b 	orr.w	sl, sl, fp
 800dd34:	ea28 0809 	bic.w	r8, r8, r9
 800dd38:	fa03 fb0e 	lsl.w	fp, r3, lr
 800dd3c:	fa02 f904 	lsl.w	r9, r2, r4
 800dd40:	f8d1 e000 	ldr.w	lr, [r1]
 800dd44:	9708      	str	r7, [sp, #32]
 800dd46:	fa03 f606 	lsl.w	r6, r3, r6
 800dd4a:	fa03 fc0c 	lsl.w	ip, r3, ip
 800dd4e:	ea4a 0a0b 	orr.w	sl, sl, fp
 800dd52:	ea28 0809 	bic.w	r8, r8, r9
 800dd56:	fa02 f900 	lsl.w	r9, r2, r0
 800dd5a:	9a01      	ldr	r2, [sp, #4]
 800dd5c:	ea6f 0c0c 	mvn.w	ip, ip
 800dd60:	ea4a 0a06 	orr.w	sl, sl, r6
 800dd64:	9e02      	ldr	r6, [sp, #8]
 800dd66:	ea2c 0707 	bic.w	r7, ip, r7
 800dd6a:	fa03 fc02 	lsl.w	ip, r3, r2
 800dd6e:	fa03 f505 	lsl.w	r5, r3, r5
 800dd72:	ea27 070c 	bic.w	r7, r7, ip
 800dd76:	fa03 fc06 	lsl.w	ip, r3, r6
 800dd7a:	fa03 f404 	lsl.w	r4, r3, r4
 800dd7e:	ea28 0809 	bic.w	r8, r8, r9
 800dd82:	ea4a 0a05 	orr.w	sl, sl, r5
 800dd86:	ea27 050c 	bic.w	r5, r7, ip
 800dd8a:	9f03      	ldr	r7, [sp, #12]
 800dd8c:	ea08 020e 	and.w	r2, r8, lr
 800dd90:	ea4a 0a04 	orr.w	sl, sl, r4
 800dd94:	9c04      	ldr	r4, [sp, #16]
 800dd96:	600a      	str	r2, [r1, #0]
 800dd98:	fa03 fe07 	lsl.w	lr, r3, r7
 800dd9c:	680e      	ldr	r6, [r1, #0]
 800dd9e:	ea25 050e 	bic.w	r5, r5, lr
 800dda2:	fa03 f000 	lsl.w	r0, r3, r0
 800dda6:	fa03 f704 	lsl.w	r7, r3, r4
 800ddaa:	ea25 0407 	bic.w	r4, r5, r7
 800ddae:	ea4a 0200 	orr.w	r2, sl, r0
 800ddb2:	9d05      	ldr	r5, [sp, #20]
 800ddb4:	9f07      	ldr	r7, [sp, #28]
 800ddb6:	4332      	orrs	r2, r6
 800ddb8:	9e06      	ldr	r6, [sp, #24]
 800ddba:	600a      	str	r2, [r1, #0]
 800ddbc:	fa03 f005 	lsl.w	r0, r3, r5
 800ddc0:	ea24 0000 	bic.w	r0, r4, r0
 800ddc4:	fa03 f406 	lsl.w	r4, r3, r6
 800ddc8:	694a      	ldr	r2, [r1, #20]
 800ddca:	ea20 0004 	bic.w	r0, r0, r4
 800ddce:	fa03 f307 	lsl.w	r3, r3, r7
 800ddd2:	ea20 0303 	bic.w	r3, r0, r3
 800ddd6:	4013      	ands	r3, r2
 800ddd8:	614b      	str	r3, [r1, #20]
 800ddda:	f7ff fbf3 	bl	800d5c4 <_Z10setup_ledsv>
 800ddde:	b00b      	add	sp, #44	; 0x2c
 800dde0:	e8bd 4ff0 	ldmia.w	sp!, {r4, r5, r6, r7, r8, r9, sl, fp, lr}
 800dde4:	f7fe bfd6 	b.w	800cd94 <_Z11video_setupv>

0800dde8 <vApplicationIdleHook>:
 800dde8:	4770      	bx	lr
 800ddea:	bf00      	nop

0800ddec <vApplicationTickHook>:
 800ddec:	4770      	bx	lr
 800ddee:	bf00      	nop

0800ddf0 <vApplicationMallocFailedHook>:
 800ddf0:	b508      	push	{r3, lr}
 800ddf2:	f006 f84d 	bl	8013e90 <ulPortSetInterruptMask>
 800ddf6:	e7fe      	b.n	800ddf6 <vApplicationMallocFailedHook+0x6>

0800ddf8 <vApplicationStackOverflowHook>:
 800ddf8:	b508      	push	{r3, lr}
 800ddfa:	f006 f849 	bl	8013e90 <ulPortSetInterruptMask>
 800ddfe:	e7fe      	b.n	800ddfe <vApplicationStackOverflowHook+0x6>

0800de00 <USART1_IRQHandler>:
 800de00:	4668      	mov	r0, sp
 800de02:	f020 0107 	bic.w	r1, r0, #7
 800de06:	468d      	mov	sp, r1
 800de08:	b511      	push	{r0, r4, lr}
 800de0a:	2214      	movs	r2, #20
 800de0c:	b083      	sub	sp, #12
 800de0e:	2300      	movs	r3, #0
 800de10:	f2c4 2222 	movt	r2, #16930	; 0x4222
 800de14:	9301      	str	r3, [sp, #4]
 800de16:	6810      	ldr	r0, [r2, #0]
 800de18:	b1d0      	cbz	r0, 800de50 <USART1_IRQHandler+0x50>
 800de1a:	f44f 5080 	mov.w	r0, #4096	; 0x1000
 800de1e:	f2c4 0001 	movt	r0, #16385	; 0x4001
 800de22:	a902      	add	r1, sp, #8
 800de24:	8882      	ldrh	r2, [r0, #4]
 800de26:	481c      	ldr	r0, [pc, #112]	; (800de98 <USART1_IRQHandler+0x98>)
 800de28:	f801 2d05 	strb.w	r2, [r1, #-5]!
 800de2c:	6800      	ldr	r0, [r0, #0]
 800de2e:	aa01      	add	r2, sp, #4
 800de30:	f001 f8b6 	bl	800efa0 <xQueueGenericSendFromISR>
 800de34:	9b01      	ldr	r3, [sp, #4]
 800de36:	b133      	cbz	r3, 800de46 <USART1_IRQHandler+0x46>
 800de38:	f64e 5104 	movw	r1, #60676	; 0xed04
 800de3c:	f2ce 0100 	movt	r1, #57344	; 0xe000
 800de40:	f04f 5280 	mov.w	r2, #268435456	; 0x10000000
 800de44:	600a      	str	r2, [r1, #0]
 800de46:	b003      	add	sp, #12
 800de48:	e8bd 4011 	ldmia.w	sp!, {r0, r4, lr}
 800de4c:	4685      	mov	sp, r0
 800de4e:	4770      	bx	lr
 800de50:	4c12      	ldr	r4, [pc, #72]	; (800de9c <USART1_IRQHandler+0x9c>)
 800de52:	6820      	ldr	r0, [r4, #0]
 800de54:	f001 fa82 	bl	800f35c <xQueueIsQueueEmptyFromISR>
 800de58:	b158      	cbz	r0, 800de72 <USART1_IRQHandler+0x72>
 800de5a:	6820      	ldr	r0, [r4, #0]
 800de5c:	f001 fa7e 	bl	800f35c <xQueueIsQueueEmptyFromISR>
 800de60:	2800      	cmp	r0, #0
 800de62:	d0e7      	beq.n	800de34 <USART1_IRQHandler+0x34>
 800de64:	f44f 70ce 	mov.w	r0, #412	; 0x19c
 800de68:	f2c4 2022 	movt	r0, #16930	; 0x4222
 800de6c:	2200      	movs	r2, #0
 800de6e:	6002      	str	r2, [r0, #0]
 800de70:	e7e0      	b.n	800de34 <USART1_IRQHandler+0x34>
 800de72:	f10d 0103 	add.w	r1, sp, #3
 800de76:	6820      	ldr	r0, [r4, #0]
 800de78:	aa01      	add	r2, sp, #4
 800de7a:	f001 fa35 	bl	800f2e8 <xQueueReceiveFromISR>
 800de7e:	f44f 5380 	mov.w	r3, #4096	; 0x1000
 800de82:	f89d 1003 	ldrb.w	r1, [sp, #3]
 800de86:	6820      	ldr	r0, [r4, #0]
 800de88:	f2c4 0301 	movt	r3, #16385	; 0x4001
 800de8c:	8099      	strh	r1, [r3, #4]
 800de8e:	f001 fa65 	bl	800f35c <xQueueIsQueueEmptyFromISR>
 800de92:	2800      	cmp	r0, #0
 800de94:	d0ce      	beq.n	800de34 <USART1_IRQHandler+0x34>
 800de96:	e7e5      	b.n	800de64 <USART1_IRQHandler+0x64>
 800de98:	1000090c 	.word	0x1000090c
 800de9c:	10000910 	.word	0x10000910

0800dea0 <_Z24create_tracker_mode_taskv>:
 800dea0:	b510      	push	{r4, lr}
 800dea2:	2101      	movs	r1, #1
 800dea4:	b084      	sub	sp, #16
 800dea6:	2200      	movs	r2, #0
 800dea8:	2064      	movs	r0, #100	; 0x64
 800deaa:	f000 fecd 	bl	800ec48 <xQueueGenericCreate>
 800deae:	f640 130c 	movw	r3, #2316	; 0x90c
 800deb2:	f2c1 0300 	movt	r3, #4096	; 0x1000
 800deb6:	2101      	movs	r1, #1
 800deb8:	6018      	str	r0, [r3, #0]
 800deba:	2200      	movs	r2, #0
 800debc:	2064      	movs	r0, #100	; 0x64
 800debe:	f000 fec3 	bl	800ec48 <xQueueGenericCreate>
 800dec2:	f44f 5260 	mov.w	r2, #14336	; 0x3800
 800dec6:	f2c4 0202 	movt	r2, #16386	; 0x4002
 800deca:	f640 1410 	movw	r4, #2320	; 0x910
 800dece:	6c51      	ldr	r1, [r2, #68]	; 0x44
 800ded0:	f2c1 0400 	movt	r4, #4096	; 0x1000
 800ded4:	f041 0310 	orr.w	r3, r1, #16
 800ded8:	6020      	str	r0, [r4, #0]
 800deda:	6453      	str	r3, [r2, #68]	; 0x44
 800dedc:	6b10      	ldr	r0, [r2, #48]	; 0x30
 800dede:	2400      	movs	r4, #0
 800dee0:	f2c4 0402 	movt	r4, #16386	; 0x4002
 800dee4:	f040 0101 	orr.w	r1, r0, #1
 800dee8:	6311      	str	r1, [r2, #48]	; 0x30
 800deea:	6823      	ldr	r3, [r4, #0]
 800deec:	f423 2040 	bic.w	r0, r3, #786432	; 0xc0000
 800def0:	f440 2100 	orr.w	r1, r0, #524288	; 0x80000
 800def4:	6021      	str	r1, [r4, #0]
 800def6:	6863      	ldr	r3, [r4, #4]
 800def8:	f423 7000 	bic.w	r0, r3, #512	; 0x200
 800defc:	6060      	str	r0, [r4, #4]
 800defe:	68a1      	ldr	r1, [r4, #8]
 800df00:	f421 2340 	bic.w	r3, r1, #786432	; 0xc0000
 800df04:	60a3      	str	r3, [r4, #8]
 800df06:	68e0      	ldr	r0, [r4, #12]
 800df08:	f420 2140 	bic.w	r1, r0, #786432	; 0xc0000
 800df0c:	60e1      	str	r1, [r4, #12]
 800df0e:	6a63      	ldr	r3, [r4, #36]	; 0x24
 800df10:	f023 00f0 	bic.w	r0, r3, #240	; 0xf0
 800df14:	f040 0170 	orr.w	r1, r0, #112	; 0x70
 800df18:	6261      	str	r1, [r4, #36]	; 0x24
 800df1a:	6b13      	ldr	r3, [r2, #48]	; 0x30
 800df1c:	f043 0001 	orr.w	r0, r3, #1
 800df20:	6310      	str	r0, [r2, #48]	; 0x30
 800df22:	6822      	ldr	r2, [r4, #0]
 800df24:	f422 1140 	bic.w	r1, r2, #3145728	; 0x300000
 800df28:	f441 1300 	orr.w	r3, r1, #2097152	; 0x200000
 800df2c:	6023      	str	r3, [r4, #0]
 800df2e:	68a0      	ldr	r0, [r4, #8]
 800df30:	f420 1240 	bic.w	r2, r0, #3145728	; 0x300000
 800df34:	60a2      	str	r2, [r4, #8]
 800df36:	68e1      	ldr	r1, [r4, #12]
 800df38:	f421 1340 	bic.w	r3, r1, #3145728	; 0x300000
 800df3c:	f443 1080 	orr.w	r0, r3, #1048576	; 0x100000
 800df40:	60e0      	str	r0, [r4, #12]
 800df42:	6a61      	ldr	r1, [r4, #36]	; 0x24
 800df44:	f44f 5280 	mov.w	r2, #4096	; 0x1000
 800df48:	f421 6370 	bic.w	r3, r1, #3840	; 0xf00
 800df4c:	f2c4 0201 	movt	r2, #16385	; 0x4001
 800df50:	f443 60e0 	orr.w	r0, r3, #1792	; 0x700
 800df54:	6260      	str	r0, [r4, #36]	; 0x24
 800df56:	f242 242e 	movw	r4, #8750	; 0x222e
 800df5a:	6094      	str	r4, [r2, #8]
 800df5c:	68d1      	ldr	r1, [r2, #12]
 800df5e:	f421 4315 	bic.w	r3, r1, #38144	; 0x9500
 800df62:	f023 00fc 	bic.w	r0, r3, #252	; 0xfc
 800df66:	f040 040c 	orr.w	r4, r0, #12
 800df6a:	60d4      	str	r4, [r2, #12]
 800df6c:	6911      	ldr	r1, [r2, #16]
 800df6e:	f421 5361 	bic.w	r3, r1, #14400	; 0x3840
 800df72:	6113      	str	r3, [r2, #16]
 800df74:	6950      	ldr	r0, [r2, #20]
 800df76:	f44f 4361 	mov.w	r3, #57600	; 0xe100
 800df7a:	f420 61e0 	bic.w	r1, r0, #1792	; 0x700
 800df7e:	f2ce 0300 	movt	r3, #57344	; 0xe000
 800df82:	f021 0001 	bic.w	r0, r1, #1
 800df86:	6150      	str	r0, [r2, #20]
 800df88:	22f0      	movs	r2, #240	; 0xf0
 800df8a:	f883 2325 	strb.w	r2, [r3, #805]	; 0x325
 800df8e:	2220      	movs	r2, #32
 800df90:	605a      	str	r2, [r3, #4]
 800df92:	2301      	movs	r3, #1
 800df94:	9300      	str	r3, [sp, #0]
 800df96:	f640 1318 	movw	r3, #2328	; 0x918
 800df9a:	f2c1 0300 	movt	r3, #4096	; 0x1000
 800df9e:	2400      	movs	r4, #0
 800dfa0:	9301      	str	r3, [sp, #4]
 800dfa2:	f24e 0091 	movw	r0, #57489	; 0xe091
 800dfa6:	f644 6158 	movw	r1, #20056	; 0x4e58
 800dfaa:	f640 1314 	movw	r3, #2324	; 0x914
 800dfae:	f6c0 0101 	movt	r1, #2049	; 0x801
 800dfb2:	f241 3288 	movw	r2, #5000	; 0x1388
 800dfb6:	9402      	str	r4, [sp, #8]
 800dfb8:	9403      	str	r4, [sp, #12]
 800dfba:	f2c1 0300 	movt	r3, #4096	; 0x1000
 800dfbe:	f6c0 0000 	movt	r0, #2048	; 0x800
 800dfc2:	f000 f905 	bl	800e1d0 <xTaskGenericCreate>
 800dfc6:	b004      	add	sp, #16
 800dfc8:	bd10      	pop	{r4, pc}
 800dfca:	bf00      	nop

0800dfcc <_ZN4quan5stm328freertos16usart_tx_rx_taskINS0_5usart6moduleILm1073811456EEELm100ELm100ENS_3mcu3pinINS0_4gpio6moduleILm1073872896EEELm9EEENS7_ISA_Lm10EEEcE5writeEPKc>:
 800dfcc:	e92d 43f0 	stmdb	sp!, {r4, r5, r6, r7, r8, r9, lr}
 800dfd0:	b083      	sub	sp, #12
 800dfd2:	4605      	mov	r5, r0
 800dfd4:	f006 fd5e 	bl	8014a94 <strlen>
 800dfd8:	4603      	mov	r3, r0
 800dfda:	2800      	cmp	r0, #0
 800dfdc:	d052      	beq.n	800e084 <_ZN4quan5stm328freertos16usart_tx_rx_taskINS0_5usart6moduleILm1073811456EEELm100ELm100ENS_3mcu3pinINS0_4gpio6moduleILm1073872896EEELm9EEENS7_ISA_Lm10EEEcE5writeEPKc+0xb8>
 800dfde:	462c      	mov	r4, r5
 800dfe0:	f8df 80a8 	ldr.w	r8, [pc, #168]	; 800e08c <_ZN4quan5stm328freertos16usart_tx_rx_taskINS0_5usart6moduleILm1073811456EEELm100ELm100ENS_3mcu3pinINS0_4gpio6moduleILm1073872896EEELm9EEENS7_ISA_Lm10EEEcE5writeEPKc+0xc0>
 800dfe4:	f814 2b01 	ldrb.w	r2, [r4], #1
 800dfe8:	f8d8 0000 	ldr.w	r0, [r8]
 800dfec:	f88d 2007 	strb.w	r2, [sp, #7]
 800dff0:	eb05 0903 	add.w	r9, r5, r3
 800dff4:	43ed      	mvns	r5, r5
 800dff6:	eb05 0709 	add.w	r7, r5, r9
 800dffa:	f10d 0107 	add.w	r1, sp, #7
 800dffe:	f04f 32ff 	mov.w	r2, #4294967295
 800e002:	2300      	movs	r3, #0
 800e004:	f44f 76ce 	mov.w	r6, #412	; 0x19c
 800e008:	f007 0501 	and.w	r5, r7, #1
 800e00c:	f000 fe58 	bl	800ecc0 <xQueueGenericSend>
 800e010:	f2c4 2622 	movt	r6, #16930	; 0x4222
 800e014:	2701      	movs	r7, #1
 800e016:	bf00      	nop
 800e018:	454c      	cmp	r4, r9
 800e01a:	6037      	str	r7, [r6, #0]
 800e01c:	d032      	beq.n	800e084 <_ZN4quan5stm328freertos16usart_tx_rx_taskINS0_5usart6moduleILm1073811456EEELm100ELm100ENS_3mcu3pinINS0_4gpio6moduleILm1073872896EEELm9EEENS7_ISA_Lm10EEEcE5writeEPKc+0xb8>
 800e01e:	b185      	cbz	r5, 800e042 <_ZN4quan5stm328freertos16usart_tx_rx_taskINS0_5usart6moduleILm1073811456EEELm100ELm100ENS_3mcu3pinINS0_4gpio6moduleILm1073872896EEELm9EEENS7_ISA_Lm10EEEcE5writeEPKc+0x76>
 800e020:	f814 1b01 	ldrb.w	r1, [r4], #1
 800e024:	f8d8 0000 	ldr.w	r0, [r8]
 800e028:	f88d 1007 	strb.w	r1, [sp, #7]
 800e02c:	f04f 32ff 	mov.w	r2, #4294967295
 800e030:	f10d 0107 	add.w	r1, sp, #7
 800e034:	2300      	movs	r3, #0
 800e036:	f000 fe43 	bl	800ecc0 <xQueueGenericSend>
 800e03a:	bf00      	nop
 800e03c:	454c      	cmp	r4, r9
 800e03e:	6037      	str	r7, [r6, #0]
 800e040:	d020      	beq.n	800e084 <_ZN4quan5stm328freertos16usart_tx_rx_taskINS0_5usart6moduleILm1073811456EEELm100ELm100ENS_3mcu3pinINS0_4gpio6moduleILm1073872896EEELm9EEENS7_ISA_Lm10EEEcE5writeEPKc+0xb8>
 800e042:	4625      	mov	r5, r4
 800e044:	f8d8 0000 	ldr.w	r0, [r8]
 800e048:	f815 eb01 	ldrb.w	lr, [r5], #1
 800e04c:	f10d 0107 	add.w	r1, sp, #7
 800e050:	f04f 32ff 	mov.w	r2, #4294967295
 800e054:	2300      	movs	r3, #0
 800e056:	f88d e007 	strb.w	lr, [sp, #7]
 800e05a:	f000 fe31 	bl	800ecc0 <xQueueGenericSend>
 800e05e:	bf00      	nop
 800e060:	6037      	str	r7, [r6, #0]
 800e062:	7864      	ldrb	r4, [r4, #1]
 800e064:	f8d8 0000 	ldr.w	r0, [r8]
 800e068:	f88d 4007 	strb.w	r4, [sp, #7]
 800e06c:	f10d 0107 	add.w	r1, sp, #7
 800e070:	f04f 32ff 	mov.w	r2, #4294967295
 800e074:	2300      	movs	r3, #0
 800e076:	f000 fe23 	bl	800ecc0 <xQueueGenericSend>
 800e07a:	1c6c      	adds	r4, r5, #1
 800e07c:	bf00      	nop
 800e07e:	454c      	cmp	r4, r9
 800e080:	6037      	str	r7, [r6, #0]
 800e082:	d1de      	bne.n	800e042 <_ZN4quan5stm328freertos16usart_tx_rx_taskINS0_5usart6moduleILm1073811456EEELm100ELm100ENS_3mcu3pinINS0_4gpio6moduleILm1073872896EEELm9EEENS7_ISA_Lm10EEEcE5writeEPKc+0x76>
 800e084:	b003      	add	sp, #12
 800e086:	e8bd 83f0 	ldmia.w	sp!, {r4, r5, r6, r7, r8, r9, pc}
 800e08a:	bf00      	nop
 800e08c:	10000910 	.word	0x10000910

0800e090 <_ZN12_GLOBAL__N_112tracker_modeEPv>:
 800e090:	b510      	push	{r4, lr}
 800e092:	b082      	sub	sp, #8
 800e094:	bf00      	nop
 800e096:	f44f 72ca 	mov.w	r2, #404	; 0x194
 800e09a:	f2c4 2222 	movt	r2, #16930	; 0x4222
 800e09e:	f44f 5380 	mov.w	r3, #4096	; 0x1000
 800e0a2:	f2c4 0301 	movt	r3, #16385	; 0x4001
 800e0a6:	2101      	movs	r1, #1
 800e0a8:	6011      	str	r1, [r2, #0]
 800e0aa:	68d8      	ldr	r0, [r3, #12]
 800e0ac:	4c1b      	ldr	r4, [pc, #108]	; (800e11c <_ZN12_GLOBAL__N_112tracker_modeEPv+0x8c>)
 800e0ae:	f440 5200 	orr.w	r2, r0, #8192	; 0x2000
 800e0b2:	60da      	str	r2, [r3, #12]
 800e0b4:	6820      	ldr	r0, [r4, #0]
 800e0b6:	2300      	movs	r3, #0
 800e0b8:	f10d 0107 	add.w	r1, sp, #7
 800e0bc:	f04f 32ff 	mov.w	r2, #4294967295
 800e0c0:	f000 fff4 	bl	800f0ac <xQueueGenericReceive>
 800e0c4:	f89d 3007 	ldrb.w	r3, [sp, #7]
 800e0c8:	2b0a      	cmp	r3, #10
 800e0ca:	d123      	bne.n	800e114 <_ZN12_GLOBAL__N_112tracker_modeEPv+0x84>
 800e0cc:	f10d 0107 	add.w	r1, sp, #7
 800e0d0:	2300      	movs	r3, #0
 800e0d2:	6820      	ldr	r0, [r4, #0]
 800e0d4:	f04f 32ff 	mov.w	r2, #4294967295
 800e0d8:	f000 ffe8 	bl	800f0ac <xQueueGenericReceive>
 800e0dc:	f89d 1007 	ldrb.w	r1, [sp, #7]
 800e0e0:	290a      	cmp	r1, #10
 800e0e2:	d117      	bne.n	800e114 <_ZN12_GLOBAL__N_112tracker_modeEPv+0x84>
 800e0e4:	2300      	movs	r3, #0
 800e0e6:	6820      	ldr	r0, [r4, #0]
 800e0e8:	f10d 0107 	add.w	r1, sp, #7
 800e0ec:	f04f 32ff 	mov.w	r2, #4294967295
 800e0f0:	f000 ffdc 	bl	800f0ac <xQueueGenericReceive>
 800e0f4:	f89d 0007 	ldrb.w	r0, [sp, #7]
 800e0f8:	280a      	cmp	r0, #10
 800e0fa:	d10b      	bne.n	800e114 <_ZN12_GLOBAL__N_112tracker_modeEPv+0x84>
 800e0fc:	4808      	ldr	r0, [pc, #32]	; (800e120 <_ZN12_GLOBAL__N_112tracker_modeEPv+0x90>)
 800e0fe:	f7ff ff65 	bl	800dfcc <_ZN4quan5stm328freertos16usart_tx_rx_taskINS0_5usart6moduleILm1073811456EEELm100ELm100ENS_3mcu3pinINS0_4gpio6moduleILm1073872896EEELm9EEENS7_ISA_Lm10EEEcE5writeEPKc>
 800e102:	f248 24b0 	movw	r4, #33456	; 0x82b0
 800e106:	f2c4 2440 	movt	r4, #16960	; 0x4240
 800e10a:	2201      	movs	r2, #1
 800e10c:	bf00      	nop
 800e10e:	6022      	str	r2, [r4, #0]
 800e110:	bf00      	nop
 800e112:	e7fb      	b.n	800e10c <_ZN12_GLOBAL__N_112tracker_modeEPv+0x7c>
 800e114:	4803      	ldr	r0, [pc, #12]	; (800e124 <_ZN12_GLOBAL__N_112tracker_modeEPv+0x94>)
 800e116:	f7ff ff59 	bl	800dfcc <_ZN4quan5stm328freertos16usart_tx_rx_taskINS0_5usart6moduleILm1073811456EEELm100ELm100ENS_3mcu3pinINS0_4gpio6moduleILm1073872896EEELm9EEENS7_ISA_Lm10EEEcE5writeEPKc>
 800e11a:	e7f2      	b.n	800e102 <_ZN12_GLOBAL__N_112tracker_modeEPv+0x72>
 800e11c:	1000090c 	.word	0x1000090c
 800e120:	08014e68 	.word	0x08014e68
 800e124:	08014e7c 	.word	0x08014e7c

0800e128 <_ZN12rx_telemetry4initEv>:
 800e128:	f640 0374 	movw	r3, #2164	; 0x874
 800e12c:	f2c1 0300 	movt	r3, #4096	; 0x1000
 800e130:	cb0a      	ldmia	r3, {r1, r3}
 800e132:	f64c 42cd 	movw	r2, #52429	; 0xcccd
 800e136:	f6cc 42cc 	movt	r2, #52428	; 0xcccc
 800e13a:	3908      	subs	r1, #8
 800e13c:	b510      	push	{r4, lr}
 800e13e:	fba2 4101 	umull	r4, r1, r2, r1
 800e142:	4604      	mov	r4, r0
 800e144:	08c8      	lsrs	r0, r1, #3
 800e146:	fb03 f000 	mul.w	r0, r3, r0
 800e14a:	60a0      	str	r0, [r4, #8]
 800e14c:	f005 ffba 	bl	80140c4 <pvPortMalloc>
 800e150:	2100      	movs	r1, #0
 800e152:	68a2      	ldr	r2, [r4, #8]
 800e154:	6020      	str	r0, [r4, #0]
 800e156:	f006 fbf1 	bl	801493c <memset>
 800e15a:	2001      	movs	r0, #1
 800e15c:	f000 fef6 	bl	800ef4c <xQueueCreateMutex>
 800e160:	6060      	str	r0, [r4, #4]
 800e162:	bd10      	pop	{r4, pc}

0800e164 <_ZN12rx_telemetry7refreshEv>:
 800e164:	2100      	movs	r1, #0
 800e166:	b538      	push	{r3, r4, r5, lr}
 800e168:	f04f 32ff 	mov.w	r2, #4294967295
 800e16c:	460b      	mov	r3, r1
 800e16e:	4604      	mov	r4, r0
 800e170:	6840      	ldr	r0, [r0, #4]
 800e172:	f000 ff9b 	bl	800f0ac <xQueueGenericReceive>
 800e176:	4910      	ldr	r1, [pc, #64]	; (800e1b8 <_ZN12rx_telemetry7refreshEv+0x54>)
 800e178:	68a2      	ldr	r2, [r4, #8]
 800e17a:	e891 0021 	ldmia.w	r1, {r0, r5}
 800e17e:	f64c 43cd 	movw	r3, #52429	; 0xcccd
 800e182:	f1a0 0008 	sub.w	r0, r0, #8
 800e186:	f6cc 43cc 	movt	r3, #52428	; 0xcccc
 800e18a:	fba3 0100 	umull	r0, r1, r3, r0
 800e18e:	08cb      	lsrs	r3, r1, #3
 800e190:	fb05 f503 	mul.w	r5, r5, r3
 800e194:	1b50      	subs	r0, r2, r5
 800e196:	4241      	negs	r1, r0
 800e198:	eb51 0500 	adcs.w	r5, r1, r0
 800e19c:	b125      	cbz	r5, 800e1a8 <_ZN12rx_telemetry7refreshEv+0x44>
 800e19e:	4b07      	ldr	r3, [pc, #28]	; (800e1bc <_ZN12rx_telemetry7refreshEv+0x58>)
 800e1a0:	6820      	ldr	r0, [r4, #0]
 800e1a2:	6819      	ldr	r1, [r3, #0]
 800e1a4:	f006 fb28 	bl	80147f8 <memcpy>
 800e1a8:	2100      	movs	r1, #0
 800e1aa:	6860      	ldr	r0, [r4, #4]
 800e1ac:	460a      	mov	r2, r1
 800e1ae:	460b      	mov	r3, r1
 800e1b0:	f000 fd86 	bl	800ecc0 <xQueueGenericSend>
 800e1b4:	4628      	mov	r0, r5
 800e1b6:	bd38      	pop	{r3, r4, r5, pc}
 800e1b8:	10000874 	.word	0x10000874
 800e1bc:	10000864 	.word	0x10000864

0800e1c0 <_GLOBAL__sub_I_the_rx_telemetry>:
 800e1c0:	f640 131c 	movw	r3, #2332	; 0x91c
 800e1c4:	f2c1 0300 	movt	r3, #4096	; 0x1000
 800e1c8:	2200      	movs	r2, #0
 800e1ca:	601a      	str	r2, [r3, #0]
 800e1cc:	609a      	str	r2, [r3, #8]
 800e1ce:	4770      	bx	lr

0800e1d0 <xTaskGenericCreate>:
 800e1d0:	e92d 4ff8 	stmdb	sp!, {r3, r4, r5, r6, r7, r8, r9, sl, fp, lr}
 800e1d4:	9e0a      	ldr	r6, [sp, #40]	; 0x28
 800e1d6:	f8dd b030 	ldr.w	fp, [sp, #48]	; 0x30
 800e1da:	4607      	mov	r7, r0
 800e1dc:	460d      	mov	r5, r1
 800e1de:	4691      	mov	r9, r2
 800e1e0:	469a      	mov	sl, r3
 800e1e2:	2800      	cmp	r0, #0
 800e1e4:	f000 80a4 	beq.w	800e330 <xTaskGenericCreate+0x160>
 800e1e8:	2e04      	cmp	r6, #4
 800e1ea:	d902      	bls.n	800e1f2 <xTaskGenericCreate+0x22>
 800e1ec:	f005 fe50 	bl	8013e90 <ulPortSetInterruptMask>
 800e1f0:	e7fe      	b.n	800e1f0 <xTaskGenericCreate+0x20>
 800e1f2:	2050      	movs	r0, #80	; 0x50
 800e1f4:	f005 ff66 	bl	80140c4 <pvPortMalloc>
 800e1f8:	4604      	mov	r4, r0
 800e1fa:	2800      	cmp	r0, #0
 800e1fc:	f000 80dc 	beq.w	800e3b8 <xTaskGenericCreate+0x1e8>
 800e200:	f1bb 0f00 	cmp.w	fp, #0
 800e204:	f000 80cc 	beq.w	800e3a0 <xTaskGenericCreate+0x1d0>
 800e208:	f8c0 b030 	str.w	fp, [r0, #48]	; 0x30
 800e20c:	ea4f 0889 	mov.w	r8, r9, lsl #2
 800e210:	4658      	mov	r0, fp
 800e212:	21a5      	movs	r1, #165	; 0xa5
 800e214:	4642      	mov	r2, r8
 800e216:	f006 fb91 	bl	801493c <memset>
 800e21a:	782a      	ldrb	r2, [r5, #0]
 800e21c:	6b23      	ldr	r3, [r4, #48]	; 0x30
 800e21e:	f884 2034 	strb.w	r2, [r4, #52]	; 0x34
 800e222:	f109 39ff 	add.w	r9, r9, #4294967295
 800e226:	7828      	ldrb	r0, [r5, #0]
 800e228:	eb03 0189 	add.w	r1, r3, r9, lsl #2
 800e22c:	f021 0b07 	bic.w	fp, r1, #7
 800e230:	b328      	cbz	r0, 800e27e <xTaskGenericCreate+0xae>
 800e232:	786a      	ldrb	r2, [r5, #1]
 800e234:	f884 2035 	strb.w	r2, [r4, #53]	; 0x35
 800e238:	786b      	ldrb	r3, [r5, #1]
 800e23a:	b303      	cbz	r3, 800e27e <xTaskGenericCreate+0xae>
 800e23c:	78a8      	ldrb	r0, [r5, #2]
 800e23e:	f884 0036 	strb.w	r0, [r4, #54]	; 0x36
 800e242:	78a9      	ldrb	r1, [r5, #2]
 800e244:	b1d9      	cbz	r1, 800e27e <xTaskGenericCreate+0xae>
 800e246:	78ea      	ldrb	r2, [r5, #3]
 800e248:	f884 2037 	strb.w	r2, [r4, #55]	; 0x37
 800e24c:	78eb      	ldrb	r3, [r5, #3]
 800e24e:	b1b3      	cbz	r3, 800e27e <xTaskGenericCreate+0xae>
 800e250:	7928      	ldrb	r0, [r5, #4]
 800e252:	f884 0038 	strb.w	r0, [r4, #56]	; 0x38
 800e256:	7929      	ldrb	r1, [r5, #4]
 800e258:	b189      	cbz	r1, 800e27e <xTaskGenericCreate+0xae>
 800e25a:	796a      	ldrb	r2, [r5, #5]
 800e25c:	f884 2039 	strb.w	r2, [r4, #57]	; 0x39
 800e260:	796b      	ldrb	r3, [r5, #5]
 800e262:	b163      	cbz	r3, 800e27e <xTaskGenericCreate+0xae>
 800e264:	79a8      	ldrb	r0, [r5, #6]
 800e266:	f884 003a 	strb.w	r0, [r4, #58]	; 0x3a
 800e26a:	79a9      	ldrb	r1, [r5, #6]
 800e26c:	b139      	cbz	r1, 800e27e <xTaskGenericCreate+0xae>
 800e26e:	79ea      	ldrb	r2, [r5, #7]
 800e270:	f884 203b 	strb.w	r2, [r4, #59]	; 0x3b
 800e274:	79eb      	ldrb	r3, [r5, #7]
 800e276:	b113      	cbz	r3, 800e27e <xTaskGenericCreate+0xae>
 800e278:	7a2d      	ldrb	r5, [r5, #8]
 800e27a:	f884 503c 	strb.w	r5, [r4, #60]	; 0x3c
 800e27e:	2100      	movs	r1, #0
 800e280:	f104 0904 	add.w	r9, r4, #4
 800e284:	f884 103d 	strb.w	r1, [r4, #61]	; 0x3d
 800e288:	64e1      	str	r1, [r4, #76]	; 0x4c
 800e28a:	4648      	mov	r0, r9
 800e28c:	62e6      	str	r6, [r4, #44]	; 0x2c
 800e28e:	64a6      	str	r6, [r4, #72]	; 0x48
 800e290:	f001 f900 	bl	800f494 <vListInitialiseItem>
 800e294:	f104 0018 	add.w	r0, r4, #24
 800e298:	f001 f8fc 	bl	800f494 <vListInitialiseItem>
 800e29c:	f1c6 0005 	rsb	r0, r6, #5
 800e2a0:	61a0      	str	r0, [r4, #24]
 800e2a2:	4639      	mov	r1, r7
 800e2a4:	6124      	str	r4, [r4, #16]
 800e2a6:	6264      	str	r4, [r4, #36]	; 0x24
 800e2a8:	4658      	mov	r0, fp
 800e2aa:	4652      	mov	r2, sl
 800e2ac:	f005 fdc2 	bl	8013e34 <pxPortInitialiseStack>
 800e2b0:	9f0b      	ldr	r7, [sp, #44]	; 0x2c
 800e2b2:	6020      	str	r0, [r4, #0]
 800e2b4:	b107      	cbz	r7, 800e2b8 <xTaskGenericCreate+0xe8>
 800e2b6:	603c      	str	r4, [r7, #0]
 800e2b8:	f005 fdf2 	bl	8013ea0 <vPortEnterCritical>
 800e2bc:	4b40      	ldr	r3, [pc, #256]	; (800e3c0 <xTaskGenericCreate+0x1f0>)
 800e2be:	4d41      	ldr	r5, [pc, #260]	; (800e3c4 <xTaskGenericCreate+0x1f4>)
 800e2c0:	681a      	ldr	r2, [r3, #0]
 800e2c2:	1c51      	adds	r1, r2, #1
 800e2c4:	6019      	str	r1, [r3, #0]
 800e2c6:	6828      	ldr	r0, [r5, #0]
 800e2c8:	2800      	cmp	r0, #0
 800e2ca:	d039      	beq.n	800e340 <xTaskGenericCreate+0x170>
 800e2cc:	f8df 8128 	ldr.w	r8, [pc, #296]	; 800e3f8 <xTaskGenericCreate+0x228>
 800e2d0:	f8d8 7000 	ldr.w	r7, [r8]
 800e2d4:	b927      	cbnz	r7, 800e2e0 <xTaskGenericCreate+0x110>
 800e2d6:	682b      	ldr	r3, [r5, #0]
 800e2d8:	6ada      	ldr	r2, [r3, #44]	; 0x2c
 800e2da:	4296      	cmp	r6, r2
 800e2dc:	bf28      	it	cs
 800e2de:	602c      	strcs	r4, [r5, #0]
 800e2e0:	f8df e118 	ldr.w	lr, [pc, #280]	; 800e3fc <xTaskGenericCreate+0x22c>
 800e2e4:	4a38      	ldr	r2, [pc, #224]	; (800e3c8 <xTaskGenericCreate+0x1f8>)
 800e2e6:	f8de 1000 	ldr.w	r1, [lr]
 800e2ea:	6ae3      	ldr	r3, [r4, #44]	; 0x2c
 800e2ec:	6810      	ldr	r0, [r2, #0]
 800e2ee:	2701      	movs	r7, #1
 800e2f0:	eb01 0c07 	add.w	ip, r1, r7
 800e2f4:	fa07 fa03 	lsl.w	sl, r7, r3
 800e2f8:	eb03 0183 	add.w	r1, r3, r3, lsl #2
 800e2fc:	4b33      	ldr	r3, [pc, #204]	; (800e3cc <xTaskGenericCreate+0x1fc>)
 800e2fe:	f8c4 c040 	str.w	ip, [r4, #64]	; 0x40
 800e302:	ea4a 0a00 	orr.w	sl, sl, r0
 800e306:	eb03 0081 	add.w	r0, r3, r1, lsl #2
 800e30a:	4649      	mov	r1, r9
 800e30c:	f8c2 a000 	str.w	sl, [r2]
 800e310:	f8ce c000 	str.w	ip, [lr]
 800e314:	f001 f8c2 	bl	800f49c <vListInsertEnd>
 800e318:	f005 fdee 	bl	8013ef8 <vPortExitCritical>
 800e31c:	f8d8 2000 	ldr.w	r2, [r8]
 800e320:	b11a      	cbz	r2, 800e32a <xTaskGenericCreate+0x15a>
 800e322:	6828      	ldr	r0, [r5, #0]
 800e324:	6ac1      	ldr	r1, [r0, #44]	; 0x2c
 800e326:	428e      	cmp	r6, r1
 800e328:	d805      	bhi.n	800e336 <xTaskGenericCreate+0x166>
 800e32a:	4638      	mov	r0, r7
 800e32c:	e8bd 8ff8 	ldmia.w	sp!, {r3, r4, r5, r6, r7, r8, r9, sl, fp, pc}
 800e330:	f005 fdae 	bl	8013e90 <ulPortSetInterruptMask>
 800e334:	e7fe      	b.n	800e334 <xTaskGenericCreate+0x164>
 800e336:	f005 fd9f 	bl	8013e78 <vPortYield>
 800e33a:	4638      	mov	r0, r7
 800e33c:	e8bd 8ff8 	ldmia.w	sp!, {r3, r4, r5, r6, r7, r8, r9, sl, fp, pc}
 800e340:	602c      	str	r4, [r5, #0]
 800e342:	6819      	ldr	r1, [r3, #0]
 800e344:	2901      	cmp	r1, #1
 800e346:	d002      	beq.n	800e34e <xTaskGenericCreate+0x17e>
 800e348:	f8df 80ac 	ldr.w	r8, [pc, #172]	; 800e3f8 <xTaskGenericCreate+0x228>
 800e34c:	e7c8      	b.n	800e2e0 <xTaskGenericCreate+0x110>
 800e34e:	481f      	ldr	r0, [pc, #124]	; (800e3cc <xTaskGenericCreate+0x1fc>)
 800e350:	f8df a0ac 	ldr.w	sl, [pc, #172]	; 800e400 <xTaskGenericCreate+0x230>
 800e354:	4f1e      	ldr	r7, [pc, #120]	; (800e3d0 <xTaskGenericCreate+0x200>)
 800e356:	f8df 80a0 	ldr.w	r8, [pc, #160]	; 800e3f8 <xTaskGenericCreate+0x228>
 800e35a:	f001 f88f 	bl	800f47c <vListInitialise>
 800e35e:	481d      	ldr	r0, [pc, #116]	; (800e3d4 <xTaskGenericCreate+0x204>)
 800e360:	f001 f88c 	bl	800f47c <vListInitialise>
 800e364:	481c      	ldr	r0, [pc, #112]	; (800e3d8 <xTaskGenericCreate+0x208>)
 800e366:	f001 f889 	bl	800f47c <vListInitialise>
 800e36a:	481c      	ldr	r0, [pc, #112]	; (800e3dc <xTaskGenericCreate+0x20c>)
 800e36c:	f001 f886 	bl	800f47c <vListInitialise>
 800e370:	481b      	ldr	r0, [pc, #108]	; (800e3e0 <xTaskGenericCreate+0x210>)
 800e372:	f001 f883 	bl	800f47c <vListInitialise>
 800e376:	4650      	mov	r0, sl
 800e378:	f001 f880 	bl	800f47c <vListInitialise>
 800e37c:	4638      	mov	r0, r7
 800e37e:	f001 f87d 	bl	800f47c <vListInitialise>
 800e382:	4818      	ldr	r0, [pc, #96]	; (800e3e4 <xTaskGenericCreate+0x214>)
 800e384:	f001 f87a 	bl	800f47c <vListInitialise>
 800e388:	4817      	ldr	r0, [pc, #92]	; (800e3e8 <xTaskGenericCreate+0x218>)
 800e38a:	f001 f877 	bl	800f47c <vListInitialise>
 800e38e:	4817      	ldr	r0, [pc, #92]	; (800e3ec <xTaskGenericCreate+0x21c>)
 800e390:	f001 f874 	bl	800f47c <vListInitialise>
 800e394:	4816      	ldr	r0, [pc, #88]	; (800e3f0 <xTaskGenericCreate+0x220>)
 800e396:	4b17      	ldr	r3, [pc, #92]	; (800e3f4 <xTaskGenericCreate+0x224>)
 800e398:	f8c0 a000 	str.w	sl, [r0]
 800e39c:	601f      	str	r7, [r3, #0]
 800e39e:	e79f      	b.n	800e2e0 <xTaskGenericCreate+0x110>
 800e3a0:	ea4f 0889 	mov.w	r8, r9, lsl #2
 800e3a4:	4640      	mov	r0, r8
 800e3a6:	f005 fe8d 	bl	80140c4 <pvPortMalloc>
 800e3aa:	6320      	str	r0, [r4, #48]	; 0x30
 800e3ac:	2800      	cmp	r0, #0
 800e3ae:	f47f af30 	bne.w	800e212 <xTaskGenericCreate+0x42>
 800e3b2:	4620      	mov	r0, r4
 800e3b4:	f005 fe98 	bl	80140e8 <vPortFree>
 800e3b8:	f04f 30ff 	mov.w	r0, #4294967295
 800e3bc:	e8bd 8ff8 	ldmia.w	sp!, {r3, r4, r5, r6, r7, r8, r9, sl, fp, pc}
 800e3c0:	10000a18 	.word	0x10000a18
 800e3c4:	100009c4 	.word	0x100009c4
 800e3c8:	10000a1c 	.word	0x10000a1c
 800e3cc:	1000095c 	.word	0x1000095c
 800e3d0:	10000a00 	.word	0x10000a00
 800e3d4:	10000970 	.word	0x10000970
 800e3d8:	10000984 	.word	0x10000984
 800e3dc:	10000998 	.word	0x10000998
 800e3e0:	100009ac 	.word	0x100009ac
 800e3e4:	100009c8 	.word	0x100009c8
 800e3e8:	10000934 	.word	0x10000934
 800e3ec:	10000948 	.word	0x10000948
 800e3f0:	10000928 	.word	0x10000928
 800e3f4:	100009e4 	.word	0x100009e4
 800e3f8:	1000092c 	.word	0x1000092c
 800e3fc:	100009e8 	.word	0x100009e8
 800e400:	100009ec 	.word	0x100009ec

0800e404 <vTaskStartScheduler>:
 800e404:	b530      	push	{r4, r5, lr}
 800e406:	b085      	sub	sp, #20
 800e408:	2400      	movs	r4, #0
 800e40a:	2282      	movs	r2, #130	; 0x82
 800e40c:	9400      	str	r4, [sp, #0]
 800e40e:	9401      	str	r4, [sp, #4]
 800e410:	9402      	str	r4, [sp, #8]
 800e412:	9403      	str	r4, [sp, #12]
 800e414:	480e      	ldr	r0, [pc, #56]	; (800e450 <vTaskStartScheduler+0x4c>)
 800e416:	490f      	ldr	r1, [pc, #60]	; (800e454 <vTaskStartScheduler+0x50>)
 800e418:	4623      	mov	r3, r4
 800e41a:	f7ff fed9 	bl	800e1d0 <xTaskGenericCreate>
 800e41e:	2801      	cmp	r0, #1
 800e420:	4605      	mov	r5, r0
 800e422:	d005      	beq.n	800e430 <vTaskStartScheduler+0x2c>
 800e424:	b10d      	cbz	r5, 800e42a <vTaskStartScheduler+0x26>
 800e426:	b005      	add	sp, #20
 800e428:	bd30      	pop	{r4, r5, pc}
 800e42a:	f005 fd31 	bl	8013e90 <ulPortSetInterruptMask>
 800e42e:	e7fe      	b.n	800e42e <vTaskStartScheduler+0x2a>
 800e430:	f001 f9c8 	bl	800f7c4 <xTimerCreateTimerTask>
 800e434:	2801      	cmp	r0, #1
 800e436:	4605      	mov	r5, r0
 800e438:	d1f4      	bne.n	800e424 <vTaskStartScheduler+0x20>
 800e43a:	f005 fd29 	bl	8013e90 <ulPortSetInterruptMask>
 800e43e:	4b06      	ldr	r3, [pc, #24]	; (800e458 <vTaskStartScheduler+0x54>)
 800e440:	4806      	ldr	r0, [pc, #24]	; (800e45c <vTaskStartScheduler+0x58>)
 800e442:	601d      	str	r5, [r3, #0]
 800e444:	6004      	str	r4, [r0, #0]
 800e446:	b005      	add	sp, #20
 800e448:	e8bd 4030 	ldmia.w	sp!, {r4, r5, lr}
 800e44c:	f005 bdbe 	b.w	8013fcc <xPortStartScheduler>
 800e450:	0800e6d5 	.word	0x0800e6d5
 800e454:	08014ea4 	.word	0x08014ea4
 800e458:	1000092c 	.word	0x1000092c
 800e45c:	100009e0 	.word	0x100009e0

0800e460 <vTaskSuspendAll>:
 800e460:	f640 13c0 	movw	r3, #2496	; 0x9c0
 800e464:	f2c1 0300 	movt	r3, #4096	; 0x1000
 800e468:	681a      	ldr	r2, [r3, #0]
 800e46a:	1c50      	adds	r0, r2, #1
 800e46c:	6018      	str	r0, [r3, #0]
 800e46e:	4770      	bx	lr

0800e470 <xTaskGetTickCount>:
 800e470:	b510      	push	{r4, lr}
 800e472:	f005 fd15 	bl	8013ea0 <vPortEnterCritical>
 800e476:	f640 13e0 	movw	r3, #2528	; 0x9e0
 800e47a:	f2c1 0300 	movt	r3, #4096	; 0x1000
 800e47e:	681c      	ldr	r4, [r3, #0]
 800e480:	f005 fd3a 	bl	8013ef8 <vPortExitCritical>
 800e484:	4620      	mov	r0, r4
 800e486:	bd10      	pop	{r4, pc}

0800e488 <xTaskIncrementTick>:
 800e488:	e92d 4ff8 	stmdb	sp!, {r3, r4, r5, r6, r7, r8, r9, sl, fp, lr}
 800e48c:	4b4d      	ldr	r3, [pc, #308]	; (800e5c4 <xTaskIncrementTick+0x13c>)
 800e48e:	6818      	ldr	r0, [r3, #0]
 800e490:	2800      	cmp	r0, #0
 800e492:	d16f      	bne.n	800e574 <xTaskIncrementTick+0xec>
 800e494:	4d4c      	ldr	r5, [pc, #304]	; (800e5c8 <xTaskIncrementTick+0x140>)
 800e496:	682e      	ldr	r6, [r5, #0]
 800e498:	1c77      	adds	r7, r6, #1
 800e49a:	602f      	str	r7, [r5, #0]
 800e49c:	682f      	ldr	r7, [r5, #0]
 800e49e:	b1f7      	cbz	r7, 800e4de <xTaskIncrementTick+0x56>
 800e4a0:	f8df b144 	ldr.w	fp, [pc, #324]	; 800e5e8 <xTaskIncrementTick+0x160>
 800e4a4:	f8db 5000 	ldr.w	r5, [fp]
 800e4a8:	42af      	cmp	r7, r5
 800e4aa:	d220      	bcs.n	800e4ee <xTaskIncrementTick+0x66>
 800e4ac:	4e47      	ldr	r6, [pc, #284]	; (800e5cc <xTaskIncrementTick+0x144>)
 800e4ae:	4d48      	ldr	r5, [pc, #288]	; (800e5d0 <xTaskIncrementTick+0x148>)
 800e4b0:	2400      	movs	r4, #0
 800e4b2:	6828      	ldr	r0, [r5, #0]
 800e4b4:	4a47      	ldr	r2, [pc, #284]	; (800e5d4 <xTaskIncrementTick+0x14c>)
 800e4b6:	6ac1      	ldr	r1, [r0, #44]	; 0x2c
 800e4b8:	6810      	ldr	r0, [r2, #0]
 800e4ba:	eb01 0381 	add.w	r3, r1, r1, lsl #2
 800e4be:	f856 1023 	ldr.w	r1, [r6, r3, lsl #2]
 800e4c2:	2901      	cmp	r1, #1
 800e4c4:	bf88      	it	hi
 800e4c6:	2401      	movhi	r4, #1
 800e4c8:	b908      	cbnz	r0, 800e4ce <xTaskIncrementTick+0x46>
 800e4ca:	f7ff fc8f 	bl	800ddec <vApplicationTickHook>
 800e4ce:	4a42      	ldr	r2, [pc, #264]	; (800e5d8 <xTaskIncrementTick+0x150>)
 800e4d0:	6810      	ldr	r0, [r2, #0]
 800e4d2:	2800      	cmp	r0, #0
 800e4d4:	bf0c      	ite	eq
 800e4d6:	4620      	moveq	r0, r4
 800e4d8:	2001      	movne	r0, #1
 800e4da:	e8bd 8ff8 	ldmia.w	sp!, {r3, r4, r5, r6, r7, r8, r9, sl, fp, pc}
 800e4de:	4b3f      	ldr	r3, [pc, #252]	; (800e5dc <xTaskIncrementTick+0x154>)
 800e4e0:	6818      	ldr	r0, [r3, #0]
 800e4e2:	6801      	ldr	r1, [r0, #0]
 800e4e4:	2900      	cmp	r1, #0
 800e4e6:	d050      	beq.n	800e58a <xTaskIncrementTick+0x102>
 800e4e8:	f005 fcd2 	bl	8013e90 <ulPortSetInterruptMask>
 800e4ec:	e7fe      	b.n	800e4ec <xTaskIncrementTick+0x64>
 800e4ee:	4e37      	ldr	r6, [pc, #220]	; (800e5cc <xTaskIncrementTick+0x144>)
 800e4f0:	4d37      	ldr	r5, [pc, #220]	; (800e5d0 <xTaskIncrementTick+0x148>)
 800e4f2:	f8df 90f8 	ldr.w	r9, [pc, #248]	; 800e5ec <xTaskIncrementTick+0x164>
 800e4f6:	2400      	movs	r4, #0
 800e4f8:	f640 1328 	movw	r3, #2344	; 0x928
 800e4fc:	f2c1 0300 	movt	r3, #4096	; 0x1000
 800e500:	681a      	ldr	r2, [r3, #0]
 800e502:	6810      	ldr	r0, [r2, #0]
 800e504:	b920      	cbnz	r0, 800e510 <xTaskIncrementTick+0x88>
 800e506:	f04f 33ff 	mov.w	r3, #4294967295
 800e50a:	f8cb 3000 	str.w	r3, [fp]
 800e50e:	e7d0      	b.n	800e4b2 <xTaskIncrementTick+0x2a>
 800e510:	f640 1128 	movw	r1, #2344	; 0x928
 800e514:	f2c1 0100 	movt	r1, #4096	; 0x1000
 800e518:	680b      	ldr	r3, [r1, #0]
 800e51a:	68da      	ldr	r2, [r3, #12]
 800e51c:	f8d2 800c 	ldr.w	r8, [r2, #12]
 800e520:	f8d8 1004 	ldr.w	r1, [r8, #4]
 800e524:	f108 0a04 	add.w	sl, r8, #4
 800e528:	428f      	cmp	r7, r1
 800e52a:	4650      	mov	r0, sl
 800e52c:	d32a      	bcc.n	800e584 <xTaskIncrementTick+0xfc>
 800e52e:	f000 ffdd 	bl	800f4ec <uxListRemove>
 800e532:	f8d8 3028 	ldr.w	r3, [r8, #40]	; 0x28
 800e536:	f108 0018 	add.w	r0, r8, #24
 800e53a:	b10b      	cbz	r3, 800e540 <xTaskIncrementTick+0xb8>
 800e53c:	f000 ffd6 	bl	800f4ec <uxListRemove>
 800e540:	f8d8 202c 	ldr.w	r2, [r8, #44]	; 0x2c
 800e544:	f8d9 0000 	ldr.w	r0, [r9]
 800e548:	2101      	movs	r1, #1
 800e54a:	fa01 fe02 	lsl.w	lr, r1, r2
 800e54e:	eb02 0282 	add.w	r2, r2, r2, lsl #2
 800e552:	ea4e 0300 	orr.w	r3, lr, r0
 800e556:	4651      	mov	r1, sl
 800e558:	eb06 0082 	add.w	r0, r6, r2, lsl #2
 800e55c:	f8c9 3000 	str.w	r3, [r9]
 800e560:	f000 ff9c 	bl	800f49c <vListInsertEnd>
 800e564:	6828      	ldr	r0, [r5, #0]
 800e566:	f8d8 102c 	ldr.w	r1, [r8, #44]	; 0x2c
 800e56a:	6ac2      	ldr	r2, [r0, #44]	; 0x2c
 800e56c:	4291      	cmp	r1, r2
 800e56e:	bf28      	it	cs
 800e570:	2401      	movcs	r4, #1
 800e572:	e7c1      	b.n	800e4f8 <xTaskIncrementTick+0x70>
 800e574:	4917      	ldr	r1, [pc, #92]	; (800e5d4 <xTaskIncrementTick+0x14c>)
 800e576:	680a      	ldr	r2, [r1, #0]
 800e578:	1c54      	adds	r4, r2, #1
 800e57a:	600c      	str	r4, [r1, #0]
 800e57c:	f7ff fc36 	bl	800ddec <vApplicationTickHook>
 800e580:	2400      	movs	r4, #0
 800e582:	e7a4      	b.n	800e4ce <xTaskIncrementTick+0x46>
 800e584:	f8cb 1000 	str.w	r1, [fp]
 800e588:	e793      	b.n	800e4b2 <xTaskIncrementTick+0x2a>
 800e58a:	4d15      	ldr	r5, [pc, #84]	; (800e5e0 <xTaskIncrementTick+0x158>)
 800e58c:	681e      	ldr	r6, [r3, #0]
 800e58e:	682c      	ldr	r4, [r5, #0]
 800e590:	4a14      	ldr	r2, [pc, #80]	; (800e5e4 <xTaskIncrementTick+0x15c>)
 800e592:	601c      	str	r4, [r3, #0]
 800e594:	602e      	str	r6, [r5, #0]
 800e596:	6810      	ldr	r0, [r2, #0]
 800e598:	1c41      	adds	r1, r0, #1
 800e59a:	6011      	str	r1, [r2, #0]
 800e59c:	681d      	ldr	r5, [r3, #0]
 800e59e:	682e      	ldr	r6, [r5, #0]
 800e5a0:	b146      	cbz	r6, 800e5b4 <xTaskIncrementTick+0x12c>
 800e5a2:	681b      	ldr	r3, [r3, #0]
 800e5a4:	f8df b040 	ldr.w	fp, [pc, #64]	; 800e5e8 <xTaskIncrementTick+0x160>
 800e5a8:	68dc      	ldr	r4, [r3, #12]
 800e5aa:	68e2      	ldr	r2, [r4, #12]
 800e5ac:	6850      	ldr	r0, [r2, #4]
 800e5ae:	f8cb 0000 	str.w	r0, [fp]
 800e5b2:	e777      	b.n	800e4a4 <xTaskIncrementTick+0x1c>
 800e5b4:	f8df b030 	ldr.w	fp, [pc, #48]	; 800e5e8 <xTaskIncrementTick+0x160>
 800e5b8:	f04f 31ff 	mov.w	r1, #4294967295
 800e5bc:	f8cb 1000 	str.w	r1, [fp]
 800e5c0:	e770      	b.n	800e4a4 <xTaskIncrementTick+0x1c>
 800e5c2:	bf00      	nop
 800e5c4:	100009c0 	.word	0x100009c0
 800e5c8:	100009e0 	.word	0x100009e0
 800e5cc:	1000095c 	.word	0x1000095c
 800e5d0:	100009c4 	.word	0x100009c4
 800e5d4:	10000a14 	.word	0x10000a14
 800e5d8:	10000a20 	.word	0x10000a20
 800e5dc:	10000928 	.word	0x10000928
 800e5e0:	100009e4 	.word	0x100009e4
 800e5e4:	100009dc 	.word	0x100009dc
 800e5e8:	1000001c 	.word	0x1000001c
 800e5ec:	10000a1c 	.word	0x10000a1c

0800e5f0 <xTaskResumeAll>:
 800e5f0:	e92d 4ff8 	stmdb	sp!, {r3, r4, r5, r6, r7, r8, r9, sl, fp, lr}
 800e5f4:	4c30      	ldr	r4, [pc, #192]	; (800e6b8 <xTaskResumeAll+0xc8>)
 800e5f6:	6823      	ldr	r3, [r4, #0]
 800e5f8:	b913      	cbnz	r3, 800e600 <xTaskResumeAll+0x10>
 800e5fa:	f005 fc49 	bl	8013e90 <ulPortSetInterruptMask>
 800e5fe:	e7fe      	b.n	800e5fe <xTaskResumeAll+0xe>
 800e600:	f005 fc4e 	bl	8013ea0 <vPortEnterCritical>
 800e604:	6820      	ldr	r0, [r4, #0]
 800e606:	1e41      	subs	r1, r0, #1
 800e608:	6021      	str	r1, [r4, #0]
 800e60a:	6822      	ldr	r2, [r4, #0]
 800e60c:	2a00      	cmp	r2, #0
 800e60e:	d13b      	bne.n	800e688 <xTaskResumeAll+0x98>
 800e610:	4c2a      	ldr	r4, [pc, #168]	; (800e6bc <xTaskResumeAll+0xcc>)
 800e612:	6823      	ldr	r3, [r4, #0]
 800e614:	2b00      	cmp	r3, #0
 800e616:	d037      	beq.n	800e688 <xTaskResumeAll+0x98>
 800e618:	f8df 90b0 	ldr.w	r9, [pc, #176]	; 800e6cc <xTaskResumeAll+0xdc>
 800e61c:	4d28      	ldr	r5, [pc, #160]	; (800e6c0 <xTaskResumeAll+0xd0>)
 800e61e:	4f29      	ldr	r7, [pc, #164]	; (800e6c4 <xTaskResumeAll+0xd4>)
 800e620:	f8df b0ac 	ldr.w	fp, [pc, #172]	; 800e6d0 <xTaskResumeAll+0xe0>
 800e624:	46ca      	mov	sl, r9
 800e626:	2601      	movs	r6, #1
 800e628:	e024      	b.n	800e674 <xTaskResumeAll+0x84>
 800e62a:	f8da 400c 	ldr.w	r4, [sl, #12]
 800e62e:	68e4      	ldr	r4, [r4, #12]
 800e630:	f104 0804 	add.w	r8, r4, #4
 800e634:	f104 0018 	add.w	r0, r4, #24
 800e638:	f000 ff58 	bl	800f4ec <uxListRemove>
 800e63c:	4640      	mov	r0, r8
 800e63e:	f000 ff55 	bl	800f4ec <uxListRemove>
 800e642:	6ae2      	ldr	r2, [r4, #44]	; 0x2c
 800e644:	683b      	ldr	r3, [r7, #0]
 800e646:	f640 115c 	movw	r1, #2396	; 0x95c
 800e64a:	fa06 fe02 	lsl.w	lr, r6, r2
 800e64e:	eb02 0082 	add.w	r0, r2, r2, lsl #2
 800e652:	f2c1 0100 	movt	r1, #4096	; 0x1000
 800e656:	ea4e 0203 	orr.w	r2, lr, r3
 800e65a:	eb01 0080 	add.w	r0, r1, r0, lsl #2
 800e65e:	4641      	mov	r1, r8
 800e660:	603a      	str	r2, [r7, #0]
 800e662:	f000 ff1b 	bl	800f49c <vListInsertEnd>
 800e666:	f8db 3000 	ldr.w	r3, [fp]
 800e66a:	6ae4      	ldr	r4, [r4, #44]	; 0x2c
 800e66c:	6ad8      	ldr	r0, [r3, #44]	; 0x2c
 800e66e:	4284      	cmp	r4, r0
 800e670:	bf28      	it	cs
 800e672:	602e      	strcs	r6, [r5, #0]
 800e674:	f8d9 0000 	ldr.w	r0, [r9]
 800e678:	2800      	cmp	r0, #0
 800e67a:	d1d6      	bne.n	800e62a <xTaskResumeAll+0x3a>
 800e67c:	4c12      	ldr	r4, [pc, #72]	; (800e6c8 <xTaskResumeAll+0xd8>)
 800e67e:	6821      	ldr	r1, [r4, #0]
 800e680:	b941      	cbnz	r1, 800e694 <xTaskResumeAll+0xa4>
 800e682:	682c      	ldr	r4, [r5, #0]
 800e684:	2c01      	cmp	r4, #1
 800e686:	d014      	beq.n	800e6b2 <xTaskResumeAll+0xc2>
 800e688:	2400      	movs	r4, #0
 800e68a:	f005 fc35 	bl	8013ef8 <vPortExitCritical>
 800e68e:	4620      	mov	r0, r4
 800e690:	e8bd 8ff8 	ldmia.w	sp!, {r3, r4, r5, r6, r7, r8, r9, sl, fp, pc}
 800e694:	6822      	ldr	r2, [r4, #0]
 800e696:	2a00      	cmp	r2, #0
 800e698:	d0f3      	beq.n	800e682 <xTaskResumeAll+0x92>
 800e69a:	2601      	movs	r6, #1
 800e69c:	f7ff fef4 	bl	800e488 <xTaskIncrementTick>
 800e6a0:	b100      	cbz	r0, 800e6a4 <xTaskResumeAll+0xb4>
 800e6a2:	602e      	str	r6, [r5, #0]
 800e6a4:	6823      	ldr	r3, [r4, #0]
 800e6a6:	1e58      	subs	r0, r3, #1
 800e6a8:	6020      	str	r0, [r4, #0]
 800e6aa:	6821      	ldr	r1, [r4, #0]
 800e6ac:	2900      	cmp	r1, #0
 800e6ae:	d1f5      	bne.n	800e69c <xTaskResumeAll+0xac>
 800e6b0:	e7e7      	b.n	800e682 <xTaskResumeAll+0x92>
 800e6b2:	f005 fbe1 	bl	8013e78 <vPortYield>
 800e6b6:	e7e8      	b.n	800e68a <xTaskResumeAll+0x9a>
 800e6b8:	100009c0 	.word	0x100009c0
 800e6bc:	10000a18 	.word	0x10000a18
 800e6c0:	10000a20 	.word	0x10000a20
 800e6c4:	10000a1c 	.word	0x10000a1c
 800e6c8:	10000a14 	.word	0x10000a14
 800e6cc:	100009c8 	.word	0x100009c8
 800e6d0:	100009c4 	.word	0x100009c4

0800e6d4 <prvIdleTask>:
 800e6d4:	e92d 4ff8 	stmdb	sp!, {r3, r4, r5, r6, r7, r8, r9, sl, fp, lr}
 800e6d8:	4e1d      	ldr	r6, [pc, #116]	; (800e750 <prvIdleTask+0x7c>)
 800e6da:	4d1e      	ldr	r5, [pc, #120]	; (800e754 <prvIdleTask+0x80>)
 800e6dc:	4c1e      	ldr	r4, [pc, #120]	; (800e758 <prvIdleTask+0x84>)
 800e6de:	f8df 807c 	ldr.w	r8, [pc, #124]	; 800e75c <prvIdleTask+0x88>
 800e6e2:	f8df 907c 	ldr.w	r9, [pc, #124]	; 800e760 <prvIdleTask+0x8c>
 800e6e6:	46b2      	mov	sl, r6
 800e6e8:	e006      	b.n	800e6f8 <prvIdleTask+0x24>
 800e6ea:	6821      	ldr	r1, [r4, #0]
 800e6ec:	6837      	ldr	r7, [r6, #0]
 800e6ee:	1c4a      	adds	r2, r1, #1
 800e6f0:	6022      	str	r2, [r4, #0]
 800e6f2:	f7ff ff7d 	bl	800e5f0 <xTaskResumeAll>
 800e6f6:	b95f      	cbnz	r7, 800e710 <prvIdleTask+0x3c>
 800e6f8:	682b      	ldr	r3, [r5, #0]
 800e6fa:	2b00      	cmp	r3, #0
 800e6fc:	d1f5      	bne.n	800e6ea <prvIdleTask+0x16>
 800e6fe:	f8d9 0000 	ldr.w	r0, [r9]
 800e702:	2801      	cmp	r0, #1
 800e704:	d901      	bls.n	800e70a <prvIdleTask+0x36>
 800e706:	f005 fbb7 	bl	8013e78 <vPortYield>
 800e70a:	f7ff fb6d 	bl	800dde8 <vApplicationIdleHook>
 800e70e:	e7f3      	b.n	800e6f8 <prvIdleTask+0x24>
 800e710:	f005 fbc6 	bl	8013ea0 <vPortEnterCritical>
 800e714:	f8da 300c 	ldr.w	r3, [sl, #12]
 800e718:	f8d3 b00c 	ldr.w	fp, [r3, #12]
 800e71c:	f10b 0004 	add.w	r0, fp, #4
 800e720:	f000 fee4 	bl	800f4ec <uxListRemove>
 800e724:	f8d8 0000 	ldr.w	r0, [r8]
 800e728:	f640 1730 	movw	r7, #2352	; 0x930
 800e72c:	1e41      	subs	r1, r0, #1
 800e72e:	f2c1 0700 	movt	r7, #4096	; 0x1000
 800e732:	f8c8 1000 	str.w	r1, [r8]
 800e736:	683a      	ldr	r2, [r7, #0]
 800e738:	1e53      	subs	r3, r2, #1
 800e73a:	603b      	str	r3, [r7, #0]
 800e73c:	f005 fbdc 	bl	8013ef8 <vPortExitCritical>
 800e740:	f8db 0030 	ldr.w	r0, [fp, #48]	; 0x30
 800e744:	f005 fcd0 	bl	80140e8 <vPortFree>
 800e748:	4658      	mov	r0, fp
 800e74a:	f005 fccd 	bl	80140e8 <vPortFree>
 800e74e:	e7d3      	b.n	800e6f8 <prvIdleTask+0x24>
 800e750:	10000934 	.word	0x10000934
 800e754:	10000930 	.word	0x10000930
 800e758:	100009c0 	.word	0x100009c0
 800e75c:	10000a18 	.word	0x10000a18
 800e760:	1000095c 	.word	0x1000095c

0800e764 <vTaskSwitchContext>:
 800e764:	b538      	push	{r3, r4, r5, lr}
 800e766:	4b21      	ldr	r3, [pc, #132]	; (800e7ec <vTaskSwitchContext+0x88>)
 800e768:	6818      	ldr	r0, [r3, #0]
 800e76a:	2800      	cmp	r0, #0
 800e76c:	d139      	bne.n	800e7e2 <vTaskSwitchContext+0x7e>
 800e76e:	4a20      	ldr	r2, [pc, #128]	; (800e7f0 <vTaskSwitchContext+0x8c>)
 800e770:	4c20      	ldr	r4, [pc, #128]	; (800e7f4 <vTaskSwitchContext+0x90>)
 800e772:	6010      	str	r0, [r2, #0]
 800e774:	6821      	ldr	r1, [r4, #0]
 800e776:	6825      	ldr	r5, [r4, #0]
 800e778:	6808      	ldr	r0, [r1, #0]
 800e77a:	6b2b      	ldr	r3, [r5, #48]	; 0x30
 800e77c:	4298      	cmp	r0, r3
 800e77e:	d92a      	bls.n	800e7d6 <vTaskSwitchContext+0x72>
 800e780:	6822      	ldr	r2, [r4, #0]
 800e782:	491d      	ldr	r1, [pc, #116]	; (800e7f8 <vTaskSwitchContext+0x94>)
 800e784:	6b10      	ldr	r0, [r2, #48]	; 0x30
 800e786:	4d1b      	ldr	r5, [pc, #108]	; (800e7f4 <vTaskSwitchContext+0x90>)
 800e788:	2214      	movs	r2, #20
 800e78a:	f005 ffd9 	bl	8014740 <memcmp>
 800e78e:	b9e0      	cbnz	r0, 800e7ca <vTaskSwitchContext+0x66>
 800e790:	491a      	ldr	r1, [pc, #104]	; (800e7fc <vTaskSwitchContext+0x98>)
 800e792:	6808      	ldr	r0, [r1, #0]
 800e794:	fab0 f380 	clz	r3, r0
 800e798:	b2da      	uxtb	r2, r3
 800e79a:	f1c2 011f 	rsb	r1, r2, #31
 800e79e:	eb01 0081 	add.w	r0, r1, r1, lsl #2
 800e7a2:	0083      	lsls	r3, r0, #2
 800e7a4:	4916      	ldr	r1, [pc, #88]	; (800e800 <vTaskSwitchContext+0x9c>)
 800e7a6:	58c8      	ldr	r0, [r1, r3]
 800e7a8:	18ca      	adds	r2, r1, r3
 800e7aa:	b158      	cbz	r0, 800e7c4 <vTaskSwitchContext+0x60>
 800e7ac:	6851      	ldr	r1, [r2, #4]
 800e7ae:	684b      	ldr	r3, [r1, #4]
 800e7b0:	f102 0008 	add.w	r0, r2, #8
 800e7b4:	4283      	cmp	r3, r0
 800e7b6:	6053      	str	r3, [r2, #4]
 800e7b8:	bf04      	itt	eq
 800e7ba:	685b      	ldreq	r3, [r3, #4]
 800e7bc:	6053      	streq	r3, [r2, #4]
 800e7be:	68da      	ldr	r2, [r3, #12]
 800e7c0:	6022      	str	r2, [r4, #0]
 800e7c2:	bd38      	pop	{r3, r4, r5, pc}
 800e7c4:	f005 fb64 	bl	8013e90 <ulPortSetInterruptMask>
 800e7c8:	e7fe      	b.n	800e7c8 <vTaskSwitchContext+0x64>
 800e7ca:	6828      	ldr	r0, [r5, #0]
 800e7cc:	6829      	ldr	r1, [r5, #0]
 800e7ce:	3134      	adds	r1, #52	; 0x34
 800e7d0:	f7ff fb12 	bl	800ddf8 <vApplicationStackOverflowHook>
 800e7d4:	e7dc      	b.n	800e790 <vTaskSwitchContext+0x2c>
 800e7d6:	6820      	ldr	r0, [r4, #0]
 800e7d8:	6821      	ldr	r1, [r4, #0]
 800e7da:	3134      	adds	r1, #52	; 0x34
 800e7dc:	f7ff fb0c 	bl	800ddf8 <vApplicationStackOverflowHook>
 800e7e0:	e7ce      	b.n	800e780 <vTaskSwitchContext+0x1c>
 800e7e2:	4b03      	ldr	r3, [pc, #12]	; (800e7f0 <vTaskSwitchContext+0x8c>)
 800e7e4:	2101      	movs	r1, #1
 800e7e6:	6019      	str	r1, [r3, #0]
 800e7e8:	bd38      	pop	{r3, r4, r5, pc}
 800e7ea:	bf00      	nop
 800e7ec:	100009c0 	.word	0x100009c0
 800e7f0:	10000a20 	.word	0x10000a20
 800e7f4:	100009c4 	.word	0x100009c4
 800e7f8:	08014e90 	.word	0x08014e90
 800e7fc:	10000a1c 	.word	0x10000a1c
 800e800:	1000095c 	.word	0x1000095c

0800e804 <vTaskPlaceOnEventList>:
 800e804:	b538      	push	{r3, r4, r5, lr}
 800e806:	460d      	mov	r5, r1
 800e808:	2800      	cmp	r0, #0
 800e80a:	d039      	beq.n	800e880 <vTaskPlaceOnEventList+0x7c>
 800e80c:	4c1e      	ldr	r4, [pc, #120]	; (800e888 <vTaskPlaceOnEventList+0x84>)
 800e80e:	6821      	ldr	r1, [r4, #0]
 800e810:	3118      	adds	r1, #24
 800e812:	f000 fe51 	bl	800f4b8 <vListInsert>
 800e816:	6820      	ldr	r0, [r4, #0]
 800e818:	3004      	adds	r0, #4
 800e81a:	f000 fe67 	bl	800f4ec <uxListRemove>
 800e81e:	b948      	cbnz	r0, 800e834 <vTaskPlaceOnEventList+0x30>
 800e820:	6822      	ldr	r2, [r4, #0]
 800e822:	4b1a      	ldr	r3, [pc, #104]	; (800e88c <vTaskPlaceOnEventList+0x88>)
 800e824:	6ad1      	ldr	r1, [r2, #44]	; 0x2c
 800e826:	681a      	ldr	r2, [r3, #0]
 800e828:	2001      	movs	r0, #1
 800e82a:	fa00 f101 	lsl.w	r1, r0, r1
 800e82e:	ea22 0201 	bic.w	r2, r2, r1
 800e832:	601a      	str	r2, [r3, #0]
 800e834:	1c69      	adds	r1, r5, #1
 800e836:	d01c      	beq.n	800e872 <vTaskPlaceOnEventList+0x6e>
 800e838:	4a15      	ldr	r2, [pc, #84]	; (800e890 <vTaskPlaceOnEventList+0x8c>)
 800e83a:	4b13      	ldr	r3, [pc, #76]	; (800e888 <vTaskPlaceOnEventList+0x84>)
 800e83c:	6810      	ldr	r0, [r2, #0]
 800e83e:	6821      	ldr	r1, [r4, #0]
 800e840:	6812      	ldr	r2, [r2, #0]
 800e842:	182c      	adds	r4, r5, r0
 800e844:	4294      	cmp	r4, r2
 800e846:	604c      	str	r4, [r1, #4]
 800e848:	d30b      	bcc.n	800e862 <vTaskPlaceOnEventList+0x5e>
 800e84a:	4812      	ldr	r0, [pc, #72]	; (800e894 <vTaskPlaceOnEventList+0x90>)
 800e84c:	6800      	ldr	r0, [r0, #0]
 800e84e:	681b      	ldr	r3, [r3, #0]
 800e850:	1d19      	adds	r1, r3, #4
 800e852:	f000 fe31 	bl	800f4b8 <vListInsert>
 800e856:	4910      	ldr	r1, [pc, #64]	; (800e898 <vTaskPlaceOnEventList+0x94>)
 800e858:	680a      	ldr	r2, [r1, #0]
 800e85a:	4294      	cmp	r4, r2
 800e85c:	bf38      	it	cc
 800e85e:	600c      	strcc	r4, [r1, #0]
 800e860:	bd38      	pop	{r3, r4, r5, pc}
 800e862:	480e      	ldr	r0, [pc, #56]	; (800e89c <vTaskPlaceOnEventList+0x98>)
 800e864:	6800      	ldr	r0, [r0, #0]
 800e866:	681b      	ldr	r3, [r3, #0]
 800e868:	1d19      	adds	r1, r3, #4
 800e86a:	e8bd 4038 	ldmia.w	sp!, {r3, r4, r5, lr}
 800e86e:	f000 be23 	b.w	800f4b8 <vListInsert>
 800e872:	6821      	ldr	r1, [r4, #0]
 800e874:	480a      	ldr	r0, [pc, #40]	; (800e8a0 <vTaskPlaceOnEventList+0x9c>)
 800e876:	3104      	adds	r1, #4
 800e878:	e8bd 4038 	ldmia.w	sp!, {r3, r4, r5, lr}
 800e87c:	f000 be0e 	b.w	800f49c <vListInsertEnd>
 800e880:	f005 fb06 	bl	8013e90 <ulPortSetInterruptMask>
 800e884:	e7fe      	b.n	800e884 <vTaskPlaceOnEventList+0x80>
 800e886:	bf00      	nop
 800e888:	100009c4 	.word	0x100009c4
 800e88c:	10000a1c 	.word	0x10000a1c
 800e890:	100009e0 	.word	0x100009e0
 800e894:	10000928 	.word	0x10000928
 800e898:	1000001c 	.word	0x1000001c
 800e89c:	100009e4 	.word	0x100009e4
 800e8a0:	10000948 	.word	0x10000948

0800e8a4 <vTaskPlaceOnEventListRestricted>:
 800e8a4:	b538      	push	{r3, r4, r5, lr}
 800e8a6:	460c      	mov	r4, r1
 800e8a8:	2800      	cmp	r0, #0
 800e8aa:	d030      	beq.n	800e90e <vTaskPlaceOnEventListRestricted+0x6a>
 800e8ac:	4d19      	ldr	r5, [pc, #100]	; (800e914 <vTaskPlaceOnEventListRestricted+0x70>)
 800e8ae:	6829      	ldr	r1, [r5, #0]
 800e8b0:	3118      	adds	r1, #24
 800e8b2:	f000 fdf3 	bl	800f49c <vListInsertEnd>
 800e8b6:	6828      	ldr	r0, [r5, #0]
 800e8b8:	3004      	adds	r0, #4
 800e8ba:	f000 fe17 	bl	800f4ec <uxListRemove>
 800e8be:	b948      	cbnz	r0, 800e8d4 <vTaskPlaceOnEventListRestricted+0x30>
 800e8c0:	682a      	ldr	r2, [r5, #0]
 800e8c2:	4b15      	ldr	r3, [pc, #84]	; (800e918 <vTaskPlaceOnEventListRestricted+0x74>)
 800e8c4:	6ad1      	ldr	r1, [r2, #44]	; 0x2c
 800e8c6:	681a      	ldr	r2, [r3, #0]
 800e8c8:	2001      	movs	r0, #1
 800e8ca:	fa00 f101 	lsl.w	r1, r0, r1
 800e8ce:	ea22 0201 	bic.w	r2, r2, r1
 800e8d2:	601a      	str	r2, [r3, #0]
 800e8d4:	4a11      	ldr	r2, [pc, #68]	; (800e91c <vTaskPlaceOnEventListRestricted+0x78>)
 800e8d6:	4b0f      	ldr	r3, [pc, #60]	; (800e914 <vTaskPlaceOnEventListRestricted+0x70>)
 800e8d8:	6810      	ldr	r0, [r2, #0]
 800e8da:	6829      	ldr	r1, [r5, #0]
 800e8dc:	6812      	ldr	r2, [r2, #0]
 800e8de:	1824      	adds	r4, r4, r0
 800e8e0:	4294      	cmp	r4, r2
 800e8e2:	604c      	str	r4, [r1, #4]
 800e8e4:	d30b      	bcc.n	800e8fe <vTaskPlaceOnEventListRestricted+0x5a>
 800e8e6:	480e      	ldr	r0, [pc, #56]	; (800e920 <vTaskPlaceOnEventListRestricted+0x7c>)
 800e8e8:	6800      	ldr	r0, [r0, #0]
 800e8ea:	681b      	ldr	r3, [r3, #0]
 800e8ec:	1d19      	adds	r1, r3, #4
 800e8ee:	f000 fde3 	bl	800f4b8 <vListInsert>
 800e8f2:	490c      	ldr	r1, [pc, #48]	; (800e924 <vTaskPlaceOnEventListRestricted+0x80>)
 800e8f4:	680a      	ldr	r2, [r1, #0]
 800e8f6:	4294      	cmp	r4, r2
 800e8f8:	bf38      	it	cc
 800e8fa:	600c      	strcc	r4, [r1, #0]
 800e8fc:	bd38      	pop	{r3, r4, r5, pc}
 800e8fe:	480a      	ldr	r0, [pc, #40]	; (800e928 <vTaskPlaceOnEventListRestricted+0x84>)
 800e900:	6800      	ldr	r0, [r0, #0]
 800e902:	681b      	ldr	r3, [r3, #0]
 800e904:	1d19      	adds	r1, r3, #4
 800e906:	e8bd 4038 	ldmia.w	sp!, {r3, r4, r5, lr}
 800e90a:	f000 bdd5 	b.w	800f4b8 <vListInsert>
 800e90e:	f005 fabf 	bl	8013e90 <ulPortSetInterruptMask>
 800e912:	e7fe      	b.n	800e912 <vTaskPlaceOnEventListRestricted+0x6e>
 800e914:	100009c4 	.word	0x100009c4
 800e918:	10000a1c 	.word	0x10000a1c
 800e91c:	100009e0 	.word	0x100009e0
 800e920:	10000928 	.word	0x10000928
 800e924:	1000001c 	.word	0x1000001c
 800e928:	100009e4 	.word	0x100009e4

0800e92c <xTaskRemoveFromEventList>:
 800e92c:	68c3      	ldr	r3, [r0, #12]
 800e92e:	b570      	push	{r4, r5, r6, lr}
 800e930:	68dc      	ldr	r4, [r3, #12]
 800e932:	2c00      	cmp	r4, #0
 800e934:	d02c      	beq.n	800e990 <xTaskRemoveFromEventList+0x64>
 800e936:	f104 0518 	add.w	r5, r4, #24
 800e93a:	4628      	mov	r0, r5
 800e93c:	f000 fdd6 	bl	800f4ec <uxListRemove>
 800e940:	4815      	ldr	r0, [pc, #84]	; (800e998 <xTaskRemoveFromEventList+0x6c>)
 800e942:	6801      	ldr	r1, [r0, #0]
 800e944:	b9e9      	cbnz	r1, 800e982 <xTaskRemoveFromEventList+0x56>
 800e946:	1d25      	adds	r5, r4, #4
 800e948:	4628      	mov	r0, r5
 800e94a:	f000 fdcf 	bl	800f4ec <uxListRemove>
 800e94e:	6ae3      	ldr	r3, [r4, #44]	; 0x2c
 800e950:	4a12      	ldr	r2, [pc, #72]	; (800e99c <xTaskRemoveFromEventList+0x70>)
 800e952:	2601      	movs	r6, #1
 800e954:	6810      	ldr	r0, [r2, #0]
 800e956:	eb03 0183 	add.w	r1, r3, r3, lsl #2
 800e95a:	fa06 f603 	lsl.w	r6, r6, r3
 800e95e:	4b10      	ldr	r3, [pc, #64]	; (800e9a0 <xTaskRemoveFromEventList+0x74>)
 800e960:	4306      	orrs	r6, r0
 800e962:	eb03 0081 	add.w	r0, r3, r1, lsl #2
 800e966:	4629      	mov	r1, r5
 800e968:	6016      	str	r6, [r2, #0]
 800e96a:	f000 fd97 	bl	800f49c <vListInsertEnd>
 800e96e:	480d      	ldr	r0, [pc, #52]	; (800e9a4 <xTaskRemoveFromEventList+0x78>)
 800e970:	6ae2      	ldr	r2, [r4, #44]	; 0x2c
 800e972:	6801      	ldr	r1, [r0, #0]
 800e974:	6acb      	ldr	r3, [r1, #44]	; 0x2c
 800e976:	429a      	cmp	r2, r3
 800e978:	d908      	bls.n	800e98c <xTaskRemoveFromEventList+0x60>
 800e97a:	4a0b      	ldr	r2, [pc, #44]	; (800e9a8 <xTaskRemoveFromEventList+0x7c>)
 800e97c:	2001      	movs	r0, #1
 800e97e:	6010      	str	r0, [r2, #0]
 800e980:	bd70      	pop	{r4, r5, r6, pc}
 800e982:	480a      	ldr	r0, [pc, #40]	; (800e9ac <xTaskRemoveFromEventList+0x80>)
 800e984:	4629      	mov	r1, r5
 800e986:	f000 fd89 	bl	800f49c <vListInsertEnd>
 800e98a:	e7f0      	b.n	800e96e <xTaskRemoveFromEventList+0x42>
 800e98c:	2000      	movs	r0, #0
 800e98e:	bd70      	pop	{r4, r5, r6, pc}
 800e990:	f005 fa7e 	bl	8013e90 <ulPortSetInterruptMask>
 800e994:	e7fe      	b.n	800e994 <xTaskRemoveFromEventList+0x68>
 800e996:	bf00      	nop
 800e998:	100009c0 	.word	0x100009c0
 800e99c:	10000a1c 	.word	0x10000a1c
 800e9a0:	1000095c 	.word	0x1000095c
 800e9a4:	100009c4 	.word	0x100009c4
 800e9a8:	10000a20 	.word	0x10000a20
 800e9ac:	100009c8 	.word	0x100009c8

0800e9b0 <vTaskSetTimeOutState>:
 800e9b0:	b508      	push	{r3, lr}
 800e9b2:	b130      	cbz	r0, 800e9c2 <vTaskSetTimeOutState+0x12>
 800e9b4:	4b04      	ldr	r3, [pc, #16]	; (800e9c8 <vTaskSetTimeOutState+0x18>)
 800e9b6:	4905      	ldr	r1, [pc, #20]	; (800e9cc <vTaskSetTimeOutState+0x1c>)
 800e9b8:	681a      	ldr	r2, [r3, #0]
 800e9ba:	680b      	ldr	r3, [r1, #0]
 800e9bc:	e880 000c 	stmia.w	r0, {r2, r3}
 800e9c0:	bd08      	pop	{r3, pc}
 800e9c2:	f005 fa65 	bl	8013e90 <ulPortSetInterruptMask>
 800e9c6:	e7fe      	b.n	800e9c6 <vTaskSetTimeOutState+0x16>
 800e9c8:	100009dc 	.word	0x100009dc
 800e9cc:	100009e0 	.word	0x100009e0

0800e9d0 <xTaskCheckForTimeOut>:
 800e9d0:	b5f8      	push	{r3, r4, r5, r6, r7, lr}
 800e9d2:	4604      	mov	r4, r0
 800e9d4:	460d      	mov	r5, r1
 800e9d6:	b328      	cbz	r0, 800ea24 <xTaskCheckForTimeOut+0x54>
 800e9d8:	b309      	cbz	r1, 800ea1e <xTaskCheckForTimeOut+0x4e>
 800e9da:	f005 fa61 	bl	8013ea0 <vPortEnterCritical>
 800e9de:	6829      	ldr	r1, [r5, #0]
 800e9e0:	4812      	ldr	r0, [pc, #72]	; (800ea2c <xTaskCheckForTimeOut+0x5c>)
 800e9e2:	1c4b      	adds	r3, r1, #1
 800e9e4:	6802      	ldr	r2, [r0, #0]
 800e9e6:	d018      	beq.n	800ea1a <xTaskCheckForTimeOut+0x4a>
 800e9e8:	4e11      	ldr	r6, [pc, #68]	; (800ea30 <xTaskCheckForTimeOut+0x60>)
 800e9ea:	6823      	ldr	r3, [r4, #0]
 800e9ec:	6837      	ldr	r7, [r6, #0]
 800e9ee:	42bb      	cmp	r3, r7
 800e9f0:	6863      	ldr	r3, [r4, #4]
 800e9f2:	d001      	beq.n	800e9f8 <xTaskCheckForTimeOut+0x28>
 800e9f4:	429a      	cmp	r2, r3
 800e9f6:	d202      	bcs.n	800e9fe <xTaskCheckForTimeOut+0x2e>
 800e9f8:	1ad7      	subs	r7, r2, r3
 800e9fa:	42b9      	cmp	r1, r7
 800e9fc:	d804      	bhi.n	800ea08 <xTaskCheckForTimeOut+0x38>
 800e9fe:	2501      	movs	r5, #1
 800ea00:	f005 fa7a 	bl	8013ef8 <vPortExitCritical>
 800ea04:	4628      	mov	r0, r5
 800ea06:	bdf8      	pop	{r3, r4, r5, r6, r7, pc}
 800ea08:	6836      	ldr	r6, [r6, #0]
 800ea0a:	6800      	ldr	r0, [r0, #0]
 800ea0c:	1a89      	subs	r1, r1, r2
 800ea0e:	18ca      	adds	r2, r1, r3
 800ea10:	602a      	str	r2, [r5, #0]
 800ea12:	2500      	movs	r5, #0
 800ea14:	6026      	str	r6, [r4, #0]
 800ea16:	6060      	str	r0, [r4, #4]
 800ea18:	e7f2      	b.n	800ea00 <xTaskCheckForTimeOut+0x30>
 800ea1a:	2500      	movs	r5, #0
 800ea1c:	e7f0      	b.n	800ea00 <xTaskCheckForTimeOut+0x30>
 800ea1e:	f005 fa37 	bl	8013e90 <ulPortSetInterruptMask>
 800ea22:	e7fe      	b.n	800ea22 <xTaskCheckForTimeOut+0x52>
 800ea24:	f005 fa34 	bl	8013e90 <ulPortSetInterruptMask>
 800ea28:	e7fe      	b.n	800ea28 <xTaskCheckForTimeOut+0x58>
 800ea2a:	bf00      	nop
 800ea2c:	100009e0 	.word	0x100009e0
 800ea30:	100009dc 	.word	0x100009dc

0800ea34 <vTaskMissedYield>:
 800ea34:	f640 2320 	movw	r3, #2592	; 0xa20
 800ea38:	f2c1 0300 	movt	r3, #4096	; 0x1000
 800ea3c:	2201      	movs	r2, #1
 800ea3e:	601a      	str	r2, [r3, #0]
 800ea40:	4770      	bx	lr
 800ea42:	bf00      	nop

0800ea44 <xTaskGetSchedulerState>:
 800ea44:	4b05      	ldr	r3, [pc, #20]	; (800ea5c <xTaskGetSchedulerState+0x18>)
 800ea46:	6818      	ldr	r0, [r3, #0]
 800ea48:	b130      	cbz	r0, 800ea58 <xTaskGetSchedulerState+0x14>
 800ea4a:	4905      	ldr	r1, [pc, #20]	; (800ea60 <xTaskGetSchedulerState+0x1c>)
 800ea4c:	680a      	ldr	r2, [r1, #0]
 800ea4e:	2a00      	cmp	r2, #0
 800ea50:	bf0c      	ite	eq
 800ea52:	2002      	moveq	r0, #2
 800ea54:	2000      	movne	r0, #0
 800ea56:	4770      	bx	lr
 800ea58:	2001      	movs	r0, #1
 800ea5a:	4770      	bx	lr
 800ea5c:	1000092c 	.word	0x1000092c
 800ea60:	100009c0 	.word	0x100009c0

0800ea64 <vTaskPriorityInherit>:
 800ea64:	b5f8      	push	{r3, r4, r5, r6, r7, lr}
 800ea66:	4604      	mov	r4, r0
 800ea68:	b1c0      	cbz	r0, 800ea9c <vTaskPriorityInherit+0x38>
 800ea6a:	4d20      	ldr	r5, [pc, #128]	; (800eaec <vTaskPriorityInherit+0x88>)
 800ea6c:	6ac3      	ldr	r3, [r0, #44]	; 0x2c
 800ea6e:	682a      	ldr	r2, [r5, #0]
 800ea70:	6ad0      	ldr	r0, [r2, #44]	; 0x2c
 800ea72:	4283      	cmp	r3, r0
 800ea74:	d212      	bcs.n	800ea9c <vTaskPriorityInherit+0x38>
 800ea76:	69a1      	ldr	r1, [r4, #24]
 800ea78:	2900      	cmp	r1, #0
 800ea7a:	db04      	blt.n	800ea86 <vTaskPriorityInherit+0x22>
 800ea7c:	682e      	ldr	r6, [r5, #0]
 800ea7e:	6af2      	ldr	r2, [r6, #44]	; 0x2c
 800ea80:	f1c2 0005 	rsb	r0, r2, #5
 800ea84:	61a0      	str	r0, [r4, #24]
 800ea86:	4e1a      	ldr	r6, [pc, #104]	; (800eaf0 <vTaskPriorityInherit+0x8c>)
 800ea88:	6961      	ldr	r1, [r4, #20]
 800ea8a:	eb03 0383 	add.w	r3, r3, r3, lsl #2
 800ea8e:	eb06 0283 	add.w	r2, r6, r3, lsl #2
 800ea92:	4291      	cmp	r1, r2
 800ea94:	d003      	beq.n	800ea9e <vTaskPriorityInherit+0x3a>
 800ea96:	6828      	ldr	r0, [r5, #0]
 800ea98:	6ac1      	ldr	r1, [r0, #44]	; 0x2c
 800ea9a:	62e1      	str	r1, [r4, #44]	; 0x2c
 800ea9c:	bdf8      	pop	{r3, r4, r5, r6, r7, pc}
 800ea9e:	1d27      	adds	r7, r4, #4
 800eaa0:	4638      	mov	r0, r7
 800eaa2:	f000 fd23 	bl	800f4ec <uxListRemove>
 800eaa6:	b9f8      	cbnz	r0, 800eae8 <vTaskPriorityInherit+0x84>
 800eaa8:	6ae3      	ldr	r3, [r4, #44]	; 0x2c
 800eaaa:	eb03 0283 	add.w	r2, r3, r3, lsl #2
 800eaae:	f856 0022 	ldr.w	r0, [r6, r2, lsl #2]
 800eab2:	b9c8      	cbnz	r0, 800eae8 <vTaskPriorityInherit+0x84>
 800eab4:	4a0f      	ldr	r2, [pc, #60]	; (800eaf4 <vTaskPriorityInherit+0x90>)
 800eab6:	2001      	movs	r0, #1
 800eab8:	6811      	ldr	r1, [r2, #0]
 800eaba:	fa00 f303 	lsl.w	r3, r0, r3
 800eabe:	ea21 0103 	bic.w	r1, r1, r3
 800eac2:	6011      	str	r1, [r2, #0]
 800eac4:	682d      	ldr	r5, [r5, #0]
 800eac6:	6811      	ldr	r1, [r2, #0]
 800eac8:	6aeb      	ldr	r3, [r5, #44]	; 0x2c
 800eaca:	2501      	movs	r5, #1
 800eacc:	fa05 f503 	lsl.w	r5, r5, r3
 800ead0:	eb03 0083 	add.w	r0, r3, r3, lsl #2
 800ead4:	430d      	orrs	r5, r1
 800ead6:	eb06 0080 	add.w	r0, r6, r0, lsl #2
 800eada:	4639      	mov	r1, r7
 800eadc:	62e3      	str	r3, [r4, #44]	; 0x2c
 800eade:	6015      	str	r5, [r2, #0]
 800eae0:	e8bd 40f8 	ldmia.w	sp!, {r3, r4, r5, r6, r7, lr}
 800eae4:	f000 bcda 	b.w	800f49c <vListInsertEnd>
 800eae8:	4a02      	ldr	r2, [pc, #8]	; (800eaf4 <vTaskPriorityInherit+0x90>)
 800eaea:	e7eb      	b.n	800eac4 <vTaskPriorityInherit+0x60>
 800eaec:	100009c4 	.word	0x100009c4
 800eaf0:	1000095c 	.word	0x1000095c
 800eaf4:	10000a1c 	.word	0x10000a1c

0800eaf8 <xTaskPriorityDisinherit>:
 800eaf8:	b5f8      	push	{r3, r4, r5, r6, r7, lr}
 800eafa:	4604      	mov	r4, r0
 800eafc:	b148      	cbz	r0, 800eb12 <xTaskPriorityDisinherit+0x1a>
 800eafe:	6cc3      	ldr	r3, [r0, #76]	; 0x4c
 800eb00:	2b00      	cmp	r3, #0
 800eb02:	d02b      	beq.n	800eb5c <xTaskPriorityDisinherit+0x64>
 800eb04:	6ac1      	ldr	r1, [r0, #44]	; 0x2c
 800eb06:	6c82      	ldr	r2, [r0, #72]	; 0x48
 800eb08:	1e58      	subs	r0, r3, #1
 800eb0a:	4291      	cmp	r1, r2
 800eb0c:	64e0      	str	r0, [r4, #76]	; 0x4c
 800eb0e:	d000      	beq.n	800eb12 <xTaskPriorityDisinherit+0x1a>
 800eb10:	b108      	cbz	r0, 800eb16 <xTaskPriorityDisinherit+0x1e>
 800eb12:	2000      	movs	r0, #0
 800eb14:	bdf8      	pop	{r3, r4, r5, r6, r7, pc}
 800eb16:	1d27      	adds	r7, r4, #4
 800eb18:	4638      	mov	r0, r7
 800eb1a:	f000 fce7 	bl	800f4ec <uxListRemove>
 800eb1e:	bb00      	cbnz	r0, 800eb62 <xTaskPriorityDisinherit+0x6a>
 800eb20:	6ae6      	ldr	r6, [r4, #44]	; 0x2c
 800eb22:	4d16      	ldr	r5, [pc, #88]	; (800eb7c <xTaskPriorityDisinherit+0x84>)
 800eb24:	eb06 0386 	add.w	r3, r6, r6, lsl #2
 800eb28:	f855 1023 	ldr.w	r1, [r5, r3, lsl #2]
 800eb2c:	b1e1      	cbz	r1, 800eb68 <xTaskPriorityDisinherit+0x70>
 800eb2e:	4b14      	ldr	r3, [pc, #80]	; (800eb80 <xTaskPriorityDisinherit+0x88>)
 800eb30:	6ca2      	ldr	r2, [r4, #72]	; 0x48
 800eb32:	6818      	ldr	r0, [r3, #0]
 800eb34:	62e2      	str	r2, [r4, #44]	; 0x2c
 800eb36:	2601      	movs	r6, #1
 800eb38:	fa06 fe02 	lsl.w	lr, r6, r2
 800eb3c:	f1c2 0105 	rsb	r1, r2, #5
 800eb40:	eb02 0282 	add.w	r2, r2, r2, lsl #2
 800eb44:	ea4e 0c00 	orr.w	ip, lr, r0
 800eb48:	61a1      	str	r1, [r4, #24]
 800eb4a:	eb05 0082 	add.w	r0, r5, r2, lsl #2
 800eb4e:	4639      	mov	r1, r7
 800eb50:	f8c3 c000 	str.w	ip, [r3]
 800eb54:	f000 fca2 	bl	800f49c <vListInsertEnd>
 800eb58:	4630      	mov	r0, r6
 800eb5a:	bdf8      	pop	{r3, r4, r5, r6, r7, pc}
 800eb5c:	f005 f998 	bl	8013e90 <ulPortSetInterruptMask>
 800eb60:	e7fe      	b.n	800eb60 <xTaskPriorityDisinherit+0x68>
 800eb62:	4d06      	ldr	r5, [pc, #24]	; (800eb7c <xTaskPriorityDisinherit+0x84>)
 800eb64:	4b06      	ldr	r3, [pc, #24]	; (800eb80 <xTaskPriorityDisinherit+0x88>)
 800eb66:	e7e3      	b.n	800eb30 <xTaskPriorityDisinherit+0x38>
 800eb68:	4b05      	ldr	r3, [pc, #20]	; (800eb80 <xTaskPriorityDisinherit+0x88>)
 800eb6a:	2201      	movs	r2, #1
 800eb6c:	6819      	ldr	r1, [r3, #0]
 800eb6e:	fa02 f006 	lsl.w	r0, r2, r6
 800eb72:	ea21 0600 	bic.w	r6, r1, r0
 800eb76:	601e      	str	r6, [r3, #0]
 800eb78:	e7da      	b.n	800eb30 <xTaskPriorityDisinherit+0x38>
 800eb7a:	bf00      	nop
 800eb7c:	1000095c 	.word	0x1000095c
 800eb80:	10000a1c 	.word	0x10000a1c

0800eb84 <pvTaskIncrementMutexHeldCount>:
 800eb84:	4b04      	ldr	r3, [pc, #16]	; (800eb98 <pvTaskIncrementMutexHeldCount+0x14>)
 800eb86:	681a      	ldr	r2, [r3, #0]
 800eb88:	b11a      	cbz	r2, 800eb92 <pvTaskIncrementMutexHeldCount+0xe>
 800eb8a:	6818      	ldr	r0, [r3, #0]
 800eb8c:	6cc1      	ldr	r1, [r0, #76]	; 0x4c
 800eb8e:	1c4a      	adds	r2, r1, #1
 800eb90:	64c2      	str	r2, [r0, #76]	; 0x4c
 800eb92:	6818      	ldr	r0, [r3, #0]
 800eb94:	4770      	bx	lr
 800eb96:	bf00      	nop
 800eb98:	100009c4 	.word	0x100009c4

0800eb9c <prvUnlockQueue>:
 800eb9c:	b538      	push	{r3, r4, r5, lr}
 800eb9e:	4604      	mov	r4, r0
 800eba0:	f005 f97e 	bl	8013ea0 <vPortEnterCritical>
 800eba4:	6ca3      	ldr	r3, [r4, #72]	; 0x48
 800eba6:	2b00      	cmp	r3, #0
 800eba8:	dd14      	ble.n	800ebd4 <prvUnlockQueue+0x38>
 800ebaa:	6a60      	ldr	r0, [r4, #36]	; 0x24
 800ebac:	b190      	cbz	r0, 800ebd4 <prvUnlockQueue+0x38>
 800ebae:	f104 0524 	add.w	r5, r4, #36	; 0x24
 800ebb2:	e007      	b.n	800ebc4 <prvUnlockQueue+0x28>
 800ebb4:	6ca1      	ldr	r1, [r4, #72]	; 0x48
 800ebb6:	1e4a      	subs	r2, r1, #1
 800ebb8:	64a2      	str	r2, [r4, #72]	; 0x48
 800ebba:	6ca3      	ldr	r3, [r4, #72]	; 0x48
 800ebbc:	2b00      	cmp	r3, #0
 800ebbe:	dd09      	ble.n	800ebd4 <prvUnlockQueue+0x38>
 800ebc0:	6a60      	ldr	r0, [r4, #36]	; 0x24
 800ebc2:	b138      	cbz	r0, 800ebd4 <prvUnlockQueue+0x38>
 800ebc4:	4628      	mov	r0, r5
 800ebc6:	f7ff feb1 	bl	800e92c <xTaskRemoveFromEventList>
 800ebca:	2800      	cmp	r0, #0
 800ebcc:	d0f2      	beq.n	800ebb4 <prvUnlockQueue+0x18>
 800ebce:	f7ff ff31 	bl	800ea34 <vTaskMissedYield>
 800ebd2:	e7ef      	b.n	800ebb4 <prvUnlockQueue+0x18>
 800ebd4:	f04f 31ff 	mov.w	r1, #4294967295
 800ebd8:	64a1      	str	r1, [r4, #72]	; 0x48
 800ebda:	f005 f98d 	bl	8013ef8 <vPortExitCritical>
 800ebde:	f005 f95f 	bl	8013ea0 <vPortEnterCritical>
 800ebe2:	6c62      	ldr	r2, [r4, #68]	; 0x44
 800ebe4:	2a00      	cmp	r2, #0
 800ebe6:	dd14      	ble.n	800ec12 <prvUnlockQueue+0x76>
 800ebe8:	6923      	ldr	r3, [r4, #16]
 800ebea:	b193      	cbz	r3, 800ec12 <prvUnlockQueue+0x76>
 800ebec:	f104 0510 	add.w	r5, r4, #16
 800ebf0:	e007      	b.n	800ec02 <prvUnlockQueue+0x66>
 800ebf2:	6c60      	ldr	r0, [r4, #68]	; 0x44
 800ebf4:	1e41      	subs	r1, r0, #1
 800ebf6:	6461      	str	r1, [r4, #68]	; 0x44
 800ebf8:	6c62      	ldr	r2, [r4, #68]	; 0x44
 800ebfa:	2a00      	cmp	r2, #0
 800ebfc:	dd09      	ble.n	800ec12 <prvUnlockQueue+0x76>
 800ebfe:	6923      	ldr	r3, [r4, #16]
 800ec00:	b13b      	cbz	r3, 800ec12 <prvUnlockQueue+0x76>
 800ec02:	4628      	mov	r0, r5
 800ec04:	f7ff fe92 	bl	800e92c <xTaskRemoveFromEventList>
 800ec08:	2800      	cmp	r0, #0
 800ec0a:	d0f2      	beq.n	800ebf2 <prvUnlockQueue+0x56>
 800ec0c:	f7ff ff12 	bl	800ea34 <vTaskMissedYield>
 800ec10:	e7ef      	b.n	800ebf2 <prvUnlockQueue+0x56>
 800ec12:	f04f 30ff 	mov.w	r0, #4294967295
 800ec16:	6460      	str	r0, [r4, #68]	; 0x44
 800ec18:	e8bd 4038 	ldmia.w	sp!, {r3, r4, r5, lr}
 800ec1c:	f005 b96c 	b.w	8013ef8 <vPortExitCritical>

0800ec20 <prvCopyDataFromQueue>:
 800ec20:	6c02      	ldr	r2, [r0, #64]	; 0x40
 800ec22:	b410      	push	{r4}
 800ec24:	4603      	mov	r3, r0
 800ec26:	b16a      	cbz	r2, 800ec44 <prvCopyDataFromQueue+0x24>
 800ec28:	68c4      	ldr	r4, [r0, #12]
 800ec2a:	6840      	ldr	r0, [r0, #4]
 800ec2c:	18a4      	adds	r4, r4, r2
 800ec2e:	4284      	cmp	r4, r0
 800ec30:	bf28      	it	cs
 800ec32:	6818      	ldrcs	r0, [r3, #0]
 800ec34:	60dc      	str	r4, [r3, #12]
 800ec36:	bf28      	it	cs
 800ec38:	60d8      	strcs	r0, [r3, #12]
 800ec3a:	4608      	mov	r0, r1
 800ec3c:	68d9      	ldr	r1, [r3, #12]
 800ec3e:	bc10      	pop	{r4}
 800ec40:	f005 bdda 	b.w	80147f8 <memcpy>
 800ec44:	bc10      	pop	{r4}
 800ec46:	4770      	bx	lr

0800ec48 <xQueueGenericCreate>:
 800ec48:	b5f8      	push	{r3, r4, r5, r6, r7, lr}
 800ec4a:	4605      	mov	r5, r0
 800ec4c:	460e      	mov	r6, r1
 800ec4e:	4617      	mov	r7, r2
 800ec50:	2800      	cmp	r0, #0
 800ec52:	d031      	beq.n	800ecb8 <xQueueGenericCreate+0x70>
 800ec54:	2054      	movs	r0, #84	; 0x54
 800ec56:	f005 fa35 	bl	80140c4 <pvPortMalloc>
 800ec5a:	4604      	mov	r4, r0
 800ec5c:	b360      	cbz	r0, 800ecb8 <xQueueGenericCreate+0x70>
 800ec5e:	fb05 f006 	mul.w	r0, r5, r6
 800ec62:	3001      	adds	r0, #1
 800ec64:	f005 fa2e 	bl	80140c4 <pvPortMalloc>
 800ec68:	6020      	str	r0, [r4, #0]
 800ec6a:	b310      	cbz	r0, 800ecb2 <xQueueGenericCreate+0x6a>
 800ec6c:	63e5      	str	r5, [r4, #60]	; 0x3c
 800ec6e:	6426      	str	r6, [r4, #64]	; 0x40
 800ec70:	f005 f916 	bl	8013ea0 <vPortEnterCritical>
 800ec74:	6be2      	ldr	r2, [r4, #60]	; 0x3c
 800ec76:	6823      	ldr	r3, [r4, #0]
 800ec78:	6c21      	ldr	r1, [r4, #64]	; 0x40
 800ec7a:	60a3      	str	r3, [r4, #8]
 800ec7c:	1e55      	subs	r5, r2, #1
 800ec7e:	2000      	movs	r0, #0
 800ec80:	fb02 3201 	mla	r2, r2, r1, r3
 800ec84:	fb01 3305 	mla	r3, r1, r5, r3
 800ec88:	f04f 31ff 	mov.w	r1, #4294967295
 800ec8c:	63a0      	str	r0, [r4, #56]	; 0x38
 800ec8e:	6062      	str	r2, [r4, #4]
 800ec90:	6461      	str	r1, [r4, #68]	; 0x44
 800ec92:	60e3      	str	r3, [r4, #12]
 800ec94:	64a1      	str	r1, [r4, #72]	; 0x48
 800ec96:	f104 0010 	add.w	r0, r4, #16
 800ec9a:	f000 fbef 	bl	800f47c <vListInitialise>
 800ec9e:	f104 0024 	add.w	r0, r4, #36	; 0x24
 800eca2:	f000 fbeb 	bl	800f47c <vListInitialise>
 800eca6:	f005 f927 	bl	8013ef8 <vPortExitCritical>
 800ecaa:	f884 7050 	strb.w	r7, [r4, #80]	; 0x50
 800ecae:	4620      	mov	r0, r4
 800ecb0:	bdf8      	pop	{r3, r4, r5, r6, r7, pc}
 800ecb2:	4620      	mov	r0, r4
 800ecb4:	f005 fa18 	bl	80140e8 <vPortFree>
 800ecb8:	f005 f8ea 	bl	8013e90 <ulPortSetInterruptMask>
 800ecbc:	e7fe      	b.n	800ecbc <xQueueGenericCreate+0x74>
 800ecbe:	bf00      	nop

0800ecc0 <xQueueGenericSend>:
 800ecc0:	e92d 4ff0 	stmdb	sp!, {r4, r5, r6, r7, r8, r9, sl, fp, lr}
 800ecc4:	b085      	sub	sp, #20
 800ecc6:	4604      	mov	r4, r0
 800ecc8:	4689      	mov	r9, r1
 800ecca:	9201      	str	r2, [sp, #4]
 800eccc:	461f      	mov	r7, r3
 800ecce:	2800      	cmp	r0, #0
 800ecd0:	f000 80e6 	beq.w	800eea0 <xQueueGenericSend+0x1e0>
 800ecd4:	2900      	cmp	r1, #0
 800ecd6:	f000 8132 	beq.w	800ef3e <xQueueGenericSend+0x27e>
 800ecda:	2f02      	cmp	r7, #2
 800ecdc:	d057      	beq.n	800ed8e <xQueueGenericSend+0xce>
 800ecde:	f7ff feb1 	bl	800ea44 <xTaskGetSchedulerState>
 800ece2:	b918      	cbnz	r0, 800ecec <xQueueGenericSend+0x2c>
 800ece4:	9901      	ldr	r1, [sp, #4]
 800ece6:	2900      	cmp	r1, #0
 800ece8:	f040 810e 	bne.w	800ef08 <xQueueGenericSend+0x248>
 800ecec:	f005 f8d8 	bl	8013ea0 <vPortEnterCritical>
 800ecf0:	6ba2      	ldr	r2, [r4, #56]	; 0x38
 800ecf2:	6be3      	ldr	r3, [r4, #60]	; 0x3c
 800ecf4:	429a      	cmp	r2, r3
 800ecf6:	f04f 0b00 	mov.w	fp, #0
 800ecfa:	f04f 0a00 	mov.w	sl, #0
 800ecfe:	f104 0510 	add.w	r5, r4, #16
 800ed02:	f104 0624 	add.w	r6, r4, #36	; 0x24
 800ed06:	f04f 38ff 	mov.w	r8, #4294967295
 800ed0a:	d370      	bcc.n	800edee <xQueueGenericSend+0x12e>
 800ed0c:	2f02      	cmp	r7, #2
 800ed0e:	f000 80d8 	beq.w	800eec2 <xQueueGenericSend+0x202>
 800ed12:	9801      	ldr	r0, [sp, #4]
 800ed14:	2800      	cmp	r0, #0
 800ed16:	f000 80cf 	beq.w	800eeb8 <xQueueGenericSend+0x1f8>
 800ed1a:	f1bb 0f00 	cmp.w	fp, #0
 800ed1e:	d07a      	beq.n	800ee16 <xQueueGenericSend+0x156>
 800ed20:	f005 f8ea 	bl	8013ef8 <vPortExitCritical>
 800ed24:	f7ff fb9c 	bl	800e460 <vTaskSuspendAll>
 800ed28:	f005 f8ba 	bl	8013ea0 <vPortEnterCritical>
 800ed2c:	6c61      	ldr	r1, [r4, #68]	; 0x44
 800ed2e:	1c4b      	adds	r3, r1, #1
 800ed30:	bf08      	it	eq
 800ed32:	f8c4 a044 	streq.w	sl, [r4, #68]	; 0x44
 800ed36:	6ca2      	ldr	r2, [r4, #72]	; 0x48
 800ed38:	1c53      	adds	r3, r2, #1
 800ed3a:	bf08      	it	eq
 800ed3c:	f8c4 a048 	streq.w	sl, [r4, #72]	; 0x48
 800ed40:	f005 f8da 	bl	8013ef8 <vPortExitCritical>
 800ed44:	a802      	add	r0, sp, #8
 800ed46:	a901      	add	r1, sp, #4
 800ed48:	f7ff fe42 	bl	800e9d0 <xTaskCheckForTimeOut>
 800ed4c:	2800      	cmp	r0, #0
 800ed4e:	f040 80aa 	bne.w	800eea6 <xQueueGenericSend+0x1e6>
 800ed52:	f005 f8a5 	bl	8013ea0 <vPortEnterCritical>
 800ed56:	6ba0      	ldr	r0, [r4, #56]	; 0x38
 800ed58:	6be3      	ldr	r3, [r4, #60]	; 0x3c
 800ed5a:	4298      	cmp	r0, r3
 800ed5c:	d05f      	beq.n	800ee1e <xQueueGenericSend+0x15e>
 800ed5e:	f005 f8cb 	bl	8013ef8 <vPortExitCritical>
 800ed62:	f005 f89d 	bl	8013ea0 <vPortEnterCritical>
 800ed66:	6ca1      	ldr	r1, [r4, #72]	; 0x48
 800ed68:	2900      	cmp	r1, #0
 800ed6a:	dc06      	bgt.n	800ed7a <xQueueGenericSend+0xba>
 800ed6c:	e015      	b.n	800ed9a <xQueueGenericSend+0xda>
 800ed6e:	6ca0      	ldr	r0, [r4, #72]	; 0x48
 800ed70:	1e43      	subs	r3, r0, #1
 800ed72:	64a3      	str	r3, [r4, #72]	; 0x48
 800ed74:	6ca1      	ldr	r1, [r4, #72]	; 0x48
 800ed76:	2900      	cmp	r1, #0
 800ed78:	dd0f      	ble.n	800ed9a <xQueueGenericSend+0xda>
 800ed7a:	6a62      	ldr	r2, [r4, #36]	; 0x24
 800ed7c:	b16a      	cbz	r2, 800ed9a <xQueueGenericSend+0xda>
 800ed7e:	4630      	mov	r0, r6
 800ed80:	f7ff fdd4 	bl	800e92c <xTaskRemoveFromEventList>
 800ed84:	2800      	cmp	r0, #0
 800ed86:	d0f2      	beq.n	800ed6e <xQueueGenericSend+0xae>
 800ed88:	f7ff fe54 	bl	800ea34 <vTaskMissedYield>
 800ed8c:	e7ef      	b.n	800ed6e <xQueueGenericSend+0xae>
 800ed8e:	6be0      	ldr	r0, [r4, #60]	; 0x3c
 800ed90:	2801      	cmp	r0, #1
 800ed92:	d0a4      	beq.n	800ecde <xQueueGenericSend+0x1e>
 800ed94:	f005 f87c 	bl	8013e90 <ulPortSetInterruptMask>
 800ed98:	e7fe      	b.n	800ed98 <xQueueGenericSend+0xd8>
 800ed9a:	f8c4 8048 	str.w	r8, [r4, #72]	; 0x48
 800ed9e:	f005 f8ab 	bl	8013ef8 <vPortExitCritical>
 800eda2:	f005 f87d 	bl	8013ea0 <vPortEnterCritical>
 800eda6:	6c62      	ldr	r2, [r4, #68]	; 0x44
 800eda8:	2a00      	cmp	r2, #0
 800edaa:	dd12      	ble.n	800edd2 <xQueueGenericSend+0x112>
 800edac:	6920      	ldr	r0, [r4, #16]
 800edae:	b940      	cbnz	r0, 800edc2 <xQueueGenericSend+0x102>
 800edb0:	e00f      	b.n	800edd2 <xQueueGenericSend+0x112>
 800edb2:	6c63      	ldr	r3, [r4, #68]	; 0x44
 800edb4:	1e59      	subs	r1, r3, #1
 800edb6:	6461      	str	r1, [r4, #68]	; 0x44
 800edb8:	6c62      	ldr	r2, [r4, #68]	; 0x44
 800edba:	2a00      	cmp	r2, #0
 800edbc:	dd09      	ble.n	800edd2 <xQueueGenericSend+0x112>
 800edbe:	6920      	ldr	r0, [r4, #16]
 800edc0:	b138      	cbz	r0, 800edd2 <xQueueGenericSend+0x112>
 800edc2:	4628      	mov	r0, r5
 800edc4:	f7ff fdb2 	bl	800e92c <xTaskRemoveFromEventList>
 800edc8:	2800      	cmp	r0, #0
 800edca:	d0f2      	beq.n	800edb2 <xQueueGenericSend+0xf2>
 800edcc:	f7ff fe32 	bl	800ea34 <vTaskMissedYield>
 800edd0:	e7ef      	b.n	800edb2 <xQueueGenericSend+0xf2>
 800edd2:	f8c4 8044 	str.w	r8, [r4, #68]	; 0x44
 800edd6:	f005 f88f 	bl	8013ef8 <vPortExitCritical>
 800edda:	f7ff fc09 	bl	800e5f0 <xTaskResumeAll>
 800edde:	f005 f85f 	bl	8013ea0 <vPortEnterCritical>
 800ede2:	6ba2      	ldr	r2, [r4, #56]	; 0x38
 800ede4:	6be3      	ldr	r3, [r4, #60]	; 0x3c
 800ede6:	429a      	cmp	r2, r3
 800ede8:	f04f 0b01 	mov.w	fp, #1
 800edec:	d28e      	bcs.n	800ed0c <xQueueGenericSend+0x4c>
 800edee:	6c22      	ldr	r2, [r4, #64]	; 0x40
 800edf0:	2a00      	cmp	r2, #0
 800edf2:	d068      	beq.n	800eec6 <xQueueGenericSend+0x206>
 800edf4:	2f00      	cmp	r7, #0
 800edf6:	f040 808a 	bne.w	800ef0e <xQueueGenericSend+0x24e>
 800edfa:	4649      	mov	r1, r9
 800edfc:	68a0      	ldr	r0, [r4, #8]
 800edfe:	f005 fcfb 	bl	80147f8 <memcpy>
 800ee02:	68a1      	ldr	r1, [r4, #8]
 800ee04:	6c23      	ldr	r3, [r4, #64]	; 0x40
 800ee06:	6860      	ldr	r0, [r4, #4]
 800ee08:	18ca      	adds	r2, r1, r3
 800ee0a:	4282      	cmp	r2, r0
 800ee0c:	60a2      	str	r2, [r4, #8]
 800ee0e:	d35c      	bcc.n	800eeca <xQueueGenericSend+0x20a>
 800ee10:	6821      	ldr	r1, [r4, #0]
 800ee12:	60a1      	str	r1, [r4, #8]
 800ee14:	e059      	b.n	800eeca <xQueueGenericSend+0x20a>
 800ee16:	a802      	add	r0, sp, #8
 800ee18:	f7ff fdca 	bl	800e9b0 <vTaskSetTimeOutState>
 800ee1c:	e780      	b.n	800ed20 <xQueueGenericSend+0x60>
 800ee1e:	f005 f86b 	bl	8013ef8 <vPortExitCritical>
 800ee22:	4628      	mov	r0, r5
 800ee24:	9901      	ldr	r1, [sp, #4]
 800ee26:	f7ff fced 	bl	800e804 <vTaskPlaceOnEventList>
 800ee2a:	f005 f839 	bl	8013ea0 <vPortEnterCritical>
 800ee2e:	6ca3      	ldr	r3, [r4, #72]	; 0x48
 800ee30:	2b00      	cmp	r3, #0
 800ee32:	dc06      	bgt.n	800ee42 <xQueueGenericSend+0x182>
 800ee34:	e00f      	b.n	800ee56 <xQueueGenericSend+0x196>
 800ee36:	6ca2      	ldr	r2, [r4, #72]	; 0x48
 800ee38:	1e50      	subs	r0, r2, #1
 800ee3a:	64a0      	str	r0, [r4, #72]	; 0x48
 800ee3c:	6ca3      	ldr	r3, [r4, #72]	; 0x48
 800ee3e:	2b00      	cmp	r3, #0
 800ee40:	dd09      	ble.n	800ee56 <xQueueGenericSend+0x196>
 800ee42:	6a61      	ldr	r1, [r4, #36]	; 0x24
 800ee44:	b139      	cbz	r1, 800ee56 <xQueueGenericSend+0x196>
 800ee46:	4630      	mov	r0, r6
 800ee48:	f7ff fd70 	bl	800e92c <xTaskRemoveFromEventList>
 800ee4c:	2800      	cmp	r0, #0
 800ee4e:	d0f2      	beq.n	800ee36 <xQueueGenericSend+0x176>
 800ee50:	f7ff fdf0 	bl	800ea34 <vTaskMissedYield>
 800ee54:	e7ef      	b.n	800ee36 <xQueueGenericSend+0x176>
 800ee56:	f8c4 8048 	str.w	r8, [r4, #72]	; 0x48
 800ee5a:	f005 f84d 	bl	8013ef8 <vPortExitCritical>
 800ee5e:	f005 f81f 	bl	8013ea0 <vPortEnterCritical>
 800ee62:	6c61      	ldr	r1, [r4, #68]	; 0x44
 800ee64:	2900      	cmp	r1, #0
 800ee66:	dc06      	bgt.n	800ee76 <xQueueGenericSend+0x1b6>
 800ee68:	e00f      	b.n	800ee8a <xQueueGenericSend+0x1ca>
 800ee6a:	6c60      	ldr	r0, [r4, #68]	; 0x44
 800ee6c:	1e43      	subs	r3, r0, #1
 800ee6e:	6463      	str	r3, [r4, #68]	; 0x44
 800ee70:	6c61      	ldr	r1, [r4, #68]	; 0x44
 800ee72:	2900      	cmp	r1, #0
 800ee74:	dd09      	ble.n	800ee8a <xQueueGenericSend+0x1ca>
 800ee76:	6922      	ldr	r2, [r4, #16]
 800ee78:	b13a      	cbz	r2, 800ee8a <xQueueGenericSend+0x1ca>
 800ee7a:	4628      	mov	r0, r5
 800ee7c:	f7ff fd56 	bl	800e92c <xTaskRemoveFromEventList>
 800ee80:	2800      	cmp	r0, #0
 800ee82:	d0f2      	beq.n	800ee6a <xQueueGenericSend+0x1aa>
 800ee84:	f7ff fdd6 	bl	800ea34 <vTaskMissedYield>
 800ee88:	e7ef      	b.n	800ee6a <xQueueGenericSend+0x1aa>
 800ee8a:	f8c4 8044 	str.w	r8, [r4, #68]	; 0x44
 800ee8e:	f005 f833 	bl	8013ef8 <vPortExitCritical>
 800ee92:	f7ff fbad 	bl	800e5f0 <xTaskResumeAll>
 800ee96:	2800      	cmp	r0, #0
 800ee98:	d1a1      	bne.n	800edde <xQueueGenericSend+0x11e>
 800ee9a:	f004 ffed 	bl	8013e78 <vPortYield>
 800ee9e:	e79e      	b.n	800edde <xQueueGenericSend+0x11e>
 800eea0:	f004 fff6 	bl	8013e90 <ulPortSetInterruptMask>
 800eea4:	e7fe      	b.n	800eea4 <xQueueGenericSend+0x1e4>
 800eea6:	4620      	mov	r0, r4
 800eea8:	f7ff fe78 	bl	800eb9c <prvUnlockQueue>
 800eeac:	f7ff fba0 	bl	800e5f0 <xTaskResumeAll>
 800eeb0:	2000      	movs	r0, #0
 800eeb2:	b005      	add	sp, #20
 800eeb4:	e8bd 8ff0 	ldmia.w	sp!, {r4, r5, r6, r7, r8, r9, sl, fp, pc}
 800eeb8:	9000      	str	r0, [sp, #0]
 800eeba:	f005 f81d 	bl	8013ef8 <vPortExitCritical>
 800eebe:	9800      	ldr	r0, [sp, #0]
 800eec0:	e7f7      	b.n	800eeb2 <xQueueGenericSend+0x1f2>
 800eec2:	6c22      	ldr	r2, [r4, #64]	; 0x40
 800eec4:	bb1a      	cbnz	r2, 800ef0e <xQueueGenericSend+0x24e>
 800eec6:	6825      	ldr	r5, [r4, #0]
 800eec8:	b17d      	cbz	r5, 800eeea <xQueueGenericSend+0x22a>
 800eeca:	6ba0      	ldr	r0, [r4, #56]	; 0x38
 800eecc:	6a63      	ldr	r3, [r4, #36]	; 0x24
 800eece:	1c42      	adds	r2, r0, #1
 800eed0:	63a2      	str	r2, [r4, #56]	; 0x38
 800eed2:	b91b      	cbnz	r3, 800eedc <xQueueGenericSend+0x21c>
 800eed4:	f005 f810 	bl	8013ef8 <vPortExitCritical>
 800eed8:	2001      	movs	r0, #1
 800eeda:	e7ea      	b.n	800eeb2 <xQueueGenericSend+0x1f2>
 800eedc:	f104 0024 	add.w	r0, r4, #36	; 0x24
 800eee0:	f7ff fd24 	bl	800e92c <xTaskRemoveFromEventList>
 800eee4:	2801      	cmp	r0, #1
 800eee6:	d1f5      	bne.n	800eed4 <xQueueGenericSend+0x214>
 800eee8:	e00b      	b.n	800ef02 <xQueueGenericSend+0x242>
 800eeea:	6860      	ldr	r0, [r4, #4]
 800eeec:	f7ff fe04 	bl	800eaf8 <xTaskPriorityDisinherit>
 800eef0:	6ba1      	ldr	r1, [r4, #56]	; 0x38
 800eef2:	6a63      	ldr	r3, [r4, #36]	; 0x24
 800eef4:	6065      	str	r5, [r4, #4]
 800eef6:	1c4a      	adds	r2, r1, #1
 800eef8:	63a2      	str	r2, [r4, #56]	; 0x38
 800eefa:	2b00      	cmp	r3, #0
 800eefc:	d1ee      	bne.n	800eedc <xQueueGenericSend+0x21c>
 800eefe:	2800      	cmp	r0, #0
 800ef00:	d0e8      	beq.n	800eed4 <xQueueGenericSend+0x214>
 800ef02:	f004 ffb9 	bl	8013e78 <vPortYield>
 800ef06:	e7e5      	b.n	800eed4 <xQueueGenericSend+0x214>
 800ef08:	f004 ffc2 	bl	8013e90 <ulPortSetInterruptMask>
 800ef0c:	e7fe      	b.n	800ef0c <xQueueGenericSend+0x24c>
 800ef0e:	4649      	mov	r1, r9
 800ef10:	68e0      	ldr	r0, [r4, #12]
 800ef12:	f005 fc71 	bl	80147f8 <memcpy>
 800ef16:	6c20      	ldr	r0, [r4, #64]	; 0x40
 800ef18:	68e2      	ldr	r2, [r4, #12]
 800ef1a:	6821      	ldr	r1, [r4, #0]
 800ef1c:	4243      	negs	r3, r0
 800ef1e:	18d0      	adds	r0, r2, r3
 800ef20:	4288      	cmp	r0, r1
 800ef22:	60e0      	str	r0, [r4, #12]
 800ef24:	d202      	bcs.n	800ef2c <xQueueGenericSend+0x26c>
 800ef26:	6862      	ldr	r2, [r4, #4]
 800ef28:	18d1      	adds	r1, r2, r3
 800ef2a:	60e1      	str	r1, [r4, #12]
 800ef2c:	2f02      	cmp	r7, #2
 800ef2e:	d1cc      	bne.n	800eeca <xQueueGenericSend+0x20a>
 800ef30:	6ba3      	ldr	r3, [r4, #56]	; 0x38
 800ef32:	2b00      	cmp	r3, #0
 800ef34:	d0c9      	beq.n	800eeca <xQueueGenericSend+0x20a>
 800ef36:	6ba0      	ldr	r0, [r4, #56]	; 0x38
 800ef38:	1e42      	subs	r2, r0, #1
 800ef3a:	63a2      	str	r2, [r4, #56]	; 0x38
 800ef3c:	e7c5      	b.n	800eeca <xQueueGenericSend+0x20a>
 800ef3e:	6c03      	ldr	r3, [r0, #64]	; 0x40
 800ef40:	2b00      	cmp	r3, #0
 800ef42:	f43f aeca 	beq.w	800ecda <xQueueGenericSend+0x1a>
 800ef46:	f004 ffa3 	bl	8013e90 <ulPortSetInterruptMask>
 800ef4a:	e7fe      	b.n	800ef4a <xQueueGenericSend+0x28a>

0800ef4c <xQueueCreateMutex>:
 800ef4c:	b570      	push	{r4, r5, r6, lr}
 800ef4e:	4606      	mov	r6, r0
 800ef50:	2054      	movs	r0, #84	; 0x54
 800ef52:	f005 f8b7 	bl	80140c4 <pvPortMalloc>
 800ef56:	4604      	mov	r4, r0
 800ef58:	b1f0      	cbz	r0, 800ef98 <xQueueCreateMutex+0x4c>
 800ef5a:	2500      	movs	r5, #0
 800ef5c:	f04f 33ff 	mov.w	r3, #4294967295
 800ef60:	2201      	movs	r2, #1
 800ef62:	6385      	str	r5, [r0, #56]	; 0x38
 800ef64:	63e2      	str	r2, [r4, #60]	; 0x3c
 800ef66:	6463      	str	r3, [r4, #68]	; 0x44
 800ef68:	f100 0010 	add.w	r0, r0, #16
 800ef6c:	64a3      	str	r3, [r4, #72]	; 0x48
 800ef6e:	6065      	str	r5, [r4, #4]
 800ef70:	6025      	str	r5, [r4, #0]
 800ef72:	60a5      	str	r5, [r4, #8]
 800ef74:	60e5      	str	r5, [r4, #12]
 800ef76:	6425      	str	r5, [r4, #64]	; 0x40
 800ef78:	f884 6050 	strb.w	r6, [r4, #80]	; 0x50
 800ef7c:	f000 fa7e 	bl	800f47c <vListInitialise>
 800ef80:	f104 0024 	add.w	r0, r4, #36	; 0x24
 800ef84:	f000 fa7a 	bl	800f47c <vListInitialise>
 800ef88:	4620      	mov	r0, r4
 800ef8a:	4629      	mov	r1, r5
 800ef8c:	462a      	mov	r2, r5
 800ef8e:	462b      	mov	r3, r5
 800ef90:	f7ff fe96 	bl	800ecc0 <xQueueGenericSend>
 800ef94:	4620      	mov	r0, r4
 800ef96:	bd70      	pop	{r4, r5, r6, pc}
 800ef98:	f004 ff7a 	bl	8013e90 <ulPortSetInterruptMask>
 800ef9c:	e7fe      	b.n	800ef9c <xQueueCreateMutex+0x50>
 800ef9e:	bf00      	nop

0800efa0 <xQueueGenericSendFromISR>:
 800efa0:	e92d 41f0 	stmdb	sp!, {r4, r5, r6, r7, r8, lr}
 800efa4:	4604      	mov	r4, r0
 800efa6:	460f      	mov	r7, r1
 800efa8:	4615      	mov	r5, r2
 800efaa:	461e      	mov	r6, r3
 800efac:	b358      	cbz	r0, 800f006 <xQueueGenericSendFromISR+0x66>
 800efae:	2900      	cmp	r1, #0
 800efb0:	d06b      	beq.n	800f08a <xQueueGenericSendFromISR+0xea>
 800efb2:	2e02      	cmp	r6, #2
 800efb4:	d00a      	beq.n	800efcc <xQueueGenericSendFromISR+0x2c>
 800efb6:	f005 f861 	bl	801407c <vPortValidateInterruptPriority>
 800efba:	f004 ff69 	bl	8013e90 <ulPortSetInterruptMask>
 800efbe:	6ba2      	ldr	r2, [r4, #56]	; 0x38
 800efc0:	6be1      	ldr	r1, [r4, #60]	; 0x3c
 800efc2:	4291      	cmp	r1, r2
 800efc4:	4680      	mov	r8, r0
 800efc6:	d807      	bhi.n	800efd8 <xQueueGenericSendFromISR+0x38>
 800efc8:	2400      	movs	r4, #0
 800efca:	e037      	b.n	800f03c <xQueueGenericSendFromISR+0x9c>
 800efcc:	6be0      	ldr	r0, [r4, #60]	; 0x3c
 800efce:	2801      	cmp	r0, #1
 800efd0:	d03a      	beq.n	800f048 <xQueueGenericSendFromISR+0xa8>
 800efd2:	f004 ff5d 	bl	8013e90 <ulPortSetInterruptMask>
 800efd6:	e7fe      	b.n	800efd6 <xQueueGenericSendFromISR+0x36>
 800efd8:	6c22      	ldr	r2, [r4, #64]	; 0x40
 800efda:	b9ba      	cbnz	r2, 800f00c <xQueueGenericSendFromISR+0x6c>
 800efdc:	6826      	ldr	r6, [r4, #0]
 800efde:	bb1e      	cbnz	r6, 800f028 <xQueueGenericSendFromISR+0x88>
 800efe0:	6860      	ldr	r0, [r4, #4]
 800efe2:	f7ff fd89 	bl	800eaf8 <xTaskPriorityDisinherit>
 800efe6:	6ba1      	ldr	r1, [r4, #56]	; 0x38
 800efe8:	6066      	str	r6, [r4, #4]
 800efea:	1c4b      	adds	r3, r1, #1
 800efec:	63a3      	str	r3, [r4, #56]	; 0x38
 800efee:	b1f0      	cbz	r0, 800f02e <xQueueGenericSendFromISR+0x8e>
 800eff0:	b1ed      	cbz	r5, 800f02e <xQueueGenericSendFromISR+0x8e>
 800eff2:	2001      	movs	r0, #1
 800eff4:	6028      	str	r0, [r5, #0]
 800eff6:	6ca2      	ldr	r2, [r4, #72]	; 0x48
 800eff8:	1c53      	adds	r3, r2, #1
 800effa:	d11b      	bne.n	800f034 <xQueueGenericSendFromISR+0x94>
 800effc:	6a60      	ldr	r0, [r4, #36]	; 0x24
 800effe:	2800      	cmp	r0, #0
 800f000:	d149      	bne.n	800f096 <xQueueGenericSendFromISR+0xf6>
 800f002:	2401      	movs	r4, #1
 800f004:	e01a      	b.n	800f03c <xQueueGenericSendFromISR+0x9c>
 800f006:	f004 ff43 	bl	8013e90 <ulPortSetInterruptMask>
 800f00a:	e7fe      	b.n	800f00a <xQueueGenericSendFromISR+0x6a>
 800f00c:	bb2e      	cbnz	r6, 800f05a <xQueueGenericSendFromISR+0xba>
 800f00e:	4639      	mov	r1, r7
 800f010:	68a0      	ldr	r0, [r4, #8]
 800f012:	f005 fbf1 	bl	80147f8 <memcpy>
 800f016:	68a1      	ldr	r1, [r4, #8]
 800f018:	6c23      	ldr	r3, [r4, #64]	; 0x40
 800f01a:	6862      	ldr	r2, [r4, #4]
 800f01c:	18c8      	adds	r0, r1, r3
 800f01e:	4290      	cmp	r0, r2
 800f020:	60a0      	str	r0, [r4, #8]
 800f022:	d301      	bcc.n	800f028 <xQueueGenericSendFromISR+0x88>
 800f024:	6821      	ldr	r1, [r4, #0]
 800f026:	60a1      	str	r1, [r4, #8]
 800f028:	6ba3      	ldr	r3, [r4, #56]	; 0x38
 800f02a:	1c5a      	adds	r2, r3, #1
 800f02c:	63a2      	str	r2, [r4, #56]	; 0x38
 800f02e:	6ca2      	ldr	r2, [r4, #72]	; 0x48
 800f030:	1c53      	adds	r3, r2, #1
 800f032:	d0e3      	beq.n	800effc <xQueueGenericSendFromISR+0x5c>
 800f034:	6ca1      	ldr	r1, [r4, #72]	; 0x48
 800f036:	1c4b      	adds	r3, r1, #1
 800f038:	64a3      	str	r3, [r4, #72]	; 0x48
 800f03a:	2401      	movs	r4, #1
 800f03c:	4640      	mov	r0, r8
 800f03e:	f004 ff57 	bl	8013ef0 <vPortClearInterruptMask>
 800f042:	4620      	mov	r0, r4
 800f044:	e8bd 81f0 	ldmia.w	sp!, {r4, r5, r6, r7, r8, pc}
 800f048:	f005 f818 	bl	801407c <vPortValidateInterruptPriority>
 800f04c:	f004 ff20 	bl	8013e90 <ulPortSetInterruptMask>
 800f050:	6ba2      	ldr	r2, [r4, #56]	; 0x38
 800f052:	6c22      	ldr	r2, [r4, #64]	; 0x40
 800f054:	4680      	mov	r8, r0
 800f056:	2a00      	cmp	r2, #0
 800f058:	d0c0      	beq.n	800efdc <xQueueGenericSendFromISR+0x3c>
 800f05a:	4639      	mov	r1, r7
 800f05c:	68e0      	ldr	r0, [r4, #12]
 800f05e:	f005 fbcb 	bl	80147f8 <memcpy>
 800f062:	6c23      	ldr	r3, [r4, #64]	; 0x40
 800f064:	68e0      	ldr	r0, [r4, #12]
 800f066:	6821      	ldr	r1, [r4, #0]
 800f068:	425b      	negs	r3, r3
 800f06a:	18c2      	adds	r2, r0, r3
 800f06c:	428a      	cmp	r2, r1
 800f06e:	60e2      	str	r2, [r4, #12]
 800f070:	d202      	bcs.n	800f078 <xQueueGenericSendFromISR+0xd8>
 800f072:	6860      	ldr	r0, [r4, #4]
 800f074:	18c1      	adds	r1, r0, r3
 800f076:	60e1      	str	r1, [r4, #12]
 800f078:	2e02      	cmp	r6, #2
 800f07a:	d1d5      	bne.n	800f028 <xQueueGenericSendFromISR+0x88>
 800f07c:	6ba3      	ldr	r3, [r4, #56]	; 0x38
 800f07e:	2b00      	cmp	r3, #0
 800f080:	d0d2      	beq.n	800f028 <xQueueGenericSendFromISR+0x88>
 800f082:	6ba2      	ldr	r2, [r4, #56]	; 0x38
 800f084:	1e50      	subs	r0, r2, #1
 800f086:	63a0      	str	r0, [r4, #56]	; 0x38
 800f088:	e7ce      	b.n	800f028 <xQueueGenericSendFromISR+0x88>
 800f08a:	6c03      	ldr	r3, [r0, #64]	; 0x40
 800f08c:	2b00      	cmp	r3, #0
 800f08e:	d090      	beq.n	800efb2 <xQueueGenericSendFromISR+0x12>
 800f090:	f004 fefe 	bl	8013e90 <ulPortSetInterruptMask>
 800f094:	e7fe      	b.n	800f094 <xQueueGenericSendFromISR+0xf4>
 800f096:	f104 0024 	add.w	r0, r4, #36	; 0x24
 800f09a:	f7ff fc47 	bl	800e92c <xTaskRemoveFromEventList>
 800f09e:	2800      	cmp	r0, #0
 800f0a0:	d0af      	beq.n	800f002 <xQueueGenericSendFromISR+0x62>
 800f0a2:	2401      	movs	r4, #1
 800f0a4:	2d00      	cmp	r5, #0
 800f0a6:	d0c9      	beq.n	800f03c <xQueueGenericSendFromISR+0x9c>
 800f0a8:	602c      	str	r4, [r5, #0]
 800f0aa:	e7c7      	b.n	800f03c <xQueueGenericSendFromISR+0x9c>

0800f0ac <xQueueGenericReceive>:
 800f0ac:	e92d 4ff0 	stmdb	sp!, {r4, r5, r6, r7, r8, r9, sl, fp, lr}
 800f0b0:	b085      	sub	sp, #20
 800f0b2:	4604      	mov	r4, r0
 800f0b4:	4688      	mov	r8, r1
 800f0b6:	9201      	str	r2, [sp, #4]
 800f0b8:	469a      	mov	sl, r3
 800f0ba:	2800      	cmp	r0, #0
 800f0bc:	f000 80dd 	beq.w	800f27a <xQueueGenericReceive+0x1ce>
 800f0c0:	2900      	cmp	r1, #0
 800f0c2:	f000 810a 	beq.w	800f2da <xQueueGenericReceive+0x22e>
 800f0c6:	f7ff fcbd 	bl	800ea44 <xTaskGetSchedulerState>
 800f0ca:	b918      	cbnz	r0, 800f0d4 <xQueueGenericReceive+0x28>
 800f0cc:	9801      	ldr	r0, [sp, #4]
 800f0ce:	2800      	cmp	r0, #0
 800f0d0:	f040 8100 	bne.w	800f2d4 <xQueueGenericReceive+0x228>
 800f0d4:	f004 fee4 	bl	8013ea0 <vPortEnterCritical>
 800f0d8:	6ba1      	ldr	r1, [r4, #56]	; 0x38
 800f0da:	f04f 0b00 	mov.w	fp, #0
 800f0de:	f04f 0900 	mov.w	r9, #0
 800f0e2:	f104 0524 	add.w	r5, r4, #36	; 0x24
 800f0e6:	f04f 37ff 	mov.w	r7, #4294967295
 800f0ea:	f104 0610 	add.w	r6, r4, #16
 800f0ee:	2900      	cmp	r1, #0
 800f0f0:	f040 8089 	bne.w	800f206 <xQueueGenericReceive+0x15a>
 800f0f4:	9a01      	ldr	r2, [sp, #4]
 800f0f6:	2a00      	cmp	r2, #0
 800f0f8:	f000 80d3 	beq.w	800f2a2 <xQueueGenericReceive+0x1f6>
 800f0fc:	f1bb 0f00 	cmp.w	fp, #0
 800f100:	f000 80b7 	beq.w	800f272 <xQueueGenericReceive+0x1c6>
 800f104:	f004 fef8 	bl	8013ef8 <vPortExitCritical>
 800f108:	f7ff f9aa 	bl	800e460 <vTaskSuspendAll>
 800f10c:	f004 fec8 	bl	8013ea0 <vPortEnterCritical>
 800f110:	6c63      	ldr	r3, [r4, #68]	; 0x44
 800f112:	3301      	adds	r3, #1
 800f114:	bf08      	it	eq
 800f116:	f8c4 9044 	streq.w	r9, [r4, #68]	; 0x44
 800f11a:	6ca0      	ldr	r0, [r4, #72]	; 0x48
 800f11c:	1c43      	adds	r3, r0, #1
 800f11e:	bf08      	it	eq
 800f120:	f8c4 9048 	streq.w	r9, [r4, #72]	; 0x48
 800f124:	f004 fee8 	bl	8013ef8 <vPortExitCritical>
 800f128:	a802      	add	r0, sp, #8
 800f12a:	a901      	add	r1, sp, #4
 800f12c:	f7ff fc50 	bl	800e9d0 <xTaskCheckForTimeOut>
 800f130:	2800      	cmp	r0, #0
 800f132:	f040 80ad 	bne.w	800f290 <xQueueGenericReceive+0x1e4>
 800f136:	f004 feb3 	bl	8013ea0 <vPortEnterCritical>
 800f13a:	6ba1      	ldr	r1, [r4, #56]	; 0x38
 800f13c:	b1c1      	cbz	r1, 800f170 <xQueueGenericReceive+0xc4>
 800f13e:	f004 fedb 	bl	8013ef8 <vPortExitCritical>
 800f142:	f004 fead 	bl	8013ea0 <vPortEnterCritical>
 800f146:	6ca2      	ldr	r2, [r4, #72]	; 0x48
 800f148:	2a00      	cmp	r2, #0
 800f14a:	dc06      	bgt.n	800f15a <xQueueGenericReceive+0xae>
 800f14c:	e072      	b.n	800f234 <xQueueGenericReceive+0x188>
 800f14e:	6ca0      	ldr	r0, [r4, #72]	; 0x48
 800f150:	1e41      	subs	r1, r0, #1
 800f152:	64a1      	str	r1, [r4, #72]	; 0x48
 800f154:	6ca2      	ldr	r2, [r4, #72]	; 0x48
 800f156:	2a00      	cmp	r2, #0
 800f158:	dd6c      	ble.n	800f234 <xQueueGenericReceive+0x188>
 800f15a:	6a63      	ldr	r3, [r4, #36]	; 0x24
 800f15c:	2b00      	cmp	r3, #0
 800f15e:	d069      	beq.n	800f234 <xQueueGenericReceive+0x188>
 800f160:	4628      	mov	r0, r5
 800f162:	f7ff fbe3 	bl	800e92c <xTaskRemoveFromEventList>
 800f166:	2800      	cmp	r0, #0
 800f168:	d0f1      	beq.n	800f14e <xQueueGenericReceive+0xa2>
 800f16a:	f7ff fc63 	bl	800ea34 <vTaskMissedYield>
 800f16e:	e7ee      	b.n	800f14e <xQueueGenericReceive+0xa2>
 800f170:	f004 fec2 	bl	8013ef8 <vPortExitCritical>
 800f174:	6820      	ldr	r0, [r4, #0]
 800f176:	2800      	cmp	r0, #0
 800f178:	f000 8082 	beq.w	800f280 <xQueueGenericReceive+0x1d4>
 800f17c:	9901      	ldr	r1, [sp, #4]
 800f17e:	4628      	mov	r0, r5
 800f180:	f7ff fb40 	bl	800e804 <vTaskPlaceOnEventList>
 800f184:	f004 fe8c 	bl	8013ea0 <vPortEnterCritical>
 800f188:	6ca1      	ldr	r1, [r4, #72]	; 0x48
 800f18a:	2900      	cmp	r1, #0
 800f18c:	dc06      	bgt.n	800f19c <xQueueGenericReceive+0xf0>
 800f18e:	e00f      	b.n	800f1b0 <xQueueGenericReceive+0x104>
 800f190:	6ca3      	ldr	r3, [r4, #72]	; 0x48
 800f192:	1e58      	subs	r0, r3, #1
 800f194:	64a0      	str	r0, [r4, #72]	; 0x48
 800f196:	6ca1      	ldr	r1, [r4, #72]	; 0x48
 800f198:	2900      	cmp	r1, #0
 800f19a:	dd09      	ble.n	800f1b0 <xQueueGenericReceive+0x104>
 800f19c:	6a62      	ldr	r2, [r4, #36]	; 0x24
 800f19e:	b13a      	cbz	r2, 800f1b0 <xQueueGenericReceive+0x104>
 800f1a0:	4628      	mov	r0, r5
 800f1a2:	f7ff fbc3 	bl	800e92c <xTaskRemoveFromEventList>
 800f1a6:	2800      	cmp	r0, #0
 800f1a8:	d0f2      	beq.n	800f190 <xQueueGenericReceive+0xe4>
 800f1aa:	f7ff fc43 	bl	800ea34 <vTaskMissedYield>
 800f1ae:	e7ef      	b.n	800f190 <xQueueGenericReceive+0xe4>
 800f1b0:	64a7      	str	r7, [r4, #72]	; 0x48
 800f1b2:	f004 fea1 	bl	8013ef8 <vPortExitCritical>
 800f1b6:	f004 fe73 	bl	8013ea0 <vPortEnterCritical>
 800f1ba:	6c62      	ldr	r2, [r4, #68]	; 0x44
 800f1bc:	2a00      	cmp	r2, #0
 800f1be:	dd12      	ble.n	800f1e6 <xQueueGenericReceive+0x13a>
 800f1c0:	6923      	ldr	r3, [r4, #16]
 800f1c2:	b943      	cbnz	r3, 800f1d6 <xQueueGenericReceive+0x12a>
 800f1c4:	e00f      	b.n	800f1e6 <xQueueGenericReceive+0x13a>
 800f1c6:	6c60      	ldr	r0, [r4, #68]	; 0x44
 800f1c8:	1e41      	subs	r1, r0, #1
 800f1ca:	6461      	str	r1, [r4, #68]	; 0x44
 800f1cc:	6c62      	ldr	r2, [r4, #68]	; 0x44
 800f1ce:	2a00      	cmp	r2, #0
 800f1d0:	dd09      	ble.n	800f1e6 <xQueueGenericReceive+0x13a>
 800f1d2:	6923      	ldr	r3, [r4, #16]
 800f1d4:	b13b      	cbz	r3, 800f1e6 <xQueueGenericReceive+0x13a>
 800f1d6:	4630      	mov	r0, r6
 800f1d8:	f7ff fba8 	bl	800e92c <xTaskRemoveFromEventList>
 800f1dc:	2800      	cmp	r0, #0
 800f1de:	d0f2      	beq.n	800f1c6 <xQueueGenericReceive+0x11a>
 800f1e0:	f7ff fc28 	bl	800ea34 <vTaskMissedYield>
 800f1e4:	e7ef      	b.n	800f1c6 <xQueueGenericReceive+0x11a>
 800f1e6:	6467      	str	r7, [r4, #68]	; 0x44
 800f1e8:	f004 fe86 	bl	8013ef8 <vPortExitCritical>
 800f1ec:	f7ff fa00 	bl	800e5f0 <xTaskResumeAll>
 800f1f0:	b908      	cbnz	r0, 800f1f6 <xQueueGenericReceive+0x14a>
 800f1f2:	f004 fe41 	bl	8013e78 <vPortYield>
 800f1f6:	f004 fe53 	bl	8013ea0 <vPortEnterCritical>
 800f1fa:	6ba1      	ldr	r1, [r4, #56]	; 0x38
 800f1fc:	f04f 0b01 	mov.w	fp, #1
 800f200:	2900      	cmp	r1, #0
 800f202:	f43f af77 	beq.w	800f0f4 <xQueueGenericReceive+0x48>
 800f206:	4620      	mov	r0, r4
 800f208:	4641      	mov	r1, r8
 800f20a:	68e5      	ldr	r5, [r4, #12]
 800f20c:	f7ff fd08 	bl	800ec20 <prvCopyDataFromQueue>
 800f210:	f1ba 0f00 	cmp.w	sl, #0
 800f214:	d14a      	bne.n	800f2ac <xQueueGenericReceive+0x200>
 800f216:	6ba1      	ldr	r1, [r4, #56]	; 0x38
 800f218:	6823      	ldr	r3, [r4, #0]
 800f21a:	1e4a      	subs	r2, r1, #1
 800f21c:	63a2      	str	r2, [r4, #56]	; 0x38
 800f21e:	b913      	cbnz	r3, 800f226 <xQueueGenericReceive+0x17a>
 800f220:	f7ff fcb0 	bl	800eb84 <pvTaskIncrementMutexHeldCount>
 800f224:	6060      	str	r0, [r4, #4]
 800f226:	6920      	ldr	r0, [r4, #16]
 800f228:	2800      	cmp	r0, #0
 800f22a:	d14c      	bne.n	800f2c6 <xQueueGenericReceive+0x21a>
 800f22c:	f004 fe64 	bl	8013ef8 <vPortExitCritical>
 800f230:	2001      	movs	r0, #1
 800f232:	e033      	b.n	800f29c <xQueueGenericReceive+0x1f0>
 800f234:	64a7      	str	r7, [r4, #72]	; 0x48
 800f236:	f004 fe5f 	bl	8013ef8 <vPortExitCritical>
 800f23a:	f004 fe31 	bl	8013ea0 <vPortEnterCritical>
 800f23e:	6c63      	ldr	r3, [r4, #68]	; 0x44
 800f240:	2b00      	cmp	r3, #0
 800f242:	dc06      	bgt.n	800f252 <xQueueGenericReceive+0x1a6>
 800f244:	e00f      	b.n	800f266 <xQueueGenericReceive+0x1ba>
 800f246:	6c61      	ldr	r1, [r4, #68]	; 0x44
 800f248:	1e4a      	subs	r2, r1, #1
 800f24a:	6462      	str	r2, [r4, #68]	; 0x44
 800f24c:	6c63      	ldr	r3, [r4, #68]	; 0x44
 800f24e:	2b00      	cmp	r3, #0
 800f250:	dd09      	ble.n	800f266 <xQueueGenericReceive+0x1ba>
 800f252:	6920      	ldr	r0, [r4, #16]
 800f254:	b138      	cbz	r0, 800f266 <xQueueGenericReceive+0x1ba>
 800f256:	4630      	mov	r0, r6
 800f258:	f7ff fb68 	bl	800e92c <xTaskRemoveFromEventList>
 800f25c:	2800      	cmp	r0, #0
 800f25e:	d0f2      	beq.n	800f246 <xQueueGenericReceive+0x19a>
 800f260:	f7ff fbe8 	bl	800ea34 <vTaskMissedYield>
 800f264:	e7ef      	b.n	800f246 <xQueueGenericReceive+0x19a>
 800f266:	6467      	str	r7, [r4, #68]	; 0x44
 800f268:	f004 fe46 	bl	8013ef8 <vPortExitCritical>
 800f26c:	f7ff f9c0 	bl	800e5f0 <xTaskResumeAll>
 800f270:	e7c1      	b.n	800f1f6 <xQueueGenericReceive+0x14a>
 800f272:	a802      	add	r0, sp, #8
 800f274:	f7ff fb9c 	bl	800e9b0 <vTaskSetTimeOutState>
 800f278:	e744      	b.n	800f104 <xQueueGenericReceive+0x58>
 800f27a:	f004 fe09 	bl	8013e90 <ulPortSetInterruptMask>
 800f27e:	e7fe      	b.n	800f27e <xQueueGenericReceive+0x1d2>
 800f280:	f004 fe0e 	bl	8013ea0 <vPortEnterCritical>
 800f284:	6860      	ldr	r0, [r4, #4]
 800f286:	f7ff fbed 	bl	800ea64 <vTaskPriorityInherit>
 800f28a:	f004 fe35 	bl	8013ef8 <vPortExitCritical>
 800f28e:	e775      	b.n	800f17c <xQueueGenericReceive+0xd0>
 800f290:	4620      	mov	r0, r4
 800f292:	f7ff fc83 	bl	800eb9c <prvUnlockQueue>
 800f296:	f7ff f9ab 	bl	800e5f0 <xTaskResumeAll>
 800f29a:	2000      	movs	r0, #0
 800f29c:	b005      	add	sp, #20
 800f29e:	e8bd 8ff0 	ldmia.w	sp!, {r4, r5, r6, r7, r8, r9, sl, fp, pc}
 800f2a2:	9200      	str	r2, [sp, #0]
 800f2a4:	f004 fe28 	bl	8013ef8 <vPortExitCritical>
 800f2a8:	9800      	ldr	r0, [sp, #0]
 800f2aa:	e7f7      	b.n	800f29c <xQueueGenericReceive+0x1f0>
 800f2ac:	6a60      	ldr	r0, [r4, #36]	; 0x24
 800f2ae:	60e5      	str	r5, [r4, #12]
 800f2b0:	2800      	cmp	r0, #0
 800f2b2:	d0bb      	beq.n	800f22c <xQueueGenericReceive+0x180>
 800f2b4:	f104 0024 	add.w	r0, r4, #36	; 0x24
 800f2b8:	f7ff fb38 	bl	800e92c <xTaskRemoveFromEventList>
 800f2bc:	2800      	cmp	r0, #0
 800f2be:	d0b5      	beq.n	800f22c <xQueueGenericReceive+0x180>
 800f2c0:	f004 fdda 	bl	8013e78 <vPortYield>
 800f2c4:	e7b2      	b.n	800f22c <xQueueGenericReceive+0x180>
 800f2c6:	f104 0010 	add.w	r0, r4, #16
 800f2ca:	f7ff fb2f 	bl	800e92c <xTaskRemoveFromEventList>
 800f2ce:	2801      	cmp	r0, #1
 800f2d0:	d1ac      	bne.n	800f22c <xQueueGenericReceive+0x180>
 800f2d2:	e7f5      	b.n	800f2c0 <xQueueGenericReceive+0x214>
 800f2d4:	f004 fddc 	bl	8013e90 <ulPortSetInterruptMask>
 800f2d8:	e7fe      	b.n	800f2d8 <xQueueGenericReceive+0x22c>
 800f2da:	6c03      	ldr	r3, [r0, #64]	; 0x40
 800f2dc:	2b00      	cmp	r3, #0
 800f2de:	f43f aef2 	beq.w	800f0c6 <xQueueGenericReceive+0x1a>
 800f2e2:	f004 fdd5 	bl	8013e90 <ulPortSetInterruptMask>
 800f2e6:	e7fe      	b.n	800f2e6 <xQueueGenericReceive+0x23a>

0800f2e8 <xQueueReceiveFromISR>:
 800f2e8:	b5f8      	push	{r3, r4, r5, r6, r7, lr}
 800f2ea:	4604      	mov	r4, r0
 800f2ec:	460e      	mov	r6, r1
 800f2ee:	4615      	mov	r5, r2
 800f2f0:	b168      	cbz	r0, 800f30e <xQueueReceiveFromISR+0x26>
 800f2f2:	b1f1      	cbz	r1, 800f332 <xQueueReceiveFromISR+0x4a>
 800f2f4:	f004 fec2 	bl	801407c <vPortValidateInterruptPriority>
 800f2f8:	f004 fdca 	bl	8013e90 <ulPortSetInterruptMask>
 800f2fc:	4607      	mov	r7, r0
 800f2fe:	6ba0      	ldr	r0, [r4, #56]	; 0x38
 800f300:	b940      	cbnz	r0, 800f314 <xQueueReceiveFromISR+0x2c>
 800f302:	4604      	mov	r4, r0
 800f304:	4638      	mov	r0, r7
 800f306:	f004 fdf3 	bl	8013ef0 <vPortClearInterruptMask>
 800f30a:	4620      	mov	r0, r4
 800f30c:	bdf8      	pop	{r3, r4, r5, r6, r7, pc}
 800f30e:	f004 fdbf 	bl	8013e90 <ulPortSetInterruptMask>
 800f312:	e7fe      	b.n	800f312 <xQueueReceiveFromISR+0x2a>
 800f314:	4631      	mov	r1, r6
 800f316:	4620      	mov	r0, r4
 800f318:	f7ff fc82 	bl	800ec20 <prvCopyDataFromQueue>
 800f31c:	6ba1      	ldr	r1, [r4, #56]	; 0x38
 800f31e:	1e4a      	subs	r2, r1, #1
 800f320:	63a2      	str	r2, [r4, #56]	; 0x38
 800f322:	6c63      	ldr	r3, [r4, #68]	; 0x44
 800f324:	3301      	adds	r3, #1
 800f326:	d00a      	beq.n	800f33e <xQueueReceiveFromISR+0x56>
 800f328:	6c60      	ldr	r0, [r4, #68]	; 0x44
 800f32a:	1c41      	adds	r1, r0, #1
 800f32c:	6461      	str	r1, [r4, #68]	; 0x44
 800f32e:	2401      	movs	r4, #1
 800f330:	e7e8      	b.n	800f304 <xQueueReceiveFromISR+0x1c>
 800f332:	6c03      	ldr	r3, [r0, #64]	; 0x40
 800f334:	2b00      	cmp	r3, #0
 800f336:	d0dd      	beq.n	800f2f4 <xQueueReceiveFromISR+0xc>
 800f338:	f004 fdaa 	bl	8013e90 <ulPortSetInterruptMask>
 800f33c:	e7fe      	b.n	800f33c <xQueueReceiveFromISR+0x54>
 800f33e:	6922      	ldr	r2, [r4, #16]
 800f340:	2a00      	cmp	r2, #0
 800f342:	d0f4      	beq.n	800f32e <xQueueReceiveFromISR+0x46>
 800f344:	f104 0010 	add.w	r0, r4, #16
 800f348:	f7ff faf0 	bl	800e92c <xTaskRemoveFromEventList>
 800f34c:	2800      	cmp	r0, #0
 800f34e:	d0ee      	beq.n	800f32e <xQueueReceiveFromISR+0x46>
 800f350:	2d00      	cmp	r5, #0
 800f352:	d0ec      	beq.n	800f32e <xQueueReceiveFromISR+0x46>
 800f354:	2401      	movs	r4, #1
 800f356:	602c      	str	r4, [r5, #0]
 800f358:	e7d4      	b.n	800f304 <xQueueReceiveFromISR+0x1c>
 800f35a:	bf00      	nop

0800f35c <xQueueIsQueueEmptyFromISR>:
 800f35c:	b508      	push	{r3, lr}
 800f35e:	b128      	cbz	r0, 800f36c <xQueueIsQueueEmptyFromISR+0x10>
 800f360:	6b80      	ldr	r0, [r0, #56]	; 0x38
 800f362:	f1d0 0001 	rsbs	r0, r0, #1
 800f366:	bf38      	it	cc
 800f368:	2000      	movcc	r0, #0
 800f36a:	bd08      	pop	{r3, pc}
 800f36c:	f004 fd90 	bl	8013e90 <ulPortSetInterruptMask>
 800f370:	e7fe      	b.n	800f370 <xQueueIsQueueEmptyFromISR+0x14>
 800f372:	bf00      	nop

0800f374 <vQueueAddToRegistry>:
 800f374:	4b13      	ldr	r3, [pc, #76]	; (800f3c4 <vQueueAddToRegistry+0x50>)
 800f376:	681a      	ldr	r2, [r3, #0]
 800f378:	b410      	push	{r4}
 800f37a:	b182      	cbz	r2, 800f39e <vQueueAddToRegistry+0x2a>
 800f37c:	689a      	ldr	r2, [r3, #8]
 800f37e:	b1a2      	cbz	r2, 800f3aa <vQueueAddToRegistry+0x36>
 800f380:	691a      	ldr	r2, [r3, #16]
 800f382:	b1a2      	cbz	r2, 800f3ae <vQueueAddToRegistry+0x3a>
 800f384:	699a      	ldr	r2, [r3, #24]
 800f386:	b1a2      	cbz	r2, 800f3b2 <vQueueAddToRegistry+0x3e>
 800f388:	6a1a      	ldr	r2, [r3, #32]
 800f38a:	b1a2      	cbz	r2, 800f3b6 <vQueueAddToRegistry+0x42>
 800f38c:	6a9a      	ldr	r2, [r3, #40]	; 0x28
 800f38e:	b1a2      	cbz	r2, 800f3ba <vQueueAddToRegistry+0x46>
 800f390:	6b1a      	ldr	r2, [r3, #48]	; 0x30
 800f392:	b11a      	cbz	r2, 800f39c <vQueueAddToRegistry+0x28>
 800f394:	6b9a      	ldr	r2, [r3, #56]	; 0x38
 800f396:	b192      	cbz	r2, 800f3be <vQueueAddToRegistry+0x4a>
 800f398:	bc10      	pop	{r4}
 800f39a:	4770      	bx	lr
 800f39c:	2206      	movs	r2, #6
 800f39e:	eb03 04c2 	add.w	r4, r3, r2, lsl #3
 800f3a2:	f843 1032 	str.w	r1, [r3, r2, lsl #3]
 800f3a6:	6060      	str	r0, [r4, #4]
 800f3a8:	e7f6      	b.n	800f398 <vQueueAddToRegistry+0x24>
 800f3aa:	2201      	movs	r2, #1
 800f3ac:	e7f7      	b.n	800f39e <vQueueAddToRegistry+0x2a>
 800f3ae:	2202      	movs	r2, #2
 800f3b0:	e7f5      	b.n	800f39e <vQueueAddToRegistry+0x2a>
 800f3b2:	2203      	movs	r2, #3
 800f3b4:	e7f3      	b.n	800f39e <vQueueAddToRegistry+0x2a>
 800f3b6:	2204      	movs	r2, #4
 800f3b8:	e7f1      	b.n	800f39e <vQueueAddToRegistry+0x2a>
 800f3ba:	2205      	movs	r2, #5
 800f3bc:	e7ef      	b.n	800f39e <vQueueAddToRegistry+0x2a>
 800f3be:	2207      	movs	r2, #7
 800f3c0:	e7ed      	b.n	800f39e <vQueueAddToRegistry+0x2a>
 800f3c2:	bf00      	nop
 800f3c4:	10000e20 	.word	0x10000e20

0800f3c8 <vQueueWaitForMessageRestricted>:
 800f3c8:	b538      	push	{r3, r4, r5, lr}
 800f3ca:	4604      	mov	r4, r0
 800f3cc:	460d      	mov	r5, r1
 800f3ce:	f004 fd67 	bl	8013ea0 <vPortEnterCritical>
 800f3d2:	6c63      	ldr	r3, [r4, #68]	; 0x44
 800f3d4:	3301      	adds	r3, #1
 800f3d6:	d04e      	beq.n	800f476 <vQueueWaitForMessageRestricted+0xae>
 800f3d8:	6ca1      	ldr	r1, [r4, #72]	; 0x48
 800f3da:	1c4b      	adds	r3, r1, #1
 800f3dc:	d048      	beq.n	800f470 <vQueueWaitForMessageRestricted+0xa8>
 800f3de:	f004 fd8b 	bl	8013ef8 <vPortExitCritical>
 800f3e2:	6ba3      	ldr	r3, [r4, #56]	; 0x38
 800f3e4:	b923      	cbnz	r3, 800f3f0 <vQueueWaitForMessageRestricted+0x28>
 800f3e6:	f104 0024 	add.w	r0, r4, #36	; 0x24
 800f3ea:	4629      	mov	r1, r5
 800f3ec:	f7ff fa5a 	bl	800e8a4 <vTaskPlaceOnEventListRestricted>
 800f3f0:	f004 fd56 	bl	8013ea0 <vPortEnterCritical>
 800f3f4:	6ca0      	ldr	r0, [r4, #72]	; 0x48
 800f3f6:	2800      	cmp	r0, #0
 800f3f8:	dd14      	ble.n	800f424 <vQueueWaitForMessageRestricted+0x5c>
 800f3fa:	6a61      	ldr	r1, [r4, #36]	; 0x24
 800f3fc:	b191      	cbz	r1, 800f424 <vQueueWaitForMessageRestricted+0x5c>
 800f3fe:	f104 0524 	add.w	r5, r4, #36	; 0x24
 800f402:	e007      	b.n	800f414 <vQueueWaitForMessageRestricted+0x4c>
 800f404:	6ca2      	ldr	r2, [r4, #72]	; 0x48
 800f406:	1e53      	subs	r3, r2, #1
 800f408:	64a3      	str	r3, [r4, #72]	; 0x48
 800f40a:	6ca0      	ldr	r0, [r4, #72]	; 0x48
 800f40c:	2800      	cmp	r0, #0
 800f40e:	dd09      	ble.n	800f424 <vQueueWaitForMessageRestricted+0x5c>
 800f410:	6a61      	ldr	r1, [r4, #36]	; 0x24
 800f412:	b139      	cbz	r1, 800f424 <vQueueWaitForMessageRestricted+0x5c>
 800f414:	4628      	mov	r0, r5
 800f416:	f7ff fa89 	bl	800e92c <xTaskRemoveFromEventList>
 800f41a:	2800      	cmp	r0, #0
 800f41c:	d0f2      	beq.n	800f404 <vQueueWaitForMessageRestricted+0x3c>
 800f41e:	f7ff fb09 	bl	800ea34 <vTaskMissedYield>
 800f422:	e7ef      	b.n	800f404 <vQueueWaitForMessageRestricted+0x3c>
 800f424:	f04f 32ff 	mov.w	r2, #4294967295
 800f428:	64a2      	str	r2, [r4, #72]	; 0x48
 800f42a:	f004 fd65 	bl	8013ef8 <vPortExitCritical>
 800f42e:	f004 fd37 	bl	8013ea0 <vPortEnterCritical>
 800f432:	6c63      	ldr	r3, [r4, #68]	; 0x44
 800f434:	2b00      	cmp	r3, #0
 800f436:	dd14      	ble.n	800f462 <vQueueWaitForMessageRestricted+0x9a>
 800f438:	6920      	ldr	r0, [r4, #16]
 800f43a:	b190      	cbz	r0, 800f462 <vQueueWaitForMessageRestricted+0x9a>
 800f43c:	f104 0510 	add.w	r5, r4, #16
 800f440:	e007      	b.n	800f452 <vQueueWaitForMessageRestricted+0x8a>
 800f442:	6c61      	ldr	r1, [r4, #68]	; 0x44
 800f444:	1e4a      	subs	r2, r1, #1
 800f446:	6462      	str	r2, [r4, #68]	; 0x44
 800f448:	6c63      	ldr	r3, [r4, #68]	; 0x44
 800f44a:	2b00      	cmp	r3, #0
 800f44c:	dd09      	ble.n	800f462 <vQueueWaitForMessageRestricted+0x9a>
 800f44e:	6920      	ldr	r0, [r4, #16]
 800f450:	b138      	cbz	r0, 800f462 <vQueueWaitForMessageRestricted+0x9a>
 800f452:	4628      	mov	r0, r5
 800f454:	f7ff fa6a 	bl	800e92c <xTaskRemoveFromEventList>
 800f458:	2800      	cmp	r0, #0
 800f45a:	d0f2      	beq.n	800f442 <vQueueWaitForMessageRestricted+0x7a>
 800f45c:	f7ff faea 	bl	800ea34 <vTaskMissedYield>
 800f460:	e7ef      	b.n	800f442 <vQueueWaitForMessageRestricted+0x7a>
 800f462:	f04f 31ff 	mov.w	r1, #4294967295
 800f466:	6461      	str	r1, [r4, #68]	; 0x44
 800f468:	e8bd 4038 	ldmia.w	sp!, {r3, r4, r5, lr}
 800f46c:	f004 bd44 	b.w	8013ef8 <vPortExitCritical>
 800f470:	2200      	movs	r2, #0
 800f472:	64a2      	str	r2, [r4, #72]	; 0x48
 800f474:	e7b3      	b.n	800f3de <vQueueWaitForMessageRestricted+0x16>
 800f476:	2000      	movs	r0, #0
 800f478:	6460      	str	r0, [r4, #68]	; 0x44
 800f47a:	e7ad      	b.n	800f3d8 <vQueueWaitForMessageRestricted+0x10>

0800f47c <vListInitialise>:
 800f47c:	f100 0308 	add.w	r3, r0, #8
 800f480:	f04f 32ff 	mov.w	r2, #4294967295
 800f484:	2100      	movs	r1, #0
 800f486:	6043      	str	r3, [r0, #4]
 800f488:	6082      	str	r2, [r0, #8]
 800f48a:	60c3      	str	r3, [r0, #12]
 800f48c:	6103      	str	r3, [r0, #16]
 800f48e:	6001      	str	r1, [r0, #0]
 800f490:	4770      	bx	lr
 800f492:	bf00      	nop

0800f494 <vListInitialiseItem>:
 800f494:	2300      	movs	r3, #0
 800f496:	6103      	str	r3, [r0, #16]
 800f498:	4770      	bx	lr
 800f49a:	bf00      	nop

0800f49c <vListInsertEnd>:
 800f49c:	6843      	ldr	r3, [r0, #4]
 800f49e:	689a      	ldr	r2, [r3, #8]
 800f4a0:	b410      	push	{r4}
 800f4a2:	6804      	ldr	r4, [r0, #0]
 800f4a4:	608a      	str	r2, [r1, #8]
 800f4a6:	689a      	ldr	r2, [r3, #8]
 800f4a8:	604b      	str	r3, [r1, #4]
 800f4aa:	3401      	adds	r4, #1
 800f4ac:	6108      	str	r0, [r1, #16]
 800f4ae:	6051      	str	r1, [r2, #4]
 800f4b0:	6099      	str	r1, [r3, #8]
 800f4b2:	6004      	str	r4, [r0, #0]
 800f4b4:	bc10      	pop	{r4}
 800f4b6:	4770      	bx	lr

0800f4b8 <vListInsert>:
 800f4b8:	b430      	push	{r4, r5}
 800f4ba:	680d      	ldr	r5, [r1, #0]
 800f4bc:	1c6b      	adds	r3, r5, #1
 800f4be:	d011      	beq.n	800f4e4 <vListInsert+0x2c>
 800f4c0:	f100 0208 	add.w	r2, r0, #8
 800f4c4:	e000      	b.n	800f4c8 <vListInsert+0x10>
 800f4c6:	461a      	mov	r2, r3
 800f4c8:	6853      	ldr	r3, [r2, #4]
 800f4ca:	681c      	ldr	r4, [r3, #0]
 800f4cc:	42a5      	cmp	r5, r4
 800f4ce:	d2fa      	bcs.n	800f4c6 <vListInsert+0xe>
 800f4d0:	6804      	ldr	r4, [r0, #0]
 800f4d2:	604b      	str	r3, [r1, #4]
 800f4d4:	3401      	adds	r4, #1
 800f4d6:	6099      	str	r1, [r3, #8]
 800f4d8:	6051      	str	r1, [r2, #4]
 800f4da:	608a      	str	r2, [r1, #8]
 800f4dc:	6108      	str	r0, [r1, #16]
 800f4de:	6004      	str	r4, [r0, #0]
 800f4e0:	bc30      	pop	{r4, r5}
 800f4e2:	4770      	bx	lr
 800f4e4:	6902      	ldr	r2, [r0, #16]
 800f4e6:	6853      	ldr	r3, [r2, #4]
 800f4e8:	e7f2      	b.n	800f4d0 <vListInsert+0x18>
 800f4ea:	bf00      	nop

0800f4ec <uxListRemove>:
 800f4ec:	6842      	ldr	r2, [r0, #4]
 800f4ee:	6881      	ldr	r1, [r0, #8]
 800f4f0:	6903      	ldr	r3, [r0, #16]
 800f4f2:	b410      	push	{r4}
 800f4f4:	6091      	str	r1, [r2, #8]
 800f4f6:	6881      	ldr	r1, [r0, #8]
 800f4f8:	685c      	ldr	r4, [r3, #4]
 800f4fa:	604a      	str	r2, [r1, #4]
 800f4fc:	681a      	ldr	r2, [r3, #0]
 800f4fe:	4284      	cmp	r4, r0
 800f500:	bf08      	it	eq
 800f502:	6059      	streq	r1, [r3, #4]
 800f504:	3a01      	subs	r2, #1
 800f506:	2100      	movs	r1, #0
 800f508:	6101      	str	r1, [r0, #16]
 800f50a:	4610      	mov	r0, r2
 800f50c:	601a      	str	r2, [r3, #0]
 800f50e:	bc10      	pop	{r4}
 800f510:	4770      	bx	lr
 800f512:	bf00      	nop

0800f514 <prvSwitchTimerLists>:
 800f514:	e92d 47f0 	stmdb	sp!, {r4, r5, r6, r7, r8, r9, sl, lr}
 800f518:	4d1f      	ldr	r5, [pc, #124]	; (800f598 <prvSwitchTimerLists+0x84>)
 800f51a:	4e20      	ldr	r6, [pc, #128]	; (800f59c <prvSwitchTimerLists+0x88>)
 800f51c:	b084      	sub	sp, #16
 800f51e:	46a8      	mov	r8, r5
 800f520:	f04f 0a00 	mov.w	sl, #0
 800f524:	e00d      	b.n	800f542 <prvSwitchTimerLists+0x2e>
 800f526:	68df      	ldr	r7, [r3, #12]
 800f528:	68fc      	ldr	r4, [r7, #12]
 800f52a:	683f      	ldr	r7, [r7, #0]
 800f52c:	f104 0904 	add.w	r9, r4, #4
 800f530:	4648      	mov	r0, r9
 800f532:	f7ff ffdb 	bl	800f4ec <uxListRemove>
 800f536:	4620      	mov	r0, r4
 800f538:	6a62      	ldr	r2, [r4, #36]	; 0x24
 800f53a:	4790      	blx	r2
 800f53c:	69e0      	ldr	r0, [r4, #28]
 800f53e:	2801      	cmp	r0, #1
 800f540:	d00b      	beq.n	800f55a <prvSwitchTimerLists+0x46>
 800f542:	682b      	ldr	r3, [r5, #0]
 800f544:	681a      	ldr	r2, [r3, #0]
 800f546:	2a00      	cmp	r2, #0
 800f548:	d1ed      	bne.n	800f526 <prvSwitchTimerLists+0x12>
 800f54a:	4815      	ldr	r0, [pc, #84]	; (800f5a0 <prvSwitchTimerLists+0x8c>)
 800f54c:	6801      	ldr	r1, [r0, #0]
 800f54e:	6003      	str	r3, [r0, #0]
 800f550:	4b11      	ldr	r3, [pc, #68]	; (800f598 <prvSwitchTimerLists+0x84>)
 800f552:	6019      	str	r1, [r3, #0]
 800f554:	b004      	add	sp, #16
 800f556:	e8bd 87f0 	ldmia.w	sp!, {r4, r5, r6, r7, r8, r9, sl, pc}
 800f55a:	69a1      	ldr	r1, [r4, #24]
 800f55c:	187b      	adds	r3, r7, r1
 800f55e:	42bb      	cmp	r3, r7
 800f560:	d812      	bhi.n	800f588 <prvSwitchTimerLists+0x74>
 800f562:	6832      	ldr	r2, [r6, #0]
 800f564:	b16a      	cbz	r2, 800f582 <prvSwitchTimerLists+0x6e>
 800f566:	f8cd a004 	str.w	sl, [sp, #4]
 800f56a:	9702      	str	r7, [sp, #8]
 800f56c:	9403      	str	r4, [sp, #12]
 800f56e:	f7ff fa69 	bl	800ea44 <xTaskGetSchedulerState>
 800f572:	2200      	movs	r2, #0
 800f574:	6830      	ldr	r0, [r6, #0]
 800f576:	a901      	add	r1, sp, #4
 800f578:	4613      	mov	r3, r2
 800f57a:	f7ff fba1 	bl	800ecc0 <xQueueGenericSend>
 800f57e:	2800      	cmp	r0, #0
 800f580:	d1df      	bne.n	800f542 <prvSwitchTimerLists+0x2e>
 800f582:	f004 fc85 	bl	8013e90 <ulPortSetInterruptMask>
 800f586:	e7fe      	b.n	800f586 <prvSwitchTimerLists+0x72>
 800f588:	6063      	str	r3, [r4, #4]
 800f58a:	6124      	str	r4, [r4, #16]
 800f58c:	f8d8 0000 	ldr.w	r0, [r8]
 800f590:	4649      	mov	r1, r9
 800f592:	f7ff ff91 	bl	800f4b8 <vListInsert>
 800f596:	e7d4      	b.n	800f542 <prvSwitchTimerLists+0x2e>
 800f598:	10000a24 	.word	0x10000a24
 800f59c:	10000a54 	.word	0x10000a54
 800f5a0:	10000a58 	.word	0x10000a58

0800f5a4 <prvTimerTask>:
 800f5a4:	e92d 4ff0 	stmdb	sp!, {r4, r5, r6, r7, r8, r9, sl, fp, lr}
 800f5a8:	4d83      	ldr	r5, [pc, #524]	; (800f7b8 <prvTimerTask+0x214>)
 800f5aa:	4e84      	ldr	r6, [pc, #528]	; (800f7bc <prvTimerTask+0x218>)
 800f5ac:	4c84      	ldr	r4, [pc, #528]	; (800f7c0 <prvTimerTask+0x21c>)
 800f5ae:	b08d      	sub	sp, #52	; 0x34
 800f5b0:	462f      	mov	r7, r5
 800f5b2:	f04f 0901 	mov.w	r9, #1
 800f5b6:	6833      	ldr	r3, [r6, #0]
 800f5b8:	681a      	ldr	r2, [r3, #0]
 800f5ba:	f1d2 0a01 	rsbs	sl, r2, #1
 800f5be:	bf38      	it	cc
 800f5c0:	f04f 0a00 	movcc.w	sl, #0
 800f5c4:	f1ba 0f00 	cmp.w	sl, #0
 800f5c8:	d147      	bne.n	800f65a <prvTimerTask+0xb6>
 800f5ca:	68d8      	ldr	r0, [r3, #12]
 800f5cc:	f8d0 b000 	ldr.w	fp, [r0]
 800f5d0:	f7fe ff46 	bl	800e460 <vTaskSuspendAll>
 800f5d4:	f7fe ff4c 	bl	800e470 <xTaskGetTickCount>
 800f5d8:	6829      	ldr	r1, [r5, #0]
 800f5da:	4288      	cmp	r0, r1
 800f5dc:	4680      	mov	r8, r0
 800f5de:	f0c0 8086 	bcc.w	800f6ee <prvTimerTask+0x14a>
 800f5e2:	6038      	str	r0, [r7, #0]
 800f5e4:	f1ba 0f00 	cmp.w	sl, #0
 800f5e8:	d102      	bne.n	800f5f0 <prvTimerTask+0x4c>
 800f5ea:	45c3      	cmp	fp, r8
 800f5ec:	f240 8098 	bls.w	800f720 <prvTimerTask+0x17c>
 800f5f0:	6820      	ldr	r0, [r4, #0]
 800f5f2:	ebc8 010b 	rsb	r1, r8, fp
 800f5f6:	f7ff fee7 	bl	800f3c8 <vQueueWaitForMessageRestricted>
 800f5fa:	f7fe fff9 	bl	800e5f0 <xTaskResumeAll>
 800f5fe:	2800      	cmp	r0, #0
 800f600:	f000 808b 	beq.w	800f71a <prvTimerTask+0x176>
 800f604:	2200      	movs	r2, #0
 800f606:	6820      	ldr	r0, [r4, #0]
 800f608:	a906      	add	r1, sp, #24
 800f60a:	4613      	mov	r3, r2
 800f60c:	f7ff fd4e 	bl	800f0ac <xQueueGenericReceive>
 800f610:	2800      	cmp	r0, #0
 800f612:	d0d0      	beq.n	800f5b6 <prvTimerTask+0x12>
 800f614:	9906      	ldr	r1, [sp, #24]
 800f616:	2900      	cmp	r1, #0
 800f618:	dbf4      	blt.n	800f604 <prvTimerTask+0x60>
 800f61a:	f8dd a020 	ldr.w	sl, [sp, #32]
 800f61e:	f8da 0014 	ldr.w	r0, [sl, #20]
 800f622:	b118      	cbz	r0, 800f62c <prvTimerTask+0x88>
 800f624:	f10a 0004 	add.w	r0, sl, #4
 800f628:	f7ff ff60 	bl	800f4ec <uxListRemove>
 800f62c:	f7fe ff20 	bl	800e470 <xTaskGetTickCount>
 800f630:	682b      	ldr	r3, [r5, #0]
 800f632:	4298      	cmp	r0, r3
 800f634:	d362      	bcc.n	800f6fc <prvTimerTask+0x158>
 800f636:	9a06      	ldr	r2, [sp, #24]
 800f638:	6028      	str	r0, [r5, #0]
 800f63a:	2a09      	cmp	r2, #9
 800f63c:	d8e2      	bhi.n	800f604 <prvTimerTask+0x60>
 800f63e:	fa09 f102 	lsl.w	r1, r9, r2
 800f642:	f411 7f04 	tst.w	r1, #528	; 0x210
 800f646:	d13c      	bne.n	800f6c2 <prvTimerTask+0x11e>
 800f648:	f011 0fc7 	tst.w	r1, #199	; 0xc7
 800f64c:	d108      	bne.n	800f660 <prvTimerTask+0xbc>
 800f64e:	068b      	lsls	r3, r1, #26
 800f650:	d5d8      	bpl.n	800f604 <prvTimerTask+0x60>
 800f652:	4650      	mov	r0, sl
 800f654:	f004 fd48 	bl	80140e8 <vPortFree>
 800f658:	e7d4      	b.n	800f604 <prvTimerTask+0x60>
 800f65a:	f04f 0b00 	mov.w	fp, #0
 800f65e:	e7b7      	b.n	800f5d0 <prvTimerTask+0x2c>
 800f660:	9a07      	ldr	r2, [sp, #28]
 800f662:	f8da 1018 	ldr.w	r1, [sl, #24]
 800f666:	f8ca a010 	str.w	sl, [sl, #16]
 800f66a:	188b      	adds	r3, r1, r2
 800f66c:	4283      	cmp	r3, r0
 800f66e:	f8ca 3004 	str.w	r3, [sl, #4]
 800f672:	d848      	bhi.n	800f706 <prvTimerTask+0x162>
 800f674:	1a80      	subs	r0, r0, r2
 800f676:	4281      	cmp	r1, r0
 800f678:	d82f      	bhi.n	800f6da <prvTimerTask+0x136>
 800f67a:	f8da 2024 	ldr.w	r2, [sl, #36]	; 0x24
 800f67e:	4650      	mov	r0, sl
 800f680:	4790      	blx	r2
 800f682:	f8da 101c 	ldr.w	r1, [sl, #28]
 800f686:	2901      	cmp	r1, #1
 800f688:	d1bc      	bne.n	800f604 <prvTimerTask+0x60>
 800f68a:	f8da 0018 	ldr.w	r0, [sl, #24]
 800f68e:	9a07      	ldr	r2, [sp, #28]
 800f690:	6823      	ldr	r3, [r4, #0]
 800f692:	1881      	adds	r1, r0, r2
 800f694:	b193      	cbz	r3, 800f6bc <prvTimerTask+0x118>
 800f696:	2000      	movs	r0, #0
 800f698:	910a      	str	r1, [sp, #40]	; 0x28
 800f69a:	9009      	str	r0, [sp, #36]	; 0x24
 800f69c:	f8cd a02c 	str.w	sl, [sp, #44]	; 0x2c
 800f6a0:	f7ff f9d0 	bl	800ea44 <xTaskGetSchedulerState>
 800f6a4:	f640 2354 	movw	r3, #2644	; 0xa54
 800f6a8:	f2c1 0300 	movt	r3, #4096	; 0x1000
 800f6ac:	2200      	movs	r2, #0
 800f6ae:	6818      	ldr	r0, [r3, #0]
 800f6b0:	a909      	add	r1, sp, #36	; 0x24
 800f6b2:	4613      	mov	r3, r2
 800f6b4:	f7ff fb04 	bl	800ecc0 <xQueueGenericSend>
 800f6b8:	2800      	cmp	r0, #0
 800f6ba:	d1a3      	bne.n	800f604 <prvTimerTask+0x60>
 800f6bc:	f004 fbe8 	bl	8013e90 <ulPortSetInterruptMask>
 800f6c0:	e7fe      	b.n	800f6c0 <prvTimerTask+0x11c>
 800f6c2:	9a07      	ldr	r2, [sp, #28]
 800f6c4:	f8ca 2018 	str.w	r2, [sl, #24]
 800f6c8:	2a00      	cmp	r2, #0
 800f6ca:	d06a      	beq.n	800f7a2 <prvTimerTask+0x1fe>
 800f6cc:	1881      	adds	r1, r0, r2
 800f6ce:	4288      	cmp	r0, r1
 800f6d0:	f8ca 1004 	str.w	r1, [sl, #4]
 800f6d4:	f8ca a010 	str.w	sl, [sl, #16]
 800f6d8:	d319      	bcc.n	800f70e <prvTimerTask+0x16a>
 800f6da:	f640 2058 	movw	r0, #2648	; 0xa58
 800f6de:	f2c1 0000 	movt	r0, #4096	; 0x1000
 800f6e2:	f10a 0104 	add.w	r1, sl, #4
 800f6e6:	6800      	ldr	r0, [r0, #0]
 800f6e8:	f7ff fee6 	bl	800f4b8 <vListInsert>
 800f6ec:	e78a      	b.n	800f604 <prvTimerTask+0x60>
 800f6ee:	f7ff ff11 	bl	800f514 <prvSwitchTimerLists>
 800f6f2:	f8c7 8000 	str.w	r8, [r7]
 800f6f6:	f7fe ff7b 	bl	800e5f0 <xTaskResumeAll>
 800f6fa:	e783      	b.n	800f604 <prvTimerTask+0x60>
 800f6fc:	9000      	str	r0, [sp, #0]
 800f6fe:	f7ff ff09 	bl	800f514 <prvSwitchTimerLists>
 800f702:	9800      	ldr	r0, [sp, #0]
 800f704:	e797      	b.n	800f636 <prvTimerTask+0x92>
 800f706:	4282      	cmp	r2, r0
 800f708:	d901      	bls.n	800f70e <prvTimerTask+0x16a>
 800f70a:	429a      	cmp	r2, r3
 800f70c:	d9b5      	bls.n	800f67a <prvTimerTask+0xd6>
 800f70e:	6830      	ldr	r0, [r6, #0]
 800f710:	f10a 0104 	add.w	r1, sl, #4
 800f714:	f7ff fed0 	bl	800f4b8 <vListInsert>
 800f718:	e774      	b.n	800f604 <prvTimerTask+0x60>
 800f71a:	f004 fbad 	bl	8013e78 <vPortYield>
 800f71e:	e771      	b.n	800f604 <prvTimerTask+0x60>
 800f720:	f7fe ff66 	bl	800e5f0 <xTaskResumeAll>
 800f724:	6833      	ldr	r3, [r6, #0]
 800f726:	68da      	ldr	r2, [r3, #12]
 800f728:	68d0      	ldr	r0, [r2, #12]
 800f72a:	1d03      	adds	r3, r0, #4
 800f72c:	9001      	str	r0, [sp, #4]
 800f72e:	4618      	mov	r0, r3
 800f730:	9300      	str	r3, [sp, #0]
 800f732:	f7ff fedb 	bl	800f4ec <uxListRemove>
 800f736:	9801      	ldr	r0, [sp, #4]
 800f738:	9900      	ldr	r1, [sp, #0]
 800f73a:	69c2      	ldr	r2, [r0, #28]
 800f73c:	2a01      	cmp	r2, #1
 800f73e:	d003      	beq.n	800f748 <prvTimerTask+0x1a4>
 800f740:	9801      	ldr	r0, [sp, #4]
 800f742:	6a42      	ldr	r2, [r0, #36]	; 0x24
 800f744:	4790      	blx	r2
 800f746:	e75d      	b.n	800f604 <prvTimerTask+0x60>
 800f748:	6982      	ldr	r2, [r0, #24]
 800f74a:	6100      	str	r0, [r0, #16]
 800f74c:	4603      	mov	r3, r0
 800f74e:	eb0b 0002 	add.w	r0, fp, r2
 800f752:	4580      	cmp	r8, r0
 800f754:	6058      	str	r0, [r3, #4]
 800f756:	d207      	bcs.n	800f768 <prvTimerTask+0x1c4>
 800f758:	f640 2324 	movw	r3, #2596	; 0xa24
 800f75c:	f2c1 0300 	movt	r3, #4096	; 0x1000
 800f760:	6818      	ldr	r0, [r3, #0]
 800f762:	f7ff fea9 	bl	800f4b8 <vListInsert>
 800f766:	e7eb      	b.n	800f740 <prvTimerTask+0x19c>
 800f768:	ebcb 0c08 	rsb	ip, fp, r8
 800f76c:	4562      	cmp	r2, ip
 800f76e:	d81b      	bhi.n	800f7a8 <prvTimerTask+0x204>
 800f770:	6821      	ldr	r1, [r4, #0]
 800f772:	b199      	cbz	r1, 800f79c <prvTimerTask+0x1f8>
 800f774:	9801      	ldr	r0, [sp, #4]
 800f776:	f8cd a00c 	str.w	sl, [sp, #12]
 800f77a:	f8cd b010 	str.w	fp, [sp, #16]
 800f77e:	9005      	str	r0, [sp, #20]
 800f780:	f7ff f960 	bl	800ea44 <xTaskGetSchedulerState>
 800f784:	f640 2354 	movw	r3, #2644	; 0xa54
 800f788:	f2c1 0300 	movt	r3, #4096	; 0x1000
 800f78c:	4652      	mov	r2, sl
 800f78e:	6818      	ldr	r0, [r3, #0]
 800f790:	a903      	add	r1, sp, #12
 800f792:	4653      	mov	r3, sl
 800f794:	f7ff fa94 	bl	800ecc0 <xQueueGenericSend>
 800f798:	2800      	cmp	r0, #0
 800f79a:	d1d1      	bne.n	800f740 <prvTimerTask+0x19c>
 800f79c:	f004 fb78 	bl	8013e90 <ulPortSetInterruptMask>
 800f7a0:	e7fe      	b.n	800f7a0 <prvTimerTask+0x1fc>
 800f7a2:	f004 fb75 	bl	8013e90 <ulPortSetInterruptMask>
 800f7a6:	e7fe      	b.n	800f7a6 <prvTimerTask+0x202>
 800f7a8:	f640 2258 	movw	r2, #2648	; 0xa58
 800f7ac:	f2c1 0200 	movt	r2, #4096	; 0x1000
 800f7b0:	6810      	ldr	r0, [r2, #0]
 800f7b2:	f7ff fe81 	bl	800f4b8 <vListInsert>
 800f7b6:	e7c3      	b.n	800f740 <prvTimerTask+0x19c>
 800f7b8:	10000a50 	.word	0x10000a50
 800f7bc:	10000a24 	.word	0x10000a24
 800f7c0:	10000a54 	.word	0x10000a54

0800f7c4 <xTimerCreateTimerTask>:
 800f7c4:	b5f0      	push	{r4, r5, r6, r7, lr}
 800f7c6:	4c1d      	ldr	r4, [pc, #116]	; (800f83c <xTimerCreateTimerTask+0x78>)
 800f7c8:	b085      	sub	sp, #20
 800f7ca:	f004 fb69 	bl	8013ea0 <vPortEnterCritical>
 800f7ce:	6826      	ldr	r6, [r4, #0]
 800f7d0:	b19e      	cbz	r6, 800f7fa <xTimerCreateTimerTask+0x36>
 800f7d2:	f004 fb91 	bl	8013ef8 <vPortExitCritical>
 800f7d6:	6820      	ldr	r0, [r4, #0]
 800f7d8:	2800      	cmp	r0, #0
 800f7da:	d029      	beq.n	800f830 <xTimerCreateTimerTask+0x6c>
 800f7dc:	2300      	movs	r3, #0
 800f7de:	2202      	movs	r2, #2
 800f7e0:	e88d 000c 	stmia.w	sp, {r2, r3}
 800f7e4:	9302      	str	r3, [sp, #8]
 800f7e6:	9303      	str	r3, [sp, #12]
 800f7e8:	4815      	ldr	r0, [pc, #84]	; (800f840 <xTimerCreateTimerTask+0x7c>)
 800f7ea:	4916      	ldr	r1, [pc, #88]	; (800f844 <xTimerCreateTimerTask+0x80>)
 800f7ec:	f44f 7282 	mov.w	r2, #260	; 0x104
 800f7f0:	f7fe fcee 	bl	800e1d0 <xTaskGenericCreate>
 800f7f4:	b1e0      	cbz	r0, 800f830 <xTimerCreateTimerTask+0x6c>
 800f7f6:	b005      	add	sp, #20
 800f7f8:	bdf0      	pop	{r4, r5, r6, r7, pc}
 800f7fa:	4f13      	ldr	r7, [pc, #76]	; (800f848 <xTimerCreateTimerTask+0x84>)
 800f7fc:	4d13      	ldr	r5, [pc, #76]	; (800f84c <xTimerCreateTimerTask+0x88>)
 800f7fe:	4638      	mov	r0, r7
 800f800:	f7ff fe3c 	bl	800f47c <vListInitialise>
 800f804:	4628      	mov	r0, r5
 800f806:	f7ff fe39 	bl	800f47c <vListInitialise>
 800f80a:	4b11      	ldr	r3, [pc, #68]	; (800f850 <xTimerCreateTimerTask+0x8c>)
 800f80c:	601f      	str	r7, [r3, #0]
 800f80e:	4b11      	ldr	r3, [pc, #68]	; (800f854 <xTimerCreateTimerTask+0x90>)
 800f810:	200a      	movs	r0, #10
 800f812:	210c      	movs	r1, #12
 800f814:	4632      	mov	r2, r6
 800f816:	601d      	str	r5, [r3, #0]
 800f818:	f7ff fa16 	bl	800ec48 <xQueueGenericCreate>
 800f81c:	6020      	str	r0, [r4, #0]
 800f81e:	b150      	cbz	r0, 800f836 <xTimerCreateTimerTask+0x72>
 800f820:	490d      	ldr	r1, [pc, #52]	; (800f858 <xTimerCreateTimerTask+0x94>)
 800f822:	f7ff fda7 	bl	800f374 <vQueueAddToRegistry>
 800f826:	f004 fb67 	bl	8013ef8 <vPortExitCritical>
 800f82a:	6820      	ldr	r0, [r4, #0]
 800f82c:	2800      	cmp	r0, #0
 800f82e:	d1d5      	bne.n	800f7dc <xTimerCreateTimerTask+0x18>
 800f830:	f004 fb2e 	bl	8013e90 <ulPortSetInterruptMask>
 800f834:	e7fe      	b.n	800f834 <xTimerCreateTimerTask+0x70>
 800f836:	f004 fb2b 	bl	8013e90 <ulPortSetInterruptMask>
 800f83a:	e7fe      	b.n	800f83a <xTimerCreateTimerTask+0x76>
 800f83c:	10000a54 	.word	0x10000a54
 800f840:	0800f5a5 	.word	0x0800f5a5
 800f844:	08014eb4 	.word	0x08014eb4
 800f848:	10000a28 	.word	0x10000a28
 800f84c:	10000a3c 	.word	0x10000a3c
 800f850:	10000a24 	.word	0x10000a24
 800f854:	10000a58 	.word	0x10000a58
 800f858:	08014eac 	.word	0x08014eac

0800f85c <NVIC_PriorityGroupConfig>:
 800f85c:	f44f 436d 	mov.w	r3, #60672	; 0xed00
 800f860:	f040 60bf 	orr.w	r0, r0, #100139008	; 0x5f80000
 800f864:	f2ce 0300 	movt	r3, #57344	; 0xe000
 800f868:	f440 3100 	orr.w	r1, r0, #131072	; 0x20000
 800f86c:	60d9      	str	r1, [r3, #12]
 800f86e:	4770      	bx	lr

0800f870 <_ZN4quan3uav3osd11draw_bitmapEPKNS1_12basic_bitmapERKNS_5two_d4vectIlEE>:
 800f870:	e92d 4ff0 	stmdb	sp!, {r4, r5, r6, r7, r8, r9, sl, fp, lr}
 800f874:	4607      	mov	r7, r0
 800f876:	b087      	sub	sp, #28
 800f878:	460c      	mov	r4, r1
 800f87a:	2800      	cmp	r0, #0
 800f87c:	d06e      	beq.n	800f95c <_ZN4quan3uav3osd11draw_bitmapEPKNS1_12basic_bitmapERKNS_5two_d4vectIlEE+0xec>
 800f87e:	4668      	mov	r0, sp
 800f880:	4639      	mov	r1, r7
 800f882:	f7fd fb49 	bl	800cf18 <_ZN4quan3uav3osd8get_sizeEPKNS1_12basic_bitmapE>
 800f886:	f8dd 9004 	ldr.w	r9, [sp, #4]
 800f88a:	6862      	ldr	r2, [r4, #4]
 800f88c:	6823      	ldr	r3, [r4, #0]
 800f88e:	f8dd 8000 	ldr.w	r8, [sp]
 800f892:	9304      	str	r3, [sp, #16]
 800f894:	444a      	add	r2, r9
 800f896:	a802      	add	r0, sp, #8
 800f898:	a904      	add	r1, sp, #16
 800f89a:	9205      	str	r2, [sp, #20]
 800f89c:	f7fd fabc 	bl	800ce18 <_ZN4quan3uav3osd16transform_to_rawERKNS_5two_d4vectIlEE>
 800f8a0:	f1b9 0f00 	cmp.w	r9, #0
 800f8a4:	f8dd a008 	ldr.w	sl, [sp, #8]
 800f8a8:	dd58      	ble.n	800f95c <_ZN4quan3uav3osd11draw_bitmapEPKNS1_12basic_bitmapERKNS_5two_d4vectIlEE+0xec>
 800f8aa:	2500      	movs	r5, #0
 800f8ac:	46ab      	mov	fp, r5
 800f8ae:	f1b8 0f00 	cmp.w	r8, #0
 800f8b2:	f8cd a008 	str.w	sl, [sp, #8]
 800f8b6:	dd4b      	ble.n	800f950 <_ZN4quan3uav3osd11draw_bitmapEPKNS1_12basic_bitmapERKNS_5two_d4vectIlEE+0xe0>
 800f8b8:	a904      	add	r1, sp, #16
 800f8ba:	4638      	mov	r0, r7
 800f8bc:	f8cd b010 	str.w	fp, [sp, #16]
 800f8c0:	9505      	str	r5, [sp, #20]
 800f8c2:	f7fd fafb 	bl	800cebc <_ZN4quan3uav3osd13get_pixel_rawEPKNS1_12basic_bitmapERKNS_5two_d4vectIlEE>
 800f8c6:	f108 36ff 	add.w	r6, r8, #4294967295
 800f8ca:	2803      	cmp	r0, #3
 800f8cc:	f006 0601 	and.w	r6, r6, #1
 800f8d0:	4601      	mov	r1, r0
 800f8d2:	d002      	beq.n	800f8da <_ZN4quan3uav3osd11draw_bitmapEPKNS1_12basic_bitmapERKNS_5two_d4vectIlEE+0x6a>
 800f8d4:	a802      	add	r0, sp, #8
 800f8d6:	f7fd fac9 	bl	800ce6c <_ZN4quan3uav3osd13set_pixel_rawERKNS_5two_d4vectIlEENS1_11colour_typeE>
 800f8da:	9802      	ldr	r0, [sp, #8]
 800f8dc:	2401      	movs	r4, #1
 800f8de:	1901      	adds	r1, r0, r4
 800f8e0:	4544      	cmp	r4, r8
 800f8e2:	9102      	str	r1, [sp, #8]
 800f8e4:	d034      	beq.n	800f950 <_ZN4quan3uav3osd11draw_bitmapEPKNS1_12basic_bitmapERKNS_5two_d4vectIlEE+0xe0>
 800f8e6:	b18e      	cbz	r6, 800f90c <_ZN4quan3uav3osd11draw_bitmapEPKNS1_12basic_bitmapERKNS_5two_d4vectIlEE+0x9c>
 800f8e8:	a904      	add	r1, sp, #16
 800f8ea:	4638      	mov	r0, r7
 800f8ec:	9404      	str	r4, [sp, #16]
 800f8ee:	9505      	str	r5, [sp, #20]
 800f8f0:	f7fd fae4 	bl	800cebc <_ZN4quan3uav3osd13get_pixel_rawEPKNS1_12basic_bitmapERKNS_5two_d4vectIlEE>
 800f8f4:	2803      	cmp	r0, #3
 800f8f6:	4601      	mov	r1, r0
 800f8f8:	d002      	beq.n	800f900 <_ZN4quan3uav3osd11draw_bitmapEPKNS1_12basic_bitmapERKNS_5two_d4vectIlEE+0x90>
 800f8fa:	a802      	add	r0, sp, #8
 800f8fc:	f7fd fab6 	bl	800ce6c <_ZN4quan3uav3osd13set_pixel_rawERKNS_5two_d4vectIlEENS1_11colour_typeE>
 800f900:	9b02      	ldr	r3, [sp, #8]
 800f902:	3401      	adds	r4, #1
 800f904:	1c5a      	adds	r2, r3, #1
 800f906:	4544      	cmp	r4, r8
 800f908:	9202      	str	r2, [sp, #8]
 800f90a:	d021      	beq.n	800f950 <_ZN4quan3uav3osd11draw_bitmapEPKNS1_12basic_bitmapERKNS_5two_d4vectIlEE+0xe0>
 800f90c:	a904      	add	r1, sp, #16
 800f90e:	4638      	mov	r0, r7
 800f910:	9404      	str	r4, [sp, #16]
 800f912:	9505      	str	r5, [sp, #20]
 800f914:	f7fd fad2 	bl	800cebc <_ZN4quan3uav3osd13get_pixel_rawEPKNS1_12basic_bitmapERKNS_5two_d4vectIlEE>
 800f918:	1c66      	adds	r6, r4, #1
 800f91a:	2803      	cmp	r0, #3
 800f91c:	4601      	mov	r1, r0
 800f91e:	a802      	add	r0, sp, #8
 800f920:	d001      	beq.n	800f926 <_ZN4quan3uav3osd11draw_bitmapEPKNS1_12basic_bitmapERKNS_5two_d4vectIlEE+0xb6>
 800f922:	f7fd faa3 	bl	800ce6c <_ZN4quan3uav3osd13set_pixel_rawERKNS_5two_d4vectIlEENS1_11colour_typeE>
 800f926:	9c02      	ldr	r4, [sp, #8]
 800f928:	9604      	str	r6, [sp, #16]
 800f92a:	1c63      	adds	r3, r4, #1
 800f92c:	a904      	add	r1, sp, #16
 800f92e:	4638      	mov	r0, r7
 800f930:	9302      	str	r3, [sp, #8]
 800f932:	9505      	str	r5, [sp, #20]
 800f934:	f7fd fac2 	bl	800cebc <_ZN4quan3uav3osd13get_pixel_rawEPKNS1_12basic_bitmapERKNS_5two_d4vectIlEE>
 800f938:	2803      	cmp	r0, #3
 800f93a:	4601      	mov	r1, r0
 800f93c:	a802      	add	r0, sp, #8
 800f93e:	d001      	beq.n	800f944 <_ZN4quan3uav3osd11draw_bitmapEPKNS1_12basic_bitmapERKNS_5two_d4vectIlEE+0xd4>
 800f940:	f7fd fa94 	bl	800ce6c <_ZN4quan3uav3osd13set_pixel_rawERKNS_5two_d4vectIlEENS1_11colour_typeE>
 800f944:	9b02      	ldr	r3, [sp, #8]
 800f946:	1c74      	adds	r4, r6, #1
 800f948:	1c5a      	adds	r2, r3, #1
 800f94a:	4544      	cmp	r4, r8
 800f94c:	9202      	str	r2, [sp, #8]
 800f94e:	d1dd      	bne.n	800f90c <_ZN4quan3uav3osd11draw_bitmapEPKNS1_12basic_bitmapERKNS_5two_d4vectIlEE+0x9c>
 800f950:	9803      	ldr	r0, [sp, #12]
 800f952:	3501      	adds	r5, #1
 800f954:	1c41      	adds	r1, r0, #1
 800f956:	454d      	cmp	r5, r9
 800f958:	9103      	str	r1, [sp, #12]
 800f95a:	d1a8      	bne.n	800f8ae <_ZN4quan3uav3osd11draw_bitmapEPKNS1_12basic_bitmapERKNS_5two_d4vectIlEE+0x3e>
 800f95c:	b007      	add	sp, #28
 800f95e:	e8bd 8ff0 	ldmia.w	sp!, {r4, r5, r6, r7, r8, r9, sl, fp, pc}
 800f962:	bf00      	nop

0800f964 <_ZN4quan3uav3osd9draw_textEPKcRKNS_5two_d4vectIlEEPKNS1_10basic_fontE>:
 800f964:	b5f0      	push	{r4, r5, r6, r7, lr}
 800f966:	4617      	mov	r7, r2
 800f968:	b085      	sub	sp, #20
 800f96a:	4605      	mov	r5, r0
 800f96c:	b1e2      	cbz	r2, 800f9a8 <_ZN4quan3uav3osd9draw_textEPKcRKNS_5two_d4vectIlEEPKNS1_10basic_fontE+0x44>
 800f96e:	b1d8      	cbz	r0, 800f9a8 <_ZN4quan3uav3osd9draw_textEPKcRKNS_5two_d4vectIlEEPKNS1_10basic_fontE+0x44>
 800f970:	c903      	ldmia	r1, {r0, r1}
 800f972:	782a      	ldrb	r2, [r5, #0]
 800f974:	466e      	mov	r6, sp
 800f976:	e88d 0003 	stmia.w	sp, {r0, r1}
 800f97a:	b1aa      	cbz	r2, 800f9a8 <_ZN4quan3uav3osd9draw_textEPKcRKNS_5two_d4vectIlEEPKNS1_10basic_fontE+0x44>
 800f97c:	4611      	mov	r1, r2
 800f97e:	4638      	mov	r0, r7
 800f980:	f7fd fac4 	bl	800cf0c <_ZN4quan3uav3osd8get_charEPKNS1_10basic_fontEl>
 800f984:	4604      	mov	r4, r0
 800f986:	4621      	mov	r1, r4
 800f988:	a802      	add	r0, sp, #8
 800f98a:	f7fd fac5 	bl	800cf18 <_ZN4quan3uav3osd8get_sizeEPKNS1_12basic_bitmapE>
 800f98e:	4620      	mov	r0, r4
 800f990:	4669      	mov	r1, sp
 800f992:	b12c      	cbz	r4, 800f9a0 <_ZN4quan3uav3osd9draw_textEPKcRKNS_5two_d4vectIlEEPKNS1_10basic_fontE+0x3c>
 800f994:	f7ff ff6c 	bl	800f870 <_ZN4quan3uav3osd11draw_bitmapEPKNS1_12basic_bitmapERKNS_5two_d4vectIlEE>
 800f998:	9c00      	ldr	r4, [sp, #0]
 800f99a:	9b02      	ldr	r3, [sp, #8]
 800f99c:	18e0      	adds	r0, r4, r3
 800f99e:	9000      	str	r0, [sp, #0]
 800f9a0:	f815 2f01 	ldrb.w	r2, [r5, #1]!
 800f9a4:	2a00      	cmp	r2, #0
 800f9a6:	d1e9      	bne.n	800f97c <_ZN4quan3uav3osd9draw_textEPKcRKNS_5two_d4vectIlEEPKNS1_10basic_fontE+0x18>
 800f9a8:	b005      	add	sp, #20
 800f9aa:	bdf0      	pop	{r4, r5, r6, r7, pc}

0800f9ac <_ZN4quan3uav3osd12basic_bitmapD1Ev>:
 800f9ac:	4b01      	ldr	r3, [pc, #4]	; (800f9b4 <_ZN4quan3uav3osd12basic_bitmapD1Ev+0x8>)
 800f9ae:	6003      	str	r3, [r0, #0]
 800f9b0:	4770      	bx	lr
 800f9b2:	bf00      	nop
 800f9b4:	08014ec8 	.word	0x08014ec8

0800f9b8 <_ZN4quan3uav3osd10basic_fontD1Ev>:
 800f9b8:	4b01      	ldr	r3, [pc, #4]	; (800f9c0 <_ZN4quan3uav3osd10basic_fontD1Ev+0x8>)
 800f9ba:	6003      	str	r3, [r0, #0]
 800f9bc:	4770      	bx	lr
 800f9be:	bf00      	nop
 800f9c0:	08014ee0 	.word	0x08014ee0

0800f9c4 <_ZNK12_GLOBAL__N_124font_OSD_Charset_32_type8get_dataEv>:
 800f9c4:	f648 1000 	movw	r0, #35072	; 0x8900
 800f9c8:	f6c0 0001 	movt	r0, #2049	; 0x801
 800f9cc:	4770      	bx	lr
 800f9ce:	bf00      	nop

0800f9d0 <_ZNK12_GLOBAL__N_124font_OSD_Charset_32_type8get_sizeEv>:
 800f9d0:	210c      	movs	r1, #12
 800f9d2:	2212      	movs	r2, #18
 800f9d4:	e880 0006 	stmia.w	r0, {r1, r2}
 800f9d8:	4770      	bx	lr
 800f9da:	bf00      	nop

0800f9dc <_ZNK12_GLOBAL__N_124font_OSD_Charset_33_type8get_dataEv>:
 800f9dc:	f248 7018 	movw	r0, #34584	; 0x8718
 800f9e0:	f6c0 0001 	movt	r0, #2049	; 0x801
 800f9e4:	4770      	bx	lr
 800f9e6:	bf00      	nop

0800f9e8 <_ZNK12_GLOBAL__N_124font_OSD_Charset_33_type8get_sizeEv>:
 800f9e8:	220c      	movs	r2, #12
 800f9ea:	f04f 0c12 	mov.w	ip, #18
 800f9ee:	e880 1004 	stmia.w	r0, {r2, ip}
 800f9f2:	4770      	bx	lr

0800f9f4 <_ZNK12_GLOBAL__N_124font_OSD_Charset_34_type8get_dataEv>:
 800f9f4:	f248 4078 	movw	r0, #33912	; 0x8478
 800f9f8:	f6c0 0001 	movt	r0, #2049	; 0x801
 800f9fc:	4770      	bx	lr
 800f9fe:	bf00      	nop

0800fa00 <_ZNK12_GLOBAL__N_124font_OSD_Charset_34_type8get_sizeEv>:
 800fa00:	210c      	movs	r1, #12
 800fa02:	2212      	movs	r2, #18
 800fa04:	e880 0006 	stmia.w	r0, {r1, r2}
 800fa08:	4770      	bx	lr
 800fa0a:	bf00      	nop

0800fa0c <_ZNK12_GLOBAL__N_124font_OSD_Charset_35_type8get_dataEv>:
 800fa0c:	f248 1050 	movw	r0, #33104	; 0x8150
 800fa10:	f6c0 0001 	movt	r0, #2049	; 0x801
 800fa14:	4770      	bx	lr
 800fa16:	bf00      	nop

0800fa18 <_ZNK12_GLOBAL__N_124font_OSD_Charset_35_type8get_sizeEv>:
 800fa18:	220c      	movs	r2, #12
 800fa1a:	f04f 0c12 	mov.w	ip, #18
 800fa1e:	e880 1004 	stmia.w	r0, {r2, ip}
 800fa22:	4770      	bx	lr

0800fa24 <_ZNK12_GLOBAL__N_124font_OSD_Charset_36_type8get_dataEv>:
 800fa24:	f647 6018 	movw	r0, #32280	; 0x7e18
 800fa28:	f6c0 0001 	movt	r0, #2049	; 0x801
 800fa2c:	4770      	bx	lr
 800fa2e:	bf00      	nop

0800fa30 <_ZNK12_GLOBAL__N_124font_OSD_Charset_36_type8get_sizeEv>:
 800fa30:	210c      	movs	r1, #12
 800fa32:	2212      	movs	r2, #18
 800fa34:	e880 0006 	stmia.w	r0, {r1, r2}
 800fa38:	4770      	bx	lr
 800fa3a:	bf00      	nop

0800fa3c <_ZNK12_GLOBAL__N_124font_OSD_Charset_37_type8get_dataEv>:
 800fa3c:	f248 4028 	movw	r0, #33832	; 0x8428
 800fa40:	f6c0 0001 	movt	r0, #2049	; 0x801
 800fa44:	4770      	bx	lr
 800fa46:	bf00      	nop

0800fa48 <_ZNK12_GLOBAL__N_124font_OSD_Charset_37_type8get_sizeEv>:
 800fa48:	220c      	movs	r2, #12
 800fa4a:	f04f 0c12 	mov.w	ip, #18
 800fa4e:	e880 1004 	stmia.w	r0, {r2, ip}
 800fa52:	4770      	bx	lr

0800fa54 <_ZNK12_GLOBAL__N_124font_OSD_Charset_38_type8get_dataEv>:
 800fa54:	f248 00e0 	movw	r0, #32992	; 0x80e0
 800fa58:	f6c0 0001 	movt	r0, #2049	; 0x801
 800fa5c:	4770      	bx	lr
 800fa5e:	bf00      	nop

0800fa60 <_ZNK12_GLOBAL__N_124font_OSD_Charset_38_type8get_sizeEv>:
 800fa60:	210c      	movs	r1, #12
 800fa62:	2212      	movs	r2, #18
 800fa64:	e880 0006 	stmia.w	r0, {r1, r2}
 800fa68:	4770      	bx	lr
 800fa6a:	bf00      	nop

0800fa6c <_ZNK12_GLOBAL__N_124font_OSD_Charset_39_type8get_dataEv>:
 800fa6c:	f245 0090 	movw	r0, #20624	; 0x5090
 800fa70:	f6c0 0001 	movt	r0, #2049	; 0x801
 800fa74:	4770      	bx	lr
 800fa76:	bf00      	nop

0800fa78 <_ZNK12_GLOBAL__N_124font_OSD_Charset_39_type8get_sizeEv>:
 800fa78:	220c      	movs	r2, #12
 800fa7a:	f04f 0c12 	mov.w	ip, #18
 800fa7e:	e880 1004 	stmia.w	r0, {r2, ip}
 800fa82:	4770      	bx	lr

0800fa84 <_ZNK12_GLOBAL__N_124font_OSD_Charset_40_type8get_dataEv>:
 800fa84:	f248 6048 	movw	r0, #34376	; 0x8648
 800fa88:	f6c0 0001 	movt	r0, #2049	; 0x801
 800fa8c:	4770      	bx	lr
 800fa8e:	bf00      	nop

0800fa90 <_ZNK12_GLOBAL__N_124font_OSD_Charset_40_type8get_sizeEv>:
 800fa90:	210c      	movs	r1, #12
 800fa92:	2212      	movs	r2, #18
 800fa94:	e880 0006 	stmia.w	r0, {r1, r2}
 800fa98:	4770      	bx	lr
 800fa9a:	bf00      	nop

0800fa9c <_ZNK12_GLOBAL__N_124font_OSD_Charset_41_type8get_dataEv>:
 800fa9c:	f248 30f0 	movw	r0, #33776	; 0x83f0
 800faa0:	f6c0 0001 	movt	r0, #2049	; 0x801
 800faa4:	4770      	bx	lr
 800faa6:	bf00      	nop

0800faa8 <_ZNK12_GLOBAL__N_124font_OSD_Charset_41_type8get_sizeEv>:
 800faa8:	220c      	movs	r2, #12
 800faaa:	f04f 0c12 	mov.w	ip, #18
 800faae:	e880 1004 	stmia.w	r0, {r2, ip}
 800fab2:	4770      	bx	lr

0800fab4 <_ZNK12_GLOBAL__N_124font_OSD_Charset_42_type8get_dataEv>:
 800fab4:	f245 6090 	movw	r0, #22160	; 0x5690
 800fab8:	f6c0 0001 	movt	r0, #2049	; 0x801
 800fabc:	4770      	bx	lr
 800fabe:	bf00      	nop

0800fac0 <_ZNK12_GLOBAL__N_124font_OSD_Charset_42_type8get_sizeEv>:
 800fac0:	210c      	movs	r1, #12
 800fac2:	2212      	movs	r2, #18
 800fac4:	e880 0006 	stmia.w	r0, {r1, r2}
 800fac8:	4770      	bx	lr
 800faca:	bf00      	nop

0800facc <_ZNK12_GLOBAL__N_124font_OSD_Charset_43_type8get_dataEv>:
 800facc:	f647 5058 	movw	r0, #32088	; 0x7d58
 800fad0:	f6c0 0001 	movt	r0, #2049	; 0x801
 800fad4:	4770      	bx	lr
 800fad6:	bf00      	nop

0800fad8 <_ZNK12_GLOBAL__N_124font_OSD_Charset_43_type8get_sizeEv>:
 800fad8:	220c      	movs	r2, #12
 800fada:	f04f 0c12 	mov.w	ip, #18
 800fade:	e880 1004 	stmia.w	r0, {r2, ip}
 800fae2:	4770      	bx	lr

0800fae4 <_ZNK12_GLOBAL__N_124font_OSD_Charset_44_type8get_dataEv>:
 800fae4:	f248 3048 	movw	r0, #33608	; 0x8348
 800fae8:	f6c0 0001 	movt	r0, #2049	; 0x801
 800faec:	4770      	bx	lr
 800faee:	bf00      	nop

0800faf0 <_ZNK12_GLOBAL__N_124font_OSD_Charset_44_type8get_sizeEv>:
 800faf0:	210c      	movs	r1, #12
 800faf2:	2212      	movs	r2, #18
 800faf4:	e880 0006 	stmia.w	r0, {r1, r2}
 800faf8:	4770      	bx	lr
 800fafa:	bf00      	nop

0800fafc <_ZNK12_GLOBAL__N_124font_OSD_Charset_45_type8get_dataEv>:
 800fafc:	f248 0038 	movw	r0, #32824	; 0x8038
 800fb00:	f6c0 0001 	movt	r0, #2049	; 0x801
 800fb04:	4770      	bx	lr
 800fb06:	bf00      	nop

0800fb08 <_ZNK12_GLOBAL__N_124font_OSD_Charset_45_type8get_sizeEv>:
 800fb08:	220c      	movs	r2, #12
 800fb0a:	f04f 0c12 	mov.w	ip, #18
 800fb0e:	e880 1004 	stmia.w	r0, {r2, ip}
 800fb12:	4770      	bx	lr

0800fb14 <_ZNK12_GLOBAL__N_124font_OSD_Charset_46_type8get_dataEv>:
 800fb14:	f647 40d8 	movw	r0, #31960	; 0x7cd8
 800fb18:	f6c0 0001 	movt	r0, #2049	; 0x801
 800fb1c:	4770      	bx	lr
 800fb1e:	bf00      	nop

0800fb20 <_ZNK12_GLOBAL__N_124font_OSD_Charset_46_type8get_sizeEv>:
 800fb20:	210c      	movs	r1, #12
 800fb22:	2212      	movs	r2, #18
 800fb24:	e880 0006 	stmia.w	r0, {r1, r2}
 800fb28:	4770      	bx	lr
 800fb2a:	bf00      	nop

0800fb2c <_ZNK12_GLOBAL__N_124font_OSD_Charset_47_type8get_dataEv>:
 800fb2c:	f245 0020 	movw	r0, #20512	; 0x5020
 800fb30:	f6c0 0001 	movt	r0, #2049	; 0x801
 800fb34:	4770      	bx	lr
 800fb36:	bf00      	nop

0800fb38 <_ZNK12_GLOBAL__N_124font_OSD_Charset_47_type8get_sizeEv>:
 800fb38:	220c      	movs	r2, #12
 800fb3a:	f04f 0c12 	mov.w	ip, #18
 800fb3e:	e880 1004 	stmia.w	r0, {r2, ip}
 800fb42:	4770      	bx	lr

0800fb44 <_ZNK12_GLOBAL__N_124font_OSD_Charset_48_type8get_dataEv>:
 800fb44:	f247 50b8 	movw	r0, #30136	; 0x75b8
 800fb48:	f6c0 0001 	movt	r0, #2049	; 0x801
 800fb4c:	4770      	bx	lr
 800fb4e:	bf00      	nop

0800fb50 <_ZNK12_GLOBAL__N_124font_OSD_Charset_48_type8get_sizeEv>:
 800fb50:	210c      	movs	r1, #12
 800fb52:	2212      	movs	r2, #18
 800fb54:	e880 0006 	stmia.w	r0, {r1, r2}
 800fb58:	4770      	bx	lr
 800fb5a:	bf00      	nop

0800fb5c <_ZNK12_GLOBAL__N_124font_OSD_Charset_49_type8get_dataEv>:
 800fb5c:	f648 0078 	movw	r0, #34936	; 0x8878
 800fb60:	f6c0 0001 	movt	r0, #2049	; 0x801
 800fb64:	4770      	bx	lr
 800fb66:	bf00      	nop

0800fb68 <_ZNK12_GLOBAL__N_124font_OSD_Charset_49_type8get_sizeEv>:
 800fb68:	220c      	movs	r2, #12
 800fb6a:	f04f 0c12 	mov.w	ip, #18
 800fb6e:	e880 1004 	stmia.w	r0, {r2, ip}
 800fb72:	4770      	bx	lr

0800fb74 <_ZNK12_GLOBAL__N_124font_OSD_Charset_50_type8get_dataEv>:
 800fb74:	f647 40a0 	movw	r0, #31904	; 0x7ca0
 800fb78:	f6c0 0001 	movt	r0, #2049	; 0x801
 800fb7c:	4770      	bx	lr
 800fb7e:	bf00      	nop

0800fb80 <_ZNK12_GLOBAL__N_124font_OSD_Charset_50_type8get_sizeEv>:
 800fb80:	210c      	movs	r1, #12
 800fb82:	2212      	movs	r2, #18
 800fb84:	e880 0006 	stmia.w	r0, {r1, r2}
 800fb88:	4770      	bx	lr
 800fb8a:	bf00      	nop

0800fb8c <_ZNK12_GLOBAL__N_124font_OSD_Charset_51_type8get_dataEv>:
 800fb8c:	f248 20c0 	movw	r0, #33472	; 0x82c0
 800fb90:	f6c0 0001 	movt	r0, #2049	; 0x801
 800fb94:	4770      	bx	lr
 800fb96:	bf00      	nop

0800fb98 <_ZNK12_GLOBAL__N_124font_OSD_Charset_51_type8get_sizeEv>:
 800fb98:	220c      	movs	r2, #12
 800fb9a:	f04f 0c12 	mov.w	ip, #18
 800fb9e:	e880 1004 	stmia.w	r0, {r2, ip}
 800fba2:	4770      	bx	lr

0800fba4 <_ZNK12_GLOBAL__N_124font_OSD_Charset_52_type8get_dataEv>:
 800fba4:	f647 1018 	movw	r0, #31000	; 0x7918
 800fba8:	f6c0 0001 	movt	r0, #2049	; 0x801
 800fbac:	4770      	bx	lr
 800fbae:	bf00      	nop

0800fbb0 <_ZNK12_GLOBAL__N_124font_OSD_Charset_52_type8get_sizeEv>:
 800fbb0:	210c      	movs	r1, #12
 800fbb2:	2212      	movs	r2, #18
 800fbb4:	e880 0006 	stmia.w	r0, {r1, r2}
 800fbb8:	4770      	bx	lr
 800fbba:	bf00      	nop

0800fbbc <_ZNK12_GLOBAL__N_124font_OSD_Charset_53_type8get_dataEv>:
 800fbbc:	f647 4018 	movw	r0, #31768	; 0x7c18
 800fbc0:	f6c0 0001 	movt	r0, #2049	; 0x801
 800fbc4:	4770      	bx	lr
 800fbc6:	bf00      	nop

0800fbc8 <_ZNK12_GLOBAL__N_124font_OSD_Charset_53_type8get_sizeEv>:
 800fbc8:	220c      	movs	r2, #12
 800fbca:	f04f 0c12 	mov.w	ip, #18
 800fbce:	e880 1004 	stmia.w	r0, {r2, ip}
 800fbd2:	4770      	bx	lr

0800fbd4 <_ZNK12_GLOBAL__N_124font_OSD_Charset_54_type8get_dataEv>:
 800fbd4:	f647 0040 	movw	r0, #30784	; 0x7840
 800fbd8:	f6c0 0001 	movt	r0, #2049	; 0x801
 800fbdc:	4770      	bx	lr
 800fbde:	bf00      	nop

0800fbe0 <_ZNK12_GLOBAL__N_124font_OSD_Charset_54_type8get_sizeEv>:
 800fbe0:	210c      	movs	r1, #12
 800fbe2:	2212      	movs	r2, #18
 800fbe4:	e880 0006 	stmia.w	r0, {r1, r2}
 800fbe8:	4770      	bx	lr
 800fbea:	bf00      	nop

0800fbec <_ZNK12_GLOBAL__N_124font_OSD_Charset_55_type8get_dataEv>:
 800fbec:	f247 40f8 	movw	r0, #29944	; 0x74f8
 800fbf0:	f6c0 0001 	movt	r0, #2049	; 0x801
 800fbf4:	4770      	bx	lr
 800fbf6:	bf00      	nop

0800fbf8 <_ZNK12_GLOBAL__N_124font_OSD_Charset_55_type8get_sizeEv>:
 800fbf8:	220c      	movs	r2, #12
 800fbfa:	f04f 0c12 	mov.w	ip, #18
 800fbfe:	e880 1004 	stmia.w	r0, {r2, ip}
 800fc02:	4770      	bx	lr

0800fc04 <_ZNK12_GLOBAL__N_124font_OSD_Charset_56_type8get_dataEv>:
 800fc04:	f647 3078 	movw	r0, #31608	; 0x7b78
 800fc08:	f6c0 0001 	movt	r0, #2049	; 0x801
 800fc0c:	4770      	bx	lr
 800fc0e:	bf00      	nop

0800fc10 <_ZNK12_GLOBAL__N_124font_OSD_Charset_56_type8get_sizeEv>:
 800fc10:	210c      	movs	r1, #12
 800fc12:	2212      	movs	r2, #18
 800fc14:	e880 0006 	stmia.w	r0, {r1, r2}
 800fc18:	4770      	bx	lr
 800fc1a:	bf00      	nop

0800fc1c <_ZNK12_GLOBAL__N_124font_OSD_Charset_57_type8get_dataEv>:
 800fc1c:	f247 70d0 	movw	r0, #30672	; 0x77d0
 800fc20:	f6c0 0001 	movt	r0, #2049	; 0x801
 800fc24:	4770      	bx	lr
 800fc26:	bf00      	nop

0800fc28 <_ZNK12_GLOBAL__N_124font_OSD_Charset_57_type8get_sizeEv>:
 800fc28:	220c      	movs	r2, #12
 800fc2a:	f04f 0c12 	mov.w	ip, #18
 800fc2e:	e880 1004 	stmia.w	r0, {r2, ip}
 800fc32:	4770      	bx	lr

0800fc34 <_ZNK12_GLOBAL__N_124font_OSD_Charset_58_type8get_dataEv>:
 800fc34:	f247 4070 	movw	r0, #29808	; 0x7470
 800fc38:	f6c0 0001 	movt	r0, #2049	; 0x801
 800fc3c:	4770      	bx	lr
 800fc3e:	bf00      	nop

0800fc40 <_ZNK12_GLOBAL__N_124font_OSD_Charset_58_type8get_sizeEv>:
 800fc40:	210c      	movs	r1, #12
 800fc42:	2212      	movs	r2, #18
 800fc44:	e880 0006 	stmia.w	r0, {r1, r2}
 800fc48:	4770      	bx	lr
 800fc4a:	bf00      	nop

0800fc4c <_ZNK12_GLOBAL__N_124font_OSD_Charset_59_type8get_dataEv>:
 800fc4c:	f247 10d0 	movw	r0, #29136	; 0x71d0
 800fc50:	f6c0 0001 	movt	r0, #2049	; 0x801
 800fc54:	4770      	bx	lr
 800fc56:	bf00      	nop

0800fc58 <_ZNK12_GLOBAL__N_124font_OSD_Charset_59_type8get_sizeEv>:
 800fc58:	220c      	movs	r2, #12
 800fc5a:	f04f 0c12 	mov.w	ip, #18
 800fc5e:	e880 1004 	stmia.w	r0, {r2, ip}
 800fc62:	4770      	bx	lr

0800fc64 <_ZNK12_GLOBAL__N_124font_OSD_Charset_60_type8get_dataEv>:
 800fc64:	f647 3040 	movw	r0, #31552	; 0x7b40
 800fc68:	f6c0 0001 	movt	r0, #2049	; 0x801
 800fc6c:	4770      	bx	lr
 800fc6e:	bf00      	nop

0800fc70 <_ZNK12_GLOBAL__N_124font_OSD_Charset_60_type8get_sizeEv>:
 800fc70:	210c      	movs	r1, #12
 800fc72:	2212      	movs	r2, #18
 800fc74:	e880 0006 	stmia.w	r0, {r1, r2}
 800fc78:	4770      	bx	lr
 800fc7a:	bf00      	nop

0800fc7c <_ZNK12_GLOBAL__N_124font_OSD_Charset_61_type8get_dataEv>:
 800fc7c:	f247 7098 	movw	r0, #30616	; 0x7798
 800fc80:	f6c0 0001 	movt	r0, #2049	; 0x801
 800fc84:	4770      	bx	lr
 800fc86:	bf00      	nop

0800fc88 <_ZNK12_GLOBAL__N_124font_OSD_Charset_61_type8get_sizeEv>:
 800fc88:	220c      	movs	r2, #12
 800fc8a:	f04f 0c12 	mov.w	ip, #18
 800fc8e:	e880 1004 	stmia.w	r0, {r2, ip}
 800fc92:	4770      	bx	lr

0800fc94 <_ZNK12_GLOBAL__N_124font_OSD_Charset_62_type8get_dataEv>:
 800fc94:	f247 4038 	movw	r0, #29752	; 0x7438
 800fc98:	f6c0 0001 	movt	r0, #2049	; 0x801
 800fc9c:	4770      	bx	lr
 800fc9e:	bf00      	nop

0800fca0 <_ZNK12_GLOBAL__N_124font_OSD_Charset_62_type8get_sizeEv>:
 800fca0:	210c      	movs	r1, #12
 800fca2:	2212      	movs	r2, #18
 800fca4:	e880 0006 	stmia.w	r0, {r1, r2}
 800fca8:	4770      	bx	lr
 800fcaa:	bf00      	nop

0800fcac <_ZNK12_GLOBAL__N_124font_OSD_Charset_63_type8get_dataEv>:
 800fcac:	f647 2098 	movw	r0, #31384	; 0x7a98
 800fcb0:	f6c0 0001 	movt	r0, #2049	; 0x801
 800fcb4:	4770      	bx	lr
 800fcb6:	bf00      	nop

0800fcb8 <_ZNK12_GLOBAL__N_124font_OSD_Charset_63_type8get_sizeEv>:
 800fcb8:	220c      	movs	r2, #12
 800fcba:	f04f 0c12 	mov.w	ip, #18
 800fcbe:	e880 1004 	stmia.w	r0, {r2, ip}
 800fcc2:	4770      	bx	lr

0800fcc4 <_ZNK12_GLOBAL__N_124font_OSD_Charset_64_type8get_dataEv>:
 800fcc4:	f247 7048 	movw	r0, #30536	; 0x7748
 800fcc8:	f6c0 0001 	movt	r0, #2049	; 0x801
 800fccc:	4770      	bx	lr
 800fcce:	bf00      	nop

0800fcd0 <_ZNK12_GLOBAL__N_124font_OSD_Charset_64_type8get_sizeEv>:
 800fcd0:	210c      	movs	r1, #12
 800fcd2:	2212      	movs	r2, #18
 800fcd4:	e880 0006 	stmia.w	r0, {r1, r2}
 800fcd8:	4770      	bx	lr
 800fcda:	bf00      	nop

0800fcdc <_ZNK12_GLOBAL__N_124font_OSD_Charset_65_type8get_dataEv>:
 800fcdc:	f247 30e8 	movw	r0, #29672	; 0x73e8
 800fce0:	f6c0 0001 	movt	r0, #2049	; 0x801
 800fce4:	4770      	bx	lr
 800fce6:	bf00      	nop

0800fce8 <_ZNK12_GLOBAL__N_124font_OSD_Charset_65_type8get_sizeEv>:
 800fce8:	220c      	movs	r2, #12
 800fcea:	f04f 0c12 	mov.w	ip, #18
 800fcee:	e880 1004 	stmia.w	r0, {r2, ip}
 800fcf2:	4770      	bx	lr

0800fcf4 <_ZNK12_GLOBAL__N_124font_OSD_Charset_66_type8get_dataEv>:
 800fcf4:	f247 1018 	movw	r0, #28952	; 0x7118
 800fcf8:	f6c0 0001 	movt	r0, #2049	; 0x801
 800fcfc:	4770      	bx	lr
 800fcfe:	bf00      	nop

0800fd00 <_ZNK12_GLOBAL__N_124font_OSD_Charset_66_type8get_sizeEv>:
 800fd00:	210c      	movs	r1, #12
 800fd02:	2212      	movs	r2, #18
 800fd04:	e880 0006 	stmia.w	r0, {r1, r2}
 800fd08:	4770      	bx	lr
 800fd0a:	bf00      	nop

0800fd0c <_ZNK12_GLOBAL__N_124font_OSD_Charset_67_type8get_dataEv>:
 800fd0c:	f646 5028 	movw	r0, #27944	; 0x6d28
 800fd10:	f6c0 0001 	movt	r0, #2049	; 0x801
 800fd14:	4770      	bx	lr
 800fd16:	bf00      	nop

0800fd18 <_ZNK12_GLOBAL__N_124font_OSD_Charset_67_type8get_sizeEv>:
 800fd18:	220c      	movs	r2, #12
 800fd1a:	f04f 0c12 	mov.w	ip, #18
 800fd1e:	e880 1004 	stmia.w	r0, {r2, ip}
 800fd22:	4770      	bx	lr

0800fd24 <_ZNK12_GLOBAL__N_124font_OSD_Charset_68_type8get_dataEv>:
 800fd24:	f247 3060 	movw	r0, #29536	; 0x7360
 800fd28:	f6c0 0001 	movt	r0, #2049	; 0x801
 800fd2c:	4770      	bx	lr
 800fd2e:	bf00      	nop

0800fd30 <_ZNK12_GLOBAL__N_124font_OSD_Charset_68_type8get_sizeEv>:
 800fd30:	210c      	movs	r1, #12
 800fd32:	2212      	movs	r2, #18
 800fd34:	e880 0006 	stmia.w	r0, {r1, r2}
 800fd38:	4770      	bx	lr
 800fd3a:	bf00      	nop

0800fd3c <_ZNK12_GLOBAL__N_124font_OSD_Charset_69_type8get_dataEv>:
 800fd3c:	f645 20a0 	movw	r0, #23200	; 0x5aa0
 800fd40:	f6c0 0001 	movt	r0, #2049	; 0x801
 800fd44:	4770      	bx	lr
 800fd46:	bf00      	nop

0800fd48 <_ZNK12_GLOBAL__N_124font_OSD_Charset_69_type8get_sizeEv>:
 800fd48:	220c      	movs	r2, #12
 800fd4a:	f04f 0c12 	mov.w	ip, #18
 800fd4e:	e880 1004 	stmia.w	r0, {r2, ip}
 800fd52:	4770      	bx	lr

0800fd54 <_ZNK12_GLOBAL__N_124font_OSD_Charset_70_type8get_dataEv>:
 800fd54:	f647 10d8 	movw	r0, #31192	; 0x79d8
 800fd58:	f6c0 0001 	movt	r0, #2049	; 0x801
 800fd5c:	4770      	bx	lr
 800fd5e:	bf00      	nop

0800fd60 <_ZNK12_GLOBAL__N_124font_OSD_Charset_70_type8get_sizeEv>:
 800fd60:	210c      	movs	r1, #12
 800fd62:	2212      	movs	r2, #18
 800fd64:	e880 0006 	stmia.w	r0, {r1, r2}
 800fd68:	4770      	bx	lr
 800fd6a:	bf00      	nop

0800fd6c <_ZNK12_GLOBAL__N_124font_OSD_Charset_71_type8get_dataEv>:
 800fd6c:	f247 6070 	movw	r0, #30320	; 0x7670
 800fd70:	f6c0 0001 	movt	r0, #2049	; 0x801
 800fd74:	4770      	bx	lr
 800fd76:	bf00      	nop

0800fd78 <_ZNK12_GLOBAL__N_124font_OSD_Charset_71_type8get_sizeEv>:
 800fd78:	220c      	movs	r2, #12
 800fd7a:	f04f 0c12 	mov.w	ip, #18
 800fd7e:	e880 1004 	stmia.w	r0, {r2, ip}
 800fd82:	4770      	bx	lr

0800fd84 <_ZNK12_GLOBAL__N_124font_OSD_Charset_72_type8get_dataEv>:
 800fd84:	f247 3028 	movw	r0, #29480	; 0x7328
 800fd88:	f6c0 0001 	movt	r0, #2049	; 0x801
 800fd8c:	4770      	bx	lr
 800fd8e:	bf00      	nop

0800fd90 <_ZNK12_GLOBAL__N_124font_OSD_Charset_72_type8get_sizeEv>:
 800fd90:	210c      	movs	r1, #12
 800fd92:	2212      	movs	r2, #18
 800fd94:	e880 0006 	stmia.w	r0, {r1, r2}
 800fd98:	4770      	bx	lr
 800fd9a:	bf00      	nop

0800fd9c <_ZNK12_GLOBAL__N_124font_OSD_Charset_73_type8get_dataEv>:
 800fd9c:	f247 00ac 	movw	r0, #28844	; 0x70ac
 800fda0:	f6c0 0001 	movt	r0, #2049	; 0x801
 800fda4:	4770      	bx	lr
 800fda6:	bf00      	nop

0800fda8 <_ZNK12_GLOBAL__N_124font_OSD_Charset_73_type8get_sizeEv>:
 800fda8:	220c      	movs	r2, #12
 800fdaa:	f04f 0c12 	mov.w	ip, #18
 800fdae:	e880 1004 	stmia.w	r0, {r2, ip}
 800fdb2:	4770      	bx	lr

0800fdb4 <_ZNK12_GLOBAL__N_124font_OSD_Charset_74_type8get_dataEv>:
 800fdb4:	f646 4048 	movw	r0, #27720	; 0x6c48
 800fdb8:	f6c0 0001 	movt	r0, #2049	; 0x801
 800fdbc:	4770      	bx	lr
 800fdbe:	bf00      	nop

0800fdc0 <_ZNK12_GLOBAL__N_124font_OSD_Charset_74_type8get_sizeEv>:
 800fdc0:	210c      	movs	r1, #12
 800fdc2:	2212      	movs	r2, #18
 800fdc4:	e880 0006 	stmia.w	r0, {r1, r2}
 800fdc8:	4770      	bx	lr
 800fdca:	bf00      	nop

0800fdcc <_ZNK12_GLOBAL__N_124font_OSD_Charset_75_type8get_dataEv>:
 800fdcc:	f644 7088 	movw	r0, #20360	; 0x4f88
 800fdd0:	f6c0 0001 	movt	r0, #2049	; 0x801
 800fdd4:	4770      	bx	lr
 800fdd6:	bf00      	nop

0800fdd8 <_ZNK12_GLOBAL__N_124font_OSD_Charset_75_type8get_sizeEv>:
 800fdd8:	220c      	movs	r2, #12
 800fdda:	f04f 0c12 	mov.w	ip, #18
 800fdde:	e880 1004 	stmia.w	r0, {r2, ip}
 800fde2:	4770      	bx	lr

0800fde4 <_ZNK12_GLOBAL__N_124font_OSD_Charset_76_type8get_dataEv>:
 800fde4:	f646 60f8 	movw	r0, #28408	; 0x6ef8
 800fde8:	f6c0 0001 	movt	r0, #2049	; 0x801
 800fdec:	4770      	bx	lr
 800fdee:	bf00      	nop

0800fdf0 <_ZNK12_GLOBAL__N_124font_OSD_Charset_76_type8get_sizeEv>:
 800fdf0:	210c      	movs	r1, #12
 800fdf2:	2212      	movs	r2, #18
 800fdf4:	e880 0006 	stmia.w	r0, {r1, r2}
 800fdf8:	4770      	bx	lr
 800fdfa:	bf00      	nop

0800fdfc <_ZNK12_GLOBAL__N_124font_OSD_Charset_77_type8get_dataEv>:
 800fdfc:	f646 4010 	movw	r0, #27664	; 0x6c10
 800fe00:	f6c0 0001 	movt	r0, #2049	; 0x801
 800fe04:	4770      	bx	lr
 800fe06:	bf00      	nop

0800fe08 <_ZNK12_GLOBAL__N_124font_OSD_Charset_77_type8get_sizeEv>:
 800fe08:	220c      	movs	r2, #12
 800fe0a:	f04f 0c12 	mov.w	ip, #18
 800fe0e:	e880 1004 	stmia.w	r0, {r2, ip}
 800fe12:	4770      	bx	lr

0800fe14 <_ZNK12_GLOBAL__N_124font_OSD_Charset_78_type8get_dataEv>:
 800fe14:	f646 2020 	movw	r0, #27168	; 0x6a20
 800fe18:	f6c0 0001 	movt	r0, #2049	; 0x801
 800fe1c:	4770      	bx	lr
 800fe1e:	bf00      	nop

0800fe20 <_ZNK12_GLOBAL__N_124font_OSD_Charset_78_type8get_sizeEv>:
 800fe20:	210c      	movs	r1, #12
 800fe22:	2212      	movs	r2, #18
 800fe24:	e880 0006 	stmia.w	r0, {r1, r2}
 800fe28:	4770      	bx	lr
 800fe2a:	bf00      	nop

0800fe2c <_ZNK12_GLOBAL__N_124font_OSD_Charset_79_type8get_dataEv>:
 800fe2c:	f246 7038 	movw	r0, #26424	; 0x6738
 800fe30:	f6c0 0001 	movt	r0, #2049	; 0x801
 800fe34:	4770      	bx	lr
 800fe36:	bf00      	nop

0800fe38 <_ZNK12_GLOBAL__N_124font_OSD_Charset_79_type8get_sizeEv>:
 800fe38:	220c      	movs	r2, #12
 800fe3a:	f04f 0c12 	mov.w	ip, #18
 800fe3e:	e880 1004 	stmia.w	r0, {r2, ip}
 800fe42:	4770      	bx	lr

0800fe44 <_ZNK12_GLOBAL__N_124font_OSD_Charset_80_type8get_dataEv>:
 800fe44:	f646 60c0 	movw	r0, #28352	; 0x6ec0
 800fe48:	f6c0 0001 	movt	r0, #2049	; 0x801
 800fe4c:	4770      	bx	lr
 800fe4e:	bf00      	nop

0800fe50 <_ZNK12_GLOBAL__N_124font_OSD_Charset_80_type8get_sizeEv>:
 800fe50:	210c      	movs	r1, #12
 800fe52:	2212      	movs	r2, #18
 800fe54:	e880 0006 	stmia.w	r0, {r1, r2}
 800fe58:	4770      	bx	lr
 800fe5a:	bf00      	nop

0800fe5c <_ZNK12_GLOBAL__N_124font_OSD_Charset_81_type8get_dataEv>:
 800fe5c:	f248 0070 	movw	r0, #32880	; 0x8070
 800fe60:	f6c0 0001 	movt	r0, #2049	; 0x801
 800fe64:	4770      	bx	lr
 800fe66:	bf00      	nop

0800fe68 <_ZNK12_GLOBAL__N_124font_OSD_Charset_81_type8get_sizeEv>:
 800fe68:	220c      	movs	r2, #12
 800fe6a:	f04f 0c12 	mov.w	ip, #18
 800fe6e:	e880 1004 	stmia.w	r0, {r2, ip}
 800fe72:	4770      	bx	lr

0800fe74 <_ZNK12_GLOBAL__N_124font_OSD_Charset_82_type8get_dataEv>:
 800fe74:	f247 2050 	movw	r0, #29264	; 0x7250
 800fe78:	f6c0 0001 	movt	r0, #2049	; 0x801
 800fe7c:	4770      	bx	lr
 800fe7e:	bf00      	nop

0800fe80 <_ZNK12_GLOBAL__N_124font_OSD_Charset_82_type8get_sizeEv>:
 800fe80:	210c      	movs	r1, #12
 800fe82:	2212      	movs	r2, #18
 800fe84:	e880 0006 	stmia.w	r0, {r1, r2}
 800fe88:	4770      	bx	lr
 800fe8a:	bf00      	nop

0800fe8c <_ZNK12_GLOBAL__N_124font_OSD_Charset_83_type8get_dataEv>:
 800fe8c:	f646 6050 	movw	r0, #28240	; 0x6e50
 800fe90:	f6c0 0001 	movt	r0, #2049	; 0x801
 800fe94:	4770      	bx	lr
 800fe96:	bf00      	nop

0800fe98 <_ZNK12_GLOBAL__N_124font_OSD_Charset_83_type8get_sizeEv>:
 800fe98:	220c      	movs	r2, #12
 800fe9a:	f04f 0c12 	mov.w	ip, #18
 800fe9e:	e880 1004 	stmia.w	r0, {r2, ip}
 800fea2:	4770      	bx	lr

0800fea4 <_ZNK12_GLOBAL__N_124font_OSD_Charset_84_type8get_dataEv>:
 800fea4:	f644 7000 	movw	r0, #20224	; 0x4f00
 800fea8:	f6c0 0001 	movt	r0, #2049	; 0x801
 800feac:	4770      	bx	lr
 800feae:	bf00      	nop

0800feb0 <_ZNK12_GLOBAL__N_124font_OSD_Charset_84_type8get_sizeEv>:
 800feb0:	210c      	movs	r1, #12
 800feb2:	2212      	movs	r2, #18
 800feb4:	e880 0006 	stmia.w	r0, {r1, r2}
 800feb8:	4770      	bx	lr
 800feba:	bf00      	nop

0800febc <_ZNK12_GLOBAL__N_124font_OSD_Charset_85_type8get_dataEv>:
 800febc:	f646 1098 	movw	r0, #27032	; 0x6998
 800fec0:	f6c0 0001 	movt	r0, #2049	; 0x801
 800fec4:	4770      	bx	lr
 800fec6:	bf00      	nop

0800fec8 <_ZNK12_GLOBAL__N_124font_OSD_Charset_85_type8get_sizeEv>:
 800fec8:	220c      	movs	r2, #12
 800feca:	f04f 0c12 	mov.w	ip, #18
 800fece:	e880 1004 	stmia.w	r0, {r2, ip}
 800fed2:	4770      	bx	lr

0800fed4 <_ZNK12_GLOBAL__N_124font_OSD_Charset_86_type8get_dataEv>:
 800fed4:	f645 5080 	movw	r0, #23936	; 0x5d80
 800fed8:	f6c0 0001 	movt	r0, #2049	; 0x801
 800fedc:	4770      	bx	lr
 800fede:	bf00      	nop

0800fee0 <_ZNK12_GLOBAL__N_124font_OSD_Charset_86_type8get_sizeEv>:
 800fee0:	210c      	movs	r1, #12
 800fee2:	2212      	movs	r2, #18
 800fee4:	e880 0006 	stmia.w	r0, {r1, r2}
 800fee8:	4770      	bx	lr
 800feea:	bf00      	nop

0800feec <_ZNK12_GLOBAL__N_124font_OSD_Charset_87_type8get_dataEv>:
 800feec:	f646 3060 	movw	r0, #27488	; 0x6b60
 800fef0:	f6c0 0001 	movt	r0, #2049	; 0x801
 800fef4:	4770      	bx	lr
 800fef6:	bf00      	nop

0800fef8 <_ZNK12_GLOBAL__N_124font_OSD_Charset_87_type8get_sizeEv>:
 800fef8:	220c      	movs	r2, #12
 800fefa:	f04f 0c12 	mov.w	ip, #18
 800fefe:	e880 1004 	stmia.w	r0, {r2, ip}
 800ff02:	4770      	bx	lr

0800ff04 <_ZNK12_GLOBAL__N_124font_OSD_Charset_88_type8get_dataEv>:
 800ff04:	f646 1030 	movw	r0, #26928	; 0x6930
 800ff08:	f6c0 0001 	movt	r0, #2049	; 0x801
 800ff0c:	4770      	bx	lr
 800ff0e:	bf00      	nop

0800ff10 <_ZNK12_GLOBAL__N_124font_OSD_Charset_88_type8get_sizeEv>:
 800ff10:	210c      	movs	r1, #12
 800ff12:	2212      	movs	r2, #18
 800ff14:	e880 0006 	stmia.w	r0, {r1, r2}
 800ff18:	4770      	bx	lr
 800ff1a:	bf00      	nop

0800ff1c <_ZNK12_GLOBAL__N_124font_OSD_Charset_89_type8get_dataEv>:
 800ff1c:	f245 0058 	movw	r0, #20568	; 0x5058
 800ff20:	f6c0 0001 	movt	r0, #2049	; 0x801
 800ff24:	4770      	bx	lr
 800ff26:	bf00      	nop

0800ff28 <_ZNK12_GLOBAL__N_124font_OSD_Charset_89_type8get_sizeEv>:
 800ff28:	220c      	movs	r2, #12
 800ff2a:	f04f 0c12 	mov.w	ip, #18
 800ff2e:	e880 1004 	stmia.w	r0, {r2, ip}
 800ff32:	4770      	bx	lr

0800ff34 <_ZNK12_GLOBAL__N_124font_OSD_Charset_90_type8get_dataEv>:
 800ff34:	f646 50c8 	movw	r0, #28104	; 0x6dc8
 800ff38:	f6c0 0001 	movt	r0, #2049	; 0x801
 800ff3c:	4770      	bx	lr
 800ff3e:	bf00      	nop

0800ff40 <_ZNK12_GLOBAL__N_124font_OSD_Charset_90_type8get_sizeEv>:
 800ff40:	210c      	movs	r1, #12
 800ff42:	2212      	movs	r2, #18
 800ff44:	e880 0006 	stmia.w	r0, {r1, r2}
 800ff48:	4770      	bx	lr
 800ff4a:	bf00      	nop

0800ff4c <_ZNK12_GLOBAL__N_124font_OSD_Charset_91_type8get_dataEv>:
 800ff4c:	f645 2068 	movw	r0, #23144	; 0x5a68
 800ff50:	f6c0 0001 	movt	r0, #2049	; 0x801
 800ff54:	4770      	bx	lr
 800ff56:	bf00      	nop

0800ff58 <_ZNK12_GLOBAL__N_124font_OSD_Charset_91_type8get_sizeEv>:
 800ff58:	220c      	movs	r2, #12
 800ff5a:	f04f 0c12 	mov.w	ip, #18
 800ff5e:	e880 1004 	stmia.w	r0, {r2, ip}
 800ff62:	4770      	bx	lr

0800ff64 <_ZNK12_GLOBAL__N_124font_OSD_Charset_92_type8get_dataEv>:
 800ff64:	f646 00f8 	movw	r0, #26872	; 0x68f8
 800ff68:	f6c0 0001 	movt	r0, #2049	; 0x801
 800ff6c:	4770      	bx	lr
 800ff6e:	bf00      	nop

0800ff70 <_ZNK12_GLOBAL__N_124font_OSD_Charset_92_type8get_sizeEv>:
 800ff70:	210c      	movs	r1, #12
 800ff72:	2212      	movs	r2, #18
 800ff74:	e880 0006 	stmia.w	r0, {r1, r2}
 800ff78:	4770      	bx	lr
 800ff7a:	bf00      	nop

0800ff7c <_ZNK12_GLOBAL__N_124font_OSD_Charset_93_type8get_dataEv>:
 800ff7c:	f246 6048 	movw	r0, #26184	; 0x6648
 800ff80:	f6c0 0001 	movt	r0, #2049	; 0x801
 800ff84:	4770      	bx	lr
 800ff86:	bf00      	nop

0800ff88 <_ZNK12_GLOBAL__N_124font_OSD_Charset_93_type8get_sizeEv>:
 800ff88:	220c      	movs	r2, #12
 800ff8a:	f04f 0c12 	mov.w	ip, #18
 800ff8e:	e880 1004 	stmia.w	r0, {r2, ip}
 800ff92:	4770      	bx	lr

0800ff94 <_ZNK12_GLOBAL__N_124font_OSD_Charset_94_type8get_dataEv>:
 800ff94:	f646 0008 	movw	r0, #26632	; 0x6808
 800ff98:	f6c0 0001 	movt	r0, #2049	; 0x801
 800ff9c:	4770      	bx	lr
 800ff9e:	bf00      	nop

0800ffa0 <_ZNK12_GLOBAL__N_124font_OSD_Charset_94_type8get_sizeEv>:
 800ffa0:	210c      	movs	r1, #12
 800ffa2:	2212      	movs	r2, #18
 800ffa4:	e880 0006 	stmia.w	r0, {r1, r2}
 800ffa8:	4770      	bx	lr
 800ffaa:	bf00      	nop

0800ffac <_ZNK12_GLOBAL__N_124font_OSD_Charset_95_type8get_dataEv>:
 800ffac:	f646 0078 	movw	r0, #26744	; 0x6878
 800ffb0:	f6c0 0001 	movt	r0, #2049	; 0x801
 800ffb4:	4770      	bx	lr
 800ffb6:	bf00      	nop

0800ffb8 <_ZNK12_GLOBAL__N_124font_OSD_Charset_95_type8get_sizeEv>:
 800ffb8:	220c      	movs	r2, #12
 800ffba:	f04f 0c12 	mov.w	ip, #18
 800ffbe:	e880 1004 	stmia.w	r0, {r2, ip}
 800ffc2:	4770      	bx	lr

0800ffc4 <_ZNK12_GLOBAL__N_124font_OSD_Charset_96_type8get_dataEv>:
 800ffc4:	f246 50c0 	movw	r0, #26048	; 0x65c0
 800ffc8:	f6c0 0001 	movt	r0, #2049	; 0x801
 800ffcc:	4770      	bx	lr
 800ffce:	bf00      	nop

0800ffd0 <_ZNK12_GLOBAL__N_124font_OSD_Charset_96_type8get_sizeEv>:
 800ffd0:	210c      	movs	r1, #12
 800ffd2:	2212      	movs	r2, #18
 800ffd4:	e880 0006 	stmia.w	r0, {r1, r2}
 800ffd8:	4770      	bx	lr
 800ffda:	bf00      	nop

0800ffdc <_ZNK12_GLOBAL__N_124font_OSD_Charset_97_type8get_dataEv>:
 800ffdc:	f248 5000 	movw	r0, #34048	; 0x8500
 800ffe0:	f6c0 0001 	movt	r0, #2049	; 0x801
 800ffe4:	4770      	bx	lr
 800ffe6:	bf00      	nop

0800ffe8 <_ZNK12_GLOBAL__N_124font_OSD_Charset_97_type8get_sizeEv>:
 800ffe8:	220c      	movs	r2, #12
 800ffea:	f04f 0c12 	mov.w	ip, #18
 800ffee:	e880 1004 	stmia.w	r0, {r2, ip}
 800fff2:	4770      	bx	lr

0800fff4 <_ZNK12_GLOBAL__N_124font_OSD_Charset_98_type8get_dataEv>:
 800fff4:	f246 10a8 	movw	r0, #25000	; 0x61a8
 800fff8:	f6c0 0001 	movt	r0, #2049	; 0x801
 800fffc:	4770      	bx	lr
 800fffe:	bf00      	nop

08010000 <_ZNK12_GLOBAL__N_124font_OSD_Charset_98_type8get_sizeEv>:
 8010000:	210c      	movs	r1, #12
 8010002:	2212      	movs	r2, #18
 8010004:	e880 0006 	stmia.w	r0, {r1, r2}
 8010008:	4770      	bx	lr
 801000a:	bf00      	nop

0801000c <_ZNK12_GLOBAL__N_124font_OSD_Charset_99_type8get_dataEv>:
 801000c:	f246 5018 	movw	r0, #25880	; 0x6518
 8010010:	f6c0 0001 	movt	r0, #2049	; 0x801
 8010014:	4770      	bx	lr
 8010016:	bf00      	nop

08010018 <_ZNK12_GLOBAL__N_124font_OSD_Charset_99_type8get_sizeEv>:
 8010018:	220c      	movs	r2, #12
 801001a:	f04f 0c12 	mov.w	ip, #18
 801001e:	e880 1004 	stmia.w	r0, {r2, ip}
 8010022:	4770      	bx	lr

08010024 <_ZNK12_GLOBAL__N_125font_OSD_Charset_100_type8get_dataEv>:
 8010024:	f246 6010 	movw	r0, #26128	; 0x6610
 8010028:	f6c0 0001 	movt	r0, #2049	; 0x801
 801002c:	4770      	bx	lr
 801002e:	bf00      	nop

08010030 <_ZNK12_GLOBAL__N_125font_OSD_Charset_100_type8get_sizeEv>:
 8010030:	210c      	movs	r1, #12
 8010032:	2212      	movs	r2, #18
 8010034:	e880 0006 	stmia.w	r0, {r1, r2}
 8010038:	4770      	bx	lr
 801003a:	bf00      	nop

0801003c <_ZNK12_GLOBAL__N_125font_OSD_Charset_101_type8get_dataEv>:
 801003c:	f246 4030 	movw	r0, #25648	; 0x6430
 8010040:	f6c0 0001 	movt	r0, #2049	; 0x801
 8010044:	4770      	bx	lr
 8010046:	bf00      	nop

08010048 <_ZNK12_GLOBAL__N_125font_OSD_Charset_101_type8get_sizeEv>:
 8010048:	220c      	movs	r2, #12
 801004a:	f04f 0c12 	mov.w	ip, #18
 801004e:	e880 1004 	stmia.w	r0, {r2, ip}
 8010052:	4770      	bx	lr

08010054 <_ZNK12_GLOBAL__N_125font_OSD_Charset_102_type8get_dataEv>:
 8010054:	f646 0040 	movw	r0, #26688	; 0x6840
 8010058:	f6c0 0001 	movt	r0, #2049	; 0x801
 801005c:	4770      	bx	lr
 801005e:	bf00      	nop

08010060 <_ZNK12_GLOBAL__N_125font_OSD_Charset_102_type8get_sizeEv>:
 8010060:	210c      	movs	r1, #12
 8010062:	2212      	movs	r2, #18
 8010064:	e880 0006 	stmia.w	r0, {r1, r2}
 8010068:	4770      	bx	lr
 801006a:	bf00      	nop

0801006c <_ZNK12_GLOBAL__N_125font_OSD_Charset_103_type8get_dataEv>:
 801006c:	f246 5088 	movw	r0, #25992	; 0x6588
 8010070:	f6c0 0001 	movt	r0, #2049	; 0x801
 8010074:	4770      	bx	lr
 8010076:	bf00      	nop

08010078 <_ZNK12_GLOBAL__N_125font_OSD_Charset_103_type8get_sizeEv>:
 8010078:	220c      	movs	r2, #12
 801007a:	f04f 0c12 	mov.w	ip, #18
 801007e:	e880 1004 	stmia.w	r0, {r2, ip}
 8010082:	4770      	bx	lr

08010084 <_ZNK12_GLOBAL__N_125font_OSD_Charset_104_type8get_dataEv>:
 8010084:	f246 30a8 	movw	r0, #25512	; 0x63a8
 8010088:	f6c0 0001 	movt	r0, #2049	; 0x801
 801008c:	4770      	bx	lr
 801008e:	bf00      	nop

08010090 <_ZNK12_GLOBAL__N_125font_OSD_Charset_104_type8get_sizeEv>:
 8010090:	210c      	movs	r1, #12
 8010092:	2212      	movs	r2, #18
 8010094:	e880 0006 	stmia.w	r0, {r1, r2}
 8010098:	4770      	bx	lr
 801009a:	bf00      	nop

0801009c <_ZNK12_GLOBAL__N_125font_OSD_Charset_105_type8get_dataEv>:
 801009c:	f246 1070 	movw	r0, #24944	; 0x6170
 80100a0:	f6c0 0001 	movt	r0, #2049	; 0x801
 80100a4:	4770      	bx	lr
 80100a6:	bf00      	nop

080100a8 <_ZNK12_GLOBAL__N_125font_OSD_Charset_105_type8get_sizeEv>:
 80100a8:	220c      	movs	r2, #12
 80100aa:	f04f 0c12 	mov.w	ip, #18
 80100ae:	e880 1004 	stmia.w	r0, {r2, ip}
 80100b2:	4770      	bx	lr

080100b4 <_ZNK12_GLOBAL__N_125font_OSD_Charset_106_type8get_dataEv>:
 80100b4:	f645 7000 	movw	r0, #24320	; 0x5f00
 80100b8:	f6c0 0001 	movt	r0, #2049	; 0x801
 80100bc:	4770      	bx	lr
 80100be:	bf00      	nop

080100c0 <_ZNK12_GLOBAL__N_125font_OSD_Charset_106_type8get_sizeEv>:
 80100c0:	210c      	movs	r1, #12
 80100c2:	2212      	movs	r2, #18
 80100c4:	e880 0006 	stmia.w	r0, {r1, r2}
 80100c8:	4770      	bx	lr
 80100ca:	bf00      	nop

080100cc <_ZNK12_GLOBAL__N_125font_OSD_Charset_107_type8get_dataEv>:
 80100cc:	f246 3008 	movw	r0, #25352	; 0x6308
 80100d0:	f6c0 0001 	movt	r0, #2049	; 0x801
 80100d4:	4770      	bx	lr
 80100d6:	bf00      	nop

080100d8 <_ZNK12_GLOBAL__N_125font_OSD_Charset_107_type8get_sizeEv>:
 80100d8:	220c      	movs	r2, #12
 80100da:	f04f 0c12 	mov.w	ip, #18
 80100de:	e880 1004 	stmia.w	r0, {r2, ip}
 80100e2:	4770      	bx	lr

080100e4 <_ZNK12_GLOBAL__N_125font_OSD_Charset_108_type8get_dataEv>:
 80100e4:	f246 1008 	movw	r0, #24840	; 0x6108
 80100e8:	f6c0 0001 	movt	r0, #2049	; 0x801
 80100ec:	4770      	bx	lr
 80100ee:	bf00      	nop

080100f0 <_ZNK12_GLOBAL__N_125font_OSD_Charset_108_type8get_sizeEv>:
 80100f0:	210c      	movs	r1, #12
 80100f2:	2212      	movs	r2, #18
 80100f4:	e880 0006 	stmia.w	r0, {r1, r2}
 80100f8:	4770      	bx	lr
 80100fa:	bf00      	nop

080100fc <_ZNK12_GLOBAL__N_125font_OSD_Charset_109_type8get_dataEv>:
 80100fc:	f645 60b0 	movw	r0, #24240	; 0x5eb0
 8010100:	f6c0 0001 	movt	r0, #2049	; 0x801
 8010104:	4770      	bx	lr
 8010106:	bf00      	nop

08010108 <_ZNK12_GLOBAL__N_125font_OSD_Charset_109_type8get_sizeEv>:
 8010108:	220c      	movs	r2, #12
 801010a:	f04f 0c12 	mov.w	ip, #18
 801010e:	e880 1004 	stmia.w	r0, {r2, ip}
 8010112:	4770      	bx	lr

08010114 <_ZNK12_GLOBAL__N_125font_OSD_Charset_110_type8get_dataEv>:
 8010114:	f246 40e0 	movw	r0, #25824	; 0x64e0
 8010118:	f6c0 0001 	movt	r0, #2049	; 0x801
 801011c:	4770      	bx	lr
 801011e:	bf00      	nop

08010120 <_ZNK12_GLOBAL__N_125font_OSD_Charset_110_type8get_sizeEv>:
 8010120:	210c      	movs	r1, #12
 8010122:	2212      	movs	r2, #18
 8010124:	e880 0006 	stmia.w	r0, {r1, r2}
 8010128:	4770      	bx	lr
 801012a:	bf00      	nop

0801012c <_ZNK12_GLOBAL__N_125font_OSD_Charset_111_type8get_dataEv>:
 801012c:	f246 20d0 	movw	r0, #25296	; 0x62d0
 8010130:	f6c0 0001 	movt	r0, #2049	; 0x801
 8010134:	4770      	bx	lr
 8010136:	bf00      	nop

08010138 <_ZNK12_GLOBAL__N_125font_OSD_Charset_111_type8get_sizeEv>:
 8010138:	220c      	movs	r2, #12
 801013a:	f04f 0c12 	mov.w	ip, #18
 801013e:	e880 1004 	stmia.w	r0, {r2, ip}
 8010142:	4770      	bx	lr

08010144 <_ZNK12_GLOBAL__N_125font_OSD_Charset_112_type8get_dataEv>:
 8010144:	f246 00d0 	movw	r0, #24784	; 0x60d0
 8010148:	f6c0 0001 	movt	r0, #2049	; 0x801
 801014c:	4770      	bx	lr
 801014e:	bf00      	nop

08010150 <_ZNK12_GLOBAL__N_125font_OSD_Charset_112_type8get_sizeEv>:
 8010150:	210c      	movs	r1, #12
 8010152:	2212      	movs	r2, #18
 8010154:	e880 0006 	stmia.w	r0, {r1, r2}
 8010158:	4770      	bx	lr
 801015a:	bf00      	nop

0801015c <_ZNK12_GLOBAL__N_125font_OSD_Charset_113_type8get_dataEv>:
 801015c:	f645 6078 	movw	r0, #24184	; 0x5e78
 8010160:	f6c0 0001 	movt	r0, #2049	; 0x801
 8010164:	4770      	bx	lr
 8010166:	bf00      	nop

08010168 <_ZNK12_GLOBAL__N_125font_OSD_Charset_113_type8get_sizeEv>:
 8010168:	220c      	movs	r2, #12
 801016a:	f04f 0c12 	mov.w	ip, #18
 801016e:	e880 1004 	stmia.w	r0, {r2, ip}
 8010172:	4770      	bx	lr

08010174 <_ZNK12_GLOBAL__N_125font_OSD_Charset_114_type8get_dataEv>:
 8010174:	f246 2080 	movw	r0, #25216	; 0x6280
 8010178:	f6c0 0001 	movt	r0, #2049	; 0x801
 801017c:	4770      	bx	lr
 801017e:	bf00      	nop

08010180 <_ZNK12_GLOBAL__N_125font_OSD_Charset_114_type8get_sizeEv>:
 8010180:	210c      	movs	r1, #12
 8010182:	2212      	movs	r2, #18
 8010184:	e880 0006 	stmia.w	r0, {r1, r2}
 8010188:	4770      	bx	lr
 801018a:	bf00      	nop

0801018c <_ZNK12_GLOBAL__N_125font_OSD_Charset_115_type8get_dataEv>:
 801018c:	f246 0080 	movw	r0, #24704	; 0x6080
 8010190:	f6c0 0001 	movt	r0, #2049	; 0x801
 8010194:	4770      	bx	lr
 8010196:	bf00      	nop

08010198 <_ZNK12_GLOBAL__N_125font_OSD_Charset_115_type8get_sizeEv>:
 8010198:	220c      	movs	r2, #12
 801019a:	f04f 0c12 	mov.w	ip, #18
 801019e:	e880 1004 	stmia.w	r0, {r2, ip}
 80101a2:	4770      	bx	lr

080101a4 <_ZNK12_GLOBAL__N_125font_OSD_Charset_116_type8get_dataEv>:
 80101a4:	f645 6008 	movw	r0, #24072	; 0x5e08
 80101a8:	f6c0 0001 	movt	r0, #2049	; 0x801
 80101ac:	4770      	bx	lr
 80101ae:	bf00      	nop

080101b0 <_ZNK12_GLOBAL__N_125font_OSD_Charset_116_type8get_sizeEv>:
 80101b0:	210c      	movs	r1, #12
 80101b2:	2212      	movs	r2, #18
 80101b4:	e880 0006 	stmia.w	r0, {r1, r2}
 80101b8:	4770      	bx	lr
 80101ba:	bf00      	nop

080101bc <_ZNK12_GLOBAL__N_125font_OSD_Charset_117_type8get_dataEv>:
 80101bc:	f645 30a0 	movw	r0, #23456	; 0x5ba0
 80101c0:	f6c0 0001 	movt	r0, #2049	; 0x801
 80101c4:	4770      	bx	lr
 80101c6:	bf00      	nop

080101c8 <_ZNK12_GLOBAL__N_125font_OSD_Charset_117_type8get_sizeEv>:
 80101c8:	220c      	movs	r2, #12
 80101ca:	f04f 0c12 	mov.w	ip, #18
 80101ce:	e880 1004 	stmia.w	r0, {r2, ip}
 80101d2:	4770      	bx	lr

080101d4 <_ZNK12_GLOBAL__N_125font_OSD_Charset_118_type8get_dataEv>:
 80101d4:	f645 2018 	movw	r0, #23064	; 0x5a18
 80101d8:	f6c0 0001 	movt	r0, #2049	; 0x801
 80101dc:	4770      	bx	lr
 80101de:	bf00      	nop

080101e0 <_ZNK12_GLOBAL__N_125font_OSD_Charset_118_type8get_sizeEv>:
 80101e0:	210c      	movs	r1, #12
 80101e2:	2212      	movs	r2, #18
 80101e4:	e880 0006 	stmia.w	r0, {r1, r2}
 80101e8:	4770      	bx	lr
 80101ea:	bf00      	nop

080101ec <_ZNK12_GLOBAL__N_125font_OSD_Charset_119_type8get_dataEv>:
 80101ec:	f645 5030 	movw	r0, #23856	; 0x5d30
 80101f0:	f6c0 0001 	movt	r0, #2049	; 0x801
 80101f4:	4770      	bx	lr
 80101f6:	bf00      	nop

080101f8 <_ZNK12_GLOBAL__N_125font_OSD_Charset_119_type8get_sizeEv>:
 80101f8:	220c      	movs	r2, #12
 80101fa:	f04f 0c12 	mov.w	ip, #18
 80101fe:	e880 1004 	stmia.w	r0, {r2, ip}
 8010202:	4770      	bx	lr

08010204 <_ZNK12_GLOBAL__N_125font_OSD_Charset_120_type8get_dataEv>:
 8010204:	f645 50d0 	movw	r0, #24016	; 0x5dd0
 8010208:	f6c0 0001 	movt	r0, #2049	; 0x801
 801020c:	4770      	bx	lr
 801020e:	bf00      	nop

08010210 <_ZNK12_GLOBAL__N_125font_OSD_Charset_120_type8get_sizeEv>:
 8010210:	210c      	movs	r1, #12
 8010212:	2212      	movs	r2, #18
 8010214:	e880 0006 	stmia.w	r0, {r1, r2}
 8010218:	4770      	bx	lr
 801021a:	bf00      	nop

0801021c <_ZNK12_GLOBAL__N_125font_OSD_Charset_121_type8get_dataEv>:
 801021c:	f246 2030 	movw	r0, #25136	; 0x6230
 8010220:	f6c0 0001 	movt	r0, #2049	; 0x801
 8010224:	4770      	bx	lr
 8010226:	bf00      	nop

08010228 <_ZNK12_GLOBAL__N_125font_OSD_Charset_121_type8get_sizeEv>:
 8010228:	220c      	movs	r2, #12
 801022a:	f04f 0c12 	mov.w	ip, #18
 801022e:	e880 1004 	stmia.w	r0, {r2, ip}
 8010232:	4770      	bx	lr

08010234 <_ZNK12_GLOBAL__N_125font_OSD_Charset_122_type8get_dataEv>:
 8010234:	f246 0018 	movw	r0, #24600	; 0x6018
 8010238:	f6c0 0001 	movt	r0, #2049	; 0x801
 801023c:	4770      	bx	lr
 801023e:	bf00      	nop

08010240 <_ZNK12_GLOBAL__N_125font_OSD_Charset_122_type8get_sizeEv>:
 8010240:	210c      	movs	r1, #12
 8010242:	2212      	movs	r2, #18
 8010244:	e880 0006 	stmia.w	r0, {r1, r2}
 8010248:	4770      	bx	lr
 801024a:	bf00      	nop

0801024c <_ZNK12_GLOBAL__N_125font_OSD_Charset_123_type8get_dataEv>:
 801024c:	f645 40f8 	movw	r0, #23800	; 0x5cf8
 8010250:	f6c0 0001 	movt	r0, #2049	; 0x801
 8010254:	4770      	bx	lr
 8010256:	bf00      	nop

08010258 <_ZNK12_GLOBAL__N_125font_OSD_Charset_123_type8get_sizeEv>:
 8010258:	220c      	movs	r2, #12
 801025a:	f04f 0c12 	mov.w	ip, #18
 801025e:	e880 1004 	stmia.w	r0, {r2, ip}
 8010262:	4770      	bx	lr

08010264 <_ZNK12_GLOBAL__N_125font_OSD_Charset_124_type8get_dataEv>:
 8010264:	f648 00b0 	movw	r0, #34992	; 0x88b0
 8010268:	f6c0 0001 	movt	r0, #2049	; 0x801
 801026c:	4770      	bx	lr
 801026e:	bf00      	nop

08010270 <_ZNK12_GLOBAL__N_125font_OSD_Charset_124_type8get_sizeEv>:
 8010270:	210c      	movs	r1, #12
 8010272:	2212      	movs	r2, #18
 8010274:	e880 0006 	stmia.w	r0, {r1, r2}
 8010278:	4770      	bx	lr
 801027a:	bf00      	nop

0801027c <_ZNK12_GLOBAL__N_125font_OSD_Charset_125_type8get_dataEv>:
 801027c:	f645 10ac 	movw	r0, #22956	; 0x59ac
 8010280:	f6c0 0001 	movt	r0, #2049	; 0x801
 8010284:	4770      	bx	lr
 8010286:	bf00      	nop

08010288 <_ZNK12_GLOBAL__N_125font_OSD_Charset_125_type8get_sizeEv>:
 8010288:	220c      	movs	r2, #12
 801028a:	f04f 0c12 	mov.w	ip, #18
 801028e:	e880 1004 	stmia.w	r0, {r2, ip}
 8010292:	4770      	bx	lr

08010294 <_ZNK12_GLOBAL__N_125font_OSD_Charset_126_type8get_dataEv>:
 8010294:	f645 4090 	movw	r0, #23696	; 0x5c90
 8010298:	f6c0 0001 	movt	r0, #2049	; 0x801
 801029c:	4770      	bx	lr
 801029e:	bf00      	nop

080102a0 <_ZNK12_GLOBAL__N_125font_OSD_Charset_126_type8get_sizeEv>:
 80102a0:	210c      	movs	r1, #12
 80102a2:	2212      	movs	r2, #18
 80102a4:	e880 0006 	stmia.w	r0, {r1, r2}
 80102a8:	4770      	bx	lr
 80102aa:	bf00      	nop

080102ac <_ZNK12_GLOBAL__N_121font_OSD_Charset_type9get_beginEv>:
 80102ac:	2020      	movs	r0, #32
 80102ae:	4770      	bx	lr

080102b0 <_ZNK12_GLOBAL__N_121font_OSD_Charset_type15get_char_heightEv>:
 80102b0:	2012      	movs	r0, #18
 80102b2:	4770      	bx	lr

080102b4 <_ZNK12_GLOBAL__N_121font_OSD_Charset_type14get_char_widthEv>:
 80102b4:	200c      	movs	r0, #12
 80102b6:	4770      	bx	lr

080102b8 <_ZNK12_GLOBAL__N_121font_OSD_Charset_type16get_num_elementsEv>:
 80102b8:	205f      	movs	r0, #95	; 0x5f
 80102ba:	4770      	bx	lr

080102bc <_ZNK12_GLOBAL__N_121font_OSD_Charset_type11get_char_atEl>:
 80102bc:	6803      	ldr	r3, [r0, #0]
 80102be:	b510      	push	{r4, lr}
 80102c0:	681a      	ldr	r2, [r3, #0]
 80102c2:	460c      	mov	r4, r1
 80102c4:	4790      	blx	r2
 80102c6:	1a20      	subs	r0, r4, r0
 80102c8:	285e      	cmp	r0, #94	; 0x5e
 80102ca:	d803      	bhi.n	80102d4 <_ZNK12_GLOBAL__N_121font_OSD_Charset_type11get_char_atEl+0x18>
 80102cc:	4902      	ldr	r1, [pc, #8]	; (80102d8 <_ZNK12_GLOBAL__N_121font_OSD_Charset_type11get_char_atEl+0x1c>)
 80102ce:	f851 0020 	ldr.w	r0, [r1, r0, lsl #2]
 80102d2:	bd10      	pop	{r4, pc}
 80102d4:	2000      	movs	r0, #0
 80102d6:	bd10      	pop	{r4, pc}
 80102d8:	08016f30 	.word	0x08016f30

080102dc <_ZNK12_GLOBAL__N_118font_MWOSD_32_type8get_dataEv>:
 80102dc:	f646 40b8 	movw	r0, #27832	; 0x6cb8
 80102e0:	f6c0 0001 	movt	r0, #2049	; 0x801
 80102e4:	4770      	bx	lr
 80102e6:	bf00      	nop

080102e8 <_ZNK12_GLOBAL__N_118font_MWOSD_32_type8get_sizeEv>:
 80102e8:	220c      	movs	r2, #12
 80102ea:	f04f 0c12 	mov.w	ip, #18
 80102ee:	e880 1004 	stmia.w	r0, {r2, ip}
 80102f2:	4770      	bx	lr

080102f4 <_ZNK12_GLOBAL__N_118font_MWOSD_33_type8get_dataEv>:
 80102f4:	f647 0008 	movw	r0, #30728	; 0x7808
 80102f8:	f6c0 0001 	movt	r0, #2049	; 0x801
 80102fc:	4770      	bx	lr
 80102fe:	bf00      	nop

08010300 <_ZNK12_GLOBAL__N_118font_MWOSD_33_type8get_sizeEv>:
 8010300:	210c      	movs	r1, #12
 8010302:	2212      	movs	r2, #18
 8010304:	e880 0006 	stmia.w	r0, {r1, r2}
 8010308:	4770      	bx	lr
 801030a:	bf00      	nop

0801030c <_ZNK12_GLOBAL__N_118font_MWOSD_34_type8get_dataEv>:
 801030c:	f648 1038 	movw	r0, #35128	; 0x8938
 8010310:	f6c0 0001 	movt	r0, #2049	; 0x801
 8010314:	4770      	bx	lr
 8010316:	bf00      	nop

08010318 <_ZNK12_GLOBAL__N_118font_MWOSD_34_type8get_sizeEv>:
 8010318:	220c      	movs	r2, #12
 801031a:	f04f 0c12 	mov.w	ip, #18
 801031e:	e880 1004 	stmia.w	r0, {r2, ip}
 8010322:	4770      	bx	lr

08010324 <_ZNK12_GLOBAL__N_118font_MWOSD_35_type8get_dataEv>:
 8010324:	f248 6080 	movw	r0, #34432	; 0x8680
 8010328:	f6c0 0001 	movt	r0, #2049	; 0x801
 801032c:	4770      	bx	lr
 801032e:	bf00      	nop

08010330 <_ZNK12_GLOBAL__N_118font_MWOSD_35_type8get_sizeEv>:
 8010330:	210c      	movs	r1, #12
 8010332:	2212      	movs	r2, #18
 8010334:	e880 0006 	stmia.w	r0, {r1, r2}
 8010338:	4770      	bx	lr
 801033a:	bf00      	nop

0801033c <_ZNK12_GLOBAL__N_118font_MWOSD_36_type8get_dataEv>:
 801033c:	f648 2018 	movw	r0, #35352	; 0x8a18
 8010340:	f6c0 0001 	movt	r0, #2049	; 0x801
 8010344:	4770      	bx	lr
 8010346:	bf00      	nop

08010348 <_ZNK12_GLOBAL__N_118font_MWOSD_36_type8get_sizeEv>:
 8010348:	220c      	movs	r2, #12
 801034a:	f04f 0c12 	mov.w	ip, #18
 801034e:	e880 1004 	stmia.w	r0, {r2, ip}
 8010352:	4770      	bx	lr

08010354 <_ZNK12_GLOBAL__N_118font_MWOSD_37_type8get_dataEv>:
 8010354:	f246 7000 	movw	r0, #26368	; 0x6700
 8010358:	f6c0 0001 	movt	r0, #2049	; 0x801
 801035c:	4770      	bx	lr
 801035e:	bf00      	nop

08010360 <_ZNK12_GLOBAL__N_118font_MWOSD_37_type8get_sizeEv>:
 8010360:	210c      	movs	r1, #12
 8010362:	2212      	movs	r2, #18
 8010364:	e880 0006 	stmia.w	r0, {r1, r2}
 8010368:	4770      	bx	lr
 801036a:	bf00      	nop

0801036c <_ZNK12_GLOBAL__N_118font_MWOSD_38_type8get_dataEv>:
 801036c:	f647 5090 	movw	r0, #32144	; 0x7d90
 8010370:	f6c0 0001 	movt	r0, #2049	; 0x801
 8010374:	4770      	bx	lr
 8010376:	bf00      	nop

08010378 <_ZNK12_GLOBAL__N_118font_MWOSD_38_type8get_sizeEv>:
 8010378:	220c      	movs	r2, #12
 801037a:	f04f 0c12 	mov.w	ip, #18
 801037e:	e880 1004 	stmia.w	r0, {r2, ip}
 8010382:	4770      	bx	lr

08010384 <_ZNK12_GLOBAL__N_118font_MWOSD_39_type8get_dataEv>:
 8010384:	f248 3080 	movw	r0, #33664	; 0x8380
 8010388:	f6c0 0001 	movt	r0, #2049	; 0x801
 801038c:	4770      	bx	lr
 801038e:	bf00      	nop

08010390 <_ZNK12_GLOBAL__N_118font_MWOSD_39_type8get_sizeEv>:
 8010390:	210c      	movs	r1, #12
 8010392:	2212      	movs	r2, #18
 8010394:	e880 0006 	stmia.w	r0, {r1, r2}
 8010398:	4770      	bx	lr
 801039a:	bf00      	nop

0801039c <_ZNK12_GLOBAL__N_118font_MWOSD_40_type8get_dataEv>:
 801039c:	f648 3098 	movw	r0, #35736	; 0x8b98
 80103a0:	f6c0 0001 	movt	r0, #2049	; 0x801
 80103a4:	4770      	bx	lr
 80103a6:	bf00      	nop

080103a8 <_ZNK12_GLOBAL__N_118font_MWOSD_40_type8get_sizeEv>:
 80103a8:	220c      	movs	r2, #12
 80103aa:	f04f 0c12 	mov.w	ip, #18
 80103ae:	e880 1004 	stmia.w	r0, {r2, ip}
 80103b2:	4770      	bx	lr

080103b4 <_ZNK12_GLOBAL__N_118font_MWOSD_41_type8get_dataEv>:
 80103b4:	f248 00a8 	movw	r0, #32936	; 0x80a8
 80103b8:	f6c0 0001 	movt	r0, #2049	; 0x801
 80103bc:	4770      	bx	lr
 80103be:	bf00      	nop

080103c0 <_ZNK12_GLOBAL__N_118font_MWOSD_41_type8get_sizeEv>:
 80103c0:	210c      	movs	r1, #12
 80103c2:	2212      	movs	r2, #18
 80103c4:	e880 0006 	stmia.w	r0, {r1, r2}
 80103c8:	4770      	bx	lr
 80103ca:	bf00      	nop

080103cc <_ZNK12_GLOBAL__N_118font_MWOSD_42_type8get_dataEv>:
 80103cc:	f248 50f8 	movw	r0, #34296	; 0x85f8
 80103d0:	f6c0 0001 	movt	r0, #2049	; 0x801
 80103d4:	4770      	bx	lr
 80103d6:	bf00      	nop

080103d8 <_ZNK12_GLOBAL__N_118font_MWOSD_42_type8get_sizeEv>:
 80103d8:	220c      	movs	r2, #12
 80103da:	f04f 0c12 	mov.w	ip, #18
 80103de:	e880 1004 	stmia.w	r0, {r2, ip}
 80103e2:	4770      	bx	lr

080103e4 <_ZNK12_GLOBAL__N_118font_MWOSD_43_type8get_dataEv>:
 80103e4:	f245 5058 	movw	r0, #21848	; 0x5558
 80103e8:	f6c0 0001 	movt	r0, #2049	; 0x801
 80103ec:	4770      	bx	lr
 80103ee:	bf00      	nop

080103f0 <_ZNK12_GLOBAL__N_118font_MWOSD_43_type8get_sizeEv>:
 80103f0:	210c      	movs	r1, #12
 80103f2:	2212      	movs	r2, #18
 80103f4:	e880 0006 	stmia.w	r0, {r1, r2}
 80103f8:	4770      	bx	lr
 80103fa:	bf00      	nop

080103fc <_ZNK12_GLOBAL__N_118font_MWOSD_44_type8get_dataEv>:
 80103fc:	f246 10e0 	movw	r0, #25056	; 0x61e0
 8010400:	f6c0 0001 	movt	r0, #2049	; 0x801
 8010404:	4770      	bx	lr
 8010406:	bf00      	nop

08010408 <_ZNK12_GLOBAL__N_118font_MWOSD_44_type8get_sizeEv>:
 8010408:	220c      	movs	r2, #12
 801040a:	f04f 0c12 	mov.w	ip, #18
 801040e:	e880 1004 	stmia.w	r0, {r2, ip}
 8010412:	4770      	bx	lr

08010414 <_ZNK12_GLOBAL__N_118font_MWOSD_45_type8get_dataEv>:
 8010414:	f246 6080 	movw	r0, #26240	; 0x6680
 8010418:	f6c0 0001 	movt	r0, #2049	; 0x801
 801041c:	4770      	bx	lr
 801041e:	bf00      	nop

08010420 <_ZNK12_GLOBAL__N_118font_MWOSD_45_type8get_sizeEv>:
 8010420:	210c      	movs	r1, #12
 8010422:	2212      	movs	r2, #18
 8010424:	e880 0006 	stmia.w	r0, {r1, r2}
 8010428:	4770      	bx	lr
 801042a:	bf00      	nop

0801042c <_ZNK12_GLOBAL__N_118font_MWOSD_46_type8get_dataEv>:
 801042c:	f248 30b8 	movw	r0, #33720	; 0x83b8
 8010430:	f6c0 0001 	movt	r0, #2049	; 0x801
 8010434:	4770      	bx	lr
 8010436:	bf00      	nop

08010438 <_ZNK12_GLOBAL__N_118font_MWOSD_46_type8get_sizeEv>:
 8010438:	220c      	movs	r2, #12
 801043a:	f04f 0c12 	mov.w	ip, #18
 801043e:	e880 1004 	stmia.w	r0, {r2, ip}
 8010442:	4770      	bx	lr

08010444 <_ZNK12_GLOBAL__N_118font_MWOSD_47_type8get_dataEv>:
 8010444:	f647 70e8 	movw	r0, #32744	; 0x7fe8
 8010448:	f6c0 0001 	movt	r0, #2049	; 0x801
 801044c:	4770      	bx	lr
 801044e:	bf00      	nop

08010450 <_ZNK12_GLOBAL__N_118font_MWOSD_47_type8get_sizeEv>:
 8010450:	210c      	movs	r1, #12
 8010452:	2212      	movs	r2, #18
 8010454:	e880 0006 	stmia.w	r0, {r1, r2}
 8010458:	4770      	bx	lr
 801045a:	bf00      	nop

0801045c <_ZNK12_GLOBAL__N_118font_MWOSD_48_type8get_dataEv>:
 801045c:	f647 4050 	movw	r0, #31824	; 0x7c50
 8010460:	f6c0 0001 	movt	r0, #2049	; 0x801
 8010464:	4770      	bx	lr
 8010466:	bf00      	nop

08010468 <_ZNK12_GLOBAL__N_118font_MWOSD_48_type8get_sizeEv>:
 8010468:	220c      	movs	r2, #12
 801046a:	f04f 0c12 	mov.w	ip, #18
 801046e:	e880 1004 	stmia.w	r0, {r2, ip}
 8010472:	4770      	bx	lr

08010474 <_ZNK12_GLOBAL__N_118font_MWOSD_49_type8get_dataEv>:
 8010474:	f647 0078 	movw	r0, #30840	; 0x7878
 8010478:	f6c0 0001 	movt	r0, #2049	; 0x801
 801047c:	4770      	bx	lr
 801047e:	bf00      	nop

08010480 <_ZNK12_GLOBAL__N_118font_MWOSD_49_type8get_sizeEv>:
 8010480:	210c      	movs	r1, #12
 8010482:	2212      	movs	r2, #18
 8010484:	e880 0006 	stmia.w	r0, {r1, r2}
 8010488:	4770      	bx	lr
 801048a:	bf00      	nop

0801048c <_ZNK12_GLOBAL__N_118font_MWOSD_50_type8get_dataEv>:
 801048c:	f246 40a8 	movw	r0, #25768	; 0x64a8
 8010490:	f6c0 0001 	movt	r0, #2049	; 0x801
 8010494:	4770      	bx	lr
 8010496:	bf00      	nop

08010498 <_ZNK12_GLOBAL__N_118font_MWOSD_50_type8get_sizeEv>:
 8010498:	220c      	movs	r2, #12
 801049a:	f04f 0c12 	mov.w	ip, #18
 801049e:	e880 1004 	stmia.w	r0, {r2, ip}
 80104a2:	4770      	bx	lr

080104a4 <_ZNK12_GLOBAL__N_118font_MWOSD_51_type8get_dataEv>:
 80104a4:	f647 70b0 	movw	r0, #32688	; 0x7fb0
 80104a8:	f6c0 0001 	movt	r0, #2049	; 0x801
 80104ac:	4770      	bx	lr
 80104ae:	bf00      	nop

080104b0 <_ZNK12_GLOBAL__N_118font_MWOSD_51_type8get_sizeEv>:
 80104b0:	210c      	movs	r1, #12
 80104b2:	2212      	movs	r2, #18
 80104b4:	e880 0006 	stmia.w	r0, {r1, r2}
 80104b8:	4770      	bx	lr
 80104ba:	bf00      	nop

080104bc <_ZNK12_GLOBAL__N_118font_MWOSD_52_type8get_dataEv>:
 80104bc:	f248 7068 	movw	r0, #34664	; 0x8768
 80104c0:	f6c0 0001 	movt	r0, #2049	; 0x801
 80104c4:	4770      	bx	lr
 80104c6:	bf00      	nop

080104c8 <_ZNK12_GLOBAL__N_118font_MWOSD_52_type8get_sizeEv>:
 80104c8:	220c      	movs	r2, #12
 80104ca:	f04f 0c12 	mov.w	ip, #18
 80104ce:	e880 1004 	stmia.w	r0, {r2, ip}
 80104d2:	4770      	bx	lr

080104d4 <_ZNK12_GLOBAL__N_118font_MWOSD_53_type8get_dataEv>:
 80104d4:	f245 2028 	movw	r0, #21032	; 0x5228
 80104d8:	f6c0 0001 	movt	r0, #2049	; 0x801
 80104dc:	4770      	bx	lr
 80104de:	bf00      	nop

080104e0 <_ZNK12_GLOBAL__N_118font_MWOSD_53_type8get_sizeEv>:
 80104e0:	210c      	movs	r1, #12
 80104e2:	2212      	movs	r2, #18
 80104e4:	e880 0006 	stmia.w	r0, {r1, r2}
 80104e8:	4770      	bx	lr
 80104ea:	bf00      	nop

080104ec <_ZNK12_GLOBAL__N_118font_MWOSD_54_type8get_dataEv>:
 80104ec:	f647 7028 	movw	r0, #32552	; 0x7f28
 80104f0:	f6c0 0001 	movt	r0, #2049	; 0x801
 80104f4:	4770      	bx	lr
 80104f6:	bf00      	nop

080104f8 <_ZNK12_GLOBAL__N_118font_MWOSD_54_type8get_sizeEv>:
 80104f8:	220c      	movs	r2, #12
 80104fa:	f04f 0c12 	mov.w	ip, #18
 80104fe:	e880 1004 	stmia.w	r0, {r2, ip}
 8010502:	4770      	bx	lr

08010504 <_ZNK12_GLOBAL__N_118font_MWOSD_55_type8get_dataEv>:
 8010504:	f245 20e0 	movw	r0, #21216	; 0x52e0
 8010508:	f6c0 0001 	movt	r0, #2049	; 0x801
 801050c:	4770      	bx	lr
 801050e:	bf00      	nop

08010510 <_ZNK12_GLOBAL__N_118font_MWOSD_55_type8get_sizeEv>:
 8010510:	210c      	movs	r1, #12
 8010512:	2212      	movs	r2, #18
 8010514:	e880 0006 	stmia.w	r0, {r1, r2}
 8010518:	4770      	bx	lr
 801051a:	bf00      	nop

0801051c <_ZNK12_GLOBAL__N_118font_MWOSD_56_type8get_dataEv>:
 801051c:	f648 2088 	movw	r0, #35464	; 0x8a88
 8010520:	f6c0 0001 	movt	r0, #2049	; 0x801
 8010524:	4770      	bx	lr
 8010526:	bf00      	nop

08010528 <_ZNK12_GLOBAL__N_118font_MWOSD_56_type8get_sizeEv>:
 8010528:	220c      	movs	r2, #12
 801052a:	f04f 0c12 	mov.w	ip, #18
 801052e:	e880 1004 	stmia.w	r0, {r2, ip}
 8010532:	4770      	bx	lr

08010534 <_ZNK12_GLOBAL__N_118font_MWOSD_57_type8get_dataEv>:
 8010534:	f646 10e8 	movw	r0, #27112	; 0x69e8
 8010538:	f6c0 0001 	movt	r0, #2049	; 0x801
 801053c:	4770      	bx	lr
 801053e:	bf00      	nop

08010540 <_ZNK12_GLOBAL__N_118font_MWOSD_57_type8get_sizeEv>:
 8010540:	210c      	movs	r1, #12
 8010542:	2212      	movs	r2, #18
 8010544:	e880 0006 	stmia.w	r0, {r1, r2}
 8010548:	4770      	bx	lr
 801054a:	bf00      	nop

0801054c <_ZNK12_GLOBAL__N_118font_MWOSD_58_type8get_dataEv>:
 801054c:	f248 50c0 	movw	r0, #34240	; 0x85c0
 8010550:	f6c0 0001 	movt	r0, #2049	; 0x801
 8010554:	4770      	bx	lr
 8010556:	bf00      	nop

08010558 <_ZNK12_GLOBAL__N_118font_MWOSD_58_type8get_sizeEv>:
 8010558:	220c      	movs	r2, #12
 801055a:	f04f 0c12 	mov.w	ip, #18
 801055e:	e880 1004 	stmia.w	r0, {r2, ip}
 8010562:	4770      	bx	lr

08010564 <_ZNK12_GLOBAL__N_118font_MWOSD_59_type8get_dataEv>:
 8010564:	f646 20c0 	movw	r0, #27328	; 0x6ac0
 8010568:	f6c0 0001 	movt	r0, #2049	; 0x801
 801056c:	4770      	bx	lr
 801056e:	bf00      	nop

08010570 <_ZNK12_GLOBAL__N_118font_MWOSD_59_type8get_sizeEv>:
 8010570:	210c      	movs	r1, #12
 8010572:	2212      	movs	r2, #18
 8010574:	e880 0006 	stmia.w	r0, {r1, r2}
 8010578:	4770      	bx	lr
 801057a:	bf00      	nop

0801057c <_ZNK12_GLOBAL__N_118font_MWOSD_60_type8get_dataEv>:
 801057c:	f645 6040 	movw	r0, #24128	; 0x5e40
 8010580:	f6c0 0001 	movt	r0, #2049	; 0x801
 8010584:	4770      	bx	lr
 8010586:	bf00      	nop

08010588 <_ZNK12_GLOBAL__N_118font_MWOSD_60_type8get_sizeEv>:
 8010588:	220c      	movs	r2, #12
 801058a:	f04f 0c12 	mov.w	ip, #18
 801058e:	e880 1004 	stmia.w	r0, {r2, ip}
 8010592:	4770      	bx	lr

08010594 <_ZNK12_GLOBAL__N_118font_MWOSD_61_type8get_dataEv>:
 8010594:	f647 6088 	movw	r0, #32392	; 0x7e88
 8010598:	f6c0 0001 	movt	r0, #2049	; 0x801
 801059c:	4770      	bx	lr
 801059e:	bf00      	nop

080105a0 <_ZNK12_GLOBAL__N_118font_MWOSD_61_type8get_sizeEv>:
 80105a0:	210c      	movs	r1, #12
 80105a2:	2212      	movs	r2, #18
 80105a4:	e880 0006 	stmia.w	r0, {r1, r2}
 80105a8:	4770      	bx	lr
 80105aa:	bf00      	nop

080105ac <_ZNK12_GLOBAL__N_118font_MWOSD_62_type8get_dataEv>:
 80105ac:	f645 7098 	movw	r0, #24472	; 0x5f98
 80105b0:	f6c0 0001 	movt	r0, #2049	; 0x801
 80105b4:	4770      	bx	lr
 80105b6:	bf00      	nop

080105b8 <_ZNK12_GLOBAL__N_118font_MWOSD_62_type8get_sizeEv>:
 80105b8:	220c      	movs	r2, #12
 80105ba:	f04f 0c12 	mov.w	ip, #18
 80105be:	e880 1004 	stmia.w	r0, {r2, ip}
 80105c2:	4770      	bx	lr

080105c4 <_ZNK12_GLOBAL__N_118font_MWOSD_63_type8get_dataEv>:
 80105c4:	f646 40f0 	movw	r0, #27888	; 0x6cf0
 80105c8:	f6c0 0001 	movt	r0, #2049	; 0x801
 80105cc:	4770      	bx	lr
 80105ce:	bf00      	nop

080105d0 <_ZNK12_GLOBAL__N_118font_MWOSD_63_type8get_sizeEv>:
 80105d0:	210c      	movs	r1, #12
 80105d2:	2212      	movs	r2, #18
 80105d4:	e880 0006 	stmia.w	r0, {r1, r2}
 80105d8:	4770      	bx	lr
 80105da:	bf00      	nop

080105dc <_ZNK12_GLOBAL__N_118font_MWOSD_64_type8get_dataEv>:
 80105dc:	f245 1090 	movw	r0, #20880	; 0x5190
 80105e0:	f6c0 0001 	movt	r0, #2049	; 0x801
 80105e4:	4770      	bx	lr
 80105e6:	bf00      	nop

080105e8 <_ZNK12_GLOBAL__N_118font_MWOSD_64_type8get_sizeEv>:
 80105e8:	220c      	movs	r2, #12
 80105ea:	f04f 0c12 	mov.w	ip, #18
 80105ee:	e880 1004 	stmia.w	r0, {r2, ip}
 80105f2:	4770      	bx	lr

080105f4 <_ZNK12_GLOBAL__N_118font_MWOSD_65_type8get_dataEv>:
 80105f4:	f648 5068 	movw	r0, #36200	; 0x8d68
 80105f8:	f6c0 0001 	movt	r0, #2049	; 0x801
 80105fc:	4770      	bx	lr
 80105fe:	bf00      	nop

08010600 <_ZNK12_GLOBAL__N_118font_MWOSD_65_type8get_sizeEv>:
 8010600:	210c      	movs	r1, #12
 8010602:	2212      	movs	r2, #18
 8010604:	e880 0006 	stmia.w	r0, {r1, r2}
 8010608:	4770      	bx	lr
 801060a:	bf00      	nop

0801060c <_ZNK12_GLOBAL__N_118font_MWOSD_66_type8get_dataEv>:
 801060c:	f247 60a8 	movw	r0, #30376	; 0x76a8
 8010610:	f6c0 0001 	movt	r0, #2049	; 0x801
 8010614:	4770      	bx	lr
 8010616:	bf00      	nop

08010618 <_ZNK12_GLOBAL__N_118font_MWOSD_66_type8get_sizeEv>:
 8010618:	220c      	movs	r2, #12
 801061a:	f04f 0c12 	mov.w	ip, #18
 801061e:	e880 1004 	stmia.w	r0, {r2, ip}
 8010622:	4770      	bx	lr

08010624 <_ZNK12_GLOBAL__N_118font_MWOSD_67_type8get_dataEv>:
 8010624:	f644 7038 	movw	r0, #20280	; 0x4f38
 8010628:	f6c0 0001 	movt	r0, #2049	; 0x801
 801062c:	4770      	bx	lr
 801062e:	bf00      	nop

08010630 <_ZNK12_GLOBAL__N_118font_MWOSD_67_type8get_sizeEv>:
 8010630:	210c      	movs	r1, #12
 8010632:	2212      	movs	r2, #18
 8010634:	e880 0006 	stmia.w	r0, {r1, r2}
 8010638:	4770      	bx	lr
 801063a:	bf00      	nop

0801063c <_ZNK12_GLOBAL__N_118font_MWOSD_68_type8get_dataEv>:
 801063c:	f245 7018 	movw	r0, #22296	; 0x5718
 8010640:	f6c0 0001 	movt	r0, #2049	; 0x801
 8010644:	4770      	bx	lr
 8010646:	bf00      	nop

08010648 <_ZNK12_GLOBAL__N_118font_MWOSD_68_type8get_sizeEv>:
 8010648:	220c      	movs	r2, #12
 801064a:	f04f 0c12 	mov.w	ip, #18
 801064e:	e880 1004 	stmia.w	r0, {r2, ip}
 8010652:	4770      	bx	lr

08010654 <_ZNK12_GLOBAL__N_118font_MWOSD_69_type8get_dataEv>:
 8010654:	f646 4080 	movw	r0, #27776	; 0x6c80
 8010658:	f6c0 0001 	movt	r0, #2049	; 0x801
 801065c:	4770      	bx	lr
 801065e:	bf00      	nop

08010660 <_ZNK12_GLOBAL__N_118font_MWOSD_69_type8get_sizeEv>:
 8010660:	210c      	movs	r1, #12
 8010662:	2212      	movs	r2, #18
 8010664:	e880 0006 	stmia.w	r0, {r1, r2}
 8010668:	4770      	bx	lr
 801066a:	bf00      	nop

0801066c <_ZNK12_GLOBAL__N_118font_MWOSD_70_type8get_dataEv>:
 801066c:	f645 4008 	movw	r0, #23560	; 0x5c08
 8010670:	f6c0 0001 	movt	r0, #2049	; 0x801
 8010674:	4770      	bx	lr
 8010676:	bf00      	nop

08010678 <_ZNK12_GLOBAL__N_118font_MWOSD_70_type8get_sizeEv>:
 8010678:	220c      	movs	r2, #12
 801067a:	f04f 0c12 	mov.w	ip, #18
 801067e:	e880 1004 	stmia.w	r0, {r2, ip}
 8010682:	4770      	bx	lr

08010684 <_ZNK12_GLOBAL__N_118font_MWOSD_71_type8get_dataEv>:
 8010684:	f245 00c8 	movw	r0, #20680	; 0x50c8
 8010688:	f6c0 0001 	movt	r0, #2049	; 0x801
 801068c:	4770      	bx	lr
 801068e:	bf00      	nop

08010690 <_ZNK12_GLOBAL__N_118font_MWOSD_71_type8get_sizeEv>:
 8010690:	210c      	movs	r1, #12
 8010692:	2212      	movs	r2, #18
 8010694:	e880 0006 	stmia.w	r0, {r1, r2}
 8010698:	4770      	bx	lr
 801069a:	bf00      	nop

0801069c <_ZNK12_GLOBAL__N_118font_MWOSD_72_type8get_dataEv>:
 801069c:	f645 1074 	movw	r0, #22900	; 0x5974
 80106a0:	f6c0 0001 	movt	r0, #2049	; 0x801
 80106a4:	4770      	bx	lr
 80106a6:	bf00      	nop

080106a8 <_ZNK12_GLOBAL__N_118font_MWOSD_72_type8get_sizeEv>:
 80106a8:	220c      	movs	r2, #12
 80106aa:	f04f 0c12 	mov.w	ip, #18
 80106ae:	e880 1004 	stmia.w	r0, {r2, ip}
 80106b2:	4770      	bx	lr

080106b4 <_ZNK12_GLOBAL__N_118font_MWOSD_73_type8get_dataEv>:
 80106b4:	f247 50f0 	movw	r0, #30192	; 0x75f0
 80106b8:	f6c0 0001 	movt	r0, #2049	; 0x801
 80106bc:	4770      	bx	lr
 80106be:	bf00      	nop

080106c0 <_ZNK12_GLOBAL__N_118font_MWOSD_73_type8get_sizeEv>:
 80106c0:	210c      	movs	r1, #12
 80106c2:	2212      	movs	r2, #18
 80106c4:	e880 0006 	stmia.w	r0, {r1, r2}
 80106c8:	4770      	bx	lr
 80106ca:	bf00      	nop

080106cc <_ZNK12_GLOBAL__N_118font_MWOSD_74_type8get_dataEv>:
 80106cc:	f247 20a0 	movw	r0, #29344	; 0x72a0
 80106d0:	f6c0 0001 	movt	r0, #2049	; 0x801
 80106d4:	4770      	bx	lr
 80106d6:	bf00      	nop

080106d8 <_ZNK12_GLOBAL__N_118font_MWOSD_74_type8get_sizeEv>:
 80106d8:	220c      	movs	r2, #12
 80106da:	f04f 0c12 	mov.w	ip, #18
 80106de:	e880 1004 	stmia.w	r0, {r2, ip}
 80106e2:	4770      	bx	lr

080106e4 <_ZNK12_GLOBAL__N_118font_MWOSD_75_type8get_dataEv>:
 80106e4:	f245 4040 	movw	r0, #21568	; 0x5440
 80106e8:	f6c0 0001 	movt	r0, #2049	; 0x801
 80106ec:	4770      	bx	lr
 80106ee:	bf00      	nop

080106f0 <_ZNK12_GLOBAL__N_118font_MWOSD_75_type8get_sizeEv>:
 80106f0:	210c      	movs	r1, #12
 80106f2:	2212      	movs	r2, #18
 80106f4:	e880 0006 	stmia.w	r0, {r1, r2}
 80106f8:	4770      	bx	lr
 80106fa:	bf00      	nop

080106fc <_ZNK12_GLOBAL__N_118font_MWOSD_76_type8get_dataEv>:
 80106fc:	f648 4070 	movw	r0, #35952	; 0x8c70
 8010700:	f6c0 0001 	movt	r0, #2049	; 0x801
 8010704:	4770      	bx	lr
 8010706:	bf00      	nop

08010708 <_ZNK12_GLOBAL__N_118font_MWOSD_76_type8get_sizeEv>:
 8010708:	220c      	movs	r2, #12
 801070a:	f04f 0c12 	mov.w	ip, #18
 801070e:	e880 1004 	stmia.w	r0, {r2, ip}
 8010712:	4770      	bx	lr

08010714 <_ZNK12_GLOBAL__N_118font_MWOSD_77_type8get_dataEv>:
 8010714:	f648 1070 	movw	r0, #35184	; 0x8970
 8010718:	f6c0 0001 	movt	r0, #2049	; 0x801
 801071c:	4770      	bx	lr
 801071e:	bf00      	nop

08010720 <_ZNK12_GLOBAL__N_118font_MWOSD_77_type8get_sizeEv>:
 8010720:	210c      	movs	r1, #12
 8010722:	2212      	movs	r2, #18
 8010724:	e880 0006 	stmia.w	r0, {r1, r2}
 8010728:	4770      	bx	lr
 801072a:	bf00      	nop

0801072c <_ZNK12_GLOBAL__N_118font_MWOSD_78_type8get_dataEv>:
 801072c:	f646 6088 	movw	r0, #28296	; 0x6e88
 8010730:	f6c0 0001 	movt	r0, #2049	; 0x801
 8010734:	4770      	bx	lr
 8010736:	bf00      	nop

08010738 <_ZNK12_GLOBAL__N_118font_MWOSD_78_type8get_sizeEv>:
 8010738:	220c      	movs	r2, #12
 801073a:	f04f 0c12 	mov.w	ip, #18
 801073e:	e880 1004 	stmia.w	r0, {r2, ip}
 8010742:	4770      	bx	lr

08010744 <_ZNK12_GLOBAL__N_118font_MWOSD_79_type8get_dataEv>:
 8010744:	f648 2050 	movw	r0, #35408	; 0x8a50
 8010748:	f6c0 0001 	movt	r0, #2049	; 0x801
 801074c:	4770      	bx	lr
 801074e:	bf00      	nop

08010750 <_ZNK12_GLOBAL__N_118font_MWOSD_79_type8get_sizeEv>:
 8010750:	210c      	movs	r1, #12
 8010752:	2212      	movs	r2, #18
 8010754:	e880 0006 	stmia.w	r0, {r1, r2}
 8010758:	4770      	bx	lr
 801075a:	bf00      	nop

0801075c <_ZNK12_GLOBAL__N_118font_MWOSD_80_type8get_dataEv>:
 801075c:	f247 5080 	movw	r0, #30080	; 0x7580
 8010760:	f6c0 0001 	movt	r0, #2049	; 0x801
 8010764:	4770      	bx	lr
 8010766:	bf00      	nop

08010768 <_ZNK12_GLOBAL__N_118font_MWOSD_80_type8get_sizeEv>:
 8010768:	220c      	movs	r2, #12
 801076a:	f04f 0c12 	mov.w	ip, #18
 801076e:	e880 1004 	stmia.w	r0, {r2, ip}
 8010772:	4770      	bx	lr

08010774 <_ZNK12_GLOBAL__N_118font_MWOSD_81_type8get_dataEv>:
 8010774:	f646 2070 	movw	r0, #27248	; 0x6a70
 8010778:	f6c0 0001 	movt	r0, #2049	; 0x801
 801077c:	4770      	bx	lr
 801077e:	bf00      	nop

08010780 <_ZNK12_GLOBAL__N_118font_MWOSD_81_type8get_sizeEv>:
 8010780:	210c      	movs	r1, #12
 8010782:	2212      	movs	r2, #18
 8010784:	e880 0006 	stmia.w	r0, {r1, r2}
 8010788:	4770      	bx	lr
 801078a:	bf00      	nop

0801078c <_ZNK12_GLOBAL__N_118font_MWOSD_82_type8get_dataEv>:
 801078c:	f647 50c8 	movw	r0, #32200	; 0x7dc8
 8010790:	f6c0 0001 	movt	r0, #2049	; 0x801
 8010794:	4770      	bx	lr
 8010796:	bf00      	nop

08010798 <_ZNK12_GLOBAL__N_118font_MWOSD_82_type8get_sizeEv>:
 8010798:	220c      	movs	r2, #12
 801079a:	f04f 0c12 	mov.w	ip, #18
 801079e:	e880 1004 	stmia.w	r0, {r2, ip}
 80107a2:	4770      	bx	lr

080107a4 <_ZNK12_GLOBAL__N_118font_MWOSD_83_type8get_dataEv>:
 80107a4:	f648 30d0 	movw	r0, #35792	; 0x8bd0
 80107a8:	f6c0 0001 	movt	r0, #2049	; 0x801
 80107ac:	4770      	bx	lr
 80107ae:	bf00      	nop

080107b0 <_ZNK12_GLOBAL__N_118font_MWOSD_83_type8get_sizeEv>:
 80107b0:	210c      	movs	r1, #12
 80107b2:	2212      	movs	r2, #18
 80107b4:	e880 0006 	stmia.w	r0, {r1, r2}
 80107b8:	4770      	bx	lr
 80107ba:	bf00      	nop

080107bc <_ZNK12_GLOBAL__N_118font_MWOSD_84_type8get_dataEv>:
 80107bc:	f245 40a8 	movw	r0, #21672	; 0x54a8
 80107c0:	f6c0 0001 	movt	r0, #2049	; 0x801
 80107c4:	4770      	bx	lr
 80107c6:	bf00      	nop

080107c8 <_ZNK12_GLOBAL__N_118font_MWOSD_84_type8get_sizeEv>:
 80107c8:	220c      	movs	r2, #12
 80107ca:	f04f 0c12 	mov.w	ip, #18
 80107ce:	e880 1004 	stmia.w	r0, {r2, ip}
 80107d2:	4770      	bx	lr

080107d4 <_ZNK12_GLOBAL__N_118font_MWOSD_85_type8get_dataEv>:
 80107d4:	f646 6000 	movw	r0, #28160	; 0x6e00
 80107d8:	f6c0 0001 	movt	r0, #2049	; 0x801
 80107dc:	4770      	bx	lr
 80107de:	bf00      	nop

080107e0 <_ZNK12_GLOBAL__N_118font_MWOSD_85_type8get_sizeEv>:
 80107e0:	210c      	movs	r1, #12
 80107e2:	2212      	movs	r2, #18
 80107e4:	e880 0006 	stmia.w	r0, {r1, r2}
 80107e8:	4770      	bx	lr
 80107ea:	bf00      	nop

080107ec <_ZNK12_GLOBAL__N_118font_MWOSD_86_type8get_dataEv>:
 80107ec:	f245 50a8 	movw	r0, #21928	; 0x55a8
 80107f0:	f6c0 0001 	movt	r0, #2049	; 0x801
 80107f4:	4770      	bx	lr
 80107f6:	bf00      	nop

080107f8 <_ZNK12_GLOBAL__N_118font_MWOSD_86_type8get_sizeEv>:
 80107f8:	220c      	movs	r2, #12
 80107fa:	f04f 0c12 	mov.w	ip, #18
 80107fe:	e880 1004 	stmia.w	r0, {r2, ip}
 8010802:	4770      	bx	lr

08010804 <_ZNK12_GLOBAL__N_118font_MWOSD_87_type8get_dataEv>:
 8010804:	f645 3008 	movw	r0, #23304	; 0x5b08
 8010808:	f6c0 0001 	movt	r0, #2049	; 0x801
 801080c:	4770      	bx	lr
 801080e:	bf00      	nop

08010810 <_ZNK12_GLOBAL__N_118font_MWOSD_87_type8get_sizeEv>:
 8010810:	210c      	movs	r1, #12
 8010812:	2212      	movs	r2, #18
 8010814:	e880 0006 	stmia.w	r0, {r1, r2}
 8010818:	4770      	bx	lr
 801081a:	bf00      	nop

0801081c <_ZNK12_GLOBAL__N_118font_MWOSD_88_type8get_dataEv>:
 801081c:	f247 1068 	movw	r0, #29032	; 0x7168
 8010820:	f6c0 0001 	movt	r0, #2049	; 0x801
 8010824:	4770      	bx	lr
 8010826:	bf00      	nop

08010828 <_ZNK12_GLOBAL__N_118font_MWOSD_88_type8get_sizeEv>:
 8010828:	220c      	movs	r2, #12
 801082a:	f04f 0c12 	mov.w	ip, #18
 801082e:	e880 1004 	stmia.w	r0, {r2, ip}
 8010832:	4770      	bx	lr

08010834 <_ZNK12_GLOBAL__N_118font_MWOSD_89_type8get_dataEv>:
 8010834:	f245 6028 	movw	r0, #22056	; 0x5628
 8010838:	f6c0 0001 	movt	r0, #2049	; 0x801
 801083c:	4770      	bx	lr
 801083e:	bf00      	nop

08010840 <_ZNK12_GLOBAL__N_118font_MWOSD_89_type8get_sizeEv>:
 8010840:	210c      	movs	r1, #12
 8010842:	2212      	movs	r2, #18
 8010844:	e880 0006 	stmia.w	r0, {r1, r2}
 8010848:	4770      	bx	lr
 801084a:	bf00      	nop

0801084c <_ZNK12_GLOBAL__N_118font_MWOSD_90_type8get_dataEv>:
 801084c:	f245 60e0 	movw	r0, #22240	; 0x56e0
 8010850:	f6c0 0001 	movt	r0, #2049	; 0x801
 8010854:	4770      	bx	lr
 8010856:	bf00      	nop

08010858 <_ZNK12_GLOBAL__N_118font_MWOSD_90_type8get_sizeEv>:
 8010858:	220c      	movs	r2, #12
 801085a:	f04f 0c12 	mov.w	ip, #18
 801085e:	e880 1004 	stmia.w	r0, {r2, ip}
 8010862:	4770      	bx	lr

08010864 <_ZNK12_GLOBAL__N_118font_MWOSD_91_type8get_dataEv>:
 8010864:	f246 30f8 	movw	r0, #25592	; 0x63f8
 8010868:	f6c0 0001 	movt	r0, #2049	; 0x801
 801086c:	4770      	bx	lr
 801086e:	bf00      	nop

08010870 <_ZNK12_GLOBAL__N_118font_MWOSD_91_type8get_sizeEv>:
 8010870:	210c      	movs	r1, #12
 8010872:	2212      	movs	r2, #18
 8010874:	e880 0006 	stmia.w	r0, {r1, r2}
 8010878:	4770      	bx	lr
 801087a:	bf00      	nop

0801087c <_ZNK12_GLOBAL__N_118font_MWOSD_92_type8get_dataEv>:
 801087c:	f646 5078 	movw	r0, #28024	; 0x6d78
 8010880:	f6c0 0001 	movt	r0, #2049	; 0x801
 8010884:	4770      	bx	lr
 8010886:	bf00      	nop

08010888 <_ZNK12_GLOBAL__N_118font_MWOSD_92_type8get_sizeEv>:
 8010888:	220c      	movs	r2, #12
 801088a:	f04f 0c12 	mov.w	ip, #18
 801088e:	e880 1004 	stmia.w	r0, {r2, ip}
 8010892:	4770      	bx	lr

08010894 <_ZNK12_GLOBAL__N_118font_MWOSD_93_type8get_dataEv>:
 8010894:	f646 20f8 	movw	r0, #27384	; 0x6af8
 8010898:	f6c0 0001 	movt	r0, #2049	; 0x801
 801089c:	4770      	bx	lr
 801089e:	bf00      	nop

080108a0 <_ZNK12_GLOBAL__N_118font_MWOSD_93_type8get_sizeEv>:
 80108a0:	210c      	movs	r1, #12
 80108a2:	2212      	movs	r2, #18
 80108a4:	e880 0006 	stmia.w	r0, {r1, r2}
 80108a8:	4770      	bx	lr
 80108aa:	bf00      	nop

080108ac <_ZNK12_GLOBAL__N_118font_MWOSD_94_type8get_dataEv>:
 80108ac:	f247 5030 	movw	r0, #30000	; 0x7530
 80108b0:	f6c0 0001 	movt	r0, #2049	; 0x801
 80108b4:	4770      	bx	lr
 80108b6:	bf00      	nop

080108b8 <_ZNK12_GLOBAL__N_118font_MWOSD_94_type8get_sizeEv>:
 80108b8:	220c      	movs	r2, #12
 80108ba:	f04f 0c12 	mov.w	ip, #18
 80108be:	e880 1004 	stmia.w	r0, {r2, ip}
 80108c2:	4770      	bx	lr

080108c4 <_ZNK12_GLOBAL__N_118font_MWOSD_95_type8get_dataEv>:
 80108c4:	f248 70b8 	movw	r0, #34744	; 0x87b8
 80108c8:	f6c0 0001 	movt	r0, #2049	; 0x801
 80108cc:	4770      	bx	lr
 80108ce:	bf00      	nop

080108d0 <_ZNK12_GLOBAL__N_118font_MWOSD_95_type8get_sizeEv>:
 80108d0:	210c      	movs	r1, #12
 80108d2:	2212      	movs	r2, #18
 80108d4:	e880 0006 	stmia.w	r0, {r1, r2}
 80108d8:	4770      	bx	lr
 80108da:	bf00      	nop

080108dc <_ZNK12_GLOBAL__N_118font_MWOSD_96_type8get_dataEv>:
 80108dc:	f245 2078 	movw	r0, #21112	; 0x5278
 80108e0:	f6c0 0001 	movt	r0, #2049	; 0x801
 80108e4:	4770      	bx	lr
 80108e6:	bf00      	nop

080108e8 <_ZNK12_GLOBAL__N_118font_MWOSD_96_type8get_sizeEv>:
 80108e8:	220c      	movs	r2, #12
 80108ea:	f04f 0c12 	mov.w	ip, #18
 80108ee:	e880 1004 	stmia.w	r0, {r2, ip}
 80108f2:	4770      	bx	lr

080108f4 <_ZNK12_GLOBAL__N_118font_MWOSD_97_type8get_dataEv>:
 80108f4:	f246 70d0 	movw	r0, #26576	; 0x67d0
 80108f8:	f6c0 0001 	movt	r0, #2049	; 0x801
 80108fc:	4770      	bx	lr
 80108fe:	bf00      	nop

08010900 <_ZNK12_GLOBAL__N_118font_MWOSD_97_type8get_sizeEv>:
 8010900:	210c      	movs	r1, #12
 8010902:	2212      	movs	r2, #18
 8010904:	e880 0006 	stmia.w	r0, {r1, r2}
 8010908:	4770      	bx	lr
 801090a:	bf00      	nop

0801090c <_ZNK12_GLOBAL__N_118font_MWOSD_98_type8get_dataEv>:
 801090c:	f245 3018 	movw	r0, #21272	; 0x5318
 8010910:	f6c0 0001 	movt	r0, #2049	; 0x801
 8010914:	4770      	bx	lr
 8010916:	bf00      	nop

08010918 <_ZNK12_GLOBAL__N_118font_MWOSD_98_type8get_sizeEv>:
 8010918:	220c      	movs	r2, #12
 801091a:	f04f 0c12 	mov.w	ip, #18
 801091e:	e880 1004 	stmia.w	r0, {r2, ip}
 8010922:	4770      	bx	lr

08010924 <_ZNK12_GLOBAL__N_118font_MWOSD_99_type8get_dataEv>:
 8010924:	f246 3040 	movw	r0, #25408	; 0x6340
 8010928:	f6c0 0001 	movt	r0, #2049	; 0x801
 801092c:	4770      	bx	lr
 801092e:	bf00      	nop

08010930 <_ZNK12_GLOBAL__N_118font_MWOSD_99_type8get_sizeEv>:
 8010930:	210c      	movs	r1, #12
 8010932:	2212      	movs	r2, #18
 8010934:	e880 0006 	stmia.w	r0, {r1, r2}
 8010938:	4770      	bx	lr
 801093a:	bf00      	nop

0801093c <_ZNK12_GLOBAL__N_119font_MWOSD_100_type8get_dataEv>:
 801093c:	f248 5088 	movw	r0, #34184	; 0x8588
 8010940:	f6c0 0001 	movt	r0, #2049	; 0x801
 8010944:	4770      	bx	lr
 8010946:	bf00      	nop

08010948 <_ZNK12_GLOBAL__N_119font_MWOSD_100_type8get_sizeEv>:
 8010948:	220c      	movs	r2, #12
 801094a:	f04f 0c12 	mov.w	ip, #18
 801094e:	e880 1004 	stmia.w	r0, {r2, ip}
 8010952:	4770      	bx	lr

08010954 <_ZNK12_GLOBAL__N_119font_MWOSD_101_type8get_dataEv>:
 8010954:	f248 3010 	movw	r0, #33552	; 0x8310
 8010958:	f6c0 0001 	movt	r0, #2049	; 0x801
 801095c:	4770      	bx	lr
 801095e:	bf00      	nop

08010960 <_ZNK12_GLOBAL__N_119font_MWOSD_101_type8get_sizeEv>:
 8010960:	210c      	movs	r1, #12
 8010962:	2212      	movs	r2, #18
 8010964:	e880 0006 	stmia.w	r0, {r1, r2}
 8010968:	4770      	bx	lr
 801096a:	bf00      	nop

0801096c <_ZNK12_GLOBAL__N_119font_MWOSD_102_type8get_dataEv>:
 801096c:	f248 70f0 	movw	r0, #34800	; 0x87f0
 8010970:	f6c0 0001 	movt	r0, #2049	; 0x801
 8010974:	4770      	bx	lr
 8010976:	bf00      	nop

08010978 <_ZNK12_GLOBAL__N_119font_MWOSD_102_type8get_sizeEv>:
 8010978:	220c      	movs	r2, #12
 801097a:	f04f 0c12 	mov.w	ip, #18
 801097e:	e880 1004 	stmia.w	r0, {r2, ip}
 8010982:	4770      	bx	lr

08010984 <_ZNK12_GLOBAL__N_119font_MWOSD_103_type8get_dataEv>:
 8010984:	f248 5038 	movw	r0, #34104	; 0x8538
 8010988:	f6c0 0001 	movt	r0, #2049	; 0x801
 801098c:	4770      	bx	lr
 801098e:	bf00      	nop

08010990 <_ZNK12_GLOBAL__N_119font_MWOSD_103_type8get_sizeEv>:
 8010990:	210c      	movs	r1, #12
 8010992:	2212      	movs	r2, #18
 8010994:	e880 0006 	stmia.w	r0, {r1, r2}
 8010998:	4770      	bx	lr
 801099a:	bf00      	nop

0801099c <_ZNK12_GLOBAL__N_119font_MWOSD_104_type8get_dataEv>:
 801099c:	f248 2070 	movw	r0, #33392	; 0x8270
 80109a0:	f6c0 0001 	movt	r0, #2049	; 0x801
 80109a4:	4770      	bx	lr
 80109a6:	bf00      	nop

080109a8 <_ZNK12_GLOBAL__N_119font_MWOSD_104_type8get_sizeEv>:
 80109a8:	220c      	movs	r2, #12
 80109aa:	f04f 0c12 	mov.w	ip, #18
 80109ae:	e880 1004 	stmia.w	r0, {r2, ip}
 80109b2:	4770      	bx	lr

080109b4 <_ZNK12_GLOBAL__N_119font_MWOSD_105_type8get_dataEv>:
 80109b4:	f647 7078 	movw	r0, #32632	; 0x7f78
 80109b8:	f6c0 0001 	movt	r0, #2049	; 0x801
 80109bc:	4770      	bx	lr
 80109be:	bf00      	nop

080109c0 <_ZNK12_GLOBAL__N_119font_MWOSD_105_type8get_sizeEv>:
 80109c0:	210c      	movs	r1, #12
 80109c2:	2212      	movs	r2, #18
 80109c4:	e880 0006 	stmia.w	r0, {r1, r2}
 80109c8:	4770      	bx	lr
 80109ca:	bf00      	nop

080109cc <_ZNK12_GLOBAL__N_119font_MWOSD_106_type8get_dataEv>:
 80109cc:	f647 30b0 	movw	r0, #31664	; 0x7bb0
 80109d0:	f6c0 0001 	movt	r0, #2049	; 0x801
 80109d4:	4770      	bx	lr
 80109d6:	bf00      	nop

080109d8 <_ZNK12_GLOBAL__N_119font_MWOSD_106_type8get_sizeEv>:
 80109d8:	220c      	movs	r2, #12
 80109da:	f04f 0c12 	mov.w	ip, #18
 80109de:	e880 1004 	stmia.w	r0, {r2, ip}
 80109e2:	4770      	bx	lr

080109e4 <_ZNK12_GLOBAL__N_119font_MWOSD_107_type8get_dataEv>:
 80109e4:	f247 40a8 	movw	r0, #29864	; 0x74a8
 80109e8:	f6c0 0001 	movt	r0, #2049	; 0x801
 80109ec:	4770      	bx	lr
 80109ee:	bf00      	nop

080109f0 <_ZNK12_GLOBAL__N_119font_MWOSD_107_type8get_sizeEv>:
 80109f0:	210c      	movs	r1, #12
 80109f2:	2212      	movs	r2, #18
 80109f4:	e880 0006 	stmia.w	r0, {r1, r2}
 80109f8:	4770      	bx	lr
 80109fa:	bf00      	nop

080109fc <_ZNK12_GLOBAL__N_119font_MWOSD_108_type8get_dataEv>:
 80109fc:	f647 60d8 	movw	r0, #32472	; 0x7ed8
 8010a00:	f6c0 0001 	movt	r0, #2049	; 0x801
 8010a04:	4770      	bx	lr
 8010a06:	bf00      	nop

08010a08 <_ZNK12_GLOBAL__N_119font_MWOSD_108_type8get_sizeEv>:
 8010a08:	220c      	movs	r2, #12
 8010a0a:	f04f 0c12 	mov.w	ip, #18
 8010a0e:	e880 1004 	stmia.w	r0, {r2, ip}
 8010a12:	4770      	bx	lr

08010a14 <_ZNK12_GLOBAL__N_119font_MWOSD_109_type8get_dataEv>:
 8010a14:	f647 3008 	movw	r0, #31496	; 0x7b08
 8010a18:	f6c0 0001 	movt	r0, #2049	; 0x801
 8010a1c:	4770      	bx	lr
 8010a1e:	bf00      	nop

08010a20 <_ZNK12_GLOBAL__N_119font_MWOSD_109_type8get_sizeEv>:
 8010a20:	210c      	movs	r1, #12
 8010a22:	2212      	movs	r2, #18
 8010a24:	e880 0006 	stmia.w	r0, {r1, r2}
 8010a28:	4770      	bx	lr
 8010a2a:	bf00      	nop

08010a2c <_ZNK12_GLOBAL__N_119font_MWOSD_110_type8get_dataEv>:
 8010a2c:	f248 40c8 	movw	r0, #33992	; 0x84c8
 8010a30:	f6c0 0001 	movt	r0, #2049	; 0x801
 8010a34:	4770      	bx	lr
 8010a36:	bf00      	nop

08010a38 <_ZNK12_GLOBAL__N_119font_MWOSD_110_type8get_sizeEv>:
 8010a38:	220c      	movs	r2, #12
 8010a3a:	f04f 0c12 	mov.w	ip, #18
 8010a3e:	e880 1004 	stmia.w	r0, {r2, ip}
 8010a42:	4770      	bx	lr

08010a44 <_ZNK12_GLOBAL__N_119font_MWOSD_111_type8get_dataEv>:
 8010a44:	f248 10f0 	movw	r0, #33264	; 0x81f0
 8010a48:	f6c0 0001 	movt	r0, #2049	; 0x801
 8010a4c:	4770      	bx	lr
 8010a4e:	bf00      	nop

08010a50 <_ZNK12_GLOBAL__N_119font_MWOSD_111_type8get_sizeEv>:
 8010a50:	210c      	movs	r1, #12
 8010a52:	2212      	movs	r2, #18
 8010a54:	e880 0006 	stmia.w	r0, {r1, r2}
 8010a58:	4770      	bx	lr
 8010a5a:	bf00      	nop

08010a5c <_ZNK12_GLOBAL__N_119font_MWOSD_112_type8get_dataEv>:
 8010a5c:	f648 4020 	movw	r0, #35872	; 0x8c20
 8010a60:	f6c0 0001 	movt	r0, #2049	; 0x801
 8010a64:	4770      	bx	lr
 8010a66:	bf00      	nop

08010a68 <_ZNK12_GLOBAL__N_119font_MWOSD_112_type8get_sizeEv>:
 8010a68:	220c      	movs	r2, #12
 8010a6a:	f04f 0c12 	mov.w	ip, #18
 8010a6e:	e880 1004 	stmia.w	r0, {r2, ip}
 8010a72:	4770      	bx	lr

08010a74 <_ZNK12_GLOBAL__N_119font_MWOSD_113_type8get_dataEv>:
 8010a74:	f647 20d0 	movw	r0, #31440	; 0x7ad0
 8010a78:	f6c0 0001 	movt	r0, #2049	; 0x801
 8010a7c:	4770      	bx	lr
 8010a7e:	bf00      	nop

08010a80 <_ZNK12_GLOBAL__N_119font_MWOSD_113_type8get_sizeEv>:
 8010a80:	210c      	movs	r1, #12
 8010a82:	2212      	movs	r2, #18
 8010a84:	e880 0006 	stmia.w	r0, {r1, r2}
 8010a88:	4770      	bx	lr
 8010a8a:	bf00      	nop

08010a8c <_ZNK12_GLOBAL__N_119font_MWOSD_114_type8get_dataEv>:
 8010a8c:	f248 1088 	movw	r0, #33160	; 0x8188
 8010a90:	f6c0 0001 	movt	r0, #2049	; 0x801
 8010a94:	4770      	bx	lr
 8010a96:	bf00      	nop

08010a98 <_ZNK12_GLOBAL__N_119font_MWOSD_114_type8get_sizeEv>:
 8010a98:	220c      	movs	r2, #12
 8010a9a:	f04f 0c12 	mov.w	ip, #18
 8010a9e:	e880 1004 	stmia.w	r0, {r2, ip}
 8010aa2:	4770      	bx	lr

08010aa4 <_ZNK12_GLOBAL__N_119font_MWOSD_115_type8get_dataEv>:
 8010aa4:	f647 6050 	movw	r0, #32336	; 0x7e50
 8010aa8:	f6c0 0001 	movt	r0, #2049	; 0x801
 8010aac:	4770      	bx	lr
 8010aae:	bf00      	nop

08010ab0 <_ZNK12_GLOBAL__N_119font_MWOSD_115_type8get_sizeEv>:
 8010ab0:	210c      	movs	r1, #12
 8010ab2:	2212      	movs	r2, #18
 8010ab4:	e880 0006 	stmia.w	r0, {r1, r2}
 8010ab8:	4770      	bx	lr
 8010aba:	bf00      	nop

08010abc <_ZNK12_GLOBAL__N_119font_MWOSD_116_type8get_dataEv>:
 8010abc:	f647 2060 	movw	r0, #31328	; 0x7a60
 8010ac0:	f6c0 0001 	movt	r0, #2049	; 0x801
 8010ac4:	4770      	bx	lr
 8010ac6:	bf00      	nop

08010ac8 <_ZNK12_GLOBAL__N_119font_MWOSD_116_type8get_sizeEv>:
 8010ac8:	220c      	movs	r2, #12
 8010aca:	f04f 0c12 	mov.w	ip, #18
 8010ace:	e880 1004 	stmia.w	r0, {r2, ip}
 8010ad2:	4770      	bx	lr

08010ad4 <_ZNK12_GLOBAL__N_119font_MWOSD_117_type8get_dataEv>:
 8010ad4:	f247 60f8 	movw	r0, #30456	; 0x76f8
 8010ad8:	f6c0 0001 	movt	r0, #2049	; 0x801
 8010adc:	4770      	bx	lr
 8010ade:	bf00      	nop

08010ae0 <_ZNK12_GLOBAL__N_119font_MWOSD_117_type8get_sizeEv>:
 8010ae0:	210c      	movs	r1, #12
 8010ae2:	2212      	movs	r2, #18
 8010ae4:	e880 0006 	stmia.w	r0, {r1, r2}
 8010ae8:	4770      	bx	lr
 8010aea:	bf00      	nop

08010aec <_ZNK12_GLOBAL__N_119font_MWOSD_118_type8get_dataEv>:
 8010aec:	f247 3098 	movw	r0, #29592	; 0x7398
 8010af0:	f6c0 0001 	movt	r0, #2049	; 0x801
 8010af4:	4770      	bx	lr
 8010af6:	bf00      	nop

08010af8 <_ZNK12_GLOBAL__N_119font_MWOSD_118_type8get_sizeEv>:
 8010af8:	220c      	movs	r2, #12
 8010afa:	f04f 0c12 	mov.w	ip, #18
 8010afe:	e880 1004 	stmia.w	r0, {r2, ip}
 8010b02:	4770      	bx	lr

08010b04 <_ZNK12_GLOBAL__N_119font_MWOSD_119_type8get_dataEv>:
 8010b04:	f647 1088 	movw	r0, #31112	; 0x7988
 8010b08:	f6c0 0001 	movt	r0, #2049	; 0x801
 8010b0c:	4770      	bx	lr
 8010b0e:	bf00      	nop

08010b10 <_ZNK12_GLOBAL__N_119font_MWOSD_119_type8get_sizeEv>:
 8010b10:	210c      	movs	r1, #12
 8010b12:	2212      	movs	r2, #18
 8010b14:	e880 0006 	stmia.w	r0, {r1, r2}
 8010b18:	4770      	bx	lr
 8010b1a:	bf00      	nop

08010b1c <_ZNK12_GLOBAL__N_119font_MWOSD_120_type8get_dataEv>:
 8010b1c:	f647 2028 	movw	r0, #31272	; 0x7a28
 8010b20:	f6c0 0001 	movt	r0, #2049	; 0x801
 8010b24:	4770      	bx	lr
 8010b26:	bf00      	nop

08010b28 <_ZNK12_GLOBAL__N_119font_MWOSD_120_type8get_sizeEv>:
 8010b28:	220c      	movs	r2, #12
 8010b2a:	f04f 0c12 	mov.w	ip, #18
 8010b2e:	e880 1004 	stmia.w	r0, {r2, ip}
 8010b32:	4770      	bx	lr

08010b34 <_ZNK12_GLOBAL__N_119font_MWOSD_121_type8get_dataEv>:
 8010b34:	f248 1018 	movw	r0, #33048	; 0x8118
 8010b38:	f6c0 0001 	movt	r0, #2049	; 0x801
 8010b3c:	4770      	bx	lr
 8010b3e:	bf00      	nop

08010b40 <_ZNK12_GLOBAL__N_119font_MWOSD_121_type8get_sizeEv>:
 8010b40:	210c      	movs	r1, #12
 8010b42:	2212      	movs	r2, #18
 8010b44:	e880 0006 	stmia.w	r0, {r1, r2}
 8010b48:	4770      	bx	lr
 8010b4a:	bf00      	nop

08010b4c <_ZNK12_GLOBAL__N_119font_MWOSD_122_type8get_dataEv>:
 8010b4c:	f246 5050 	movw	r0, #25936	; 0x6550
 8010b50:	f6c0 0001 	movt	r0, #2049	; 0x801
 8010b54:	4770      	bx	lr
 8010b56:	bf00      	nop

08010b58 <_ZNK12_GLOBAL__N_119font_MWOSD_122_type8get_sizeEv>:
 8010b58:	220c      	movs	r2, #12
 8010b5a:	f04f 0c12 	mov.w	ip, #18
 8010b5e:	e880 1004 	stmia.w	r0, {r2, ip}
 8010b62:	4770      	bx	lr

08010b64 <_ZNK12_GLOBAL__N_119font_MWOSD_123_type8get_dataEv>:
 8010b64:	f647 1050 	movw	r0, #31056	; 0x7950
 8010b68:	f6c0 0001 	movt	r0, #2049	; 0x801
 8010b6c:	4770      	bx	lr
 8010b6e:	bf00      	nop

08010b70 <_ZNK12_GLOBAL__N_119font_MWOSD_123_type8get_sizeEv>:
 8010b70:	210c      	movs	r1, #12
 8010b72:	2212      	movs	r2, #18
 8010b74:	e880 0006 	stmia.w	r0, {r1, r2}
 8010b78:	4770      	bx	lr
 8010b7a:	bf00      	nop

08010b7c <_ZNK12_GLOBAL__N_119font_MWOSD_124_type8get_dataEv>:
 8010b7c:	f648 0040 	movw	r0, #34880	; 0x8840
 8010b80:	f6c0 0001 	movt	r0, #2049	; 0x801
 8010b84:	4770      	bx	lr
 8010b86:	bf00      	nop

08010b88 <_ZNK12_GLOBAL__N_119font_MWOSD_124_type8get_sizeEv>:
 8010b88:	220c      	movs	r2, #12
 8010b8a:	f04f 0c12 	mov.w	ip, #18
 8010b8e:	e880 1004 	stmia.w	r0, {r2, ip}
 8010b92:	4770      	bx	lr

08010b94 <_ZNK12_GLOBAL__N_119font_MWOSD_125_type8get_dataEv>:
 8010b94:	f247 20f0 	movw	r0, #29424	; 0x72f0
 8010b98:	f6c0 0001 	movt	r0, #2049	; 0x801
 8010b9c:	4770      	bx	lr
 8010b9e:	bf00      	nop

08010ba0 <_ZNK12_GLOBAL__N_119font_MWOSD_125_type8get_sizeEv>:
 8010ba0:	210c      	movs	r1, #12
 8010ba2:	2212      	movs	r2, #18
 8010ba4:	e880 0006 	stmia.w	r0, {r1, r2}
 8010ba8:	4770      	bx	lr
 8010baa:	bf00      	nop

08010bac <_ZNK12_GLOBAL__N_119font_MWOSD_126_type8get_dataEv>:
 8010bac:	f647 00c8 	movw	r0, #30920	; 0x78c8
 8010bb0:	f6c0 0001 	movt	r0, #2049	; 0x801
 8010bb4:	4770      	bx	lr
 8010bb6:	bf00      	nop

08010bb8 <_ZNK12_GLOBAL__N_119font_MWOSD_126_type8get_sizeEv>:
 8010bb8:	220c      	movs	r2, #12
 8010bba:	f04f 0c12 	mov.w	ip, #18
 8010bbe:	e880 1004 	stmia.w	r0, {r2, ip}
 8010bc2:	4770      	bx	lr

08010bc4 <_ZNK12_GLOBAL__N_115font_MWOSD_type9get_beginEv>:
 8010bc4:	2020      	movs	r0, #32
 8010bc6:	4770      	bx	lr

08010bc8 <_ZNK12_GLOBAL__N_115font_MWOSD_type15get_char_heightEv>:
 8010bc8:	2012      	movs	r0, #18
 8010bca:	4770      	bx	lr

08010bcc <_ZNK12_GLOBAL__N_115font_MWOSD_type14get_char_widthEv>:
 8010bcc:	200c      	movs	r0, #12
 8010bce:	4770      	bx	lr

08010bd0 <_ZNK12_GLOBAL__N_115font_MWOSD_type16get_num_elementsEv>:
 8010bd0:	205f      	movs	r0, #95	; 0x5f
 8010bd2:	4770      	bx	lr

08010bd4 <_ZNK12_GLOBAL__N_115font_MWOSD_type11get_char_atEl>:
 8010bd4:	6803      	ldr	r3, [r0, #0]
 8010bd6:	b510      	push	{r4, lr}
 8010bd8:	681a      	ldr	r2, [r3, #0]
 8010bda:	460c      	mov	r4, r1
 8010bdc:	4790      	blx	r2
 8010bde:	1a20      	subs	r0, r4, r0
 8010be0:	285e      	cmp	r0, #94	; 0x5e
 8010be2:	d803      	bhi.n	8010bec <_ZNK12_GLOBAL__N_115font_MWOSD_type11get_char_atEl+0x18>
 8010be4:	4902      	ldr	r1, [pc, #8]	; (8010bf0 <_ZNK12_GLOBAL__N_115font_MWOSD_type11get_char_atEl+0x1c>)
 8010be6:	f851 0020 	ldr.w	r0, [r1, r0, lsl #2]
 8010bea:	bd10      	pop	{r4, pc}
 8010bec:	2000      	movs	r0, #0
 8010bee:	bd10      	pop	{r4, pc}
 8010bf0:	080157f8 	.word	0x080157f8

08010bf4 <_ZN12_GLOBAL__N_115font_MWOSD_typeD1Ev>:
 8010bf4:	4b01      	ldr	r3, [pc, #4]	; (8010bfc <_ZN12_GLOBAL__N_115font_MWOSD_typeD1Ev+0x8>)
 8010bf6:	6003      	str	r3, [r0, #0]
 8010bf8:	4770      	bx	lr
 8010bfa:	bf00      	nop
 8010bfc:	08014ee0 	.word	0x08014ee0

08010c00 <_ZN12_GLOBAL__N_119font_MWOSD_126_typeD1Ev>:
 8010c00:	4b01      	ldr	r3, [pc, #4]	; (8010c08 <_ZN12_GLOBAL__N_119font_MWOSD_126_typeD1Ev+0x8>)
 8010c02:	6003      	str	r3, [r0, #0]
 8010c04:	4770      	bx	lr
 8010c06:	bf00      	nop
 8010c08:	08014ec8 	.word	0x08014ec8

08010c0c <_ZN12_GLOBAL__N_119font_MWOSD_125_typeD1Ev>:
 8010c0c:	4b01      	ldr	r3, [pc, #4]	; (8010c14 <_ZN12_GLOBAL__N_119font_MWOSD_125_typeD1Ev+0x8>)
 8010c0e:	6003      	str	r3, [r0, #0]
 8010c10:	4770      	bx	lr
 8010c12:	bf00      	nop
 8010c14:	08014ec8 	.word	0x08014ec8

08010c18 <_ZN12_GLOBAL__N_119font_MWOSD_124_typeD1Ev>:
 8010c18:	4b01      	ldr	r3, [pc, #4]	; (8010c20 <_ZN12_GLOBAL__N_119font_MWOSD_124_typeD1Ev+0x8>)
 8010c1a:	6003      	str	r3, [r0, #0]
 8010c1c:	4770      	bx	lr
 8010c1e:	bf00      	nop
 8010c20:	08014ec8 	.word	0x08014ec8

08010c24 <_ZN12_GLOBAL__N_119font_MWOSD_123_typeD1Ev>:
 8010c24:	4b01      	ldr	r3, [pc, #4]	; (8010c2c <_ZN12_GLOBAL__N_119font_MWOSD_123_typeD1Ev+0x8>)
 8010c26:	6003      	str	r3, [r0, #0]
 8010c28:	4770      	bx	lr
 8010c2a:	bf00      	nop
 8010c2c:	08014ec8 	.word	0x08014ec8

08010c30 <_ZN12_GLOBAL__N_119font_MWOSD_122_typeD1Ev>:
 8010c30:	4b01      	ldr	r3, [pc, #4]	; (8010c38 <_ZN12_GLOBAL__N_119font_MWOSD_122_typeD1Ev+0x8>)
 8010c32:	6003      	str	r3, [r0, #0]
 8010c34:	4770      	bx	lr
 8010c36:	bf00      	nop
 8010c38:	08014ec8 	.word	0x08014ec8

08010c3c <_ZN12_GLOBAL__N_119font_MWOSD_121_typeD1Ev>:
 8010c3c:	4b01      	ldr	r3, [pc, #4]	; (8010c44 <_ZN12_GLOBAL__N_119font_MWOSD_121_typeD1Ev+0x8>)
 8010c3e:	6003      	str	r3, [r0, #0]
 8010c40:	4770      	bx	lr
 8010c42:	bf00      	nop
 8010c44:	08014ec8 	.word	0x08014ec8

08010c48 <_ZN12_GLOBAL__N_119font_MWOSD_120_typeD1Ev>:
 8010c48:	4b01      	ldr	r3, [pc, #4]	; (8010c50 <_ZN12_GLOBAL__N_119font_MWOSD_120_typeD1Ev+0x8>)
 8010c4a:	6003      	str	r3, [r0, #0]
 8010c4c:	4770      	bx	lr
 8010c4e:	bf00      	nop
 8010c50:	08014ec8 	.word	0x08014ec8

08010c54 <_ZN12_GLOBAL__N_119font_MWOSD_119_typeD1Ev>:
 8010c54:	4b01      	ldr	r3, [pc, #4]	; (8010c5c <_ZN12_GLOBAL__N_119font_MWOSD_119_typeD1Ev+0x8>)
 8010c56:	6003      	str	r3, [r0, #0]
 8010c58:	4770      	bx	lr
 8010c5a:	bf00      	nop
 8010c5c:	08014ec8 	.word	0x08014ec8

08010c60 <_ZN12_GLOBAL__N_119font_MWOSD_118_typeD1Ev>:
 8010c60:	4b01      	ldr	r3, [pc, #4]	; (8010c68 <_ZN12_GLOBAL__N_119font_MWOSD_118_typeD1Ev+0x8>)
 8010c62:	6003      	str	r3, [r0, #0]
 8010c64:	4770      	bx	lr
 8010c66:	bf00      	nop
 8010c68:	08014ec8 	.word	0x08014ec8

08010c6c <_ZN12_GLOBAL__N_119font_MWOSD_117_typeD1Ev>:
 8010c6c:	4b01      	ldr	r3, [pc, #4]	; (8010c74 <_ZN12_GLOBAL__N_119font_MWOSD_117_typeD1Ev+0x8>)
 8010c6e:	6003      	str	r3, [r0, #0]
 8010c70:	4770      	bx	lr
 8010c72:	bf00      	nop
 8010c74:	08014ec8 	.word	0x08014ec8

08010c78 <_ZN12_GLOBAL__N_119font_MWOSD_116_typeD1Ev>:
 8010c78:	4b01      	ldr	r3, [pc, #4]	; (8010c80 <_ZN12_GLOBAL__N_119font_MWOSD_116_typeD1Ev+0x8>)
 8010c7a:	6003      	str	r3, [r0, #0]
 8010c7c:	4770      	bx	lr
 8010c7e:	bf00      	nop
 8010c80:	08014ec8 	.word	0x08014ec8

08010c84 <_ZN12_GLOBAL__N_119font_MWOSD_115_typeD1Ev>:
 8010c84:	4b01      	ldr	r3, [pc, #4]	; (8010c8c <_ZN12_GLOBAL__N_119font_MWOSD_115_typeD1Ev+0x8>)
 8010c86:	6003      	str	r3, [r0, #0]
 8010c88:	4770      	bx	lr
 8010c8a:	bf00      	nop
 8010c8c:	08014ec8 	.word	0x08014ec8

08010c90 <_ZN12_GLOBAL__N_119font_MWOSD_114_typeD1Ev>:
 8010c90:	4b01      	ldr	r3, [pc, #4]	; (8010c98 <_ZN12_GLOBAL__N_119font_MWOSD_114_typeD1Ev+0x8>)
 8010c92:	6003      	str	r3, [r0, #0]
 8010c94:	4770      	bx	lr
 8010c96:	bf00      	nop
 8010c98:	08014ec8 	.word	0x08014ec8

08010c9c <_ZN12_GLOBAL__N_119font_MWOSD_113_typeD1Ev>:
 8010c9c:	4b01      	ldr	r3, [pc, #4]	; (8010ca4 <_ZN12_GLOBAL__N_119font_MWOSD_113_typeD1Ev+0x8>)
 8010c9e:	6003      	str	r3, [r0, #0]
 8010ca0:	4770      	bx	lr
 8010ca2:	bf00      	nop
 8010ca4:	08014ec8 	.word	0x08014ec8

08010ca8 <_ZN12_GLOBAL__N_119font_MWOSD_112_typeD1Ev>:
 8010ca8:	4b01      	ldr	r3, [pc, #4]	; (8010cb0 <_ZN12_GLOBAL__N_119font_MWOSD_112_typeD1Ev+0x8>)
 8010caa:	6003      	str	r3, [r0, #0]
 8010cac:	4770      	bx	lr
 8010cae:	bf00      	nop
 8010cb0:	08014ec8 	.word	0x08014ec8

08010cb4 <_ZN12_GLOBAL__N_119font_MWOSD_111_typeD1Ev>:
 8010cb4:	4b01      	ldr	r3, [pc, #4]	; (8010cbc <_ZN12_GLOBAL__N_119font_MWOSD_111_typeD1Ev+0x8>)
 8010cb6:	6003      	str	r3, [r0, #0]
 8010cb8:	4770      	bx	lr
 8010cba:	bf00      	nop
 8010cbc:	08014ec8 	.word	0x08014ec8

08010cc0 <_ZN12_GLOBAL__N_119font_MWOSD_110_typeD1Ev>:
 8010cc0:	4b01      	ldr	r3, [pc, #4]	; (8010cc8 <_ZN12_GLOBAL__N_119font_MWOSD_110_typeD1Ev+0x8>)
 8010cc2:	6003      	str	r3, [r0, #0]
 8010cc4:	4770      	bx	lr
 8010cc6:	bf00      	nop
 8010cc8:	08014ec8 	.word	0x08014ec8

08010ccc <_ZN12_GLOBAL__N_119font_MWOSD_109_typeD1Ev>:
 8010ccc:	4b01      	ldr	r3, [pc, #4]	; (8010cd4 <_ZN12_GLOBAL__N_119font_MWOSD_109_typeD1Ev+0x8>)
 8010cce:	6003      	str	r3, [r0, #0]
 8010cd0:	4770      	bx	lr
 8010cd2:	bf00      	nop
 8010cd4:	08014ec8 	.word	0x08014ec8

08010cd8 <_ZN12_GLOBAL__N_119font_MWOSD_108_typeD1Ev>:
 8010cd8:	4b01      	ldr	r3, [pc, #4]	; (8010ce0 <_ZN12_GLOBAL__N_119font_MWOSD_108_typeD1Ev+0x8>)
 8010cda:	6003      	str	r3, [r0, #0]
 8010cdc:	4770      	bx	lr
 8010cde:	bf00      	nop
 8010ce0:	08014ec8 	.word	0x08014ec8

08010ce4 <_ZN12_GLOBAL__N_119font_MWOSD_107_typeD1Ev>:
 8010ce4:	4b01      	ldr	r3, [pc, #4]	; (8010cec <_ZN12_GLOBAL__N_119font_MWOSD_107_typeD1Ev+0x8>)
 8010ce6:	6003      	str	r3, [r0, #0]
 8010ce8:	4770      	bx	lr
 8010cea:	bf00      	nop
 8010cec:	08014ec8 	.word	0x08014ec8

08010cf0 <_ZN12_GLOBAL__N_119font_MWOSD_106_typeD1Ev>:
 8010cf0:	4b01      	ldr	r3, [pc, #4]	; (8010cf8 <_ZN12_GLOBAL__N_119font_MWOSD_106_typeD1Ev+0x8>)
 8010cf2:	6003      	str	r3, [r0, #0]
 8010cf4:	4770      	bx	lr
 8010cf6:	bf00      	nop
 8010cf8:	08014ec8 	.word	0x08014ec8

08010cfc <_ZN12_GLOBAL__N_119font_MWOSD_105_typeD1Ev>:
 8010cfc:	4b01      	ldr	r3, [pc, #4]	; (8010d04 <_ZN12_GLOBAL__N_119font_MWOSD_105_typeD1Ev+0x8>)
 8010cfe:	6003      	str	r3, [r0, #0]
 8010d00:	4770      	bx	lr
 8010d02:	bf00      	nop
 8010d04:	08014ec8 	.word	0x08014ec8

08010d08 <_ZN12_GLOBAL__N_119font_MWOSD_104_typeD1Ev>:
 8010d08:	4b01      	ldr	r3, [pc, #4]	; (8010d10 <_ZN12_GLOBAL__N_119font_MWOSD_104_typeD1Ev+0x8>)
 8010d0a:	6003      	str	r3, [r0, #0]
 8010d0c:	4770      	bx	lr
 8010d0e:	bf00      	nop
 8010d10:	08014ec8 	.word	0x08014ec8

08010d14 <_ZN12_GLOBAL__N_119font_MWOSD_103_typeD1Ev>:
 8010d14:	4b01      	ldr	r3, [pc, #4]	; (8010d1c <_ZN12_GLOBAL__N_119font_MWOSD_103_typeD1Ev+0x8>)
 8010d16:	6003      	str	r3, [r0, #0]
 8010d18:	4770      	bx	lr
 8010d1a:	bf00      	nop
 8010d1c:	08014ec8 	.word	0x08014ec8

08010d20 <_ZN12_GLOBAL__N_119font_MWOSD_102_typeD1Ev>:
 8010d20:	4b01      	ldr	r3, [pc, #4]	; (8010d28 <_ZN12_GLOBAL__N_119font_MWOSD_102_typeD1Ev+0x8>)
 8010d22:	6003      	str	r3, [r0, #0]
 8010d24:	4770      	bx	lr
 8010d26:	bf00      	nop
 8010d28:	08014ec8 	.word	0x08014ec8

08010d2c <_ZN12_GLOBAL__N_119font_MWOSD_101_typeD1Ev>:
 8010d2c:	4b01      	ldr	r3, [pc, #4]	; (8010d34 <_ZN12_GLOBAL__N_119font_MWOSD_101_typeD1Ev+0x8>)
 8010d2e:	6003      	str	r3, [r0, #0]
 8010d30:	4770      	bx	lr
 8010d32:	bf00      	nop
 8010d34:	08014ec8 	.word	0x08014ec8

08010d38 <_ZN12_GLOBAL__N_119font_MWOSD_100_typeD1Ev>:
 8010d38:	4b01      	ldr	r3, [pc, #4]	; (8010d40 <_ZN12_GLOBAL__N_119font_MWOSD_100_typeD1Ev+0x8>)
 8010d3a:	6003      	str	r3, [r0, #0]
 8010d3c:	4770      	bx	lr
 8010d3e:	bf00      	nop
 8010d40:	08014ec8 	.word	0x08014ec8

08010d44 <_ZN12_GLOBAL__N_118font_MWOSD_99_typeD1Ev>:
 8010d44:	4b01      	ldr	r3, [pc, #4]	; (8010d4c <_ZN12_GLOBAL__N_118font_MWOSD_99_typeD1Ev+0x8>)
 8010d46:	6003      	str	r3, [r0, #0]
 8010d48:	4770      	bx	lr
 8010d4a:	bf00      	nop
 8010d4c:	08014ec8 	.word	0x08014ec8

08010d50 <_ZN12_GLOBAL__N_118font_MWOSD_98_typeD1Ev>:
 8010d50:	4b01      	ldr	r3, [pc, #4]	; (8010d58 <_ZN12_GLOBAL__N_118font_MWOSD_98_typeD1Ev+0x8>)
 8010d52:	6003      	str	r3, [r0, #0]
 8010d54:	4770      	bx	lr
 8010d56:	bf00      	nop
 8010d58:	08014ec8 	.word	0x08014ec8

08010d5c <_ZN12_GLOBAL__N_118font_MWOSD_97_typeD1Ev>:
 8010d5c:	4b01      	ldr	r3, [pc, #4]	; (8010d64 <_ZN12_GLOBAL__N_118font_MWOSD_97_typeD1Ev+0x8>)
 8010d5e:	6003      	str	r3, [r0, #0]
 8010d60:	4770      	bx	lr
 8010d62:	bf00      	nop
 8010d64:	08014ec8 	.word	0x08014ec8

08010d68 <_ZN12_GLOBAL__N_118font_MWOSD_96_typeD1Ev>:
 8010d68:	4b01      	ldr	r3, [pc, #4]	; (8010d70 <_ZN12_GLOBAL__N_118font_MWOSD_96_typeD1Ev+0x8>)
 8010d6a:	6003      	str	r3, [r0, #0]
 8010d6c:	4770      	bx	lr
 8010d6e:	bf00      	nop
 8010d70:	08014ec8 	.word	0x08014ec8

08010d74 <_ZN12_GLOBAL__N_118font_MWOSD_95_typeD1Ev>:
 8010d74:	4b01      	ldr	r3, [pc, #4]	; (8010d7c <_ZN12_GLOBAL__N_118font_MWOSD_95_typeD1Ev+0x8>)
 8010d76:	6003      	str	r3, [r0, #0]
 8010d78:	4770      	bx	lr
 8010d7a:	bf00      	nop
 8010d7c:	08014ec8 	.word	0x08014ec8

08010d80 <_ZN12_GLOBAL__N_118font_MWOSD_94_typeD1Ev>:
 8010d80:	4b01      	ldr	r3, [pc, #4]	; (8010d88 <_ZN12_GLOBAL__N_118font_MWOSD_94_typeD1Ev+0x8>)
 8010d82:	6003      	str	r3, [r0, #0]
 8010d84:	4770      	bx	lr
 8010d86:	bf00      	nop
 8010d88:	08014ec8 	.word	0x08014ec8

08010d8c <_ZN12_GLOBAL__N_118font_MWOSD_93_typeD1Ev>:
 8010d8c:	4b01      	ldr	r3, [pc, #4]	; (8010d94 <_ZN12_GLOBAL__N_118font_MWOSD_93_typeD1Ev+0x8>)
 8010d8e:	6003      	str	r3, [r0, #0]
 8010d90:	4770      	bx	lr
 8010d92:	bf00      	nop
 8010d94:	08014ec8 	.word	0x08014ec8

08010d98 <_ZN12_GLOBAL__N_118font_MWOSD_92_typeD1Ev>:
 8010d98:	4b01      	ldr	r3, [pc, #4]	; (8010da0 <_ZN12_GLOBAL__N_118font_MWOSD_92_typeD1Ev+0x8>)
 8010d9a:	6003      	str	r3, [r0, #0]
 8010d9c:	4770      	bx	lr
 8010d9e:	bf00      	nop
 8010da0:	08014ec8 	.word	0x08014ec8

08010da4 <_ZN12_GLOBAL__N_118font_MWOSD_91_typeD1Ev>:
 8010da4:	4b01      	ldr	r3, [pc, #4]	; (8010dac <_ZN12_GLOBAL__N_118font_MWOSD_91_typeD1Ev+0x8>)
 8010da6:	6003      	str	r3, [r0, #0]
 8010da8:	4770      	bx	lr
 8010daa:	bf00      	nop
 8010dac:	08014ec8 	.word	0x08014ec8

08010db0 <_ZN12_GLOBAL__N_118font_MWOSD_90_typeD1Ev>:
 8010db0:	4b01      	ldr	r3, [pc, #4]	; (8010db8 <_ZN12_GLOBAL__N_118font_MWOSD_90_typeD1Ev+0x8>)
 8010db2:	6003      	str	r3, [r0, #0]
 8010db4:	4770      	bx	lr
 8010db6:	bf00      	nop
 8010db8:	08014ec8 	.word	0x08014ec8

08010dbc <_ZN12_GLOBAL__N_118font_MWOSD_89_typeD1Ev>:
 8010dbc:	4b01      	ldr	r3, [pc, #4]	; (8010dc4 <_ZN12_GLOBAL__N_118font_MWOSD_89_typeD1Ev+0x8>)
 8010dbe:	6003      	str	r3, [r0, #0]
 8010dc0:	4770      	bx	lr
 8010dc2:	bf00      	nop
 8010dc4:	08014ec8 	.word	0x08014ec8

08010dc8 <_ZN12_GLOBAL__N_118font_MWOSD_88_typeD1Ev>:
 8010dc8:	4b01      	ldr	r3, [pc, #4]	; (8010dd0 <_ZN12_GLOBAL__N_118font_MWOSD_88_typeD1Ev+0x8>)
 8010dca:	6003      	str	r3, [r0, #0]
 8010dcc:	4770      	bx	lr
 8010dce:	bf00      	nop
 8010dd0:	08014ec8 	.word	0x08014ec8

08010dd4 <_ZN12_GLOBAL__N_118font_MWOSD_87_typeD1Ev>:
 8010dd4:	4b01      	ldr	r3, [pc, #4]	; (8010ddc <_ZN12_GLOBAL__N_118font_MWOSD_87_typeD1Ev+0x8>)
 8010dd6:	6003      	str	r3, [r0, #0]
 8010dd8:	4770      	bx	lr
 8010dda:	bf00      	nop
 8010ddc:	08014ec8 	.word	0x08014ec8

08010de0 <_ZN12_GLOBAL__N_118font_MWOSD_86_typeD1Ev>:
 8010de0:	4b01      	ldr	r3, [pc, #4]	; (8010de8 <_ZN12_GLOBAL__N_118font_MWOSD_86_typeD1Ev+0x8>)
 8010de2:	6003      	str	r3, [r0, #0]
 8010de4:	4770      	bx	lr
 8010de6:	bf00      	nop
 8010de8:	08014ec8 	.word	0x08014ec8

08010dec <_ZN12_GLOBAL__N_118font_MWOSD_85_typeD1Ev>:
 8010dec:	4b01      	ldr	r3, [pc, #4]	; (8010df4 <_ZN12_GLOBAL__N_118font_MWOSD_85_typeD1Ev+0x8>)
 8010dee:	6003      	str	r3, [r0, #0]
 8010df0:	4770      	bx	lr
 8010df2:	bf00      	nop
 8010df4:	08014ec8 	.word	0x08014ec8

08010df8 <_ZN12_GLOBAL__N_118font_MWOSD_84_typeD1Ev>:
 8010df8:	4b01      	ldr	r3, [pc, #4]	; (8010e00 <_ZN12_GLOBAL__N_118font_MWOSD_84_typeD1Ev+0x8>)
 8010dfa:	6003      	str	r3, [r0, #0]
 8010dfc:	4770      	bx	lr
 8010dfe:	bf00      	nop
 8010e00:	08014ec8 	.word	0x08014ec8

08010e04 <_ZN12_GLOBAL__N_118font_MWOSD_83_typeD1Ev>:
 8010e04:	4b01      	ldr	r3, [pc, #4]	; (8010e0c <_ZN12_GLOBAL__N_118font_MWOSD_83_typeD1Ev+0x8>)
 8010e06:	6003      	str	r3, [r0, #0]
 8010e08:	4770      	bx	lr
 8010e0a:	bf00      	nop
 8010e0c:	08014ec8 	.word	0x08014ec8

08010e10 <_ZN12_GLOBAL__N_118font_MWOSD_82_typeD1Ev>:
 8010e10:	4b01      	ldr	r3, [pc, #4]	; (8010e18 <_ZN12_GLOBAL__N_118font_MWOSD_82_typeD1Ev+0x8>)
 8010e12:	6003      	str	r3, [r0, #0]
 8010e14:	4770      	bx	lr
 8010e16:	bf00      	nop
 8010e18:	08014ec8 	.word	0x08014ec8

08010e1c <_ZN12_GLOBAL__N_118font_MWOSD_81_typeD1Ev>:
 8010e1c:	4b01      	ldr	r3, [pc, #4]	; (8010e24 <_ZN12_GLOBAL__N_118font_MWOSD_81_typeD1Ev+0x8>)
 8010e1e:	6003      	str	r3, [r0, #0]
 8010e20:	4770      	bx	lr
 8010e22:	bf00      	nop
 8010e24:	08014ec8 	.word	0x08014ec8

08010e28 <_ZN12_GLOBAL__N_118font_MWOSD_80_typeD1Ev>:
 8010e28:	4b01      	ldr	r3, [pc, #4]	; (8010e30 <_ZN12_GLOBAL__N_118font_MWOSD_80_typeD1Ev+0x8>)
 8010e2a:	6003      	str	r3, [r0, #0]
 8010e2c:	4770      	bx	lr
 8010e2e:	bf00      	nop
 8010e30:	08014ec8 	.word	0x08014ec8

08010e34 <_ZN12_GLOBAL__N_118font_MWOSD_79_typeD1Ev>:
 8010e34:	4b01      	ldr	r3, [pc, #4]	; (8010e3c <_ZN12_GLOBAL__N_118font_MWOSD_79_typeD1Ev+0x8>)
 8010e36:	6003      	str	r3, [r0, #0]
 8010e38:	4770      	bx	lr
 8010e3a:	bf00      	nop
 8010e3c:	08014ec8 	.word	0x08014ec8

08010e40 <_ZN12_GLOBAL__N_118font_MWOSD_78_typeD1Ev>:
 8010e40:	4b01      	ldr	r3, [pc, #4]	; (8010e48 <_ZN12_GLOBAL__N_118font_MWOSD_78_typeD1Ev+0x8>)
 8010e42:	6003      	str	r3, [r0, #0]
 8010e44:	4770      	bx	lr
 8010e46:	bf00      	nop
 8010e48:	08014ec8 	.word	0x08014ec8

08010e4c <_ZN12_GLOBAL__N_118font_MWOSD_77_typeD1Ev>:
 8010e4c:	4b01      	ldr	r3, [pc, #4]	; (8010e54 <_ZN12_GLOBAL__N_118font_MWOSD_77_typeD1Ev+0x8>)
 8010e4e:	6003      	str	r3, [r0, #0]
 8010e50:	4770      	bx	lr
 8010e52:	bf00      	nop
 8010e54:	08014ec8 	.word	0x08014ec8

08010e58 <_ZN12_GLOBAL__N_118font_MWOSD_76_typeD1Ev>:
 8010e58:	4b01      	ldr	r3, [pc, #4]	; (8010e60 <_ZN12_GLOBAL__N_118font_MWOSD_76_typeD1Ev+0x8>)
 8010e5a:	6003      	str	r3, [r0, #0]
 8010e5c:	4770      	bx	lr
 8010e5e:	bf00      	nop
 8010e60:	08014ec8 	.word	0x08014ec8

08010e64 <_ZN12_GLOBAL__N_118font_MWOSD_75_typeD1Ev>:
 8010e64:	4b01      	ldr	r3, [pc, #4]	; (8010e6c <_ZN12_GLOBAL__N_118font_MWOSD_75_typeD1Ev+0x8>)
 8010e66:	6003      	str	r3, [r0, #0]
 8010e68:	4770      	bx	lr
 8010e6a:	bf00      	nop
 8010e6c:	08014ec8 	.word	0x08014ec8

08010e70 <_ZN12_GLOBAL__N_118font_MWOSD_74_typeD1Ev>:
 8010e70:	4b01      	ldr	r3, [pc, #4]	; (8010e78 <_ZN12_GLOBAL__N_118font_MWOSD_74_typeD1Ev+0x8>)
 8010e72:	6003      	str	r3, [r0, #0]
 8010e74:	4770      	bx	lr
 8010e76:	bf00      	nop
 8010e78:	08014ec8 	.word	0x08014ec8

08010e7c <_ZN12_GLOBAL__N_118font_MWOSD_73_typeD1Ev>:
 8010e7c:	4b01      	ldr	r3, [pc, #4]	; (8010e84 <_ZN12_GLOBAL__N_118font_MWOSD_73_typeD1Ev+0x8>)
 8010e7e:	6003      	str	r3, [r0, #0]
 8010e80:	4770      	bx	lr
 8010e82:	bf00      	nop
 8010e84:	08014ec8 	.word	0x08014ec8

08010e88 <_ZN12_GLOBAL__N_118font_MWOSD_72_typeD1Ev>:
 8010e88:	4b01      	ldr	r3, [pc, #4]	; (8010e90 <_ZN12_GLOBAL__N_118font_MWOSD_72_typeD1Ev+0x8>)
 8010e8a:	6003      	str	r3, [r0, #0]
 8010e8c:	4770      	bx	lr
 8010e8e:	bf00      	nop
 8010e90:	08014ec8 	.word	0x08014ec8

08010e94 <_ZN12_GLOBAL__N_118font_MWOSD_71_typeD1Ev>:
 8010e94:	4b01      	ldr	r3, [pc, #4]	; (8010e9c <_ZN12_GLOBAL__N_118font_MWOSD_71_typeD1Ev+0x8>)
 8010e96:	6003      	str	r3, [r0, #0]
 8010e98:	4770      	bx	lr
 8010e9a:	bf00      	nop
 8010e9c:	08014ec8 	.word	0x08014ec8

08010ea0 <_ZN12_GLOBAL__N_118font_MWOSD_70_typeD1Ev>:
 8010ea0:	4b01      	ldr	r3, [pc, #4]	; (8010ea8 <_ZN12_GLOBAL__N_118font_MWOSD_70_typeD1Ev+0x8>)
 8010ea2:	6003      	str	r3, [r0, #0]
 8010ea4:	4770      	bx	lr
 8010ea6:	bf00      	nop
 8010ea8:	08014ec8 	.word	0x08014ec8

08010eac <_ZN12_GLOBAL__N_118font_MWOSD_69_typeD1Ev>:
 8010eac:	4b01      	ldr	r3, [pc, #4]	; (8010eb4 <_ZN12_GLOBAL__N_118font_MWOSD_69_typeD1Ev+0x8>)
 8010eae:	6003      	str	r3, [r0, #0]
 8010eb0:	4770      	bx	lr
 8010eb2:	bf00      	nop
 8010eb4:	08014ec8 	.word	0x08014ec8

08010eb8 <_ZN12_GLOBAL__N_118font_MWOSD_68_typeD1Ev>:
 8010eb8:	4b01      	ldr	r3, [pc, #4]	; (8010ec0 <_ZN12_GLOBAL__N_118font_MWOSD_68_typeD1Ev+0x8>)
 8010eba:	6003      	str	r3, [r0, #0]
 8010ebc:	4770      	bx	lr
 8010ebe:	bf00      	nop
 8010ec0:	08014ec8 	.word	0x08014ec8

08010ec4 <_ZN12_GLOBAL__N_118font_MWOSD_67_typeD1Ev>:
 8010ec4:	4b01      	ldr	r3, [pc, #4]	; (8010ecc <_ZN12_GLOBAL__N_118font_MWOSD_67_typeD1Ev+0x8>)
 8010ec6:	6003      	str	r3, [r0, #0]
 8010ec8:	4770      	bx	lr
 8010eca:	bf00      	nop
 8010ecc:	08014ec8 	.word	0x08014ec8

08010ed0 <_ZN12_GLOBAL__N_118font_MWOSD_66_typeD1Ev>:
 8010ed0:	4b01      	ldr	r3, [pc, #4]	; (8010ed8 <_ZN12_GLOBAL__N_118font_MWOSD_66_typeD1Ev+0x8>)
 8010ed2:	6003      	str	r3, [r0, #0]
 8010ed4:	4770      	bx	lr
 8010ed6:	bf00      	nop
 8010ed8:	08014ec8 	.word	0x08014ec8

08010edc <_ZN12_GLOBAL__N_118font_MWOSD_65_typeD1Ev>:
 8010edc:	4b01      	ldr	r3, [pc, #4]	; (8010ee4 <_ZN12_GLOBAL__N_118font_MWOSD_65_typeD1Ev+0x8>)
 8010ede:	6003      	str	r3, [r0, #0]
 8010ee0:	4770      	bx	lr
 8010ee2:	bf00      	nop
 8010ee4:	08014ec8 	.word	0x08014ec8

08010ee8 <_ZN12_GLOBAL__N_118font_MWOSD_64_typeD1Ev>:
 8010ee8:	4b01      	ldr	r3, [pc, #4]	; (8010ef0 <_ZN12_GLOBAL__N_118font_MWOSD_64_typeD1Ev+0x8>)
 8010eea:	6003      	str	r3, [r0, #0]
 8010eec:	4770      	bx	lr
 8010eee:	bf00      	nop
 8010ef0:	08014ec8 	.word	0x08014ec8

08010ef4 <_ZN12_GLOBAL__N_118font_MWOSD_63_typeD1Ev>:
 8010ef4:	4b01      	ldr	r3, [pc, #4]	; (8010efc <_ZN12_GLOBAL__N_118font_MWOSD_63_typeD1Ev+0x8>)
 8010ef6:	6003      	str	r3, [r0, #0]
 8010ef8:	4770      	bx	lr
 8010efa:	bf00      	nop
 8010efc:	08014ec8 	.word	0x08014ec8

08010f00 <_ZN12_GLOBAL__N_118font_MWOSD_62_typeD1Ev>:
 8010f00:	4b01      	ldr	r3, [pc, #4]	; (8010f08 <_ZN12_GLOBAL__N_118font_MWOSD_62_typeD1Ev+0x8>)
 8010f02:	6003      	str	r3, [r0, #0]
 8010f04:	4770      	bx	lr
 8010f06:	bf00      	nop
 8010f08:	08014ec8 	.word	0x08014ec8

08010f0c <_ZN12_GLOBAL__N_118font_MWOSD_61_typeD1Ev>:
 8010f0c:	4b01      	ldr	r3, [pc, #4]	; (8010f14 <_ZN12_GLOBAL__N_118font_MWOSD_61_typeD1Ev+0x8>)
 8010f0e:	6003      	str	r3, [r0, #0]
 8010f10:	4770      	bx	lr
 8010f12:	bf00      	nop
 8010f14:	08014ec8 	.word	0x08014ec8

08010f18 <_ZN12_GLOBAL__N_118font_MWOSD_60_typeD1Ev>:
 8010f18:	4b01      	ldr	r3, [pc, #4]	; (8010f20 <_ZN12_GLOBAL__N_118font_MWOSD_60_typeD1Ev+0x8>)
 8010f1a:	6003      	str	r3, [r0, #0]
 8010f1c:	4770      	bx	lr
 8010f1e:	bf00      	nop
 8010f20:	08014ec8 	.word	0x08014ec8

08010f24 <_ZN12_GLOBAL__N_118font_MWOSD_59_typeD1Ev>:
 8010f24:	4b01      	ldr	r3, [pc, #4]	; (8010f2c <_ZN12_GLOBAL__N_118font_MWOSD_59_typeD1Ev+0x8>)
 8010f26:	6003      	str	r3, [r0, #0]
 8010f28:	4770      	bx	lr
 8010f2a:	bf00      	nop
 8010f2c:	08014ec8 	.word	0x08014ec8

08010f30 <_ZN12_GLOBAL__N_118font_MWOSD_58_typeD1Ev>:
 8010f30:	4b01      	ldr	r3, [pc, #4]	; (8010f38 <_ZN12_GLOBAL__N_118font_MWOSD_58_typeD1Ev+0x8>)
 8010f32:	6003      	str	r3, [r0, #0]
 8010f34:	4770      	bx	lr
 8010f36:	bf00      	nop
 8010f38:	08014ec8 	.word	0x08014ec8

08010f3c <_ZN12_GLOBAL__N_118font_MWOSD_57_typeD1Ev>:
 8010f3c:	4b01      	ldr	r3, [pc, #4]	; (8010f44 <_ZN12_GLOBAL__N_118font_MWOSD_57_typeD1Ev+0x8>)
 8010f3e:	6003      	str	r3, [r0, #0]
 8010f40:	4770      	bx	lr
 8010f42:	bf00      	nop
 8010f44:	08014ec8 	.word	0x08014ec8

08010f48 <_ZN12_GLOBAL__N_118font_MWOSD_56_typeD1Ev>:
 8010f48:	4b01      	ldr	r3, [pc, #4]	; (8010f50 <_ZN12_GLOBAL__N_118font_MWOSD_56_typeD1Ev+0x8>)
 8010f4a:	6003      	str	r3, [r0, #0]
 8010f4c:	4770      	bx	lr
 8010f4e:	bf00      	nop
 8010f50:	08014ec8 	.word	0x08014ec8

08010f54 <_ZN12_GLOBAL__N_118font_MWOSD_55_typeD1Ev>:
 8010f54:	4b01      	ldr	r3, [pc, #4]	; (8010f5c <_ZN12_GLOBAL__N_118font_MWOSD_55_typeD1Ev+0x8>)
 8010f56:	6003      	str	r3, [r0, #0]
 8010f58:	4770      	bx	lr
 8010f5a:	bf00      	nop
 8010f5c:	08014ec8 	.word	0x08014ec8

08010f60 <_ZN12_GLOBAL__N_118font_MWOSD_54_typeD1Ev>:
 8010f60:	4b01      	ldr	r3, [pc, #4]	; (8010f68 <_ZN12_GLOBAL__N_118font_MWOSD_54_typeD1Ev+0x8>)
 8010f62:	6003      	str	r3, [r0, #0]
 8010f64:	4770      	bx	lr
 8010f66:	bf00      	nop
 8010f68:	08014ec8 	.word	0x08014ec8

08010f6c <_ZN12_GLOBAL__N_118font_MWOSD_53_typeD1Ev>:
 8010f6c:	4b01      	ldr	r3, [pc, #4]	; (8010f74 <_ZN12_GLOBAL__N_118font_MWOSD_53_typeD1Ev+0x8>)
 8010f6e:	6003      	str	r3, [r0, #0]
 8010f70:	4770      	bx	lr
 8010f72:	bf00      	nop
 8010f74:	08014ec8 	.word	0x08014ec8

08010f78 <_ZN12_GLOBAL__N_118font_MWOSD_52_typeD1Ev>:
 8010f78:	4b01      	ldr	r3, [pc, #4]	; (8010f80 <_ZN12_GLOBAL__N_118font_MWOSD_52_typeD1Ev+0x8>)
 8010f7a:	6003      	str	r3, [r0, #0]
 8010f7c:	4770      	bx	lr
 8010f7e:	bf00      	nop
 8010f80:	08014ec8 	.word	0x08014ec8

08010f84 <_ZN12_GLOBAL__N_118font_MWOSD_51_typeD1Ev>:
 8010f84:	4b01      	ldr	r3, [pc, #4]	; (8010f8c <_ZN12_GLOBAL__N_118font_MWOSD_51_typeD1Ev+0x8>)
 8010f86:	6003      	str	r3, [r0, #0]
 8010f88:	4770      	bx	lr
 8010f8a:	bf00      	nop
 8010f8c:	08014ec8 	.word	0x08014ec8

08010f90 <_ZN12_GLOBAL__N_118font_MWOSD_50_typeD1Ev>:
 8010f90:	4b01      	ldr	r3, [pc, #4]	; (8010f98 <_ZN12_GLOBAL__N_118font_MWOSD_50_typeD1Ev+0x8>)
 8010f92:	6003      	str	r3, [r0, #0]
 8010f94:	4770      	bx	lr
 8010f96:	bf00      	nop
 8010f98:	08014ec8 	.word	0x08014ec8

08010f9c <_ZN12_GLOBAL__N_118font_MWOSD_49_typeD1Ev>:
 8010f9c:	4b01      	ldr	r3, [pc, #4]	; (8010fa4 <_ZN12_GLOBAL__N_118font_MWOSD_49_typeD1Ev+0x8>)
 8010f9e:	6003      	str	r3, [r0, #0]
 8010fa0:	4770      	bx	lr
 8010fa2:	bf00      	nop
 8010fa4:	08014ec8 	.word	0x08014ec8

08010fa8 <_ZN12_GLOBAL__N_118font_MWOSD_48_typeD1Ev>:
 8010fa8:	4b01      	ldr	r3, [pc, #4]	; (8010fb0 <_ZN12_GLOBAL__N_118font_MWOSD_48_typeD1Ev+0x8>)
 8010faa:	6003      	str	r3, [r0, #0]
 8010fac:	4770      	bx	lr
 8010fae:	bf00      	nop
 8010fb0:	08014ec8 	.word	0x08014ec8

08010fb4 <_ZN12_GLOBAL__N_118font_MWOSD_47_typeD1Ev>:
 8010fb4:	4b01      	ldr	r3, [pc, #4]	; (8010fbc <_ZN12_GLOBAL__N_118font_MWOSD_47_typeD1Ev+0x8>)
 8010fb6:	6003      	str	r3, [r0, #0]
 8010fb8:	4770      	bx	lr
 8010fba:	bf00      	nop
 8010fbc:	08014ec8 	.word	0x08014ec8

08010fc0 <_ZN12_GLOBAL__N_118font_MWOSD_46_typeD1Ev>:
 8010fc0:	4b01      	ldr	r3, [pc, #4]	; (8010fc8 <_ZN12_GLOBAL__N_118font_MWOSD_46_typeD1Ev+0x8>)
 8010fc2:	6003      	str	r3, [r0, #0]
 8010fc4:	4770      	bx	lr
 8010fc6:	bf00      	nop
 8010fc8:	08014ec8 	.word	0x08014ec8

08010fcc <_ZN12_GLOBAL__N_118font_MWOSD_45_typeD1Ev>:
 8010fcc:	4b01      	ldr	r3, [pc, #4]	; (8010fd4 <_ZN12_GLOBAL__N_118font_MWOSD_45_typeD1Ev+0x8>)
 8010fce:	6003      	str	r3, [r0, #0]
 8010fd0:	4770      	bx	lr
 8010fd2:	bf00      	nop
 8010fd4:	08014ec8 	.word	0x08014ec8

08010fd8 <_ZN12_GLOBAL__N_118font_MWOSD_44_typeD1Ev>:
 8010fd8:	4b01      	ldr	r3, [pc, #4]	; (8010fe0 <_ZN12_GLOBAL__N_118font_MWOSD_44_typeD1Ev+0x8>)
 8010fda:	6003      	str	r3, [r0, #0]
 8010fdc:	4770      	bx	lr
 8010fde:	bf00      	nop
 8010fe0:	08014ec8 	.word	0x08014ec8

08010fe4 <_ZN12_GLOBAL__N_118font_MWOSD_43_typeD1Ev>:
 8010fe4:	4b01      	ldr	r3, [pc, #4]	; (8010fec <_ZN12_GLOBAL__N_118font_MWOSD_43_typeD1Ev+0x8>)
 8010fe6:	6003      	str	r3, [r0, #0]
 8010fe8:	4770      	bx	lr
 8010fea:	bf00      	nop
 8010fec:	08014ec8 	.word	0x08014ec8

08010ff0 <_ZN12_GLOBAL__N_118font_MWOSD_42_typeD1Ev>:
 8010ff0:	4b01      	ldr	r3, [pc, #4]	; (8010ff8 <_ZN12_GLOBAL__N_118font_MWOSD_42_typeD1Ev+0x8>)
 8010ff2:	6003      	str	r3, [r0, #0]
 8010ff4:	4770      	bx	lr
 8010ff6:	bf00      	nop
 8010ff8:	08014ec8 	.word	0x08014ec8

08010ffc <_ZN12_GLOBAL__N_118font_MWOSD_41_typeD1Ev>:
 8010ffc:	4b01      	ldr	r3, [pc, #4]	; (8011004 <_ZN12_GLOBAL__N_118font_MWOSD_41_typeD1Ev+0x8>)
 8010ffe:	6003      	str	r3, [r0, #0]
 8011000:	4770      	bx	lr
 8011002:	bf00      	nop
 8011004:	08014ec8 	.word	0x08014ec8

08011008 <_ZN12_GLOBAL__N_118font_MWOSD_40_typeD1Ev>:
 8011008:	4b01      	ldr	r3, [pc, #4]	; (8011010 <_ZN12_GLOBAL__N_118font_MWOSD_40_typeD1Ev+0x8>)
 801100a:	6003      	str	r3, [r0, #0]
 801100c:	4770      	bx	lr
 801100e:	bf00      	nop
 8011010:	08014ec8 	.word	0x08014ec8

08011014 <_ZN12_GLOBAL__N_118font_MWOSD_39_typeD1Ev>:
 8011014:	4b01      	ldr	r3, [pc, #4]	; (801101c <_ZN12_GLOBAL__N_118font_MWOSD_39_typeD1Ev+0x8>)
 8011016:	6003      	str	r3, [r0, #0]
 8011018:	4770      	bx	lr
 801101a:	bf00      	nop
 801101c:	08014ec8 	.word	0x08014ec8

08011020 <_ZN12_GLOBAL__N_118font_MWOSD_38_typeD1Ev>:
 8011020:	4b01      	ldr	r3, [pc, #4]	; (8011028 <_ZN12_GLOBAL__N_118font_MWOSD_38_typeD1Ev+0x8>)
 8011022:	6003      	str	r3, [r0, #0]
 8011024:	4770      	bx	lr
 8011026:	bf00      	nop
 8011028:	08014ec8 	.word	0x08014ec8

0801102c <_ZN12_GLOBAL__N_118font_MWOSD_37_typeD1Ev>:
 801102c:	4b01      	ldr	r3, [pc, #4]	; (8011034 <_ZN12_GLOBAL__N_118font_MWOSD_37_typeD1Ev+0x8>)
 801102e:	6003      	str	r3, [r0, #0]
 8011030:	4770      	bx	lr
 8011032:	bf00      	nop
 8011034:	08014ec8 	.word	0x08014ec8

08011038 <_ZN12_GLOBAL__N_118font_MWOSD_36_typeD1Ev>:
 8011038:	4b01      	ldr	r3, [pc, #4]	; (8011040 <_ZN12_GLOBAL__N_118font_MWOSD_36_typeD1Ev+0x8>)
 801103a:	6003      	str	r3, [r0, #0]
 801103c:	4770      	bx	lr
 801103e:	bf00      	nop
 8011040:	08014ec8 	.word	0x08014ec8

08011044 <_ZN12_GLOBAL__N_118font_MWOSD_35_typeD1Ev>:
 8011044:	4b01      	ldr	r3, [pc, #4]	; (801104c <_ZN12_GLOBAL__N_118font_MWOSD_35_typeD1Ev+0x8>)
 8011046:	6003      	str	r3, [r0, #0]
 8011048:	4770      	bx	lr
 801104a:	bf00      	nop
 801104c:	08014ec8 	.word	0x08014ec8

08011050 <_ZN12_GLOBAL__N_118font_MWOSD_34_typeD1Ev>:
 8011050:	4b01      	ldr	r3, [pc, #4]	; (8011058 <_ZN12_GLOBAL__N_118font_MWOSD_34_typeD1Ev+0x8>)
 8011052:	6003      	str	r3, [r0, #0]
 8011054:	4770      	bx	lr
 8011056:	bf00      	nop
 8011058:	08014ec8 	.word	0x08014ec8

0801105c <_ZN12_GLOBAL__N_118font_MWOSD_33_typeD1Ev>:
 801105c:	4b01      	ldr	r3, [pc, #4]	; (8011064 <_ZN12_GLOBAL__N_118font_MWOSD_33_typeD1Ev+0x8>)
 801105e:	6003      	str	r3, [r0, #0]
 8011060:	4770      	bx	lr
 8011062:	bf00      	nop
 8011064:	08014ec8 	.word	0x08014ec8

08011068 <_ZN12_GLOBAL__N_118font_MWOSD_32_typeD1Ev>:
 8011068:	4b01      	ldr	r3, [pc, #4]	; (8011070 <_ZN12_GLOBAL__N_118font_MWOSD_32_typeD1Ev+0x8>)
 801106a:	6003      	str	r3, [r0, #0]
 801106c:	4770      	bx	lr
 801106e:	bf00      	nop
 8011070:	08014ec8 	.word	0x08014ec8

08011074 <_ZN12_GLOBAL__N_121font_OSD_Charset_typeD1Ev>:
 8011074:	4b01      	ldr	r3, [pc, #4]	; (801107c <_ZN12_GLOBAL__N_121font_OSD_Charset_typeD1Ev+0x8>)
 8011076:	6003      	str	r3, [r0, #0]
 8011078:	4770      	bx	lr
 801107a:	bf00      	nop
 801107c:	08014ee0 	.word	0x08014ee0

08011080 <_ZN12_GLOBAL__N_125font_OSD_Charset_126_typeD1Ev>:
 8011080:	4b01      	ldr	r3, [pc, #4]	; (8011088 <_ZN12_GLOBAL__N_125font_OSD_Charset_126_typeD1Ev+0x8>)
 8011082:	6003      	str	r3, [r0, #0]
 8011084:	4770      	bx	lr
 8011086:	bf00      	nop
 8011088:	08014ec8 	.word	0x08014ec8

0801108c <_ZN12_GLOBAL__N_125font_OSD_Charset_125_typeD1Ev>:
 801108c:	4b01      	ldr	r3, [pc, #4]	; (8011094 <_ZN12_GLOBAL__N_125font_OSD_Charset_125_typeD1Ev+0x8>)
 801108e:	6003      	str	r3, [r0, #0]
 8011090:	4770      	bx	lr
 8011092:	bf00      	nop
 8011094:	08014ec8 	.word	0x08014ec8

08011098 <_ZN12_GLOBAL__N_125font_OSD_Charset_124_typeD1Ev>:
 8011098:	4b01      	ldr	r3, [pc, #4]	; (80110a0 <_ZN12_GLOBAL__N_125font_OSD_Charset_124_typeD1Ev+0x8>)
 801109a:	6003      	str	r3, [r0, #0]
 801109c:	4770      	bx	lr
 801109e:	bf00      	nop
 80110a0:	08014ec8 	.word	0x08014ec8

080110a4 <_ZN12_GLOBAL__N_125font_OSD_Charset_123_typeD1Ev>:
 80110a4:	4b01      	ldr	r3, [pc, #4]	; (80110ac <_ZN12_GLOBAL__N_125font_OSD_Charset_123_typeD1Ev+0x8>)
 80110a6:	6003      	str	r3, [r0, #0]
 80110a8:	4770      	bx	lr
 80110aa:	bf00      	nop
 80110ac:	08014ec8 	.word	0x08014ec8

080110b0 <_ZN12_GLOBAL__N_125font_OSD_Charset_122_typeD1Ev>:
 80110b0:	4b01      	ldr	r3, [pc, #4]	; (80110b8 <_ZN12_GLOBAL__N_125font_OSD_Charset_122_typeD1Ev+0x8>)
 80110b2:	6003      	str	r3, [r0, #0]
 80110b4:	4770      	bx	lr
 80110b6:	bf00      	nop
 80110b8:	08014ec8 	.word	0x08014ec8

080110bc <_ZN12_GLOBAL__N_125font_OSD_Charset_121_typeD1Ev>:
 80110bc:	4b01      	ldr	r3, [pc, #4]	; (80110c4 <_ZN12_GLOBAL__N_125font_OSD_Charset_121_typeD1Ev+0x8>)
 80110be:	6003      	str	r3, [r0, #0]
 80110c0:	4770      	bx	lr
 80110c2:	bf00      	nop
 80110c4:	08014ec8 	.word	0x08014ec8

080110c8 <_ZN12_GLOBAL__N_125font_OSD_Charset_120_typeD1Ev>:
 80110c8:	4b01      	ldr	r3, [pc, #4]	; (80110d0 <_ZN12_GLOBAL__N_125font_OSD_Charset_120_typeD1Ev+0x8>)
 80110ca:	6003      	str	r3, [r0, #0]
 80110cc:	4770      	bx	lr
 80110ce:	bf00      	nop
 80110d0:	08014ec8 	.word	0x08014ec8

080110d4 <_ZN12_GLOBAL__N_125font_OSD_Charset_119_typeD1Ev>:
 80110d4:	4b01      	ldr	r3, [pc, #4]	; (80110dc <_ZN12_GLOBAL__N_125font_OSD_Charset_119_typeD1Ev+0x8>)
 80110d6:	6003      	str	r3, [r0, #0]
 80110d8:	4770      	bx	lr
 80110da:	bf00      	nop
 80110dc:	08014ec8 	.word	0x08014ec8

080110e0 <_ZN12_GLOBAL__N_125font_OSD_Charset_118_typeD1Ev>:
 80110e0:	4b01      	ldr	r3, [pc, #4]	; (80110e8 <_ZN12_GLOBAL__N_125font_OSD_Charset_118_typeD1Ev+0x8>)
 80110e2:	6003      	str	r3, [r0, #0]
 80110e4:	4770      	bx	lr
 80110e6:	bf00      	nop
 80110e8:	08014ec8 	.word	0x08014ec8

080110ec <_ZN12_GLOBAL__N_125font_OSD_Charset_117_typeD1Ev>:
 80110ec:	4b01      	ldr	r3, [pc, #4]	; (80110f4 <_ZN12_GLOBAL__N_125font_OSD_Charset_117_typeD1Ev+0x8>)
 80110ee:	6003      	str	r3, [r0, #0]
 80110f0:	4770      	bx	lr
 80110f2:	bf00      	nop
 80110f4:	08014ec8 	.word	0x08014ec8

080110f8 <_ZN12_GLOBAL__N_125font_OSD_Charset_116_typeD1Ev>:
 80110f8:	4b01      	ldr	r3, [pc, #4]	; (8011100 <_ZN12_GLOBAL__N_125font_OSD_Charset_116_typeD1Ev+0x8>)
 80110fa:	6003      	str	r3, [r0, #0]
 80110fc:	4770      	bx	lr
 80110fe:	bf00      	nop
 8011100:	08014ec8 	.word	0x08014ec8

08011104 <_ZN12_GLOBAL__N_125font_OSD_Charset_115_typeD1Ev>:
 8011104:	4b01      	ldr	r3, [pc, #4]	; (801110c <_ZN12_GLOBAL__N_125font_OSD_Charset_115_typeD1Ev+0x8>)
 8011106:	6003      	str	r3, [r0, #0]
 8011108:	4770      	bx	lr
 801110a:	bf00      	nop
 801110c:	08014ec8 	.word	0x08014ec8

08011110 <_ZN12_GLOBAL__N_125font_OSD_Charset_114_typeD1Ev>:
 8011110:	4b01      	ldr	r3, [pc, #4]	; (8011118 <_ZN12_GLOBAL__N_125font_OSD_Charset_114_typeD1Ev+0x8>)
 8011112:	6003      	str	r3, [r0, #0]
 8011114:	4770      	bx	lr
 8011116:	bf00      	nop
 8011118:	08014ec8 	.word	0x08014ec8

0801111c <_ZN12_GLOBAL__N_125font_OSD_Charset_113_typeD1Ev>:
 801111c:	4b01      	ldr	r3, [pc, #4]	; (8011124 <_ZN12_GLOBAL__N_125font_OSD_Charset_113_typeD1Ev+0x8>)
 801111e:	6003      	str	r3, [r0, #0]
 8011120:	4770      	bx	lr
 8011122:	bf00      	nop
 8011124:	08014ec8 	.word	0x08014ec8

08011128 <_ZN12_GLOBAL__N_125font_OSD_Charset_112_typeD1Ev>:
 8011128:	4b01      	ldr	r3, [pc, #4]	; (8011130 <_ZN12_GLOBAL__N_125font_OSD_Charset_112_typeD1Ev+0x8>)
 801112a:	6003      	str	r3, [r0, #0]
 801112c:	4770      	bx	lr
 801112e:	bf00      	nop
 8011130:	08014ec8 	.word	0x08014ec8

08011134 <_ZN12_GLOBAL__N_125font_OSD_Charset_111_typeD1Ev>:
 8011134:	4b01      	ldr	r3, [pc, #4]	; (801113c <_ZN12_GLOBAL__N_125font_OSD_Charset_111_typeD1Ev+0x8>)
 8011136:	6003      	str	r3, [r0, #0]
 8011138:	4770      	bx	lr
 801113a:	bf00      	nop
 801113c:	08014ec8 	.word	0x08014ec8

08011140 <_ZN12_GLOBAL__N_125font_OSD_Charset_110_typeD1Ev>:
 8011140:	4b01      	ldr	r3, [pc, #4]	; (8011148 <_ZN12_GLOBAL__N_125font_OSD_Charset_110_typeD1Ev+0x8>)
 8011142:	6003      	str	r3, [r0, #0]
 8011144:	4770      	bx	lr
 8011146:	bf00      	nop
 8011148:	08014ec8 	.word	0x08014ec8

0801114c <_ZN12_GLOBAL__N_125font_OSD_Charset_109_typeD1Ev>:
 801114c:	4b01      	ldr	r3, [pc, #4]	; (8011154 <_ZN12_GLOBAL__N_125font_OSD_Charset_109_typeD1Ev+0x8>)
 801114e:	6003      	str	r3, [r0, #0]
 8011150:	4770      	bx	lr
 8011152:	bf00      	nop
 8011154:	08014ec8 	.word	0x08014ec8

08011158 <_ZN12_GLOBAL__N_125font_OSD_Charset_108_typeD1Ev>:
 8011158:	4b01      	ldr	r3, [pc, #4]	; (8011160 <_ZN12_GLOBAL__N_125font_OSD_Charset_108_typeD1Ev+0x8>)
 801115a:	6003      	str	r3, [r0, #0]
 801115c:	4770      	bx	lr
 801115e:	bf00      	nop
 8011160:	08014ec8 	.word	0x08014ec8

08011164 <_ZN12_GLOBAL__N_125font_OSD_Charset_107_typeD1Ev>:
 8011164:	4b01      	ldr	r3, [pc, #4]	; (801116c <_ZN12_GLOBAL__N_125font_OSD_Charset_107_typeD1Ev+0x8>)
 8011166:	6003      	str	r3, [r0, #0]
 8011168:	4770      	bx	lr
 801116a:	bf00      	nop
 801116c:	08014ec8 	.word	0x08014ec8

08011170 <_ZN12_GLOBAL__N_125font_OSD_Charset_106_typeD1Ev>:
 8011170:	4b01      	ldr	r3, [pc, #4]	; (8011178 <_ZN12_GLOBAL__N_125font_OSD_Charset_106_typeD1Ev+0x8>)
 8011172:	6003      	str	r3, [r0, #0]
 8011174:	4770      	bx	lr
 8011176:	bf00      	nop
 8011178:	08014ec8 	.word	0x08014ec8

0801117c <_ZN12_GLOBAL__N_125font_OSD_Charset_105_typeD1Ev>:
 801117c:	4b01      	ldr	r3, [pc, #4]	; (8011184 <_ZN12_GLOBAL__N_125font_OSD_Charset_105_typeD1Ev+0x8>)
 801117e:	6003      	str	r3, [r0, #0]
 8011180:	4770      	bx	lr
 8011182:	bf00      	nop
 8011184:	08014ec8 	.word	0x08014ec8

08011188 <_ZN12_GLOBAL__N_125font_OSD_Charset_104_typeD1Ev>:
 8011188:	4b01      	ldr	r3, [pc, #4]	; (8011190 <_ZN12_GLOBAL__N_125font_OSD_Charset_104_typeD1Ev+0x8>)
 801118a:	6003      	str	r3, [r0, #0]
 801118c:	4770      	bx	lr
 801118e:	bf00      	nop
 8011190:	08014ec8 	.word	0x08014ec8

08011194 <_ZN12_GLOBAL__N_125font_OSD_Charset_103_typeD1Ev>:
 8011194:	4b01      	ldr	r3, [pc, #4]	; (801119c <_ZN12_GLOBAL__N_125font_OSD_Charset_103_typeD1Ev+0x8>)
 8011196:	6003      	str	r3, [r0, #0]
 8011198:	4770      	bx	lr
 801119a:	bf00      	nop
 801119c:	08014ec8 	.word	0x08014ec8

080111a0 <_ZN12_GLOBAL__N_125font_OSD_Charset_102_typeD1Ev>:
 80111a0:	4b01      	ldr	r3, [pc, #4]	; (80111a8 <_ZN12_GLOBAL__N_125font_OSD_Charset_102_typeD1Ev+0x8>)
 80111a2:	6003      	str	r3, [r0, #0]
 80111a4:	4770      	bx	lr
 80111a6:	bf00      	nop
 80111a8:	08014ec8 	.word	0x08014ec8

080111ac <_ZN12_GLOBAL__N_125font_OSD_Charset_101_typeD1Ev>:
 80111ac:	4b01      	ldr	r3, [pc, #4]	; (80111b4 <_ZN12_GLOBAL__N_125font_OSD_Charset_101_typeD1Ev+0x8>)
 80111ae:	6003      	str	r3, [r0, #0]
 80111b0:	4770      	bx	lr
 80111b2:	bf00      	nop
 80111b4:	08014ec8 	.word	0x08014ec8

080111b8 <_ZN12_GLOBAL__N_125font_OSD_Charset_100_typeD1Ev>:
 80111b8:	4b01      	ldr	r3, [pc, #4]	; (80111c0 <_ZN12_GLOBAL__N_125font_OSD_Charset_100_typeD1Ev+0x8>)
 80111ba:	6003      	str	r3, [r0, #0]
 80111bc:	4770      	bx	lr
 80111be:	bf00      	nop
 80111c0:	08014ec8 	.word	0x08014ec8

080111c4 <_ZN12_GLOBAL__N_124font_OSD_Charset_99_typeD1Ev>:
 80111c4:	4b01      	ldr	r3, [pc, #4]	; (80111cc <_ZN12_GLOBAL__N_124font_OSD_Charset_99_typeD1Ev+0x8>)
 80111c6:	6003      	str	r3, [r0, #0]
 80111c8:	4770      	bx	lr
 80111ca:	bf00      	nop
 80111cc:	08014ec8 	.word	0x08014ec8

080111d0 <_ZN12_GLOBAL__N_124font_OSD_Charset_98_typeD1Ev>:
 80111d0:	4b01      	ldr	r3, [pc, #4]	; (80111d8 <_ZN12_GLOBAL__N_124font_OSD_Charset_98_typeD1Ev+0x8>)
 80111d2:	6003      	str	r3, [r0, #0]
 80111d4:	4770      	bx	lr
 80111d6:	bf00      	nop
 80111d8:	08014ec8 	.word	0x08014ec8

080111dc <_ZN12_GLOBAL__N_124font_OSD_Charset_97_typeD1Ev>:
 80111dc:	4b01      	ldr	r3, [pc, #4]	; (80111e4 <_ZN12_GLOBAL__N_124font_OSD_Charset_97_typeD1Ev+0x8>)
 80111de:	6003      	str	r3, [r0, #0]
 80111e0:	4770      	bx	lr
 80111e2:	bf00      	nop
 80111e4:	08014ec8 	.word	0x08014ec8

080111e8 <_ZN12_GLOBAL__N_124font_OSD_Charset_96_typeD1Ev>:
 80111e8:	4b01      	ldr	r3, [pc, #4]	; (80111f0 <_ZN12_GLOBAL__N_124font_OSD_Charset_96_typeD1Ev+0x8>)
 80111ea:	6003      	str	r3, [r0, #0]
 80111ec:	4770      	bx	lr
 80111ee:	bf00      	nop
 80111f0:	08014ec8 	.word	0x08014ec8

080111f4 <_ZN12_GLOBAL__N_124font_OSD_Charset_95_typeD1Ev>:
 80111f4:	4b01      	ldr	r3, [pc, #4]	; (80111fc <_ZN12_GLOBAL__N_124font_OSD_Charset_95_typeD1Ev+0x8>)
 80111f6:	6003      	str	r3, [r0, #0]
 80111f8:	4770      	bx	lr
 80111fa:	bf00      	nop
 80111fc:	08014ec8 	.word	0x08014ec8

08011200 <_ZN12_GLOBAL__N_124font_OSD_Charset_94_typeD1Ev>:
 8011200:	4b01      	ldr	r3, [pc, #4]	; (8011208 <_ZN12_GLOBAL__N_124font_OSD_Charset_94_typeD1Ev+0x8>)
 8011202:	6003      	str	r3, [r0, #0]
 8011204:	4770      	bx	lr
 8011206:	bf00      	nop
 8011208:	08014ec8 	.word	0x08014ec8

0801120c <_ZN12_GLOBAL__N_124font_OSD_Charset_93_typeD1Ev>:
 801120c:	4b01      	ldr	r3, [pc, #4]	; (8011214 <_ZN12_GLOBAL__N_124font_OSD_Charset_93_typeD1Ev+0x8>)
 801120e:	6003      	str	r3, [r0, #0]
 8011210:	4770      	bx	lr
 8011212:	bf00      	nop
 8011214:	08014ec8 	.word	0x08014ec8

08011218 <_ZN12_GLOBAL__N_124font_OSD_Charset_92_typeD1Ev>:
 8011218:	4b01      	ldr	r3, [pc, #4]	; (8011220 <_ZN12_GLOBAL__N_124font_OSD_Charset_92_typeD1Ev+0x8>)
 801121a:	6003      	str	r3, [r0, #0]
 801121c:	4770      	bx	lr
 801121e:	bf00      	nop
 8011220:	08014ec8 	.word	0x08014ec8

08011224 <_ZN12_GLOBAL__N_124font_OSD_Charset_91_typeD1Ev>:
 8011224:	4b01      	ldr	r3, [pc, #4]	; (801122c <_ZN12_GLOBAL__N_124font_OSD_Charset_91_typeD1Ev+0x8>)
 8011226:	6003      	str	r3, [r0, #0]
 8011228:	4770      	bx	lr
 801122a:	bf00      	nop
 801122c:	08014ec8 	.word	0x08014ec8

08011230 <_ZN12_GLOBAL__N_124font_OSD_Charset_90_typeD1Ev>:
 8011230:	4b01      	ldr	r3, [pc, #4]	; (8011238 <_ZN12_GLOBAL__N_124font_OSD_Charset_90_typeD1Ev+0x8>)
 8011232:	6003      	str	r3, [r0, #0]
 8011234:	4770      	bx	lr
 8011236:	bf00      	nop
 8011238:	08014ec8 	.word	0x08014ec8

0801123c <_ZN12_GLOBAL__N_124font_OSD_Charset_89_typeD1Ev>:
 801123c:	4b01      	ldr	r3, [pc, #4]	; (8011244 <_ZN12_GLOBAL__N_124font_OSD_Charset_89_typeD1Ev+0x8>)
 801123e:	6003      	str	r3, [r0, #0]
 8011240:	4770      	bx	lr
 8011242:	bf00      	nop
 8011244:	08014ec8 	.word	0x08014ec8

08011248 <_ZN12_GLOBAL__N_124font_OSD_Charset_88_typeD1Ev>:
 8011248:	4b01      	ldr	r3, [pc, #4]	; (8011250 <_ZN12_GLOBAL__N_124font_OSD_Charset_88_typeD1Ev+0x8>)
 801124a:	6003      	str	r3, [r0, #0]
 801124c:	4770      	bx	lr
 801124e:	bf00      	nop
 8011250:	08014ec8 	.word	0x08014ec8

08011254 <_ZN12_GLOBAL__N_124font_OSD_Charset_87_typeD1Ev>:
 8011254:	4b01      	ldr	r3, [pc, #4]	; (801125c <_ZN12_GLOBAL__N_124font_OSD_Charset_87_typeD1Ev+0x8>)
 8011256:	6003      	str	r3, [r0, #0]
 8011258:	4770      	bx	lr
 801125a:	bf00      	nop
 801125c:	08014ec8 	.word	0x08014ec8

08011260 <_ZN12_GLOBAL__N_124font_OSD_Charset_86_typeD1Ev>:
 8011260:	4b01      	ldr	r3, [pc, #4]	; (8011268 <_ZN12_GLOBAL__N_124font_OSD_Charset_86_typeD1Ev+0x8>)
 8011262:	6003      	str	r3, [r0, #0]
 8011264:	4770      	bx	lr
 8011266:	bf00      	nop
 8011268:	08014ec8 	.word	0x08014ec8

0801126c <_ZN12_GLOBAL__N_124font_OSD_Charset_85_typeD1Ev>:
 801126c:	4b01      	ldr	r3, [pc, #4]	; (8011274 <_ZN12_GLOBAL__N_124font_OSD_Charset_85_typeD1Ev+0x8>)
 801126e:	6003      	str	r3, [r0, #0]
 8011270:	4770      	bx	lr
 8011272:	bf00      	nop
 8011274:	08014ec8 	.word	0x08014ec8

08011278 <_ZN12_GLOBAL__N_124font_OSD_Charset_84_typeD1Ev>:
 8011278:	4b01      	ldr	r3, [pc, #4]	; (8011280 <_ZN12_GLOBAL__N_124font_OSD_Charset_84_typeD1Ev+0x8>)
 801127a:	6003      	str	r3, [r0, #0]
 801127c:	4770      	bx	lr
 801127e:	bf00      	nop
 8011280:	08014ec8 	.word	0x08014ec8

08011284 <_ZN12_GLOBAL__N_124font_OSD_Charset_83_typeD1Ev>:
 8011284:	4b01      	ldr	r3, [pc, #4]	; (801128c <_ZN12_GLOBAL__N_124font_OSD_Charset_83_typeD1Ev+0x8>)
 8011286:	6003      	str	r3, [r0, #0]
 8011288:	4770      	bx	lr
 801128a:	bf00      	nop
 801128c:	08014ec8 	.word	0x08014ec8

08011290 <_ZN12_GLOBAL__N_124font_OSD_Charset_82_typeD1Ev>:
 8011290:	4b01      	ldr	r3, [pc, #4]	; (8011298 <_ZN12_GLOBAL__N_124font_OSD_Charset_82_typeD1Ev+0x8>)
 8011292:	6003      	str	r3, [r0, #0]
 8011294:	4770      	bx	lr
 8011296:	bf00      	nop
 8011298:	08014ec8 	.word	0x08014ec8

0801129c <_ZN12_GLOBAL__N_124font_OSD_Charset_81_typeD1Ev>:
 801129c:	4b01      	ldr	r3, [pc, #4]	; (80112a4 <_ZN12_GLOBAL__N_124font_OSD_Charset_81_typeD1Ev+0x8>)
 801129e:	6003      	str	r3, [r0, #0]
 80112a0:	4770      	bx	lr
 80112a2:	bf00      	nop
 80112a4:	08014ec8 	.word	0x08014ec8

080112a8 <_ZN12_GLOBAL__N_124font_OSD_Charset_80_typeD1Ev>:
 80112a8:	4b01      	ldr	r3, [pc, #4]	; (80112b0 <_ZN12_GLOBAL__N_124font_OSD_Charset_80_typeD1Ev+0x8>)
 80112aa:	6003      	str	r3, [r0, #0]
 80112ac:	4770      	bx	lr
 80112ae:	bf00      	nop
 80112b0:	08014ec8 	.word	0x08014ec8

080112b4 <_ZN12_GLOBAL__N_124font_OSD_Charset_79_typeD1Ev>:
 80112b4:	4b01      	ldr	r3, [pc, #4]	; (80112bc <_ZN12_GLOBAL__N_124font_OSD_Charset_79_typeD1Ev+0x8>)
 80112b6:	6003      	str	r3, [r0, #0]
 80112b8:	4770      	bx	lr
 80112ba:	bf00      	nop
 80112bc:	08014ec8 	.word	0x08014ec8

080112c0 <_ZN12_GLOBAL__N_124font_OSD_Charset_78_typeD1Ev>:
 80112c0:	4b01      	ldr	r3, [pc, #4]	; (80112c8 <_ZN12_GLOBAL__N_124font_OSD_Charset_78_typeD1Ev+0x8>)
 80112c2:	6003      	str	r3, [r0, #0]
 80112c4:	4770      	bx	lr
 80112c6:	bf00      	nop
 80112c8:	08014ec8 	.word	0x08014ec8

080112cc <_ZN12_GLOBAL__N_124font_OSD_Charset_77_typeD1Ev>:
 80112cc:	4b01      	ldr	r3, [pc, #4]	; (80112d4 <_ZN12_GLOBAL__N_124font_OSD_Charset_77_typeD1Ev+0x8>)
 80112ce:	6003      	str	r3, [r0, #0]
 80112d0:	4770      	bx	lr
 80112d2:	bf00      	nop
 80112d4:	08014ec8 	.word	0x08014ec8

080112d8 <_ZN12_GLOBAL__N_124font_OSD_Charset_76_typeD1Ev>:
 80112d8:	4b01      	ldr	r3, [pc, #4]	; (80112e0 <_ZN12_GLOBAL__N_124font_OSD_Charset_76_typeD1Ev+0x8>)
 80112da:	6003      	str	r3, [r0, #0]
 80112dc:	4770      	bx	lr
 80112de:	bf00      	nop
 80112e0:	08014ec8 	.word	0x08014ec8

080112e4 <_ZN12_GLOBAL__N_124font_OSD_Charset_75_typeD1Ev>:
 80112e4:	4b01      	ldr	r3, [pc, #4]	; (80112ec <_ZN12_GLOBAL__N_124font_OSD_Charset_75_typeD1Ev+0x8>)
 80112e6:	6003      	str	r3, [r0, #0]
 80112e8:	4770      	bx	lr
 80112ea:	bf00      	nop
 80112ec:	08014ec8 	.word	0x08014ec8

080112f0 <_ZN12_GLOBAL__N_124font_OSD_Charset_74_typeD1Ev>:
 80112f0:	4b01      	ldr	r3, [pc, #4]	; (80112f8 <_ZN12_GLOBAL__N_124font_OSD_Charset_74_typeD1Ev+0x8>)
 80112f2:	6003      	str	r3, [r0, #0]
 80112f4:	4770      	bx	lr
 80112f6:	bf00      	nop
 80112f8:	08014ec8 	.word	0x08014ec8

080112fc <_ZN12_GLOBAL__N_124font_OSD_Charset_73_typeD1Ev>:
 80112fc:	4b01      	ldr	r3, [pc, #4]	; (8011304 <_ZN12_GLOBAL__N_124font_OSD_Charset_73_typeD1Ev+0x8>)
 80112fe:	6003      	str	r3, [r0, #0]
 8011300:	4770      	bx	lr
 8011302:	bf00      	nop
 8011304:	08014ec8 	.word	0x08014ec8

08011308 <_ZN12_GLOBAL__N_124font_OSD_Charset_72_typeD1Ev>:
 8011308:	4b01      	ldr	r3, [pc, #4]	; (8011310 <_ZN12_GLOBAL__N_124font_OSD_Charset_72_typeD1Ev+0x8>)
 801130a:	6003      	str	r3, [r0, #0]
 801130c:	4770      	bx	lr
 801130e:	bf00      	nop
 8011310:	08014ec8 	.word	0x08014ec8

08011314 <_ZN12_GLOBAL__N_124font_OSD_Charset_71_typeD1Ev>:
 8011314:	4b01      	ldr	r3, [pc, #4]	; (801131c <_ZN12_GLOBAL__N_124font_OSD_Charset_71_typeD1Ev+0x8>)
 8011316:	6003      	str	r3, [r0, #0]
 8011318:	4770      	bx	lr
 801131a:	bf00      	nop
 801131c:	08014ec8 	.word	0x08014ec8

08011320 <_ZN12_GLOBAL__N_124font_OSD_Charset_70_typeD1Ev>:
 8011320:	4b01      	ldr	r3, [pc, #4]	; (8011328 <_ZN12_GLOBAL__N_124font_OSD_Charset_70_typeD1Ev+0x8>)
 8011322:	6003      	str	r3, [r0, #0]
 8011324:	4770      	bx	lr
 8011326:	bf00      	nop
 8011328:	08014ec8 	.word	0x08014ec8

0801132c <_ZN12_GLOBAL__N_124font_OSD_Charset_69_typeD1Ev>:
 801132c:	4b01      	ldr	r3, [pc, #4]	; (8011334 <_ZN12_GLOBAL__N_124font_OSD_Charset_69_typeD1Ev+0x8>)
 801132e:	6003      	str	r3, [r0, #0]
 8011330:	4770      	bx	lr
 8011332:	bf00      	nop
 8011334:	08014ec8 	.word	0x08014ec8

08011338 <_ZN12_GLOBAL__N_124font_OSD_Charset_68_typeD1Ev>:
 8011338:	4b01      	ldr	r3, [pc, #4]	; (8011340 <_ZN12_GLOBAL__N_124font_OSD_Charset_68_typeD1Ev+0x8>)
 801133a:	6003      	str	r3, [r0, #0]
 801133c:	4770      	bx	lr
 801133e:	bf00      	nop
 8011340:	08014ec8 	.word	0x08014ec8

08011344 <_ZN12_GLOBAL__N_124font_OSD_Charset_67_typeD1Ev>:
 8011344:	4b01      	ldr	r3, [pc, #4]	; (801134c <_ZN12_GLOBAL__N_124font_OSD_Charset_67_typeD1Ev+0x8>)
 8011346:	6003      	str	r3, [r0, #0]
 8011348:	4770      	bx	lr
 801134a:	bf00      	nop
 801134c:	08014ec8 	.word	0x08014ec8

08011350 <_ZN12_GLOBAL__N_124font_OSD_Charset_66_typeD1Ev>:
 8011350:	4b01      	ldr	r3, [pc, #4]	; (8011358 <_ZN12_GLOBAL__N_124font_OSD_Charset_66_typeD1Ev+0x8>)
 8011352:	6003      	str	r3, [r0, #0]
 8011354:	4770      	bx	lr
 8011356:	bf00      	nop
 8011358:	08014ec8 	.word	0x08014ec8

0801135c <_ZN12_GLOBAL__N_124font_OSD_Charset_65_typeD1Ev>:
 801135c:	4b01      	ldr	r3, [pc, #4]	; (8011364 <_ZN12_GLOBAL__N_124font_OSD_Charset_65_typeD1Ev+0x8>)
 801135e:	6003      	str	r3, [r0, #0]
 8011360:	4770      	bx	lr
 8011362:	bf00      	nop
 8011364:	08014ec8 	.word	0x08014ec8

08011368 <_ZN12_GLOBAL__N_124font_OSD_Charset_64_typeD1Ev>:
 8011368:	4b01      	ldr	r3, [pc, #4]	; (8011370 <_ZN12_GLOBAL__N_124font_OSD_Charset_64_typeD1Ev+0x8>)
 801136a:	6003      	str	r3, [r0, #0]
 801136c:	4770      	bx	lr
 801136e:	bf00      	nop
 8011370:	08014ec8 	.word	0x08014ec8

08011374 <_ZN12_GLOBAL__N_124font_OSD_Charset_63_typeD1Ev>:
 8011374:	4b01      	ldr	r3, [pc, #4]	; (801137c <_ZN12_GLOBAL__N_124font_OSD_Charset_63_typeD1Ev+0x8>)
 8011376:	6003      	str	r3, [r0, #0]
 8011378:	4770      	bx	lr
 801137a:	bf00      	nop
 801137c:	08014ec8 	.word	0x08014ec8

08011380 <_ZN12_GLOBAL__N_124font_OSD_Charset_62_typeD1Ev>:
 8011380:	4b01      	ldr	r3, [pc, #4]	; (8011388 <_ZN12_GLOBAL__N_124font_OSD_Charset_62_typeD1Ev+0x8>)
 8011382:	6003      	str	r3, [r0, #0]
 8011384:	4770      	bx	lr
 8011386:	bf00      	nop
 8011388:	08014ec8 	.word	0x08014ec8

0801138c <_ZN12_GLOBAL__N_124font_OSD_Charset_61_typeD1Ev>:
 801138c:	4b01      	ldr	r3, [pc, #4]	; (8011394 <_ZN12_GLOBAL__N_124font_OSD_Charset_61_typeD1Ev+0x8>)
 801138e:	6003      	str	r3, [r0, #0]
 8011390:	4770      	bx	lr
 8011392:	bf00      	nop
 8011394:	08014ec8 	.word	0x08014ec8

08011398 <_ZN12_GLOBAL__N_124font_OSD_Charset_60_typeD1Ev>:
 8011398:	4b01      	ldr	r3, [pc, #4]	; (80113a0 <_ZN12_GLOBAL__N_124font_OSD_Charset_60_typeD1Ev+0x8>)
 801139a:	6003      	str	r3, [r0, #0]
 801139c:	4770      	bx	lr
 801139e:	bf00      	nop
 80113a0:	08014ec8 	.word	0x08014ec8

080113a4 <_ZN12_GLOBAL__N_124font_OSD_Charset_59_typeD1Ev>:
 80113a4:	4b01      	ldr	r3, [pc, #4]	; (80113ac <_ZN12_GLOBAL__N_124font_OSD_Charset_59_typeD1Ev+0x8>)
 80113a6:	6003      	str	r3, [r0, #0]
 80113a8:	4770      	bx	lr
 80113aa:	bf00      	nop
 80113ac:	08014ec8 	.word	0x08014ec8

080113b0 <_ZN12_GLOBAL__N_124font_OSD_Charset_58_typeD1Ev>:
 80113b0:	4b01      	ldr	r3, [pc, #4]	; (80113b8 <_ZN12_GLOBAL__N_124font_OSD_Charset_58_typeD1Ev+0x8>)
 80113b2:	6003      	str	r3, [r0, #0]
 80113b4:	4770      	bx	lr
 80113b6:	bf00      	nop
 80113b8:	08014ec8 	.word	0x08014ec8

080113bc <_ZN12_GLOBAL__N_124font_OSD_Charset_57_typeD1Ev>:
 80113bc:	4b01      	ldr	r3, [pc, #4]	; (80113c4 <_ZN12_GLOBAL__N_124font_OSD_Charset_57_typeD1Ev+0x8>)
 80113be:	6003      	str	r3, [r0, #0]
 80113c0:	4770      	bx	lr
 80113c2:	bf00      	nop
 80113c4:	08014ec8 	.word	0x08014ec8

080113c8 <_ZN12_GLOBAL__N_124font_OSD_Charset_56_typeD1Ev>:
 80113c8:	4b01      	ldr	r3, [pc, #4]	; (80113d0 <_ZN12_GLOBAL__N_124font_OSD_Charset_56_typeD1Ev+0x8>)
 80113ca:	6003      	str	r3, [r0, #0]
 80113cc:	4770      	bx	lr
 80113ce:	bf00      	nop
 80113d0:	08014ec8 	.word	0x08014ec8

080113d4 <_ZN12_GLOBAL__N_124font_OSD_Charset_55_typeD1Ev>:
 80113d4:	4b01      	ldr	r3, [pc, #4]	; (80113dc <_ZN12_GLOBAL__N_124font_OSD_Charset_55_typeD1Ev+0x8>)
 80113d6:	6003      	str	r3, [r0, #0]
 80113d8:	4770      	bx	lr
 80113da:	bf00      	nop
 80113dc:	08014ec8 	.word	0x08014ec8

080113e0 <_ZN12_GLOBAL__N_124font_OSD_Charset_54_typeD1Ev>:
 80113e0:	4b01      	ldr	r3, [pc, #4]	; (80113e8 <_ZN12_GLOBAL__N_124font_OSD_Charset_54_typeD1Ev+0x8>)
 80113e2:	6003      	str	r3, [r0, #0]
 80113e4:	4770      	bx	lr
 80113e6:	bf00      	nop
 80113e8:	08014ec8 	.word	0x08014ec8

080113ec <_ZN12_GLOBAL__N_124font_OSD_Charset_53_typeD1Ev>:
 80113ec:	4b01      	ldr	r3, [pc, #4]	; (80113f4 <_ZN12_GLOBAL__N_124font_OSD_Charset_53_typeD1Ev+0x8>)
 80113ee:	6003      	str	r3, [r0, #0]
 80113f0:	4770      	bx	lr
 80113f2:	bf00      	nop
 80113f4:	08014ec8 	.word	0x08014ec8

080113f8 <_ZN12_GLOBAL__N_124font_OSD_Charset_52_typeD1Ev>:
 80113f8:	4b01      	ldr	r3, [pc, #4]	; (8011400 <_ZN12_GLOBAL__N_124font_OSD_Charset_52_typeD1Ev+0x8>)
 80113fa:	6003      	str	r3, [r0, #0]
 80113fc:	4770      	bx	lr
 80113fe:	bf00      	nop
 8011400:	08014ec8 	.word	0x08014ec8

08011404 <_ZN12_GLOBAL__N_124font_OSD_Charset_51_typeD1Ev>:
 8011404:	4b01      	ldr	r3, [pc, #4]	; (801140c <_ZN12_GLOBAL__N_124font_OSD_Charset_51_typeD1Ev+0x8>)
 8011406:	6003      	str	r3, [r0, #0]
 8011408:	4770      	bx	lr
 801140a:	bf00      	nop
 801140c:	08014ec8 	.word	0x08014ec8

08011410 <_ZN12_GLOBAL__N_124font_OSD_Charset_50_typeD1Ev>:
 8011410:	4b01      	ldr	r3, [pc, #4]	; (8011418 <_ZN12_GLOBAL__N_124font_OSD_Charset_50_typeD1Ev+0x8>)
 8011412:	6003      	str	r3, [r0, #0]
 8011414:	4770      	bx	lr
 8011416:	bf00      	nop
 8011418:	08014ec8 	.word	0x08014ec8

0801141c <_ZN12_GLOBAL__N_124font_OSD_Charset_49_typeD1Ev>:
 801141c:	4b01      	ldr	r3, [pc, #4]	; (8011424 <_ZN12_GLOBAL__N_124font_OSD_Charset_49_typeD1Ev+0x8>)
 801141e:	6003      	str	r3, [r0, #0]
 8011420:	4770      	bx	lr
 8011422:	bf00      	nop
 8011424:	08014ec8 	.word	0x08014ec8

08011428 <_ZN12_GLOBAL__N_124font_OSD_Charset_48_typeD1Ev>:
 8011428:	4b01      	ldr	r3, [pc, #4]	; (8011430 <_ZN12_GLOBAL__N_124font_OSD_Charset_48_typeD1Ev+0x8>)
 801142a:	6003      	str	r3, [r0, #0]
 801142c:	4770      	bx	lr
 801142e:	bf00      	nop
 8011430:	08014ec8 	.word	0x08014ec8

08011434 <_ZN12_GLOBAL__N_124font_OSD_Charset_47_typeD1Ev>:
 8011434:	4b01      	ldr	r3, [pc, #4]	; (801143c <_ZN12_GLOBAL__N_124font_OSD_Charset_47_typeD1Ev+0x8>)
 8011436:	6003      	str	r3, [r0, #0]
 8011438:	4770      	bx	lr
 801143a:	bf00      	nop
 801143c:	08014ec8 	.word	0x08014ec8

08011440 <_ZN12_GLOBAL__N_124font_OSD_Charset_46_typeD1Ev>:
 8011440:	4b01      	ldr	r3, [pc, #4]	; (8011448 <_ZN12_GLOBAL__N_124font_OSD_Charset_46_typeD1Ev+0x8>)
 8011442:	6003      	str	r3, [r0, #0]
 8011444:	4770      	bx	lr
 8011446:	bf00      	nop
 8011448:	08014ec8 	.word	0x08014ec8

0801144c <_ZN12_GLOBAL__N_124font_OSD_Charset_45_typeD1Ev>:
 801144c:	4b01      	ldr	r3, [pc, #4]	; (8011454 <_ZN12_GLOBAL__N_124font_OSD_Charset_45_typeD1Ev+0x8>)
 801144e:	6003      	str	r3, [r0, #0]
 8011450:	4770      	bx	lr
 8011452:	bf00      	nop
 8011454:	08014ec8 	.word	0x08014ec8

08011458 <_ZN12_GLOBAL__N_124font_OSD_Charset_44_typeD1Ev>:
 8011458:	4b01      	ldr	r3, [pc, #4]	; (8011460 <_ZN12_GLOBAL__N_124font_OSD_Charset_44_typeD1Ev+0x8>)
 801145a:	6003      	str	r3, [r0, #0]
 801145c:	4770      	bx	lr
 801145e:	bf00      	nop
 8011460:	08014ec8 	.word	0x08014ec8

08011464 <_ZN12_GLOBAL__N_124font_OSD_Charset_43_typeD1Ev>:
 8011464:	4b01      	ldr	r3, [pc, #4]	; (801146c <_ZN12_GLOBAL__N_124font_OSD_Charset_43_typeD1Ev+0x8>)
 8011466:	6003      	str	r3, [r0, #0]
 8011468:	4770      	bx	lr
 801146a:	bf00      	nop
 801146c:	08014ec8 	.word	0x08014ec8

08011470 <_ZN12_GLOBAL__N_124font_OSD_Charset_42_typeD1Ev>:
 8011470:	4b01      	ldr	r3, [pc, #4]	; (8011478 <_ZN12_GLOBAL__N_124font_OSD_Charset_42_typeD1Ev+0x8>)
 8011472:	6003      	str	r3, [r0, #0]
 8011474:	4770      	bx	lr
 8011476:	bf00      	nop
 8011478:	08014ec8 	.word	0x08014ec8

0801147c <_ZN12_GLOBAL__N_124font_OSD_Charset_41_typeD1Ev>:
 801147c:	4b01      	ldr	r3, [pc, #4]	; (8011484 <_ZN12_GLOBAL__N_124font_OSD_Charset_41_typeD1Ev+0x8>)
 801147e:	6003      	str	r3, [r0, #0]
 8011480:	4770      	bx	lr
 8011482:	bf00      	nop
 8011484:	08014ec8 	.word	0x08014ec8

08011488 <_ZN12_GLOBAL__N_124font_OSD_Charset_40_typeD1Ev>:
 8011488:	4b01      	ldr	r3, [pc, #4]	; (8011490 <_ZN12_GLOBAL__N_124font_OSD_Charset_40_typeD1Ev+0x8>)
 801148a:	6003      	str	r3, [r0, #0]
 801148c:	4770      	bx	lr
 801148e:	bf00      	nop
 8011490:	08014ec8 	.word	0x08014ec8

08011494 <_ZN12_GLOBAL__N_124font_OSD_Charset_39_typeD1Ev>:
 8011494:	4b01      	ldr	r3, [pc, #4]	; (801149c <_ZN12_GLOBAL__N_124font_OSD_Charset_39_typeD1Ev+0x8>)
 8011496:	6003      	str	r3, [r0, #0]
 8011498:	4770      	bx	lr
 801149a:	bf00      	nop
 801149c:	08014ec8 	.word	0x08014ec8

080114a0 <_ZN12_GLOBAL__N_124font_OSD_Charset_38_typeD1Ev>:
 80114a0:	4b01      	ldr	r3, [pc, #4]	; (80114a8 <_ZN12_GLOBAL__N_124font_OSD_Charset_38_typeD1Ev+0x8>)
 80114a2:	6003      	str	r3, [r0, #0]
 80114a4:	4770      	bx	lr
 80114a6:	bf00      	nop
 80114a8:	08014ec8 	.word	0x08014ec8

080114ac <_ZN12_GLOBAL__N_124font_OSD_Charset_37_typeD1Ev>:
 80114ac:	4b01      	ldr	r3, [pc, #4]	; (80114b4 <_ZN12_GLOBAL__N_124font_OSD_Charset_37_typeD1Ev+0x8>)
 80114ae:	6003      	str	r3, [r0, #0]
 80114b0:	4770      	bx	lr
 80114b2:	bf00      	nop
 80114b4:	08014ec8 	.word	0x08014ec8

080114b8 <_ZN12_GLOBAL__N_124font_OSD_Charset_36_typeD1Ev>:
 80114b8:	4b01      	ldr	r3, [pc, #4]	; (80114c0 <_ZN12_GLOBAL__N_124font_OSD_Charset_36_typeD1Ev+0x8>)
 80114ba:	6003      	str	r3, [r0, #0]
 80114bc:	4770      	bx	lr
 80114be:	bf00      	nop
 80114c0:	08014ec8 	.word	0x08014ec8

080114c4 <_ZN12_GLOBAL__N_124font_OSD_Charset_35_typeD1Ev>:
 80114c4:	4b01      	ldr	r3, [pc, #4]	; (80114cc <_ZN12_GLOBAL__N_124font_OSD_Charset_35_typeD1Ev+0x8>)
 80114c6:	6003      	str	r3, [r0, #0]
 80114c8:	4770      	bx	lr
 80114ca:	bf00      	nop
 80114cc:	08014ec8 	.word	0x08014ec8

080114d0 <_ZN12_GLOBAL__N_124font_OSD_Charset_34_typeD1Ev>:
 80114d0:	4b01      	ldr	r3, [pc, #4]	; (80114d8 <_ZN12_GLOBAL__N_124font_OSD_Charset_34_typeD1Ev+0x8>)
 80114d2:	6003      	str	r3, [r0, #0]
 80114d4:	4770      	bx	lr
 80114d6:	bf00      	nop
 80114d8:	08014ec8 	.word	0x08014ec8

080114dc <_ZN12_GLOBAL__N_124font_OSD_Charset_33_typeD1Ev>:
 80114dc:	4b01      	ldr	r3, [pc, #4]	; (80114e4 <_ZN12_GLOBAL__N_124font_OSD_Charset_33_typeD1Ev+0x8>)
 80114de:	6003      	str	r3, [r0, #0]
 80114e0:	4770      	bx	lr
 80114e2:	bf00      	nop
 80114e4:	08014ec8 	.word	0x08014ec8

080114e8 <_ZN12_GLOBAL__N_124font_OSD_Charset_32_typeD1Ev>:
 80114e8:	4b01      	ldr	r3, [pc, #4]	; (80114f0 <_ZN12_GLOBAL__N_124font_OSD_Charset_32_typeD1Ev+0x8>)
 80114ea:	6003      	str	r3, [r0, #0]
 80114ec:	4770      	bx	lr
 80114ee:	bf00      	nop
 80114f0:	08014ec8 	.word	0x08014ec8

080114f4 <_ZN12_GLOBAL__N_115font_MWOSD_typeD0Ev>:
 80114f4:	4b03      	ldr	r3, [pc, #12]	; (8011504 <_ZN12_GLOBAL__N_115font_MWOSD_typeD0Ev+0x10>)
 80114f6:	b510      	push	{r4, lr}
 80114f8:	4604      	mov	r4, r0
 80114fa:	6003      	str	r3, [r0, #0]
 80114fc:	f7fc fa60 	bl	800d9c0 <_ZdlPv>
 8011500:	4620      	mov	r0, r4
 8011502:	bd10      	pop	{r4, pc}
 8011504:	08014ee0 	.word	0x08014ee0

08011508 <_ZN12_GLOBAL__N_119font_MWOSD_126_typeD0Ev>:
 8011508:	4b03      	ldr	r3, [pc, #12]	; (8011518 <_ZN12_GLOBAL__N_119font_MWOSD_126_typeD0Ev+0x10>)
 801150a:	b510      	push	{r4, lr}
 801150c:	4604      	mov	r4, r0
 801150e:	6003      	str	r3, [r0, #0]
 8011510:	f7fc fa56 	bl	800d9c0 <_ZdlPv>
 8011514:	4620      	mov	r0, r4
 8011516:	bd10      	pop	{r4, pc}
 8011518:	08014ec8 	.word	0x08014ec8

0801151c <_ZN12_GLOBAL__N_119font_MWOSD_125_typeD0Ev>:
 801151c:	4b03      	ldr	r3, [pc, #12]	; (801152c <_ZN12_GLOBAL__N_119font_MWOSD_125_typeD0Ev+0x10>)
 801151e:	b510      	push	{r4, lr}
 8011520:	4604      	mov	r4, r0
 8011522:	6003      	str	r3, [r0, #0]
 8011524:	f7fc fa4c 	bl	800d9c0 <_ZdlPv>
 8011528:	4620      	mov	r0, r4
 801152a:	bd10      	pop	{r4, pc}
 801152c:	08014ec8 	.word	0x08014ec8

08011530 <_ZN12_GLOBAL__N_119font_MWOSD_124_typeD0Ev>:
 8011530:	4b03      	ldr	r3, [pc, #12]	; (8011540 <_ZN12_GLOBAL__N_119font_MWOSD_124_typeD0Ev+0x10>)
 8011532:	b510      	push	{r4, lr}
 8011534:	4604      	mov	r4, r0
 8011536:	6003      	str	r3, [r0, #0]
 8011538:	f7fc fa42 	bl	800d9c0 <_ZdlPv>
 801153c:	4620      	mov	r0, r4
 801153e:	bd10      	pop	{r4, pc}
 8011540:	08014ec8 	.word	0x08014ec8

08011544 <_ZN12_GLOBAL__N_119font_MWOSD_123_typeD0Ev>:
 8011544:	4b03      	ldr	r3, [pc, #12]	; (8011554 <_ZN12_GLOBAL__N_119font_MWOSD_123_typeD0Ev+0x10>)
 8011546:	b510      	push	{r4, lr}
 8011548:	4604      	mov	r4, r0
 801154a:	6003      	str	r3, [r0, #0]
 801154c:	f7fc fa38 	bl	800d9c0 <_ZdlPv>
 8011550:	4620      	mov	r0, r4
 8011552:	bd10      	pop	{r4, pc}
 8011554:	08014ec8 	.word	0x08014ec8

08011558 <_ZN12_GLOBAL__N_119font_MWOSD_122_typeD0Ev>:
 8011558:	4b03      	ldr	r3, [pc, #12]	; (8011568 <_ZN12_GLOBAL__N_119font_MWOSD_122_typeD0Ev+0x10>)
 801155a:	b510      	push	{r4, lr}
 801155c:	4604      	mov	r4, r0
 801155e:	6003      	str	r3, [r0, #0]
 8011560:	f7fc fa2e 	bl	800d9c0 <_ZdlPv>
 8011564:	4620      	mov	r0, r4
 8011566:	bd10      	pop	{r4, pc}
 8011568:	08014ec8 	.word	0x08014ec8

0801156c <_ZN12_GLOBAL__N_119font_MWOSD_121_typeD0Ev>:
 801156c:	4b03      	ldr	r3, [pc, #12]	; (801157c <_ZN12_GLOBAL__N_119font_MWOSD_121_typeD0Ev+0x10>)
 801156e:	b510      	push	{r4, lr}
 8011570:	4604      	mov	r4, r0
 8011572:	6003      	str	r3, [r0, #0]
 8011574:	f7fc fa24 	bl	800d9c0 <_ZdlPv>
 8011578:	4620      	mov	r0, r4
 801157a:	bd10      	pop	{r4, pc}
 801157c:	08014ec8 	.word	0x08014ec8

08011580 <_ZN12_GLOBAL__N_119font_MWOSD_120_typeD0Ev>:
 8011580:	4b03      	ldr	r3, [pc, #12]	; (8011590 <_ZN12_GLOBAL__N_119font_MWOSD_120_typeD0Ev+0x10>)
 8011582:	b510      	push	{r4, lr}
 8011584:	4604      	mov	r4, r0
 8011586:	6003      	str	r3, [r0, #0]
 8011588:	f7fc fa1a 	bl	800d9c0 <_ZdlPv>
 801158c:	4620      	mov	r0, r4
 801158e:	bd10      	pop	{r4, pc}
 8011590:	08014ec8 	.word	0x08014ec8

08011594 <_ZN12_GLOBAL__N_119font_MWOSD_119_typeD0Ev>:
 8011594:	4b03      	ldr	r3, [pc, #12]	; (80115a4 <_ZN12_GLOBAL__N_119font_MWOSD_119_typeD0Ev+0x10>)
 8011596:	b510      	push	{r4, lr}
 8011598:	4604      	mov	r4, r0
 801159a:	6003      	str	r3, [r0, #0]
 801159c:	f7fc fa10 	bl	800d9c0 <_ZdlPv>
 80115a0:	4620      	mov	r0, r4
 80115a2:	bd10      	pop	{r4, pc}
 80115a4:	08014ec8 	.word	0x08014ec8

080115a8 <_ZN12_GLOBAL__N_119font_MWOSD_118_typeD0Ev>:
 80115a8:	4b03      	ldr	r3, [pc, #12]	; (80115b8 <_ZN12_GLOBAL__N_119font_MWOSD_118_typeD0Ev+0x10>)
 80115aa:	b510      	push	{r4, lr}
 80115ac:	4604      	mov	r4, r0
 80115ae:	6003      	str	r3, [r0, #0]
 80115b0:	f7fc fa06 	bl	800d9c0 <_ZdlPv>
 80115b4:	4620      	mov	r0, r4
 80115b6:	bd10      	pop	{r4, pc}
 80115b8:	08014ec8 	.word	0x08014ec8

080115bc <_ZN12_GLOBAL__N_119font_MWOSD_117_typeD0Ev>:
 80115bc:	4b03      	ldr	r3, [pc, #12]	; (80115cc <_ZN12_GLOBAL__N_119font_MWOSD_117_typeD0Ev+0x10>)
 80115be:	b510      	push	{r4, lr}
 80115c0:	4604      	mov	r4, r0
 80115c2:	6003      	str	r3, [r0, #0]
 80115c4:	f7fc f9fc 	bl	800d9c0 <_ZdlPv>
 80115c8:	4620      	mov	r0, r4
 80115ca:	bd10      	pop	{r4, pc}
 80115cc:	08014ec8 	.word	0x08014ec8

080115d0 <_ZN12_GLOBAL__N_119font_MWOSD_116_typeD0Ev>:
 80115d0:	4b03      	ldr	r3, [pc, #12]	; (80115e0 <_ZN12_GLOBAL__N_119font_MWOSD_116_typeD0Ev+0x10>)
 80115d2:	b510      	push	{r4, lr}
 80115d4:	4604      	mov	r4, r0
 80115d6:	6003      	str	r3, [r0, #0]
 80115d8:	f7fc f9f2 	bl	800d9c0 <_ZdlPv>
 80115dc:	4620      	mov	r0, r4
 80115de:	bd10      	pop	{r4, pc}
 80115e0:	08014ec8 	.word	0x08014ec8

080115e4 <_ZN12_GLOBAL__N_119font_MWOSD_115_typeD0Ev>:
 80115e4:	4b03      	ldr	r3, [pc, #12]	; (80115f4 <_ZN12_GLOBAL__N_119font_MWOSD_115_typeD0Ev+0x10>)
 80115e6:	b510      	push	{r4, lr}
 80115e8:	4604      	mov	r4, r0
 80115ea:	6003      	str	r3, [r0, #0]
 80115ec:	f7fc f9e8 	bl	800d9c0 <_ZdlPv>
 80115f0:	4620      	mov	r0, r4
 80115f2:	bd10      	pop	{r4, pc}
 80115f4:	08014ec8 	.word	0x08014ec8

080115f8 <_ZN12_GLOBAL__N_119font_MWOSD_114_typeD0Ev>:
 80115f8:	4b03      	ldr	r3, [pc, #12]	; (8011608 <_ZN12_GLOBAL__N_119font_MWOSD_114_typeD0Ev+0x10>)
 80115fa:	b510      	push	{r4, lr}
 80115fc:	4604      	mov	r4, r0
 80115fe:	6003      	str	r3, [r0, #0]
 8011600:	f7fc f9de 	bl	800d9c0 <_ZdlPv>
 8011604:	4620      	mov	r0, r4
 8011606:	bd10      	pop	{r4, pc}
 8011608:	08014ec8 	.word	0x08014ec8

0801160c <_ZN12_GLOBAL__N_119font_MWOSD_113_typeD0Ev>:
 801160c:	4b03      	ldr	r3, [pc, #12]	; (801161c <_ZN12_GLOBAL__N_119font_MWOSD_113_typeD0Ev+0x10>)
 801160e:	b510      	push	{r4, lr}
 8011610:	4604      	mov	r4, r0
 8011612:	6003      	str	r3, [r0, #0]
 8011614:	f7fc f9d4 	bl	800d9c0 <_ZdlPv>
 8011618:	4620      	mov	r0, r4
 801161a:	bd10      	pop	{r4, pc}
 801161c:	08014ec8 	.word	0x08014ec8

08011620 <_ZN12_GLOBAL__N_119font_MWOSD_112_typeD0Ev>:
 8011620:	4b03      	ldr	r3, [pc, #12]	; (8011630 <_ZN12_GLOBAL__N_119font_MWOSD_112_typeD0Ev+0x10>)
 8011622:	b510      	push	{r4, lr}
 8011624:	4604      	mov	r4, r0
 8011626:	6003      	str	r3, [r0, #0]
 8011628:	f7fc f9ca 	bl	800d9c0 <_ZdlPv>
 801162c:	4620      	mov	r0, r4
 801162e:	bd10      	pop	{r4, pc}
 8011630:	08014ec8 	.word	0x08014ec8

08011634 <_ZN12_GLOBAL__N_119font_MWOSD_111_typeD0Ev>:
 8011634:	4b03      	ldr	r3, [pc, #12]	; (8011644 <_ZN12_GLOBAL__N_119font_MWOSD_111_typeD0Ev+0x10>)
 8011636:	b510      	push	{r4, lr}
 8011638:	4604      	mov	r4, r0
 801163a:	6003      	str	r3, [r0, #0]
 801163c:	f7fc f9c0 	bl	800d9c0 <_ZdlPv>
 8011640:	4620      	mov	r0, r4
 8011642:	bd10      	pop	{r4, pc}
 8011644:	08014ec8 	.word	0x08014ec8

08011648 <_ZN12_GLOBAL__N_119font_MWOSD_110_typeD0Ev>:
 8011648:	4b03      	ldr	r3, [pc, #12]	; (8011658 <_ZN12_GLOBAL__N_119font_MWOSD_110_typeD0Ev+0x10>)
 801164a:	b510      	push	{r4, lr}
 801164c:	4604      	mov	r4, r0
 801164e:	6003      	str	r3, [r0, #0]
 8011650:	f7fc f9b6 	bl	800d9c0 <_ZdlPv>
 8011654:	4620      	mov	r0, r4
 8011656:	bd10      	pop	{r4, pc}
 8011658:	08014ec8 	.word	0x08014ec8

0801165c <_ZN12_GLOBAL__N_119font_MWOSD_109_typeD0Ev>:
 801165c:	4b03      	ldr	r3, [pc, #12]	; (801166c <_ZN12_GLOBAL__N_119font_MWOSD_109_typeD0Ev+0x10>)
 801165e:	b510      	push	{r4, lr}
 8011660:	4604      	mov	r4, r0
 8011662:	6003      	str	r3, [r0, #0]
 8011664:	f7fc f9ac 	bl	800d9c0 <_ZdlPv>
 8011668:	4620      	mov	r0, r4
 801166a:	bd10      	pop	{r4, pc}
 801166c:	08014ec8 	.word	0x08014ec8

08011670 <_ZN12_GLOBAL__N_119font_MWOSD_108_typeD0Ev>:
 8011670:	4b03      	ldr	r3, [pc, #12]	; (8011680 <_ZN12_GLOBAL__N_119font_MWOSD_108_typeD0Ev+0x10>)
 8011672:	b510      	push	{r4, lr}
 8011674:	4604      	mov	r4, r0
 8011676:	6003      	str	r3, [r0, #0]
 8011678:	f7fc f9a2 	bl	800d9c0 <_ZdlPv>
 801167c:	4620      	mov	r0, r4
 801167e:	bd10      	pop	{r4, pc}
 8011680:	08014ec8 	.word	0x08014ec8

08011684 <_ZN12_GLOBAL__N_119font_MWOSD_107_typeD0Ev>:
 8011684:	4b03      	ldr	r3, [pc, #12]	; (8011694 <_ZN12_GLOBAL__N_119font_MWOSD_107_typeD0Ev+0x10>)
 8011686:	b510      	push	{r4, lr}
 8011688:	4604      	mov	r4, r0
 801168a:	6003      	str	r3, [r0, #0]
 801168c:	f7fc f998 	bl	800d9c0 <_ZdlPv>
 8011690:	4620      	mov	r0, r4
 8011692:	bd10      	pop	{r4, pc}
 8011694:	08014ec8 	.word	0x08014ec8

08011698 <_ZN12_GLOBAL__N_119font_MWOSD_106_typeD0Ev>:
 8011698:	4b03      	ldr	r3, [pc, #12]	; (80116a8 <_ZN12_GLOBAL__N_119font_MWOSD_106_typeD0Ev+0x10>)
 801169a:	b510      	push	{r4, lr}
 801169c:	4604      	mov	r4, r0
 801169e:	6003      	str	r3, [r0, #0]
 80116a0:	f7fc f98e 	bl	800d9c0 <_ZdlPv>
 80116a4:	4620      	mov	r0, r4
 80116a6:	bd10      	pop	{r4, pc}
 80116a8:	08014ec8 	.word	0x08014ec8

080116ac <_ZN12_GLOBAL__N_119font_MWOSD_105_typeD0Ev>:
 80116ac:	4b03      	ldr	r3, [pc, #12]	; (80116bc <_ZN12_GLOBAL__N_119font_MWOSD_105_typeD0Ev+0x10>)
 80116ae:	b510      	push	{r4, lr}
 80116b0:	4604      	mov	r4, r0
 80116b2:	6003      	str	r3, [r0, #0]
 80116b4:	f7fc f984 	bl	800d9c0 <_ZdlPv>
 80116b8:	4620      	mov	r0, r4
 80116ba:	bd10      	pop	{r4, pc}
 80116bc:	08014ec8 	.word	0x08014ec8

080116c0 <_ZN12_GLOBAL__N_119font_MWOSD_104_typeD0Ev>:
 80116c0:	4b03      	ldr	r3, [pc, #12]	; (80116d0 <_ZN12_GLOBAL__N_119font_MWOSD_104_typeD0Ev+0x10>)
 80116c2:	b510      	push	{r4, lr}
 80116c4:	4604      	mov	r4, r0
 80116c6:	6003      	str	r3, [r0, #0]
 80116c8:	f7fc f97a 	bl	800d9c0 <_ZdlPv>
 80116cc:	4620      	mov	r0, r4
 80116ce:	bd10      	pop	{r4, pc}
 80116d0:	08014ec8 	.word	0x08014ec8

080116d4 <_ZN12_GLOBAL__N_119font_MWOSD_103_typeD0Ev>:
 80116d4:	4b03      	ldr	r3, [pc, #12]	; (80116e4 <_ZN12_GLOBAL__N_119font_MWOSD_103_typeD0Ev+0x10>)
 80116d6:	b510      	push	{r4, lr}
 80116d8:	4604      	mov	r4, r0
 80116da:	6003      	str	r3, [r0, #0]
 80116dc:	f7fc f970 	bl	800d9c0 <_ZdlPv>
 80116e0:	4620      	mov	r0, r4
 80116e2:	bd10      	pop	{r4, pc}
 80116e4:	08014ec8 	.word	0x08014ec8

080116e8 <_ZN12_GLOBAL__N_119font_MWOSD_102_typeD0Ev>:
 80116e8:	4b03      	ldr	r3, [pc, #12]	; (80116f8 <_ZN12_GLOBAL__N_119font_MWOSD_102_typeD0Ev+0x10>)
 80116ea:	b510      	push	{r4, lr}
 80116ec:	4604      	mov	r4, r0
 80116ee:	6003      	str	r3, [r0, #0]
 80116f0:	f7fc f966 	bl	800d9c0 <_ZdlPv>
 80116f4:	4620      	mov	r0, r4
 80116f6:	bd10      	pop	{r4, pc}
 80116f8:	08014ec8 	.word	0x08014ec8

080116fc <_ZN12_GLOBAL__N_119font_MWOSD_101_typeD0Ev>:
 80116fc:	4b03      	ldr	r3, [pc, #12]	; (801170c <_ZN12_GLOBAL__N_119font_MWOSD_101_typeD0Ev+0x10>)
 80116fe:	b510      	push	{r4, lr}
 8011700:	4604      	mov	r4, r0
 8011702:	6003      	str	r3, [r0, #0]
 8011704:	f7fc f95c 	bl	800d9c0 <_ZdlPv>
 8011708:	4620      	mov	r0, r4
 801170a:	bd10      	pop	{r4, pc}
 801170c:	08014ec8 	.word	0x08014ec8

08011710 <_ZN12_GLOBAL__N_119font_MWOSD_100_typeD0Ev>:
 8011710:	4b03      	ldr	r3, [pc, #12]	; (8011720 <_ZN12_GLOBAL__N_119font_MWOSD_100_typeD0Ev+0x10>)
 8011712:	b510      	push	{r4, lr}
 8011714:	4604      	mov	r4, r0
 8011716:	6003      	str	r3, [r0, #0]
 8011718:	f7fc f952 	bl	800d9c0 <_ZdlPv>
 801171c:	4620      	mov	r0, r4
 801171e:	bd10      	pop	{r4, pc}
 8011720:	08014ec8 	.word	0x08014ec8

08011724 <_ZN12_GLOBAL__N_118font_MWOSD_99_typeD0Ev>:
 8011724:	4b03      	ldr	r3, [pc, #12]	; (8011734 <_ZN12_GLOBAL__N_118font_MWOSD_99_typeD0Ev+0x10>)
 8011726:	b510      	push	{r4, lr}
 8011728:	4604      	mov	r4, r0
 801172a:	6003      	str	r3, [r0, #0]
 801172c:	f7fc f948 	bl	800d9c0 <_ZdlPv>
 8011730:	4620      	mov	r0, r4
 8011732:	bd10      	pop	{r4, pc}
 8011734:	08014ec8 	.word	0x08014ec8

08011738 <_ZN12_GLOBAL__N_118font_MWOSD_98_typeD0Ev>:
 8011738:	4b03      	ldr	r3, [pc, #12]	; (8011748 <_ZN12_GLOBAL__N_118font_MWOSD_98_typeD0Ev+0x10>)
 801173a:	b510      	push	{r4, lr}
 801173c:	4604      	mov	r4, r0
 801173e:	6003      	str	r3, [r0, #0]
 8011740:	f7fc f93e 	bl	800d9c0 <_ZdlPv>
 8011744:	4620      	mov	r0, r4
 8011746:	bd10      	pop	{r4, pc}
 8011748:	08014ec8 	.word	0x08014ec8

0801174c <_ZN12_GLOBAL__N_118font_MWOSD_97_typeD0Ev>:
 801174c:	4b03      	ldr	r3, [pc, #12]	; (801175c <_ZN12_GLOBAL__N_118font_MWOSD_97_typeD0Ev+0x10>)
 801174e:	b510      	push	{r4, lr}
 8011750:	4604      	mov	r4, r0
 8011752:	6003      	str	r3, [r0, #0]
 8011754:	f7fc f934 	bl	800d9c0 <_ZdlPv>
 8011758:	4620      	mov	r0, r4
 801175a:	bd10      	pop	{r4, pc}
 801175c:	08014ec8 	.word	0x08014ec8

08011760 <_ZN12_GLOBAL__N_118font_MWOSD_96_typeD0Ev>:
 8011760:	4b03      	ldr	r3, [pc, #12]	; (8011770 <_ZN12_GLOBAL__N_118font_MWOSD_96_typeD0Ev+0x10>)
 8011762:	b510      	push	{r4, lr}
 8011764:	4604      	mov	r4, r0
 8011766:	6003      	str	r3, [r0, #0]
 8011768:	f7fc f92a 	bl	800d9c0 <_ZdlPv>
 801176c:	4620      	mov	r0, r4
 801176e:	bd10      	pop	{r4, pc}
 8011770:	08014ec8 	.word	0x08014ec8

08011774 <_ZN12_GLOBAL__N_118font_MWOSD_95_typeD0Ev>:
 8011774:	4b03      	ldr	r3, [pc, #12]	; (8011784 <_ZN12_GLOBAL__N_118font_MWOSD_95_typeD0Ev+0x10>)
 8011776:	b510      	push	{r4, lr}
 8011778:	4604      	mov	r4, r0
 801177a:	6003      	str	r3, [r0, #0]
 801177c:	f7fc f920 	bl	800d9c0 <_ZdlPv>
 8011780:	4620      	mov	r0, r4
 8011782:	bd10      	pop	{r4, pc}
 8011784:	08014ec8 	.word	0x08014ec8

08011788 <_ZN12_GLOBAL__N_118font_MWOSD_94_typeD0Ev>:
 8011788:	4b03      	ldr	r3, [pc, #12]	; (8011798 <_ZN12_GLOBAL__N_118font_MWOSD_94_typeD0Ev+0x10>)
 801178a:	b510      	push	{r4, lr}
 801178c:	4604      	mov	r4, r0
 801178e:	6003      	str	r3, [r0, #0]
 8011790:	f7fc f916 	bl	800d9c0 <_ZdlPv>
 8011794:	4620      	mov	r0, r4
 8011796:	bd10      	pop	{r4, pc}
 8011798:	08014ec8 	.word	0x08014ec8

0801179c <_ZN12_GLOBAL__N_118font_MWOSD_93_typeD0Ev>:
 801179c:	4b03      	ldr	r3, [pc, #12]	; (80117ac <_ZN12_GLOBAL__N_118font_MWOSD_93_typeD0Ev+0x10>)
 801179e:	b510      	push	{r4, lr}
 80117a0:	4604      	mov	r4, r0
 80117a2:	6003      	str	r3, [r0, #0]
 80117a4:	f7fc f90c 	bl	800d9c0 <_ZdlPv>
 80117a8:	4620      	mov	r0, r4
 80117aa:	bd10      	pop	{r4, pc}
 80117ac:	08014ec8 	.word	0x08014ec8

080117b0 <_ZN12_GLOBAL__N_118font_MWOSD_92_typeD0Ev>:
 80117b0:	4b03      	ldr	r3, [pc, #12]	; (80117c0 <_ZN12_GLOBAL__N_118font_MWOSD_92_typeD0Ev+0x10>)
 80117b2:	b510      	push	{r4, lr}
 80117b4:	4604      	mov	r4, r0
 80117b6:	6003      	str	r3, [r0, #0]
 80117b8:	f7fc f902 	bl	800d9c0 <_ZdlPv>
 80117bc:	4620      	mov	r0, r4
 80117be:	bd10      	pop	{r4, pc}
 80117c0:	08014ec8 	.word	0x08014ec8

080117c4 <_ZN12_GLOBAL__N_118font_MWOSD_91_typeD0Ev>:
 80117c4:	4b03      	ldr	r3, [pc, #12]	; (80117d4 <_ZN12_GLOBAL__N_118font_MWOSD_91_typeD0Ev+0x10>)
 80117c6:	b510      	push	{r4, lr}
 80117c8:	4604      	mov	r4, r0
 80117ca:	6003      	str	r3, [r0, #0]
 80117cc:	f7fc f8f8 	bl	800d9c0 <_ZdlPv>
 80117d0:	4620      	mov	r0, r4
 80117d2:	bd10      	pop	{r4, pc}
 80117d4:	08014ec8 	.word	0x08014ec8

080117d8 <_ZN12_GLOBAL__N_118font_MWOSD_90_typeD0Ev>:
 80117d8:	4b03      	ldr	r3, [pc, #12]	; (80117e8 <_ZN12_GLOBAL__N_118font_MWOSD_90_typeD0Ev+0x10>)
 80117da:	b510      	push	{r4, lr}
 80117dc:	4604      	mov	r4, r0
 80117de:	6003      	str	r3, [r0, #0]
 80117e0:	f7fc f8ee 	bl	800d9c0 <_ZdlPv>
 80117e4:	4620      	mov	r0, r4
 80117e6:	bd10      	pop	{r4, pc}
 80117e8:	08014ec8 	.word	0x08014ec8

080117ec <_ZN12_GLOBAL__N_118font_MWOSD_89_typeD0Ev>:
 80117ec:	4b03      	ldr	r3, [pc, #12]	; (80117fc <_ZN12_GLOBAL__N_118font_MWOSD_89_typeD0Ev+0x10>)
 80117ee:	b510      	push	{r4, lr}
 80117f0:	4604      	mov	r4, r0
 80117f2:	6003      	str	r3, [r0, #0]
 80117f4:	f7fc f8e4 	bl	800d9c0 <_ZdlPv>
 80117f8:	4620      	mov	r0, r4
 80117fa:	bd10      	pop	{r4, pc}
 80117fc:	08014ec8 	.word	0x08014ec8

08011800 <_ZN12_GLOBAL__N_118font_MWOSD_88_typeD0Ev>:
 8011800:	4b03      	ldr	r3, [pc, #12]	; (8011810 <_ZN12_GLOBAL__N_118font_MWOSD_88_typeD0Ev+0x10>)
 8011802:	b510      	push	{r4, lr}
 8011804:	4604      	mov	r4, r0
 8011806:	6003      	str	r3, [r0, #0]
 8011808:	f7fc f8da 	bl	800d9c0 <_ZdlPv>
 801180c:	4620      	mov	r0, r4
 801180e:	bd10      	pop	{r4, pc}
 8011810:	08014ec8 	.word	0x08014ec8

08011814 <_ZN12_GLOBAL__N_118font_MWOSD_87_typeD0Ev>:
 8011814:	4b03      	ldr	r3, [pc, #12]	; (8011824 <_ZN12_GLOBAL__N_118font_MWOSD_87_typeD0Ev+0x10>)
 8011816:	b510      	push	{r4, lr}
 8011818:	4604      	mov	r4, r0
 801181a:	6003      	str	r3, [r0, #0]
 801181c:	f7fc f8d0 	bl	800d9c0 <_ZdlPv>
 8011820:	4620      	mov	r0, r4
 8011822:	bd10      	pop	{r4, pc}
 8011824:	08014ec8 	.word	0x08014ec8

08011828 <_ZN12_GLOBAL__N_118font_MWOSD_86_typeD0Ev>:
 8011828:	4b03      	ldr	r3, [pc, #12]	; (8011838 <_ZN12_GLOBAL__N_118font_MWOSD_86_typeD0Ev+0x10>)
 801182a:	b510      	push	{r4, lr}
 801182c:	4604      	mov	r4, r0
 801182e:	6003      	str	r3, [r0, #0]
 8011830:	f7fc f8c6 	bl	800d9c0 <_ZdlPv>
 8011834:	4620      	mov	r0, r4
 8011836:	bd10      	pop	{r4, pc}
 8011838:	08014ec8 	.word	0x08014ec8

0801183c <_ZN12_GLOBAL__N_118font_MWOSD_85_typeD0Ev>:
 801183c:	4b03      	ldr	r3, [pc, #12]	; (801184c <_ZN12_GLOBAL__N_118font_MWOSD_85_typeD0Ev+0x10>)
 801183e:	b510      	push	{r4, lr}
 8011840:	4604      	mov	r4, r0
 8011842:	6003      	str	r3, [r0, #0]
 8011844:	f7fc f8bc 	bl	800d9c0 <_ZdlPv>
 8011848:	4620      	mov	r0, r4
 801184a:	bd10      	pop	{r4, pc}
 801184c:	08014ec8 	.word	0x08014ec8

08011850 <_ZN12_GLOBAL__N_118font_MWOSD_84_typeD0Ev>:
 8011850:	4b03      	ldr	r3, [pc, #12]	; (8011860 <_ZN12_GLOBAL__N_118font_MWOSD_84_typeD0Ev+0x10>)
 8011852:	b510      	push	{r4, lr}
 8011854:	4604      	mov	r4, r0
 8011856:	6003      	str	r3, [r0, #0]
 8011858:	f7fc f8b2 	bl	800d9c0 <_ZdlPv>
 801185c:	4620      	mov	r0, r4
 801185e:	bd10      	pop	{r4, pc}
 8011860:	08014ec8 	.word	0x08014ec8

08011864 <_ZN12_GLOBAL__N_118font_MWOSD_83_typeD0Ev>:
 8011864:	4b03      	ldr	r3, [pc, #12]	; (8011874 <_ZN12_GLOBAL__N_118font_MWOSD_83_typeD0Ev+0x10>)
 8011866:	b510      	push	{r4, lr}
 8011868:	4604      	mov	r4, r0
 801186a:	6003      	str	r3, [r0, #0]
 801186c:	f7fc f8a8 	bl	800d9c0 <_ZdlPv>
 8011870:	4620      	mov	r0, r4
 8011872:	bd10      	pop	{r4, pc}
 8011874:	08014ec8 	.word	0x08014ec8

08011878 <_ZN12_GLOBAL__N_118font_MWOSD_82_typeD0Ev>:
 8011878:	4b03      	ldr	r3, [pc, #12]	; (8011888 <_ZN12_GLOBAL__N_118font_MWOSD_82_typeD0Ev+0x10>)
 801187a:	b510      	push	{r4, lr}
 801187c:	4604      	mov	r4, r0
 801187e:	6003      	str	r3, [r0, #0]
 8011880:	f7fc f89e 	bl	800d9c0 <_ZdlPv>
 8011884:	4620      	mov	r0, r4
 8011886:	bd10      	pop	{r4, pc}
 8011888:	08014ec8 	.word	0x08014ec8

0801188c <_ZN12_GLOBAL__N_118font_MWOSD_81_typeD0Ev>:
 801188c:	4b03      	ldr	r3, [pc, #12]	; (801189c <_ZN12_GLOBAL__N_118font_MWOSD_81_typeD0Ev+0x10>)
 801188e:	b510      	push	{r4, lr}
 8011890:	4604      	mov	r4, r0
 8011892:	6003      	str	r3, [r0, #0]
 8011894:	f7fc f894 	bl	800d9c0 <_ZdlPv>
 8011898:	4620      	mov	r0, r4
 801189a:	bd10      	pop	{r4, pc}
 801189c:	08014ec8 	.word	0x08014ec8

080118a0 <_ZN12_GLOBAL__N_118font_MWOSD_80_typeD0Ev>:
 80118a0:	4b03      	ldr	r3, [pc, #12]	; (80118b0 <_ZN12_GLOBAL__N_118font_MWOSD_80_typeD0Ev+0x10>)
 80118a2:	b510      	push	{r4, lr}
 80118a4:	4604      	mov	r4, r0
 80118a6:	6003      	str	r3, [r0, #0]
 80118a8:	f7fc f88a 	bl	800d9c0 <_ZdlPv>
 80118ac:	4620      	mov	r0, r4
 80118ae:	bd10      	pop	{r4, pc}
 80118b0:	08014ec8 	.word	0x08014ec8

080118b4 <_ZN12_GLOBAL__N_118font_MWOSD_79_typeD0Ev>:
 80118b4:	4b03      	ldr	r3, [pc, #12]	; (80118c4 <_ZN12_GLOBAL__N_118font_MWOSD_79_typeD0Ev+0x10>)
 80118b6:	b510      	push	{r4, lr}
 80118b8:	4604      	mov	r4, r0
 80118ba:	6003      	str	r3, [r0, #0]
 80118bc:	f7fc f880 	bl	800d9c0 <_ZdlPv>
 80118c0:	4620      	mov	r0, r4
 80118c2:	bd10      	pop	{r4, pc}
 80118c4:	08014ec8 	.word	0x08014ec8

080118c8 <_ZN12_GLOBAL__N_118font_MWOSD_78_typeD0Ev>:
 80118c8:	4b03      	ldr	r3, [pc, #12]	; (80118d8 <_ZN12_GLOBAL__N_118font_MWOSD_78_typeD0Ev+0x10>)
 80118ca:	b510      	push	{r4, lr}
 80118cc:	4604      	mov	r4, r0
 80118ce:	6003      	str	r3, [r0, #0]
 80118d0:	f7fc f876 	bl	800d9c0 <_ZdlPv>
 80118d4:	4620      	mov	r0, r4
 80118d6:	bd10      	pop	{r4, pc}
 80118d8:	08014ec8 	.word	0x08014ec8

080118dc <_ZN12_GLOBAL__N_118font_MWOSD_77_typeD0Ev>:
 80118dc:	4b03      	ldr	r3, [pc, #12]	; (80118ec <_ZN12_GLOBAL__N_118font_MWOSD_77_typeD0Ev+0x10>)
 80118de:	b510      	push	{r4, lr}
 80118e0:	4604      	mov	r4, r0
 80118e2:	6003      	str	r3, [r0, #0]
 80118e4:	f7fc f86c 	bl	800d9c0 <_ZdlPv>
 80118e8:	4620      	mov	r0, r4
 80118ea:	bd10      	pop	{r4, pc}
 80118ec:	08014ec8 	.word	0x08014ec8

080118f0 <_ZN12_GLOBAL__N_118font_MWOSD_76_typeD0Ev>:
 80118f0:	4b03      	ldr	r3, [pc, #12]	; (8011900 <_ZN12_GLOBAL__N_118font_MWOSD_76_typeD0Ev+0x10>)
 80118f2:	b510      	push	{r4, lr}
 80118f4:	4604      	mov	r4, r0
 80118f6:	6003      	str	r3, [r0, #0]
 80118f8:	f7fc f862 	bl	800d9c0 <_ZdlPv>
 80118fc:	4620      	mov	r0, r4
 80118fe:	bd10      	pop	{r4, pc}
 8011900:	08014ec8 	.word	0x08014ec8

08011904 <_ZN12_GLOBAL__N_118font_MWOSD_75_typeD0Ev>:
 8011904:	4b03      	ldr	r3, [pc, #12]	; (8011914 <_ZN12_GLOBAL__N_118font_MWOSD_75_typeD0Ev+0x10>)
 8011906:	b510      	push	{r4, lr}
 8011908:	4604      	mov	r4, r0
 801190a:	6003      	str	r3, [r0, #0]
 801190c:	f7fc f858 	bl	800d9c0 <_ZdlPv>
 8011910:	4620      	mov	r0, r4
 8011912:	bd10      	pop	{r4, pc}
 8011914:	08014ec8 	.word	0x08014ec8

08011918 <_ZN12_GLOBAL__N_118font_MWOSD_74_typeD0Ev>:
 8011918:	4b03      	ldr	r3, [pc, #12]	; (8011928 <_ZN12_GLOBAL__N_118font_MWOSD_74_typeD0Ev+0x10>)
 801191a:	b510      	push	{r4, lr}
 801191c:	4604      	mov	r4, r0
 801191e:	6003      	str	r3, [r0, #0]
 8011920:	f7fc f84e 	bl	800d9c0 <_ZdlPv>
 8011924:	4620      	mov	r0, r4
 8011926:	bd10      	pop	{r4, pc}
 8011928:	08014ec8 	.word	0x08014ec8

0801192c <_ZN12_GLOBAL__N_118font_MWOSD_73_typeD0Ev>:
 801192c:	4b03      	ldr	r3, [pc, #12]	; (801193c <_ZN12_GLOBAL__N_118font_MWOSD_73_typeD0Ev+0x10>)
 801192e:	b510      	push	{r4, lr}
 8011930:	4604      	mov	r4, r0
 8011932:	6003      	str	r3, [r0, #0]
 8011934:	f7fc f844 	bl	800d9c0 <_ZdlPv>
 8011938:	4620      	mov	r0, r4
 801193a:	bd10      	pop	{r4, pc}
 801193c:	08014ec8 	.word	0x08014ec8

08011940 <_ZN12_GLOBAL__N_118font_MWOSD_72_typeD0Ev>:
 8011940:	4b03      	ldr	r3, [pc, #12]	; (8011950 <_ZN12_GLOBAL__N_118font_MWOSD_72_typeD0Ev+0x10>)
 8011942:	b510      	push	{r4, lr}
 8011944:	4604      	mov	r4, r0
 8011946:	6003      	str	r3, [r0, #0]
 8011948:	f7fc f83a 	bl	800d9c0 <_ZdlPv>
 801194c:	4620      	mov	r0, r4
 801194e:	bd10      	pop	{r4, pc}
 8011950:	08014ec8 	.word	0x08014ec8

08011954 <_ZN12_GLOBAL__N_118font_MWOSD_71_typeD0Ev>:
 8011954:	4b03      	ldr	r3, [pc, #12]	; (8011964 <_ZN12_GLOBAL__N_118font_MWOSD_71_typeD0Ev+0x10>)
 8011956:	b510      	push	{r4, lr}
 8011958:	4604      	mov	r4, r0
 801195a:	6003      	str	r3, [r0, #0]
 801195c:	f7fc f830 	bl	800d9c0 <_ZdlPv>
 8011960:	4620      	mov	r0, r4
 8011962:	bd10      	pop	{r4, pc}
 8011964:	08014ec8 	.word	0x08014ec8

08011968 <_ZN12_GLOBAL__N_118font_MWOSD_70_typeD0Ev>:
 8011968:	4b03      	ldr	r3, [pc, #12]	; (8011978 <_ZN12_GLOBAL__N_118font_MWOSD_70_typeD0Ev+0x10>)
 801196a:	b510      	push	{r4, lr}
 801196c:	4604      	mov	r4, r0
 801196e:	6003      	str	r3, [r0, #0]
 8011970:	f7fc f826 	bl	800d9c0 <_ZdlPv>
 8011974:	4620      	mov	r0, r4
 8011976:	bd10      	pop	{r4, pc}
 8011978:	08014ec8 	.word	0x08014ec8

0801197c <_ZN12_GLOBAL__N_118font_MWOSD_69_typeD0Ev>:
 801197c:	4b03      	ldr	r3, [pc, #12]	; (801198c <_ZN12_GLOBAL__N_118font_MWOSD_69_typeD0Ev+0x10>)
 801197e:	b510      	push	{r4, lr}
 8011980:	4604      	mov	r4, r0
 8011982:	6003      	str	r3, [r0, #0]
 8011984:	f7fc f81c 	bl	800d9c0 <_ZdlPv>
 8011988:	4620      	mov	r0, r4
 801198a:	bd10      	pop	{r4, pc}
 801198c:	08014ec8 	.word	0x08014ec8

08011990 <_ZN12_GLOBAL__N_118font_MWOSD_68_typeD0Ev>:
 8011990:	4b03      	ldr	r3, [pc, #12]	; (80119a0 <_ZN12_GLOBAL__N_118font_MWOSD_68_typeD0Ev+0x10>)
 8011992:	b510      	push	{r4, lr}
 8011994:	4604      	mov	r4, r0
 8011996:	6003      	str	r3, [r0, #0]
 8011998:	f7fc f812 	bl	800d9c0 <_ZdlPv>
 801199c:	4620      	mov	r0, r4
 801199e:	bd10      	pop	{r4, pc}
 80119a0:	08014ec8 	.word	0x08014ec8

080119a4 <_ZN12_GLOBAL__N_118font_MWOSD_67_typeD0Ev>:
 80119a4:	4b03      	ldr	r3, [pc, #12]	; (80119b4 <_ZN12_GLOBAL__N_118font_MWOSD_67_typeD0Ev+0x10>)
 80119a6:	b510      	push	{r4, lr}
 80119a8:	4604      	mov	r4, r0
 80119aa:	6003      	str	r3, [r0, #0]
 80119ac:	f7fc f808 	bl	800d9c0 <_ZdlPv>
 80119b0:	4620      	mov	r0, r4
 80119b2:	bd10      	pop	{r4, pc}
 80119b4:	08014ec8 	.word	0x08014ec8

080119b8 <_ZN12_GLOBAL__N_118font_MWOSD_66_typeD0Ev>:
 80119b8:	4b03      	ldr	r3, [pc, #12]	; (80119c8 <_ZN12_GLOBAL__N_118font_MWOSD_66_typeD0Ev+0x10>)
 80119ba:	b510      	push	{r4, lr}
 80119bc:	4604      	mov	r4, r0
 80119be:	6003      	str	r3, [r0, #0]
 80119c0:	f7fb fffe 	bl	800d9c0 <_ZdlPv>
 80119c4:	4620      	mov	r0, r4
 80119c6:	bd10      	pop	{r4, pc}
 80119c8:	08014ec8 	.word	0x08014ec8

080119cc <_ZN12_GLOBAL__N_118font_MWOSD_65_typeD0Ev>:
 80119cc:	4b03      	ldr	r3, [pc, #12]	; (80119dc <_ZN12_GLOBAL__N_118font_MWOSD_65_typeD0Ev+0x10>)
 80119ce:	b510      	push	{r4, lr}
 80119d0:	4604      	mov	r4, r0
 80119d2:	6003      	str	r3, [r0, #0]
 80119d4:	f7fb fff4 	bl	800d9c0 <_ZdlPv>
 80119d8:	4620      	mov	r0, r4
 80119da:	bd10      	pop	{r4, pc}
 80119dc:	08014ec8 	.word	0x08014ec8

080119e0 <_ZN12_GLOBAL__N_118font_MWOSD_64_typeD0Ev>:
 80119e0:	4b03      	ldr	r3, [pc, #12]	; (80119f0 <_ZN12_GLOBAL__N_118font_MWOSD_64_typeD0Ev+0x10>)
 80119e2:	b510      	push	{r4, lr}
 80119e4:	4604      	mov	r4, r0
 80119e6:	6003      	str	r3, [r0, #0]
 80119e8:	f7fb ffea 	bl	800d9c0 <_ZdlPv>
 80119ec:	4620      	mov	r0, r4
 80119ee:	bd10      	pop	{r4, pc}
 80119f0:	08014ec8 	.word	0x08014ec8

080119f4 <_ZN12_GLOBAL__N_118font_MWOSD_63_typeD0Ev>:
 80119f4:	4b03      	ldr	r3, [pc, #12]	; (8011a04 <_ZN12_GLOBAL__N_118font_MWOSD_63_typeD0Ev+0x10>)
 80119f6:	b510      	push	{r4, lr}
 80119f8:	4604      	mov	r4, r0
 80119fa:	6003      	str	r3, [r0, #0]
 80119fc:	f7fb ffe0 	bl	800d9c0 <_ZdlPv>
 8011a00:	4620      	mov	r0, r4
 8011a02:	bd10      	pop	{r4, pc}
 8011a04:	08014ec8 	.word	0x08014ec8

08011a08 <_ZN12_GLOBAL__N_118font_MWOSD_62_typeD0Ev>:
 8011a08:	4b03      	ldr	r3, [pc, #12]	; (8011a18 <_ZN12_GLOBAL__N_118font_MWOSD_62_typeD0Ev+0x10>)
 8011a0a:	b510      	push	{r4, lr}
 8011a0c:	4604      	mov	r4, r0
 8011a0e:	6003      	str	r3, [r0, #0]
 8011a10:	f7fb ffd6 	bl	800d9c0 <_ZdlPv>
 8011a14:	4620      	mov	r0, r4
 8011a16:	bd10      	pop	{r4, pc}
 8011a18:	08014ec8 	.word	0x08014ec8

08011a1c <_ZN12_GLOBAL__N_118font_MWOSD_61_typeD0Ev>:
 8011a1c:	4b03      	ldr	r3, [pc, #12]	; (8011a2c <_ZN12_GLOBAL__N_118font_MWOSD_61_typeD0Ev+0x10>)
 8011a1e:	b510      	push	{r4, lr}
 8011a20:	4604      	mov	r4, r0
 8011a22:	6003      	str	r3, [r0, #0]
 8011a24:	f7fb ffcc 	bl	800d9c0 <_ZdlPv>
 8011a28:	4620      	mov	r0, r4
 8011a2a:	bd10      	pop	{r4, pc}
 8011a2c:	08014ec8 	.word	0x08014ec8

08011a30 <_ZN12_GLOBAL__N_118font_MWOSD_60_typeD0Ev>:
 8011a30:	4b03      	ldr	r3, [pc, #12]	; (8011a40 <_ZN12_GLOBAL__N_118font_MWOSD_60_typeD0Ev+0x10>)
 8011a32:	b510      	push	{r4, lr}
 8011a34:	4604      	mov	r4, r0
 8011a36:	6003      	str	r3, [r0, #0]
 8011a38:	f7fb ffc2 	bl	800d9c0 <_ZdlPv>
 8011a3c:	4620      	mov	r0, r4
 8011a3e:	bd10      	pop	{r4, pc}
 8011a40:	08014ec8 	.word	0x08014ec8

08011a44 <_ZN12_GLOBAL__N_118font_MWOSD_59_typeD0Ev>:
 8011a44:	4b03      	ldr	r3, [pc, #12]	; (8011a54 <_ZN12_GLOBAL__N_118font_MWOSD_59_typeD0Ev+0x10>)
 8011a46:	b510      	push	{r4, lr}
 8011a48:	4604      	mov	r4, r0
 8011a4a:	6003      	str	r3, [r0, #0]
 8011a4c:	f7fb ffb8 	bl	800d9c0 <_ZdlPv>
 8011a50:	4620      	mov	r0, r4
 8011a52:	bd10      	pop	{r4, pc}
 8011a54:	08014ec8 	.word	0x08014ec8

08011a58 <_ZN12_GLOBAL__N_118font_MWOSD_58_typeD0Ev>:
 8011a58:	4b03      	ldr	r3, [pc, #12]	; (8011a68 <_ZN12_GLOBAL__N_118font_MWOSD_58_typeD0Ev+0x10>)
 8011a5a:	b510      	push	{r4, lr}
 8011a5c:	4604      	mov	r4, r0
 8011a5e:	6003      	str	r3, [r0, #0]
 8011a60:	f7fb ffae 	bl	800d9c0 <_ZdlPv>
 8011a64:	4620      	mov	r0, r4
 8011a66:	bd10      	pop	{r4, pc}
 8011a68:	08014ec8 	.word	0x08014ec8

08011a6c <_ZN12_GLOBAL__N_118font_MWOSD_57_typeD0Ev>:
 8011a6c:	4b03      	ldr	r3, [pc, #12]	; (8011a7c <_ZN12_GLOBAL__N_118font_MWOSD_57_typeD0Ev+0x10>)
 8011a6e:	b510      	push	{r4, lr}
 8011a70:	4604      	mov	r4, r0
 8011a72:	6003      	str	r3, [r0, #0]
 8011a74:	f7fb ffa4 	bl	800d9c0 <_ZdlPv>
 8011a78:	4620      	mov	r0, r4
 8011a7a:	bd10      	pop	{r4, pc}
 8011a7c:	08014ec8 	.word	0x08014ec8

08011a80 <_ZN12_GLOBAL__N_118font_MWOSD_56_typeD0Ev>:
 8011a80:	4b03      	ldr	r3, [pc, #12]	; (8011a90 <_ZN12_GLOBAL__N_118font_MWOSD_56_typeD0Ev+0x10>)
 8011a82:	b510      	push	{r4, lr}
 8011a84:	4604      	mov	r4, r0
 8011a86:	6003      	str	r3, [r0, #0]
 8011a88:	f7fb ff9a 	bl	800d9c0 <_ZdlPv>
 8011a8c:	4620      	mov	r0, r4
 8011a8e:	bd10      	pop	{r4, pc}
 8011a90:	08014ec8 	.word	0x08014ec8

08011a94 <_ZN12_GLOBAL__N_118font_MWOSD_55_typeD0Ev>:
 8011a94:	4b03      	ldr	r3, [pc, #12]	; (8011aa4 <_ZN12_GLOBAL__N_118font_MWOSD_55_typeD0Ev+0x10>)
 8011a96:	b510      	push	{r4, lr}
 8011a98:	4604      	mov	r4, r0
 8011a9a:	6003      	str	r3, [r0, #0]
 8011a9c:	f7fb ff90 	bl	800d9c0 <_ZdlPv>
 8011aa0:	4620      	mov	r0, r4
 8011aa2:	bd10      	pop	{r4, pc}
 8011aa4:	08014ec8 	.word	0x08014ec8

08011aa8 <_ZN12_GLOBAL__N_118font_MWOSD_54_typeD0Ev>:
 8011aa8:	4b03      	ldr	r3, [pc, #12]	; (8011ab8 <_ZN12_GLOBAL__N_118font_MWOSD_54_typeD0Ev+0x10>)
 8011aaa:	b510      	push	{r4, lr}
 8011aac:	4604      	mov	r4, r0
 8011aae:	6003      	str	r3, [r0, #0]
 8011ab0:	f7fb ff86 	bl	800d9c0 <_ZdlPv>
 8011ab4:	4620      	mov	r0, r4
 8011ab6:	bd10      	pop	{r4, pc}
 8011ab8:	08014ec8 	.word	0x08014ec8

08011abc <_ZN12_GLOBAL__N_118font_MWOSD_53_typeD0Ev>:
 8011abc:	4b03      	ldr	r3, [pc, #12]	; (8011acc <_ZN12_GLOBAL__N_118font_MWOSD_53_typeD0Ev+0x10>)
 8011abe:	b510      	push	{r4, lr}
 8011ac0:	4604      	mov	r4, r0
 8011ac2:	6003      	str	r3, [r0, #0]
 8011ac4:	f7fb ff7c 	bl	800d9c0 <_ZdlPv>
 8011ac8:	4620      	mov	r0, r4
 8011aca:	bd10      	pop	{r4, pc}
 8011acc:	08014ec8 	.word	0x08014ec8

08011ad0 <_ZN12_GLOBAL__N_118font_MWOSD_52_typeD0Ev>:
 8011ad0:	4b03      	ldr	r3, [pc, #12]	; (8011ae0 <_ZN12_GLOBAL__N_118font_MWOSD_52_typeD0Ev+0x10>)
 8011ad2:	b510      	push	{r4, lr}
 8011ad4:	4604      	mov	r4, r0
 8011ad6:	6003      	str	r3, [r0, #0]
 8011ad8:	f7fb ff72 	bl	800d9c0 <_ZdlPv>
 8011adc:	4620      	mov	r0, r4
 8011ade:	bd10      	pop	{r4, pc}
 8011ae0:	08014ec8 	.word	0x08014ec8

08011ae4 <_ZN12_GLOBAL__N_118font_MWOSD_51_typeD0Ev>:
 8011ae4:	4b03      	ldr	r3, [pc, #12]	; (8011af4 <_ZN12_GLOBAL__N_118font_MWOSD_51_typeD0Ev+0x10>)
 8011ae6:	b510      	push	{r4, lr}
 8011ae8:	4604      	mov	r4, r0
 8011aea:	6003      	str	r3, [r0, #0]
 8011aec:	f7fb ff68 	bl	800d9c0 <_ZdlPv>
 8011af0:	4620      	mov	r0, r4
 8011af2:	bd10      	pop	{r4, pc}
 8011af4:	08014ec8 	.word	0x08014ec8

08011af8 <_ZN12_GLOBAL__N_118font_MWOSD_50_typeD0Ev>:
 8011af8:	4b03      	ldr	r3, [pc, #12]	; (8011b08 <_ZN12_GLOBAL__N_118font_MWOSD_50_typeD0Ev+0x10>)
 8011afa:	b510      	push	{r4, lr}
 8011afc:	4604      	mov	r4, r0
 8011afe:	6003      	str	r3, [r0, #0]
 8011b00:	f7fb ff5e 	bl	800d9c0 <_ZdlPv>
 8011b04:	4620      	mov	r0, r4
 8011b06:	bd10      	pop	{r4, pc}
 8011b08:	08014ec8 	.word	0x08014ec8

08011b0c <_ZN12_GLOBAL__N_118font_MWOSD_49_typeD0Ev>:
 8011b0c:	4b03      	ldr	r3, [pc, #12]	; (8011b1c <_ZN12_GLOBAL__N_118font_MWOSD_49_typeD0Ev+0x10>)
 8011b0e:	b510      	push	{r4, lr}
 8011b10:	4604      	mov	r4, r0
 8011b12:	6003      	str	r3, [r0, #0]
 8011b14:	f7fb ff54 	bl	800d9c0 <_ZdlPv>
 8011b18:	4620      	mov	r0, r4
 8011b1a:	bd10      	pop	{r4, pc}
 8011b1c:	08014ec8 	.word	0x08014ec8

08011b20 <_ZN12_GLOBAL__N_118font_MWOSD_48_typeD0Ev>:
 8011b20:	4b03      	ldr	r3, [pc, #12]	; (8011b30 <_ZN12_GLOBAL__N_118font_MWOSD_48_typeD0Ev+0x10>)
 8011b22:	b510      	push	{r4, lr}
 8011b24:	4604      	mov	r4, r0
 8011b26:	6003      	str	r3, [r0, #0]
 8011b28:	f7fb ff4a 	bl	800d9c0 <_ZdlPv>
 8011b2c:	4620      	mov	r0, r4
 8011b2e:	bd10      	pop	{r4, pc}
 8011b30:	08014ec8 	.word	0x08014ec8

08011b34 <_ZN12_GLOBAL__N_118font_MWOSD_47_typeD0Ev>:
 8011b34:	4b03      	ldr	r3, [pc, #12]	; (8011b44 <_ZN12_GLOBAL__N_118font_MWOSD_47_typeD0Ev+0x10>)
 8011b36:	b510      	push	{r4, lr}
 8011b38:	4604      	mov	r4, r0
 8011b3a:	6003      	str	r3, [r0, #0]
 8011b3c:	f7fb ff40 	bl	800d9c0 <_ZdlPv>
 8011b40:	4620      	mov	r0, r4
 8011b42:	bd10      	pop	{r4, pc}
 8011b44:	08014ec8 	.word	0x08014ec8

08011b48 <_ZN12_GLOBAL__N_118font_MWOSD_46_typeD0Ev>:
 8011b48:	4b03      	ldr	r3, [pc, #12]	; (8011b58 <_ZN12_GLOBAL__N_118font_MWOSD_46_typeD0Ev+0x10>)
 8011b4a:	b510      	push	{r4, lr}
 8011b4c:	4604      	mov	r4, r0
 8011b4e:	6003      	str	r3, [r0, #0]
 8011b50:	f7fb ff36 	bl	800d9c0 <_ZdlPv>
 8011b54:	4620      	mov	r0, r4
 8011b56:	bd10      	pop	{r4, pc}
 8011b58:	08014ec8 	.word	0x08014ec8

08011b5c <_ZN12_GLOBAL__N_118font_MWOSD_45_typeD0Ev>:
 8011b5c:	4b03      	ldr	r3, [pc, #12]	; (8011b6c <_ZN12_GLOBAL__N_118font_MWOSD_45_typeD0Ev+0x10>)
 8011b5e:	b510      	push	{r4, lr}
 8011b60:	4604      	mov	r4, r0
 8011b62:	6003      	str	r3, [r0, #0]
 8011b64:	f7fb ff2c 	bl	800d9c0 <_ZdlPv>
 8011b68:	4620      	mov	r0, r4
 8011b6a:	bd10      	pop	{r4, pc}
 8011b6c:	08014ec8 	.word	0x08014ec8

08011b70 <_ZN12_GLOBAL__N_118font_MWOSD_44_typeD0Ev>:
 8011b70:	4b03      	ldr	r3, [pc, #12]	; (8011b80 <_ZN12_GLOBAL__N_118font_MWOSD_44_typeD0Ev+0x10>)
 8011b72:	b510      	push	{r4, lr}
 8011b74:	4604      	mov	r4, r0
 8011b76:	6003      	str	r3, [r0, #0]
 8011b78:	f7fb ff22 	bl	800d9c0 <_ZdlPv>
 8011b7c:	4620      	mov	r0, r4
 8011b7e:	bd10      	pop	{r4, pc}
 8011b80:	08014ec8 	.word	0x08014ec8

08011b84 <_ZN12_GLOBAL__N_118font_MWOSD_43_typeD0Ev>:
 8011b84:	4b03      	ldr	r3, [pc, #12]	; (8011b94 <_ZN12_GLOBAL__N_118font_MWOSD_43_typeD0Ev+0x10>)
 8011b86:	b510      	push	{r4, lr}
 8011b88:	4604      	mov	r4, r0
 8011b8a:	6003      	str	r3, [r0, #0]
 8011b8c:	f7fb ff18 	bl	800d9c0 <_ZdlPv>
 8011b90:	4620      	mov	r0, r4
 8011b92:	bd10      	pop	{r4, pc}
 8011b94:	08014ec8 	.word	0x08014ec8

08011b98 <_ZN12_GLOBAL__N_118font_MWOSD_42_typeD0Ev>:
 8011b98:	4b03      	ldr	r3, [pc, #12]	; (8011ba8 <_ZN12_GLOBAL__N_118font_MWOSD_42_typeD0Ev+0x10>)
 8011b9a:	b510      	push	{r4, lr}
 8011b9c:	4604      	mov	r4, r0
 8011b9e:	6003      	str	r3, [r0, #0]
 8011ba0:	f7fb ff0e 	bl	800d9c0 <_ZdlPv>
 8011ba4:	4620      	mov	r0, r4
 8011ba6:	bd10      	pop	{r4, pc}
 8011ba8:	08014ec8 	.word	0x08014ec8

08011bac <_ZN12_GLOBAL__N_118font_MWOSD_41_typeD0Ev>:
 8011bac:	4b03      	ldr	r3, [pc, #12]	; (8011bbc <_ZN12_GLOBAL__N_118font_MWOSD_41_typeD0Ev+0x10>)
 8011bae:	b510      	push	{r4, lr}
 8011bb0:	4604      	mov	r4, r0
 8011bb2:	6003      	str	r3, [r0, #0]
 8011bb4:	f7fb ff04 	bl	800d9c0 <_ZdlPv>
 8011bb8:	4620      	mov	r0, r4
 8011bba:	bd10      	pop	{r4, pc}
 8011bbc:	08014ec8 	.word	0x08014ec8

08011bc0 <_ZN12_GLOBAL__N_118font_MWOSD_40_typeD0Ev>:
 8011bc0:	4b03      	ldr	r3, [pc, #12]	; (8011bd0 <_ZN12_GLOBAL__N_118font_MWOSD_40_typeD0Ev+0x10>)
 8011bc2:	b510      	push	{r4, lr}
 8011bc4:	4604      	mov	r4, r0
 8011bc6:	6003      	str	r3, [r0, #0]
 8011bc8:	f7fb fefa 	bl	800d9c0 <_ZdlPv>
 8011bcc:	4620      	mov	r0, r4
 8011bce:	bd10      	pop	{r4, pc}
 8011bd0:	08014ec8 	.word	0x08014ec8

08011bd4 <_ZN12_GLOBAL__N_118font_MWOSD_39_typeD0Ev>:
 8011bd4:	4b03      	ldr	r3, [pc, #12]	; (8011be4 <_ZN12_GLOBAL__N_118font_MWOSD_39_typeD0Ev+0x10>)
 8011bd6:	b510      	push	{r4, lr}
 8011bd8:	4604      	mov	r4, r0
 8011bda:	6003      	str	r3, [r0, #0]
 8011bdc:	f7fb fef0 	bl	800d9c0 <_ZdlPv>
 8011be0:	4620      	mov	r0, r4
 8011be2:	bd10      	pop	{r4, pc}
 8011be4:	08014ec8 	.word	0x08014ec8

08011be8 <_ZN12_GLOBAL__N_118font_MWOSD_38_typeD0Ev>:
 8011be8:	4b03      	ldr	r3, [pc, #12]	; (8011bf8 <_ZN12_GLOBAL__N_118font_MWOSD_38_typeD0Ev+0x10>)
 8011bea:	b510      	push	{r4, lr}
 8011bec:	4604      	mov	r4, r0
 8011bee:	6003      	str	r3, [r0, #0]
 8011bf0:	f7fb fee6 	bl	800d9c0 <_ZdlPv>
 8011bf4:	4620      	mov	r0, r4
 8011bf6:	bd10      	pop	{r4, pc}
 8011bf8:	08014ec8 	.word	0x08014ec8

08011bfc <_ZN12_GLOBAL__N_118font_MWOSD_37_typeD0Ev>:
 8011bfc:	4b03      	ldr	r3, [pc, #12]	; (8011c0c <_ZN12_GLOBAL__N_118font_MWOSD_37_typeD0Ev+0x10>)
 8011bfe:	b510      	push	{r4, lr}
 8011c00:	4604      	mov	r4, r0
 8011c02:	6003      	str	r3, [r0, #0]
 8011c04:	f7fb fedc 	bl	800d9c0 <_ZdlPv>
 8011c08:	4620      	mov	r0, r4
 8011c0a:	bd10      	pop	{r4, pc}
 8011c0c:	08014ec8 	.word	0x08014ec8

08011c10 <_ZN12_GLOBAL__N_118font_MWOSD_36_typeD0Ev>:
 8011c10:	4b03      	ldr	r3, [pc, #12]	; (8011c20 <_ZN12_GLOBAL__N_118font_MWOSD_36_typeD0Ev+0x10>)
 8011c12:	b510      	push	{r4, lr}
 8011c14:	4604      	mov	r4, r0
 8011c16:	6003      	str	r3, [r0, #0]
 8011c18:	f7fb fed2 	bl	800d9c0 <_ZdlPv>
 8011c1c:	4620      	mov	r0, r4
 8011c1e:	bd10      	pop	{r4, pc}
 8011c20:	08014ec8 	.word	0x08014ec8

08011c24 <_ZN12_GLOBAL__N_118font_MWOSD_35_typeD0Ev>:
 8011c24:	4b03      	ldr	r3, [pc, #12]	; (8011c34 <_ZN12_GLOBAL__N_118font_MWOSD_35_typeD0Ev+0x10>)
 8011c26:	b510      	push	{r4, lr}
 8011c28:	4604      	mov	r4, r0
 8011c2a:	6003      	str	r3, [r0, #0]
 8011c2c:	f7fb fec8 	bl	800d9c0 <_ZdlPv>
 8011c30:	4620      	mov	r0, r4
 8011c32:	bd10      	pop	{r4, pc}
 8011c34:	08014ec8 	.word	0x08014ec8

08011c38 <_ZN12_GLOBAL__N_118font_MWOSD_34_typeD0Ev>:
 8011c38:	4b03      	ldr	r3, [pc, #12]	; (8011c48 <_ZN12_GLOBAL__N_118font_MWOSD_34_typeD0Ev+0x10>)
 8011c3a:	b510      	push	{r4, lr}
 8011c3c:	4604      	mov	r4, r0
 8011c3e:	6003      	str	r3, [r0, #0]
 8011c40:	f7fb febe 	bl	800d9c0 <_ZdlPv>
 8011c44:	4620      	mov	r0, r4
 8011c46:	bd10      	pop	{r4, pc}
 8011c48:	08014ec8 	.word	0x08014ec8

08011c4c <_ZN12_GLOBAL__N_118font_MWOSD_33_typeD0Ev>:
 8011c4c:	4b03      	ldr	r3, [pc, #12]	; (8011c5c <_ZN12_GLOBAL__N_118font_MWOSD_33_typeD0Ev+0x10>)
 8011c4e:	b510      	push	{r4, lr}
 8011c50:	4604      	mov	r4, r0
 8011c52:	6003      	str	r3, [r0, #0]
 8011c54:	f7fb feb4 	bl	800d9c0 <_ZdlPv>
 8011c58:	4620      	mov	r0, r4
 8011c5a:	bd10      	pop	{r4, pc}
 8011c5c:	08014ec8 	.word	0x08014ec8

08011c60 <_ZN12_GLOBAL__N_118font_MWOSD_32_typeD0Ev>:
 8011c60:	4b03      	ldr	r3, [pc, #12]	; (8011c70 <_ZN12_GLOBAL__N_118font_MWOSD_32_typeD0Ev+0x10>)
 8011c62:	b510      	push	{r4, lr}
 8011c64:	4604      	mov	r4, r0
 8011c66:	6003      	str	r3, [r0, #0]
 8011c68:	f7fb feaa 	bl	800d9c0 <_ZdlPv>
 8011c6c:	4620      	mov	r0, r4
 8011c6e:	bd10      	pop	{r4, pc}
 8011c70:	08014ec8 	.word	0x08014ec8

08011c74 <_ZN12_GLOBAL__N_121font_OSD_Charset_typeD0Ev>:
 8011c74:	4b03      	ldr	r3, [pc, #12]	; (8011c84 <_ZN12_GLOBAL__N_121font_OSD_Charset_typeD0Ev+0x10>)
 8011c76:	b510      	push	{r4, lr}
 8011c78:	4604      	mov	r4, r0
 8011c7a:	6003      	str	r3, [r0, #0]
 8011c7c:	f7fb fea0 	bl	800d9c0 <_ZdlPv>
 8011c80:	4620      	mov	r0, r4
 8011c82:	bd10      	pop	{r4, pc}
 8011c84:	08014ee0 	.word	0x08014ee0

08011c88 <_ZN12_GLOBAL__N_125font_OSD_Charset_126_typeD0Ev>:
 8011c88:	4b03      	ldr	r3, [pc, #12]	; (8011c98 <_ZN12_GLOBAL__N_125font_OSD_Charset_126_typeD0Ev+0x10>)
 8011c8a:	b510      	push	{r4, lr}
 8011c8c:	4604      	mov	r4, r0
 8011c8e:	6003      	str	r3, [r0, #0]
 8011c90:	f7fb fe96 	bl	800d9c0 <_ZdlPv>
 8011c94:	4620      	mov	r0, r4
 8011c96:	bd10      	pop	{r4, pc}
 8011c98:	08014ec8 	.word	0x08014ec8

08011c9c <_ZN12_GLOBAL__N_125font_OSD_Charset_125_typeD0Ev>:
 8011c9c:	4b03      	ldr	r3, [pc, #12]	; (8011cac <_ZN12_GLOBAL__N_125font_OSD_Charset_125_typeD0Ev+0x10>)
 8011c9e:	b510      	push	{r4, lr}
 8011ca0:	4604      	mov	r4, r0
 8011ca2:	6003      	str	r3, [r0, #0]
 8011ca4:	f7fb fe8c 	bl	800d9c0 <_ZdlPv>
 8011ca8:	4620      	mov	r0, r4
 8011caa:	bd10      	pop	{r4, pc}
 8011cac:	08014ec8 	.word	0x08014ec8

08011cb0 <_ZN12_GLOBAL__N_125font_OSD_Charset_124_typeD0Ev>:
 8011cb0:	4b03      	ldr	r3, [pc, #12]	; (8011cc0 <_ZN12_GLOBAL__N_125font_OSD_Charset_124_typeD0Ev+0x10>)
 8011cb2:	b510      	push	{r4, lr}
 8011cb4:	4604      	mov	r4, r0
 8011cb6:	6003      	str	r3, [r0, #0]
 8011cb8:	f7fb fe82 	bl	800d9c0 <_ZdlPv>
 8011cbc:	4620      	mov	r0, r4
 8011cbe:	bd10      	pop	{r4, pc}
 8011cc0:	08014ec8 	.word	0x08014ec8

08011cc4 <_ZN12_GLOBAL__N_125font_OSD_Charset_123_typeD0Ev>:
 8011cc4:	4b03      	ldr	r3, [pc, #12]	; (8011cd4 <_ZN12_GLOBAL__N_125font_OSD_Charset_123_typeD0Ev+0x10>)
 8011cc6:	b510      	push	{r4, lr}
 8011cc8:	4604      	mov	r4, r0
 8011cca:	6003      	str	r3, [r0, #0]
 8011ccc:	f7fb fe78 	bl	800d9c0 <_ZdlPv>
 8011cd0:	4620      	mov	r0, r4
 8011cd2:	bd10      	pop	{r4, pc}
 8011cd4:	08014ec8 	.word	0x08014ec8

08011cd8 <_ZN12_GLOBAL__N_125font_OSD_Charset_122_typeD0Ev>:
 8011cd8:	4b03      	ldr	r3, [pc, #12]	; (8011ce8 <_ZN12_GLOBAL__N_125font_OSD_Charset_122_typeD0Ev+0x10>)
 8011cda:	b510      	push	{r4, lr}
 8011cdc:	4604      	mov	r4, r0
 8011cde:	6003      	str	r3, [r0, #0]
 8011ce0:	f7fb fe6e 	bl	800d9c0 <_ZdlPv>
 8011ce4:	4620      	mov	r0, r4
 8011ce6:	bd10      	pop	{r4, pc}
 8011ce8:	08014ec8 	.word	0x08014ec8

08011cec <_ZN12_GLOBAL__N_125font_OSD_Charset_121_typeD0Ev>:
 8011cec:	4b03      	ldr	r3, [pc, #12]	; (8011cfc <_ZN12_GLOBAL__N_125font_OSD_Charset_121_typeD0Ev+0x10>)
 8011cee:	b510      	push	{r4, lr}
 8011cf0:	4604      	mov	r4, r0
 8011cf2:	6003      	str	r3, [r0, #0]
 8011cf4:	f7fb fe64 	bl	800d9c0 <_ZdlPv>
 8011cf8:	4620      	mov	r0, r4
 8011cfa:	bd10      	pop	{r4, pc}
 8011cfc:	08014ec8 	.word	0x08014ec8

08011d00 <_ZN12_GLOBAL__N_125font_OSD_Charset_120_typeD0Ev>:
 8011d00:	4b03      	ldr	r3, [pc, #12]	; (8011d10 <_ZN12_GLOBAL__N_125font_OSD_Charset_120_typeD0Ev+0x10>)
 8011d02:	b510      	push	{r4, lr}
 8011d04:	4604      	mov	r4, r0
 8011d06:	6003      	str	r3, [r0, #0]
 8011d08:	f7fb fe5a 	bl	800d9c0 <_ZdlPv>
 8011d0c:	4620      	mov	r0, r4
 8011d0e:	bd10      	pop	{r4, pc}
 8011d10:	08014ec8 	.word	0x08014ec8

08011d14 <_ZN12_GLOBAL__N_125font_OSD_Charset_119_typeD0Ev>:
 8011d14:	4b03      	ldr	r3, [pc, #12]	; (8011d24 <_ZN12_GLOBAL__N_125font_OSD_Charset_119_typeD0Ev+0x10>)
 8011d16:	b510      	push	{r4, lr}
 8011d18:	4604      	mov	r4, r0
 8011d1a:	6003      	str	r3, [r0, #0]
 8011d1c:	f7fb fe50 	bl	800d9c0 <_ZdlPv>
 8011d20:	4620      	mov	r0, r4
 8011d22:	bd10      	pop	{r4, pc}
 8011d24:	08014ec8 	.word	0x08014ec8

08011d28 <_ZN12_GLOBAL__N_125font_OSD_Charset_118_typeD0Ev>:
 8011d28:	4b03      	ldr	r3, [pc, #12]	; (8011d38 <_ZN12_GLOBAL__N_125font_OSD_Charset_118_typeD0Ev+0x10>)
 8011d2a:	b510      	push	{r4, lr}
 8011d2c:	4604      	mov	r4, r0
 8011d2e:	6003      	str	r3, [r0, #0]
 8011d30:	f7fb fe46 	bl	800d9c0 <_ZdlPv>
 8011d34:	4620      	mov	r0, r4
 8011d36:	bd10      	pop	{r4, pc}
 8011d38:	08014ec8 	.word	0x08014ec8

08011d3c <_ZN12_GLOBAL__N_125font_OSD_Charset_117_typeD0Ev>:
 8011d3c:	4b03      	ldr	r3, [pc, #12]	; (8011d4c <_ZN12_GLOBAL__N_125font_OSD_Charset_117_typeD0Ev+0x10>)
 8011d3e:	b510      	push	{r4, lr}
 8011d40:	4604      	mov	r4, r0
 8011d42:	6003      	str	r3, [r0, #0]
 8011d44:	f7fb fe3c 	bl	800d9c0 <_ZdlPv>
 8011d48:	4620      	mov	r0, r4
 8011d4a:	bd10      	pop	{r4, pc}
 8011d4c:	08014ec8 	.word	0x08014ec8

08011d50 <_ZN12_GLOBAL__N_125font_OSD_Charset_116_typeD0Ev>:
 8011d50:	4b03      	ldr	r3, [pc, #12]	; (8011d60 <_ZN12_GLOBAL__N_125font_OSD_Charset_116_typeD0Ev+0x10>)
 8011d52:	b510      	push	{r4, lr}
 8011d54:	4604      	mov	r4, r0
 8011d56:	6003      	str	r3, [r0, #0]
 8011d58:	f7fb fe32 	bl	800d9c0 <_ZdlPv>
 8011d5c:	4620      	mov	r0, r4
 8011d5e:	bd10      	pop	{r4, pc}
 8011d60:	08014ec8 	.word	0x08014ec8

08011d64 <_ZN12_GLOBAL__N_125font_OSD_Charset_115_typeD0Ev>:
 8011d64:	4b03      	ldr	r3, [pc, #12]	; (8011d74 <_ZN12_GLOBAL__N_125font_OSD_Charset_115_typeD0Ev+0x10>)
 8011d66:	b510      	push	{r4, lr}
 8011d68:	4604      	mov	r4, r0
 8011d6a:	6003      	str	r3, [r0, #0]
 8011d6c:	f7fb fe28 	bl	800d9c0 <_ZdlPv>
 8011d70:	4620      	mov	r0, r4
 8011d72:	bd10      	pop	{r4, pc}
 8011d74:	08014ec8 	.word	0x08014ec8

08011d78 <_ZN12_GLOBAL__N_125font_OSD_Charset_114_typeD0Ev>:
 8011d78:	4b03      	ldr	r3, [pc, #12]	; (8011d88 <_ZN12_GLOBAL__N_125font_OSD_Charset_114_typeD0Ev+0x10>)
 8011d7a:	b510      	push	{r4, lr}
 8011d7c:	4604      	mov	r4, r0
 8011d7e:	6003      	str	r3, [r0, #0]
 8011d80:	f7fb fe1e 	bl	800d9c0 <_ZdlPv>
 8011d84:	4620      	mov	r0, r4
 8011d86:	bd10      	pop	{r4, pc}
 8011d88:	08014ec8 	.word	0x08014ec8

08011d8c <_ZN12_GLOBAL__N_125font_OSD_Charset_113_typeD0Ev>:
 8011d8c:	4b03      	ldr	r3, [pc, #12]	; (8011d9c <_ZN12_GLOBAL__N_125font_OSD_Charset_113_typeD0Ev+0x10>)
 8011d8e:	b510      	push	{r4, lr}
 8011d90:	4604      	mov	r4, r0
 8011d92:	6003      	str	r3, [r0, #0]
 8011d94:	f7fb fe14 	bl	800d9c0 <_ZdlPv>
 8011d98:	4620      	mov	r0, r4
 8011d9a:	bd10      	pop	{r4, pc}
 8011d9c:	08014ec8 	.word	0x08014ec8

08011da0 <_ZN12_GLOBAL__N_125font_OSD_Charset_112_typeD0Ev>:
 8011da0:	4b03      	ldr	r3, [pc, #12]	; (8011db0 <_ZN12_GLOBAL__N_125font_OSD_Charset_112_typeD0Ev+0x10>)
 8011da2:	b510      	push	{r4, lr}
 8011da4:	4604      	mov	r4, r0
 8011da6:	6003      	str	r3, [r0, #0]
 8011da8:	f7fb fe0a 	bl	800d9c0 <_ZdlPv>
 8011dac:	4620      	mov	r0, r4
 8011dae:	bd10      	pop	{r4, pc}
 8011db0:	08014ec8 	.word	0x08014ec8

08011db4 <_ZN12_GLOBAL__N_125font_OSD_Charset_111_typeD0Ev>:
 8011db4:	4b03      	ldr	r3, [pc, #12]	; (8011dc4 <_ZN12_GLOBAL__N_125font_OSD_Charset_111_typeD0Ev+0x10>)
 8011db6:	b510      	push	{r4, lr}
 8011db8:	4604      	mov	r4, r0
 8011dba:	6003      	str	r3, [r0, #0]
 8011dbc:	f7fb fe00 	bl	800d9c0 <_ZdlPv>
 8011dc0:	4620      	mov	r0, r4
 8011dc2:	bd10      	pop	{r4, pc}
 8011dc4:	08014ec8 	.word	0x08014ec8

08011dc8 <_ZN12_GLOBAL__N_125font_OSD_Charset_110_typeD0Ev>:
 8011dc8:	4b03      	ldr	r3, [pc, #12]	; (8011dd8 <_ZN12_GLOBAL__N_125font_OSD_Charset_110_typeD0Ev+0x10>)
 8011dca:	b510      	push	{r4, lr}
 8011dcc:	4604      	mov	r4, r0
 8011dce:	6003      	str	r3, [r0, #0]
 8011dd0:	f7fb fdf6 	bl	800d9c0 <_ZdlPv>
 8011dd4:	4620      	mov	r0, r4
 8011dd6:	bd10      	pop	{r4, pc}
 8011dd8:	08014ec8 	.word	0x08014ec8

08011ddc <_ZN12_GLOBAL__N_125font_OSD_Charset_109_typeD0Ev>:
 8011ddc:	4b03      	ldr	r3, [pc, #12]	; (8011dec <_ZN12_GLOBAL__N_125font_OSD_Charset_109_typeD0Ev+0x10>)
 8011dde:	b510      	push	{r4, lr}
 8011de0:	4604      	mov	r4, r0
 8011de2:	6003      	str	r3, [r0, #0]
 8011de4:	f7fb fdec 	bl	800d9c0 <_ZdlPv>
 8011de8:	4620      	mov	r0, r4
 8011dea:	bd10      	pop	{r4, pc}
 8011dec:	08014ec8 	.word	0x08014ec8

08011df0 <_ZN12_GLOBAL__N_125font_OSD_Charset_108_typeD0Ev>:
 8011df0:	4b03      	ldr	r3, [pc, #12]	; (8011e00 <_ZN12_GLOBAL__N_125font_OSD_Charset_108_typeD0Ev+0x10>)
 8011df2:	b510      	push	{r4, lr}
 8011df4:	4604      	mov	r4, r0
 8011df6:	6003      	str	r3, [r0, #0]
 8011df8:	f7fb fde2 	bl	800d9c0 <_ZdlPv>
 8011dfc:	4620      	mov	r0, r4
 8011dfe:	bd10      	pop	{r4, pc}
 8011e00:	08014ec8 	.word	0x08014ec8

08011e04 <_ZN12_GLOBAL__N_125font_OSD_Charset_107_typeD0Ev>:
 8011e04:	4b03      	ldr	r3, [pc, #12]	; (8011e14 <_ZN12_GLOBAL__N_125font_OSD_Charset_107_typeD0Ev+0x10>)
 8011e06:	b510      	push	{r4, lr}
 8011e08:	4604      	mov	r4, r0
 8011e0a:	6003      	str	r3, [r0, #0]
 8011e0c:	f7fb fdd8 	bl	800d9c0 <_ZdlPv>
 8011e10:	4620      	mov	r0, r4
 8011e12:	bd10      	pop	{r4, pc}
 8011e14:	08014ec8 	.word	0x08014ec8

08011e18 <_ZN12_GLOBAL__N_125font_OSD_Charset_106_typeD0Ev>:
 8011e18:	4b03      	ldr	r3, [pc, #12]	; (8011e28 <_ZN12_GLOBAL__N_125font_OSD_Charset_106_typeD0Ev+0x10>)
 8011e1a:	b510      	push	{r4, lr}
 8011e1c:	4604      	mov	r4, r0
 8011e1e:	6003      	str	r3, [r0, #0]
 8011e20:	f7fb fdce 	bl	800d9c0 <_ZdlPv>
 8011e24:	4620      	mov	r0, r4
 8011e26:	bd10      	pop	{r4, pc}
 8011e28:	08014ec8 	.word	0x08014ec8

08011e2c <_ZN12_GLOBAL__N_125font_OSD_Charset_105_typeD0Ev>:
 8011e2c:	4b03      	ldr	r3, [pc, #12]	; (8011e3c <_ZN12_GLOBAL__N_125font_OSD_Charset_105_typeD0Ev+0x10>)
 8011e2e:	b510      	push	{r4, lr}
 8011e30:	4604      	mov	r4, r0
 8011e32:	6003      	str	r3, [r0, #0]
 8011e34:	f7fb fdc4 	bl	800d9c0 <_ZdlPv>
 8011e38:	4620      	mov	r0, r4
 8011e3a:	bd10      	pop	{r4, pc}
 8011e3c:	08014ec8 	.word	0x08014ec8

08011e40 <_ZN12_GLOBAL__N_125font_OSD_Charset_104_typeD0Ev>:
 8011e40:	4b03      	ldr	r3, [pc, #12]	; (8011e50 <_ZN12_GLOBAL__N_125font_OSD_Charset_104_typeD0Ev+0x10>)
 8011e42:	b510      	push	{r4, lr}
 8011e44:	4604      	mov	r4, r0
 8011e46:	6003      	str	r3, [r0, #0]
 8011e48:	f7fb fdba 	bl	800d9c0 <_ZdlPv>
 8011e4c:	4620      	mov	r0, r4
 8011e4e:	bd10      	pop	{r4, pc}
 8011e50:	08014ec8 	.word	0x08014ec8

08011e54 <_ZN12_GLOBAL__N_125font_OSD_Charset_103_typeD0Ev>:
 8011e54:	4b03      	ldr	r3, [pc, #12]	; (8011e64 <_ZN12_GLOBAL__N_125font_OSD_Charset_103_typeD0Ev+0x10>)
 8011e56:	b510      	push	{r4, lr}
 8011e58:	4604      	mov	r4, r0
 8011e5a:	6003      	str	r3, [r0, #0]
 8011e5c:	f7fb fdb0 	bl	800d9c0 <_ZdlPv>
 8011e60:	4620      	mov	r0, r4
 8011e62:	bd10      	pop	{r4, pc}
 8011e64:	08014ec8 	.word	0x08014ec8

08011e68 <_ZN12_GLOBAL__N_125font_OSD_Charset_102_typeD0Ev>:
 8011e68:	4b03      	ldr	r3, [pc, #12]	; (8011e78 <_ZN12_GLOBAL__N_125font_OSD_Charset_102_typeD0Ev+0x10>)
 8011e6a:	b510      	push	{r4, lr}
 8011e6c:	4604      	mov	r4, r0
 8011e6e:	6003      	str	r3, [r0, #0]
 8011e70:	f7fb fda6 	bl	800d9c0 <_ZdlPv>
 8011e74:	4620      	mov	r0, r4
 8011e76:	bd10      	pop	{r4, pc}
 8011e78:	08014ec8 	.word	0x08014ec8

08011e7c <_ZN12_GLOBAL__N_125font_OSD_Charset_101_typeD0Ev>:
 8011e7c:	4b03      	ldr	r3, [pc, #12]	; (8011e8c <_ZN12_GLOBAL__N_125font_OSD_Charset_101_typeD0Ev+0x10>)
 8011e7e:	b510      	push	{r4, lr}
 8011e80:	4604      	mov	r4, r0
 8011e82:	6003      	str	r3, [r0, #0]
 8011e84:	f7fb fd9c 	bl	800d9c0 <_ZdlPv>
 8011e88:	4620      	mov	r0, r4
 8011e8a:	bd10      	pop	{r4, pc}
 8011e8c:	08014ec8 	.word	0x08014ec8

08011e90 <_ZN12_GLOBAL__N_125font_OSD_Charset_100_typeD0Ev>:
 8011e90:	4b03      	ldr	r3, [pc, #12]	; (8011ea0 <_ZN12_GLOBAL__N_125font_OSD_Charset_100_typeD0Ev+0x10>)
 8011e92:	b510      	push	{r4, lr}
 8011e94:	4604      	mov	r4, r0
 8011e96:	6003      	str	r3, [r0, #0]
 8011e98:	f7fb fd92 	bl	800d9c0 <_ZdlPv>
 8011e9c:	4620      	mov	r0, r4
 8011e9e:	bd10      	pop	{r4, pc}
 8011ea0:	08014ec8 	.word	0x08014ec8

08011ea4 <_ZN12_GLOBAL__N_124font_OSD_Charset_99_typeD0Ev>:
 8011ea4:	4b03      	ldr	r3, [pc, #12]	; (8011eb4 <_ZN12_GLOBAL__N_124font_OSD_Charset_99_typeD0Ev+0x10>)
 8011ea6:	b510      	push	{r4, lr}
 8011ea8:	4604      	mov	r4, r0
 8011eaa:	6003      	str	r3, [r0, #0]
 8011eac:	f7fb fd88 	bl	800d9c0 <_ZdlPv>
 8011eb0:	4620      	mov	r0, r4
 8011eb2:	bd10      	pop	{r4, pc}
 8011eb4:	08014ec8 	.word	0x08014ec8

08011eb8 <_ZN12_GLOBAL__N_124font_OSD_Charset_98_typeD0Ev>:
 8011eb8:	4b03      	ldr	r3, [pc, #12]	; (8011ec8 <_ZN12_GLOBAL__N_124font_OSD_Charset_98_typeD0Ev+0x10>)
 8011eba:	b510      	push	{r4, lr}
 8011ebc:	4604      	mov	r4, r0
 8011ebe:	6003      	str	r3, [r0, #0]
 8011ec0:	f7fb fd7e 	bl	800d9c0 <_ZdlPv>
 8011ec4:	4620      	mov	r0, r4
 8011ec6:	bd10      	pop	{r4, pc}
 8011ec8:	08014ec8 	.word	0x08014ec8

08011ecc <_ZN12_GLOBAL__N_124font_OSD_Charset_97_typeD0Ev>:
 8011ecc:	4b03      	ldr	r3, [pc, #12]	; (8011edc <_ZN12_GLOBAL__N_124font_OSD_Charset_97_typeD0Ev+0x10>)
 8011ece:	b510      	push	{r4, lr}
 8011ed0:	4604      	mov	r4, r0
 8011ed2:	6003      	str	r3, [r0, #0]
 8011ed4:	f7fb fd74 	bl	800d9c0 <_ZdlPv>
 8011ed8:	4620      	mov	r0, r4
 8011eda:	bd10      	pop	{r4, pc}
 8011edc:	08014ec8 	.word	0x08014ec8

08011ee0 <_ZN12_GLOBAL__N_124font_OSD_Charset_96_typeD0Ev>:
 8011ee0:	4b03      	ldr	r3, [pc, #12]	; (8011ef0 <_ZN12_GLOBAL__N_124font_OSD_Charset_96_typeD0Ev+0x10>)
 8011ee2:	b510      	push	{r4, lr}
 8011ee4:	4604      	mov	r4, r0
 8011ee6:	6003      	str	r3, [r0, #0]
 8011ee8:	f7fb fd6a 	bl	800d9c0 <_ZdlPv>
 8011eec:	4620      	mov	r0, r4
 8011eee:	bd10      	pop	{r4, pc}
 8011ef0:	08014ec8 	.word	0x08014ec8

08011ef4 <_ZN12_GLOBAL__N_124font_OSD_Charset_95_typeD0Ev>:
 8011ef4:	4b03      	ldr	r3, [pc, #12]	; (8011f04 <_ZN12_GLOBAL__N_124font_OSD_Charset_95_typeD0Ev+0x10>)
 8011ef6:	b510      	push	{r4, lr}
 8011ef8:	4604      	mov	r4, r0
 8011efa:	6003      	str	r3, [r0, #0]
 8011efc:	f7fb fd60 	bl	800d9c0 <_ZdlPv>
 8011f00:	4620      	mov	r0, r4
 8011f02:	bd10      	pop	{r4, pc}
 8011f04:	08014ec8 	.word	0x08014ec8

08011f08 <_ZN12_GLOBAL__N_124font_OSD_Charset_94_typeD0Ev>:
 8011f08:	4b03      	ldr	r3, [pc, #12]	; (8011f18 <_ZN12_GLOBAL__N_124font_OSD_Charset_94_typeD0Ev+0x10>)
 8011f0a:	b510      	push	{r4, lr}
 8011f0c:	4604      	mov	r4, r0
 8011f0e:	6003      	str	r3, [r0, #0]
 8011f10:	f7fb fd56 	bl	800d9c0 <_ZdlPv>
 8011f14:	4620      	mov	r0, r4
 8011f16:	bd10      	pop	{r4, pc}
 8011f18:	08014ec8 	.word	0x08014ec8

08011f1c <_ZN12_GLOBAL__N_124font_OSD_Charset_93_typeD0Ev>:
 8011f1c:	4b03      	ldr	r3, [pc, #12]	; (8011f2c <_ZN12_GLOBAL__N_124font_OSD_Charset_93_typeD0Ev+0x10>)
 8011f1e:	b510      	push	{r4, lr}
 8011f20:	4604      	mov	r4, r0
 8011f22:	6003      	str	r3, [r0, #0]
 8011f24:	f7fb fd4c 	bl	800d9c0 <_ZdlPv>
 8011f28:	4620      	mov	r0, r4
 8011f2a:	bd10      	pop	{r4, pc}
 8011f2c:	08014ec8 	.word	0x08014ec8

08011f30 <_ZN12_GLOBAL__N_124font_OSD_Charset_92_typeD0Ev>:
 8011f30:	4b03      	ldr	r3, [pc, #12]	; (8011f40 <_ZN12_GLOBAL__N_124font_OSD_Charset_92_typeD0Ev+0x10>)
 8011f32:	b510      	push	{r4, lr}
 8011f34:	4604      	mov	r4, r0
 8011f36:	6003      	str	r3, [r0, #0]
 8011f38:	f7fb fd42 	bl	800d9c0 <_ZdlPv>
 8011f3c:	4620      	mov	r0, r4
 8011f3e:	bd10      	pop	{r4, pc}
 8011f40:	08014ec8 	.word	0x08014ec8

08011f44 <_ZN12_GLOBAL__N_124font_OSD_Charset_91_typeD0Ev>:
 8011f44:	4b03      	ldr	r3, [pc, #12]	; (8011f54 <_ZN12_GLOBAL__N_124font_OSD_Charset_91_typeD0Ev+0x10>)
 8011f46:	b510      	push	{r4, lr}
 8011f48:	4604      	mov	r4, r0
 8011f4a:	6003      	str	r3, [r0, #0]
 8011f4c:	f7fb fd38 	bl	800d9c0 <_ZdlPv>
 8011f50:	4620      	mov	r0, r4
 8011f52:	bd10      	pop	{r4, pc}
 8011f54:	08014ec8 	.word	0x08014ec8

08011f58 <_ZN12_GLOBAL__N_124font_OSD_Charset_90_typeD0Ev>:
 8011f58:	4b03      	ldr	r3, [pc, #12]	; (8011f68 <_ZN12_GLOBAL__N_124font_OSD_Charset_90_typeD0Ev+0x10>)
 8011f5a:	b510      	push	{r4, lr}
 8011f5c:	4604      	mov	r4, r0
 8011f5e:	6003      	str	r3, [r0, #0]
 8011f60:	f7fb fd2e 	bl	800d9c0 <_ZdlPv>
 8011f64:	4620      	mov	r0, r4
 8011f66:	bd10      	pop	{r4, pc}
 8011f68:	08014ec8 	.word	0x08014ec8

08011f6c <_ZN12_GLOBAL__N_124font_OSD_Charset_89_typeD0Ev>:
 8011f6c:	4b03      	ldr	r3, [pc, #12]	; (8011f7c <_ZN12_GLOBAL__N_124font_OSD_Charset_89_typeD0Ev+0x10>)
 8011f6e:	b510      	push	{r4, lr}
 8011f70:	4604      	mov	r4, r0
 8011f72:	6003      	str	r3, [r0, #0]
 8011f74:	f7fb fd24 	bl	800d9c0 <_ZdlPv>
 8011f78:	4620      	mov	r0, r4
 8011f7a:	bd10      	pop	{r4, pc}
 8011f7c:	08014ec8 	.word	0x08014ec8

08011f80 <_ZN12_GLOBAL__N_124font_OSD_Charset_88_typeD0Ev>:
 8011f80:	4b03      	ldr	r3, [pc, #12]	; (8011f90 <_ZN12_GLOBAL__N_124font_OSD_Charset_88_typeD0Ev+0x10>)
 8011f82:	b510      	push	{r4, lr}
 8011f84:	4604      	mov	r4, r0
 8011f86:	6003      	str	r3, [r0, #0]
 8011f88:	f7fb fd1a 	bl	800d9c0 <_ZdlPv>
 8011f8c:	4620      	mov	r0, r4
 8011f8e:	bd10      	pop	{r4, pc}
 8011f90:	08014ec8 	.word	0x08014ec8

08011f94 <_ZN12_GLOBAL__N_124font_OSD_Charset_87_typeD0Ev>:
 8011f94:	4b03      	ldr	r3, [pc, #12]	; (8011fa4 <_ZN12_GLOBAL__N_124font_OSD_Charset_87_typeD0Ev+0x10>)
 8011f96:	b510      	push	{r4, lr}
 8011f98:	4604      	mov	r4, r0
 8011f9a:	6003      	str	r3, [r0, #0]
 8011f9c:	f7fb fd10 	bl	800d9c0 <_ZdlPv>
 8011fa0:	4620      	mov	r0, r4
 8011fa2:	bd10      	pop	{r4, pc}
 8011fa4:	08014ec8 	.word	0x08014ec8

08011fa8 <_ZN12_GLOBAL__N_124font_OSD_Charset_86_typeD0Ev>:
 8011fa8:	4b03      	ldr	r3, [pc, #12]	; (8011fb8 <_ZN12_GLOBAL__N_124font_OSD_Charset_86_typeD0Ev+0x10>)
 8011faa:	b510      	push	{r4, lr}
 8011fac:	4604      	mov	r4, r0
 8011fae:	6003      	str	r3, [r0, #0]
 8011fb0:	f7fb fd06 	bl	800d9c0 <_ZdlPv>
 8011fb4:	4620      	mov	r0, r4
 8011fb6:	bd10      	pop	{r4, pc}
 8011fb8:	08014ec8 	.word	0x08014ec8

08011fbc <_ZN12_GLOBAL__N_124font_OSD_Charset_85_typeD0Ev>:
 8011fbc:	4b03      	ldr	r3, [pc, #12]	; (8011fcc <_ZN12_GLOBAL__N_124font_OSD_Charset_85_typeD0Ev+0x10>)
 8011fbe:	b510      	push	{r4, lr}
 8011fc0:	4604      	mov	r4, r0
 8011fc2:	6003      	str	r3, [r0, #0]
 8011fc4:	f7fb fcfc 	bl	800d9c0 <_ZdlPv>
 8011fc8:	4620      	mov	r0, r4
 8011fca:	bd10      	pop	{r4, pc}
 8011fcc:	08014ec8 	.word	0x08014ec8

08011fd0 <_ZN12_GLOBAL__N_124font_OSD_Charset_84_typeD0Ev>:
 8011fd0:	4b03      	ldr	r3, [pc, #12]	; (8011fe0 <_ZN12_GLOBAL__N_124font_OSD_Charset_84_typeD0Ev+0x10>)
 8011fd2:	b510      	push	{r4, lr}
 8011fd4:	4604      	mov	r4, r0
 8011fd6:	6003      	str	r3, [r0, #0]
 8011fd8:	f7fb fcf2 	bl	800d9c0 <_ZdlPv>
 8011fdc:	4620      	mov	r0, r4
 8011fde:	bd10      	pop	{r4, pc}
 8011fe0:	08014ec8 	.word	0x08014ec8

08011fe4 <_ZN12_GLOBAL__N_124font_OSD_Charset_83_typeD0Ev>:
 8011fe4:	4b03      	ldr	r3, [pc, #12]	; (8011ff4 <_ZN12_GLOBAL__N_124font_OSD_Charset_83_typeD0Ev+0x10>)
 8011fe6:	b510      	push	{r4, lr}
 8011fe8:	4604      	mov	r4, r0
 8011fea:	6003      	str	r3, [r0, #0]
 8011fec:	f7fb fce8 	bl	800d9c0 <_ZdlPv>
 8011ff0:	4620      	mov	r0, r4
 8011ff2:	bd10      	pop	{r4, pc}
 8011ff4:	08014ec8 	.word	0x08014ec8

08011ff8 <_ZN12_GLOBAL__N_124font_OSD_Charset_82_typeD0Ev>:
 8011ff8:	4b03      	ldr	r3, [pc, #12]	; (8012008 <_ZN12_GLOBAL__N_124font_OSD_Charset_82_typeD0Ev+0x10>)
 8011ffa:	b510      	push	{r4, lr}
 8011ffc:	4604      	mov	r4, r0
 8011ffe:	6003      	str	r3, [r0, #0]
 8012000:	f7fb fcde 	bl	800d9c0 <_ZdlPv>
 8012004:	4620      	mov	r0, r4
 8012006:	bd10      	pop	{r4, pc}
 8012008:	08014ec8 	.word	0x08014ec8

0801200c <_ZN12_GLOBAL__N_124font_OSD_Charset_81_typeD0Ev>:
 801200c:	4b03      	ldr	r3, [pc, #12]	; (801201c <_ZN12_GLOBAL__N_124font_OSD_Charset_81_typeD0Ev+0x10>)
 801200e:	b510      	push	{r4, lr}
 8012010:	4604      	mov	r4, r0
 8012012:	6003      	str	r3, [r0, #0]
 8012014:	f7fb fcd4 	bl	800d9c0 <_ZdlPv>
 8012018:	4620      	mov	r0, r4
 801201a:	bd10      	pop	{r4, pc}
 801201c:	08014ec8 	.word	0x08014ec8

08012020 <_ZN12_GLOBAL__N_124font_OSD_Charset_80_typeD0Ev>:
 8012020:	4b03      	ldr	r3, [pc, #12]	; (8012030 <_ZN12_GLOBAL__N_124font_OSD_Charset_80_typeD0Ev+0x10>)
 8012022:	b510      	push	{r4, lr}
 8012024:	4604      	mov	r4, r0
 8012026:	6003      	str	r3, [r0, #0]
 8012028:	f7fb fcca 	bl	800d9c0 <_ZdlPv>
 801202c:	4620      	mov	r0, r4
 801202e:	bd10      	pop	{r4, pc}
 8012030:	08014ec8 	.word	0x08014ec8

08012034 <_ZN12_GLOBAL__N_124font_OSD_Charset_79_typeD0Ev>:
 8012034:	4b03      	ldr	r3, [pc, #12]	; (8012044 <_ZN12_GLOBAL__N_124font_OSD_Charset_79_typeD0Ev+0x10>)
 8012036:	b510      	push	{r4, lr}
 8012038:	4604      	mov	r4, r0
 801203a:	6003      	str	r3, [r0, #0]
 801203c:	f7fb fcc0 	bl	800d9c0 <_ZdlPv>
 8012040:	4620      	mov	r0, r4
 8012042:	bd10      	pop	{r4, pc}
 8012044:	08014ec8 	.word	0x08014ec8

08012048 <_ZN12_GLOBAL__N_124font_OSD_Charset_78_typeD0Ev>:
 8012048:	4b03      	ldr	r3, [pc, #12]	; (8012058 <_ZN12_GLOBAL__N_124font_OSD_Charset_78_typeD0Ev+0x10>)
 801204a:	b510      	push	{r4, lr}
 801204c:	4604      	mov	r4, r0
 801204e:	6003      	str	r3, [r0, #0]
 8012050:	f7fb fcb6 	bl	800d9c0 <_ZdlPv>
 8012054:	4620      	mov	r0, r4
 8012056:	bd10      	pop	{r4, pc}
 8012058:	08014ec8 	.word	0x08014ec8

0801205c <_ZN12_GLOBAL__N_124font_OSD_Charset_77_typeD0Ev>:
 801205c:	4b03      	ldr	r3, [pc, #12]	; (801206c <_ZN12_GLOBAL__N_124font_OSD_Charset_77_typeD0Ev+0x10>)
 801205e:	b510      	push	{r4, lr}
 8012060:	4604      	mov	r4, r0
 8012062:	6003      	str	r3, [r0, #0]
 8012064:	f7fb fcac 	bl	800d9c0 <_ZdlPv>
 8012068:	4620      	mov	r0, r4
 801206a:	bd10      	pop	{r4, pc}
 801206c:	08014ec8 	.word	0x08014ec8

08012070 <_ZN12_GLOBAL__N_124font_OSD_Charset_76_typeD0Ev>:
 8012070:	4b03      	ldr	r3, [pc, #12]	; (8012080 <_ZN12_GLOBAL__N_124font_OSD_Charset_76_typeD0Ev+0x10>)
 8012072:	b510      	push	{r4, lr}
 8012074:	4604      	mov	r4, r0
 8012076:	6003      	str	r3, [r0, #0]
 8012078:	f7fb fca2 	bl	800d9c0 <_ZdlPv>
 801207c:	4620      	mov	r0, r4
 801207e:	bd10      	pop	{r4, pc}
 8012080:	08014ec8 	.word	0x08014ec8

08012084 <_ZN12_GLOBAL__N_124font_OSD_Charset_75_typeD0Ev>:
 8012084:	4b03      	ldr	r3, [pc, #12]	; (8012094 <_ZN12_GLOBAL__N_124font_OSD_Charset_75_typeD0Ev+0x10>)
 8012086:	b510      	push	{r4, lr}
 8012088:	4604      	mov	r4, r0
 801208a:	6003      	str	r3, [r0, #0]
 801208c:	f7fb fc98 	bl	800d9c0 <_ZdlPv>
 8012090:	4620      	mov	r0, r4
 8012092:	bd10      	pop	{r4, pc}
 8012094:	08014ec8 	.word	0x08014ec8

08012098 <_ZN12_GLOBAL__N_124font_OSD_Charset_74_typeD0Ev>:
 8012098:	4b03      	ldr	r3, [pc, #12]	; (80120a8 <_ZN12_GLOBAL__N_124font_OSD_Charset_74_typeD0Ev+0x10>)
 801209a:	b510      	push	{r4, lr}
 801209c:	4604      	mov	r4, r0
 801209e:	6003      	str	r3, [r0, #0]
 80120a0:	f7fb fc8e 	bl	800d9c0 <_ZdlPv>
 80120a4:	4620      	mov	r0, r4
 80120a6:	bd10      	pop	{r4, pc}
 80120a8:	08014ec8 	.word	0x08014ec8

080120ac <_ZN12_GLOBAL__N_124font_OSD_Charset_73_typeD0Ev>:
 80120ac:	4b03      	ldr	r3, [pc, #12]	; (80120bc <_ZN12_GLOBAL__N_124font_OSD_Charset_73_typeD0Ev+0x10>)
 80120ae:	b510      	push	{r4, lr}
 80120b0:	4604      	mov	r4, r0
 80120b2:	6003      	str	r3, [r0, #0]
 80120b4:	f7fb fc84 	bl	800d9c0 <_ZdlPv>
 80120b8:	4620      	mov	r0, r4
 80120ba:	bd10      	pop	{r4, pc}
 80120bc:	08014ec8 	.word	0x08014ec8

080120c0 <_ZN12_GLOBAL__N_124font_OSD_Charset_72_typeD0Ev>:
 80120c0:	4b03      	ldr	r3, [pc, #12]	; (80120d0 <_ZN12_GLOBAL__N_124font_OSD_Charset_72_typeD0Ev+0x10>)
 80120c2:	b510      	push	{r4, lr}
 80120c4:	4604      	mov	r4, r0
 80120c6:	6003      	str	r3, [r0, #0]
 80120c8:	f7fb fc7a 	bl	800d9c0 <_ZdlPv>
 80120cc:	4620      	mov	r0, r4
 80120ce:	bd10      	pop	{r4, pc}
 80120d0:	08014ec8 	.word	0x08014ec8

080120d4 <_ZN12_GLOBAL__N_124font_OSD_Charset_71_typeD0Ev>:
 80120d4:	4b03      	ldr	r3, [pc, #12]	; (80120e4 <_ZN12_GLOBAL__N_124font_OSD_Charset_71_typeD0Ev+0x10>)
 80120d6:	b510      	push	{r4, lr}
 80120d8:	4604      	mov	r4, r0
 80120da:	6003      	str	r3, [r0, #0]
 80120dc:	f7fb fc70 	bl	800d9c0 <_ZdlPv>
 80120e0:	4620      	mov	r0, r4
 80120e2:	bd10      	pop	{r4, pc}
 80120e4:	08014ec8 	.word	0x08014ec8

080120e8 <_ZN12_GLOBAL__N_124font_OSD_Charset_70_typeD0Ev>:
 80120e8:	4b03      	ldr	r3, [pc, #12]	; (80120f8 <_ZN12_GLOBAL__N_124font_OSD_Charset_70_typeD0Ev+0x10>)
 80120ea:	b510      	push	{r4, lr}
 80120ec:	4604      	mov	r4, r0
 80120ee:	6003      	str	r3, [r0, #0]
 80120f0:	f7fb fc66 	bl	800d9c0 <_ZdlPv>
 80120f4:	4620      	mov	r0, r4
 80120f6:	bd10      	pop	{r4, pc}
 80120f8:	08014ec8 	.word	0x08014ec8

080120fc <_ZN12_GLOBAL__N_124font_OSD_Charset_69_typeD0Ev>:
 80120fc:	4b03      	ldr	r3, [pc, #12]	; (801210c <_ZN12_GLOBAL__N_124font_OSD_Charset_69_typeD0Ev+0x10>)
 80120fe:	b510      	push	{r4, lr}
 8012100:	4604      	mov	r4, r0
 8012102:	6003      	str	r3, [r0, #0]
 8012104:	f7fb fc5c 	bl	800d9c0 <_ZdlPv>
 8012108:	4620      	mov	r0, r4
 801210a:	bd10      	pop	{r4, pc}
 801210c:	08014ec8 	.word	0x08014ec8

08012110 <_ZN12_GLOBAL__N_124font_OSD_Charset_68_typeD0Ev>:
 8012110:	4b03      	ldr	r3, [pc, #12]	; (8012120 <_ZN12_GLOBAL__N_124font_OSD_Charset_68_typeD0Ev+0x10>)
 8012112:	b510      	push	{r4, lr}
 8012114:	4604      	mov	r4, r0
 8012116:	6003      	str	r3, [r0, #0]
 8012118:	f7fb fc52 	bl	800d9c0 <_ZdlPv>
 801211c:	4620      	mov	r0, r4
 801211e:	bd10      	pop	{r4, pc}
 8012120:	08014ec8 	.word	0x08014ec8

08012124 <_ZN12_GLOBAL__N_124font_OSD_Charset_67_typeD0Ev>:
 8012124:	4b03      	ldr	r3, [pc, #12]	; (8012134 <_ZN12_GLOBAL__N_124font_OSD_Charset_67_typeD0Ev+0x10>)
 8012126:	b510      	push	{r4, lr}
 8012128:	4604      	mov	r4, r0
 801212a:	6003      	str	r3, [r0, #0]
 801212c:	f7fb fc48 	bl	800d9c0 <_ZdlPv>
 8012130:	4620      	mov	r0, r4
 8012132:	bd10      	pop	{r4, pc}
 8012134:	08014ec8 	.word	0x08014ec8

08012138 <_ZN12_GLOBAL__N_124font_OSD_Charset_66_typeD0Ev>:
 8012138:	4b03      	ldr	r3, [pc, #12]	; (8012148 <_ZN12_GLOBAL__N_124font_OSD_Charset_66_typeD0Ev+0x10>)
 801213a:	b510      	push	{r4, lr}
 801213c:	4604      	mov	r4, r0
 801213e:	6003      	str	r3, [r0, #0]
 8012140:	f7fb fc3e 	bl	800d9c0 <_ZdlPv>
 8012144:	4620      	mov	r0, r4
 8012146:	bd10      	pop	{r4, pc}
 8012148:	08014ec8 	.word	0x08014ec8

0801214c <_ZN12_GLOBAL__N_124font_OSD_Charset_65_typeD0Ev>:
 801214c:	4b03      	ldr	r3, [pc, #12]	; (801215c <_ZN12_GLOBAL__N_124font_OSD_Charset_65_typeD0Ev+0x10>)
 801214e:	b510      	push	{r4, lr}
 8012150:	4604      	mov	r4, r0
 8012152:	6003      	str	r3, [r0, #0]
 8012154:	f7fb fc34 	bl	800d9c0 <_ZdlPv>
 8012158:	4620      	mov	r0, r4
 801215a:	bd10      	pop	{r4, pc}
 801215c:	08014ec8 	.word	0x08014ec8

08012160 <_ZN12_GLOBAL__N_124font_OSD_Charset_64_typeD0Ev>:
 8012160:	4b03      	ldr	r3, [pc, #12]	; (8012170 <_ZN12_GLOBAL__N_124font_OSD_Charset_64_typeD0Ev+0x10>)
 8012162:	b510      	push	{r4, lr}
 8012164:	4604      	mov	r4, r0
 8012166:	6003      	str	r3, [r0, #0]
 8012168:	f7fb fc2a 	bl	800d9c0 <_ZdlPv>
 801216c:	4620      	mov	r0, r4
 801216e:	bd10      	pop	{r4, pc}
 8012170:	08014ec8 	.word	0x08014ec8

08012174 <_ZN12_GLOBAL__N_124font_OSD_Charset_63_typeD0Ev>:
 8012174:	4b03      	ldr	r3, [pc, #12]	; (8012184 <_ZN12_GLOBAL__N_124font_OSD_Charset_63_typeD0Ev+0x10>)
 8012176:	b510      	push	{r4, lr}
 8012178:	4604      	mov	r4, r0
 801217a:	6003      	str	r3, [r0, #0]
 801217c:	f7fb fc20 	bl	800d9c0 <_ZdlPv>
 8012180:	4620      	mov	r0, r4
 8012182:	bd10      	pop	{r4, pc}
 8012184:	08014ec8 	.word	0x08014ec8

08012188 <_ZN12_GLOBAL__N_124font_OSD_Charset_62_typeD0Ev>:
 8012188:	4b03      	ldr	r3, [pc, #12]	; (8012198 <_ZN12_GLOBAL__N_124font_OSD_Charset_62_typeD0Ev+0x10>)
 801218a:	b510      	push	{r4, lr}
 801218c:	4604      	mov	r4, r0
 801218e:	6003      	str	r3, [r0, #0]
 8012190:	f7fb fc16 	bl	800d9c0 <_ZdlPv>
 8012194:	4620      	mov	r0, r4
 8012196:	bd10      	pop	{r4, pc}
 8012198:	08014ec8 	.word	0x08014ec8

0801219c <_ZN12_GLOBAL__N_124font_OSD_Charset_61_typeD0Ev>:
 801219c:	4b03      	ldr	r3, [pc, #12]	; (80121ac <_ZN12_GLOBAL__N_124font_OSD_Charset_61_typeD0Ev+0x10>)
 801219e:	b510      	push	{r4, lr}
 80121a0:	4604      	mov	r4, r0
 80121a2:	6003      	str	r3, [r0, #0]
 80121a4:	f7fb fc0c 	bl	800d9c0 <_ZdlPv>
 80121a8:	4620      	mov	r0, r4
 80121aa:	bd10      	pop	{r4, pc}
 80121ac:	08014ec8 	.word	0x08014ec8

080121b0 <_ZN12_GLOBAL__N_124font_OSD_Charset_60_typeD0Ev>:
 80121b0:	4b03      	ldr	r3, [pc, #12]	; (80121c0 <_ZN12_GLOBAL__N_124font_OSD_Charset_60_typeD0Ev+0x10>)
 80121b2:	b510      	push	{r4, lr}
 80121b4:	4604      	mov	r4, r0
 80121b6:	6003      	str	r3, [r0, #0]
 80121b8:	f7fb fc02 	bl	800d9c0 <_ZdlPv>
 80121bc:	4620      	mov	r0, r4
 80121be:	bd10      	pop	{r4, pc}
 80121c0:	08014ec8 	.word	0x08014ec8

080121c4 <_ZN12_GLOBAL__N_124font_OSD_Charset_59_typeD0Ev>:
 80121c4:	4b03      	ldr	r3, [pc, #12]	; (80121d4 <_ZN12_GLOBAL__N_124font_OSD_Charset_59_typeD0Ev+0x10>)
 80121c6:	b510      	push	{r4, lr}
 80121c8:	4604      	mov	r4, r0
 80121ca:	6003      	str	r3, [r0, #0]
 80121cc:	f7fb fbf8 	bl	800d9c0 <_ZdlPv>
 80121d0:	4620      	mov	r0, r4
 80121d2:	bd10      	pop	{r4, pc}
 80121d4:	08014ec8 	.word	0x08014ec8

080121d8 <_ZN12_GLOBAL__N_124font_OSD_Charset_58_typeD0Ev>:
 80121d8:	4b03      	ldr	r3, [pc, #12]	; (80121e8 <_ZN12_GLOBAL__N_124font_OSD_Charset_58_typeD0Ev+0x10>)
 80121da:	b510      	push	{r4, lr}
 80121dc:	4604      	mov	r4, r0
 80121de:	6003      	str	r3, [r0, #0]
 80121e0:	f7fb fbee 	bl	800d9c0 <_ZdlPv>
 80121e4:	4620      	mov	r0, r4
 80121e6:	bd10      	pop	{r4, pc}
 80121e8:	08014ec8 	.word	0x08014ec8

080121ec <_ZN12_GLOBAL__N_124font_OSD_Charset_57_typeD0Ev>:
 80121ec:	4b03      	ldr	r3, [pc, #12]	; (80121fc <_ZN12_GLOBAL__N_124font_OSD_Charset_57_typeD0Ev+0x10>)
 80121ee:	b510      	push	{r4, lr}
 80121f0:	4604      	mov	r4, r0
 80121f2:	6003      	str	r3, [r0, #0]
 80121f4:	f7fb fbe4 	bl	800d9c0 <_ZdlPv>
 80121f8:	4620      	mov	r0, r4
 80121fa:	bd10      	pop	{r4, pc}
 80121fc:	08014ec8 	.word	0x08014ec8

08012200 <_ZN12_GLOBAL__N_124font_OSD_Charset_56_typeD0Ev>:
 8012200:	4b03      	ldr	r3, [pc, #12]	; (8012210 <_ZN12_GLOBAL__N_124font_OSD_Charset_56_typeD0Ev+0x10>)
 8012202:	b510      	push	{r4, lr}
 8012204:	4604      	mov	r4, r0
 8012206:	6003      	str	r3, [r0, #0]
 8012208:	f7fb fbda 	bl	800d9c0 <_ZdlPv>
 801220c:	4620      	mov	r0, r4
 801220e:	bd10      	pop	{r4, pc}
 8012210:	08014ec8 	.word	0x08014ec8

08012214 <_ZN12_GLOBAL__N_124font_OSD_Charset_55_typeD0Ev>:
 8012214:	4b03      	ldr	r3, [pc, #12]	; (8012224 <_ZN12_GLOBAL__N_124font_OSD_Charset_55_typeD0Ev+0x10>)
 8012216:	b510      	push	{r4, lr}
 8012218:	4604      	mov	r4, r0
 801221a:	6003      	str	r3, [r0, #0]
 801221c:	f7fb fbd0 	bl	800d9c0 <_ZdlPv>
 8012220:	4620      	mov	r0, r4
 8012222:	bd10      	pop	{r4, pc}
 8012224:	08014ec8 	.word	0x08014ec8

08012228 <_ZN12_GLOBAL__N_124font_OSD_Charset_54_typeD0Ev>:
 8012228:	4b03      	ldr	r3, [pc, #12]	; (8012238 <_ZN12_GLOBAL__N_124font_OSD_Charset_54_typeD0Ev+0x10>)
 801222a:	b510      	push	{r4, lr}
 801222c:	4604      	mov	r4, r0
 801222e:	6003      	str	r3, [r0, #0]
 8012230:	f7fb fbc6 	bl	800d9c0 <_ZdlPv>
 8012234:	4620      	mov	r0, r4
 8012236:	bd10      	pop	{r4, pc}
 8012238:	08014ec8 	.word	0x08014ec8

0801223c <_ZN12_GLOBAL__N_124font_OSD_Charset_53_typeD0Ev>:
 801223c:	4b03      	ldr	r3, [pc, #12]	; (801224c <_ZN12_GLOBAL__N_124font_OSD_Charset_53_typeD0Ev+0x10>)
 801223e:	b510      	push	{r4, lr}
 8012240:	4604      	mov	r4, r0
 8012242:	6003      	str	r3, [r0, #0]
 8012244:	f7fb fbbc 	bl	800d9c0 <_ZdlPv>
 8012248:	4620      	mov	r0, r4
 801224a:	bd10      	pop	{r4, pc}
 801224c:	08014ec8 	.word	0x08014ec8

08012250 <_ZN12_GLOBAL__N_124font_OSD_Charset_52_typeD0Ev>:
 8012250:	4b03      	ldr	r3, [pc, #12]	; (8012260 <_ZN12_GLOBAL__N_124font_OSD_Charset_52_typeD0Ev+0x10>)
 8012252:	b510      	push	{r4, lr}
 8012254:	4604      	mov	r4, r0
 8012256:	6003      	str	r3, [r0, #0]
 8012258:	f7fb fbb2 	bl	800d9c0 <_ZdlPv>
 801225c:	4620      	mov	r0, r4
 801225e:	bd10      	pop	{r4, pc}
 8012260:	08014ec8 	.word	0x08014ec8

08012264 <_ZN12_GLOBAL__N_124font_OSD_Charset_51_typeD0Ev>:
 8012264:	4b03      	ldr	r3, [pc, #12]	; (8012274 <_ZN12_GLOBAL__N_124font_OSD_Charset_51_typeD0Ev+0x10>)
 8012266:	b510      	push	{r4, lr}
 8012268:	4604      	mov	r4, r0
 801226a:	6003      	str	r3, [r0, #0]
 801226c:	f7fb fba8 	bl	800d9c0 <_ZdlPv>
 8012270:	4620      	mov	r0, r4
 8012272:	bd10      	pop	{r4, pc}
 8012274:	08014ec8 	.word	0x08014ec8

08012278 <_ZN12_GLOBAL__N_124font_OSD_Charset_50_typeD0Ev>:
 8012278:	4b03      	ldr	r3, [pc, #12]	; (8012288 <_ZN12_GLOBAL__N_124font_OSD_Charset_50_typeD0Ev+0x10>)
 801227a:	b510      	push	{r4, lr}
 801227c:	4604      	mov	r4, r0
 801227e:	6003      	str	r3, [r0, #0]
 8012280:	f7fb fb9e 	bl	800d9c0 <_ZdlPv>
 8012284:	4620      	mov	r0, r4
 8012286:	bd10      	pop	{r4, pc}
 8012288:	08014ec8 	.word	0x08014ec8

0801228c <_ZN12_GLOBAL__N_124font_OSD_Charset_49_typeD0Ev>:
 801228c:	4b03      	ldr	r3, [pc, #12]	; (801229c <_ZN12_GLOBAL__N_124font_OSD_Charset_49_typeD0Ev+0x10>)
 801228e:	b510      	push	{r4, lr}
 8012290:	4604      	mov	r4, r0
 8012292:	6003      	str	r3, [r0, #0]
 8012294:	f7fb fb94 	bl	800d9c0 <_ZdlPv>
 8012298:	4620      	mov	r0, r4
 801229a:	bd10      	pop	{r4, pc}
 801229c:	08014ec8 	.word	0x08014ec8

080122a0 <_ZN12_GLOBAL__N_124font_OSD_Charset_48_typeD0Ev>:
 80122a0:	4b03      	ldr	r3, [pc, #12]	; (80122b0 <_ZN12_GLOBAL__N_124font_OSD_Charset_48_typeD0Ev+0x10>)
 80122a2:	b510      	push	{r4, lr}
 80122a4:	4604      	mov	r4, r0
 80122a6:	6003      	str	r3, [r0, #0]
 80122a8:	f7fb fb8a 	bl	800d9c0 <_ZdlPv>
 80122ac:	4620      	mov	r0, r4
 80122ae:	bd10      	pop	{r4, pc}
 80122b0:	08014ec8 	.word	0x08014ec8

080122b4 <_ZN12_GLOBAL__N_124font_OSD_Charset_47_typeD0Ev>:
 80122b4:	4b03      	ldr	r3, [pc, #12]	; (80122c4 <_ZN12_GLOBAL__N_124font_OSD_Charset_47_typeD0Ev+0x10>)
 80122b6:	b510      	push	{r4, lr}
 80122b8:	4604      	mov	r4, r0
 80122ba:	6003      	str	r3, [r0, #0]
 80122bc:	f7fb fb80 	bl	800d9c0 <_ZdlPv>
 80122c0:	4620      	mov	r0, r4
 80122c2:	bd10      	pop	{r4, pc}
 80122c4:	08014ec8 	.word	0x08014ec8

080122c8 <_ZN12_GLOBAL__N_124font_OSD_Charset_46_typeD0Ev>:
 80122c8:	4b03      	ldr	r3, [pc, #12]	; (80122d8 <_ZN12_GLOBAL__N_124font_OSD_Charset_46_typeD0Ev+0x10>)
 80122ca:	b510      	push	{r4, lr}
 80122cc:	4604      	mov	r4, r0
 80122ce:	6003      	str	r3, [r0, #0]
 80122d0:	f7fb fb76 	bl	800d9c0 <_ZdlPv>
 80122d4:	4620      	mov	r0, r4
 80122d6:	bd10      	pop	{r4, pc}
 80122d8:	08014ec8 	.word	0x08014ec8

080122dc <_ZN12_GLOBAL__N_124font_OSD_Charset_45_typeD0Ev>:
 80122dc:	4b03      	ldr	r3, [pc, #12]	; (80122ec <_ZN12_GLOBAL__N_124font_OSD_Charset_45_typeD0Ev+0x10>)
 80122de:	b510      	push	{r4, lr}
 80122e0:	4604      	mov	r4, r0
 80122e2:	6003      	str	r3, [r0, #0]
 80122e4:	f7fb fb6c 	bl	800d9c0 <_ZdlPv>
 80122e8:	4620      	mov	r0, r4
 80122ea:	bd10      	pop	{r4, pc}
 80122ec:	08014ec8 	.word	0x08014ec8

080122f0 <_ZN12_GLOBAL__N_124font_OSD_Charset_44_typeD0Ev>:
 80122f0:	4b03      	ldr	r3, [pc, #12]	; (8012300 <_ZN12_GLOBAL__N_124font_OSD_Charset_44_typeD0Ev+0x10>)
 80122f2:	b510      	push	{r4, lr}
 80122f4:	4604      	mov	r4, r0
 80122f6:	6003      	str	r3, [r0, #0]
 80122f8:	f7fb fb62 	bl	800d9c0 <_ZdlPv>
 80122fc:	4620      	mov	r0, r4
 80122fe:	bd10      	pop	{r4, pc}
 8012300:	08014ec8 	.word	0x08014ec8

08012304 <_ZN12_GLOBAL__N_124font_OSD_Charset_43_typeD0Ev>:
 8012304:	4b03      	ldr	r3, [pc, #12]	; (8012314 <_ZN12_GLOBAL__N_124font_OSD_Charset_43_typeD0Ev+0x10>)
 8012306:	b510      	push	{r4, lr}
 8012308:	4604      	mov	r4, r0
 801230a:	6003      	str	r3, [r0, #0]
 801230c:	f7fb fb58 	bl	800d9c0 <_ZdlPv>
 8012310:	4620      	mov	r0, r4
 8012312:	bd10      	pop	{r4, pc}
 8012314:	08014ec8 	.word	0x08014ec8

08012318 <_ZN12_GLOBAL__N_124font_OSD_Charset_42_typeD0Ev>:
 8012318:	4b03      	ldr	r3, [pc, #12]	; (8012328 <_ZN12_GLOBAL__N_124font_OSD_Charset_42_typeD0Ev+0x10>)
 801231a:	b510      	push	{r4, lr}
 801231c:	4604      	mov	r4, r0
 801231e:	6003      	str	r3, [r0, #0]
 8012320:	f7fb fb4e 	bl	800d9c0 <_ZdlPv>
 8012324:	4620      	mov	r0, r4
 8012326:	bd10      	pop	{r4, pc}
 8012328:	08014ec8 	.word	0x08014ec8

0801232c <_ZN12_GLOBAL__N_124font_OSD_Charset_41_typeD0Ev>:
 801232c:	4b03      	ldr	r3, [pc, #12]	; (801233c <_ZN12_GLOBAL__N_124font_OSD_Charset_41_typeD0Ev+0x10>)
 801232e:	b510      	push	{r4, lr}
 8012330:	4604      	mov	r4, r0
 8012332:	6003      	str	r3, [r0, #0]
 8012334:	f7fb fb44 	bl	800d9c0 <_ZdlPv>
 8012338:	4620      	mov	r0, r4
 801233a:	bd10      	pop	{r4, pc}
 801233c:	08014ec8 	.word	0x08014ec8

08012340 <_ZN12_GLOBAL__N_124font_OSD_Charset_40_typeD0Ev>:
 8012340:	4b03      	ldr	r3, [pc, #12]	; (8012350 <_ZN12_GLOBAL__N_124font_OSD_Charset_40_typeD0Ev+0x10>)
 8012342:	b510      	push	{r4, lr}
 8012344:	4604      	mov	r4, r0
 8012346:	6003      	str	r3, [r0, #0]
 8012348:	f7fb fb3a 	bl	800d9c0 <_ZdlPv>
 801234c:	4620      	mov	r0, r4
 801234e:	bd10      	pop	{r4, pc}
 8012350:	08014ec8 	.word	0x08014ec8

08012354 <_ZN12_GLOBAL__N_124font_OSD_Charset_39_typeD0Ev>:
 8012354:	4b03      	ldr	r3, [pc, #12]	; (8012364 <_ZN12_GLOBAL__N_124font_OSD_Charset_39_typeD0Ev+0x10>)
 8012356:	b510      	push	{r4, lr}
 8012358:	4604      	mov	r4, r0
 801235a:	6003      	str	r3, [r0, #0]
 801235c:	f7fb fb30 	bl	800d9c0 <_ZdlPv>
 8012360:	4620      	mov	r0, r4
 8012362:	bd10      	pop	{r4, pc}
 8012364:	08014ec8 	.word	0x08014ec8

08012368 <_ZN12_GLOBAL__N_124font_OSD_Charset_38_typeD0Ev>:
 8012368:	4b03      	ldr	r3, [pc, #12]	; (8012378 <_ZN12_GLOBAL__N_124font_OSD_Charset_38_typeD0Ev+0x10>)
 801236a:	b510      	push	{r4, lr}
 801236c:	4604      	mov	r4, r0
 801236e:	6003      	str	r3, [r0, #0]
 8012370:	f7fb fb26 	bl	800d9c0 <_ZdlPv>
 8012374:	4620      	mov	r0, r4
 8012376:	bd10      	pop	{r4, pc}
 8012378:	08014ec8 	.word	0x08014ec8

0801237c <_ZN12_GLOBAL__N_124font_OSD_Charset_37_typeD0Ev>:
 801237c:	4b03      	ldr	r3, [pc, #12]	; (801238c <_ZN12_GLOBAL__N_124font_OSD_Charset_37_typeD0Ev+0x10>)
 801237e:	b510      	push	{r4, lr}
 8012380:	4604      	mov	r4, r0
 8012382:	6003      	str	r3, [r0, #0]
 8012384:	f7fb fb1c 	bl	800d9c0 <_ZdlPv>
 8012388:	4620      	mov	r0, r4
 801238a:	bd10      	pop	{r4, pc}
 801238c:	08014ec8 	.word	0x08014ec8

08012390 <_ZN12_GLOBAL__N_124font_OSD_Charset_36_typeD0Ev>:
 8012390:	4b03      	ldr	r3, [pc, #12]	; (80123a0 <_ZN12_GLOBAL__N_124font_OSD_Charset_36_typeD0Ev+0x10>)
 8012392:	b510      	push	{r4, lr}
 8012394:	4604      	mov	r4, r0
 8012396:	6003      	str	r3, [r0, #0]
 8012398:	f7fb fb12 	bl	800d9c0 <_ZdlPv>
 801239c:	4620      	mov	r0, r4
 801239e:	bd10      	pop	{r4, pc}
 80123a0:	08014ec8 	.word	0x08014ec8

080123a4 <_ZN12_GLOBAL__N_124font_OSD_Charset_35_typeD0Ev>:
 80123a4:	4b03      	ldr	r3, [pc, #12]	; (80123b4 <_ZN12_GLOBAL__N_124font_OSD_Charset_35_typeD0Ev+0x10>)
 80123a6:	b510      	push	{r4, lr}
 80123a8:	4604      	mov	r4, r0
 80123aa:	6003      	str	r3, [r0, #0]
 80123ac:	f7fb fb08 	bl	800d9c0 <_ZdlPv>
 80123b0:	4620      	mov	r0, r4
 80123b2:	bd10      	pop	{r4, pc}
 80123b4:	08014ec8 	.word	0x08014ec8

080123b8 <_ZN12_GLOBAL__N_124font_OSD_Charset_34_typeD0Ev>:
 80123b8:	4b03      	ldr	r3, [pc, #12]	; (80123c8 <_ZN12_GLOBAL__N_124font_OSD_Charset_34_typeD0Ev+0x10>)
 80123ba:	b510      	push	{r4, lr}
 80123bc:	4604      	mov	r4, r0
 80123be:	6003      	str	r3, [r0, #0]
 80123c0:	f7fb fafe 	bl	800d9c0 <_ZdlPv>
 80123c4:	4620      	mov	r0, r4
 80123c6:	bd10      	pop	{r4, pc}
 80123c8:	08014ec8 	.word	0x08014ec8

080123cc <_ZN12_GLOBAL__N_124font_OSD_Charset_33_typeD0Ev>:
 80123cc:	4b03      	ldr	r3, [pc, #12]	; (80123dc <_ZN12_GLOBAL__N_124font_OSD_Charset_33_typeD0Ev+0x10>)
 80123ce:	b510      	push	{r4, lr}
 80123d0:	4604      	mov	r4, r0
 80123d2:	6003      	str	r3, [r0, #0]
 80123d4:	f7fb faf4 	bl	800d9c0 <_ZdlPv>
 80123d8:	4620      	mov	r0, r4
 80123da:	bd10      	pop	{r4, pc}
 80123dc:	08014ec8 	.word	0x08014ec8

080123e0 <_ZN12_GLOBAL__N_124font_OSD_Charset_32_typeD0Ev>:
 80123e0:	4b03      	ldr	r3, [pc, #12]	; (80123f0 <_ZN12_GLOBAL__N_124font_OSD_Charset_32_typeD0Ev+0x10>)
 80123e2:	b510      	push	{r4, lr}
 80123e4:	4604      	mov	r4, r0
 80123e6:	6003      	str	r3, [r0, #0]
 80123e8:	f7fb faea 	bl	800d9c0 <_ZdlPv>
 80123ec:	4620      	mov	r0, r4
 80123ee:	bd10      	pop	{r4, pc}
 80123f0:	08014ec8 	.word	0x08014ec8

080123f4 <_ZN4quan3uav3osd10basic_fontD0Ev>:
 80123f4:	4b03      	ldr	r3, [pc, #12]	; (8012404 <_ZN4quan3uav3osd10basic_fontD0Ev+0x10>)
 80123f6:	b510      	push	{r4, lr}
 80123f8:	4604      	mov	r4, r0
 80123fa:	6003      	str	r3, [r0, #0]
 80123fc:	f7fb fae0 	bl	800d9c0 <_ZdlPv>
 8012400:	4620      	mov	r0, r4
 8012402:	bd10      	pop	{r4, pc}
 8012404:	08014ee0 	.word	0x08014ee0

08012408 <_ZN4quan3uav3osd12basic_bitmapD0Ev>:
 8012408:	4b03      	ldr	r3, [pc, #12]	; (8012418 <_ZN4quan3uav3osd12basic_bitmapD0Ev+0x10>)
 801240a:	b510      	push	{r4, lr}
 801240c:	4604      	mov	r4, r0
 801240e:	6003      	str	r3, [r0, #0]
 8012410:	f7fb fad6 	bl	800d9c0 <_ZdlPv>
 8012414:	4620      	mov	r0, r4
 8012416:	bd10      	pop	{r4, pc}
 8012418:	08014ec8 	.word	0x08014ec8

0801241c <_ZN4quan3uav3osd8get_fontEm>:
 801241c:	2801      	cmp	r0, #1
 801241e:	d803      	bhi.n	8012428 <_ZN4quan3uav3osd8get_fontEm+0xc>
 8012420:	4b02      	ldr	r3, [pc, #8]	; (801242c <_ZN4quan3uav3osd8get_fontEm+0x10>)
 8012422:	f853 0020 	ldr.w	r0, [r3, r0, lsl #2]
 8012426:	4770      	bx	lr
 8012428:	2000      	movs	r0, #0
 801242a:	4770      	bx	lr
 801242c:	08015c58 	.word	0x08015c58

08012430 <_GLOBAL__sub_I__ZN4quan3uav3osd8get_fontEm>:
 8012430:	b538      	push	{r3, r4, r5, lr}
 8012432:	f640 43a4 	movw	r3, #3236	; 0xca4
 8012436:	f640 1408 	movw	r4, #2312	; 0x908
 801243a:	f2c1 0400 	movt	r4, #4096	; 0x1000
 801243e:	f2c1 0300 	movt	r3, #4096	; 0x1000
 8012442:	4dc6      	ldr	r5, [pc, #792]	; (801275c <_GLOBAL__sub_I__ZN4quan3uav3osd8get_fontEm+0x32c>)
 8012444:	f241 41e9 	movw	r1, #5353	; 0x14e9
 8012448:	4622      	mov	r2, r4
 801244a:	f6c0 0101 	movt	r1, #2049	; 0x801
 801244e:	4618      	mov	r0, r3
 8012450:	601d      	str	r5, [r3, #0]
 8012452:	f001 fe57 	bl	8014104 <__aeabi_atexit>
 8012456:	f640 33a0 	movw	r3, #2976	; 0xba0
 801245a:	f2c1 0300 	movt	r3, #4096	; 0x1000
 801245e:	4dc0      	ldr	r5, [pc, #768]	; (8012760 <_GLOBAL__sub_I__ZN4quan3uav3osd8get_fontEm+0x330>)
 8012460:	f241 41dd 	movw	r1, #5341	; 0x14dd
 8012464:	4622      	mov	r2, r4
 8012466:	f6c0 0101 	movt	r1, #2049	; 0x801
 801246a:	4618      	mov	r0, r3
 801246c:	601d      	str	r5, [r3, #0]
 801246e:	f001 fe49 	bl	8014104 <__aeabi_atexit>
 8012472:	f640 436c 	movw	r3, #3180	; 0xc6c
 8012476:	f2c1 0300 	movt	r3, #4096	; 0x1000
 801247a:	4dba      	ldr	r5, [pc, #744]	; (8012764 <_GLOBAL__sub_I__ZN4quan3uav3osd8get_fontEm+0x334>)
 801247c:	f241 41d1 	movw	r1, #5329	; 0x14d1
 8012480:	4622      	mov	r2, r4
 8012482:	f6c0 0101 	movt	r1, #2049	; 0x801
 8012486:	4618      	mov	r0, r3
 8012488:	601d      	str	r5, [r3, #0]
 801248a:	f001 fe3b 	bl	8014104 <__aeabi_atexit>
 801248e:	f640 4310 	movw	r3, #3088	; 0xc10
 8012492:	f2c1 0300 	movt	r3, #4096	; 0x1000
 8012496:	4db4      	ldr	r5, [pc, #720]	; (8012768 <_GLOBAL__sub_I__ZN4quan3uav3osd8get_fontEm+0x338>)
 8012498:	f241 41c5 	movw	r1, #5317	; 0x14c5
 801249c:	4622      	mov	r2, r4
 801249e:	f6c0 0101 	movt	r1, #2049	; 0x801
 80124a2:	4618      	mov	r0, r3
 80124a4:	601d      	str	r5, [r3, #0]
 80124a6:	f001 fe2d 	bl	8014104 <__aeabi_atexit>
 80124aa:	f640 4340 	movw	r3, #3136	; 0xc40
 80124ae:	f2c1 0300 	movt	r3, #4096	; 0x1000
 80124b2:	4dae      	ldr	r5, [pc, #696]	; (801276c <_GLOBAL__sub_I__ZN4quan3uav3osd8get_fontEm+0x33c>)
 80124b4:	f241 41b9 	movw	r1, #5305	; 0x14b9
 80124b8:	4622      	mov	r2, r4
 80124ba:	f6c0 0101 	movt	r1, #2049	; 0x801
 80124be:	4618      	mov	r0, r3
 80124c0:	601d      	str	r5, [r3, #0]
 80124c2:	f001 fe1f 	bl	8014104 <__aeabi_atexit>
 80124c6:	f640 33c8 	movw	r3, #3016	; 0xbc8
 80124ca:	f2c1 0300 	movt	r3, #4096	; 0x1000
 80124ce:	4da8      	ldr	r5, [pc, #672]	; (8012770 <_GLOBAL__sub_I__ZN4quan3uav3osd8get_fontEm+0x340>)
 80124d0:	f241 41ad 	movw	r1, #5293	; 0x14ad
 80124d4:	4622      	mov	r2, r4
 80124d6:	f6c0 0101 	movt	r1, #2049	; 0x801
 80124da:	4618      	mov	r0, r3
 80124dc:	601d      	str	r5, [r3, #0]
 80124de:	f001 fe11 	bl	8014104 <__aeabi_atexit>
 80124e2:	f640 334c 	movw	r3, #2892	; 0xb4c
 80124e6:	f2c1 0300 	movt	r3, #4096	; 0x1000
 80124ea:	4da2      	ldr	r5, [pc, #648]	; (8012774 <_GLOBAL__sub_I__ZN4quan3uav3osd8get_fontEm+0x344>)
 80124ec:	f241 41a1 	movw	r1, #5281	; 0x14a1
 80124f0:	4622      	mov	r2, r4
 80124f2:	f6c0 0101 	movt	r1, #2049	; 0x801
 80124f6:	4618      	mov	r0, r3
 80124f8:	601d      	str	r5, [r3, #0]
 80124fa:	f001 fe03 	bl	8014104 <__aeabi_atexit>
 80124fe:	f640 4360 	movw	r3, #3168	; 0xc60
 8012502:	f2c1 0300 	movt	r3, #4096	; 0x1000
 8012506:	4d9c      	ldr	r5, [pc, #624]	; (8012778 <_GLOBAL__sub_I__ZN4quan3uav3osd8get_fontEm+0x348>)
 8012508:	f241 4195 	movw	r1, #5269	; 0x1495
 801250c:	4622      	mov	r2, r4
 801250e:	f6c0 0101 	movt	r1, #2049	; 0x801
 8012512:	4618      	mov	r0, r3
 8012514:	601d      	str	r5, [r3, #0]
 8012516:	f001 fdf5 	bl	8014104 <__aeabi_atexit>
 801251a:	f640 3374 	movw	r3, #2932	; 0xb74
 801251e:	f2c1 0300 	movt	r3, #4096	; 0x1000
 8012522:	4d96      	ldr	r5, [pc, #600]	; (801277c <_GLOBAL__sub_I__ZN4quan3uav3osd8get_fontEm+0x34c>)
 8012524:	f241 4189 	movw	r1, #5257	; 0x1489
 8012528:	4622      	mov	r2, r4
 801252a:	f6c0 0101 	movt	r1, #2049	; 0x801
 801252e:	4618      	mov	r0, r3
 8012530:	601d      	str	r5, [r3, #0]
 8012532:	f001 fde7 	bl	8014104 <__aeabi_atexit>
 8012536:	f640 3340 	movw	r3, #2880	; 0xb40
 801253a:	f2c1 0300 	movt	r3, #4096	; 0x1000
 801253e:	4d90      	ldr	r5, [pc, #576]	; (8012780 <_GLOBAL__sub_I__ZN4quan3uav3osd8get_fontEm+0x350>)
 8012540:	f241 417d 	movw	r1, #5245	; 0x147d
 8012544:	4622      	mov	r2, r4
 8012546:	f6c0 0101 	movt	r1, #2049	; 0x801
 801254a:	4618      	mov	r0, r3
 801254c:	601d      	str	r5, [r3, #0]
 801254e:	f001 fdd9 	bl	8014104 <__aeabi_atexit>
 8012552:	f640 433c 	movw	r3, #3132	; 0xc3c
 8012556:	f2c1 0300 	movt	r3, #4096	; 0x1000
 801255a:	4d8a      	ldr	r5, [pc, #552]	; (8012784 <_GLOBAL__sub_I__ZN4quan3uav3osd8get_fontEm+0x354>)
 801255c:	f241 4171 	movw	r1, #5233	; 0x1471
 8012560:	4622      	mov	r2, r4
 8012562:	f6c0 0101 	movt	r1, #2049	; 0x801
 8012566:	4618      	mov	r0, r3
 8012568:	601d      	str	r5, [r3, #0]
 801256a:	f001 fdcb 	bl	8014104 <__aeabi_atexit>
 801256e:	f640 4388 	movw	r3, #3208	; 0xc88
 8012572:	f2c1 0300 	movt	r3, #4096	; 0x1000
 8012576:	4d84      	ldr	r5, [pc, #528]	; (8012788 <_GLOBAL__sub_I__ZN4quan3uav3osd8get_fontEm+0x358>)
 8012578:	f241 4165 	movw	r1, #5221	; 0x1465
 801257c:	4622      	mov	r2, r4
 801257e:	f6c0 0101 	movt	r1, #2049	; 0x801
 8012582:	4618      	mov	r0, r3
 8012584:	601d      	str	r5, [r3, #0]
 8012586:	f001 fdbd 	bl	8014104 <__aeabi_atexit>
 801258a:	f640 43c8 	movw	r3, #3272	; 0xcc8
 801258e:	f2c1 0300 	movt	r3, #4096	; 0x1000
 8012592:	4d7e      	ldr	r5, [pc, #504]	; (801278c <_GLOBAL__sub_I__ZN4quan3uav3osd8get_fontEm+0x35c>)
 8012594:	f241 4159 	movw	r1, #5209	; 0x1459
 8012598:	4622      	mov	r2, r4
 801259a:	f6c0 0101 	movt	r1, #2049	; 0x801
 801259e:	4618      	mov	r0, r3
 80125a0:	601d      	str	r5, [r3, #0]
 80125a2:	f001 fdaf 	bl	8014104 <__aeabi_atexit>
 80125a6:	f640 5314 	movw	r3, #3348	; 0xd14
 80125aa:	f2c1 0300 	movt	r3, #4096	; 0x1000
 80125ae:	4d78      	ldr	r5, [pc, #480]	; (8012790 <_GLOBAL__sub_I__ZN4quan3uav3osd8get_fontEm+0x360>)
 80125b0:	f241 414d 	movw	r1, #5197	; 0x144d
 80125b4:	4622      	mov	r2, r4
 80125b6:	f6c0 0101 	movt	r1, #2049	; 0x801
 80125ba:	4618      	mov	r0, r3
 80125bc:	601d      	str	r5, [r3, #0]
 80125be:	f001 fda1 	bl	8014104 <__aeabi_atexit>
 80125c2:	f640 23bc 	movw	r3, #2748	; 0xabc
 80125c6:	f2c1 0300 	movt	r3, #4096	; 0x1000
 80125ca:	4d72      	ldr	r5, [pc, #456]	; (8012794 <_GLOBAL__sub_I__ZN4quan3uav3osd8get_fontEm+0x364>)
 80125cc:	f241 4141 	movw	r1, #5185	; 0x1441
 80125d0:	4622      	mov	r2, r4
 80125d2:	f6c0 0101 	movt	r1, #2049	; 0x801
 80125d6:	4618      	mov	r0, r3
 80125d8:	601d      	str	r5, [r3, #0]
 80125da:	f001 fd93 	bl	8014104 <__aeabi_atexit>
 80125de:	f640 3338 	movw	r3, #2872	; 0xb38
 80125e2:	f2c1 0300 	movt	r3, #4096	; 0x1000
 80125e6:	4d6c      	ldr	r5, [pc, #432]	; (8012798 <_GLOBAL__sub_I__ZN4quan3uav3osd8get_fontEm+0x368>)
 80125e8:	f241 4135 	movw	r1, #5173	; 0x1435
 80125ec:	4622      	mov	r2, r4
 80125ee:	f6c0 0101 	movt	r1, #2049	; 0x801
 80125f2:	4618      	mov	r0, r3
 80125f4:	601d      	str	r5, [r3, #0]
 80125f6:	f001 fd85 	bl	8014104 <__aeabi_atexit>
 80125fa:	f640 23c0 	movw	r3, #2752	; 0xac0
 80125fe:	f2c1 0300 	movt	r3, #4096	; 0x1000
 8012602:	4d66      	ldr	r5, [pc, #408]	; (801279c <_GLOBAL__sub_I__ZN4quan3uav3osd8get_fontEm+0x36c>)
 8012604:	f241 4129 	movw	r1, #5161	; 0x1429
 8012608:	4622      	mov	r2, r4
 801260a:	f6c0 0101 	movt	r1, #2049	; 0x801
 801260e:	4618      	mov	r0, r3
 8012610:	601d      	str	r5, [r3, #0]
 8012612:	f001 fd77 	bl	8014104 <__aeabi_atexit>
 8012616:	f640 43bc 	movw	r3, #3260	; 0xcbc
 801261a:	f2c1 0300 	movt	r3, #4096	; 0x1000
 801261e:	4d60      	ldr	r5, [pc, #384]	; (80127a0 <_GLOBAL__sub_I__ZN4quan3uav3osd8get_fontEm+0x370>)
 8012620:	f241 411d 	movw	r1, #5149	; 0x141d
 8012624:	4622      	mov	r2, r4
 8012626:	f6c0 0101 	movt	r1, #2049	; 0x801
 801262a:	4618      	mov	r0, r3
 801262c:	601d      	str	r5, [r3, #0]
 801262e:	f001 fd69 	bl	8014104 <__aeabi_atexit>
 8012632:	f640 5344 	movw	r3, #3396	; 0xd44
 8012636:	f2c1 0300 	movt	r3, #4096	; 0x1000
 801263a:	4d5a      	ldr	r5, [pc, #360]	; (80127a4 <_GLOBAL__sub_I__ZN4quan3uav3osd8get_fontEm+0x374>)
 801263c:	f241 4111 	movw	r1, #5137	; 0x1411
 8012640:	4622      	mov	r2, r4
 8012642:	f6c0 0101 	movt	r1, #2049	; 0x801
 8012646:	4618      	mov	r0, r3
 8012648:	601d      	str	r5, [r3, #0]
 801264a:	f001 fd5b 	bl	8014104 <__aeabi_atexit>
 801264e:	f640 2388 	movw	r3, #2696	; 0xa88
 8012652:	f2c1 0300 	movt	r3, #4096	; 0x1000
 8012656:	4d54      	ldr	r5, [pc, #336]	; (80127a8 <_GLOBAL__sub_I__ZN4quan3uav3osd8get_fontEm+0x378>)
 8012658:	f241 4105 	movw	r1, #5125	; 0x1405
 801265c:	4622      	mov	r2, r4
 801265e:	f6c0 0101 	movt	r1, #2049	; 0x801
 8012662:	4618      	mov	r0, r3
 8012664:	601d      	str	r5, [r3, #0]
 8012666:	f001 fd4d 	bl	8014104 <__aeabi_atexit>
 801266a:	f640 23c4 	movw	r3, #2756	; 0xac4
 801266e:	f2c1 0300 	movt	r3, #4096	; 0x1000
 8012672:	4d4e      	ldr	r5, [pc, #312]	; (80127ac <_GLOBAL__sub_I__ZN4quan3uav3osd8get_fontEm+0x37c>)
 8012674:	f241 31f9 	movw	r1, #5113	; 0x13f9
 8012678:	4622      	mov	r2, r4
 801267a:	f6c0 0101 	movt	r1, #2049	; 0x801
 801267e:	4618      	mov	r0, r3
 8012680:	601d      	str	r5, [r3, #0]
 8012682:	f001 fd3f 	bl	8014104 <__aeabi_atexit>
 8012686:	f640 23fc 	movw	r3, #2812	; 0xafc
 801268a:	f2c1 0300 	movt	r3, #4096	; 0x1000
 801268e:	4d48      	ldr	r5, [pc, #288]	; (80127b0 <_GLOBAL__sub_I__ZN4quan3uav3osd8get_fontEm+0x380>)
 8012690:	f241 31ed 	movw	r1, #5101	; 0x13ed
 8012694:	4622      	mov	r2, r4
 8012696:	f6c0 0101 	movt	r1, #2049	; 0x801
 801269a:	4618      	mov	r0, r3
 801269c:	601d      	str	r5, [r3, #0]
 801269e:	f001 fd31 	bl	8014104 <__aeabi_atexit>
 80126a2:	f640 33d0 	movw	r3, #3024	; 0xbd0
 80126a6:	f2c1 0300 	movt	r3, #4096	; 0x1000
 80126aa:	4d42      	ldr	r5, [pc, #264]	; (80127b4 <_GLOBAL__sub_I__ZN4quan3uav3osd8get_fontEm+0x384>)
 80126ac:	f241 31e1 	movw	r1, #5089	; 0x13e1
 80126b0:	4622      	mov	r2, r4
 80126b2:	f6c0 0101 	movt	r1, #2049	; 0x801
 80126b6:	4618      	mov	r0, r3
 80126b8:	601d      	str	r5, [r3, #0]
 80126ba:	f001 fd23 	bl	8014104 <__aeabi_atexit>
 80126be:	f640 3368 	movw	r3, #2920	; 0xb68
 80126c2:	f2c1 0300 	movt	r3, #4096	; 0x1000
 80126c6:	4d3c      	ldr	r5, [pc, #240]	; (80127b8 <_GLOBAL__sub_I__ZN4quan3uav3osd8get_fontEm+0x388>)
 80126c8:	f241 31d5 	movw	r1, #5077	; 0x13d5
 80126cc:	4622      	mov	r2, r4
 80126ce:	f6c0 0101 	movt	r1, #2049	; 0x801
 80126d2:	4618      	mov	r0, r3
 80126d4:	601d      	str	r5, [r3, #0]
 80126d6:	f001 fd15 	bl	8014104 <__aeabi_atexit>
 80126da:	f640 339c 	movw	r3, #2972	; 0xb9c
 80126de:	f2c1 0300 	movt	r3, #4096	; 0x1000
 80126e2:	4d36      	ldr	r5, [pc, #216]	; (80127bc <_GLOBAL__sub_I__ZN4quan3uav3osd8get_fontEm+0x38c>)
 80126e4:	f241 31c9 	movw	r1, #5065	; 0x13c9
 80126e8:	4622      	mov	r2, r4
 80126ea:	f6c0 0101 	movt	r1, #2049	; 0x801
 80126ee:	4618      	mov	r0, r3
 80126f0:	601d      	str	r5, [r3, #0]
 80126f2:	f001 fd07 	bl	8014104 <__aeabi_atexit>
 80126f6:	f640 33d4 	movw	r3, #3028	; 0xbd4
 80126fa:	f2c1 0300 	movt	r3, #4096	; 0x1000
 80126fe:	4d30      	ldr	r5, [pc, #192]	; (80127c0 <_GLOBAL__sub_I__ZN4quan3uav3osd8get_fontEm+0x390>)
 8012700:	f241 31bd 	movw	r1, #5053	; 0x13bd
 8012704:	4622      	mov	r2, r4
 8012706:	f6c0 0101 	movt	r1, #2049	; 0x801
 801270a:	4618      	mov	r0, r3
 801270c:	601d      	str	r5, [r3, #0]
 801270e:	f001 fcf9 	bl	8014104 <__aeabi_atexit>
 8012712:	f640 4304 	movw	r3, #3076	; 0xc04
 8012716:	f2c1 0300 	movt	r3, #4096	; 0x1000
 801271a:	4d2a      	ldr	r5, [pc, #168]	; (80127c4 <_GLOBAL__sub_I__ZN4quan3uav3osd8get_fontEm+0x394>)
 801271c:	f241 31b1 	movw	r1, #5041	; 0x13b1
 8012720:	4622      	mov	r2, r4
 8012722:	f6c0 0101 	movt	r1, #2049	; 0x801
 8012726:	4618      	mov	r0, r3
 8012728:	601d      	str	r5, [r3, #0]
 801272a:	f001 fceb 	bl	8014104 <__aeabi_atexit>
 801272e:	f640 2378 	movw	r3, #2680	; 0xa78
 8012732:	f2c1 0300 	movt	r3, #4096	; 0x1000
 8012736:	4d24      	ldr	r5, [pc, #144]	; (80127c8 <_GLOBAL__sub_I__ZN4quan3uav3osd8get_fontEm+0x398>)
 8012738:	f241 31a5 	movw	r1, #5029	; 0x13a5
 801273c:	4622      	mov	r2, r4
 801273e:	f6c0 0101 	movt	r1, #2049	; 0x801
 8012742:	4618      	mov	r0, r3
 8012744:	601d      	str	r5, [r3, #0]
 8012746:	f001 fcdd 	bl	8014104 <__aeabi_atexit>
 801274a:	f640 235c 	movw	r3, #2652	; 0xa5c
 801274e:	f2c1 0300 	movt	r3, #4096	; 0x1000
 8012752:	4d1e      	ldr	r5, [pc, #120]	; (80127cc <_GLOBAL__sub_I__ZN4quan3uav3osd8get_fontEm+0x39c>)
 8012754:	f241 3199 	movw	r1, #5017	; 0x1399
 8012758:	e03a      	b.n	80127d0 <_GLOBAL__sub_I__ZN4quan3uav3osd8get_fontEm+0x3a0>
 801275a:	bf00      	nop
 801275c:	08015770 	.word	0x08015770
 8012760:	080181e0 	.word	0x080181e0
 8012764:	08015f88 	.word	0x08015f88
 8012768:	08017660 	.word	0x08017660
 801276c:	08016790 	.word	0x08016790
 8012770:	08015150 	.word	0x08015150
 8012774:	08018b70 	.word	0x08018b70
 8012778:	08015530 	.word	0x08015530
 801277c:	080166d8 	.word	0x080166d8
 8012780:	08015218 	.word	0x08015218
 8012784:	08017108 	.word	0x08017108
 8012788:	080154e8 	.word	0x080154e8
 801278c:	08015ef0 	.word	0x08015ef0
 8012790:	08015b78 	.word	0x08015b78
 8012794:	08018758 	.word	0x08018758
 8012798:	08017240 	.word	0x08017240
 801279c:	08018d40 	.word	0x08018d40
 80127a0:	08016bd0 	.word	0x08016bd0
 80127a4:	08018638 	.word	0x08018638
 80127a8:	080162c0 	.word	0x080162c0
 80127ac:	08018cc8 	.word	0x08018cc8
 80127b0:	08016b50 	.word	0x08016b50
 80127b4:	08015370 	.word	0x08015370
 80127b8:	08017630 	.word	0x08017630
 80127bc:	080157a0 	.word	0x080157a0
 80127c0:	08015180 	.word	0x08015180
 80127c4:	08015ff0 	.word	0x08015ff0
 80127c8:	08018ac8 	.word	0x08018ac8
 80127cc:	08015758 	.word	0x08015758
 80127d0:	4622      	mov	r2, r4
 80127d2:	f6c0 0101 	movt	r1, #2049	; 0x801
 80127d6:	4618      	mov	r0, r3
 80127d8:	601d      	str	r5, [r3, #0]
 80127da:	f001 fc93 	bl	8014104 <__aeabi_atexit>
 80127de:	f640 33d8 	movw	r3, #3032	; 0xbd8
 80127e2:	f2c1 0300 	movt	r3, #4096	; 0x1000
 80127e6:	4dc6      	ldr	r5, [pc, #792]	; (8012b00 <_GLOBAL__sub_I__ZN4quan3uav3osd8get_fontEm+0x6d0>)
 80127e8:	f241 318d 	movw	r1, #5005	; 0x138d
 80127ec:	4622      	mov	r2, r4
 80127ee:	f6c0 0101 	movt	r1, #2049	; 0x801
 80127f2:	4618      	mov	r0, r3
 80127f4:	601d      	str	r5, [r3, #0]
 80127f6:	f001 fc85 	bl	8014104 <__aeabi_atexit>
 80127fa:	f640 430c 	movw	r3, #3084	; 0xc0c
 80127fe:	f2c1 0300 	movt	r3, #4096	; 0x1000
 8012802:	4dc0      	ldr	r5, [pc, #768]	; (8012b04 <_GLOBAL__sub_I__ZN4quan3uav3osd8get_fontEm+0x6d4>)
 8012804:	f241 3181 	movw	r1, #4993	; 0x1381
 8012808:	4622      	mov	r2, r4
 801280a:	f6c0 0101 	movt	r1, #2049	; 0x801
 801280e:	4618      	mov	r0, r3
 8012810:	601d      	str	r5, [r3, #0]
 8012812:	f001 fc77 	bl	8014104 <__aeabi_atexit>
 8012816:	f640 4338 	movw	r3, #3128	; 0xc38
 801281a:	f2c1 0300 	movt	r3, #4096	; 0x1000
 801281e:	4dba      	ldr	r5, [pc, #744]	; (8012b08 <_GLOBAL__sub_I__ZN4quan3uav3osd8get_fontEm+0x6d8>)
 8012820:	f241 3175 	movw	r1, #4981	; 0x1375
 8012824:	4622      	mov	r2, r4
 8012826:	f6c0 0101 	movt	r1, #2049	; 0x801
 801282a:	4618      	mov	r0, r3
 801282c:	601d      	str	r5, [r3, #0]
 801282e:	f001 fc69 	bl	8014104 <__aeabi_atexit>
 8012832:	f640 238c 	movw	r3, #2700	; 0xa8c
 8012836:	f2c1 0300 	movt	r3, #4096	; 0x1000
 801283a:	4db4      	ldr	r5, [pc, #720]	; (8012b0c <_GLOBAL__sub_I__ZN4quan3uav3osd8get_fontEm+0x6dc>)
 801283c:	f241 3169 	movw	r1, #4969	; 0x1369
 8012840:	4622      	mov	r2, r4
 8012842:	f6c0 0101 	movt	r1, #2049	; 0x801
 8012846:	4618      	mov	r0, r3
 8012848:	601d      	str	r5, [r3, #0]
 801284a:	f001 fc5b 	bl	8014104 <__aeabi_atexit>
 801284e:	f640 3370 	movw	r3, #2928	; 0xb70
 8012852:	f2c1 0300 	movt	r3, #4096	; 0x1000
 8012856:	4dae      	ldr	r5, [pc, #696]	; (8012b10 <_GLOBAL__sub_I__ZN4quan3uav3osd8get_fontEm+0x6e0>)
 8012858:	f241 315d 	movw	r1, #4957	; 0x135d
 801285c:	4622      	mov	r2, r4
 801285e:	f6c0 0101 	movt	r1, #2049	; 0x801
 8012862:	4618      	mov	r0, r3
 8012864:	601d      	str	r5, [r3, #0]
 8012866:	f001 fc4d 	bl	8014104 <__aeabi_atexit>
 801286a:	f640 3300 	movw	r3, #2816	; 0xb00
 801286e:	f2c1 0300 	movt	r3, #4096	; 0x1000
 8012872:	4da8      	ldr	r5, [pc, #672]	; (8012b14 <_GLOBAL__sub_I__ZN4quan3uav3osd8get_fontEm+0x6e4>)
 8012874:	f241 3151 	movw	r1, #4945	; 0x1351
 8012878:	4622      	mov	r2, r4
 801287a:	f6c0 0101 	movt	r1, #2049	; 0x801
 801287e:	4618      	mov	r0, r3
 8012880:	601d      	str	r5, [r3, #0]
 8012882:	f001 fc3f 	bl	8014104 <__aeabi_atexit>
 8012886:	f640 43d0 	movw	r3, #3280	; 0xcd0
 801288a:	f2c1 0300 	movt	r3, #4096	; 0x1000
 801288e:	4da2      	ldr	r5, [pc, #648]	; (8012b18 <_GLOBAL__sub_I__ZN4quan3uav3osd8get_fontEm+0x6e8>)
 8012890:	f241 3145 	movw	r1, #4933	; 0x1345
 8012894:	4622      	mov	r2, r4
 8012896:	f6c0 0101 	movt	r1, #2049	; 0x801
 801289a:	4618      	mov	r0, r3
 801289c:	601d      	str	r5, [r3, #0]
 801289e:	f001 fc31 	bl	8014104 <__aeabi_atexit>
 80128a2:	f640 533c 	movw	r3, #3388	; 0xd3c
 80128a6:	f2c1 0300 	movt	r3, #4096	; 0x1000
 80128aa:	4d9c      	ldr	r5, [pc, #624]	; (8012b1c <_GLOBAL__sub_I__ZN4quan3uav3osd8get_fontEm+0x6ec>)
 80128ac:	f241 3139 	movw	r1, #4921	; 0x1339
 80128b0:	4622      	mov	r2, r4
 80128b2:	f6c0 0101 	movt	r1, #2049	; 0x801
 80128b6:	4618      	mov	r0, r3
 80128b8:	601d      	str	r5, [r3, #0]
 80128ba:	f001 fc23 	bl	8014104 <__aeabi_atexit>
 80128be:	f640 5338 	movw	r3, #3384	; 0xd38
 80128c2:	f2c1 0300 	movt	r3, #4096	; 0x1000
 80128c6:	4d96      	ldr	r5, [pc, #600]	; (8012b20 <_GLOBAL__sub_I__ZN4quan3uav3osd8get_fontEm+0x6f0>)
 80128c8:	f241 312d 	movw	r1, #4909	; 0x132d
 80128cc:	4622      	mov	r2, r4
 80128ce:	f6c0 0101 	movt	r1, #2049	; 0x801
 80128d2:	4618      	mov	r0, r3
 80128d4:	601d      	str	r5, [r3, #0]
 80128d6:	f001 fc15 	bl	8014104 <__aeabi_atexit>
 80128da:	f640 43a0 	movw	r3, #3232	; 0xca0
 80128de:	f2c1 0300 	movt	r3, #4096	; 0x1000
 80128e2:	4d90      	ldr	r5, [pc, #576]	; (8012b24 <_GLOBAL__sub_I__ZN4quan3uav3osd8get_fontEm+0x6f4>)
 80128e4:	f241 3121 	movw	r1, #4897	; 0x1321
 80128e8:	4622      	mov	r2, r4
 80128ea:	f6c0 0101 	movt	r1, #2049	; 0x801
 80128ee:	4618      	mov	r0, r3
 80128f0:	601d      	str	r5, [r3, #0]
 80128f2:	f001 fc07 	bl	8014104 <__aeabi_atexit>
 80128f6:	f640 43e4 	movw	r3, #3300	; 0xce4
 80128fa:	f2c1 0300 	movt	r3, #4096	; 0x1000
 80128fe:	4d8a      	ldr	r5, [pc, #552]	; (8012b28 <_GLOBAL__sub_I__ZN4quan3uav3osd8get_fontEm+0x6f8>)
 8012900:	f241 3115 	movw	r1, #4885	; 0x1315
 8012904:	4622      	mov	r2, r4
 8012906:	f6c0 0101 	movt	r1, #2049	; 0x801
 801290a:	4618      	mov	r0, r3
 801290c:	601d      	str	r5, [r3, #0]
 801290e:	f001 fbf9 	bl	8014104 <__aeabi_atexit>
 8012912:	f640 5348 	movw	r3, #3400	; 0xd48
 8012916:	f2c1 0300 	movt	r3, #4096	; 0x1000
 801291a:	4d84      	ldr	r5, [pc, #528]	; (8012b2c <_GLOBAL__sub_I__ZN4quan3uav3osd8get_fontEm+0x6fc>)
 801291c:	f241 3109 	movw	r1, #4873	; 0x1309
 8012920:	4622      	mov	r2, r4
 8012922:	f6c0 0101 	movt	r1, #2049	; 0x801
 8012926:	4618      	mov	r0, r3
 8012928:	601d      	str	r5, [r3, #0]
 801292a:	f001 fbeb 	bl	8014104 <__aeabi_atexit>
 801292e:	f640 5340 	movw	r3, #3392	; 0xd40
 8012932:	f2c1 0300 	movt	r3, #4096	; 0x1000
 8012936:	4d7e      	ldr	r5, [pc, #504]	; (8012b30 <_GLOBAL__sub_I__ZN4quan3uav3osd8get_fontEm+0x700>)
 8012938:	f241 21fd 	movw	r1, #4861	; 0x12fd
 801293c:	4622      	mov	r2, r4
 801293e:	f6c0 0101 	movt	r1, #2049	; 0x801
 8012942:	4618      	mov	r0, r3
 8012944:	601d      	str	r5, [r3, #0]
 8012946:	f001 fbdd 	bl	8014104 <__aeabi_atexit>
 801294a:	f640 33e8 	movw	r3, #3048	; 0xbe8
 801294e:	f2c1 0300 	movt	r3, #4096	; 0x1000
 8012952:	4d78      	ldr	r5, [pc, #480]	; (8012b34 <_GLOBAL__sub_I__ZN4quan3uav3osd8get_fontEm+0x704>)
 8012954:	f241 21f1 	movw	r1, #4849	; 0x12f1
 8012958:	4622      	mov	r2, r4
 801295a:	f6c0 0101 	movt	r1, #2049	; 0x801
 801295e:	4618      	mov	r0, r3
 8012960:	601d      	str	r5, [r3, #0]
 8012962:	f001 fbcf 	bl	8014104 <__aeabi_atexit>
 8012966:	f640 23b8 	movw	r3, #2744	; 0xab8
 801296a:	f2c1 0300 	movt	r3, #4096	; 0x1000
 801296e:	4d72      	ldr	r5, [pc, #456]	; (8012b38 <_GLOBAL__sub_I__ZN4quan3uav3osd8get_fontEm+0x708>)
 8012970:	f241 21e5 	movw	r1, #4837	; 0x12e5
 8012974:	4622      	mov	r2, r4
 8012976:	f6c0 0101 	movt	r1, #2049	; 0x801
 801297a:	4618      	mov	r0, r3
 801297c:	601d      	str	r5, [r3, #0]
 801297e:	f001 fbc1 	bl	8014104 <__aeabi_atexit>
 8012982:	f640 43d4 	movw	r3, #3284	; 0xcd4
 8012986:	f2c1 0300 	movt	r3, #4096	; 0x1000
 801298a:	4d6c      	ldr	r5, [pc, #432]	; (8012b3c <_GLOBAL__sub_I__ZN4quan3uav3osd8get_fontEm+0x70c>)
 801298c:	f241 21d9 	movw	r1, #4825	; 0x12d9
 8012990:	4622      	mov	r2, r4
 8012992:	f6c0 0101 	movt	r1, #2049	; 0x801
 8012996:	4618      	mov	r0, r3
 8012998:	601d      	str	r5, [r3, #0]
 801299a:	f001 fbb3 	bl	8014104 <__aeabi_atexit>
 801299e:	f640 43d8 	movw	r3, #3288	; 0xcd8
 80129a2:	f2c1 0300 	movt	r3, #4096	; 0x1000
 80129a6:	4d66      	ldr	r5, [pc, #408]	; (8012b40 <_GLOBAL__sub_I__ZN4quan3uav3osd8get_fontEm+0x710>)
 80129a8:	f241 21cd 	movw	r1, #4813	; 0x12cd
 80129ac:	4622      	mov	r2, r4
 80129ae:	f6c0 0101 	movt	r1, #2049	; 0x801
 80129b2:	4618      	mov	r0, r3
 80129b4:	601d      	str	r5, [r3, #0]
 80129b6:	f001 fba5 	bl	8014104 <__aeabi_atexit>
 80129ba:	f640 3364 	movw	r3, #2916	; 0xb64
 80129be:	f2c1 0300 	movt	r3, #4096	; 0x1000
 80129c2:	4d60      	ldr	r5, [pc, #384]	; (8012b44 <_GLOBAL__sub_I__ZN4quan3uav3osd8get_fontEm+0x714>)
 80129c4:	f241 21c1 	movw	r1, #4801	; 0x12c1
 80129c8:	4622      	mov	r2, r4
 80129ca:	f6c0 0101 	movt	r1, #2049	; 0x801
 80129ce:	4618      	mov	r0, r3
 80129d0:	601d      	str	r5, [r3, #0]
 80129d2:	f001 fb97 	bl	8014104 <__aeabi_atexit>
 80129d6:	f640 2394 	movw	r3, #2708	; 0xa94
 80129da:	f2c1 0300 	movt	r3, #4096	; 0x1000
 80129de:	4d5a      	ldr	r5, [pc, #360]	; (8012b48 <_GLOBAL__sub_I__ZN4quan3uav3osd8get_fontEm+0x718>)
 80129e0:	f241 21b5 	movw	r1, #4789	; 0x12b5
 80129e4:	4622      	mov	r2, r4
 80129e6:	f6c0 0101 	movt	r1, #2049	; 0x801
 80129ea:	4618      	mov	r0, r3
 80129ec:	601d      	str	r5, [r3, #0]
 80129ee:	f001 fb89 	bl	8014104 <__aeabi_atexit>
 80129f2:	f640 23f0 	movw	r3, #2800	; 0xaf0
 80129f6:	f2c1 0300 	movt	r3, #4096	; 0x1000
 80129fa:	4d54      	ldr	r5, [pc, #336]	; (8012b4c <_GLOBAL__sub_I__ZN4quan3uav3osd8get_fontEm+0x71c>)
 80129fc:	f241 21a9 	movw	r1, #4777	; 0x12a9
 8012a00:	4622      	mov	r2, r4
 8012a02:	f6c0 0101 	movt	r1, #2049	; 0x801
 8012a06:	4618      	mov	r0, r3
 8012a08:	601d      	str	r5, [r3, #0]
 8012a0a:	f001 fb7b 	bl	8014104 <__aeabi_atexit>
 8012a0e:	f640 333c 	movw	r3, #2876	; 0xb3c
 8012a12:	f2c1 0300 	movt	r3, #4096	; 0x1000
 8012a16:	4d4e      	ldr	r5, [pc, #312]	; (8012b50 <_GLOBAL__sub_I__ZN4quan3uav3osd8get_fontEm+0x720>)
 8012a18:	f241 219d 	movw	r1, #4765	; 0x129d
 8012a1c:	4622      	mov	r2, r4
 8012a1e:	f6c0 0101 	movt	r1, #2049	; 0x801
 8012a22:	4618      	mov	r0, r3
 8012a24:	601d      	str	r5, [r3, #0]
 8012a26:	f001 fb6d 	bl	8014104 <__aeabi_atexit>
 8012a2a:	f640 43a8 	movw	r3, #3240	; 0xca8
 8012a2e:	f2c1 0300 	movt	r3, #4096	; 0x1000
 8012a32:	4d48      	ldr	r5, [pc, #288]	; (8012b54 <_GLOBAL__sub_I__ZN4quan3uav3osd8get_fontEm+0x724>)
 8012a34:	f241 2191 	movw	r1, #4753	; 0x1291
 8012a38:	4622      	mov	r2, r4
 8012a3a:	f6c0 0101 	movt	r1, #2049	; 0x801
 8012a3e:	4618      	mov	r0, r3
 8012a40:	601d      	str	r5, [r3, #0]
 8012a42:	f001 fb5f 	bl	8014104 <__aeabi_atexit>
 8012a46:	f640 3398 	movw	r3, #2968	; 0xb98
 8012a4a:	f2c1 0300 	movt	r3, #4096	; 0x1000
 8012a4e:	4d42      	ldr	r5, [pc, #264]	; (8012b58 <_GLOBAL__sub_I__ZN4quan3uav3osd8get_fontEm+0x728>)
 8012a50:	f241 2185 	movw	r1, #4741	; 0x1285
 8012a54:	4622      	mov	r2, r4
 8012a56:	f6c0 0101 	movt	r1, #2049	; 0x801
 8012a5a:	4618      	mov	r0, r3
 8012a5c:	601d      	str	r5, [r3, #0]
 8012a5e:	f001 fb51 	bl	8014104 <__aeabi_atexit>
 8012a62:	f640 33cc 	movw	r3, #3020	; 0xbcc
 8012a66:	f2c1 0300 	movt	r3, #4096	; 0x1000
 8012a6a:	4d3c      	ldr	r5, [pc, #240]	; (8012b5c <_GLOBAL__sub_I__ZN4quan3uav3osd8get_fontEm+0x72c>)
 8012a6c:	f241 2179 	movw	r1, #4729	; 0x1279
 8012a70:	4622      	mov	r2, r4
 8012a72:	f6c0 0101 	movt	r1, #2049	; 0x801
 8012a76:	4618      	mov	r0, r3
 8012a78:	601d      	str	r5, [r3, #0]
 8012a7a:	f001 fb43 	bl	8014104 <__aeabi_atexit>
 8012a7e:	f640 4300 	movw	r3, #3072	; 0xc00
 8012a82:	f2c1 0300 	movt	r3, #4096	; 0x1000
 8012a86:	4d36      	ldr	r5, [pc, #216]	; (8012b60 <_GLOBAL__sub_I__ZN4quan3uav3osd8get_fontEm+0x730>)
 8012a88:	f241 216d 	movw	r1, #4717	; 0x126d
 8012a8c:	4622      	mov	r2, r4
 8012a8e:	f6c0 0101 	movt	r1, #2049	; 0x801
 8012a92:	4618      	mov	r0, r3
 8012a94:	601d      	str	r5, [r3, #0]
 8012a96:	f001 fb35 	bl	8014104 <__aeabi_atexit>
 8012a9a:	f640 336c 	movw	r3, #2924	; 0xb6c
 8012a9e:	f2c1 0300 	movt	r3, #4096	; 0x1000
 8012aa2:	4d30      	ldr	r5, [pc, #192]	; (8012b64 <_GLOBAL__sub_I__ZN4quan3uav3osd8get_fontEm+0x734>)
 8012aa4:	f241 2161 	movw	r1, #4705	; 0x1261
 8012aa8:	4622      	mov	r2, r4
 8012aaa:	f6c0 0101 	movt	r1, #2049	; 0x801
 8012aae:	4618      	mov	r0, r3
 8012ab0:	601d      	str	r5, [r3, #0]
 8012ab2:	f001 fb27 	bl	8014104 <__aeabi_atexit>
 8012ab6:	f640 4370 	movw	r3, #3184	; 0xc70
 8012aba:	f2c1 0300 	movt	r3, #4096	; 0x1000
 8012abe:	4d2a      	ldr	r5, [pc, #168]	; (8012b68 <_GLOBAL__sub_I__ZN4quan3uav3osd8get_fontEm+0x738>)
 8012ac0:	f241 2155 	movw	r1, #4693	; 0x1255
 8012ac4:	4622      	mov	r2, r4
 8012ac6:	f6c0 0101 	movt	r1, #2049	; 0x801
 8012aca:	4618      	mov	r0, r3
 8012acc:	601d      	str	r5, [r3, #0]
 8012ace:	f001 fb19 	bl	8014104 <__aeabi_atexit>
 8012ad2:	f640 4334 	movw	r3, #3124	; 0xc34
 8012ad6:	f2c1 0300 	movt	r3, #4096	; 0x1000
 8012ada:	4d24      	ldr	r5, [pc, #144]	; (8012b6c <_GLOBAL__sub_I__ZN4quan3uav3osd8get_fontEm+0x73c>)
 8012adc:	f241 2149 	movw	r1, #4681	; 0x1249
 8012ae0:	4622      	mov	r2, r4
 8012ae2:	f6c0 0101 	movt	r1, #2049	; 0x801
 8012ae6:	4618      	mov	r0, r3
 8012ae8:	601d      	str	r5, [r3, #0]
 8012aea:	f001 fb0b 	bl	8014104 <__aeabi_atexit>
 8012aee:	f640 4374 	movw	r3, #3188	; 0xc74
 8012af2:	f2c1 0300 	movt	r3, #4096	; 0x1000
 8012af6:	4d1e      	ldr	r5, [pc, #120]	; (8012b70 <_GLOBAL__sub_I__ZN4quan3uav3osd8get_fontEm+0x740>)
 8012af8:	f241 213d 	movw	r1, #4669	; 0x123d
 8012afc:	e03a      	b.n	8012b74 <_GLOBAL__sub_I__ZN4quan3uav3osd8get_fontEm+0x744>
 8012afe:	bf00      	nop
 8012b00:	08018b10 	.word	0x08018b10
 8012b04:	08015f58 	.word	0x08015f58
 8012b08:	080189f0 	.word	0x080189f0
 8012b0c:	08015680 	.word	0x08015680
 8012b10:	08015120 	.word	0x08015120
 8012b14:	080171a8 	.word	0x080171a8
 8012b18:	08015500 	.word	0x08015500
 8012b1c:	08017d18 	.word	0x08017d18
 8012b20:	08015be0 	.word	0x08015be0
 8012b24:	080170f0 	.word	0x080170f0
 8012b28:	08015498 	.word	0x08015498
 8012b2c:	08017bf0 	.word	0x08017bf0
 8012b30:	08015b48 	.word	0x08015b48
 8012b34:	080186c0 	.word	0x080186c0
 8012b38:	08016380 	.word	0x08016380
 8012b3c:	08018cf8 	.word	0x08018cf8
 8012b40:	08016ba0 	.word	0x08016ba0
 8012b44:	080153a0 	.word	0x080153a0
 8012b48:	08016d68 	.word	0x08016d68
 8012b4c:	08018cb0 	.word	0x08018cb0
 8012b50:	08016b38 	.word	0x08016b38
 8012b54:	08015358 	.word	0x08015358
 8012b58:	08015c68 	.word	0x08015c68
 8012b5c:	08015788 	.word	0x08015788
 8012b60:	08018230 	.word	0x08018230
 8012b64:	08015fd8 	.word	0x08015fd8
 8012b68:	08017e08 	.word	0x08017e08
 8012b6c:	08016148 	.word	0x08016148
 8012b70:	08018b58 	.word	0x08018b58
 8012b74:	4622      	mov	r2, r4
 8012b76:	f6c0 0101 	movt	r1, #2049	; 0x801
 8012b7a:	4618      	mov	r0, r3
 8012b7c:	601d      	str	r5, [r3, #0]
 8012b7e:	f001 fac1 	bl	8014104 <__aeabi_atexit>
 8012b82:	f640 4330 	movw	r3, #3120	; 0xc30
 8012b86:	f2c1 0300 	movt	r3, #4096	; 0x1000
 8012b8a:	4dc6      	ldr	r5, [pc, #792]	; (8012ea4 <_GLOBAL__sub_I__ZN4quan3uav3osd8get_fontEm+0xa74>)
 8012b8c:	f241 2131 	movw	r1, #4657	; 0x1231
 8012b90:	4622      	mov	r2, r4
 8012b92:	f6c0 0101 	movt	r1, #2049	; 0x801
 8012b96:	4618      	mov	r0, r3
 8012b98:	601d      	str	r5, [r3, #0]
 8012b9a:	f001 fab3 	bl	8014104 <__aeabi_atexit>
 8012b9e:	f640 33e4 	movw	r3, #3044	; 0xbe4
 8012ba2:	f2c1 0300 	movt	r3, #4096	; 0x1000
 8012ba6:	4dc0      	ldr	r5, [pc, #768]	; (8012ea8 <_GLOBAL__sub_I__ZN4quan3uav3osd8get_fontEm+0xa78>)
 8012ba8:	f241 2125 	movw	r1, #4645	; 0x1225
 8012bac:	4622      	mov	r2, r4
 8012bae:	f6c0 0101 	movt	r1, #2049	; 0x801
 8012bb2:	4618      	mov	r0, r3
 8012bb4:	601d      	str	r5, [r3, #0]
 8012bb6:	f001 faa5 	bl	8014104 <__aeabi_atexit>
 8012bba:	f640 4348 	movw	r3, #3144	; 0xc48
 8012bbe:	f2c1 0300 	movt	r3, #4096	; 0x1000
 8012bc2:	4dba      	ldr	r5, [pc, #744]	; (8012eac <_GLOBAL__sub_I__ZN4quan3uav3osd8get_fontEm+0xa7c>)
 8012bc4:	f241 2119 	movw	r1, #4633	; 0x1219
 8012bc8:	4622      	mov	r2, r4
 8012bca:	f6c0 0101 	movt	r1, #2049	; 0x801
 8012bce:	4618      	mov	r0, r3
 8012bd0:	601d      	str	r5, [r3, #0]
 8012bd2:	f001 fa97 	bl	8014104 <__aeabi_atexit>
 8012bd6:	f640 439c 	movw	r3, #3228	; 0xc9c
 8012bda:	f2c1 0300 	movt	r3, #4096	; 0x1000
 8012bde:	4db4      	ldr	r5, [pc, #720]	; (8012eb0 <_GLOBAL__sub_I__ZN4quan3uav3osd8get_fontEm+0xa80>)
 8012be0:	f241 210d 	movw	r1, #4621	; 0x120d
 8012be4:	4622      	mov	r2, r4
 8012be6:	f6c0 0101 	movt	r1, #2049	; 0x801
 8012bea:	4618      	mov	r0, r3
 8012bec:	601d      	str	r5, [r3, #0]
 8012bee:	f001 fa89 	bl	8014104 <__aeabi_atexit>
 8012bf2:	f640 5300 	movw	r3, #3328	; 0xd00
 8012bf6:	f2c1 0300 	movt	r3, #4096	; 0x1000
 8012bfa:	4dae      	ldr	r5, [pc, #696]	; (8012eb4 <_GLOBAL__sub_I__ZN4quan3uav3osd8get_fontEm+0xa84>)
 8012bfc:	f241 2101 	movw	r1, #4609	; 0x1201
 8012c00:	4622      	mov	r2, r4
 8012c02:	f6c0 0101 	movt	r1, #2049	; 0x801
 8012c06:	4618      	mov	r0, r3
 8012c08:	601d      	str	r5, [r3, #0]
 8012c0a:	f001 fa7b 	bl	8014104 <__aeabi_atexit>
 8012c0e:	f640 23e8 	movw	r3, #2792	; 0xae8
 8012c12:	f2c1 0300 	movt	r3, #4096	; 0x1000
 8012c16:	4da8      	ldr	r5, [pc, #672]	; (8012eb8 <_GLOBAL__sub_I__ZN4quan3uav3osd8get_fontEm+0xa88>)
 8012c18:	f241 11f5 	movw	r1, #4597	; 0x11f5
 8012c1c:	4622      	mov	r2, r4
 8012c1e:	f6c0 0101 	movt	r1, #2049	; 0x801
 8012c22:	4618      	mov	r0, r3
 8012c24:	601d      	str	r5, [r3, #0]
 8012c26:	f001 fa6d 	bl	8014104 <__aeabi_atexit>
 8012c2a:	f640 23c8 	movw	r3, #2760	; 0xac8
 8012c2e:	f2c1 0300 	movt	r3, #4096	; 0x1000
 8012c32:	4da2      	ldr	r5, [pc, #648]	; (8012ebc <_GLOBAL__sub_I__ZN4quan3uav3osd8get_fontEm+0xa8c>)
 8012c34:	f241 11e9 	movw	r1, #4585	; 0x11e9
 8012c38:	4622      	mov	r2, r4
 8012c3a:	f6c0 0101 	movt	r1, #2049	; 0x801
 8012c3e:	4618      	mov	r0, r3
 8012c40:	601d      	str	r5, [r3, #0]
 8012c42:	f001 fa5f 	bl	8014104 <__aeabi_atexit>
 8012c46:	f640 237c 	movw	r3, #2684	; 0xa7c
 8012c4a:	f2c1 0300 	movt	r3, #4096	; 0x1000
 8012c4e:	4d9c      	ldr	r5, [pc, #624]	; (8012ec0 <_GLOBAL__sub_I__ZN4quan3uav3osd8get_fontEm+0xa90>)
 8012c50:	f241 11dd 	movw	r1, #4573	; 0x11dd
 8012c54:	4622      	mov	r2, r4
 8012c56:	f6c0 0101 	movt	r1, #2049	; 0x801
 8012c5a:	4618      	mov	r0, r3
 8012c5c:	601d      	str	r5, [r3, #0]
 8012c5e:	f001 fa51 	bl	8014104 <__aeabi_atexit>
 8012c62:	f640 23b0 	movw	r3, #2736	; 0xab0
 8012c66:	f2c1 0300 	movt	r3, #4096	; 0x1000
 8012c6a:	4d96      	ldr	r5, [pc, #600]	; (8012ec4 <_GLOBAL__sub_I__ZN4quan3uav3osd8get_fontEm+0xa94>)
 8012c6c:	f241 11d1 	movw	r1, #4561	; 0x11d1
 8012c70:	4622      	mov	r2, r4
 8012c72:	f6c0 0101 	movt	r1, #2049	; 0x801
 8012c76:	4618      	mov	r0, r3
 8012c78:	601d      	str	r5, [r3, #0]
 8012c7a:	f001 fa43 	bl	8014104 <__aeabi_atexit>
 8012c7e:	f640 4308 	movw	r3, #3080	; 0xc08
 8012c82:	f2c1 0300 	movt	r3, #4096	; 0x1000
 8012c86:	4d90      	ldr	r5, [pc, #576]	; (8012ec8 <_GLOBAL__sub_I__ZN4quan3uav3osd8get_fontEm+0xa98>)
 8012c88:	f241 11c5 	movw	r1, #4549	; 0x11c5
 8012c8c:	4622      	mov	r2, r4
 8012c8e:	f6c0 0101 	movt	r1, #2049	; 0x801
 8012c92:	4618      	mov	r0, r3
 8012c94:	601d      	str	r5, [r3, #0]
 8012c96:	f001 fa35 	bl	8014104 <__aeabi_atexit>
 8012c9a:	f640 432c 	movw	r3, #3116	; 0xc2c
 8012c9e:	f2c1 0300 	movt	r3, #4096	; 0x1000
 8012ca2:	4d8a      	ldr	r5, [pc, #552]	; (8012ecc <_GLOBAL__sub_I__ZN4quan3uav3osd8get_fontEm+0xa9c>)
 8012ca4:	f241 11b9 	movw	r1, #4537	; 0x11b9
 8012ca8:	4622      	mov	r2, r4
 8012caa:	f6c0 0101 	movt	r1, #2049	; 0x801
 8012cae:	4618      	mov	r0, r3
 8012cb0:	601d      	str	r5, [r3, #0]
 8012cb2:	f001 fa27 	bl	8014104 <__aeabi_atexit>
 8012cb6:	f640 4378 	movw	r3, #3192	; 0xc78
 8012cba:	f2c1 0300 	movt	r3, #4096	; 0x1000
 8012cbe:	4d84      	ldr	r5, [pc, #528]	; (8012ed0 <_GLOBAL__sub_I__ZN4quan3uav3osd8get_fontEm+0xaa0>)
 8012cc0:	f241 11ad 	movw	r1, #4525	; 0x11ad
 8012cc4:	4622      	mov	r2, r4
 8012cc6:	f6c0 0101 	movt	r1, #2049	; 0x801
 8012cca:	4618      	mov	r0, r3
 8012ccc:	601d      	str	r5, [r3, #0]
 8012cce:	f001 fa19 	bl	8014104 <__aeabi_atexit>
 8012cd2:	f640 5308 	movw	r3, #3336	; 0xd08
 8012cd6:	f2c1 0300 	movt	r3, #4096	; 0x1000
 8012cda:	4d7e      	ldr	r5, [pc, #504]	; (8012ed4 <_GLOBAL__sub_I__ZN4quan3uav3osd8get_fontEm+0xaa4>)
 8012cdc:	f241 11a1 	movw	r1, #4513	; 0x11a1
 8012ce0:	4622      	mov	r2, r4
 8012ce2:	f6c0 0101 	movt	r1, #2049	; 0x801
 8012ce6:	4618      	mov	r0, r3
 8012ce8:	601d      	str	r5, [r3, #0]
 8012cea:	f001 fa0b 	bl	8014104 <__aeabi_atexit>
 8012cee:	f640 5328 	movw	r3, #3368	; 0xd28
 8012cf2:	f2c1 0300 	movt	r3, #4096	; 0x1000
 8012cf6:	4d78      	ldr	r5, [pc, #480]	; (8012ed8 <_GLOBAL__sub_I__ZN4quan3uav3osd8get_fontEm+0xaa8>)
 8012cf8:	f241 1195 	movw	r1, #4501	; 0x1195
 8012cfc:	4622      	mov	r2, r4
 8012cfe:	f6c0 0101 	movt	r1, #2049	; 0x801
 8012d02:	4618      	mov	r0, r3
 8012d04:	601d      	str	r5, [r3, #0]
 8012d06:	f001 f9fd 	bl	8014104 <__aeabi_atexit>
 8012d0a:	f640 43ec 	movw	r3, #3308	; 0xcec
 8012d0e:	f2c1 0300 	movt	r3, #4096	; 0x1000
 8012d12:	4d72      	ldr	r5, [pc, #456]	; (8012edc <_GLOBAL__sub_I__ZN4quan3uav3osd8get_fontEm+0xaac>)
 8012d14:	f241 1189 	movw	r1, #4489	; 0x1189
 8012d18:	4622      	mov	r2, r4
 8012d1a:	f6c0 0101 	movt	r1, #2049	; 0x801
 8012d1e:	4618      	mov	r0, r3
 8012d20:	601d      	str	r5, [r3, #0]
 8012d22:	f001 f9ef 	bl	8014104 <__aeabi_atexit>
 8012d26:	f640 2390 	movw	r3, #2704	; 0xa90
 8012d2a:	f2c1 0300 	movt	r3, #4096	; 0x1000
 8012d2e:	4d6c      	ldr	r5, [pc, #432]	; (8012ee0 <_GLOBAL__sub_I__ZN4quan3uav3osd8get_fontEm+0xab0>)
 8012d30:	f241 117d 	movw	r1, #4477	; 0x117d
 8012d34:	4622      	mov	r2, r4
 8012d36:	f6c0 0101 	movt	r1, #2049	; 0x801
 8012d3a:	4618      	mov	r0, r3
 8012d3c:	601d      	str	r5, [r3, #0]
 8012d3e:	f001 f9e1 	bl	8014104 <__aeabi_atexit>
 8012d42:	f640 2364 	movw	r3, #2660	; 0xa64
 8012d46:	f2c1 0300 	movt	r3, #4096	; 0x1000
 8012d4a:	4d66      	ldr	r5, [pc, #408]	; (8012ee4 <_GLOBAL__sub_I__ZN4quan3uav3osd8get_fontEm+0xab4>)
 8012d4c:	f241 1171 	movw	r1, #4465	; 0x1171
 8012d50:	4622      	mov	r2, r4
 8012d52:	f6c0 0101 	movt	r1, #2049	; 0x801
 8012d56:	4618      	mov	r0, r3
 8012d58:	601d      	str	r5, [r3, #0]
 8012d5a:	f001 f9d3 	bl	8014104 <__aeabi_atexit>
 8012d5e:	f640 33f4 	movw	r3, #3060	; 0xbf4
 8012d62:	f2c1 0300 	movt	r3, #4096	; 0x1000
 8012d66:	4d60      	ldr	r5, [pc, #384]	; (8012ee8 <_GLOBAL__sub_I__ZN4quan3uav3osd8get_fontEm+0xab8>)
 8012d68:	f241 1165 	movw	r1, #4453	; 0x1165
 8012d6c:	4622      	mov	r2, r4
 8012d6e:	f6c0 0101 	movt	r1, #2049	; 0x801
 8012d72:	4618      	mov	r0, r3
 8012d74:	601d      	str	r5, [r3, #0]
 8012d76:	f001 f9c5 	bl	8014104 <__aeabi_atexit>
 8012d7a:	f640 23dc 	movw	r3, #2780	; 0xadc
 8012d7e:	f2c1 0300 	movt	r3, #4096	; 0x1000
 8012d82:	4d5a      	ldr	r5, [pc, #360]	; (8012eec <_GLOBAL__sub_I__ZN4quan3uav3osd8get_fontEm+0xabc>)
 8012d84:	f241 1159 	movw	r1, #4441	; 0x1159
 8012d88:	4622      	mov	r2, r4
 8012d8a:	f6c0 0101 	movt	r1, #2049	; 0x801
 8012d8e:	4618      	mov	r0, r3
 8012d90:	601d      	str	r5, [r3, #0]
 8012d92:	f001 f9b7 	bl	8014104 <__aeabi_atexit>
 8012d96:	f640 3318 	movw	r3, #2840	; 0xb18
 8012d9a:	f2c1 0300 	movt	r3, #4096	; 0x1000
 8012d9e:	4d54      	ldr	r5, [pc, #336]	; (8012ef0 <_GLOBAL__sub_I__ZN4quan3uav3osd8get_fontEm+0xac0>)
 8012da0:	f241 114d 	movw	r1, #4429	; 0x114d
 8012da4:	4622      	mov	r2, r4
 8012da6:	f6c0 0101 	movt	r1, #2049	; 0x801
 8012daa:	4618      	mov	r0, r3
 8012dac:	601d      	str	r5, [r3, #0]
 8012dae:	f001 f9a9 	bl	8014104 <__aeabi_atexit>
 8012db2:	f640 236c 	movw	r3, #2668	; 0xa6c
 8012db6:	f2c1 0300 	movt	r3, #4096	; 0x1000
 8012dba:	4d4e      	ldr	r5, [pc, #312]	; (8012ef4 <_GLOBAL__sub_I__ZN4quan3uav3osd8get_fontEm+0xac4>)
 8012dbc:	f241 1141 	movw	r1, #4417	; 0x1141
 8012dc0:	4622      	mov	r2, r4
 8012dc2:	f6c0 0101 	movt	r1, #2049	; 0x801
 8012dc6:	4618      	mov	r0, r3
 8012dc8:	601d      	str	r5, [r3, #0]
 8012dca:	f001 f99b 	bl	8014104 <__aeabi_atexit>
 8012dce:	f640 23a4 	movw	r3, #2724	; 0xaa4
 8012dd2:	f2c1 0300 	movt	r3, #4096	; 0x1000
 8012dd6:	4d48      	ldr	r5, [pc, #288]	; (8012ef8 <_GLOBAL__sub_I__ZN4quan3uav3osd8get_fontEm+0xac8>)
 8012dd8:	f241 1135 	movw	r1, #4405	; 0x1135
 8012ddc:	4622      	mov	r2, r4
 8012dde:	f6c0 0101 	movt	r1, #2049	; 0x801
 8012de2:	4618      	mov	r0, r3
 8012de4:	601d      	str	r5, [r3, #0]
 8012de6:	f001 f98d 	bl	8014104 <__aeabi_atexit>
 8012dea:	f640 4350 	movw	r3, #3152	; 0xc50
 8012dee:	f2c1 0300 	movt	r3, #4096	; 0x1000
 8012df2:	4d42      	ldr	r5, [pc, #264]	; (8012efc <_GLOBAL__sub_I__ZN4quan3uav3osd8get_fontEm+0xacc>)
 8012df4:	f241 1129 	movw	r1, #4393	; 0x1129
 8012df8:	4622      	mov	r2, r4
 8012dfa:	f6c0 0101 	movt	r1, #2049	; 0x801
 8012dfe:	4618      	mov	r0, r3
 8012e00:	601d      	str	r5, [r3, #0]
 8012e02:	f001 f97f 	bl	8014104 <__aeabi_atexit>
 8012e06:	f640 3320 	movw	r3, #2848	; 0xb20
 8012e0a:	f2c1 0300 	movt	r3, #4096	; 0x1000
 8012e0e:	4d3c      	ldr	r5, [pc, #240]	; (8012f00 <_GLOBAL__sub_I__ZN4quan3uav3osd8get_fontEm+0xad0>)
 8012e10:	f241 111d 	movw	r1, #4381	; 0x111d
 8012e14:	4622      	mov	r2, r4
 8012e16:	f6c0 0101 	movt	r1, #2049	; 0x801
 8012e1a:	4618      	mov	r0, r3
 8012e1c:	601d      	str	r5, [r3, #0]
 8012e1e:	f001 f971 	bl	8014104 <__aeabi_atexit>
 8012e22:	f640 3350 	movw	r3, #2896	; 0xb50
 8012e26:	f2c1 0300 	movt	r3, #4096	; 0x1000
 8012e2a:	4d36      	ldr	r5, [pc, #216]	; (8012f04 <_GLOBAL__sub_I__ZN4quan3uav3osd8get_fontEm+0xad4>)
 8012e2c:	f241 1111 	movw	r1, #4369	; 0x1111
 8012e30:	4622      	mov	r2, r4
 8012e32:	f6c0 0101 	movt	r1, #2049	; 0x801
 8012e36:	4618      	mov	r0, r3
 8012e38:	601d      	str	r5, [r3, #0]
 8012e3a:	f001 f963 	bl	8014104 <__aeabi_atexit>
 8012e3e:	f640 2370 	movw	r3, #2672	; 0xa70
 8012e42:	f2c1 0300 	movt	r3, #4096	; 0x1000
 8012e46:	4d30      	ldr	r5, [pc, #192]	; (8012f08 <_GLOBAL__sub_I__ZN4quan3uav3osd8get_fontEm+0xad8>)
 8012e48:	f241 1105 	movw	r1, #4357	; 0x1105
 8012e4c:	4622      	mov	r2, r4
 8012e4e:	f6c0 0101 	movt	r1, #2049	; 0x801
 8012e52:	4618      	mov	r0, r3
 8012e54:	601d      	str	r5, [r3, #0]
 8012e56:	f001 f955 	bl	8014104 <__aeabi_atexit>
 8012e5a:	f640 33b0 	movw	r3, #2992	; 0xbb0
 8012e5e:	f2c1 0300 	movt	r3, #4096	; 0x1000
 8012e62:	4d2a      	ldr	r5, [pc, #168]	; (8012f0c <_GLOBAL__sub_I__ZN4quan3uav3osd8get_fontEm+0xadc>)
 8012e64:	f241 01f9 	movw	r1, #4345	; 0x10f9
 8012e68:	4622      	mov	r2, r4
 8012e6a:	f6c0 0101 	movt	r1, #2049	; 0x801
 8012e6e:	4618      	mov	r0, r3
 8012e70:	601d      	str	r5, [r3, #0]
 8012e72:	f001 f947 	bl	8014104 <__aeabi_atexit>
 8012e76:	f640 335c 	movw	r3, #2908	; 0xb5c
 8012e7a:	f2c1 0300 	movt	r3, #4096	; 0x1000
 8012e7e:	4d24      	ldr	r5, [pc, #144]	; (8012f10 <_GLOBAL__sub_I__ZN4quan3uav3osd8get_fontEm+0xae0>)
 8012e80:	f241 01ed 	movw	r1, #4333	; 0x10ed
 8012e84:	4622      	mov	r2, r4
 8012e86:	f6c0 0101 	movt	r1, #2049	; 0x801
 8012e8a:	4618      	mov	r0, r3
 8012e8c:	601d      	str	r5, [r3, #0]
 8012e8e:	f001 f939 	bl	8014104 <__aeabi_atexit>
 8012e92:	f640 4318 	movw	r3, #3096	; 0xc18
 8012e96:	f2c1 0300 	movt	r3, #4096	; 0x1000
 8012e9a:	4d1e      	ldr	r5, [pc, #120]	; (8012f14 <_GLOBAL__sub_I__ZN4quan3uav3osd8get_fontEm+0xae4>)
 8012e9c:	f241 01e1 	movw	r1, #4321	; 0x10e1
 8012ea0:	e03a      	b.n	8012f18 <_GLOBAL__sub_I__ZN4quan3uav3osd8get_fontEm+0xae8>
 8012ea2:	bf00      	nop
 8012ea4:	08015f40 	.word	0x08015f40
 8012ea8:	080189d8 	.word	0x080189d8
 8012eac:	080166f0 	.word	0x080166f0
 8012eb0:	08015108 	.word	0x08015108
 8012eb4:	08017158 	.word	0x08017158
 8012eb8:	080151e8 	.word	0x080151e8
 8012ebc:	08017290 	.word	0x08017290
 8012ec0:	08015600 	.word	0x08015600
 8012ec4:	08017ec8 	.word	0x08017ec8
 8012ec8:	08015c80 	.word	0x08015c80
 8012ecc:	080166c0 	.word	0x080166c0
 8012ed0:	080186f0 	.word	0x080186f0
 8012ed4:	080176e8 	.word	0x080176e8
 8012ed8:	080168b8 	.word	0x080168b8
 8012edc:	080168d0 	.word	0x080168d0
 8012ee0:	08014f78 	.word	0x08014f78
 8012ee4:	08016db8 	.word	0x08016db8
 8012ee8:	08015598 	.word	0x08015598
 8012eec:	08018b40 	.word	0x08018b40
 8012ef0:	080178b8 	.word	0x080178b8
 8012ef4:	08015418 	.word	0x08015418
 8012ef8:	08016988 	.word	0x08016988
 8012efc:	08018248 	.word	0x08018248
 8012f00:	080159f0 	.word	0x080159f0
 8012f04:	08018468 	.word	0x08018468
 8012f08:	08016160 	.word	0x08016160
 8012f0c:	08018b88 	.word	0x08018b88
 8012f10:	08017228 	.word	0x08017228
 8012f14:	08016070 	.word	0x08016070
 8012f18:	4622      	mov	r2, r4
 8012f1a:	f6c0 0101 	movt	r1, #2049	; 0x801
 8012f1e:	4618      	mov	r0, r3
 8012f20:	601d      	str	r5, [r3, #0]
 8012f22:	f001 f8ef 	bl	8014104 <__aeabi_atexit>
 8012f26:	f640 4324 	movw	r3, #3108	; 0xc24
 8012f2a:	f2c1 0300 	movt	r3, #4096	; 0x1000
 8012f2e:	4dc6      	ldr	r5, [pc, #792]	; (8013248 <_GLOBAL__sub_I__ZN4quan3uav3osd8get_fontEm+0xe18>)
 8012f30:	f241 01d5 	movw	r1, #4309	; 0x10d5
 8012f34:	4622      	mov	r2, r4
 8012f36:	f6c0 0101 	movt	r1, #2049	; 0x801
 8012f3a:	4618      	mov	r0, r3
 8012f3c:	601d      	str	r5, [r3, #0]
 8012f3e:	f001 f8e1 	bl	8014104 <__aeabi_atexit>
 8012f42:	f640 33b4 	movw	r3, #2996	; 0xbb4
 8012f46:	f2c1 0300 	movt	r3, #4096	; 0x1000
 8012f4a:	4dc0      	ldr	r5, [pc, #768]	; (801324c <_GLOBAL__sub_I__ZN4quan3uav3osd8get_fontEm+0xe1c>)
 8012f4c:	f241 01c9 	movw	r1, #4297	; 0x10c9
 8012f50:	4622      	mov	r2, r4
 8012f52:	f6c0 0101 	movt	r1, #2049	; 0x801
 8012f56:	4618      	mov	r0, r3
 8012f58:	601d      	str	r5, [r3, #0]
 8012f5a:	f001 f8d3 	bl	8014104 <__aeabi_atexit>
 8012f5e:	f640 33f0 	movw	r3, #3056	; 0xbf0
 8012f62:	f2c1 0300 	movt	r3, #4096	; 0x1000
 8012f66:	4dba      	ldr	r5, [pc, #744]	; (8013250 <_GLOBAL__sub_I__ZN4quan3uav3osd8get_fontEm+0xe20>)
 8012f68:	f241 01bd 	movw	r1, #4285	; 0x10bd
 8012f6c:	4622      	mov	r2, r4
 8012f6e:	f6c0 0101 	movt	r1, #2049	; 0x801
 8012f72:	4618      	mov	r0, r3
 8012f74:	601d      	str	r5, [r3, #0]
 8012f76:	f001 f8c5 	bl	8014104 <__aeabi_atexit>
 8012f7a:	f640 33bc 	movw	r3, #3004	; 0xbbc
 8012f7e:	f2c1 0300 	movt	r3, #4096	; 0x1000
 8012f82:	4db4      	ldr	r5, [pc, #720]	; (8013254 <_GLOBAL__sub_I__ZN4quan3uav3osd8get_fontEm+0xe24>)
 8012f84:	f241 01b1 	movw	r1, #4273	; 0x10b1
 8012f88:	4622      	mov	r2, r4
 8012f8a:	f6c0 0101 	movt	r1, #2049	; 0x801
 8012f8e:	4618      	mov	r0, r3
 8012f90:	601d      	str	r5, [r3, #0]
 8012f92:	f001 f8b7 	bl	8014104 <__aeabi_atexit>
 8012f96:	f640 4358 	movw	r3, #3160	; 0xc58
 8012f9a:	f2c1 0300 	movt	r3, #4096	; 0x1000
 8012f9e:	4dae      	ldr	r5, [pc, #696]	; (8013258 <_GLOBAL__sub_I__ZN4quan3uav3osd8get_fontEm+0xe28>)
 8012fa0:	f241 01a5 	movw	r1, #4261	; 0x10a5
 8012fa4:	4622      	mov	r2, r4
 8012fa6:	f6c0 0101 	movt	r1, #2049	; 0x801
 8012faa:	4618      	mov	r0, r3
 8012fac:	601d      	str	r5, [r3, #0]
 8012fae:	f001 f8a9 	bl	8014104 <__aeabi_atexit>
 8012fb2:	f640 437c 	movw	r3, #3196	; 0xc7c
 8012fb6:	f2c1 0300 	movt	r3, #4096	; 0x1000
 8012fba:	4da8      	ldr	r5, [pc, #672]	; (801325c <_GLOBAL__sub_I__ZN4quan3uav3osd8get_fontEm+0xe2c>)
 8012fbc:	f241 0199 	movw	r1, #4249	; 0x1099
 8012fc0:	4622      	mov	r2, r4
 8012fc2:	f6c0 0101 	movt	r1, #2049	; 0x801
 8012fc6:	4618      	mov	r0, r3
 8012fc8:	601d      	str	r5, [r3, #0]
 8012fca:	f001 f89b 	bl	8014104 <__aeabi_atexit>
 8012fce:	f640 4390 	movw	r3, #3216	; 0xc90
 8012fd2:	f2c1 0300 	movt	r3, #4096	; 0x1000
 8012fd6:	4da2      	ldr	r5, [pc, #648]	; (8013260 <_GLOBAL__sub_I__ZN4quan3uav3osd8get_fontEm+0xe30>)
 8012fd8:	f241 018d 	movw	r1, #4237	; 0x108d
 8012fdc:	4622      	mov	r2, r4
 8012fde:	f6c0 0101 	movt	r1, #2049	; 0x801
 8012fe2:	4618      	mov	r0, r3
 8012fe4:	601d      	str	r5, [r3, #0]
 8012fe6:	f001 f88d 	bl	8014104 <__aeabi_atexit>
 8012fea:	f640 43ac 	movw	r3, #3244	; 0xcac
 8012fee:	f2c1 0300 	movt	r3, #4096	; 0x1000
 8012ff2:	4d9c      	ldr	r5, [pc, #624]	; (8013264 <_GLOBAL__sub_I__ZN4quan3uav3osd8get_fontEm+0xe34>)
 8012ff4:	f241 0181 	movw	r1, #4225	; 0x1081
 8012ff8:	4622      	mov	r2, r4
 8012ffa:	f6c0 0101 	movt	r1, #2049	; 0x801
 8012ffe:	4618      	mov	r0, r3
 8013000:	601d      	str	r5, [r3, #0]
 8013002:	f001 f87f 	bl	8014104 <__aeabi_atexit>
 8013006:	f640 43cc 	movw	r3, #3276	; 0xccc
 801300a:	f2c1 0300 	movt	r3, #4096	; 0x1000
 801300e:	4d96      	ldr	r5, [pc, #600]	; (8013268 <_GLOBAL__sub_I__ZN4quan3uav3osd8get_fontEm+0xe38>)
 8013010:	f241 0175 	movw	r1, #4213	; 0x1075
 8013014:	4622      	mov	r2, r4
 8013016:	f6c0 0101 	movt	r1, #2049	; 0x801
 801301a:	4618      	mov	r0, r3
 801301c:	601d      	str	r5, [r3, #0]
 801301e:	f001 f871 	bl	8014104 <__aeabi_atexit>
 8013022:	f640 43f4 	movw	r3, #3316	; 0xcf4
 8013026:	f2c1 0300 	movt	r3, #4096	; 0x1000
 801302a:	4d90      	ldr	r5, [pc, #576]	; (801326c <_GLOBAL__sub_I__ZN4quan3uav3osd8get_fontEm+0xe3c>)
 801302c:	f241 0169 	movw	r1, #4201	; 0x1069
 8013030:	4622      	mov	r2, r4
 8013032:	f6c0 0101 	movt	r1, #2049	; 0x801
 8013036:	4618      	mov	r0, r3
 8013038:	601d      	str	r5, [r3, #0]
 801303a:	f001 f863 	bl	8014104 <__aeabi_atexit>
 801303e:	f640 33a8 	movw	r3, #2984	; 0xba8
 8013042:	f2c1 0300 	movt	r3, #4096	; 0x1000
 8013046:	4d8a      	ldr	r5, [pc, #552]	; (8013270 <_GLOBAL__sub_I__ZN4quan3uav3osd8get_fontEm+0xe40>)
 8013048:	f241 015d 	movw	r1, #4189	; 0x105d
 801304c:	4622      	mov	r2, r4
 801304e:	f6c0 0101 	movt	r1, #2049	; 0x801
 8013052:	4618      	mov	r0, r3
 8013054:	601d      	str	r5, [r3, #0]
 8013056:	f001 f855 	bl	8014104 <__aeabi_atexit>
 801305a:	f640 23a8 	movw	r3, #2728	; 0xaa8
 801305e:	f2c1 0300 	movt	r3, #4096	; 0x1000
 8013062:	4d84      	ldr	r5, [pc, #528]	; (8013274 <_GLOBAL__sub_I__ZN4quan3uav3osd8get_fontEm+0xe44>)
 8013064:	f241 0151 	movw	r1, #4177	; 0x1051
 8013068:	4622      	mov	r2, r4
 801306a:	f6c0 0101 	movt	r1, #2049	; 0x801
 801306e:	4618      	mov	r0, r3
 8013070:	601d      	str	r5, [r3, #0]
 8013072:	f001 f847 	bl	8014104 <__aeabi_atexit>
 8013076:	f640 23e0 	movw	r3, #2784	; 0xae0
 801307a:	f2c1 0300 	movt	r3, #4096	; 0x1000
 801307e:	4d7e      	ldr	r5, [pc, #504]	; (8013278 <_GLOBAL__sub_I__ZN4quan3uav3osd8get_fontEm+0xe48>)
 8013080:	f241 0145 	movw	r1, #4165	; 0x1045
 8013084:	4622      	mov	r2, r4
 8013086:	f6c0 0101 	movt	r1, #2049	; 0x801
 801308a:	4618      	mov	r0, r3
 801308c:	601d      	str	r5, [r3, #0]
 801308e:	f001 f839 	bl	8014104 <__aeabi_atexit>
 8013092:	f640 3324 	movw	r3, #2852	; 0xb24
 8013096:	f2c1 0300 	movt	r3, #4096	; 0x1000
 801309a:	4d78      	ldr	r5, [pc, #480]	; (801327c <_GLOBAL__sub_I__ZN4quan3uav3osd8get_fontEm+0xe4c>)
 801309c:	f241 0139 	movw	r1, #4153	; 0x1039
 80130a0:	4622      	mov	r2, r4
 80130a2:	f6c0 0101 	movt	r1, #2049	; 0x801
 80130a6:	4618      	mov	r0, r3
 80130a8:	601d      	str	r5, [r3, #0]
 80130aa:	f001 f82b 	bl	8014104 <__aeabi_atexit>
 80130ae:	f640 3354 	movw	r3, #2900	; 0xb54
 80130b2:	f2c1 0300 	movt	r3, #4096	; 0x1000
 80130b6:	4d72      	ldr	r5, [pc, #456]	; (8013280 <_GLOBAL__sub_I__ZN4quan3uav3osd8get_fontEm+0xe50>)
 80130b8:	f241 012d 	movw	r1, #4141	; 0x102d
 80130bc:	4622      	mov	r2, r4
 80130be:	f6c0 0101 	movt	r1, #2049	; 0x801
 80130c2:	4618      	mov	r0, r3
 80130c4:	601d      	str	r5, [r3, #0]
 80130c6:	f001 f81d 	bl	8014104 <__aeabi_atexit>
 80130ca:	f640 3384 	movw	r3, #2948	; 0xb84
 80130ce:	f2c1 0300 	movt	r3, #4096	; 0x1000
 80130d2:	4d6c      	ldr	r5, [pc, #432]	; (8013284 <_GLOBAL__sub_I__ZN4quan3uav3osd8get_fontEm+0xe54>)
 80130d4:	f241 0121 	movw	r1, #4129	; 0x1021
 80130d8:	4622      	mov	r2, r4
 80130da:	f6c0 0101 	movt	r1, #2049	; 0x801
 80130de:	4618      	mov	r0, r3
 80130e0:	601d      	str	r5, [r3, #0]
 80130e2:	f001 f80f 	bl	8014104 <__aeabi_atexit>
 80130e6:	f640 23f8 	movw	r3, #2808	; 0xaf8
 80130ea:	f2c1 0300 	movt	r3, #4096	; 0x1000
 80130ee:	4d66      	ldr	r5, [pc, #408]	; (8013288 <_GLOBAL__sub_I__ZN4quan3uav3osd8get_fontEm+0xe58>)
 80130f0:	f241 0115 	movw	r1, #4117	; 0x1015
 80130f4:	4622      	mov	r2, r4
 80130f6:	f6c0 0101 	movt	r1, #2049	; 0x801
 80130fa:	4618      	mov	r0, r3
 80130fc:	601d      	str	r5, [r3, #0]
 80130fe:	f001 f801 	bl	8014104 <__aeabi_atexit>
 8013102:	f640 3328 	movw	r3, #2856	; 0xb28
 8013106:	f2c1 0300 	movt	r3, #4096	; 0x1000
 801310a:	4d60      	ldr	r5, [pc, #384]	; (801328c <_GLOBAL__sub_I__ZN4quan3uav3osd8get_fontEm+0xe5c>)
 801310c:	f241 0109 	movw	r1, #4105	; 0x1009
 8013110:	4622      	mov	r2, r4
 8013112:	f6c0 0101 	movt	r1, #2049	; 0x801
 8013116:	4618      	mov	r0, r3
 8013118:	601d      	str	r5, [r3, #0]
 801311a:	f000 fff3 	bl	8014104 <__aeabi_atexit>
 801311e:	f640 3358 	movw	r3, #2904	; 0xb58
 8013122:	f2c1 0300 	movt	r3, #4096	; 0x1000
 8013126:	4d5a      	ldr	r5, [pc, #360]	; (8013290 <_GLOBAL__sub_I__ZN4quan3uav3osd8get_fontEm+0xe60>)
 8013128:	f640 71fd 	movw	r1, #4093	; 0xffd
 801312c:	4622      	mov	r2, r4
 801312e:	f6c0 0101 	movt	r1, #2049	; 0x801
 8013132:	4618      	mov	r0, r3
 8013134:	601d      	str	r5, [r3, #0]
 8013136:	f000 ffe5 	bl	8014104 <__aeabi_atexit>
 801313a:	f640 5324 	movw	r3, #3364	; 0xd24
 801313e:	f2c1 0300 	movt	r3, #4096	; 0x1000
 8013142:	4d54      	ldr	r5, [pc, #336]	; (8013294 <_GLOBAL__sub_I__ZN4quan3uav3osd8get_fontEm+0xe64>)
 8013144:	f640 71f1 	movw	r1, #4081	; 0xff1
 8013148:	4622      	mov	r2, r4
 801314a:	f6c0 0101 	movt	r1, #2049	; 0x801
 801314e:	4618      	mov	r0, r3
 8013150:	601d      	str	r5, [r3, #0]
 8013152:	f000 ffd7 	bl	8014104 <__aeabi_atexit>
 8013156:	f640 33b8 	movw	r3, #3000	; 0xbb8
 801315a:	f2c1 0300 	movt	r3, #4096	; 0x1000
 801315e:	4d4e      	ldr	r5, [pc, #312]	; (8013298 <_GLOBAL__sub_I__ZN4quan3uav3osd8get_fontEm+0xe68>)
 8013160:	f640 71e5 	movw	r1, #4069	; 0xfe5
 8013164:	4622      	mov	r2, r4
 8013166:	f6c0 0101 	movt	r1, #2049	; 0x801
 801316a:	4618      	mov	r0, r3
 801316c:	601d      	str	r5, [r3, #0]
 801316e:	f000 ffc9 	bl	8014104 <__aeabi_atexit>
 8013172:	f640 23f4 	movw	r3, #2804	; 0xaf4
 8013176:	f2c1 0300 	movt	r3, #4096	; 0x1000
 801317a:	4d48      	ldr	r5, [pc, #288]	; (801329c <_GLOBAL__sub_I__ZN4quan3uav3osd8get_fontEm+0xe6c>)
 801317c:	f640 71d9 	movw	r1, #4057	; 0xfd9
 8013180:	4622      	mov	r2, r4
 8013182:	f6c0 0101 	movt	r1, #2049	; 0x801
 8013186:	4618      	mov	r0, r3
 8013188:	601d      	str	r5, [r3, #0]
 801318a:	f000 ffbb 	bl	8014104 <__aeabi_atexit>
 801318e:	f640 4320 	movw	r3, #3104	; 0xc20
 8013192:	f2c1 0300 	movt	r3, #4096	; 0x1000
 8013196:	4d42      	ldr	r5, [pc, #264]	; (80132a0 <_GLOBAL__sub_I__ZN4quan3uav3osd8get_fontEm+0xe70>)
 8013198:	f640 71cd 	movw	r1, #4045	; 0xfcd
 801319c:	4622      	mov	r2, r4
 801319e:	f6c0 0101 	movt	r1, #2049	; 0x801
 80131a2:	4618      	mov	r0, r3
 80131a4:	601d      	str	r5, [r3, #0]
 80131a6:	f000 ffad 	bl	8014104 <__aeabi_atexit>
 80131aa:	f640 435c 	movw	r3, #3164	; 0xc5c
 80131ae:	f2c1 0300 	movt	r3, #4096	; 0x1000
 80131b2:	4d3c      	ldr	r5, [pc, #240]	; (80132a4 <_GLOBAL__sub_I__ZN4quan3uav3osd8get_fontEm+0xe74>)
 80131b4:	f640 71c1 	movw	r1, #4033	; 0xfc1
 80131b8:	4622      	mov	r2, r4
 80131ba:	f6c0 0101 	movt	r1, #2049	; 0x801
 80131be:	4618      	mov	r0, r3
 80131c0:	601d      	str	r5, [r3, #0]
 80131c2:	f000 ff9f 	bl	8014104 <__aeabi_atexit>
 80131c6:	f640 438c 	movw	r3, #3212	; 0xc8c
 80131ca:	f2c1 0300 	movt	r3, #4096	; 0x1000
 80131ce:	4d36      	ldr	r5, [pc, #216]	; (80132a8 <_GLOBAL__sub_I__ZN4quan3uav3osd8get_fontEm+0xe78>)
 80131d0:	f640 71b5 	movw	r1, #4021	; 0xfb5
 80131d4:	4622      	mov	r2, r4
 80131d6:	f6c0 0101 	movt	r1, #2049	; 0x801
 80131da:	4618      	mov	r0, r3
 80131dc:	601d      	str	r5, [r3, #0]
 80131de:	f000 ff91 	bl	8014104 <__aeabi_atexit>
 80131e2:	f640 5334 	movw	r3, #3380	; 0xd34
 80131e6:	f2c1 0300 	movt	r3, #4096	; 0x1000
 80131ea:	4d30      	ldr	r5, [pc, #192]	; (80132ac <_GLOBAL__sub_I__ZN4quan3uav3osd8get_fontEm+0xe7c>)
 80131ec:	f640 71a9 	movw	r1, #4009	; 0xfa9
 80131f0:	4622      	mov	r2, r4
 80131f2:	f6c0 0101 	movt	r1, #2049	; 0x801
 80131f6:	4618      	mov	r0, r3
 80131f8:	601d      	str	r5, [r3, #0]
 80131fa:	f000 ff83 	bl	8014104 <__aeabi_atexit>
 80131fe:	f640 43b0 	movw	r3, #3248	; 0xcb0
 8013202:	f2c1 0300 	movt	r3, #4096	; 0x1000
 8013206:	4d2a      	ldr	r5, [pc, #168]	; (80132b0 <_GLOBAL__sub_I__ZN4quan3uav3osd8get_fontEm+0xe80>)
 8013208:	f640 719d 	movw	r1, #3997	; 0xf9d
 801320c:	4622      	mov	r2, r4
 801320e:	f6c0 0101 	movt	r1, #2049	; 0x801
 8013212:	4618      	mov	r0, r3
 8013214:	601d      	str	r5, [r3, #0]
 8013216:	f000 ff75 	bl	8014104 <__aeabi_atexit>
 801321a:	f640 4344 	movw	r3, #3140	; 0xc44
 801321e:	f2c1 0300 	movt	r3, #4096	; 0x1000
 8013222:	4d24      	ldr	r5, [pc, #144]	; (80132b4 <_GLOBAL__sub_I__ZN4quan3uav3osd8get_fontEm+0xe84>)
 8013224:	f640 7191 	movw	r1, #3985	; 0xf91
 8013228:	4622      	mov	r2, r4
 801322a:	f6c0 0101 	movt	r1, #2049	; 0x801
 801322e:	4618      	mov	r0, r3
 8013230:	601d      	str	r5, [r3, #0]
 8013232:	f000 ff67 	bl	8014104 <__aeabi_atexit>
 8013236:	f640 5310 	movw	r3, #3344	; 0xd10
 801323a:	f2c1 0300 	movt	r3, #4096	; 0x1000
 801323e:	4d1e      	ldr	r5, [pc, #120]	; (80132b8 <_GLOBAL__sub_I__ZN4quan3uav3osd8get_fontEm+0xe88>)
 8013240:	f640 7185 	movw	r1, #3973	; 0xf85
 8013244:	e03a      	b.n	80132bc <_GLOBAL__sub_I__ZN4quan3uav3osd8get_fontEm+0xe8c>
 8013246:	bf00      	nop
 8013248:	08015400 	.word	0x08015400
 801324c:	08015d70 	.word	0x08015d70
 8013250:	080168e8 	.word	0x080168e8
 8013254:	08015200 	.word	0x08015200
 8013258:	080172e0 	.word	0x080172e0
 801325c:	08015618 	.word	0x08015618
 8013260:	08017f18 	.word	0x08017f18
 8013264:	08015cd0 	.word	0x08015cd0
 8013268:	080189b0 	.word	0x080189b0
 801326c:	08017a18 	.word	0x08017a18
 8013270:	08015010 	.word	0x08015010
 8013274:	080181c8 	.word	0x080181c8
 8013278:	08016270 	.word	0x08016270
 801327c:	08018c60 	.word	0x08018c60
 8013280:	08016ab0 	.word	0x08016ab0
 8013284:	08018da8 	.word	0x08018da8
 8013288:	08018d28 	.word	0x08018d28
 801328c:	080155e8 	.word	0x080155e8
 8013290:	08016058 	.word	0x08016058
 8013294:	08018b28 	.word	0x08018b28
 8013298:	080174e8 	.word	0x080174e8
 801329c:	080156d0 	.word	0x080156d0
 80132a0:	08018ce0 	.word	0x08018ce0
 80132a4:	080157d0 	.word	0x080157d0
 80132a8:	080182b0 	.word	0x080182b0
 80132ac:	08017570 	.word	0x08017570
 80132b0:	08018af8 	.word	0x08018af8
 80132b4:	08015dc0 	.word	0x08015dc0
 80132b8:	080160c0 	.word	0x080160c0
 80132bc:	4622      	mov	r2, r4
 80132be:	f6c0 0101 	movt	r1, #2049	; 0x801
 80132c2:	4618      	mov	r0, r3
 80132c4:	601d      	str	r5, [r3, #0]
 80132c6:	f000 ff1d 	bl	8014104 <__aeabi_atexit>
 80132ca:	f640 4394 	movw	r3, #3220	; 0xc94
 80132ce:	f2c1 0300 	movt	r3, #4096	; 0x1000
 80132d2:	4dc6      	ldr	r5, [pc, #792]	; (80135ec <_GLOBAL__sub_I__ZN4quan3uav3osd8get_fontEm+0x11bc>)
 80132d4:	f640 7179 	movw	r1, #3961	; 0xf79
 80132d8:	4622      	mov	r2, r4
 80132da:	f6c0 0101 	movt	r1, #2049	; 0x801
 80132de:	4618      	mov	r0, r3
 80132e0:	601d      	str	r5, [r3, #0]
 80132e2:	f000 ff0f 	bl	8014104 <__aeabi_atexit>
 80132e6:	f640 5358 	movw	r3, #3416	; 0xd58
 80132ea:	f2c1 0300 	movt	r3, #4096	; 0x1000
 80132ee:	4dc0      	ldr	r5, [pc, #768]	; (80135f0 <_GLOBAL__sub_I__ZN4quan3uav3osd8get_fontEm+0x11c0>)
 80132f0:	f640 716d 	movw	r1, #3949	; 0xf6d
 80132f4:	4622      	mov	r2, r4
 80132f6:	f6c0 0101 	movt	r1, #2049	; 0x801
 80132fa:	4618      	mov	r0, r3
 80132fc:	601d      	str	r5, [r3, #0]
 80132fe:	f000 ff01 	bl	8014104 <__aeabi_atexit>
 8013302:	f640 43e8 	movw	r3, #3304	; 0xce8
 8013306:	f2c1 0300 	movt	r3, #4096	; 0x1000
 801330a:	4dba      	ldr	r5, [pc, #744]	; (80135f4 <_GLOBAL__sub_I__ZN4quan3uav3osd8get_fontEm+0x11c4>)
 801330c:	f640 7161 	movw	r1, #3937	; 0xf61
 8013310:	4622      	mov	r2, r4
 8013312:	f6c0 0101 	movt	r1, #2049	; 0x801
 8013316:	4618      	mov	r0, r3
 8013318:	601d      	str	r5, [r3, #0]
 801331a:	f000 fef3 	bl	8014104 <__aeabi_atexit>
 801331e:	f640 5320 	movw	r3, #3360	; 0xd20
 8013322:	f2c1 0300 	movt	r3, #4096	; 0x1000
 8013326:	4db4      	ldr	r5, [pc, #720]	; (80135f8 <_GLOBAL__sub_I__ZN4quan3uav3osd8get_fontEm+0x11c8>)
 8013328:	f640 7155 	movw	r1, #3925	; 0xf55
 801332c:	4622      	mov	r2, r4
 801332e:	f6c0 0101 	movt	r1, #2049	; 0x801
 8013332:	4618      	mov	r0, r3
 8013334:	601d      	str	r5, [r3, #0]
 8013336:	f000 fee5 	bl	8014104 <__aeabi_atexit>
 801333a:	f640 33a4 	movw	r3, #2980	; 0xba4
 801333e:	f2c1 0300 	movt	r3, #4096	; 0x1000
 8013342:	4dae      	ldr	r5, [pc, #696]	; (80135fc <_GLOBAL__sub_I__ZN4quan3uav3osd8get_fontEm+0x11cc>)
 8013344:	f640 7149 	movw	r1, #3913	; 0xf49
 8013348:	4622      	mov	r2, r4
 801334a:	f6c0 0101 	movt	r1, #2049	; 0x801
 801334e:	4618      	mov	r0, r3
 8013350:	601d      	str	r5, [r3, #0]
 8013352:	f000 fed7 	bl	8014104 <__aeabi_atexit>
 8013356:	f640 23a0 	movw	r3, #2720	; 0xaa0
 801335a:	f2c1 0300 	movt	r3, #4096	; 0x1000
 801335e:	4da8      	ldr	r5, [pc, #672]	; (8013600 <_GLOBAL__sub_I__ZN4quan3uav3osd8get_fontEm+0x11d0>)
 8013360:	f640 713d 	movw	r1, #3901	; 0xf3d
 8013364:	4622      	mov	r2, r4
 8013366:	f6c0 0101 	movt	r1, #2049	; 0x801
 801336a:	4618      	mov	r0, r3
 801336c:	601d      	str	r5, [r3, #0]
 801336e:	f000 fec9 	bl	8014104 <__aeabi_atexit>
 8013372:	f640 23d4 	movw	r3, #2772	; 0xad4
 8013376:	f2c1 0300 	movt	r3, #4096	; 0x1000
 801337a:	4da2      	ldr	r5, [pc, #648]	; (8013604 <_GLOBAL__sub_I__ZN4quan3uav3osd8get_fontEm+0x11d4>)
 801337c:	f640 7131 	movw	r1, #3889	; 0xf31
 8013380:	4622      	mov	r2, r4
 8013382:	f6c0 0101 	movt	r1, #2049	; 0x801
 8013386:	4618      	mov	r0, r3
 8013388:	601d      	str	r5, [r3, #0]
 801338a:	f000 febb 	bl	8014104 <__aeabi_atexit>
 801338e:	f640 3394 	movw	r3, #2964	; 0xb94
 8013392:	f2c1 0300 	movt	r3, #4096	; 0x1000
 8013396:	4d9c      	ldr	r5, [pc, #624]	; (8013608 <_GLOBAL__sub_I__ZN4quan3uav3osd8get_fontEm+0x11d8>)
 8013398:	f640 7125 	movw	r1, #3877	; 0xf25
 801339c:	4622      	mov	r2, r4
 801339e:	f6c0 0101 	movt	r1, #2049	; 0x801
 80133a2:	4618      	mov	r0, r3
 80133a4:	601d      	str	r5, [r3, #0]
 80133a6:	f000 fead 	bl	8014104 <__aeabi_atexit>
 80133aa:	f640 2360 	movw	r3, #2656	; 0xa60
 80133ae:	f2c1 0300 	movt	r3, #4096	; 0x1000
 80133b2:	4d96      	ldr	r5, [pc, #600]	; (801360c <_GLOBAL__sub_I__ZN4quan3uav3osd8get_fontEm+0x11dc>)
 80133b4:	f640 7119 	movw	r1, #3865	; 0xf19
 80133b8:	4622      	mov	r2, r4
 80133ba:	f6c0 0101 	movt	r1, #2049	; 0x801
 80133be:	4618      	mov	r0, r3
 80133c0:	601d      	str	r5, [r3, #0]
 80133c2:	f000 fe9f 	bl	8014104 <__aeabi_atexit>
 80133c6:	f640 431c 	movw	r3, #3100	; 0xc1c
 80133ca:	f2c1 0300 	movt	r3, #4096	; 0x1000
 80133ce:	4d90      	ldr	r5, [pc, #576]	; (8013610 <_GLOBAL__sub_I__ZN4quan3uav3osd8get_fontEm+0x11e0>)
 80133d0:	f640 710d 	movw	r1, #3853	; 0xf0d
 80133d4:	4622      	mov	r2, r4
 80133d6:	f6c0 0101 	movt	r1, #2049	; 0x801
 80133da:	4618      	mov	r0, r3
 80133dc:	601d      	str	r5, [r3, #0]
 80133de:	f000 fe91 	bl	8014104 <__aeabi_atexit>
 80133e2:	f640 23d8 	movw	r3, #2776	; 0xad8
 80133e6:	f2c1 0300 	movt	r3, #4096	; 0x1000
 80133ea:	4d8a      	ldr	r5, [pc, #552]	; (8013614 <_GLOBAL__sub_I__ZN4quan3uav3osd8get_fontEm+0x11e4>)
 80133ec:	f640 7101 	movw	r1, #3841	; 0xf01
 80133f0:	4622      	mov	r2, r4
 80133f2:	f6c0 0101 	movt	r1, #2049	; 0x801
 80133f6:	4618      	mov	r0, r3
 80133f8:	601d      	str	r5, [r3, #0]
 80133fa:	f000 fe83 	bl	8014104 <__aeabi_atexit>
 80133fe:	f640 3314 	movw	r3, #2836	; 0xb14
 8013402:	f2c1 0300 	movt	r3, #4096	; 0x1000
 8013406:	4d84      	ldr	r5, [pc, #528]	; (8013618 <_GLOBAL__sub_I__ZN4quan3uav3osd8get_fontEm+0x11e8>)
 8013408:	f640 61f5 	movw	r1, #3829	; 0xef5
 801340c:	4622      	mov	r2, r4
 801340e:	f6c0 0101 	movt	r1, #2049	; 0x801
 8013412:	4618      	mov	r0, r3
 8013414:	601d      	str	r5, [r3, #0]
 8013416:	f000 fe75 	bl	8014104 <__aeabi_atexit>
 801341a:	f640 5318 	movw	r3, #3352	; 0xd18
 801341e:	f2c1 0300 	movt	r3, #4096	; 0x1000
 8013422:	4d7e      	ldr	r5, [pc, #504]	; (801361c <_GLOBAL__sub_I__ZN4quan3uav3osd8get_fontEm+0x11ec>)
 8013424:	f640 61e9 	movw	r1, #3817	; 0xee9
 8013428:	4622      	mov	r2, r4
 801342a:	f6c0 0101 	movt	r1, #2049	; 0x801
 801342e:	4618      	mov	r0, r3
 8013430:	601d      	str	r5, [r3, #0]
 8013432:	f000 fe67 	bl	8014104 <__aeabi_atexit>
 8013436:	f640 337c 	movw	r3, #2940	; 0xb7c
 801343a:	f2c1 0300 	movt	r3, #4096	; 0x1000
 801343e:	4d78      	ldr	r5, [pc, #480]	; (8013620 <_GLOBAL__sub_I__ZN4quan3uav3osd8get_fontEm+0x11f0>)
 8013440:	f640 61dd 	movw	r1, #3805	; 0xedd
 8013444:	4622      	mov	r2, r4
 8013446:	f6c0 0101 	movt	r1, #2049	; 0x801
 801344a:	4618      	mov	r0, r3
 801344c:	601d      	str	r5, [r3, #0]
 801344e:	f000 fe59 	bl	8014104 <__aeabi_atexit>
 8013452:	f640 3308 	movw	r3, #2824	; 0xb08
 8013456:	f2c1 0300 	movt	r3, #4096	; 0x1000
 801345a:	4d72      	ldr	r5, [pc, #456]	; (8013624 <_GLOBAL__sub_I__ZN4quan3uav3osd8get_fontEm+0x11f4>)
 801345c:	f640 61d1 	movw	r1, #3793	; 0xed1
 8013460:	4622      	mov	r2, r4
 8013462:	f6c0 0101 	movt	r1, #2049	; 0x801
 8013466:	4618      	mov	r0, r3
 8013468:	601d      	str	r5, [r3, #0]
 801346a:	f000 fe4b 	bl	8014104 <__aeabi_atexit>
 801346e:	f640 3378 	movw	r3, #2936	; 0xb78
 8013472:	f2c1 0300 	movt	r3, #4096	; 0x1000
 8013476:	4d6c      	ldr	r5, [pc, #432]	; (8013628 <_GLOBAL__sub_I__ZN4quan3uav3osd8get_fontEm+0x11f8>)
 8013478:	f640 61c5 	movw	r1, #3781	; 0xec5
 801347c:	4622      	mov	r2, r4
 801347e:	f6c0 0101 	movt	r1, #2049	; 0x801
 8013482:	4618      	mov	r0, r3
 8013484:	601d      	str	r5, [r3, #0]
 8013486:	f000 fe3d 	bl	8014104 <__aeabi_atexit>
 801348a:	f640 33e0 	movw	r3, #3040	; 0xbe0
 801348e:	f2c1 0300 	movt	r3, #4096	; 0x1000
 8013492:	4d66      	ldr	r5, [pc, #408]	; (801362c <_GLOBAL__sub_I__ZN4quan3uav3osd8get_fontEm+0x11fc>)
 8013494:	f640 61b9 	movw	r1, #3769	; 0xeb9
 8013498:	4622      	mov	r2, r4
 801349a:	f6c0 0101 	movt	r1, #2049	; 0x801
 801349e:	4618      	mov	r0, r3
 80134a0:	601d      	str	r5, [r3, #0]
 80134a2:	f000 fe2f 	bl	8014104 <__aeabi_atexit>
 80134a6:	f640 434c 	movw	r3, #3148	; 0xc4c
 80134aa:	f2c1 0300 	movt	r3, #4096	; 0x1000
 80134ae:	4d60      	ldr	r5, [pc, #384]	; (8013630 <_GLOBAL__sub_I__ZN4quan3uav3osd8get_fontEm+0x1200>)
 80134b0:	f640 61ad 	movw	r1, #3757	; 0xead
 80134b4:	4622      	mov	r2, r4
 80134b6:	f6c0 0101 	movt	r1, #2049	; 0x801
 80134ba:	4618      	mov	r0, r3
 80134bc:	601d      	str	r5, [r3, #0]
 80134be:	f000 fe21 	bl	8014104 <__aeabi_atexit>
 80134c2:	f640 33ac 	movw	r3, #2988	; 0xbac
 80134c6:	f2c1 0300 	movt	r3, #4096	; 0x1000
 80134ca:	4d5a      	ldr	r5, [pc, #360]	; (8013634 <_GLOBAL__sub_I__ZN4quan3uav3osd8get_fontEm+0x1204>)
 80134cc:	f640 61a1 	movw	r1, #3745	; 0xea1
 80134d0:	4622      	mov	r2, r4
 80134d2:	f6c0 0101 	movt	r1, #2049	; 0x801
 80134d6:	4618      	mov	r0, r3
 80134d8:	601d      	str	r5, [r3, #0]
 80134da:	f000 fe13 	bl	8014104 <__aeabi_atexit>
 80134de:	f640 33ec 	movw	r3, #3052	; 0xbec
 80134e2:	f2c1 0300 	movt	r3, #4096	; 0x1000
 80134e6:	4d54      	ldr	r5, [pc, #336]	; (8013638 <_GLOBAL__sub_I__ZN4quan3uav3osd8get_fontEm+0x1208>)
 80134e8:	f640 6195 	movw	r1, #3733	; 0xe95
 80134ec:	4622      	mov	r2, r4
 80134ee:	f6c0 0101 	movt	r1, #2049	; 0x801
 80134f2:	4618      	mov	r0, r3
 80134f4:	601d      	str	r5, [r3, #0]
 80134f6:	f000 fe05 	bl	8014104 <__aeabi_atexit>
 80134fa:	f640 331c 	movw	r3, #2844	; 0xb1c
 80134fe:	f2c1 0300 	movt	r3, #4096	; 0x1000
 8013502:	4d4e      	ldr	r5, [pc, #312]	; (801363c <_GLOBAL__sub_I__ZN4quan3uav3osd8get_fontEm+0x120c>)
 8013504:	f640 6189 	movw	r1, #3721	; 0xe89
 8013508:	4622      	mov	r2, r4
 801350a:	f6c0 0101 	movt	r1, #2049	; 0x801
 801350e:	4618      	mov	r0, r3
 8013510:	601d      	str	r5, [r3, #0]
 8013512:	f000 fdf7 	bl	8014104 <__aeabi_atexit>
 8013516:	f640 4354 	movw	r3, #3156	; 0xc54
 801351a:	f2c1 0300 	movt	r3, #4096	; 0x1000
 801351e:	4d48      	ldr	r5, [pc, #288]	; (8013640 <_GLOBAL__sub_I__ZN4quan3uav3osd8get_fontEm+0x1210>)
 8013520:	f640 617d 	movw	r1, #3709	; 0xe7d
 8013524:	4622      	mov	r2, r4
 8013526:	f6c0 0101 	movt	r1, #2049	; 0x801
 801352a:	4618      	mov	r0, r3
 801352c:	601d      	str	r5, [r3, #0]
 801352e:	f000 fde9 	bl	8014104 <__aeabi_atexit>
 8013532:	f640 43e0 	movw	r3, #3296	; 0xce0
 8013536:	f2c1 0300 	movt	r3, #4096	; 0x1000
 801353a:	4d42      	ldr	r5, [pc, #264]	; (8013644 <_GLOBAL__sub_I__ZN4quan3uav3osd8get_fontEm+0x1214>)
 801353c:	f640 6171 	movw	r1, #3697	; 0xe71
 8013540:	4622      	mov	r2, r4
 8013542:	f6c0 0101 	movt	r1, #2049	; 0x801
 8013546:	4618      	mov	r0, r3
 8013548:	601d      	str	r5, [r3, #0]
 801354a:	f000 fddb 	bl	8014104 <__aeabi_atexit>
 801354e:	f640 23d0 	movw	r3, #2768	; 0xad0
 8013552:	f2c1 0300 	movt	r3, #4096	; 0x1000
 8013556:	4d3c      	ldr	r5, [pc, #240]	; (8013648 <_GLOBAL__sub_I__ZN4quan3uav3osd8get_fontEm+0x1218>)
 8013558:	f640 6165 	movw	r1, #3685	; 0xe65
 801355c:	4622      	mov	r2, r4
 801355e:	f6c0 0101 	movt	r1, #2049	; 0x801
 8013562:	4618      	mov	r0, r3
 8013564:	601d      	str	r5, [r3, #0]
 8013566:	f000 fdcd 	bl	8014104 <__aeabi_atexit>
 801356a:	f640 5350 	movw	r3, #3408	; 0xd50
 801356e:	f2c1 0300 	movt	r3, #4096	; 0x1000
 8013572:	4d36      	ldr	r5, [pc, #216]	; (801364c <_GLOBAL__sub_I__ZN4quan3uav3osd8get_fontEm+0x121c>)
 8013574:	f640 6159 	movw	r1, #3673	; 0xe59
 8013578:	4622      	mov	r2, r4
 801357a:	f6c0 0101 	movt	r1, #2049	; 0x801
 801357e:	4618      	mov	r0, r3
 8013580:	601d      	str	r5, [r3, #0]
 8013582:	f000 fdbf 	bl	8014104 <__aeabi_atexit>
 8013586:	f640 23cc 	movw	r3, #2764	; 0xacc
 801358a:	f2c1 0300 	movt	r3, #4096	; 0x1000
 801358e:	4d30      	ldr	r5, [pc, #192]	; (8013650 <_GLOBAL__sub_I__ZN4quan3uav3osd8get_fontEm+0x1220>)
 8013590:	f640 614d 	movw	r1, #3661	; 0xe4d
 8013594:	4622      	mov	r2, r4
 8013596:	f6c0 0101 	movt	r1, #2049	; 0x801
 801359a:	4618      	mov	r0, r3
 801359c:	601d      	str	r5, [r3, #0]
 801359e:	f000 fdb1 	bl	8014104 <__aeabi_atexit>
 80135a2:	f640 3344 	movw	r3, #2884	; 0xb44
 80135a6:	f2c1 0300 	movt	r3, #4096	; 0x1000
 80135aa:	4d2a      	ldr	r5, [pc, #168]	; (8013654 <_GLOBAL__sub_I__ZN4quan3uav3osd8get_fontEm+0x1224>)
 80135ac:	f640 6141 	movw	r1, #3649	; 0xe41
 80135b0:	4622      	mov	r2, r4
 80135b2:	f6c0 0101 	movt	r1, #2049	; 0x801
 80135b6:	4618      	mov	r0, r3
 80135b8:	601d      	str	r5, [r3, #0]
 80135ba:	f000 fda3 	bl	8014104 <__aeabi_atexit>
 80135be:	f640 534c 	movw	r3, #3404	; 0xd4c
 80135c2:	f2c1 0300 	movt	r3, #4096	; 0x1000
 80135c6:	4d24      	ldr	r5, [pc, #144]	; (8013658 <_GLOBAL__sub_I__ZN4quan3uav3osd8get_fontEm+0x1228>)
 80135c8:	f640 6135 	movw	r1, #3637	; 0xe35
 80135cc:	4622      	mov	r2, r4
 80135ce:	f6c0 0101 	movt	r1, #2049	; 0x801
 80135d2:	4618      	mov	r0, r3
 80135d4:	601d      	str	r5, [r3, #0]
 80135d6:	f000 fd95 	bl	8014104 <__aeabi_atexit>
 80135da:	f640 2368 	movw	r3, #2664	; 0xa68
 80135de:	f2c1 0300 	movt	r3, #4096	; 0x1000
 80135e2:	4d1e      	ldr	r5, [pc, #120]	; (801365c <_GLOBAL__sub_I__ZN4quan3uav3osd8get_fontEm+0x122c>)
 80135e4:	f640 6129 	movw	r1, #3625	; 0xe29
 80135e8:	e03a      	b.n	8013660 <_GLOBAL__sub_I__ZN4quan3uav3osd8get_fontEm+0x1230>
 80135ea:	bf00      	nop
 80135ec:	08016600 	.word	0x08016600
 80135f0:	08014ff8 	.word	0x08014ff8
 80135f4:	080167a8 	.word	0x080167a8
 80135f8:	08015168 	.word	0x08015168
 80135fc:	08017210 	.word	0x08017210
 8013600:	08015548 	.word	0x08015548
 8013604:	08017d48 	.word	0x08017d48
 8013608:	08015c48 	.word	0x08015c48
 801360c:	080179c8 	.word	0x080179c8
 8013610:	08015ae0 	.word	0x08015ae0
 8013614:	08017c90 	.word	0x08017c90
 8013618:	08015b90 	.word	0x08015b90
 801361c:	08018708 	.word	0x08018708
 8013620:	080163e8 	.word	0x080163e8
 8013624:	08018d58 	.word	0x08018d58
 8013628:	08016be8 	.word	0x08016be8
 801362c:	080153e8 	.word	0x080153e8
 8013630:	08017788 	.word	0x08017788
 8013634:	080152b8 	.word	0x080152b8
 8013638:	08017428 	.word	0x08017428
 801363c:	08015388 	.word	0x08015388
 8013640:	08017648 	.word	0x08017648
 8013644:	080157b8 	.word	0x080157b8
 8013648:	08018260 	.word	0x08018260
 801364c:	08016008 	.word	0x08016008
 8013650:	08018ae0 	.word	0x08018ae0
 8013654:	080167c0 	.word	0x080167c0
 8013658:	080151d0 	.word	0x080151d0
 801365c:	08015f70 	.word	0x08015f70
 8013660:	4622      	mov	r2, r4
 8013662:	f6c0 0101 	movt	r1, #2049	; 0x801
 8013666:	4618      	mov	r0, r3
 8013668:	601d      	str	r5, [r3, #0]
 801366a:	f000 fd4b 	bl	8014104 <__aeabi_atexit>
 801366e:	f640 43dc 	movw	r3, #3292	; 0xcdc
 8013672:	f2c1 0300 	movt	r3, #4096	; 0x1000
 8013676:	4dc6      	ldr	r5, [pc, #792]	; (8013990 <_GLOBAL__sub_I__ZN4quan3uav3osd8get_fontEm+0x1560>)
 8013678:	f640 611d 	movw	r1, #3613	; 0xe1d
 801367c:	4622      	mov	r2, r4
 801367e:	f6c0 0101 	movt	r1, #2049	; 0x801
 8013682:	4618      	mov	r0, r3
 8013684:	601d      	str	r5, [r3, #0]
 8013686:	f000 fd3d 	bl	8014104 <__aeabi_atexit>
 801368a:	f640 531c 	movw	r3, #3356	; 0xd1c
 801368e:	f2c1 0300 	movt	r3, #4096	; 0x1000
 8013692:	4dc0      	ldr	r5, [pc, #768]	; (8013994 <_GLOBAL__sub_I__ZN4quan3uav3osd8get_fontEm+0x1564>)
 8013694:	f640 6111 	movw	r1, #3601	; 0xe11
 8013698:	4622      	mov	r2, r4
 801369a:	f6c0 0101 	movt	r1, #2049	; 0x801
 801369e:	4618      	mov	r0, r3
 80136a0:	601d      	str	r5, [r3, #0]
 80136a2:	f000 fd2f 	bl	8014104 <__aeabi_atexit>
 80136a6:	f640 5354 	movw	r3, #3412	; 0xd54
 80136aa:	f2c1 0300 	movt	r3, #4096	; 0x1000
 80136ae:	4dba      	ldr	r5, [pc, #744]	; (8013998 <_GLOBAL__sub_I__ZN4quan3uav3osd8get_fontEm+0x1568>)
 80136b0:	f640 6105 	movw	r1, #3589	; 0xe05
 80136b4:	4622      	mov	r2, r4
 80136b6:	f6c0 0101 	movt	r1, #2049	; 0x801
 80136ba:	4618      	mov	r0, r3
 80136bc:	601d      	str	r5, [r3, #0]
 80136be:	f000 fd21 	bl	8014104 <__aeabi_atexit>
 80136c2:	f640 239c 	movw	r3, #2716	; 0xa9c
 80136c6:	f2c1 0300 	movt	r3, #4096	; 0x1000
 80136ca:	4db4      	ldr	r5, [pc, #720]	; (801399c <_GLOBAL__sub_I__ZN4quan3uav3osd8get_fontEm+0x156c>)
 80136cc:	f640 51f9 	movw	r1, #3577	; 0xdf9
 80136d0:	4622      	mov	r2, r4
 80136d2:	f6c0 0101 	movt	r1, #2049	; 0x801
 80136d6:	4618      	mov	r0, r3
 80136d8:	601d      	str	r5, [r3, #0]
 80136da:	f000 fd13 	bl	8014104 <__aeabi_atexit>
 80136de:	f640 3388 	movw	r3, #2952	; 0xb88
 80136e2:	f2c1 0300 	movt	r3, #4096	; 0x1000
 80136e6:	4dae      	ldr	r5, [pc, #696]	; (80139a0 <_GLOBAL__sub_I__ZN4quan3uav3osd8get_fontEm+0x1570>)
 80136e8:	f640 51ed 	movw	r1, #3565	; 0xded
 80136ec:	4622      	mov	r2, r4
 80136ee:	f6c0 0101 	movt	r1, #2049	; 0x801
 80136f2:	4618      	mov	r0, r3
 80136f4:	601d      	str	r5, [r3, #0]
 80136f6:	f000 fd05 	bl	8014104 <__aeabi_atexit>
 80136fa:	f640 330c 	movw	r3, #2828	; 0xb0c
 80136fe:	f2c1 0300 	movt	r3, #4096	; 0x1000
 8013702:	4da8      	ldr	r5, [pc, #672]	; (80139a4 <_GLOBAL__sub_I__ZN4quan3uav3osd8get_fontEm+0x1574>)
 8013704:	f640 51e1 	movw	r1, #3553	; 0xde1
 8013708:	4622      	mov	r2, r4
 801370a:	f6c0 0101 	movt	r1, #2049	; 0x801
 801370e:	4618      	mov	r0, r3
 8013710:	601d      	str	r5, [r3, #0]
 8013712:	f000 fcf7 	bl	8014104 <__aeabi_atexit>
 8013716:	f640 3348 	movw	r3, #2888	; 0xb48
 801371a:	f2c1 0300 	movt	r3, #4096	; 0x1000
 801371e:	4da2      	ldr	r5, [pc, #648]	; (80139a8 <_GLOBAL__sub_I__ZN4quan3uav3osd8get_fontEm+0x1578>)
 8013720:	f640 51d5 	movw	r1, #3541	; 0xdd5
 8013724:	4622      	mov	r2, r4
 8013726:	f6c0 0101 	movt	r1, #2049	; 0x801
 801372a:	4618      	mov	r0, r3
 801372c:	601d      	str	r5, [r3, #0]
 801372e:	f000 fce9 	bl	8014104 <__aeabi_atexit>
 8013732:	f640 2398 	movw	r3, #2712	; 0xa98
 8013736:	f2c1 0300 	movt	r3, #4096	; 0x1000
 801373a:	4d9c      	ldr	r5, [pc, #624]	; (80139ac <_GLOBAL__sub_I__ZN4quan3uav3osd8get_fontEm+0x157c>)
 801373c:	f640 51c9 	movw	r1, #3529	; 0xdc9
 8013740:	4622      	mov	r2, r4
 8013742:	f6c0 0101 	movt	r1, #2049	; 0x801
 8013746:	4618      	mov	r0, r3
 8013748:	601d      	str	r5, [r3, #0]
 801374a:	f000 fcdb 	bl	8014104 <__aeabi_atexit>
 801374e:	f640 3304 	movw	r3, #2820	; 0xb04
 8013752:	f2c1 0300 	movt	r3, #4096	; 0x1000
 8013756:	4d96      	ldr	r5, [pc, #600]	; (80139b0 <_GLOBAL__sub_I__ZN4quan3uav3osd8get_fontEm+0x1580>)
 8013758:	f640 51bd 	movw	r1, #3517	; 0xdbd
 801375c:	4622      	mov	r2, r4
 801375e:	f6c0 0101 	movt	r1, #2049	; 0x801
 8013762:	4618      	mov	r0, r3
 8013764:	601d      	str	r5, [r3, #0]
 8013766:	f000 fccd 	bl	8014104 <__aeabi_atexit>
 801376a:	f640 3310 	movw	r3, #2832	; 0xb10
 801376e:	f2c1 0300 	movt	r3, #4096	; 0x1000
 8013772:	4d90      	ldr	r5, [pc, #576]	; (80139b4 <_GLOBAL__sub_I__ZN4quan3uav3osd8get_fontEm+0x1584>)
 8013774:	f640 51b1 	movw	r1, #3505	; 0xdb1
 8013778:	4622      	mov	r2, r4
 801377a:	f6c0 0101 	movt	r1, #2049	; 0x801
 801377e:	4618      	mov	r0, r3
 8013780:	601d      	str	r5, [r3, #0]
 8013782:	f000 fcbf 	bl	8014104 <__aeabi_atexit>
 8013786:	f640 4368 	movw	r3, #3176	; 0xc68
 801378a:	f2c1 0300 	movt	r3, #4096	; 0x1000
 801378e:	4d8a      	ldr	r5, [pc, #552]	; (80139b8 <_GLOBAL__sub_I__ZN4quan3uav3osd8get_fontEm+0x1588>)
 8013790:	f640 51a5 	movw	r1, #3493	; 0xda5
 8013794:	4622      	mov	r2, r4
 8013796:	f6c0 0101 	movt	r1, #2049	; 0x801
 801379a:	4618      	mov	r0, r3
 801379c:	601d      	str	r5, [r3, #0]
 801379e:	f000 fcb1 	bl	8014104 <__aeabi_atexit>
 80137a2:	f640 43b4 	movw	r3, #3252	; 0xcb4
 80137a6:	f2c1 0300 	movt	r3, #4096	; 0x1000
 80137aa:	4d84      	ldr	r5, [pc, #528]	; (80139bc <_GLOBAL__sub_I__ZN4quan3uav3osd8get_fontEm+0x158c>)
 80137ac:	f640 5199 	movw	r1, #3481	; 0xd99
 80137b0:	4622      	mov	r2, r4
 80137b2:	f6c0 0101 	movt	r1, #2049	; 0x801
 80137b6:	4618      	mov	r0, r3
 80137b8:	601d      	str	r5, [r3, #0]
 80137ba:	f000 fca3 	bl	8014104 <__aeabi_atexit>
 80137be:	f640 33dc 	movw	r3, #3036	; 0xbdc
 80137c2:	f2c1 0300 	movt	r3, #4096	; 0x1000
 80137c6:	4d7e      	ldr	r5, [pc, #504]	; (80139c0 <_GLOBAL__sub_I__ZN4quan3uav3osd8get_fontEm+0x1590>)
 80137c8:	f640 518d 	movw	r1, #3469	; 0xd8d
 80137cc:	4622      	mov	r2, r4
 80137ce:	f6c0 0101 	movt	r1, #2049	; 0x801
 80137d2:	4618      	mov	r0, r3
 80137d4:	601d      	str	r5, [r3, #0]
 80137d6:	f000 fc95 	bl	8014104 <__aeabi_atexit>
 80137da:	f640 3380 	movw	r3, #2944	; 0xb80
 80137de:	f2c1 0300 	movt	r3, #4096	; 0x1000
 80137e2:	4d78      	ldr	r5, [pc, #480]	; (80139c4 <_GLOBAL__sub_I__ZN4quan3uav3osd8get_fontEm+0x1594>)
 80137e4:	f640 5181 	movw	r1, #3457	; 0xd81
 80137e8:	4622      	mov	r2, r4
 80137ea:	f6c0 0101 	movt	r1, #2049	; 0x801
 80137ee:	4618      	mov	r0, r3
 80137f0:	601d      	str	r5, [r3, #0]
 80137f2:	f000 fc87 	bl	8014104 <__aeabi_atexit>
 80137f6:	f640 4314 	movw	r3, #3092	; 0xc14
 80137fa:	f2c1 0300 	movt	r3, #4096	; 0x1000
 80137fe:	4d72      	ldr	r5, [pc, #456]	; (80139c8 <_GLOBAL__sub_I__ZN4quan3uav3osd8get_fontEm+0x1598>)
 8013800:	f640 5175 	movw	r1, #3445	; 0xd75
 8013804:	4622      	mov	r2, r4
 8013806:	f6c0 0101 	movt	r1, #2049	; 0x801
 801380a:	4618      	mov	r0, r3
 801380c:	601d      	str	r5, [r3, #0]
 801380e:	f000 fc79 	bl	8014104 <__aeabi_atexit>
 8013812:	f640 4364 	movw	r3, #3172	; 0xc64
 8013816:	f2c1 0300 	movt	r3, #4096	; 0x1000
 801381a:	4d6c      	ldr	r5, [pc, #432]	; (80139cc <_GLOBAL__sub_I__ZN4quan3uav3osd8get_fontEm+0x159c>)
 801381c:	f640 5169 	movw	r1, #3433	; 0xd69
 8013820:	4622      	mov	r2, r4
 8013822:	f6c0 0101 	movt	r1, #2049	; 0x801
 8013826:	4618      	mov	r0, r3
 8013828:	601d      	str	r5, [r3, #0]
 801382a:	f000 fc6b 	bl	8014104 <__aeabi_atexit>
 801382e:	f640 43f0 	movw	r3, #3312	; 0xcf0
 8013832:	f2c1 0300 	movt	r3, #4096	; 0x1000
 8013836:	4d66      	ldr	r5, [pc, #408]	; (80139d0 <_GLOBAL__sub_I__ZN4quan3uav3osd8get_fontEm+0x15a0>)
 8013838:	f640 515d 	movw	r1, #3421	; 0xd5d
 801383c:	4622      	mov	r2, r4
 801383e:	f6c0 0101 	movt	r1, #2049	; 0x801
 8013842:	4618      	mov	r0, r3
 8013844:	601d      	str	r5, [r3, #0]
 8013846:	f000 fc5d 	bl	8014104 <__aeabi_atexit>
 801384a:	f640 3360 	movw	r3, #2912	; 0xb60
 801384e:	f2c1 0300 	movt	r3, #4096	; 0x1000
 8013852:	4d60      	ldr	r5, [pc, #384]	; (80139d4 <_GLOBAL__sub_I__ZN4quan3uav3osd8get_fontEm+0x15a4>)
 8013854:	f640 5151 	movw	r1, #3409	; 0xd51
 8013858:	4622      	mov	r2, r4
 801385a:	f6c0 0101 	movt	r1, #2049	; 0x801
 801385e:	4618      	mov	r0, r3
 8013860:	601d      	str	r5, [r3, #0]
 8013862:	f000 fc4f 	bl	8014104 <__aeabi_atexit>
 8013866:	f640 43b8 	movw	r3, #3256	; 0xcb8
 801386a:	f2c1 0300 	movt	r3, #4096	; 0x1000
 801386e:	4d5a      	ldr	r5, [pc, #360]	; (80139d8 <_GLOBAL__sub_I__ZN4quan3uav3osd8get_fontEm+0x15a8>)
 8013870:	f640 5145 	movw	r1, #3397	; 0xd45
 8013874:	4622      	mov	r2, r4
 8013876:	f6c0 0101 	movt	r1, #2049	; 0x801
 801387a:	4618      	mov	r0, r3
 801387c:	601d      	str	r5, [r3, #0]
 801387e:	f000 fc41 	bl	8014104 <__aeabi_atexit>
 8013882:	f640 2384 	movw	r3, #2692	; 0xa84
 8013886:	f2c1 0300 	movt	r3, #4096	; 0x1000
 801388a:	4d54      	ldr	r5, [pc, #336]	; (80139dc <_GLOBAL__sub_I__ZN4quan3uav3osd8get_fontEm+0x15ac>)
 801388c:	f640 5139 	movw	r1, #3385	; 0xd39
 8013890:	4622      	mov	r2, r4
 8013892:	f6c0 0101 	movt	r1, #2049	; 0x801
 8013896:	4618      	mov	r0, r3
 8013898:	601d      	str	r5, [r3, #0]
 801389a:	f000 fc33 	bl	8014104 <__aeabi_atexit>
 801389e:	f640 4384 	movw	r3, #3204	; 0xc84
 80138a2:	f2c1 0300 	movt	r3, #4096	; 0x1000
 80138a6:	4d4e      	ldr	r5, [pc, #312]	; (80139e0 <_GLOBAL__sub_I__ZN4quan3uav3osd8get_fontEm+0x15b0>)
 80138a8:	f640 512d 	movw	r1, #3373	; 0xd2d
 80138ac:	4622      	mov	r2, r4
 80138ae:	f6c0 0101 	movt	r1, #2049	; 0x801
 80138b2:	4618      	mov	r0, r3
 80138b4:	601d      	str	r5, [r3, #0]
 80138b6:	f000 fc25 	bl	8014104 <__aeabi_atexit>
 80138ba:	f640 5304 	movw	r3, #3332	; 0xd04
 80138be:	f2c1 0300 	movt	r3, #4096	; 0x1000
 80138c2:	4d48      	ldr	r5, [pc, #288]	; (80139e4 <_GLOBAL__sub_I__ZN4quan3uav3osd8get_fontEm+0x15b4>)
 80138c4:	f640 5121 	movw	r1, #3361	; 0xd21
 80138c8:	4622      	mov	r2, r4
 80138ca:	f6c0 0101 	movt	r1, #2049	; 0x801
 80138ce:	4618      	mov	r0, r3
 80138d0:	601d      	str	r5, [r3, #0]
 80138d2:	f000 fc17 	bl	8014104 <__aeabi_atexit>
 80138d6:	f640 23ec 	movw	r3, #2796	; 0xaec
 80138da:	f2c1 0300 	movt	r3, #4096	; 0x1000
 80138de:	4d42      	ldr	r5, [pc, #264]	; (80139e8 <_GLOBAL__sub_I__ZN4quan3uav3osd8get_fontEm+0x15b8>)
 80138e0:	f640 5115 	movw	r1, #3349	; 0xd15
 80138e4:	4622      	mov	r2, r4
 80138e6:	f6c0 0101 	movt	r1, #2049	; 0x801
 80138ea:	4618      	mov	r0, r3
 80138ec:	601d      	str	r5, [r3, #0]
 80138ee:	f000 fc09 	bl	8014104 <__aeabi_atexit>
 80138f2:	f640 3330 	movw	r3, #2864	; 0xb30
 80138f6:	f2c1 0300 	movt	r3, #4096	; 0x1000
 80138fa:	4d3c      	ldr	r5, [pc, #240]	; (80139ec <_GLOBAL__sub_I__ZN4quan3uav3osd8get_fontEm+0x15bc>)
 80138fc:	f640 5109 	movw	r1, #3337	; 0xd09
 8013900:	4622      	mov	r2, r4
 8013902:	f6c0 0101 	movt	r1, #2049	; 0x801
 8013906:	4618      	mov	r0, r3
 8013908:	601d      	str	r5, [r3, #0]
 801390a:	f000 fbfb 	bl	8014104 <__aeabi_atexit>
 801390e:	f640 33f8 	movw	r3, #3064	; 0xbf8
 8013912:	f2c1 0300 	movt	r3, #4096	; 0x1000
 8013916:	4d36      	ldr	r5, [pc, #216]	; (80139f0 <_GLOBAL__sub_I__ZN4quan3uav3osd8get_fontEm+0x15c0>)
 8013918:	f640 41fd 	movw	r1, #3325	; 0xcfd
 801391c:	4622      	mov	r2, r4
 801391e:	f6c0 0101 	movt	r1, #2049	; 0x801
 8013922:	4618      	mov	r0, r3
 8013924:	601d      	str	r5, [r3, #0]
 8013926:	f000 fbed 	bl	8014104 <__aeabi_atexit>
 801392a:	f640 338c 	movw	r3, #2956	; 0xb8c
 801392e:	f2c1 0300 	movt	r3, #4096	; 0x1000
 8013932:	4d30      	ldr	r5, [pc, #192]	; (80139f4 <_GLOBAL__sub_I__ZN4quan3uav3osd8get_fontEm+0x15c4>)
 8013934:	f640 41f1 	movw	r1, #3313	; 0xcf1
 8013938:	4622      	mov	r2, r4
 801393a:	f6c0 0101 	movt	r1, #2049	; 0x801
 801393e:	4618      	mov	r0, r3
 8013940:	601d      	str	r5, [r3, #0]
 8013942:	f000 fbdf 	bl	8014104 <__aeabi_atexit>
 8013946:	f640 33c0 	movw	r3, #3008	; 0xbc0
 801394a:	f2c1 0300 	movt	r3, #4096	; 0x1000
 801394e:	4d2a      	ldr	r5, [pc, #168]	; (80139f8 <_GLOBAL__sub_I__ZN4quan3uav3osd8get_fontEm+0x15c8>)
 8013950:	f640 41e5 	movw	r1, #3301	; 0xce5
 8013954:	4622      	mov	r2, r4
 8013956:	f6c0 0101 	movt	r1, #2049	; 0x801
 801395a:	4618      	mov	r0, r3
 801395c:	601d      	str	r5, [r3, #0]
 801395e:	f000 fbd1 	bl	8014104 <__aeabi_atexit>
 8013962:	f640 33fc 	movw	r3, #3068	; 0xbfc
 8013966:	f2c1 0300 	movt	r3, #4096	; 0x1000
 801396a:	4d24      	ldr	r5, [pc, #144]	; (80139fc <_GLOBAL__sub_I__ZN4quan3uav3osd8get_fontEm+0x15cc>)
 801396c:	f640 41d9 	movw	r1, #3289	; 0xcd9
 8013970:	4622      	mov	r2, r4
 8013972:	f6c0 0101 	movt	r1, #2049	; 0x801
 8013976:	4618      	mov	r0, r3
 8013978:	601d      	str	r5, [r3, #0]
 801397a:	f000 fbc3 	bl	8014104 <__aeabi_atexit>
 801397e:	f640 4328 	movw	r3, #3112	; 0xc28
 8013982:	f2c1 0300 	movt	r3, #4096	; 0x1000
 8013986:	4d1e      	ldr	r5, [pc, #120]	; (8013a00 <_GLOBAL__sub_I__ZN4quan3uav3osd8get_fontEm+0x15d0>)
 8013988:	f640 41cd 	movw	r1, #3277	; 0xccd
 801398c:	e03a      	b.n	8013a04 <_GLOBAL__sub_I__ZN4quan3uav3osd8get_fontEm+0x15d4>
 801398e:	bf00      	nop
 8013990:	08018a08 	.word	0x08018a08
 8013994:	08016778 	.word	0x08016778
 8013998:	08015138 	.word	0x08015138
 801399c:	080171c0 	.word	0x080171c0
 80139a0:	08015518 	.word	0x08015518
 80139a4:	08017d30 	.word	0x08017d30
 80139a8:	08015bf8 	.word	0x08015bf8
 80139ac:	080187a8 	.word	0x080187a8
 80139b0:	08016470 	.word	0x08016470
 80139b4:	08017c08 	.word	0x08017c08
 80139b8:	08015b60 	.word	0x08015b60
 80139bc:	080186d8 	.word	0x080186d8
 80139c0:	08016398 	.word	0x08016398
 80139c4:	08018d10 	.word	0x08018d10
 80139c8:	08016bb8 	.word	0x08016bb8
 80139cc:	080153b8 	.word	0x080153b8
 80139d0:	08017738 	.word	0x08017738
 80139d4:	080157e8 	.word	0x080157e8
 80139d8:	08018300 	.word	0x08018300
 80139dc:	08017f68 	.word	0x08017f68
 80139e0:	08015ce8 	.word	0x08015ce8
 80139e4:	080188f0 	.word	0x080188f0
 80139e8:	08018830 	.word	0x08018830
 80139ec:	08014fe0 	.word	0x08014fe0
 80139f0:	08016e40 	.word	0x08016e40
 80139f4:	08015480 	.word	0x08015480
 80139f8:	080153d0 	.word	0x080153d0
 80139fc:	08015af8 	.word	0x08015af8
 8013a00:	08018578 	.word	0x08018578
 8013a04:	4622      	mov	r2, r4
 8013a06:	f6c0 0101 	movt	r1, #2049	; 0x801
 8013a0a:	4618      	mov	r0, r3
 8013a0c:	601d      	str	r5, [r3, #0]
 8013a0e:	f000 fb79 	bl	8014104 <__aeabi_atexit>
 8013a12:	f640 3390 	movw	r3, #2960	; 0xb90
 8013a16:	f2c1 0300 	movt	r3, #4096	; 0x1000
 8013a1a:	4d7d      	ldr	r5, [pc, #500]	; (8013c10 <_GLOBAL__sub_I__ZN4quan3uav3osd8get_fontEm+0x17e0>)
 8013a1c:	f640 41c1 	movw	r1, #3265	; 0xcc1
 8013a20:	4622      	mov	r2, r4
 8013a22:	f6c0 0101 	movt	r1, #2049	; 0x801
 8013a26:	4618      	mov	r0, r3
 8013a28:	601d      	str	r5, [r3, #0]
 8013a2a:	f000 fb6b 	bl	8014104 <__aeabi_atexit>
 8013a2e:	f640 33c4 	movw	r3, #3012	; 0xbc4
 8013a32:	f2c1 0300 	movt	r3, #4096	; 0x1000
 8013a36:	4d77      	ldr	r5, [pc, #476]	; (8013c14 <_GLOBAL__sub_I__ZN4quan3uav3osd8get_fontEm+0x17e4>)
 8013a38:	f640 41b5 	movw	r1, #3253	; 0xcb5
 8013a3c:	4622      	mov	r2, r4
 8013a3e:	f6c0 0101 	movt	r1, #2049	; 0x801
 8013a42:	4618      	mov	r0, r3
 8013a44:	601d      	str	r5, [r3, #0]
 8013a46:	f000 fb5d 	bl	8014104 <__aeabi_atexit>
 8013a4a:	f640 23b4 	movw	r3, #2740	; 0xab4
 8013a4e:	f2c1 0300 	movt	r3, #4096	; 0x1000
 8013a52:	4d71      	ldr	r5, [pc, #452]	; (8013c18 <_GLOBAL__sub_I__ZN4quan3uav3osd8get_fontEm+0x17e8>)
 8013a54:	f640 41a9 	movw	r1, #3241	; 0xca9
 8013a58:	4622      	mov	r2, r4
 8013a5a:	f6c0 0101 	movt	r1, #2049	; 0x801
 8013a5e:	4618      	mov	r0, r3
 8013a60:	601d      	str	r5, [r3, #0]
 8013a62:	f000 fb4f 	bl	8014104 <__aeabi_atexit>
 8013a66:	f640 2380 	movw	r3, #2688	; 0xa80
 8013a6a:	f2c1 0300 	movt	r3, #4096	; 0x1000
 8013a6e:	4d6b      	ldr	r5, [pc, #428]	; (8013c1c <_GLOBAL__sub_I__ZN4quan3uav3osd8get_fontEm+0x17ec>)
 8013a70:	f640 419d 	movw	r1, #3229	; 0xc9d
 8013a74:	4622      	mov	r2, r4
 8013a76:	f6c0 0101 	movt	r1, #2049	; 0x801
 8013a7a:	4618      	mov	r0, r3
 8013a7c:	601d      	str	r5, [r3, #0]
 8013a7e:	f000 fb41 	bl	8014104 <__aeabi_atexit>
 8013a82:	f640 3334 	movw	r3, #2868	; 0xb34
 8013a86:	f2c1 0300 	movt	r3, #4096	; 0x1000
 8013a8a:	4d65      	ldr	r5, [pc, #404]	; (8013c20 <_GLOBAL__sub_I__ZN4quan3uav3osd8get_fontEm+0x17f0>)
 8013a8c:	f640 4191 	movw	r1, #3217	; 0xc91
 8013a90:	4622      	mov	r2, r4
 8013a92:	f6c0 0101 	movt	r1, #2049	; 0x801
 8013a96:	4618      	mov	r0, r3
 8013a98:	601d      	str	r5, [r3, #0]
 8013a9a:	f000 fb33 	bl	8014104 <__aeabi_atexit>
 8013a9e:	f640 4380 	movw	r3, #3200	; 0xc80
 8013aa2:	f2c1 0300 	movt	r3, #4096	; 0x1000
 8013aa6:	4d5f      	ldr	r5, [pc, #380]	; (8013c24 <_GLOBAL__sub_I__ZN4quan3uav3osd8get_fontEm+0x17f4>)
 8013aa8:	f640 4185 	movw	r1, #3205	; 0xc85
 8013aac:	4622      	mov	r2, r4
 8013aae:	f6c0 0101 	movt	r1, #2049	; 0x801
 8013ab2:	4618      	mov	r0, r3
 8013ab4:	601d      	str	r5, [r3, #0]
 8013ab6:	f000 fb25 	bl	8014104 <__aeabi_atexit>
 8013aba:	f640 4398 	movw	r3, #3224	; 0xc98
 8013abe:	f2c1 0300 	movt	r3, #4096	; 0x1000
 8013ac2:	4d59      	ldr	r5, [pc, #356]	; (8013c28 <_GLOBAL__sub_I__ZN4quan3uav3osd8get_fontEm+0x17f8>)
 8013ac4:	f640 4179 	movw	r1, #3193	; 0xc79
 8013ac8:	4622      	mov	r2, r4
 8013aca:	f6c0 0101 	movt	r1, #2049	; 0x801
 8013ace:	4618      	mov	r0, r3
 8013ad0:	601d      	str	r5, [r3, #0]
 8013ad2:	f000 fb17 	bl	8014104 <__aeabi_atexit>
 8013ad6:	f640 532c 	movw	r3, #3372	; 0xd2c
 8013ada:	f2c1 0300 	movt	r3, #4096	; 0x1000
 8013ade:	4d53      	ldr	r5, [pc, #332]	; (8013c2c <_GLOBAL__sub_I__ZN4quan3uav3osd8get_fontEm+0x17fc>)
 8013ae0:	f640 416d 	movw	r1, #3181	; 0xc6d
 8013ae4:	4622      	mov	r2, r4
 8013ae6:	f6c0 0101 	movt	r1, #2049	; 0x801
 8013aea:	4618      	mov	r0, r3
 8013aec:	601d      	str	r5, [r3, #0]
 8013aee:	f000 fb09 	bl	8014104 <__aeabi_atexit>
 8013af2:	f640 43f8 	movw	r3, #3320	; 0xcf8
 8013af6:	f2c1 0300 	movt	r3, #4096	; 0x1000
 8013afa:	4d4d      	ldr	r5, [pc, #308]	; (8013c30 <_GLOBAL__sub_I__ZN4quan3uav3osd8get_fontEm+0x1800>)
 8013afc:	f640 4161 	movw	r1, #3169	; 0xc61
 8013b00:	4622      	mov	r2, r4
 8013b02:	f6c0 0101 	movt	r1, #2049	; 0x801
 8013b06:	4618      	mov	r0, r3
 8013b08:	601d      	str	r5, [r3, #0]
 8013b0a:	f000 fafb 	bl	8014104 <__aeabi_atexit>
 8013b0e:	f640 332c 	movw	r3, #2860	; 0xb2c
 8013b12:	f2c1 0300 	movt	r3, #4096	; 0x1000
 8013b16:	4d47      	ldr	r5, [pc, #284]	; (8013c34 <_GLOBAL__sub_I__ZN4quan3uav3osd8get_fontEm+0x1804>)
 8013b18:	f640 4155 	movw	r1, #3157	; 0xc55
 8013b1c:	4622      	mov	r2, r4
 8013b1e:	f6c0 0101 	movt	r1, #2049	; 0x801
 8013b22:	4618      	mov	r0, r3
 8013b24:	601d      	str	r5, [r3, #0]
 8013b26:	f000 faed 	bl	8014104 <__aeabi_atexit>
 8013b2a:	f640 43c4 	movw	r3, #3268	; 0xcc4
 8013b2e:	f2c1 0300 	movt	r3, #4096	; 0x1000
 8013b32:	4d41      	ldr	r5, [pc, #260]	; (8013c38 <_GLOBAL__sub_I__ZN4quan3uav3osd8get_fontEm+0x1808>)
 8013b34:	f640 4149 	movw	r1, #3145	; 0xc49
 8013b38:	4622      	mov	r2, r4
 8013b3a:	f6c0 0101 	movt	r1, #2049	; 0x801
 8013b3e:	4618      	mov	r0, r3
 8013b40:	601d      	str	r5, [r3, #0]
 8013b42:	f000 fadf 	bl	8014104 <__aeabi_atexit>
 8013b46:	f640 43c0 	movw	r3, #3264	; 0xcc0
 8013b4a:	f2c1 0300 	movt	r3, #4096	; 0x1000
 8013b4e:	4d3b      	ldr	r5, [pc, #236]	; (8013c3c <_GLOBAL__sub_I__ZN4quan3uav3osd8get_fontEm+0x180c>)
 8013b50:	f640 413d 	movw	r1, #3133	; 0xc3d
 8013b54:	4622      	mov	r2, r4
 8013b56:	f6c0 0101 	movt	r1, #2049	; 0x801
 8013b5a:	4618      	mov	r0, r3
 8013b5c:	601d      	str	r5, [r3, #0]
 8013b5e:	f000 fad1 	bl	8014104 <__aeabi_atexit>
 8013b62:	f640 43fc 	movw	r3, #3324	; 0xcfc
 8013b66:	f2c1 0300 	movt	r3, #4096	; 0x1000
 8013b6a:	4d35      	ldr	r5, [pc, #212]	; (8013c40 <_GLOBAL__sub_I__ZN4quan3uav3osd8get_fontEm+0x1810>)
 8013b6c:	f640 4131 	movw	r1, #3121	; 0xc31
 8013b70:	4622      	mov	r2, r4
 8013b72:	f6c0 0101 	movt	r1, #2049	; 0x801
 8013b76:	4618      	mov	r0, r3
 8013b78:	601d      	str	r5, [r3, #0]
 8013b7a:	f000 fac3 	bl	8014104 <__aeabi_atexit>
 8013b7e:	f640 5330 	movw	r3, #3376	; 0xd30
 8013b82:	f2c1 0300 	movt	r3, #4096	; 0x1000
 8013b86:	4d2f      	ldr	r5, [pc, #188]	; (8013c44 <_GLOBAL__sub_I__ZN4quan3uav3osd8get_fontEm+0x1814>)
 8013b88:	f640 4125 	movw	r1, #3109	; 0xc25
 8013b8c:	4622      	mov	r2, r4
 8013b8e:	f6c0 0101 	movt	r1, #2049	; 0x801
 8013b92:	4618      	mov	r0, r3
 8013b94:	601d      	str	r5, [r3, #0]
 8013b96:	f000 fab5 	bl	8014104 <__aeabi_atexit>
 8013b9a:	f640 2374 	movw	r3, #2676	; 0xa74
 8013b9e:	f2c1 0300 	movt	r3, #4096	; 0x1000
 8013ba2:	4d29      	ldr	r5, [pc, #164]	; (8013c48 <_GLOBAL__sub_I__ZN4quan3uav3osd8get_fontEm+0x1818>)
 8013ba4:	f640 4119 	movw	r1, #3097	; 0xc19
 8013ba8:	4622      	mov	r2, r4
 8013baa:	f6c0 0101 	movt	r1, #2049	; 0x801
 8013bae:	4618      	mov	r0, r3
 8013bb0:	601d      	str	r5, [r3, #0]
 8013bb2:	f000 faa7 	bl	8014104 <__aeabi_atexit>
 8013bb6:	f640 23ac 	movw	r3, #2732	; 0xaac
 8013bba:	f2c1 0300 	movt	r3, #4096	; 0x1000
 8013bbe:	4d23      	ldr	r5, [pc, #140]	; (8013c4c <_GLOBAL__sub_I__ZN4quan3uav3osd8get_fontEm+0x181c>)
 8013bc0:	f640 410d 	movw	r1, #3085	; 0xc0d
 8013bc4:	4622      	mov	r2, r4
 8013bc6:	f6c0 0101 	movt	r1, #2049	; 0x801
 8013bca:	4618      	mov	r0, r3
 8013bcc:	601d      	str	r5, [r3, #0]
 8013bce:	f000 fa99 	bl	8014104 <__aeabi_atexit>
 8013bd2:	f640 23e4 	movw	r3, #2788	; 0xae4
 8013bd6:	f2c1 0300 	movt	r3, #4096	; 0x1000
 8013bda:	4d1d      	ldr	r5, [pc, #116]	; (8013c50 <_GLOBAL__sub_I__ZN4quan3uav3osd8get_fontEm+0x1820>)
 8013bdc:	f640 4101 	movw	r1, #3073	; 0xc01
 8013be0:	4622      	mov	r2, r4
 8013be2:	f6c0 0101 	movt	r1, #2049	; 0x801
 8013be6:	4618      	mov	r0, r3
 8013be8:	601d      	str	r5, [r3, #0]
 8013bea:	f000 fa8b 	bl	8014104 <__aeabi_atexit>
 8013bee:	f640 530c 	movw	r3, #3340	; 0xd0c
 8013bf2:	f2c1 0300 	movt	r3, #4096	; 0x1000
 8013bf6:	4622      	mov	r2, r4
 8013bf8:	f640 31f5 	movw	r1, #3061	; 0xbf5
 8013bfc:	4c15      	ldr	r4, [pc, #84]	; (8013c54 <_GLOBAL__sub_I__ZN4quan3uav3osd8get_fontEm+0x1824>)
 8013bfe:	4618      	mov	r0, r3
 8013c00:	f6c0 0101 	movt	r1, #2049	; 0x801
 8013c04:	601c      	str	r4, [r3, #0]
 8013c06:	e8bd 4038 	ldmia.w	sp!, {r3, r4, r5, lr}
 8013c0a:	f000 ba7b 	b.w	8014104 <__aeabi_atexit>
 8013c0e:	bf00      	nop
 8013c10:	08015430 	.word	0x08015430
 8013c14:	08017908 	.word	0x08017908
 8013c18:	08015a58 	.word	0x08015a58
 8013c1c:	080184b8 	.word	0x080184b8
 8013c20:	08016220 	.word	0x08016220
 8013c24:	08018c10 	.word	0x08018c10
 8013c28:	08016a60 	.word	0x08016a60
 8013c2c:	080152d0 	.word	0x080152d0
 8013c30:	08016c00 	.word	0x08016c00
 8013c34:	08016970 	.word	0x08016970
 8013c38:	080169d8 	.word	0x080169d8
 8013c3c:	08015268 	.word	0x08015268
 8013c40:	080173d8 	.word	0x080173d8
 8013c44:	08015668 	.word	0x08015668
 8013c48:	08018028 	.word	0x08018028
 8013c4c:	08015a08 	.word	0x08015a08
 8013c50:	08014fc8 	.word	0x08014fc8
 8013c54:	08016488 	.word	0x08016488

08013c58 <_GLOBAL__sub_I__ZN4quan5errorEll>:
 8013c58:	f640 535c 	movw	r3, #3420	; 0xd5c
 8013c5c:	f2c1 0300 	movt	r3, #4096	; 0x1000
 8013c60:	f103 0208 	add.w	r2, r3, #8
 8013c64:	2000      	movs	r0, #0
 8013c66:	601a      	str	r2, [r3, #0]
 8013c68:	6058      	str	r0, [r3, #4]
 8013c6a:	4770      	bx	lr

08013c6c <Reset_Handler>:
 8013c6c:	2100      	movs	r1, #0
 8013c6e:	f000 b804 	b.w	8013c7a <LoopCopyDataInit>

08013c72 <CopyDataInit>:
 8013c72:	4b0d      	ldr	r3, [pc, #52]	; (8013ca8 <LoopFillZerobss+0x16>)
 8013c74:	585b      	ldr	r3, [r3, r1]
 8013c76:	5043      	str	r3, [r0, r1]
 8013c78:	3104      	adds	r1, #4

08013c7a <LoopCopyDataInit>:
 8013c7a:	480c      	ldr	r0, [pc, #48]	; (8013cac <LoopFillZerobss+0x1a>)
 8013c7c:	4b0c      	ldr	r3, [pc, #48]	; (8013cb0 <LoopFillZerobss+0x1e>)
 8013c7e:	1842      	adds	r2, r0, r1
 8013c80:	429a      	cmp	r2, r3
 8013c82:	f4ff aff6 	bcc.w	8013c72 <CopyDataInit>
 8013c86:	4a0b      	ldr	r2, [pc, #44]	; (8013cb4 <LoopFillZerobss+0x22>)
 8013c88:	f000 b803 	b.w	8013c92 <LoopFillZerobss>

08013c8c <FillZerobss>:
 8013c8c:	2300      	movs	r3, #0
 8013c8e:	f842 3b04 	str.w	r3, [r2], #4

08013c92 <LoopFillZerobss>:
 8013c92:	4b09      	ldr	r3, [pc, #36]	; (8013cb8 <LoopFillZerobss+0x26>)
 8013c94:	429a      	cmp	r2, r3
 8013c96:	f4ff aff9 	bcc.w	8013c8c <FillZerobss>
 8013c9a:	f000 f811 	bl	8013cc0 <SystemInit>
 8013c9e:	f000 fa47 	bl	8014130 <__libc_init_array>
 8013ca2:	f7f9 fe69 	bl	800d978 <main>
 8013ca6:	4770      	bx	lr
 8013ca8:	08018dd8 	.word	0x08018dd8
 8013cac:	10000000 	.word	0x10000000
 8013cb0:	10000864 	.word	0x10000864
 8013cb4:	10000864 	.word	0x10000864
 8013cb8:	10000e64 	.word	0x10000e64

08013cbc <ADC_IRQHandler>:
 8013cbc:	f7ff bffe 	b.w	8013cbc <ADC_IRQHandler>

08013cc0 <SystemInit>:
 8013cc0:	f44f 426d 	mov.w	r2, #60672	; 0xed00
 8013cc4:	f2ce 0200 	movt	r2, #57344	; 0xe000
 8013cc8:	f64e 7330 	movw	r3, #61232	; 0xef30
 8013ccc:	f8d2 1088 	ldr.w	r1, [r2, #136]	; 0x88
 8013cd0:	f2ce 0300 	movt	r3, #57344	; 0xe000
 8013cd4:	f441 0070 	orr.w	r0, r1, #15728640	; 0xf00000
 8013cd8:	f8c2 0088 	str.w	r0, [r2, #136]	; 0x88
 8013cdc:	685a      	ldr	r2, [r3, #4]
 8013cde:	f022 4140 	bic.w	r1, r2, #3221225472	; 0xc0000000
 8013ce2:	b082      	sub	sp, #8
 8013ce4:	6059      	str	r1, [r3, #4]
 8013ce6:	f3ef 8314 	mrs	r3, CONTROL
 8013cea:	f023 0004 	bic.w	r0, r3, #4
 8013cee:	f380 8814 	msr	CONTROL, r0
 8013cf2:	f44f 5360 	mov.w	r3, #14336	; 0x3800
 8013cf6:	f2c4 0302 	movt	r3, #16386	; 0x4002
 8013cfa:	2200      	movs	r2, #0
 8013cfc:	6819      	ldr	r1, [r3, #0]
 8013cfe:	f041 0001 	orr.w	r0, r1, #1
 8013d02:	6018      	str	r0, [r3, #0]
 8013d04:	609a      	str	r2, [r3, #8]
 8013d06:	6818      	ldr	r0, [r3, #0]
 8013d08:	f243 0110 	movw	r1, #12304	; 0x3010
 8013d0c:	f020 7084 	bic.w	r0, r0, #17301504	; 0x1080000
 8013d10:	f420 3080 	bic.w	r0, r0, #65536	; 0x10000
 8013d14:	f2c2 4100 	movt	r1, #9216	; 0x2400
 8013d18:	6018      	str	r0, [r3, #0]
 8013d1a:	6059      	str	r1, [r3, #4]
 8013d1c:	6819      	ldr	r1, [r3, #0]
 8013d1e:	f421 2080 	bic.w	r0, r1, #262144	; 0x40000
 8013d22:	6018      	str	r0, [r3, #0]
 8013d24:	60da      	str	r2, [r3, #12]
 8013d26:	9200      	str	r2, [sp, #0]
 8013d28:	9201      	str	r2, [sp, #4]
 8013d2a:	681a      	ldr	r2, [r3, #0]
 8013d2c:	f442 3180 	orr.w	r1, r2, #65536	; 0x10000
 8013d30:	6019      	str	r1, [r3, #0]
 8013d32:	6818      	ldr	r0, [r3, #0]
 8013d34:	f400 3200 	and.w	r2, r0, #131072	; 0x20000
 8013d38:	9201      	str	r2, [sp, #4]
 8013d3a:	9900      	ldr	r1, [sp, #0]
 8013d3c:	1c48      	adds	r0, r1, #1
 8013d3e:	9000      	str	r0, [sp, #0]
 8013d40:	9a01      	ldr	r2, [sp, #4]
 8013d42:	b91a      	cbnz	r2, 8013d4c <SystemInit+0x8c>
 8013d44:	9900      	ldr	r1, [sp, #0]
 8013d46:	f5b1 6fa0 	cmp.w	r1, #1280	; 0x500
 8013d4a:	d1f2      	bne.n	8013d32 <SystemInit+0x72>
 8013d4c:	f44f 5360 	mov.w	r3, #14336	; 0x3800
 8013d50:	f2c4 0302 	movt	r3, #16386	; 0x4002
 8013d54:	6818      	ldr	r0, [r3, #0]
 8013d56:	f410 3200 	ands.w	r2, r0, #131072	; 0x20000
 8013d5a:	d005      	beq.n	8013d68 <SystemInit+0xa8>
 8013d5c:	2101      	movs	r1, #1
 8013d5e:	9101      	str	r1, [sp, #4]
 8013d60:	9b01      	ldr	r3, [sp, #4]
 8013d62:	2b01      	cmp	r3, #1
 8013d64:	d004      	beq.n	8013d70 <SystemInit+0xb0>
 8013d66:	e7fe      	b.n	8013d66 <SystemInit+0xa6>
 8013d68:	9201      	str	r2, [sp, #4]
 8013d6a:	9b01      	ldr	r3, [sp, #4]
 8013d6c:	2b01      	cmp	r3, #1
 8013d6e:	d1fa      	bne.n	8013d66 <SystemInit+0xa6>
 8013d70:	f44f 5060 	mov.w	r0, #14336	; 0x3800
 8013d74:	f2c4 0002 	movt	r0, #16386	; 0x4002
 8013d78:	f44f 42e0 	mov.w	r2, #28672	; 0x7000
 8013d7c:	6c01      	ldr	r1, [r0, #64]	; 0x40
 8013d7e:	f2c4 0200 	movt	r2, #16384	; 0x4000
 8013d82:	f041 5380 	orr.w	r3, r1, #268435456	; 0x10000000
 8013d86:	6403      	str	r3, [r0, #64]	; 0x40
 8013d88:	6811      	ldr	r1, [r2, #0]
 8013d8a:	f441 4380 	orr.w	r3, r1, #16384	; 0x4000
 8013d8e:	6013      	str	r3, [r2, #0]
 8013d90:	6882      	ldr	r2, [r0, #8]
 8013d92:	6082      	str	r2, [r0, #8]
 8013d94:	6881      	ldr	r1, [r0, #8]
 8013d96:	f441 4300 	orr.w	r3, r1, #32768	; 0x8000
 8013d9a:	6083      	str	r3, [r0, #8]
 8013d9c:	6881      	ldr	r1, [r0, #8]
 8013d9e:	f642 2204 	movw	r2, #10756	; 0x2a04
 8013da2:	f441 53a0 	orr.w	r3, r1, #5120	; 0x1400
 8013da6:	f2c0 7240 	movt	r2, #1856	; 0x740
 8013daa:	6083      	str	r3, [r0, #8]
 8013dac:	6042      	str	r2, [r0, #4]
 8013dae:	6801      	ldr	r1, [r0, #0]
 8013db0:	f041 7280 	orr.w	r2, r1, #16777216	; 0x1000000
 8013db4:	6002      	str	r2, [r0, #0]
 8013db6:	6803      	ldr	r3, [r0, #0]
 8013db8:	f44f 5260 	mov.w	r2, #14336	; 0x3800
 8013dbc:	0199      	lsls	r1, r3, #6
 8013dbe:	f2c4 0202 	movt	r2, #16386	; 0x4002
 8013dc2:	d5f8      	bpl.n	8013db6 <SystemInit+0xf6>
 8013dc4:	f44f 5070 	mov.w	r0, #15360	; 0x3c00
 8013dc8:	f2c4 0002 	movt	r0, #16386	; 0x4002
 8013dcc:	f240 6105 	movw	r1, #1541	; 0x605
 8013dd0:	6001      	str	r1, [r0, #0]
 8013dd2:	6893      	ldr	r3, [r2, #8]
 8013dd4:	f023 0003 	bic.w	r0, r3, #3
 8013dd8:	6090      	str	r0, [r2, #8]
 8013dda:	6891      	ldr	r1, [r2, #8]
 8013ddc:	f041 0302 	orr.w	r3, r1, #2
 8013de0:	6093      	str	r3, [r2, #8]
 8013de2:	6890      	ldr	r0, [r2, #8]
 8013de4:	f000 010c 	and.w	r1, r0, #12
 8013de8:	2908      	cmp	r1, #8
 8013dea:	d1fa      	bne.n	8013de2 <SystemInit+0x122>
 8013dec:	f44f 436d 	mov.w	r3, #60672	; 0xed00
 8013df0:	f2ce 0300 	movt	r3, #57344	; 0xe000
 8013df4:	f04f 6200 	mov.w	r2, #134217728	; 0x8000000
 8013df8:	609a      	str	r2, [r3, #8]
 8013dfa:	b002      	add	sp, #8
 8013dfc:	4770      	bx	lr
 8013dfe:	bf00      	nop

08013e00 <prvPortStartFirstTask>:
 8013e00:	4806      	ldr	r0, [pc, #24]	; (8013e1c <prvPortStartFirstTask+0x1c>)
 8013e02:	6800      	ldr	r0, [r0, #0]
 8013e04:	6800      	ldr	r0, [r0, #0]
 8013e06:	f380 8808 	msr	MSP, r0
 8013e0a:	b662      	cpsie	i
 8013e0c:	b661      	cpsie	f
 8013e0e:	f3bf 8f4f 	dsb	sy
 8013e12:	f3bf 8f6f 	isb	sy
 8013e16:	df00      	svc	0
 8013e18:	bf00      	nop
 8013e1a:	0000      	.short	0x0000
 8013e1c:	e000ed08 	.word	0xe000ed08

08013e20 <vPortEnableVFP>:
 8013e20:	f8df 000c 	ldr.w	r0, [pc, #12]	; 8013e30 <vPortEnableVFP+0x10>
 8013e24:	6801      	ldr	r1, [r0, #0]
 8013e26:	f441 0170 	orr.w	r1, r1, #15728640	; 0xf00000
 8013e2a:	6001      	str	r1, [r0, #0]
 8013e2c:	4770      	bx	lr
 8013e2e:	0000      	.short	0x0000
 8013e30:	e000ed88 	.word	0xe000ed88

08013e34 <pxPortInitialiseStack>:
 8013e34:	f04f 7380 	mov.w	r3, #16777216	; 0x1000000
 8013e38:	e900 000a 	stmdb	r0, {r1, r3}
 8013e3c:	f643 63d5 	movw	r3, #16085	; 0x3ed5
 8013e40:	f6c0 0301 	movt	r3, #2049	; 0x801
 8013e44:	f06f 0102 	mvn.w	r1, #2
 8013e48:	f840 3c0c 	str.w	r3, [r0, #-12]
 8013e4c:	f840 2c20 	str.w	r2, [r0, #-32]
 8013e50:	f840 1c24 	str.w	r1, [r0, #-36]
 8013e54:	3844      	subs	r0, #68	; 0x44
 8013e56:	4770      	bx	lr

08013e58 <SVC_Handler>:
 8013e58:	4b06      	ldr	r3, [pc, #24]	; (8013e74 <pxCurrentTCBConst2>)
 8013e5a:	6819      	ldr	r1, [r3, #0]
 8013e5c:	6808      	ldr	r0, [r1, #0]
 8013e5e:	e8b0 4ff0 	ldmia.w	r0!, {r4, r5, r6, r7, r8, r9, sl, fp, lr}
 8013e62:	f380 8809 	msr	PSP, r0
 8013e66:	f3bf 8f6f 	isb	sy
 8013e6a:	f04f 0000 	mov.w	r0, #0
 8013e6e:	f380 8811 	msr	BASEPRI, r0
 8013e72:	4770      	bx	lr

08013e74 <pxCurrentTCBConst2>:
 8013e74:	100009c4 	.word	0x100009c4

08013e78 <vPortYield>:
 8013e78:	f64e 5304 	movw	r3, #60676	; 0xed04
 8013e7c:	f2ce 0300 	movt	r3, #57344	; 0xe000
 8013e80:	f04f 5280 	mov.w	r2, #268435456	; 0x10000000
 8013e84:	601a      	str	r2, [r3, #0]
 8013e86:	f3bf 8f4f 	dsb	sy
 8013e8a:	f3bf 8f6f 	isb	sy
 8013e8e:	4770      	bx	lr

08013e90 <ulPortSetInterruptMask>:
 8013e90:	f3ef 8011 	mrs	r0, BASEPRI
 8013e94:	f04f 0150 	mov.w	r1, #80	; 0x50
 8013e98:	f381 8811 	msr	BASEPRI, r1
 8013e9c:	4770      	bx	lr
 8013e9e:	2000      	movs	r0, #0

08013ea0 <vPortEnterCritical>:
 8013ea0:	b508      	push	{r3, lr}
 8013ea2:	f7ff fff5 	bl	8013e90 <ulPortSetInterruptMask>
 8013ea6:	4a0a      	ldr	r2, [pc, #40]	; (8013ed0 <vPortEnterCritical+0x30>)
 8013ea8:	6813      	ldr	r3, [r2, #0]
 8013eaa:	1c58      	adds	r0, r3, #1
 8013eac:	6010      	str	r0, [r2, #0]
 8013eae:	f3bf 8f4f 	dsb	sy
 8013eb2:	f3bf 8f6f 	isb	sy
 8013eb6:	2801      	cmp	r0, #1
 8013eb8:	d000      	beq.n	8013ebc <vPortEnterCritical+0x1c>
 8013eba:	bd08      	pop	{r3, pc}
 8013ebc:	f64e 5104 	movw	r1, #60676	; 0xed04
 8013ec0:	f2ce 0100 	movt	r1, #57344	; 0xe000
 8013ec4:	680a      	ldr	r2, [r1, #0]
 8013ec6:	06d3      	lsls	r3, r2, #27
 8013ec8:	d0f7      	beq.n	8013eba <vPortEnterCritical+0x1a>
 8013eca:	f7ff ffe1 	bl	8013e90 <ulPortSetInterruptMask>
 8013ece:	e7fe      	b.n	8013ece <vPortEnterCritical+0x2e>
 8013ed0:	10000024 	.word	0x10000024

08013ed4 <prvTaskExitError>:
 8013ed4:	b508      	push	{r3, lr}
 8013ed6:	4b05      	ldr	r3, [pc, #20]	; (8013eec <prvTaskExitError+0x18>)
 8013ed8:	6818      	ldr	r0, [r3, #0]
 8013eda:	1c43      	adds	r3, r0, #1
 8013edc:	d002      	beq.n	8013ee4 <prvTaskExitError+0x10>
 8013ede:	f7ff ffd7 	bl	8013e90 <ulPortSetInterruptMask>
 8013ee2:	e7fe      	b.n	8013ee2 <prvTaskExitError+0xe>
 8013ee4:	f7ff ffd4 	bl	8013e90 <ulPortSetInterruptMask>
 8013ee8:	e7fe      	b.n	8013ee8 <prvTaskExitError+0x14>
 8013eea:	bf00      	nop
 8013eec:	10000024 	.word	0x10000024

08013ef0 <vPortClearInterruptMask>:
 8013ef0:	f380 8811 	msr	BASEPRI, r0
 8013ef4:	4770      	bx	lr
 8013ef6:	bf00      	nop

08013ef8 <vPortExitCritical>:
 8013ef8:	b508      	push	{r3, lr}
 8013efa:	4b07      	ldr	r3, [pc, #28]	; (8013f18 <vPortExitCritical+0x20>)
 8013efc:	6818      	ldr	r0, [r3, #0]
 8013efe:	b118      	cbz	r0, 8013f08 <vPortExitCritical+0x10>
 8013f00:	3801      	subs	r0, #1
 8013f02:	6018      	str	r0, [r3, #0]
 8013f04:	b118      	cbz	r0, 8013f0e <vPortExitCritical+0x16>
 8013f06:	bd08      	pop	{r3, pc}
 8013f08:	f7ff ffc2 	bl	8013e90 <ulPortSetInterruptMask>
 8013f0c:	e7fe      	b.n	8013f0c <vPortExitCritical+0x14>
 8013f0e:	e8bd 4008 	ldmia.w	sp!, {r3, lr}
 8013f12:	f7ff bfed 	b.w	8013ef0 <vPortClearInterruptMask>
 8013f16:	bf00      	nop
 8013f18:	10000024 	.word	0x10000024

08013f1c <PendSV_Handler>:
 8013f1c:	f3ef 8009 	mrs	r0, PSP
 8013f20:	f3bf 8f6f 	isb	sy
 8013f24:	4b12      	ldr	r3, [pc, #72]	; (8013f70 <pxCurrentTCBConst>)
 8013f26:	681a      	ldr	r2, [r3, #0]
 8013f28:	f01e 0f10 	tst.w	lr, #16
 8013f2c:	bf08      	it	eq
 8013f2e:	ed20 8a10 	vstmdbeq	r0!, {s16-s31}
 8013f32:	e920 4ff0 	stmdb	r0!, {r4, r5, r6, r7, r8, r9, sl, fp, lr}
 8013f36:	6010      	str	r0, [r2, #0]
 8013f38:	f84d 3d04 	str.w	r3, [sp, #-4]!
 8013f3c:	f04f 0050 	mov.w	r0, #80	; 0x50
 8013f40:	f380 8811 	msr	BASEPRI, r0
 8013f44:	f7fa fc0e 	bl	800e764 <vTaskSwitchContext>
 8013f48:	f04f 0000 	mov.w	r0, #0
 8013f4c:	f380 8811 	msr	BASEPRI, r0
 8013f50:	bc08      	pop	{r3}
 8013f52:	6819      	ldr	r1, [r3, #0]
 8013f54:	6808      	ldr	r0, [r1, #0]
 8013f56:	e8b0 4ff0 	ldmia.w	r0!, {r4, r5, r6, r7, r8, r9, sl, fp, lr}
 8013f5a:	f01e 0f10 	tst.w	lr, #16
 8013f5e:	bf08      	it	eq
 8013f60:	ecb0 8a10 	vldmiaeq	r0!, {s16-s31}
 8013f64:	f380 8809 	msr	PSP, r0
 8013f68:	f3bf 8f6f 	isb	sy
 8013f6c:	4770      	bx	lr
 8013f6e:	bf00      	nop

08013f70 <pxCurrentTCBConst>:
 8013f70:	100009c4 	.word	0x100009c4

08013f74 <SysTick_Handler>:
 8013f74:	b508      	push	{r3, lr}
 8013f76:	f7ff ff8b 	bl	8013e90 <ulPortSetInterruptMask>
 8013f7a:	f7fa fa85 	bl	800e488 <xTaskIncrementTick>
 8013f7e:	b130      	cbz	r0, 8013f8e <SysTick_Handler+0x1a>
 8013f80:	f64e 5304 	movw	r3, #60676	; 0xed04
 8013f84:	f2ce 0300 	movt	r3, #57344	; 0xe000
 8013f88:	f04f 5280 	mov.w	r2, #268435456	; 0x10000000
 8013f8c:	601a      	str	r2, [r3, #0]
 8013f8e:	2000      	movs	r0, #0
 8013f90:	e8bd 4008 	ldmia.w	sp!, {r3, lr}
 8013f94:	f7ff bfac 	b.w	8013ef0 <vPortClearInterruptMask>

08013f98 <vPortSetupTimerInterrupt>:
 8013f98:	f240 0320 	movw	r3, #32
 8013f9c:	f2c1 0300 	movt	r3, #4096	; 0x1000
 8013fa0:	f644 52d3 	movw	r2, #19923	; 0x4dd3
 8013fa4:	6819      	ldr	r1, [r3, #0]
 8013fa6:	f2c1 0262 	movt	r2, #4194	; 0x1062
 8013faa:	fba2 3001 	umull	r3, r0, r2, r1
 8013fae:	f24e 0214 	movw	r2, #57364	; 0xe014
 8013fb2:	f2ce 0200 	movt	r2, #57344	; 0xe000
 8013fb6:	f24e 0310 	movw	r3, #57360	; 0xe010
 8013fba:	0981      	lsrs	r1, r0, #6
 8013fbc:	f2ce 0300 	movt	r3, #57344	; 0xe000
 8013fc0:	1e48      	subs	r0, r1, #1
 8013fc2:	6010      	str	r0, [r2, #0]
 8013fc4:	2207      	movs	r2, #7
 8013fc6:	601a      	str	r2, [r3, #0]
 8013fc8:	4770      	bx	lr
 8013fca:	bf00      	nop

08013fcc <xPortStartScheduler>:
 8013fcc:	b510      	push	{r4, lr}
 8013fce:	f44f 4364 	mov.w	r3, #58368	; 0xe400
 8013fd2:	f2ce 0300 	movt	r3, #57344	; 0xe000
 8013fd6:	b082      	sub	sp, #8
 8013fd8:	781a      	ldrb	r2, [r3, #0]
 8013fda:	4825      	ldr	r0, [pc, #148]	; (8014070 <xPortStartScheduler+0xa4>)
 8013fdc:	9201      	str	r2, [sp, #4]
 8013fde:	21ff      	movs	r1, #255	; 0xff
 8013fe0:	7019      	strb	r1, [r3, #0]
 8013fe2:	781c      	ldrb	r4, [r3, #0]
 8013fe4:	4923      	ldr	r1, [pc, #140]	; (8014074 <xPortStartScheduler+0xa8>)
 8013fe6:	f88d 4003 	strb.w	r4, [sp, #3]
 8013fea:	f89d 3003 	ldrb.w	r3, [sp, #3]
 8013fee:	f89d 2003 	ldrb.w	r2, [sp, #3]
 8013ff2:	f003 0450 	and.w	r4, r3, #80	; 0x50
 8013ff6:	700c      	strb	r4, [r1, #0]
 8013ff8:	2307      	movs	r3, #7
 8013ffa:	0611      	lsls	r1, r2, #24
 8013ffc:	6003      	str	r3, [r0, #0]
 8013ffe:	d50d      	bpl.n	801401c <xPortStartScheduler+0x50>
 8014000:	2306      	movs	r3, #6
 8014002:	e000      	b.n	8014006 <xPortStartScheduler+0x3a>
 8014004:	4623      	mov	r3, r4
 8014006:	f89d 2003 	ldrb.w	r2, [sp, #3]
 801400a:	0054      	lsls	r4, r2, #1
 801400c:	b2e1      	uxtb	r1, r4
 801400e:	f88d 1003 	strb.w	r1, [sp, #3]
 8014012:	f89d 2003 	ldrb.w	r2, [sp, #3]
 8014016:	1e5c      	subs	r4, r3, #1
 8014018:	0612      	lsls	r2, r2, #24
 801401a:	d4f3      	bmi.n	8014004 <xPortStartScheduler+0x38>
 801401c:	9c01      	ldr	r4, [sp, #4]
 801401e:	f44f 4164 	mov.w	r1, #58368	; 0xe400
 8014022:	f2ce 0100 	movt	r1, #57344	; 0xe000
 8014026:	021b      	lsls	r3, r3, #8
 8014028:	f64e 5220 	movw	r2, #60704	; 0xed20
 801402c:	f2ce 0200 	movt	r2, #57344	; 0xe000
 8014030:	f403 63e0 	and.w	r3, r3, #1792	; 0x700
 8014034:	b2e4      	uxtb	r4, r4
 8014036:	6003      	str	r3, [r0, #0]
 8014038:	700c      	strb	r4, [r1, #0]
 801403a:	6810      	ldr	r0, [r2, #0]
 801403c:	f440 0170 	orr.w	r1, r0, #15728640	; 0xf00000
 8014040:	6011      	str	r1, [r2, #0]
 8014042:	6813      	ldr	r3, [r2, #0]
 8014044:	f043 4470 	orr.w	r4, r3, #4026531840	; 0xf0000000
 8014048:	6014      	str	r4, [r2, #0]
 801404a:	f7ff ffa5 	bl	8013f98 <vPortSetupTimerInterrupt>
 801404e:	480a      	ldr	r0, [pc, #40]	; (8014078 <xPortStartScheduler+0xac>)
 8014050:	2200      	movs	r2, #0
 8014052:	6002      	str	r2, [r0, #0]
 8014054:	f7ff fee4 	bl	8013e20 <vPortEnableVFP>
 8014058:	f64e 7134 	movw	r1, #61236	; 0xef34
 801405c:	f2ce 0100 	movt	r1, #57344	; 0xe000
 8014060:	680b      	ldr	r3, [r1, #0]
 8014062:	f043 4440 	orr.w	r4, r3, #3221225472	; 0xc0000000
 8014066:	600c      	str	r4, [r1, #0]
 8014068:	f7ff feca 	bl	8013e00 <prvPortStartFirstTask>
 801406c:	f7ff ff32 	bl	8013ed4 <prvTaskExitError>
 8014070:	10000de8 	.word	0x10000de8
 8014074:	10000de4 	.word	0x10000de4
 8014078:	10000024 	.word	0x10000024

0801407c <vPortValidateInterruptPriority>:
 801407c:	b508      	push	{r3, lr}
 801407e:	f3ef 8205 	mrs	r2, IPSR
 8014082:	2a0f      	cmp	r2, #15
 8014084:	d908      	bls.n	8014098 <vPortValidateInterruptPriority+0x1c>
 8014086:	f24e 33f0 	movw	r3, #58352	; 0xe3f0
 801408a:	f2ce 0300 	movt	r3, #57344	; 0xe000
 801408e:	490b      	ldr	r1, [pc, #44]	; (80140bc <vPortValidateInterruptPriority+0x40>)
 8014090:	5cd0      	ldrb	r0, [r2, r3]
 8014092:	780a      	ldrb	r2, [r1, #0]
 8014094:	4282      	cmp	r2, r0
 8014096:	d80e      	bhi.n	80140b6 <vPortValidateInterruptPriority+0x3a>
 8014098:	f64e 530c 	movw	r3, #60684	; 0xed0c
 801409c:	f2ce 0300 	movt	r3, #57344	; 0xe000
 80140a0:	4907      	ldr	r1, [pc, #28]	; (80140c0 <vPortValidateInterruptPriority+0x44>)
 80140a2:	6818      	ldr	r0, [r3, #0]
 80140a4:	680b      	ldr	r3, [r1, #0]
 80140a6:	f400 62e0 	and.w	r2, r0, #1792	; 0x700
 80140aa:	429a      	cmp	r2, r3
 80140ac:	d800      	bhi.n	80140b0 <vPortValidateInterruptPriority+0x34>
 80140ae:	bd08      	pop	{r3, pc}
 80140b0:	f7ff feee 	bl	8013e90 <ulPortSetInterruptMask>
 80140b4:	e7fe      	b.n	80140b4 <vPortValidateInterruptPriority+0x38>
 80140b6:	f7ff feeb 	bl	8013e90 <ulPortSetInterruptMask>
 80140ba:	e7fe      	b.n	80140ba <vPortValidateInterruptPriority+0x3e>
 80140bc:	10000de4 	.word	0x10000de4
 80140c0:	10000de8 	.word	0x10000de8

080140c4 <pvPortMalloc>:
 80140c4:	b510      	push	{r4, lr}
 80140c6:	4604      	mov	r4, r0
 80140c8:	f7fa f9ca 	bl	800e460 <vTaskSuspendAll>
 80140cc:	4620      	mov	r0, r4
 80140ce:	f000 f879 	bl	80141c4 <malloc>
 80140d2:	4604      	mov	r4, r0
 80140d4:	f7fa fa8c 	bl	800e5f0 <xTaskResumeAll>
 80140d8:	b10c      	cbz	r4, 80140de <pvPortMalloc+0x1a>
 80140da:	4620      	mov	r0, r4
 80140dc:	bd10      	pop	{r4, pc}
 80140de:	f7f9 fe87 	bl	800ddf0 <vApplicationMallocFailedHook>
 80140e2:	4620      	mov	r0, r4
 80140e4:	bd10      	pop	{r4, pc}
 80140e6:	bf00      	nop

080140e8 <vPortFree>:
 80140e8:	b510      	push	{r4, lr}
 80140ea:	4604      	mov	r4, r0
 80140ec:	b140      	cbz	r0, 8014100 <vPortFree+0x18>
 80140ee:	f7fa f9b7 	bl	800e460 <vTaskSuspendAll>
 80140f2:	4620      	mov	r0, r4
 80140f4:	f000 f86e 	bl	80141d4 <free>
 80140f8:	e8bd 4010 	ldmia.w	sp!, {r4, lr}
 80140fc:	f7fa ba78 	b.w	800e5f0 <xTaskResumeAll>
 8014100:	bd10      	pop	{r4, pc}
 8014102:	bf00      	nop

08014104 <__aeabi_atexit>:
 8014104:	4603      	mov	r3, r0
 8014106:	4608      	mov	r0, r1
 8014108:	4619      	mov	r1, r3
 801410a:	f000 b801 	b.w	8014110 <__cxa_atexit>
 801410e:	bf00      	nop

08014110 <__cxa_atexit>:
 8014110:	b430      	push	{r4, r5}
 8014112:	4605      	mov	r5, r0
 8014114:	460c      	mov	r4, r1
 8014116:	4613      	mov	r3, r2
 8014118:	2002      	movs	r0, #2
 801411a:	4629      	mov	r1, r5
 801411c:	4622      	mov	r2, r4
 801411e:	bc30      	pop	{r4, r5}
 8014120:	f000 bce8 	b.w	8014af4 <__register_exitproc>

08014124 <__errno>:
 8014124:	f240 4350 	movw	r3, #1104	; 0x450
 8014128:	f2c1 0300 	movt	r3, #4096	; 0x1000
 801412c:	6818      	ldr	r0, [r3, #0]
 801412e:	4770      	bx	lr

08014130 <__libc_init_array>:
 8014130:	b5f8      	push	{r3, r4, r5, r6, r7, lr}
 8014132:	4f20      	ldr	r7, [pc, #128]	; (80141b4 <__libc_init_array+0x84>)
 8014134:	4c20      	ldr	r4, [pc, #128]	; (80141b8 <__libc_init_array+0x88>)
 8014136:	1b38      	subs	r0, r7, r4
 8014138:	1087      	asrs	r7, r0, #2
 801413a:	d017      	beq.n	801416c <__libc_init_array+0x3c>
 801413c:	1e7a      	subs	r2, r7, #1
 801413e:	6823      	ldr	r3, [r4, #0]
 8014140:	2501      	movs	r5, #1
 8014142:	f002 0601 	and.w	r6, r2, #1
 8014146:	4798      	blx	r3
 8014148:	42af      	cmp	r7, r5
 801414a:	d00f      	beq.n	801416c <__libc_init_array+0x3c>
 801414c:	b12e      	cbz	r6, 801415a <__libc_init_array+0x2a>
 801414e:	f854 1f04 	ldr.w	r1, [r4, #4]!
 8014152:	2502      	movs	r5, #2
 8014154:	4788      	blx	r1
 8014156:	42af      	cmp	r7, r5
 8014158:	d008      	beq.n	801416c <__libc_init_array+0x3c>
 801415a:	6860      	ldr	r0, [r4, #4]
 801415c:	4780      	blx	r0
 801415e:	3502      	adds	r5, #2
 8014160:	68a2      	ldr	r2, [r4, #8]
 8014162:	1d26      	adds	r6, r4, #4
 8014164:	4790      	blx	r2
 8014166:	3408      	adds	r4, #8
 8014168:	42af      	cmp	r7, r5
 801416a:	d1f6      	bne.n	801415a <__libc_init_array+0x2a>
 801416c:	4f13      	ldr	r7, [pc, #76]	; (80141bc <__libc_init_array+0x8c>)
 801416e:	4c14      	ldr	r4, [pc, #80]	; (80141c0 <__libc_init_array+0x90>)
 8014170:	f004 fe26 	bl	8018dc0 <_init>
 8014174:	1b3b      	subs	r3, r7, r4
 8014176:	109f      	asrs	r7, r3, #2
 8014178:	d018      	beq.n	80141ac <__libc_init_array+0x7c>
 801417a:	1e7d      	subs	r5, r7, #1
 801417c:	6821      	ldr	r1, [r4, #0]
 801417e:	f005 0601 	and.w	r6, r5, #1
 8014182:	2501      	movs	r5, #1
 8014184:	4788      	blx	r1
 8014186:	42af      	cmp	r7, r5
 8014188:	d011      	beq.n	80141ae <__libc_init_array+0x7e>
 801418a:	b12e      	cbz	r6, 8014198 <__libc_init_array+0x68>
 801418c:	f854 0f04 	ldr.w	r0, [r4, #4]!
 8014190:	2502      	movs	r5, #2
 8014192:	4780      	blx	r0
 8014194:	42af      	cmp	r7, r5
 8014196:	d00b      	beq.n	80141b0 <__libc_init_array+0x80>
 8014198:	6862      	ldr	r2, [r4, #4]
 801419a:	4790      	blx	r2
 801419c:	3502      	adds	r5, #2
 801419e:	68a3      	ldr	r3, [r4, #8]
 80141a0:	1d26      	adds	r6, r4, #4
 80141a2:	4798      	blx	r3
 80141a4:	3408      	adds	r4, #8
 80141a6:	42af      	cmp	r7, r5
 80141a8:	d1f6      	bne.n	8014198 <__libc_init_array+0x68>
 80141aa:	bdf8      	pop	{r3, r4, r5, r6, r7, pc}
 80141ac:	bdf8      	pop	{r3, r4, r5, r6, r7, pc}
 80141ae:	bdf8      	pop	{r3, r4, r5, r6, r7, pc}
 80141b0:	bdf8      	pop	{r3, r4, r5, r6, r7, pc}
 80141b2:	bf00      	nop
 80141b4:	08000188 	.word	0x08000188
 80141b8:	08000188 	.word	0x08000188
 80141bc:	0800019c 	.word	0x0800019c
 80141c0:	08000188 	.word	0x08000188

080141c4 <malloc>:
 80141c4:	f240 4350 	movw	r3, #1104	; 0x450
 80141c8:	f2c1 0300 	movt	r3, #4096	; 0x1000
 80141cc:	4601      	mov	r1, r0
 80141ce:	6818      	ldr	r0, [r3, #0]
 80141d0:	f000 b808 	b.w	80141e4 <_malloc_r>

080141d4 <free>:
 80141d4:	f240 4350 	movw	r3, #1104	; 0x450
 80141d8:	f2c1 0300 	movt	r3, #4096	; 0x1000
 80141dc:	4601      	mov	r1, r0
 80141de:	6818      	ldr	r0, [r3, #0]
 80141e0:	f000 bd2a 	b.w	8014c38 <_free_r>

080141e4 <_malloc_r>:
 80141e4:	e92d 4ff0 	stmdb	sp!, {r4, r5, r6, r7, r8, r9, sl, fp, lr}
 80141e8:	f101 050b 	add.w	r5, r1, #11
 80141ec:	2d16      	cmp	r5, #22
 80141ee:	b083      	sub	sp, #12
 80141f0:	4606      	mov	r6, r0
 80141f2:	d927      	bls.n	8014244 <_malloc_r+0x60>
 80141f4:	f035 0507 	bics.w	r5, r5, #7
 80141f8:	d427      	bmi.n	801424a <_malloc_r+0x66>
 80141fa:	42a9      	cmp	r1, r5
 80141fc:	d825      	bhi.n	801424a <_malloc_r+0x66>
 80141fe:	4630      	mov	r0, r6
 8014200:	f000 fc32 	bl	8014a68 <__malloc_lock>
 8014204:	f5b5 7ffc 	cmp.w	r5, #504	; 0x1f8
 8014208:	d223      	bcs.n	8014252 <_malloc_r+0x6e>
 801420a:	4fba      	ldr	r7, [pc, #744]	; (80144f4 <_malloc_r+0x310>)
 801420c:	ea4f 0cd5 	mov.w	ip, r5, lsr #3
 8014210:	eb07 02cc 	add.w	r2, r7, ip, lsl #3
 8014214:	68d4      	ldr	r4, [r2, #12]
 8014216:	4294      	cmp	r4, r2
 8014218:	f000 81de 	beq.w	80145d8 <_malloc_r+0x3f4>
 801421c:	6863      	ldr	r3, [r4, #4]
 801421e:	68e2      	ldr	r2, [r4, #12]
 8014220:	68a1      	ldr	r1, [r4, #8]
 8014222:	f023 0003 	bic.w	r0, r3, #3
 8014226:	1823      	adds	r3, r4, r0
 8014228:	60ca      	str	r2, [r1, #12]
 801422a:	6858      	ldr	r0, [r3, #4]
 801422c:	6091      	str	r1, [r2, #8]
 801422e:	f040 0201 	orr.w	r2, r0, #1
 8014232:	605a      	str	r2, [r3, #4]
 8014234:	4630      	mov	r0, r6
 8014236:	f000 fc19 	bl	8014a6c <__malloc_unlock>
 801423a:	3408      	adds	r4, #8
 801423c:	4620      	mov	r0, r4
 801423e:	b003      	add	sp, #12
 8014240:	e8bd 8ff0 	ldmia.w	sp!, {r4, r5, r6, r7, r8, r9, sl, fp, pc}
 8014244:	2510      	movs	r5, #16
 8014246:	42a9      	cmp	r1, r5
 8014248:	d9d9      	bls.n	80141fe <_malloc_r+0x1a>
 801424a:	240c      	movs	r4, #12
 801424c:	6034      	str	r4, [r6, #0]
 801424e:	2400      	movs	r4, #0
 8014250:	e7f4      	b.n	801423c <_malloc_r+0x58>
 8014252:	ea5f 2c55 	movs.w	ip, r5, lsr #9
 8014256:	f000 808b 	beq.w	8014370 <_malloc_r+0x18c>
 801425a:	f1bc 0f04 	cmp.w	ip, #4
 801425e:	f200 8155 	bhi.w	801450c <_malloc_r+0x328>
 8014262:	ea4f 1795 	mov.w	r7, r5, lsr #6
 8014266:	f107 0e38 	add.w	lr, r7, #56	; 0x38
 801426a:	ea4f 014e 	mov.w	r1, lr, lsl #1
 801426e:	4fa1      	ldr	r7, [pc, #644]	; (80144f4 <_malloc_r+0x310>)
 8014270:	eb07 0181 	add.w	r1, r7, r1, lsl #2
 8014274:	68cc      	ldr	r4, [r1, #12]
 8014276:	42a1      	cmp	r1, r4
 8014278:	d105      	bne.n	8014286 <_malloc_r+0xa2>
 801427a:	e00c      	b.n	8014296 <_malloc_r+0xb2>
 801427c:	2a00      	cmp	r2, #0
 801427e:	da7c      	bge.n	801437a <_malloc_r+0x196>
 8014280:	68e4      	ldr	r4, [r4, #12]
 8014282:	42a1      	cmp	r1, r4
 8014284:	d007      	beq.n	8014296 <_malloc_r+0xb2>
 8014286:	6863      	ldr	r3, [r4, #4]
 8014288:	f023 0003 	bic.w	r0, r3, #3
 801428c:	1b42      	subs	r2, r0, r5
 801428e:	2a0f      	cmp	r2, #15
 8014290:	ddf4      	ble.n	801427c <_malloc_r+0x98>
 8014292:	f10e 3eff 	add.w	lr, lr, #4294967295
 8014296:	f10e 0c01 	add.w	ip, lr, #1
 801429a:	4b96      	ldr	r3, [pc, #600]	; (80144f4 <_malloc_r+0x310>)
 801429c:	693c      	ldr	r4, [r7, #16]
 801429e:	f103 0e08 	add.w	lr, r3, #8
 80142a2:	4574      	cmp	r4, lr
 80142a4:	f000 8175 	beq.w	8014592 <_malloc_r+0x3ae>
 80142a8:	6861      	ldr	r1, [r4, #4]
 80142aa:	f021 0103 	bic.w	r1, r1, #3
 80142ae:	1b4a      	subs	r2, r1, r5
 80142b0:	2a0f      	cmp	r2, #15
 80142b2:	f300 815b 	bgt.w	801456c <_malloc_r+0x388>
 80142b6:	2a00      	cmp	r2, #0
 80142b8:	f8c3 e014 	str.w	lr, [r3, #20]
 80142bc:	f8c3 e010 	str.w	lr, [r3, #16]
 80142c0:	da69      	bge.n	8014396 <_malloc_r+0x1b2>
 80142c2:	f5b1 7f00 	cmp.w	r1, #512	; 0x200
 80142c6:	f080 812f 	bcs.w	8014528 <_malloc_r+0x344>
 80142ca:	08ca      	lsrs	r2, r1, #3
 80142cc:	eb03 01c2 	add.w	r1, r3, r2, lsl #3
 80142d0:	f04f 0901 	mov.w	r9, #1
 80142d4:	1092      	asrs	r2, r2, #2
 80142d6:	fa09 f902 	lsl.w	r9, r9, r2
 80142da:	685a      	ldr	r2, [r3, #4]
 80142dc:	6888      	ldr	r0, [r1, #8]
 80142de:	60e1      	str	r1, [r4, #12]
 80142e0:	ea49 0902 	orr.w	r9, r9, r2
 80142e4:	60a0      	str	r0, [r4, #8]
 80142e6:	f8c3 9004 	str.w	r9, [r3, #4]
 80142ea:	608c      	str	r4, [r1, #8]
 80142ec:	60c4      	str	r4, [r0, #12]
 80142ee:	2001      	movs	r0, #1
 80142f0:	ea4f 04ac 	mov.w	r4, ip, asr #2
 80142f4:	fa00 f004 	lsl.w	r0, r0, r4
 80142f8:	4548      	cmp	r0, r9
 80142fa:	d856      	bhi.n	80143aa <_malloc_r+0x1c6>
 80142fc:	ea19 0f00 	tst.w	r9, r0
 8014300:	d107      	bne.n	8014312 <_malloc_r+0x12e>
 8014302:	f02c 0c03 	bic.w	ip, ip, #3
 8014306:	0040      	lsls	r0, r0, #1
 8014308:	ea19 0f00 	tst.w	r9, r0
 801430c:	f10c 0c04 	add.w	ip, ip, #4
 8014310:	d0f9      	beq.n	8014306 <_malloc_r+0x122>
 8014312:	eb07 09cc 	add.w	r9, r7, ip, lsl #3
 8014316:	464c      	mov	r4, r9
 8014318:	46e0      	mov	r8, ip
 801431a:	68e3      	ldr	r3, [r4, #12]
 801431c:	429c      	cmp	r4, r3
 801431e:	d107      	bne.n	8014330 <_malloc_r+0x14c>
 8014320:	e13a      	b.n	8014598 <_malloc_r+0x3b4>
 8014322:	2a00      	cmp	r2, #0
 8014324:	f280 8162 	bge.w	80145ec <_malloc_r+0x408>
 8014328:	68db      	ldr	r3, [r3, #12]
 801432a:	429c      	cmp	r4, r3
 801432c:	f000 8134 	beq.w	8014598 <_malloc_r+0x3b4>
 8014330:	6859      	ldr	r1, [r3, #4]
 8014332:	f021 0103 	bic.w	r1, r1, #3
 8014336:	1b4a      	subs	r2, r1, r5
 8014338:	2a0f      	cmp	r2, #15
 801433a:	ddf2      	ble.n	8014322 <_malloc_r+0x13e>
 801433c:	461c      	mov	r4, r3
 801433e:	1959      	adds	r1, r3, r5
 8014340:	68d8      	ldr	r0, [r3, #12]
 8014342:	f854 cf08 	ldr.w	ip, [r4, #8]!
 8014346:	508a      	str	r2, [r1, r2]
 8014348:	f045 0501 	orr.w	r5, r5, #1
 801434c:	f042 0201 	orr.w	r2, r2, #1
 8014350:	f8cc 000c 	str.w	r0, [ip, #12]
 8014354:	f8c0 c008 	str.w	ip, [r0, #8]
 8014358:	605d      	str	r5, [r3, #4]
 801435a:	6179      	str	r1, [r7, #20]
 801435c:	6139      	str	r1, [r7, #16]
 801435e:	f8c1 e00c 	str.w	lr, [r1, #12]
 8014362:	f8c1 e008 	str.w	lr, [r1, #8]
 8014366:	604a      	str	r2, [r1, #4]
 8014368:	4630      	mov	r0, r6
 801436a:	f000 fb7f 	bl	8014a6c <__malloc_unlock>
 801436e:	e765      	b.n	801423c <_malloc_r+0x58>
 8014370:	ea4f 0ed5 	mov.w	lr, r5, lsr #3
 8014374:	ea4f 014e 	mov.w	r1, lr, lsl #1
 8014378:	e779      	b.n	801426e <_malloc_r+0x8a>
 801437a:	1822      	adds	r2, r4, r0
 801437c:	68e3      	ldr	r3, [r4, #12]
 801437e:	6850      	ldr	r0, [r2, #4]
 8014380:	68a1      	ldr	r1, [r4, #8]
 8014382:	f040 0001 	orr.w	r0, r0, #1
 8014386:	6050      	str	r0, [r2, #4]
 8014388:	60cb      	str	r3, [r1, #12]
 801438a:	6099      	str	r1, [r3, #8]
 801438c:	4630      	mov	r0, r6
 801438e:	f000 fb6d 	bl	8014a6c <__malloc_unlock>
 8014392:	3408      	adds	r4, #8
 8014394:	e752      	b.n	801423c <_malloc_r+0x58>
 8014396:	1861      	adds	r1, r4, r1
 8014398:	4630      	mov	r0, r6
 801439a:	684b      	ldr	r3, [r1, #4]
 801439c:	f043 0201 	orr.w	r2, r3, #1
 80143a0:	604a      	str	r2, [r1, #4]
 80143a2:	f000 fb63 	bl	8014a6c <__malloc_unlock>
 80143a6:	3408      	adds	r4, #8
 80143a8:	e748      	b.n	801423c <_malloc_r+0x58>
 80143aa:	68bc      	ldr	r4, [r7, #8]
 80143ac:	6860      	ldr	r0, [r4, #4]
 80143ae:	f020 0903 	bic.w	r9, r0, #3
 80143b2:	45a9      	cmp	r9, r5
 80143b4:	d304      	bcc.n	80143c0 <_malloc_r+0x1dc>
 80143b6:	ebc5 0309 	rsb	r3, r5, r9
 80143ba:	2b0f      	cmp	r3, #15
 80143bc:	f300 808d 	bgt.w	80144da <_malloc_r+0x2f6>
 80143c0:	4a4d      	ldr	r2, [pc, #308]	; (80144f8 <_malloc_r+0x314>)
 80143c2:	4b4e      	ldr	r3, [pc, #312]	; (80144fc <_malloc_r+0x318>)
 80143c4:	6811      	ldr	r1, [r2, #0]
 80143c6:	6818      	ldr	r0, [r3, #0]
 80143c8:	3101      	adds	r1, #1
 80143ca:	eb04 0b09 	add.w	fp, r4, r9
 80143ce:	eb05 0300 	add.w	r3, r5, r0
 80143d2:	f000 815a 	beq.w	801468a <_malloc_r+0x4a6>
 80143d6:	f503 5080 	add.w	r0, r3, #4096	; 0x1000
 80143da:	300f      	adds	r0, #15
 80143dc:	f420 617f 	bic.w	r1, r0, #4080	; 0xff0
 80143e0:	f021 0c0f 	bic.w	ip, r1, #15
 80143e4:	4661      	mov	r1, ip
 80143e6:	4630      	mov	r0, r6
 80143e8:	e88d 1004 	stmia.w	sp, {r2, ip}
 80143ec:	f000 fb40 	bl	8014a70 <_sbrk_r>
 80143f0:	f1b0 3fff 	cmp.w	r0, #4294967295
 80143f4:	4680      	mov	r8, r0
 80143f6:	e89d 1004 	ldmia.w	sp, {r2, ip}
 80143fa:	f000 8152 	beq.w	80146a2 <_malloc_r+0x4be>
 80143fe:	4583      	cmp	fp, r0
 8014400:	f200 810f 	bhi.w	8014622 <_malloc_r+0x43e>
 8014404:	f8df a100 	ldr.w	sl, [pc, #256]	; 8014508 <_malloc_r+0x324>
 8014408:	f8da 3000 	ldr.w	r3, [sl]
 801440c:	45c3      	cmp	fp, r8
 801440e:	4463      	add	r3, ip
 8014410:	f8ca 3000 	str.w	r3, [sl]
 8014414:	f000 814a 	beq.w	80146ac <_malloc_r+0x4c8>
 8014418:	6812      	ldr	r2, [r2, #0]
 801441a:	3201      	adds	r2, #1
 801441c:	f000 8157 	beq.w	80146ce <_malloc_r+0x4ea>
 8014420:	ebcb 0b08 	rsb	fp, fp, r8
 8014424:	445b      	add	r3, fp
 8014426:	f8ca 3000 	str.w	r3, [sl]
 801442a:	f018 0107 	ands.w	r1, r8, #7
 801442e:	f000 810b 	beq.w	8014648 <_malloc_r+0x464>
 8014432:	f1c1 0008 	rsb	r0, r1, #8
 8014436:	f5c1 5380 	rsb	r3, r1, #4096	; 0x1000
 801443a:	4480      	add	r8, r0
 801443c:	f103 0208 	add.w	r2, r3, #8
 8014440:	eb08 010c 	add.w	r1, r8, ip
 8014444:	0508      	lsls	r0, r1, #20
 8014446:	0d03      	lsrs	r3, r0, #20
 8014448:	ebc3 0b02 	rsb	fp, r3, r2
 801444c:	4630      	mov	r0, r6
 801444e:	4659      	mov	r1, fp
 8014450:	f000 fb0e 	bl	8014a70 <_sbrk_r>
 8014454:	1c43      	adds	r3, r0, #1
 8014456:	f000 8146 	beq.w	80146e6 <_malloc_r+0x502>
 801445a:	ebc8 0200 	rsb	r2, r8, r0
 801445e:	eb0b 0102 	add.w	r1, fp, r2
 8014462:	f041 0001 	orr.w	r0, r1, #1
 8014466:	f8da 3000 	ldr.w	r3, [sl]
 801446a:	f8c7 8008 	str.w	r8, [r7, #8]
 801446e:	445b      	add	r3, fp
 8014470:	42bc      	cmp	r4, r7
 8014472:	f8ca 3000 	str.w	r3, [sl]
 8014476:	f8c8 0004 	str.w	r0, [r8, #4]
 801447a:	d015      	beq.n	80144a8 <_malloc_r+0x2c4>
 801447c:	f1b9 0f0f 	cmp.w	r9, #15
 8014480:	f240 80f2 	bls.w	8014668 <_malloc_r+0x484>
 8014484:	6861      	ldr	r1, [r4, #4]
 8014486:	f1a9 020c 	sub.w	r2, r9, #12
 801448a:	f022 0207 	bic.w	r2, r2, #7
 801448e:	18a0      	adds	r0, r4, r2
 8014490:	f001 0c01 	and.w	ip, r1, #1
 8014494:	ea42 0e0c 	orr.w	lr, r2, ip
 8014498:	2105      	movs	r1, #5
 801449a:	2a0f      	cmp	r2, #15
 801449c:	f8c4 e004 	str.w	lr, [r4, #4]
 80144a0:	6041      	str	r1, [r0, #4]
 80144a2:	6081      	str	r1, [r0, #8]
 80144a4:	f200 8117 	bhi.w	80146d6 <_malloc_r+0x4f2>
 80144a8:	4a15      	ldr	r2, [pc, #84]	; (8014500 <_malloc_r+0x31c>)
 80144aa:	68bc      	ldr	r4, [r7, #8]
 80144ac:	6810      	ldr	r0, [r2, #0]
 80144ae:	4283      	cmp	r3, r0
 80144b0:	bf88      	it	hi
 80144b2:	6013      	strhi	r3, [r2, #0]
 80144b4:	4a13      	ldr	r2, [pc, #76]	; (8014504 <_malloc_r+0x320>)
 80144b6:	6811      	ldr	r1, [r2, #0]
 80144b8:	428b      	cmp	r3, r1
 80144ba:	bf88      	it	hi
 80144bc:	6013      	strhi	r3, [r2, #0]
 80144be:	6863      	ldr	r3, [r4, #4]
 80144c0:	f023 0003 	bic.w	r0, r3, #3
 80144c4:	42a8      	cmp	r0, r5
 80144c6:	ebc5 0300 	rsb	r3, r5, r0
 80144ca:	d301      	bcc.n	80144d0 <_malloc_r+0x2ec>
 80144cc:	2b0f      	cmp	r3, #15
 80144ce:	dc04      	bgt.n	80144da <_malloc_r+0x2f6>
 80144d0:	4630      	mov	r0, r6
 80144d2:	f000 facb 	bl	8014a6c <__malloc_unlock>
 80144d6:	2400      	movs	r4, #0
 80144d8:	e6b0      	b.n	801423c <_malloc_r+0x58>
 80144da:	1962      	adds	r2, r4, r5
 80144dc:	f043 0101 	orr.w	r1, r3, #1
 80144e0:	f045 0501 	orr.w	r5, r5, #1
 80144e4:	6065      	str	r5, [r4, #4]
 80144e6:	4630      	mov	r0, r6
 80144e8:	6051      	str	r1, [r2, #4]
 80144ea:	60ba      	str	r2, [r7, #8]
 80144ec:	f000 fabe 	bl	8014a6c <__malloc_unlock>
 80144f0:	3408      	adds	r4, #8
 80144f2:	e6a3      	b.n	801423c <_malloc_r+0x58>
 80144f4:	10000454 	.word	0x10000454
 80144f8:	10000860 	.word	0x10000860
 80144fc:	10000df4 	.word	0x10000df4
 8014500:	10000df0 	.word	0x10000df0
 8014504:	10000dec 	.word	0x10000dec
 8014508:	10000df8 	.word	0x10000df8
 801450c:	f1bc 0f14 	cmp.w	ip, #20
 8014510:	d97b      	bls.n	801460a <_malloc_r+0x426>
 8014512:	f1bc 0f54 	cmp.w	ip, #84	; 0x54
 8014516:	f200 808d 	bhi.w	8014634 <_malloc_r+0x450>
 801451a:	ea4f 3415 	mov.w	r4, r5, lsr #12
 801451e:	f104 0e6e 	add.w	lr, r4, #110	; 0x6e
 8014522:	ea4f 014e 	mov.w	r1, lr, lsl #1
 8014526:	e6a2      	b.n	801426e <_malloc_r+0x8a>
 8014528:	0a48      	lsrs	r0, r1, #9
 801452a:	2804      	cmp	r0, #4
 801452c:	d972      	bls.n	8014614 <_malloc_r+0x430>
 801452e:	2814      	cmp	r0, #20
 8014530:	f200 80ae 	bhi.w	8014690 <_malloc_r+0x4ac>
 8014534:	f100 095b 	add.w	r9, r0, #91	; 0x5b
 8014538:	ea4f 0249 	mov.w	r2, r9, lsl #1
 801453c:	eb07 0082 	add.w	r0, r7, r2, lsl #2
 8014540:	f8df 81f0 	ldr.w	r8, [pc, #496]	; 8014734 <_malloc_r+0x550>
 8014544:	6883      	ldr	r3, [r0, #8]
 8014546:	4283      	cmp	r3, r0
 8014548:	f000 8081 	beq.w	801464e <_malloc_r+0x46a>
 801454c:	685a      	ldr	r2, [r3, #4]
 801454e:	f022 0203 	bic.w	r2, r2, #3
 8014552:	4291      	cmp	r1, r2
 8014554:	d202      	bcs.n	801455c <_malloc_r+0x378>
 8014556:	689b      	ldr	r3, [r3, #8]
 8014558:	4298      	cmp	r0, r3
 801455a:	d1f7      	bne.n	801454c <_malloc_r+0x368>
 801455c:	68da      	ldr	r2, [r3, #12]
 801455e:	f8d7 9004 	ldr.w	r9, [r7, #4]
 8014562:	60e2      	str	r2, [r4, #12]
 8014564:	60a3      	str	r3, [r4, #8]
 8014566:	60dc      	str	r4, [r3, #12]
 8014568:	6094      	str	r4, [r2, #8]
 801456a:	e6c0      	b.n	80142ee <_malloc_r+0x10a>
 801456c:	1961      	adds	r1, r4, r5
 801456e:	f042 0001 	orr.w	r0, r2, #1
 8014572:	f045 0501 	orr.w	r5, r5, #1
 8014576:	6065      	str	r5, [r4, #4]
 8014578:	6159      	str	r1, [r3, #20]
 801457a:	6119      	str	r1, [r3, #16]
 801457c:	6048      	str	r0, [r1, #4]
 801457e:	f8c1 e00c 	str.w	lr, [r1, #12]
 8014582:	f8c1 e008 	str.w	lr, [r1, #8]
 8014586:	508a      	str	r2, [r1, r2]
 8014588:	4630      	mov	r0, r6
 801458a:	f000 fa6f 	bl	8014a6c <__malloc_unlock>
 801458e:	3408      	adds	r4, #8
 8014590:	e654      	b.n	801423c <_malloc_r+0x58>
 8014592:	f8d3 9004 	ldr.w	r9, [r3, #4]
 8014596:	e6aa      	b.n	80142ee <_malloc_r+0x10a>
 8014598:	f108 0801 	add.w	r8, r8, #1
 801459c:	3408      	adds	r4, #8
 801459e:	f018 0f03 	tst.w	r8, #3
 80145a2:	f47f aeba 	bne.w	801431a <_malloc_r+0x136>
 80145a6:	4649      	mov	r1, r9
 80145a8:	f01c 0f03 	tst.w	ip, #3
 80145ac:	f1a1 0408 	sub.w	r4, r1, #8
 80145b0:	f10c 3cff 	add.w	ip, ip, #4294967295
 80145b4:	f000 80b0 	beq.w	8014718 <_malloc_r+0x534>
 80145b8:	6809      	ldr	r1, [r1, #0]
 80145ba:	42a1      	cmp	r1, r4
 80145bc:	d0f4      	beq.n	80145a8 <_malloc_r+0x3c4>
 80145be:	687c      	ldr	r4, [r7, #4]
 80145c0:	0040      	lsls	r0, r0, #1
 80145c2:	42a0      	cmp	r0, r4
 80145c4:	f63f aef1 	bhi.w	80143aa <_malloc_r+0x1c6>
 80145c8:	2800      	cmp	r0, #0
 80145ca:	f43f aeee 	beq.w	80143aa <_malloc_r+0x1c6>
 80145ce:	4204      	tst	r4, r0
 80145d0:	f000 80a7 	beq.w	8014722 <_malloc_r+0x53e>
 80145d4:	46c4      	mov	ip, r8
 80145d6:	e69c      	b.n	8014312 <_malloc_r+0x12e>
 80145d8:	f104 0308 	add.w	r3, r4, #8
 80145dc:	6964      	ldr	r4, [r4, #20]
 80145de:	42a3      	cmp	r3, r4
 80145e0:	bf08      	it	eq
 80145e2:	f10c 0c02 	addeq.w	ip, ip, #2
 80145e6:	f43f ae58 	beq.w	801429a <_malloc_r+0xb6>
 80145ea:	e617      	b.n	801421c <_malloc_r+0x38>
 80145ec:	1859      	adds	r1, r3, r1
 80145ee:	461c      	mov	r4, r3
 80145f0:	6848      	ldr	r0, [r1, #4]
 80145f2:	68db      	ldr	r3, [r3, #12]
 80145f4:	f854 2f08 	ldr.w	r2, [r4, #8]!
 80145f8:	f040 0001 	orr.w	r0, r0, #1
 80145fc:	6048      	str	r0, [r1, #4]
 80145fe:	60d3      	str	r3, [r2, #12]
 8014600:	609a      	str	r2, [r3, #8]
 8014602:	4630      	mov	r0, r6
 8014604:	f000 fa32 	bl	8014a6c <__malloc_unlock>
 8014608:	e618      	b.n	801423c <_malloc_r+0x58>
 801460a:	f10c 0e5b 	add.w	lr, ip, #91	; 0x5b
 801460e:	ea4f 014e 	mov.w	r1, lr, lsl #1
 8014612:	e62c      	b.n	801426e <_malloc_r+0x8a>
 8014614:	ea4f 1891 	mov.w	r8, r1, lsr #6
 8014618:	f108 0938 	add.w	r9, r8, #56	; 0x38
 801461c:	ea4f 0249 	mov.w	r2, r9, lsl #1
 8014620:	e78c      	b.n	801453c <_malloc_r+0x358>
 8014622:	42bc      	cmp	r4, r7
 8014624:	f43f aeee 	beq.w	8014404 <_malloc_r+0x220>
 8014628:	4c42      	ldr	r4, [pc, #264]	; (8014734 <_malloc_r+0x550>)
 801462a:	68a4      	ldr	r4, [r4, #8]
 801462c:	6862      	ldr	r2, [r4, #4]
 801462e:	f022 0003 	bic.w	r0, r2, #3
 8014632:	e747      	b.n	80144c4 <_malloc_r+0x2e0>
 8014634:	f5bc 7faa 	cmp.w	ip, #340	; 0x154
 8014638:	d81c      	bhi.n	8014674 <_malloc_r+0x490>
 801463a:	ea4f 32d5 	mov.w	r2, r5, lsr #15
 801463e:	f102 0e77 	add.w	lr, r2, #119	; 0x77
 8014642:	ea4f 014e 	mov.w	r1, lr, lsl #1
 8014646:	e612      	b.n	801426e <_malloc_r+0x8a>
 8014648:	f44f 5280 	mov.w	r2, #4096	; 0x1000
 801464c:	e6f8      	b.n	8014440 <_malloc_r+0x25c>
 801464e:	f8d8 0004 	ldr.w	r0, [r8, #4]
 8014652:	ea4f 02a9 	mov.w	r2, r9, asr #2
 8014656:	2101      	movs	r1, #1
 8014658:	fa01 f202 	lsl.w	r2, r1, r2
 801465c:	ea42 0900 	orr.w	r9, r2, r0
 8014660:	f8c8 9004 	str.w	r9, [r8, #4]
 8014664:	461a      	mov	r2, r3
 8014666:	e77c      	b.n	8014562 <_malloc_r+0x37e>
 8014668:	2201      	movs	r2, #1
 801466a:	f8c8 2004 	str.w	r2, [r8, #4]
 801466e:	4644      	mov	r4, r8
 8014670:	2000      	movs	r0, #0
 8014672:	e727      	b.n	80144c4 <_malloc_r+0x2e0>
 8014674:	f240 5354 	movw	r3, #1364	; 0x554
 8014678:	459c      	cmp	ip, r3
 801467a:	d824      	bhi.n	80146c6 <_malloc_r+0x4e2>
 801467c:	ea4f 4095 	mov.w	r0, r5, lsr #18
 8014680:	f100 0e7c 	add.w	lr, r0, #124	; 0x7c
 8014684:	ea4f 014e 	mov.w	r1, lr, lsl #1
 8014688:	e5f1      	b.n	801426e <_malloc_r+0x8a>
 801468a:	f103 0c10 	add.w	ip, r3, #16
 801468e:	e6a9      	b.n	80143e4 <_malloc_r+0x200>
 8014690:	2854      	cmp	r0, #84	; 0x54
 8014692:	d82c      	bhi.n	80146ee <_malloc_r+0x50a>
 8014694:	ea4f 3211 	mov.w	r2, r1, lsr #12
 8014698:	f102 096e 	add.w	r9, r2, #110	; 0x6e
 801469c:	ea4f 0249 	mov.w	r2, r9, lsl #1
 80146a0:	e74c      	b.n	801453c <_malloc_r+0x358>
 80146a2:	68bc      	ldr	r4, [r7, #8]
 80146a4:	6861      	ldr	r1, [r4, #4]
 80146a6:	f021 0003 	bic.w	r0, r1, #3
 80146aa:	e70b      	b.n	80144c4 <_malloc_r+0x2e0>
 80146ac:	ea4f 500b 	mov.w	r0, fp, lsl #20
 80146b0:	0d01      	lsrs	r1, r0, #20
 80146b2:	2900      	cmp	r1, #0
 80146b4:	f47f aeb0 	bne.w	8014418 <_malloc_r+0x234>
 80146b8:	68b8      	ldr	r0, [r7, #8]
 80146ba:	eb0c 0109 	add.w	r1, ip, r9
 80146be:	f041 0401 	orr.w	r4, r1, #1
 80146c2:	6044      	str	r4, [r0, #4]
 80146c4:	e6f0      	b.n	80144a8 <_malloc_r+0x2c4>
 80146c6:	21fc      	movs	r1, #252	; 0xfc
 80146c8:	f04f 0e7e 	mov.w	lr, #126	; 0x7e
 80146cc:	e5cf      	b.n	801426e <_malloc_r+0x8a>
 80146ce:	481a      	ldr	r0, [pc, #104]	; (8014738 <_malloc_r+0x554>)
 80146d0:	f8c0 8000 	str.w	r8, [r0]
 80146d4:	e6a9      	b.n	801442a <_malloc_r+0x246>
 80146d6:	f104 0108 	add.w	r1, r4, #8
 80146da:	4c18      	ldr	r4, [pc, #96]	; (801473c <_malloc_r+0x558>)
 80146dc:	4630      	mov	r0, r6
 80146de:	f000 faab 	bl	8014c38 <_free_r>
 80146e2:	6823      	ldr	r3, [r4, #0]
 80146e4:	e6e0      	b.n	80144a8 <_malloc_r+0x2c4>
 80146e6:	2001      	movs	r0, #1
 80146e8:	f04f 0b00 	mov.w	fp, #0
 80146ec:	e6bb      	b.n	8014466 <_malloc_r+0x282>
 80146ee:	f5b0 7faa 	cmp.w	r0, #340	; 0x154
 80146f2:	d806      	bhi.n	8014702 <_malloc_r+0x51e>
 80146f4:	ea4f 33d1 	mov.w	r3, r1, lsr #15
 80146f8:	f103 0977 	add.w	r9, r3, #119	; 0x77
 80146fc:	ea4f 0249 	mov.w	r2, r9, lsl #1
 8014700:	e71c      	b.n	801453c <_malloc_r+0x358>
 8014702:	f240 5354 	movw	r3, #1364	; 0x554
 8014706:	4298      	cmp	r0, r3
 8014708:	d80f      	bhi.n	801472a <_malloc_r+0x546>
 801470a:	ea4f 4091 	mov.w	r0, r1, lsr #18
 801470e:	f100 097c 	add.w	r9, r0, #124	; 0x7c
 8014712:	ea4f 0249 	mov.w	r2, r9, lsl #1
 8014716:	e711      	b.n	801453c <_malloc_r+0x358>
 8014718:	687c      	ldr	r4, [r7, #4]
 801471a:	ea24 0400 	bic.w	r4, r4, r0
 801471e:	607c      	str	r4, [r7, #4]
 8014720:	e74e      	b.n	80145c0 <_malloc_r+0x3dc>
 8014722:	0040      	lsls	r0, r0, #1
 8014724:	f108 0804 	add.w	r8, r8, #4
 8014728:	e751      	b.n	80145ce <_malloc_r+0x3ea>
 801472a:	22fc      	movs	r2, #252	; 0xfc
 801472c:	f04f 097e 	mov.w	r9, #126	; 0x7e
 8014730:	e704      	b.n	801453c <_malloc_r+0x358>
 8014732:	bf00      	nop
 8014734:	10000454 	.word	0x10000454
 8014738:	10000860 	.word	0x10000860
 801473c:	10000df8 	.word	0x10000df8

08014740 <memcmp>:
 8014740:	2a03      	cmp	r2, #3
 8014742:	b4f0      	push	{r4, r5, r6, r7}
 8014744:	d931      	bls.n	80147aa <memcmp+0x6a>
 8014746:	ea41 0300 	orr.w	r3, r1, r0
 801474a:	079c      	lsls	r4, r3, #30
 801474c:	d12e      	bne.n	80147ac <memcmp+0x6c>
 801474e:	6806      	ldr	r6, [r0, #0]
 8014750:	680f      	ldr	r7, [r1, #0]
 8014752:	1f15      	subs	r5, r2, #4
 8014754:	1d03      	adds	r3, r0, #4
 8014756:	1d0c      	adds	r4, r1, #4
 8014758:	42be      	cmp	r6, r7
 801475a:	f3c5 0c80 	ubfx	ip, r5, #2, #1
 801475e:	d124      	bne.n	80147aa <memcmp+0x6a>
 8014760:	2d03      	cmp	r5, #3
 8014762:	462a      	mov	r2, r5
 8014764:	d91f      	bls.n	80147a6 <memcmp+0x66>
 8014766:	f1bc 0f00 	cmp.w	ip, #0
 801476a:	d008      	beq.n	801477e <memcmp+0x3e>
 801476c:	6825      	ldr	r5, [r4, #0]
 801476e:	681e      	ldr	r6, [r3, #0]
 8014770:	4621      	mov	r1, r4
 8014772:	4618      	mov	r0, r3
 8014774:	3404      	adds	r4, #4
 8014776:	3304      	adds	r3, #4
 8014778:	42ae      	cmp	r6, r5
 801477a:	d011      	beq.n	80147a0 <memcmp+0x60>
 801477c:	e015      	b.n	80147aa <memcmp+0x6a>
 801477e:	4618      	mov	r0, r3
 8014780:	4621      	mov	r1, r4
 8014782:	6823      	ldr	r3, [r4, #0]
 8014784:	6804      	ldr	r4, [r0, #0]
 8014786:	1d05      	adds	r5, r0, #4
 8014788:	1d0e      	adds	r6, r1, #4
 801478a:	429c      	cmp	r4, r3
 801478c:	d10d      	bne.n	80147aa <memcmp+0x6a>
 801478e:	4628      	mov	r0, r5
 8014790:	4631      	mov	r1, r6
 8014792:	6835      	ldr	r5, [r6, #0]
 8014794:	6806      	ldr	r6, [r0, #0]
 8014796:	3a04      	subs	r2, #4
 8014798:	1d03      	adds	r3, r0, #4
 801479a:	1d0c      	adds	r4, r1, #4
 801479c:	42ae      	cmp	r6, r5
 801479e:	d104      	bne.n	80147aa <memcmp+0x6a>
 80147a0:	3a04      	subs	r2, #4
 80147a2:	2a03      	cmp	r2, #3
 80147a4:	d8eb      	bhi.n	801477e <memcmp+0x3e>
 80147a6:	4621      	mov	r1, r4
 80147a8:	4618      	mov	r0, r3
 80147aa:	b31a      	cbz	r2, 80147f4 <memcmp+0xb4>
 80147ac:	7803      	ldrb	r3, [r0, #0]
 80147ae:	780c      	ldrb	r4, [r1, #0]
 80147b0:	42a3      	cmp	r3, r4
 80147b2:	d10a      	bne.n	80147ca <memcmp+0x8a>
 80147b4:	1e55      	subs	r5, r2, #1
 80147b6:	2200      	movs	r2, #0
 80147b8:	07eb      	lsls	r3, r5, #31
 80147ba:	d514      	bpl.n	80147e6 <memcmp+0xa6>
 80147bc:	f810 3f01 	ldrb.w	r3, [r0, #1]!
 80147c0:	f811 4f01 	ldrb.w	r4, [r1, #1]!
 80147c4:	2201      	movs	r2, #1
 80147c6:	42a3      	cmp	r3, r4
 80147c8:	d00d      	beq.n	80147e6 <memcmp+0xa6>
 80147ca:	1b18      	subs	r0, r3, r4
 80147cc:	e010      	b.n	80147f0 <memcmp+0xb0>
 80147ce:	f810 3f01 	ldrb.w	r3, [r0, #1]!
 80147d2:	f811 4f01 	ldrb.w	r4, [r1, #1]!
 80147d6:	42a3      	cmp	r3, r4
 80147d8:	d1f7      	bne.n	80147ca <memcmp+0x8a>
 80147da:	f810 3f01 	ldrb.w	r3, [r0, #1]!
 80147de:	f811 4f01 	ldrb.w	r4, [r1, #1]!
 80147e2:	42a3      	cmp	r3, r4
 80147e4:	d1f1      	bne.n	80147ca <memcmp+0x8a>
 80147e6:	42aa      	cmp	r2, r5
 80147e8:	f102 0202 	add.w	r2, r2, #2
 80147ec:	d1ef      	bne.n	80147ce <memcmp+0x8e>
 80147ee:	2000      	movs	r0, #0
 80147f0:	bcf0      	pop	{r4, r5, r6, r7}
 80147f2:	4770      	bx	lr
 80147f4:	4610      	mov	r0, r2
 80147f6:	e7fb      	b.n	80147f0 <memcmp+0xb0>

080147f8 <memcpy>:
 80147f8:	2a0f      	cmp	r2, #15
 80147fa:	e92d 03f0 	stmdb	sp!, {r4, r5, r6, r7, r8, r9}
 80147fe:	f240 8095 	bls.w	801492c <memcpy+0x134>
 8014802:	ea41 0300 	orr.w	r3, r1, r0
 8014806:	079b      	lsls	r3, r3, #30
 8014808:	f040 8092 	bne.w	8014930 <memcpy+0x138>
 801480c:	680c      	ldr	r4, [r1, #0]
 801480e:	6004      	str	r4, [r0, #0]
 8014810:	684d      	ldr	r5, [r1, #4]
 8014812:	6045      	str	r5, [r0, #4]
 8014814:	688e      	ldr	r6, [r1, #8]
 8014816:	f1a2 0310 	sub.w	r3, r2, #16
 801481a:	6086      	str	r6, [r0, #8]
 801481c:	68cc      	ldr	r4, [r1, #12]
 801481e:	461d      	mov	r5, r3
 8014820:	2d0f      	cmp	r5, #15
 8014822:	60c4      	str	r4, [r0, #12]
 8014824:	f3c3 1600 	ubfx	r6, r3, #4, #1
 8014828:	f101 0410 	add.w	r4, r1, #16
 801482c:	f100 0310 	add.w	r3, r0, #16
 8014830:	d922      	bls.n	8014878 <memcpy+0x80>
 8014832:	b166      	cbz	r6, 801484e <memcpy+0x56>
 8014834:	6826      	ldr	r6, [r4, #0]
 8014836:	601e      	str	r6, [r3, #0]
 8014838:	6866      	ldr	r6, [r4, #4]
 801483a:	605e      	str	r6, [r3, #4]
 801483c:	68a6      	ldr	r6, [r4, #8]
 801483e:	609e      	str	r6, [r3, #8]
 8014840:	68e6      	ldr	r6, [r4, #12]
 8014842:	3d10      	subs	r5, #16
 8014844:	60de      	str	r6, [r3, #12]
 8014846:	3410      	adds	r4, #16
 8014848:	3310      	adds	r3, #16
 801484a:	2d0f      	cmp	r5, #15
 801484c:	d914      	bls.n	8014878 <memcpy+0x80>
 801484e:	6826      	ldr	r6, [r4, #0]
 8014850:	601e      	str	r6, [r3, #0]
 8014852:	6866      	ldr	r6, [r4, #4]
 8014854:	605e      	str	r6, [r3, #4]
 8014856:	68a6      	ldr	r6, [r4, #8]
 8014858:	609e      	str	r6, [r3, #8]
 801485a:	68e6      	ldr	r6, [r4, #12]
 801485c:	60de      	str	r6, [r3, #12]
 801485e:	6926      	ldr	r6, [r4, #16]
 8014860:	611e      	str	r6, [r3, #16]
 8014862:	6966      	ldr	r6, [r4, #20]
 8014864:	615e      	str	r6, [r3, #20]
 8014866:	69a6      	ldr	r6, [r4, #24]
 8014868:	619e      	str	r6, [r3, #24]
 801486a:	69e6      	ldr	r6, [r4, #28]
 801486c:	3d20      	subs	r5, #32
 801486e:	61de      	str	r6, [r3, #28]
 8014870:	3420      	adds	r4, #32
 8014872:	3320      	adds	r3, #32
 8014874:	2d0f      	cmp	r5, #15
 8014876:	d8ea      	bhi.n	801484e <memcpy+0x56>
 8014878:	f1a2 0310 	sub.w	r3, r2, #16
 801487c:	f023 040f 	bic.w	r4, r3, #15
 8014880:	f002 030f 	and.w	r3, r2, #15
 8014884:	3410      	adds	r4, #16
 8014886:	2b03      	cmp	r3, #3
 8014888:	eb00 0804 	add.w	r8, r0, r4
 801488c:	4421      	add	r1, r4
 801488e:	d951      	bls.n	8014934 <memcpy+0x13c>
 8014890:	f1a3 0904 	sub.w	r9, r3, #4
 8014894:	460b      	mov	r3, r1
 8014896:	ea4f 0999 	mov.w	r9, r9, lsr #2
 801489a:	eb01 0c89 	add.w	ip, r1, r9, lsl #2
 801489e:	f853 6b04 	ldr.w	r6, [r3], #4
 80148a2:	ebc1 050c 	rsb	r5, r1, ip
 80148a6:	4644      	mov	r4, r8
 80148a8:	f10c 0c04 	add.w	ip, ip, #4
 80148ac:	4563      	cmp	r3, ip
 80148ae:	f844 6b04 	str.w	r6, [r4], #4
 80148b2:	f3c5 0580 	ubfx	r5, r5, #2, #1
 80148b6:	d012      	beq.n	80148de <memcpy+0xe6>
 80148b8:	b12d      	cbz	r5, 80148c6 <memcpy+0xce>
 80148ba:	f853 5b04 	ldr.w	r5, [r3], #4
 80148be:	4563      	cmp	r3, ip
 80148c0:	f844 5b04 	str.w	r5, [r4], #4
 80148c4:	d00b      	beq.n	80148de <memcpy+0xe6>
 80148c6:	461e      	mov	r6, r3
 80148c8:	4625      	mov	r5, r4
 80148ca:	f856 7b04 	ldr.w	r7, [r6], #4
 80148ce:	f845 7b04 	str.w	r7, [r5], #4
 80148d2:	685f      	ldr	r7, [r3, #4]
 80148d4:	1d33      	adds	r3, r6, #4
 80148d6:	6067      	str	r7, [r4, #4]
 80148d8:	1d2c      	adds	r4, r5, #4
 80148da:	4563      	cmp	r3, ip
 80148dc:	d1f3      	bne.n	80148c6 <memcpy+0xce>
 80148de:	f109 0301 	add.w	r3, r9, #1
 80148e2:	009c      	lsls	r4, r3, #2
 80148e4:	1909      	adds	r1, r1, r4
 80148e6:	f002 0203 	and.w	r2, r2, #3
 80148ea:	4444      	add	r4, r8
 80148ec:	b1da      	cbz	r2, 8014926 <memcpy+0x12e>
 80148ee:	4623      	mov	r3, r4
 80148f0:	780d      	ldrb	r5, [r1, #0]
 80148f2:	f803 5b01 	strb.w	r5, [r3], #1
 80148f6:	18a2      	adds	r2, r4, r2
 80148f8:	43e4      	mvns	r4, r4
 80148fa:	1914      	adds	r4, r2, r4
 80148fc:	4293      	cmp	r3, r2
 80148fe:	f004 0401 	and.w	r4, r4, #1
 8014902:	d010      	beq.n	8014926 <memcpy+0x12e>
 8014904:	b12c      	cbz	r4, 8014912 <memcpy+0x11a>
 8014906:	f811 4f01 	ldrb.w	r4, [r1, #1]!
 801490a:	f803 4b01 	strb.w	r4, [r3], #1
 801490e:	4293      	cmp	r3, r2
 8014910:	d009      	beq.n	8014926 <memcpy+0x12e>
 8014912:	784d      	ldrb	r5, [r1, #1]
 8014914:	461c      	mov	r4, r3
 8014916:	f804 5b01 	strb.w	r5, [r4], #1
 801491a:	788d      	ldrb	r5, [r1, #2]
 801491c:	705d      	strb	r5, [r3, #1]
 801491e:	1c63      	adds	r3, r4, #1
 8014920:	3102      	adds	r1, #2
 8014922:	4293      	cmp	r3, r2
 8014924:	d1f5      	bne.n	8014912 <memcpy+0x11a>
 8014926:	e8bd 03f0 	ldmia.w	sp!, {r4, r5, r6, r7, r8, r9}
 801492a:	4770      	bx	lr
 801492c:	4604      	mov	r4, r0
 801492e:	e7dd      	b.n	80148ec <memcpy+0xf4>
 8014930:	4604      	mov	r4, r0
 8014932:	e7dc      	b.n	80148ee <memcpy+0xf6>
 8014934:	4644      	mov	r4, r8
 8014936:	461a      	mov	r2, r3
 8014938:	e7d8      	b.n	80148ec <memcpy+0xf4>
 801493a:	bf00      	nop

0801493c <memset>:
 801493c:	b4f0      	push	{r4, r5, r6, r7}
 801493e:	0784      	lsls	r4, r0, #30
 8014940:	4603      	mov	r3, r0
 8014942:	f000 808e 	beq.w	8014a62 <memset+0x126>
 8014946:	1e54      	subs	r4, r2, #1
 8014948:	2a00      	cmp	r2, #0
 801494a:	f000 8088 	beq.w	8014a5e <memset+0x122>
 801494e:	07e5      	lsls	r5, r4, #31
 8014950:	b2ce      	uxtb	r6, r1
 8014952:	d411      	bmi.n	8014978 <memset+0x3c>
 8014954:	461a      	mov	r2, r3
 8014956:	1e67      	subs	r7, r4, #1
 8014958:	f802 6b01 	strb.w	r6, [r2], #1
 801495c:	4613      	mov	r3, r2
 801495e:	4615      	mov	r5, r2
 8014960:	0792      	lsls	r2, r2, #30
 8014962:	d00f      	beq.n	8014984 <memset+0x48>
 8014964:	2c00      	cmp	r4, #0
 8014966:	d07a      	beq.n	8014a5e <memset+0x122>
 8014968:	f803 6b01 	strb.w	r6, [r3], #1
 801496c:	079a      	lsls	r2, r3, #30
 801496e:	463c      	mov	r4, r7
 8014970:	461d      	mov	r5, r3
 8014972:	d007      	beq.n	8014984 <memset+0x48>
 8014974:	3c01      	subs	r4, #1
 8014976:	e7ed      	b.n	8014954 <memset+0x18>
 8014978:	4603      	mov	r3, r0
 801497a:	f803 6b01 	strb.w	r6, [r3], #1
 801497e:	079a      	lsls	r2, r3, #30
 8014980:	461d      	mov	r5, r3
 8014982:	d1f7      	bne.n	8014974 <memset+0x38>
 8014984:	2c03      	cmp	r4, #3
 8014986:	d952      	bls.n	8014a2e <memset+0xf2>
 8014988:	b2ce      	uxtb	r6, r1
 801498a:	ea46 2706 	orr.w	r7, r6, r6, lsl #8
 801498e:	2c0f      	cmp	r4, #15
 8014990:	ea47 4307 	orr.w	r3, r7, r7, lsl #16
 8014994:	d92d      	bls.n	80149f2 <memset+0xb6>
 8014996:	f1a4 0210 	sub.w	r2, r4, #16
 801499a:	4617      	mov	r7, r2
 801499c:	2f0f      	cmp	r7, #15
 801499e:	f3c2 1600 	ubfx	r6, r2, #4, #1
 80149a2:	602b      	str	r3, [r5, #0]
 80149a4:	606b      	str	r3, [r5, #4]
 80149a6:	60ab      	str	r3, [r5, #8]
 80149a8:	60eb      	str	r3, [r5, #12]
 80149aa:	f105 0210 	add.w	r2, r5, #16
 80149ae:	d916      	bls.n	80149de <memset+0xa2>
 80149b0:	b13e      	cbz	r6, 80149c2 <memset+0x86>
 80149b2:	3f10      	subs	r7, #16
 80149b4:	6013      	str	r3, [r2, #0]
 80149b6:	6053      	str	r3, [r2, #4]
 80149b8:	6093      	str	r3, [r2, #8]
 80149ba:	60d3      	str	r3, [r2, #12]
 80149bc:	3210      	adds	r2, #16
 80149be:	2f0f      	cmp	r7, #15
 80149c0:	d90d      	bls.n	80149de <memset+0xa2>
 80149c2:	3f20      	subs	r7, #32
 80149c4:	f102 0610 	add.w	r6, r2, #16
 80149c8:	6013      	str	r3, [r2, #0]
 80149ca:	6053      	str	r3, [r2, #4]
 80149cc:	6093      	str	r3, [r2, #8]
 80149ce:	60d3      	str	r3, [r2, #12]
 80149d0:	6113      	str	r3, [r2, #16]
 80149d2:	6153      	str	r3, [r2, #20]
 80149d4:	6193      	str	r3, [r2, #24]
 80149d6:	61d3      	str	r3, [r2, #28]
 80149d8:	3220      	adds	r2, #32
 80149da:	2f0f      	cmp	r7, #15
 80149dc:	d8f1      	bhi.n	80149c2 <memset+0x86>
 80149de:	f1a4 0210 	sub.w	r2, r4, #16
 80149e2:	f022 020f 	bic.w	r2, r2, #15
 80149e6:	f004 040f 	and.w	r4, r4, #15
 80149ea:	3210      	adds	r2, #16
 80149ec:	2c03      	cmp	r4, #3
 80149ee:	4415      	add	r5, r2
 80149f0:	d91d      	bls.n	8014a2e <memset+0xf2>
 80149f2:	1f27      	subs	r7, r4, #4
 80149f4:	463e      	mov	r6, r7
 80149f6:	462a      	mov	r2, r5
 80149f8:	2e03      	cmp	r6, #3
 80149fa:	f842 3b04 	str.w	r3, [r2], #4
 80149fe:	f3c7 0780 	ubfx	r7, r7, #2, #1
 8014a02:	d90d      	bls.n	8014a20 <memset+0xe4>
 8014a04:	b127      	cbz	r7, 8014a10 <memset+0xd4>
 8014a06:	3e04      	subs	r6, #4
 8014a08:	2e03      	cmp	r6, #3
 8014a0a:	f842 3b04 	str.w	r3, [r2], #4
 8014a0e:	d907      	bls.n	8014a20 <memset+0xe4>
 8014a10:	4617      	mov	r7, r2
 8014a12:	3e08      	subs	r6, #8
 8014a14:	f847 3b04 	str.w	r3, [r7], #4
 8014a18:	6053      	str	r3, [r2, #4]
 8014a1a:	1d3a      	adds	r2, r7, #4
 8014a1c:	2e03      	cmp	r6, #3
 8014a1e:	d8f7      	bhi.n	8014a10 <memset+0xd4>
 8014a20:	1f23      	subs	r3, r4, #4
 8014a22:	f023 0203 	bic.w	r2, r3, #3
 8014a26:	1d13      	adds	r3, r2, #4
 8014a28:	f004 0403 	and.w	r4, r4, #3
 8014a2c:	18ed      	adds	r5, r5, r3
 8014a2e:	b1b4      	cbz	r4, 8014a5e <memset+0x122>
 8014a30:	462b      	mov	r3, r5
 8014a32:	b2c9      	uxtb	r1, r1
 8014a34:	f803 1b01 	strb.w	r1, [r3], #1
 8014a38:	192c      	adds	r4, r5, r4
 8014a3a:	43ed      	mvns	r5, r5
 8014a3c:	1962      	adds	r2, r4, r5
 8014a3e:	42a3      	cmp	r3, r4
 8014a40:	f002 0501 	and.w	r5, r2, #1
 8014a44:	d00b      	beq.n	8014a5e <memset+0x122>
 8014a46:	b11d      	cbz	r5, 8014a50 <memset+0x114>
 8014a48:	f803 1b01 	strb.w	r1, [r3], #1
 8014a4c:	42a3      	cmp	r3, r4
 8014a4e:	d006      	beq.n	8014a5e <memset+0x122>
 8014a50:	461a      	mov	r2, r3
 8014a52:	f802 1b01 	strb.w	r1, [r2], #1
 8014a56:	7059      	strb	r1, [r3, #1]
 8014a58:	1c53      	adds	r3, r2, #1
 8014a5a:	42a3      	cmp	r3, r4
 8014a5c:	d1f8      	bne.n	8014a50 <memset+0x114>
 8014a5e:	bcf0      	pop	{r4, r5, r6, r7}
 8014a60:	4770      	bx	lr
 8014a62:	4605      	mov	r5, r0
 8014a64:	4614      	mov	r4, r2
 8014a66:	e78d      	b.n	8014984 <memset+0x48>

08014a68 <__malloc_lock>:
 8014a68:	4770      	bx	lr
 8014a6a:	bf00      	nop

08014a6c <__malloc_unlock>:
 8014a6c:	4770      	bx	lr
 8014a6e:	bf00      	nop

08014a70 <_sbrk_r>:
 8014a70:	b538      	push	{r3, r4, r5, lr}
 8014a72:	4c07      	ldr	r4, [pc, #28]	; (8014a90 <_sbrk_r+0x20>)
 8014a74:	2300      	movs	r3, #0
 8014a76:	4605      	mov	r5, r0
 8014a78:	4608      	mov	r0, r1
 8014a7a:	6023      	str	r3, [r4, #0]
 8014a7c:	f7f8 ff88 	bl	800d990 <_sbrk>
 8014a80:	1c43      	adds	r3, r0, #1
 8014a82:	d000      	beq.n	8014a86 <_sbrk_r+0x16>
 8014a84:	bd38      	pop	{r3, r4, r5, pc}
 8014a86:	6821      	ldr	r1, [r4, #0]
 8014a88:	2900      	cmp	r1, #0
 8014a8a:	d0fb      	beq.n	8014a84 <_sbrk_r+0x14>
 8014a8c:	6029      	str	r1, [r5, #0]
 8014a8e:	bd38      	pop	{r3, r4, r5, pc}
 8014a90:	10000e60 	.word	0x10000e60

08014a94 <strlen>:
 8014a94:	f020 0103 	bic.w	r1, r0, #3
 8014a98:	f010 0003 	ands.w	r0, r0, #3
 8014a9c:	f1c0 0000 	rsb	r0, r0, #0
 8014aa0:	f851 3b04 	ldr.w	r3, [r1], #4
 8014aa4:	f100 0c04 	add.w	ip, r0, #4
 8014aa8:	ea4f 0ccc 	mov.w	ip, ip, lsl #3
 8014aac:	f06f 0200 	mvn.w	r2, #0
 8014ab0:	bf1c      	itt	ne
 8014ab2:	fa22 f20c 	lsrne.w	r2, r2, ip
 8014ab6:	4313      	orrne	r3, r2
 8014ab8:	f04f 0c01 	mov.w	ip, #1
 8014abc:	ea4c 2c0c 	orr.w	ip, ip, ip, lsl #8
 8014ac0:	ea4c 4c0c 	orr.w	ip, ip, ip, lsl #16
 8014ac4:	eba3 020c 	sub.w	r2, r3, ip
 8014ac8:	ea22 0203 	bic.w	r2, r2, r3
 8014acc:	ea12 12cc 	ands.w	r2, r2, ip, lsl #7
 8014ad0:	bf04      	itt	eq
 8014ad2:	f851 3b04 	ldreq.w	r3, [r1], #4
 8014ad6:	3004      	addeq	r0, #4
 8014ad8:	d0f4      	beq.n	8014ac4 <strlen+0x30>
 8014ada:	f013 0fff 	tst.w	r3, #255	; 0xff
 8014ade:	bf1f      	itttt	ne
 8014ae0:	3001      	addne	r0, #1
 8014ae2:	f413 4f7f 	tstne.w	r3, #65280	; 0xff00
 8014ae6:	3001      	addne	r0, #1
 8014ae8:	f413 0f7f 	tstne.w	r3, #16711680	; 0xff0000
 8014aec:	bf18      	it	ne
 8014aee:	3001      	addne	r0, #1
 8014af0:	4770      	bx	lr
 8014af2:	bf00      	nop

08014af4 <__register_exitproc>:
 8014af4:	e92d 41f0 	stmdb	sp!, {r4, r5, r6, r7, r8, lr}
 8014af8:	4c27      	ldr	r4, [pc, #156]	; (8014b98 <__register_exitproc+0xa4>)
 8014afa:	6825      	ldr	r5, [r4, #0]
 8014afc:	f8d5 4148 	ldr.w	r4, [r5, #328]	; 0x148
 8014b00:	b084      	sub	sp, #16
 8014b02:	4607      	mov	r7, r0
 8014b04:	2c00      	cmp	r4, #0
 8014b06:	d041      	beq.n	8014b8c <__register_exitproc+0x98>
 8014b08:	6866      	ldr	r6, [r4, #4]
 8014b0a:	2e1f      	cmp	r6, #31
 8014b0c:	dd1c      	ble.n	8014b48 <__register_exitproc+0x54>
 8014b0e:	4823      	ldr	r0, [pc, #140]	; (8014b9c <__register_exitproc+0xa8>)
 8014b10:	b910      	cbnz	r0, 8014b18 <__register_exitproc+0x24>
 8014b12:	f04f 30ff 	mov.w	r0, #4294967295
 8014b16:	e01f      	b.n	8014b58 <__register_exitproc+0x64>
 8014b18:	f44f 70c8 	mov.w	r0, #400	; 0x190
 8014b1c:	9103      	str	r1, [sp, #12]
 8014b1e:	9202      	str	r2, [sp, #8]
 8014b20:	9301      	str	r3, [sp, #4]
 8014b22:	f7ff fb4f 	bl	80141c4 <malloc>
 8014b26:	9903      	ldr	r1, [sp, #12]
 8014b28:	9a02      	ldr	r2, [sp, #8]
 8014b2a:	9b01      	ldr	r3, [sp, #4]
 8014b2c:	4604      	mov	r4, r0
 8014b2e:	2800      	cmp	r0, #0
 8014b30:	d0ef      	beq.n	8014b12 <__register_exitproc+0x1e>
 8014b32:	f8d5 6148 	ldr.w	r6, [r5, #328]	; 0x148
 8014b36:	2000      	movs	r0, #0
 8014b38:	6060      	str	r0, [r4, #4]
 8014b3a:	6026      	str	r6, [r4, #0]
 8014b3c:	f8c5 4148 	str.w	r4, [r5, #328]	; 0x148
 8014b40:	f8c4 0188 	str.w	r0, [r4, #392]	; 0x188
 8014b44:	f8c4 018c 	str.w	r0, [r4, #396]	; 0x18c
 8014b48:	6865      	ldr	r5, [r4, #4]
 8014b4a:	b947      	cbnz	r7, 8014b5e <__register_exitproc+0x6a>
 8014b4c:	1ca8      	adds	r0, r5, #2
 8014b4e:	3501      	adds	r5, #1
 8014b50:	f844 1020 	str.w	r1, [r4, r0, lsl #2]
 8014b54:	6065      	str	r5, [r4, #4]
 8014b56:	2000      	movs	r0, #0
 8014b58:	b004      	add	sp, #16
 8014b5a:	e8bd 81f0 	ldmia.w	sp!, {r4, r5, r6, r7, r8, pc}
 8014b5e:	f8d4 6188 	ldr.w	r6, [r4, #392]	; 0x188
 8014b62:	2001      	movs	r0, #1
 8014b64:	eb04 0885 	add.w	r8, r4, r5, lsl #2
 8014b68:	fa00 f005 	lsl.w	r0, r0, r5
 8014b6c:	4306      	orrs	r6, r0
 8014b6e:	2f02      	cmp	r7, #2
 8014b70:	f8c8 2088 	str.w	r2, [r8, #136]	; 0x88
 8014b74:	f8c4 6188 	str.w	r6, [r4, #392]	; 0x188
 8014b78:	f8c8 3108 	str.w	r3, [r8, #264]	; 0x108
 8014b7c:	d1e6      	bne.n	8014b4c <__register_exitproc+0x58>
 8014b7e:	f8d4 318c 	ldr.w	r3, [r4, #396]	; 0x18c
 8014b82:	ea43 0200 	orr.w	r2, r3, r0
 8014b86:	f8c4 218c 	str.w	r2, [r4, #396]	; 0x18c
 8014b8a:	e7df      	b.n	8014b4c <__register_exitproc+0x58>
 8014b8c:	f505 74a6 	add.w	r4, r5, #332	; 0x14c
 8014b90:	f8c5 4148 	str.w	r4, [r5, #328]	; 0x148
 8014b94:	e7b8      	b.n	8014b08 <__register_exitproc+0x14>
 8014b96:	bf00      	nop
 8014b98:	08018dbc 	.word	0x08018dbc
 8014b9c:	080141c5 	.word	0x080141c5

08014ba0 <_malloc_trim_r>:
 8014ba0:	b5f8      	push	{r3, r4, r5, r6, r7, lr}
 8014ba2:	4d22      	ldr	r5, [pc, #136]	; (8014c2c <_malloc_trim_r+0x8c>)
 8014ba4:	460f      	mov	r7, r1
 8014ba6:	4604      	mov	r4, r0
 8014ba8:	f7ff ff5e 	bl	8014a68 <__malloc_lock>
 8014bac:	68ab      	ldr	r3, [r5, #8]
 8014bae:	685e      	ldr	r6, [r3, #4]
 8014bb0:	f026 0603 	bic.w	r6, r6, #3
 8014bb4:	f606 70ef 	addw	r0, r6, #4079	; 0xfef
 8014bb8:	1bc1      	subs	r1, r0, r7
 8014bba:	0b0a      	lsrs	r2, r1, #12
 8014bbc:	1e57      	subs	r7, r2, #1
 8014bbe:	033f      	lsls	r7, r7, #12
 8014bc0:	f5b7 5f80 	cmp.w	r7, #4096	; 0x1000
 8014bc4:	db07      	blt.n	8014bd6 <_malloc_trim_r+0x36>
 8014bc6:	2100      	movs	r1, #0
 8014bc8:	4620      	mov	r0, r4
 8014bca:	f7ff ff51 	bl	8014a70 <_sbrk_r>
 8014bce:	68ab      	ldr	r3, [r5, #8]
 8014bd0:	1999      	adds	r1, r3, r6
 8014bd2:	4288      	cmp	r0, r1
 8014bd4:	d004      	beq.n	8014be0 <_malloc_trim_r+0x40>
 8014bd6:	4620      	mov	r0, r4
 8014bd8:	f7ff ff48 	bl	8014a6c <__malloc_unlock>
 8014bdc:	2000      	movs	r0, #0
 8014bde:	bdf8      	pop	{r3, r4, r5, r6, r7, pc}
 8014be0:	4279      	negs	r1, r7
 8014be2:	4620      	mov	r0, r4
 8014be4:	f7ff ff44 	bl	8014a70 <_sbrk_r>
 8014be8:	3001      	adds	r0, #1
 8014bea:	d00d      	beq.n	8014c08 <_malloc_trim_r+0x68>
 8014bec:	4b10      	ldr	r3, [pc, #64]	; (8014c30 <_malloc_trim_r+0x90>)
 8014bee:	68a8      	ldr	r0, [r5, #8]
 8014bf0:	681a      	ldr	r2, [r3, #0]
 8014bf2:	1bf6      	subs	r6, r6, r7
 8014bf4:	f046 0601 	orr.w	r6, r6, #1
 8014bf8:	1bd7      	subs	r7, r2, r7
 8014bfa:	6046      	str	r6, [r0, #4]
 8014bfc:	4620      	mov	r0, r4
 8014bfe:	601f      	str	r7, [r3, #0]
 8014c00:	f7ff ff34 	bl	8014a6c <__malloc_unlock>
 8014c04:	2001      	movs	r0, #1
 8014c06:	bdf8      	pop	{r3, r4, r5, r6, r7, pc}
 8014c08:	2100      	movs	r1, #0
 8014c0a:	4620      	mov	r0, r4
 8014c0c:	f7ff ff30 	bl	8014a70 <_sbrk_r>
 8014c10:	68ab      	ldr	r3, [r5, #8]
 8014c12:	1ac2      	subs	r2, r0, r3
 8014c14:	2a0f      	cmp	r2, #15
 8014c16:	ddde      	ble.n	8014bd6 <_malloc_trim_r+0x36>
 8014c18:	4906      	ldr	r1, [pc, #24]	; (8014c34 <_malloc_trim_r+0x94>)
 8014c1a:	6809      	ldr	r1, [r1, #0]
 8014c1c:	1a40      	subs	r0, r0, r1
 8014c1e:	4904      	ldr	r1, [pc, #16]	; (8014c30 <_malloc_trim_r+0x90>)
 8014c20:	f042 0201 	orr.w	r2, r2, #1
 8014c24:	6008      	str	r0, [r1, #0]
 8014c26:	605a      	str	r2, [r3, #4]
 8014c28:	e7d5      	b.n	8014bd6 <_malloc_trim_r+0x36>
 8014c2a:	bf00      	nop
 8014c2c:	10000454 	.word	0x10000454
 8014c30:	10000df8 	.word	0x10000df8
 8014c34:	10000860 	.word	0x10000860

08014c38 <_free_r>:
 8014c38:	e92d 41f0 	stmdb	sp!, {r4, r5, r6, r7, r8, lr}
 8014c3c:	460d      	mov	r5, r1
 8014c3e:	4606      	mov	r6, r0
 8014c40:	2900      	cmp	r1, #0
 8014c42:	d055      	beq.n	8014cf0 <_free_r+0xb8>
 8014c44:	f7ff ff10 	bl	8014a68 <__malloc_lock>
 8014c48:	f855 1c04 	ldr.w	r1, [r5, #-4]
 8014c4c:	f8df c16c 	ldr.w	ip, [pc, #364]	; 8014dbc <_free_r+0x184>
 8014c50:	f1a5 0408 	sub.w	r4, r5, #8
 8014c54:	f021 0301 	bic.w	r3, r1, #1
 8014c58:	18e2      	adds	r2, r4, r3
 8014c5a:	f8dc 0008 	ldr.w	r0, [ip, #8]
 8014c5e:	6857      	ldr	r7, [r2, #4]
 8014c60:	4290      	cmp	r0, r2
 8014c62:	f027 0703 	bic.w	r7, r7, #3
 8014c66:	d065      	beq.n	8014d34 <_free_r+0xfc>
 8014c68:	f011 0101 	ands.w	r1, r1, #1
 8014c6c:	6057      	str	r7, [r2, #4]
 8014c6e:	d032      	beq.n	8014cd6 <_free_r+0x9e>
 8014c70:	2100      	movs	r1, #0
 8014c72:	19d0      	adds	r0, r2, r7
 8014c74:	6840      	ldr	r0, [r0, #4]
 8014c76:	07c0      	lsls	r0, r0, #31
 8014c78:	d406      	bmi.n	8014c88 <_free_r+0x50>
 8014c7a:	19db      	adds	r3, r3, r7
 8014c7c:	6890      	ldr	r0, [r2, #8]
 8014c7e:	2900      	cmp	r1, #0
 8014c80:	d04a      	beq.n	8014d18 <_free_r+0xe0>
 8014c82:	68d2      	ldr	r2, [r2, #12]
 8014c84:	60c2      	str	r2, [r0, #12]
 8014c86:	6090      	str	r0, [r2, #8]
 8014c88:	f043 0001 	orr.w	r0, r3, #1
 8014c8c:	6060      	str	r0, [r4, #4]
 8014c8e:	50e3      	str	r3, [r4, r3]
 8014c90:	b9e1      	cbnz	r1, 8014ccc <_free_r+0x94>
 8014c92:	f5b3 7f00 	cmp.w	r3, #512	; 0x200
 8014c96:	d32d      	bcc.n	8014cf4 <_free_r+0xbc>
 8014c98:	0a5a      	lsrs	r2, r3, #9
 8014c9a:	2a04      	cmp	r2, #4
 8014c9c:	d866      	bhi.n	8014d6c <_free_r+0x134>
 8014c9e:	0998      	lsrs	r0, r3, #6
 8014ca0:	3038      	adds	r0, #56	; 0x38
 8014ca2:	0042      	lsls	r2, r0, #1
 8014ca4:	eb0c 0e82 	add.w	lr, ip, r2, lsl #2
 8014ca8:	4944      	ldr	r1, [pc, #272]	; (8014dbc <_free_r+0x184>)
 8014caa:	f8de 2008 	ldr.w	r2, [lr, #8]
 8014cae:	4572      	cmp	r2, lr
 8014cb0:	d062      	beq.n	8014d78 <_free_r+0x140>
 8014cb2:	6850      	ldr	r0, [r2, #4]
 8014cb4:	f020 0103 	bic.w	r1, r0, #3
 8014cb8:	428b      	cmp	r3, r1
 8014cba:	d202      	bcs.n	8014cc2 <_free_r+0x8a>
 8014cbc:	6892      	ldr	r2, [r2, #8]
 8014cbe:	4596      	cmp	lr, r2
 8014cc0:	d1f7      	bne.n	8014cb2 <_free_r+0x7a>
 8014cc2:	68d0      	ldr	r0, [r2, #12]
 8014cc4:	60e0      	str	r0, [r4, #12]
 8014cc6:	60a2      	str	r2, [r4, #8]
 8014cc8:	60d4      	str	r4, [r2, #12]
 8014cca:	6084      	str	r4, [r0, #8]
 8014ccc:	4630      	mov	r0, r6
 8014cce:	e8bd 41f0 	ldmia.w	sp!, {r4, r5, r6, r7, r8, lr}
 8014cd2:	f7ff becb 	b.w	8014a6c <__malloc_unlock>
 8014cd6:	f855 5c08 	ldr.w	r5, [r5, #-8]
 8014cda:	1b64      	subs	r4, r4, r5
 8014cdc:	f10c 0808 	add.w	r8, ip, #8
 8014ce0:	68a0      	ldr	r0, [r4, #8]
 8014ce2:	4540      	cmp	r0, r8
 8014ce4:	442b      	add	r3, r5
 8014ce6:	d03f      	beq.n	8014d68 <_free_r+0x130>
 8014ce8:	68e5      	ldr	r5, [r4, #12]
 8014cea:	60c5      	str	r5, [r0, #12]
 8014cec:	60a8      	str	r0, [r5, #8]
 8014cee:	e7c0      	b.n	8014c72 <_free_r+0x3a>
 8014cf0:	e8bd 81f0 	ldmia.w	sp!, {r4, r5, r6, r7, r8, pc}
 8014cf4:	08dd      	lsrs	r5, r3, #3
 8014cf6:	eb0c 02c5 	add.w	r2, ip, r5, lsl #3
 8014cfa:	f8dc 0004 	ldr.w	r0, [ip, #4]
 8014cfe:	6891      	ldr	r1, [r2, #8]
 8014d00:	60e2      	str	r2, [r4, #12]
 8014d02:	10ab      	asrs	r3, r5, #2
 8014d04:	2501      	movs	r5, #1
 8014d06:	fa05 f303 	lsl.w	r3, r5, r3
 8014d0a:	4318      	orrs	r0, r3
 8014d0c:	60a1      	str	r1, [r4, #8]
 8014d0e:	f8cc 0004 	str.w	r0, [ip, #4]
 8014d12:	6094      	str	r4, [r2, #8]
 8014d14:	60cc      	str	r4, [r1, #12]
 8014d16:	e7d9      	b.n	8014ccc <_free_r+0x94>
 8014d18:	4d29      	ldr	r5, [pc, #164]	; (8014dc0 <_free_r+0x188>)
 8014d1a:	42a8      	cmp	r0, r5
 8014d1c:	d1b1      	bne.n	8014c82 <_free_r+0x4a>
 8014d1e:	f043 0201 	orr.w	r2, r3, #1
 8014d22:	f8cc 4014 	str.w	r4, [ip, #20]
 8014d26:	f8cc 4010 	str.w	r4, [ip, #16]
 8014d2a:	60e0      	str	r0, [r4, #12]
 8014d2c:	60a0      	str	r0, [r4, #8]
 8014d2e:	6062      	str	r2, [r4, #4]
 8014d30:	50e3      	str	r3, [r4, r3]
 8014d32:	e7cb      	b.n	8014ccc <_free_r+0x94>
 8014d34:	18ff      	adds	r7, r7, r3
 8014d36:	07cb      	lsls	r3, r1, #31
 8014d38:	d407      	bmi.n	8014d4a <_free_r+0x112>
 8014d3a:	f855 1c08 	ldr.w	r1, [r5, #-8]
 8014d3e:	1a64      	subs	r4, r4, r1
 8014d40:	187f      	adds	r7, r7, r1
 8014d42:	68e3      	ldr	r3, [r4, #12]
 8014d44:	68a0      	ldr	r0, [r4, #8]
 8014d46:	60c3      	str	r3, [r0, #12]
 8014d48:	6098      	str	r0, [r3, #8]
 8014d4a:	4a1e      	ldr	r2, [pc, #120]	; (8014dc4 <_free_r+0x18c>)
 8014d4c:	f8cc 4008 	str.w	r4, [ip, #8]
 8014d50:	6811      	ldr	r1, [r2, #0]
 8014d52:	f047 0301 	orr.w	r3, r7, #1
 8014d56:	428f      	cmp	r7, r1
 8014d58:	6063      	str	r3, [r4, #4]
 8014d5a:	d3b7      	bcc.n	8014ccc <_free_r+0x94>
 8014d5c:	4a1a      	ldr	r2, [pc, #104]	; (8014dc8 <_free_r+0x190>)
 8014d5e:	4630      	mov	r0, r6
 8014d60:	6811      	ldr	r1, [r2, #0]
 8014d62:	f7ff ff1d 	bl	8014ba0 <_malloc_trim_r>
 8014d66:	e7b1      	b.n	8014ccc <_free_r+0x94>
 8014d68:	2101      	movs	r1, #1
 8014d6a:	e782      	b.n	8014c72 <_free_r+0x3a>
 8014d6c:	2a14      	cmp	r2, #20
 8014d6e:	d80c      	bhi.n	8014d8a <_free_r+0x152>
 8014d70:	f102 005b 	add.w	r0, r2, #91	; 0x5b
 8014d74:	0042      	lsls	r2, r0, #1
 8014d76:	e795      	b.n	8014ca4 <_free_r+0x6c>
 8014d78:	684b      	ldr	r3, [r1, #4]
 8014d7a:	1080      	asrs	r0, r0, #2
 8014d7c:	2501      	movs	r5, #1
 8014d7e:	fa05 f000 	lsl.w	r0, r5, r0
 8014d82:	4303      	orrs	r3, r0
 8014d84:	604b      	str	r3, [r1, #4]
 8014d86:	4610      	mov	r0, r2
 8014d88:	e79c      	b.n	8014cc4 <_free_r+0x8c>
 8014d8a:	2a54      	cmp	r2, #84	; 0x54
 8014d8c:	d803      	bhi.n	8014d96 <_free_r+0x15e>
 8014d8e:	0b18      	lsrs	r0, r3, #12
 8014d90:	306e      	adds	r0, #110	; 0x6e
 8014d92:	0042      	lsls	r2, r0, #1
 8014d94:	e786      	b.n	8014ca4 <_free_r+0x6c>
 8014d96:	f5b2 7faa 	cmp.w	r2, #340	; 0x154
 8014d9a:	d803      	bhi.n	8014da4 <_free_r+0x16c>
 8014d9c:	0bd8      	lsrs	r0, r3, #15
 8014d9e:	3077      	adds	r0, #119	; 0x77
 8014da0:	0042      	lsls	r2, r0, #1
 8014da2:	e77f      	b.n	8014ca4 <_free_r+0x6c>
 8014da4:	f240 5154 	movw	r1, #1364	; 0x554
 8014da8:	428a      	cmp	r2, r1
 8014daa:	d803      	bhi.n	8014db4 <_free_r+0x17c>
 8014dac:	0c98      	lsrs	r0, r3, #18
 8014dae:	307c      	adds	r0, #124	; 0x7c
 8014db0:	0042      	lsls	r2, r0, #1
 8014db2:	e777      	b.n	8014ca4 <_free_r+0x6c>
 8014db4:	22fc      	movs	r2, #252	; 0xfc
 8014db6:	207e      	movs	r0, #126	; 0x7e
 8014db8:	e774      	b.n	8014ca4 <_free_r+0x6c>
 8014dba:	bf00      	nop
 8014dbc:	10000454 	.word	0x10000454
 8014dc0:	1000045c 	.word	0x1000045c
 8014dc4:	1000085c 	.word	0x1000085c
 8014dc8:	10000df4 	.word	0x10000df4
 8014dcc:	6e797376 	.word	0x6e797376
 8014dd0:	65745f63 	.word	0x65745f63
 8014dd4:	5f6d656c 	.word	0x5f6d656c
 8014dd8:	745f7872 	.word	0x745f7872
 8014ddc:	006b7361 	.word	0x006b7361
 8014de0:	77617264 	.word	0x77617264
 8014de4:	7361745f 	.word	0x7361745f
 8014de8:	0000006b 	.word	0x0000006b
 8014dec:	6c6c6548 	.word	0x6c6c6548
 8014df0:	6f57206f 	.word	0x6f57206f
 8014df4:	00646c72 	.word	0x00646c72

08014df8 <_ZN12_GLOBAL__N_1L12gpioc_unusedE>:
 8014df8:	00000000 00000001 00000003 00000004     ................
 8014e08:	00000005 00000009 0000000c 0000000e     ................
 8014e18:	0000000f                                ....

08014e1c <_ZN12_GLOBAL__N_1L12gpioa_unusedE>:
 8014e1c:	00000000 00000001 00000005 00000008     ................
 8014e2c:	0000000b 0000000c 0000000d 0000000e     ................

08014e3c <_ZN12_GLOBAL__N_1L12gpiob_unusedE>:
 8014e3c:	00000003 00000004 00000005 00000006     ................
 8014e4c:	00000007 00000008 00000009 63617274     ............trac
 8014e5c:	5f72656b 65646f6d 00000000 63206e69     ker_mode....in c
 8014e6c:	696c646d 6d20656e 0a65646f 00000000     mdline mode.....
 8014e7c:	20746f6e 6c646d63 20656e69 65646f6d     not cmdline mode
 8014e8c:	0000000a                                ....

08014e90 <ucExpectedStackBytes.5286>:
 8014e90:	a5a5a5a5 a5a5a5a5 a5a5a5a5 a5a5a5a5     ................
 8014ea0:	a5a5a5a5 454c4449 00000000 51726d54     ....IDLE....TmrQ
 8014eb0:	00000000 20726d54 00637653 00000000     ....Tmr Svc.....

08014ec0 <_ZTVN4quan3uav3osd12basic_bitmapE>:
	...
 8014ec8:	0800d9bd 0800d9bd 0800f9ad 08012409     .............$..

08014ed8 <_ZTVN4quan3uav3osd10basic_fontE>:
	...
 8014ee0:	0800d9bd 0800d9bd 0800d9bd 0800d9bd     ................
 8014ef0:	0800d9bd 0800f9b9 080123f5 00000000     .........#......

08014f00 <_ZN12_GLOBAL__N_124font_OSD_Charset_84_type6m_dataE>:
 8014f00:	ffffffff aaafffff e5555bfa afe5555b     .........[U.[U..
 8014f10:	96fffa96 ff96ffff ffff96ff 96ffff96     ................
 8014f20:	ff96ffff ffff96ff 96ffff96 ff96ffff     ................
 8014f30:	ffff96ff 0000ffeb                       ........

08014f38 <_ZN12_GLOBAL__N_118font_MWOSD_67_type6m_dataE>:
 8014f38:	ffffffff ffffffff ffffffff ffffaaff     ................
 8014f48:	69bffe55 ffb9bffe bffff9bf b9bffff9     U..i............
 8014f58:	fe69bfff fffe55ff ffffffaa ffffffff     ..i..U..........
 8014f68:	ffffffff 0000ffff                       ........

08014f70 <_ZTVN12_GLOBAL__N_125font_OSD_Charset_105_typeE>:
	...
 8014f78:	080100a9 0801009d 0801117d 08011e2d     ........}...-...

08014f88 <_ZN12_GLOBAL__N_124font_OSD_Charset_75_type6m_dataE>:
 8014f88:	ffffffff ffafffff fafe5bff 5be5be5b     .........[..[..[
 8014f98:	5a5be56e fe565bf9 5bff955b f95bffe5     n.[Z.[V.[..[..[.
 8014fa8:	ffe55bff 5bff955b 5a5bfe56 e56e5bf9     .[..[..[V.[Z.[n.
 8014fb8:	afe5be5b 0000faff                       [.......

08014fc0 <_ZTVN12_GLOBAL__N_119font_MWOSD_126_typeE>:
	...
 8014fc8:	08010bb9 08010bad 08010c01 08011509     ................

08014fd8 <_ZTVN12_GLOBAL__N_119font_MWOSD_104_typeE>:
	...
 8014fe0:	080109a9 0801099d 08010d09 080116c1     ................

08014ff0 <_ZTVN12_GLOBAL__N_118font_MWOSD_53_typeE>:
	...
 8014ff8:	080104e1 080104d5 08010f6d 08011abd     ........m.......

08015008 <_ZTVN12_GLOBAL__N_118font_MWOSD_33_typeE>:
	...
 8015010:	08010301 080102f5 0801105d 08011c4d     ........]...M...

08015020 <_ZN12_GLOBAL__N_124font_OSD_Charset_47_type6m_dataE>:
 8015020:	ffffffff ffffffff ffffffff ffebffff     ................
 8015030:	bfff96ff e56fff95 fff95bff 95bffe56     ......o..[..V...
 8015040:	ffe56fff 56fff95b ff96fffe ffffebff     .o..[..V........
 8015050:	ffffffff 0000ffff                       ........

08015058 <_ZN12_GLOBAL__N_124font_OSD_Charset_89_type6m_dataE>:
 8015058:	ffffffff ffafffff e5be5bfa 5be5be5b     .........[..[..[
 8015068:	be5be5be e5be5be5 6fe5695b 55bff955     ..[..[..[i.oU..U
 8015078:	ff96fffe ffff96ff 96ffff96 ff96ffff     ................
 8015088:	ffff96ff 0000ffeb                       ........

08015090 <_ZN12_GLOBAL__N_124font_OSD_Charset_39_type6m_dataE>:
 8015090:	ffffffff 9bffffef fe56ffff fffe5bff     ..........V..[..
 80150a0:	6ffffe6f ff9bfffe ffffefff ffffffff     o..o............
 80150b0:	ffffffff ffffffff ffffffff ffffffff     ................
 80150c0:	ffffffff 0000ffff                       ........

080150c8 <_ZN12_GLOBAL__N_118font_MWOSD_71_type6m_dataE>:
 80150c8:	ffffffff ffffffff ffffffff bfffaaff     ................
 80150d8:	69bffe55 ffa9bffe bfffa9bf 69bffe59     U..i........Y..i
 80150e8:	fe69bffe fffe55bf ffffffaa ffffffff     ..i..U..........
 80150f8:	ffffffff 0000ffff                       ........

08015100 <_ZTVN12_GLOBAL__N_124font_OSD_Charset_93_typeE>:
	...
 8015108:	0800ff89 0800ff7d 0801120d 08011f1d     ....}...........

08015118 <_ZTVN12_GLOBAL__N_124font_OSD_Charset_65_typeE>:
	...
 8015120:	0800fce9 0800fcdd 0801135d 0801214d     ........]...M!..

08015130 <_ZTVN12_GLOBAL__N_118font_MWOSD_83_typeE>:
	...
 8015138:	080107b1 080107a5 08010e05 08011865     ............e...

08015148 <_ZTVN12_GLOBAL__N_124font_OSD_Charset_37_typeE>:
	...
 8015150:	0800fa49 0800fa3d 080114ad 0801237d     I...=.......}#..

08015160 <_ZTVN12_GLOBAL__N_118font_MWOSD_55_typeE>:
	...
 8015168:	08010511 08010505 08010f55 08011a95     ........U.......

08015178 <_ZTVN12_GLOBAL__N_124font_OSD_Charset_57_typeE>:
	...
 8015180:	0800fc29 0800fc1d 080113bd 080121ed     )............!..

08015190 <_ZN12_GLOBAL__N_118font_MWOSD_64_type6m_dataE>:
 8015190:	ffffffff aaffffff fe55bfff 9bf9aa6f     ..........U.o...
 80151a0:	65a6e6aa 9a5a669a 669a6a66 65a69a5a     ...e.fZ.fj.fZ..e
 80151b0:	e9aaa6a6 6bfaba9a 55afe6aa faaabfe9     .......k...U....
 80151c0:	ffffffff 0000ffff                       ........

080151c8 <_ZTVN12_GLOBAL__N_118font_MWOSD_79_typeE>:
	...
 80151d0:	08010751 08010745 08010e35 080118b5     Q...E...5.......

080151e0 <_ZTVN12_GLOBAL__N_124font_OSD_Charset_95_typeE>:
	...
 80151e8:	0800ffb9 0800ffad 080111f5 08011ef5     ................

080151f8 <_ZTVN12_GLOBAL__N_125font_OSD_Charset_122_typeE>:
	...
 8015200:	08010241 08010235 080110b1 08011cd9     A...5...........

08015210 <_ZTVN12_GLOBAL__N_124font_OSD_Charset_41_typeE>:
	...
 8015218:	0800faa9 0800fa9d 0801147d 0801232d     ........}...-#..

08015228 <_ZN12_GLOBAL__N_118font_MWOSD_53_type6m_dataE>:
 8015228:	ffffffff ffffffff ffffffff bfffaaff     ................
 8015238:	a9bffe55 ffa9bfff fffe55bf 6efffe6a     U........U..j..n
 8015248:	fe69bffe fffe55bf ffffffaa ffffffff     ..i..U..........
 8015258:	ffffffff 0000ffff                       ........

08015260 <_ZTVN12_GLOBAL__N_119font_MWOSD_121_typeE>:
	...
 8015268:	08010b41 08010b35 08010c3d 0801156d     A...5...=...m...

08015278 <_ZN12_GLOBAL__N_118font_MWOSD_96_type6m_dataE>:
 8015278:	ffffffff ffffffff ffebffff ffff96ff     ................
 8015288:	96ffff96 ff96ffff 56ea96ab 555b9555     ...........VU.[U
 8015298:	f9556fe5 fffe55bf ebffff96 ffffffff     .oU..U..........
 80152a8:	ffffffff 0000ffff                       ........

080152b0 <_ZTVN12_GLOBAL__N_118font_MWOSD_70_typeE>:
	...
 80152b8:	08010679 0801066d 08010ea1 08011969     y...m.......i...

080152c8 <_ZTVN12_GLOBAL__N_119font_MWOSD_117_typeE>:
	...
 80152d0:	08010ae1 08010ad5 08010c6d 080115bd     ........m.......

080152e0 <_ZN12_GLOBAL__N_118font_MWOSD_55_type6m_dataE>:
 80152e0:	ffffffff ffffffff ffffffff bffeaaff     ................
 80152f0:	aafff955 fe6ffff9 fffe6fff 9bffff9b     U.....o..o......
 8015300:	ffe6ffff ffffe6ff fffffffb ffffffff     ................
 8015310:	ffffffff 0000ffff                       ........

08015318 <_ZN12_GLOBAL__N_118font_MWOSD_98_type6m_dataE>:
 8015318:	ffffffff ffffffff ffffefff 56fbff9b     ...............V
 8015328:	b95be6fe e5656fe5 ffe555bf 55bfe556     ..[..oe..U..V..U
 8015338:	e5556fe5 afe5555b fffffaaa ffffffff     .oU.[U..........
 8015348:	ffffffff 0000ffff                       ........

08015350 <_ZTVN12_GLOBAL__N_124font_OSD_Charset_82_typeE>:
	...
 8015358:	0800fe81 0800fe75 08011291 08011ff9     ....u...........

08015368 <_ZTVN12_GLOBAL__N_124font_OSD_Charset_54_typeE>:
	...
 8015370:	0800fbe1 0800fbd5 080113e1 08012229     ............)"..

08015380 <_ZTVN12_GLOBAL__N_118font_MWOSD_72_typeE>:
	...
 8015388:	080106a9 0801069d 08010e89 08011941     ............A...

08015398 <_ZTVN12_GLOBAL__N_124font_OSD_Charset_78_typeE>:
	...
 80153a0:	0800fe21 0800fe15 080112c1 08012049     !...........I ..

080153b0 <_ZTVN12_GLOBAL__N_118font_MWOSD_96_typeE>:
	...
 80153b8:	080108e9 080108dd 08010d69 08011761     ........i...a...

080153c8 <_ZTVN12_GLOBAL__N_119font_MWOSD_107_typeE>:
	...
 80153d0:	080109f1 080109e5 08010ce5 08011685     ................

080153e0 <_ZTVN12_GLOBAL__N_118font_MWOSD_68_typeE>:
	...
 80153e8:	08010649 0801063d 08010eb9 08011991     I...=...........

080153f8 <_ZTVN12_GLOBAL__N_125font_OSD_Charset_119_typeE>:
	...
 8015400:	080101f9 080101ed 080110d5 08011d15     ................

08015410 <_ZTVN12_GLOBAL__N_125font_OSD_Charset_110_typeE>:
	...
 8015418:	08010121 08010115 08011141 08011dc9     !.......A.......

08015428 <_ZTVN12_GLOBAL__N_119font_MWOSD_110_typeE>:
	...
 8015430:	08010a39 08010a2d 08010cc1 08011649     9...-.......I...

08015440 <_ZN12_GLOBAL__N_118font_MWOSD_75_type6m_dataE>:
 8015440:	ffffffff ffffffff ffffffff bffefeff     ................
 8015450:	69bff9b9 ff99bffe bfffe5bf 99bfffe5     ...i............
 8015460:	fe69bfff fff9b9bf fffffefe ffffffff     ..i.............
 8015470:	ffffffff 0000ffff                       ........

08015478 <_ZTVN12_GLOBAL__N_119font_MWOSD_106_typeE>:
	...
 8015480:	080109d9 080109cd 08010cf1 08011699     ................

08015490 <_ZTVN12_GLOBAL__N_124font_OSD_Charset_71_typeE>:
	...
 8015498:	0800fd79 0800fd6d 08011315 080120d5     y...m........ ..

080154a8 <_ZN12_GLOBAL__N_118font_MWOSD_84_type6m_dataE>:
 80154a8:	ffffffff ffffffff ffffffff 6fffaabf     ...............o
 80154b8:	a6bffe55 ffe6ffff ffffe6ff e6ffffe6     U...............
 80154c8:	ffe6ffff ffffe6ff fffffffb ffffffff     ................
 80154d8:	ffffffff 0000ffff                       ........

080154e0 <_ZTVN12_GLOBAL__N_124font_OSD_Charset_43_typeE>:
	...
 80154e8:	0800fad9 0800facd 08011465 08012305     ........e....#..

080154f8 <_ZTVN12_GLOBAL__N_124font_OSD_Charset_67_typeE>:
	...
 8015500:	0800fd19 0800fd0d 08011345 08012125     ........E...%!..

08015510 <_ZTVN12_GLOBAL__N_118font_MWOSD_85_typeE>:
	...
 8015518:	080107e1 080107d5 08010ded 0801183d     ............=...

08015528 <_ZTVN12_GLOBAL__N_124font_OSD_Charset_39_typeE>:
	...
 8015530:	0800fa79 0800fa6d 08011495 08012355     y...m.......U#..

08015540 <_ZTVN12_GLOBAL__N_118font_MWOSD_57_typeE>:
	...
 8015548:	08010541 08010535 08010f3d 08011a6d     A...5...=...m...

08015558 <_ZN12_GLOBAL__N_118font_MWOSD_43_type6m_dataE>:
 8015558:	ffffffff ffffffff ffffffff ffffffff     ................
 8015568:	e6ffffff ffa6bfff bfff557f e6ffffa6     .........U......
 8015578:	ffffffff ffffffff ffffffff ffffffff     ................
 8015588:	ffffffff 0000ffff                       ........

08015590 <_ZTVN12_GLOBAL__N_125font_OSD_Charset_107_typeE>:
	...
 8015598:	080100d9 080100cd 08011165 08011e05     ........e.......

080155a8 <_ZN12_GLOBAL__N_118font_MWOSD_86_type6m_dataE>:
 80155a8:	ffffffff ffffffff ffffffff bfffbeff     ................
 80155b8:	69bffe69 fe69bffe bffe69bf 69bffe69     i..i..i..i..i..i
 80155c8:	fe55bffe ffff96ff ffffffeb ffffffff     ..U.............
 80155d8:	ffffffff 0000ffff                       ........

080155e0 <_ZTVN12_GLOBAL__N_118font_MWOSD_40_typeE>:
	...
 80155e8:	080103a9 0801039d 08011009 08011bc1     ................

080155f8 <_ZTVN12_GLOBAL__N_124font_OSD_Charset_97_typeE>:
	...
 8015600:	0800ffe9 0800ffdd 080111dd 08011ecd     ................

08015610 <_ZTVN12_GLOBAL__N_125font_OSD_Charset_124_typeE>:
	...
 8015618:	08010271 08010265 08011099 08011cb1     q...e...........

08015628 <_ZN12_GLOBAL__N_118font_MWOSD_89_type6m_dataE>:
 8015628:	ffffffff ffffffff ffffffff 6fffbfbf     ...............o
 8015638:	6e6ffe6e ff99bffe ffffe6ff e6ffffe6     n.on............
 8015648:	ffe6ffff ffffe6ff fffffffb ffffffff     ................
 8015658:	ffffffff 0000ffff                       ........

08015660 <_ZTVN12_GLOBAL__N_119font_MWOSD_123_typeE>:
	...
 8015668:	08010b71 08010b65 08010c25 08011545     q...e...%...E...

08015678 <_ZTVN12_GLOBAL__N_124font_OSD_Charset_64_typeE>:
	...
 8015680:	0800fcd1 0800fcc5 08011369 08012161     ........i...a!..

08015690 <_ZN12_GLOBAL__N_124font_OSD_Charset_42_type6m_dataE>:
 8015690:	ffffffff fffbffff 9bffe6ef 5b96ff96     ...............[
 80156a0:	696fe5be ea55abf9 ab955556 696fea55     ..oi..U.VU..U.oi
 80156b0:	e5be5bf9 e696ff96 fffb9bff ffffffef     .[..............
 80156c0:	ffffffff 0000ffff                       ........

080156c8 <_ZTVN12_GLOBAL__N_118font_MWOSD_44_typeE>:
	...
 80156d0:	08010409 080103fd 08010fd9 08011b71     ............q...

080156e0 <_ZN12_GLOBAL__N_118font_MWOSD_90_type6m_dataE>:
 80156e0:	ffffffff ffffffff ffffffff 6fffaabf     ...............o
 80156f0:	6abffe55 fe5bfffe bfff96ff f96fffe5     U..j..[.......o.
 8015700:	ffaa6fff bffe556f ffffffaa ffffffff     .o..oU..........
 8015710:	ffffffff 0000ffff                       ........

08015718 <_ZN12_GLOBAL__N_118font_MWOSD_68_type6m_dataE>:
 8015718:	ffffffff ffffffff ffffffff bfffeaff     ................
 8015728:	69bfff95 fe69bffe bffe69bf 69bffe69     ...i..i..i..i..i
 8015738:	fe69bffe ffff95bf ffffffea ffffffff     ..i.............
 8015748:	ffffffff 0000ffff                       ........

08015750 <_ZTVN12_GLOBAL__N_124font_OSD_Charset_60_typeE>:
	...
 8015758:	0800fc71 0800fc65 08011399 080121b1     q...e........!..

08015768 <_ZTVN12_GLOBAL__N_124font_OSD_Charset_32_typeE>:
	...
 8015770:	0800f9d1 0800f9c5 080114e9 080123e1     .............#..

08015780 <_ZTVN12_GLOBAL__N_124font_OSD_Charset_84_typeE>:
	...
 8015788:	0800feb1 0800fea5 08011279 08011fd1     ........y.......

08015798 <_ZTVN12_GLOBAL__N_124font_OSD_Charset_56_typeE>:
	...
 80157a0:	0800fc11 0800fc05 080113c9 08012201     ............."..

080157b0 <_ZTVN12_GLOBAL__N_118font_MWOSD_74_typeE>:
	...
 80157b8:	080106d9 080106cd 08010e71 08011919     ........q.......

080157c8 <_ZTVN12_GLOBAL__N_118font_MWOSD_46_typeE>:
	...
 80157d0:	08010439 0801042d 08010fc1 08011b49     9...-.......I...

080157e0 <_ZTVN12_GLOBAL__N_118font_MWOSD_98_typeE>:
	...
 80157e8:	08010919 0801090d 08010d51 08011739     ........Q...9...

080157f8 <_ZN12_GLOBAL__N_1L21font_MWOSD_char_arrayE>:
 80157f8:	10000cf4 10000ba8 10000aa8 10000ae0     ................
 8015808:	10000b24 10000b54 10000b84 10000af8     $...T...........
 8015818:	10000b28 10000b58 10000d24 10000bb8     (...X...$.......
 8015828:	10000af4 10000c20 10000c5c 10000c8c     .... ...\.......
 8015838:	10000d34 10000cb0 10000c44 10000d10     4.......D.......
 8015848:	10000c94 10000d58 10000ce8 10000d20     ....X....... ...
 8015858:	10000ba4 10000aa0 10000ad4 10000b94     ................
 8015868:	10000a60 10000c1c 10000ad8 10000b14     `...............
 8015878:	10000d18 10000b7c 10000b08 10000b78     ....|.......x...
 8015888:	10000be0 10000c4c 10000bac 10000bec     ....L...........
 8015898:	10000b1c 10000c54 10000ce0 10000ad0     ....T...........
 80158a8:	10000d50 10000acc 10000b44 10000d4c     P.......D...L...
 80158b8:	10000a68 10000cdc 10000d1c 10000d54     h...........T...
 80158c8:	10000a9c 10000b88 10000b0c 10000b48     ............H...
 80158d8:	10000a98 10000b04 10000b10 10000c68     ............h...
 80158e8:	10000cb4 10000bdc 10000b80 10000c14     ................
 80158f8:	10000c64 10000cf0 10000b60 10000cb8     d.......`.......
 8015908:	10000a84 10000c84 10000d04 10000aec     ................
 8015918:	10000b30 10000bf8 10000b8c 10000bc0     0...............
 8015928:	10000bfc 10000c28 10000b90 10000bc4     ....(...........
 8015938:	10000ab4 10000a80 10000b34 10000c80     ........4.......
 8015948:	10000c98 10000d2c 10000cf8 10000b2c     ....,.......,...
 8015958:	10000cc4 10000cc0 10000cfc 10000d30     ............0...
 8015968:	10000a74 10000aac 10000ae4              t...........

08015974 <_ZN12_GLOBAL__N_118font_MWOSD_72_type6m_dataE>:
 8015974:	ffffffff ffffffff ffffffff bfffbeff     ................
 8015984:	69bffe69 fe69bffe bffe55bf 69bffe55     i..i..i..U..U..i
 8015994:	fe69bffe fffe69bf ffffffbe ffffffff     ..i..i..........
 80159a4:	ffffffff 0000ffff                       ........

080159ac <_ZN12_GLOBAL__N_125font_OSD_Charset_125_type6m_dataE>:
 80159ac:	bfffffff e56ffffa ff956fff bfff956f     ......o..o..o...
 80159bc:	96ffff96 ff96ffff fffe5bff 96fffe5b     .........[..[...
 80159cc:	ff96ffff 6fff96bf 956fff95 ffe56fff     .......o..o..o..
 80159dc:	fffffabf 0000ffff 00000000              ............

080159e8 <_ZTVN12_GLOBAL__N_125font_OSD_Charset_113_typeE>:
	...
 80159f0:	08010169 0801015d 0801111d 08011d8d     i...]...........

08015a00 <_ZTVN12_GLOBAL__N_119font_MWOSD_125_typeE>:
	...
 8015a08:	08010ba1 08010b95 08010c0d 0801151d     ................

08015a18 <_ZN12_GLOBAL__N_125font_OSD_Charset_118_type6m_dataE>:
 8015a18:	ffffffff ffffffff ffffffff ffffffff     ................
 8015a28:	ffafffff e5be5bfa 5be5be5b be5be5be     .....[..[..[..[.
 8015a38:	e5be5be5 5be5be5b 556fe569 fe55bff9     .[..[..[i.oU..U.
 8015a48:	ffff96ff 0000ffeb                       ........

08015a50 <_ZTVN12_GLOBAL__N_119font_MWOSD_112_typeE>:
	...
 8015a58:	08010a69 08010a5d 08010ca9 08011621     i...].......!...

08015a68 <_ZN12_GLOBAL__N_124font_OSD_Charset_91_type6m_dataE>:
 8015a68:	ffffffff abffffff f956fffe fff956ff     ..........V..V..
 8015a78:	96fffe96 ff96ffff ffff96ff 96ffff96     ................
 8015a88:	ff96ffff fffe96ff 56fff956 feabfff9     ........V..V....
 8015a98:	ffffffff 0000ffff                       ........

08015aa0 <_ZN12_GLOBAL__N_124font_OSD_Charset_69_type6m_dataE>:
 8015aa0:	ffffffff aaafffff e5555bfa 5be5555b     .........[U.[U.[
 8015ab0:	fe5bfaaa fffe5bff 5bffaa5b 555bfe55     ..[..[..[..[U.[U
 8015ac0:	ffaa5bfe 5bfffe5b aa5bfffe e5555bfa     .[..[..[..[..[U.
 8015ad0:	afe5555b 0000faaa                       [U......

08015ad8 <_ZTVN12_GLOBAL__N_118font_MWOSD_61_typeE>:
	...
 8015ae0:	080105a1 08010595 08010f0d 08011a1d     ................

08015af0 <_ZTVN12_GLOBAL__N_119font_MWOSD_108_typeE>:
	...
 8015af8:	08010a09 080109fd 08010cd9 08011671     ............q...

08015b08 <_ZN12_GLOBAL__N_118font_MWOSD_87_type6m_dataE>:
 8015b08:	ffffffff ffffffff ffffffff 6ffeffbf     ...............o
 8015b18:	be6ff9be f9be6ff9 6ff9aa6f 966ff996     ..o..o..o..o..o.
 8015b28:	fe55bff9 fffe69bf ffffffaa ffffffff     ..U..i..........
 8015b38:	ffffffff 0000ffff                       ........

08015b40 <_ZTVN12_GLOBAL__N_124font_OSD_Charset_73_typeE>:
	...
 8015b48:	0800fda9 0800fd9d 080112fd 080120ad     ............. ..

08015b58 <_ZTVN12_GLOBAL__N_118font_MWOSD_91_typeE>:
	...
 8015b60:	08010871 08010865 08010da5 080117c5     q...e...........

08015b70 <_ZTVN12_GLOBAL__N_124font_OSD_Charset_45_typeE>:
	...
 8015b78:	0800fb09 0800fafd 0801144d 080122dd     ........M...."..

08015b88 <_ZTVN12_GLOBAL__N_118font_MWOSD_63_typeE>:
	...
 8015b90:	080105d1 080105c5 08010ef5 080119f5     ................

08015ba0 <_ZN12_GLOBAL__N_125font_OSD_Charset_117_type6m_dataE>:
 8015ba0:	ffffffff ffffffff ffffffff ffffffff     ................
 8015bb0:	ffafffff e5be5bfa 5be5be5b be5be5be     .....[..[..[..[.
 8015bc0:	e5be5be5 5be5be5b aa5be5be e5555be5     .[..[..[..[..[U.
 8015bd0:	bff9556f 0000feaa                       oU......

08015bd8 <_ZTVN12_GLOBAL__N_124font_OSD_Charset_69_typeE>:
	...
 8015be0:	0800fd49 0800fd3d 0801132d 080120fd     I...=...-.... ..

08015bf0 <_ZTVN12_GLOBAL__N_118font_MWOSD_87_typeE>:
	...
 8015bf8:	08010811 08010805 08010dd5 08011815     ................

08015c08 <_ZN12_GLOBAL__N_118font_MWOSD_70_type6m_dataE>:
 8015c08:	ffffffff ffffffff ffffffff bffeaaff     ................
 8015c18:	a9bff955 ffe9bffe bfff95bf f9bfffe9     U...............
 8015c28:	fff9bfff fffff9bf fffffffe ffffffff     ................
 8015c38:	ffffffff 0000ffff                       ........

08015c40 <_ZTVN12_GLOBAL__N_118font_MWOSD_59_typeE>:
	...
 8015c48:	08010571 08010565 08010f25 08011a45     q...e...%...E...

08015c58 <_ZN12_GLOBAL__N_1L10font_arrayE>:
 8015c58:	10000ccc 10000d0c                       ........

08015c60 <_ZTVN12_GLOBAL__N_124font_OSD_Charset_83_typeE>:
	...
 8015c68:	0800fe99 0800fe8d 08011285 08011fe5     ................

08015c78 <_ZTVN12_GLOBAL__N_124font_OSD_Charset_99_typeE>:
	...
 8015c80:	08010019 0801000d 080111c5 08011ea5     ................

08015c90 <_ZN12_GLOBAL__N_125font_OSD_Charset_126_type6m_dataE>:
 8015c90:	ffffffff ffffffff ffffffff ffffffff     ................
 8015ca0:	e5bfeffa 96956f9b 96e55a5b bfebf96f     .....o..[Z..o...
 8015cb0:	fffffffe ffffffff ffffffff ffffffff     ................
 8015cc0:	ffffffff 0000ffff                       ........

08015cc8 <_ZTVN12_GLOBAL__N_125font_OSD_Charset_126_typeE>:
	...
 8015cd0:	080102a1 08010295 08011081 08011c89     ................

08015ce0 <_ZTVN12_GLOBAL__N_119font_MWOSD_101_typeE>:
	...
 8015ce8:	08010961 08010955 08010d2d 080116fd     a...U...-.......

08015cf8 <_ZN12_GLOBAL__N_125font_OSD_Charset_123_type6m_dataE>:
 8015cf8:	ffffffff 5bfffeaf f95bfff9 fff956ff     .......[..[..V..
 8015d08:	96fffe96 ff96ffff bfffe5bf 96ffffe5     ................
 8015d18:	ff96ffff fffe96ff 5bfff956 f95bfff9     ........V..[..[.
 8015d28:	fffeafff 0000ffff                       ........

08015d30 <_ZN12_GLOBAL__N_125font_OSD_Charset_119_type6m_dataE>:
 8015d30:	ffffffff ffffffff ffffffff ffffffff     ................
 8015d40:	ffafffff e5be5bfa 5be5be5b be5be5be     .....[..[..[..[.
 8015d50:	e5aa5be5 5be5965b 555be596 f9556fe5     .[..[..[..[U.oU.
 8015d60:	bff9696f 0000febe                       oi......

08015d68 <_ZTVN12_GLOBAL__N_125font_OSD_Charset_120_typeE>:
	...
 8015d70:	08010211 08010205 080110c9 08011d01     ................

08015d80 <_ZN12_GLOBAL__N_124font_OSD_Charset_86_type6m_dataE>:
 8015d80:	ffffffff ffafffff e5be5bfa 5be5be5b     .........[..[..[
 8015d90:	be5be5be e5be5be5 5be5be5b be5be5be     ..[..[..[..[..[.
 8015da0:	e5be5be5 6fe5695b 556ff969 fe55bff9     .[..[i.oi.oU..U.
 8015db0:	ffff96ff 0000ffeb                       ........

08015db8 <_ZTVN12_GLOBAL__N_118font_MWOSD_50_typeE>:
	...
 8015dc0:	08010499 0801048d 08010f91 08011af9     ................

08015dd0 <_ZN12_GLOBAL__N_125font_OSD_Charset_120_type6m_dataE>:
 8015dd0:	ffffffff ffffffff ffffffff ffffffff     ................
 8015de0:	ffafffff e5be5bfa 6fe5695b 55bff955     .....[..[i.oU..U
 8015df0:	ff96fffe bfff96ff 556ffe55 e5695bf9     ........U.oU.[i.
 8015e00:	afe5be5b 0000faff                       [.......

08015e08 <_ZN12_GLOBAL__N_125font_OSD_Charset_116_type6m_dataE>:
 8015e08:	ffffffff ffffffff ffffffff ffffffff     ................
 8015e18:	aaafffff e5555bfa afe5555b 96fffa96     .....[U.[U......
 8015e28:	ff96ffff ffff96ff 96ffff96 ff96ffff     ................
 8015e38:	ffff96ff 0000ffeb                       ........

08015e40 <_ZN12_GLOBAL__N_118font_MWOSD_60_type6m_dataE>:
 8015e40:	ffffffff ffffffff febfffff fff96fff     .............o..
 8015e50:	96fffe5b ffe5bfff 6ffff96f e5bffff9     [.......o..o....
 8015e60:	ff96ffff fffe5bff bffff96f fffffffe     .....[..o.......
 8015e70:	ffffffff 0000ffff                       ........

08015e78 <_ZN12_GLOBAL__N_125font_OSD_Charset_113_type6m_dataE>:
 8015e78:	ffffffff ffffffff ffffffff ffffffff     ................
 8015e88:	aabfffff f9556ffe 5be5555b be5be5aa     .....oU.[U.[..[.
 8015e98:	e5be5be5 5be5ae5b 5a5be55a e5555bf9     .[..[..[Z.[Z.[U.
 8015ea8:	bfe5956f 0000faea                       o.......

08015eb0 <_ZN12_GLOBAL__N_125font_OSD_Charset_109_type6m_dataE>:
 8015eb0:	ffffffff ffffffff ffffffff ffffffff     ................
 8015ec0:	ffafffff e5be5bfa 5be5695b 965be555     .....[..[i.[U.[.
 8015ed0:	e5965be5 5be5aa5b be5be5be e5be5be5     .[..[..[..[..[..
 8015ee0:	afe5be5b 0000faff                       [.......

08015ee8 <_ZTVN12_GLOBAL__N_124font_OSD_Charset_44_typeE>:
	...
 8015ef0:	0800faf1 0800fae5 08011459 080122f1     ........Y...."..

08015f00 <_ZN12_GLOBAL__N_125font_OSD_Charset_106_type6m_dataE>:
 8015f00:	ffffffff ffffffff ffffffff ffffffff     ................
 8015f10:	abffffff e556fffa ffe556ff 6ffff96b     ......V..V..k..o
 8015f20:	f96ffff9 bff96fff 696ff96e f9556ff9     ..o..o..n.oi.oU.
 8015f30:	fffe55bf 0000ffaa                       .U......

08015f38 <_ZTVN12_GLOBAL__N_124font_OSD_Charset_90_typeE>:
	...
 8015f40:	0800ff41 0800ff35 08011231 08011f59     A...5...1...Y...

08015f50 <_ZTVN12_GLOBAL__N_124font_OSD_Charset_62_typeE>:
	...
 8015f58:	0800fca1 0800fc95 08011381 08012189     .............!..

08015f68 <_ZTVN12_GLOBAL__N_118font_MWOSD_80_typeE>:
	...
 8015f70:	08010769 0801075d 08010e29 080118a1     i...]...).......

08015f80 <_ZTVN12_GLOBAL__N_124font_OSD_Charset_34_typeE>:
	...
 8015f88:	0800fa01 0800f9f5 080114d1 080123b9     .............#..

08015f98 <_ZN12_GLOBAL__N_118font_MWOSD_62_type6m_dataE>:
 8015f98:	ffffffff ffffffff ffffafff 6ffffe5b     ............[..o
 8015fa8:	e5bffff9 ff96ffff fffe5bff 96fffe5b     .........[..[...
 8015fb8:	ffe5bfff 5bfff96f ffaffffe ffffffff     ....o..[........
 8015fc8:	ffffffff 0000ffff                       ........

08015fd0 <_ZTVN12_GLOBAL__N_124font_OSD_Charset_86_typeE>:
	...
 8015fd8:	0800fee1 0800fed5 08011261 08011fa9     ........a.......

08015fe8 <_ZTVN12_GLOBAL__N_124font_OSD_Charset_58_typeE>:
	...
 8015ff0:	0800fc41 0800fc35 080113b1 080121d9     A...5........!..

08016000 <_ZTVN12_GLOBAL__N_118font_MWOSD_76_typeE>:
	...
 8016008:	08010709 080106fd 08010e59 080118f1     ........Y.......

08016018 <_ZN12_GLOBAL__N_125font_OSD_Charset_122_type6m_dataE>:
 8016018:	ffffffff ffffffff ffffffff ffffffff     ................
 8016028:	aaafffff e5555bfa afe5555b 5bffe56a     .....[U.[U..j..[
 8016038:	fe56fff9 6fff95bf a95bffe5 e5555bfa     ..V....o..[..[U.
 8016048:	afe5555b 0000faaa                       [U......

08016050 <_ZTVN12_GLOBAL__N_118font_MWOSD_41_typeE>:
	...
 8016058:	080103c1 080103b5 08010ffd 08011bad     ................

08016068 <_ZTVN12_GLOBAL__N_125font_OSD_Charset_118_typeE>:
	...
 8016070:	080101e1 080101d5 080110e1 08011d29     ............)...

08016080 <_ZN12_GLOBAL__N_125font_OSD_Charset_115_type6m_dataE>:
 8016080:	ffffffff ffffffff ffffffff ffffffff     ................
 8016090:	aabfffff f9556ffe 5be5555b aa5be5aa     .....oU.[U.[..[.
 80160a0:	f9555bfa afe5556f aa5be5aa e5555be5     .[U.oU....[..[U.
 80160b0:	bff9556f 0000feaa                       oU......

080160b8 <_ZTVN12_GLOBAL__N_118font_MWOSD_51_typeE>:
	...
 80160c0:	080104b1 080104a5 08010f85 08011ae5     ................

080160d0 <_ZN12_GLOBAL__N_125font_OSD_Charset_112_type6m_dataE>:
 80160d0:	ffffffff ffffffff ffffffff ffffffff     ................
 80160e0:	aaafffff f9555bfe 5be5555b aa5be5aa     .....[U.[U.[..[.
 80160f0:	e5555be5 5bf9555b fe5bfeaa fffe5bff     .[U.[U.[..[..[..
 8016100:	affffe5b 0000ffff                       [.......

08016108 <_ZN12_GLOBAL__N_125font_OSD_Charset_108_type6m_dataE>:
 8016108:	ffffffff ffffffff ffffffff ffffffff     ................
 8016118:	ffafffff fffe5bff 5bfffe5b fe5bfffe     .....[..[..[..[.
 8016128:	fffe5bff 5bfffe5b aa5bfffe e5555bfa     .[..[..[..[..[U.
 8016138:	afe5555b 0000faaa                       [U......

08016140 <_ZTVN12_GLOBAL__N_124font_OSD_Charset_88_typeE>:
	...
 8016148:	0800ff11 0800ff05 08011249 08011f81     ........I.......

08016158 <_ZTVN12_GLOBAL__N_125font_OSD_Charset_115_typeE>:
	...
 8016160:	08010199 0801018d 08011105 08011d65     ............e...

08016170 <_ZN12_GLOBAL__N_125font_OSD_Charset_105_type6m_dataE>:
 8016170:	ffffffff ffffffff ffffffff ffffffff     ................
 8016180:	aaffffff fe55bfff fffe55bf 96ffff96     ......U..U......
 8016190:	ff96ffff ffff96ff 96ffff96 fe55bfff     ..............U.
 80161a0:	fffe55bf 0000ffaa                       .U......

080161a8 <_ZN12_GLOBAL__N_124font_OSD_Charset_98_type6m_dataE>:
 80161a8:	ffffffff ffffffff ffffffff ffffffff     ................
 80161b8:	aaafffff f9555bfe 5be5555b aa5be5aa     .....[U.[U.[..[.
 80161c8:	f9555be5 5bf9555b aa5be5aa e5555be5     .[U.[U.[..[..[U.
 80161d8:	aff9555b 0000feaa                       [U......

080161e0 <_ZN12_GLOBAL__N_118font_MWOSD_44_type6m_dataE>:
 80161e0:	ffffffff ffffffff ffffffff ffffffff     ................
 80161f0:	ffffffff ffffffff ffffffff ffffffff     ................
 8016200:	ffebffff ffff96ff e5bfff96 fffaffff     ................
 8016210:	ffffffff 0000ffff                       ........

08016218 <_ZTVN12_GLOBAL__N_119font_MWOSD_114_typeE>:
	...
 8016220:	08010a99 08010a8d 08010c91 080115f9     ................

08016230 <_ZN12_GLOBAL__N_125font_OSD_Charset_121_type6m_dataE>:
 8016230:	ffffffff ffffffff ffffffff ffffffff     ................
 8016240:	ffafffff e5be5bfa 5be5be5b 695be5be     .....[..[..[..[i
 8016250:	f9556fe5 fffe55bf 96ffff96 ff96ffff     .oU..U..........
 8016260:	ffff96ff 0000ffeb                       ........

08016268 <_ZTVN12_GLOBAL__N_118font_MWOSD_35_typeE>:
	...
 8016270:	08010331 08010325 08011045 08011c25     1...%...E...%...

08016280 <_ZN12_GLOBAL__N_125font_OSD_Charset_114_type6m_dataE>:
 8016280:	ffffffff ffffffff ffffffff ffffffff     ................
 8016290:	aaafffff f9555bfe 5be5555b aa5be5aa     .....[U.[U.[..[.
 80162a0:	f9555be5 5bfe955b 5a5bfe56 e56e5bf9     .[U.[..[V.[Z.[n.
 80162b0:	afe5be5b 0000faff                       [.......

080162b8 <_ZTVN12_GLOBAL__N_124font_OSD_Charset_51_typeE>:
	...
 80162c0:	0800fb99 0800fb8d 08011405 08012265     ............e"..

080162d0 <_ZN12_GLOBAL__N_125font_OSD_Charset_111_type6m_dataE>:
 80162d0:	ffffffff ffffffff ffffffff ffffffff     ................
 80162e0:	aabfffff f9556ffe 5be5555b be5be5aa     .....oU.[U.[..[.
 80162f0:	e5be5be5 5be5be5b aa5be5be e5555be5     .[..[..[..[..[U.
 8016300:	bff9556f 0000feaa                       oU......

08016308 <_ZN12_GLOBAL__N_125font_OSD_Charset_107_type6m_dataE>:
 8016308:	ffffffff ffffffff ffffffff ffffffff     ................
 8016318:	ffafffff e5be5bfa 5be56e5b 565bf95a     .....[..[n.[Z.[V
 8016328:	ff955bfe 5bff955b 5a5bfe55 e56e5bf9     .[..[..[U.[Z.[n.
 8016338:	afe5be5b 0000faff                       [.......

08016340 <_ZN12_GLOBAL__N_118font_MWOSD_99_type6m_dataE>:
 8016340:	ffffffff ffffffff ffbfffff ebfe6fff     .............o..
 8016350:	5a96fe5b e55956f9 afe5555b 56ff9555     [..Z.VY.[U..U..V
 8016360:	e556ff95 bffa55bf faffffa5 ffffffff     ..V..U..........
 8016370:	ffffffff 0000ffff                       ........

08016378 <_ZTVN12_GLOBAL__N_124font_OSD_Charset_75_typeE>:
	...
 8016380:	0800fdd9 0800fdcd 080112e5 08012085     ............. ..

08016390 <_ZTVN12_GLOBAL__N_118font_MWOSD_93_typeE>:
	...
 8016398:	080108a1 08010895 08010d8d 0801179d     ................

080163a8 <_ZN12_GLOBAL__N_125font_OSD_Charset_104_type6m_dataE>:
 80163a8:	ffffffff ffffffff ffffffff ffffffff     ................
 80163b8:	ffafffff e5be5bfa 5be5be5b aa5be5be     .....[..[..[..[.
 80163c8:	e5555be5 5be5555b be5be5aa e5be5be5     .[U.[U.[..[..[..
 80163d8:	afe5be5b 0000faff                       [.......

080163e0 <_ZTVN12_GLOBAL__N_118font_MWOSD_65_typeE>:
	...
 80163e8:	08010601 080105f5 08010edd 080119cd     ................

080163f8 <_ZN12_GLOBAL__N_118font_MWOSD_91_type6m_dataE>:
 80163f8:	ffffffff ffffffff feafffff fff95bff     .............[..
 8016408:	9bfffa9b ff9bffff ffff9bff 9bffff9b     ................
 8016418:	ff9bffff fffe9bff affff95b fffffffa     ........[.......
 8016428:	ffffffff 0000ffff                       ........

08016430 <_ZN12_GLOBAL__N_125font_OSD_Charset_101_type6m_dataE>:
 8016430:	ffffffff ffffffff ffffffff ffffffff     ................
 8016440:	aaafffff e5555bfa 5be5555b aa5bfaaa     .....[U.[U.[..[.
 8016450:	fe555bff 5bfe555b aa5bffaa e5555bfa     .[U.[U.[..[..[U.
 8016460:	afe5555b 0000faaa                       [U......

08016468 <_ZTVN12_GLOBAL__N_118font_MWOSD_89_typeE>:
	...
 8016470:	08010841 08010835 08010dbd 080117ed     A...5...........

08016480 <_ZTVN12_GLOBAL__N_115font_MWOSD_typeE>:
	...
 8016488:	08010bc5 08010bc9 08010bcd 08010bd1     ................
 8016498:	08010bd5 08010bf5 080114f5 00000000     ................

080164a8 <_ZN12_GLOBAL__N_118font_MWOSD_50_type6m_dataE>:
 80164a8:	ffffffff ffffffff ffffffff 6fffaabf     ...............o
 80164b8:	6a6ffe55 fe6fbffe fffe5bff e5bfff96     U.oj..o..[......
 80164c8:	ffa96fff bffe556f ffffffaa ffffffff     .o..oU..........
 80164d8:	ffffffff 0000ffff                       ........

080164e0 <_ZN12_GLOBAL__N_125font_OSD_Charset_110_type6m_dataE>:
 80164e0:	ffffffff ffffffff ffffffff ffffffff     ................
 80164f0:	ffafffff e5be5bfa 5be5be5b a55be5b9     .....[..[..[..[.
 8016500:	e5955be5 5be5565b 6e5be55a e5be5be5     .[..[V.[Z.[n.[..
 8016510:	afe5be5b 0000faff                       [.......

08016518 <_ZN12_GLOBAL__N_124font_OSD_Charset_99_type6m_dataE>:
 8016518:	ffffffff ffffffff ffffffff ffffffff     ................
 8016528:	aabfffff f9556ffe 5be5555b fe5be5aa     .....oU.[U.[..[.
 8016538:	fffe5bfa 5bfffe5b aa5bfafe e5555be5     .[..[..[..[..[U.
 8016548:	bff9556f 0000feaa                       oU......

08016550 <_ZN12_GLOBAL__N_119font_MWOSD_122_type6m_dataE>:
 8016550:	ffffffff ffffffff ffffffff ffffffff     ................
 8016560:	ffffffff ffffffff ffffffff ffffffff     ................
 8016570:	ffffffff ffffffff ffffffff ffffffff     ................
 8016580:	ffffffff 0000ffff                       ........

08016588 <_ZN12_GLOBAL__N_125font_OSD_Charset_103_type6m_dataE>:
 8016588:	ffffffff ffffffff ffffffff ffffffff     ................
 8016598:	aabfffff f9556ffe 5be5555b aa5be5a9     .....oU.[U.[..[.
 80165a8:	e55a5bfa 5be55a5b a95be5aa e5555be5     .[Z.[Z.[..[..[U.
 80165b8:	bff9556f 0000feaa                       oU......

080165c0 <_ZN12_GLOBAL__N_124font_OSD_Charset_96_type6m_dataE>:
 80165c0:	afffffff fe5bffff fff96fff ffffe5bf     ......[..o......
 80165d0:	ebffff96 ffffffff ffffffff ffffffff     ................
 80165e0:	ffffffff ffffffff ffffffff ffffffff     ................
 80165f0:	ffffffff 0000ffff                       ........

080165f8 <_ZTVN12_GLOBAL__N_118font_MWOSD_52_typeE>:
	...
 8016600:	080104c9 080104bd 08010f79 08011ad1     ........y.......

08016610 <_ZN12_GLOBAL__N_125font_OSD_Charset_100_type6m_dataE>:
 8016610:	ffffffff ffffffff ffffffff ffffffff     ................
 8016620:	aaafffff fe555bff 5bf9555b be5be56a     .....[U.[U.[j.[.
 8016630:	e5be5be5 5be5be5b 6a5be5be f9555be5     .[..[..[..[j.[U.
 8016640:	affe555b 0000ffaa                       [U......

08016648 <_ZN12_GLOBAL__N_124font_OSD_Charset_93_type6m_dataE>:
 8016648:	ffffffff eabfffff ff956fff bfff956f     .........o..o...
 8016658:	96ffff96 ff96ffff ffff96ff 96ffff96     ................
 8016668:	ff96ffff 6fff96bf 956fff95 ffeabfff     .......o..o.....
 8016678:	ffffffff 0000ffff                       ........

08016680 <_ZN12_GLOBAL__N_118font_MWOSD_45_type6m_dataE>:
 8016680:	ffffffff ffffffff ffffffff ffffffff     ................
 8016690:	ffffffff ffffffff 6ffeaabf aabff955     ...........oU...
 80166a0:	fffffffe ffffffff ffffffff ffffffff     ................
 80166b0:	ffffffff 0000ffff                       ........

080166b8 <_ZTVN12_GLOBAL__N_125font_OSD_Charset_100_typeE>:
	...
 80166c0:	08010031 08010025 080111b9 08011e91     1...%...........

080166d0 <_ZTVN12_GLOBAL__N_124font_OSD_Charset_40_typeE>:
	...
 80166d8:	0800fa91 0800fa85 08011489 08012341     ............A#..

080166e8 <_ZTVN12_GLOBAL__N_124font_OSD_Charset_92_typeE>:
	...
 80166f0:	0800ff71 0800ff65 08011219 08011f31     q...e.......1...

08016700 <_ZN12_GLOBAL__N_118font_MWOSD_37_type6m_dataE>:
 8016700:	ffffffff ffffffff ffffffff ffffffff     ................
 8016710:	feffffff f9b9bffe fffe6eff e6ffff9b     .........n......
 8016720:	f9b9bffe fffefeff ffffffff ffffffff     ................
 8016730:	ffffffff 0000ffff                       ........

08016738 <_ZN12_GLOBAL__N_124font_OSD_Charset_79_type6m_dataE>:
 8016738:	ffffffff aaffffff fe55bfff 5bf9556f     ..........U.oU.[
 8016748:	be5be569 e5be5be5 5be5be5b be5be5be     i.[..[..[..[..[.
 8016758:	e5be5be5 5be5be5b 695be5be f9556fe5     .[..[..[..[i.oU.
 8016768:	fffe55bf 0000ffaa                       .U......

08016770 <_ZTVN12_GLOBAL__N_118font_MWOSD_82_typeE>:
	...
 8016778:	08010799 0801078d 08010e11 08011879     ............y...

08016788 <_ZTVN12_GLOBAL__N_124font_OSD_Charset_36_typeE>:
	...
 8016790:	0800fa31 0800fa25 080114b9 08012391     1...%........#..

080167a0 <_ZTVN12_GLOBAL__N_118font_MWOSD_54_typeE>:
	...
 80167a8:	080104f9 080104ed 08010f61 08011aa9     ........a.......

080167b8 <_ZTVN12_GLOBAL__N_118font_MWOSD_78_typeE>:
	...
 80167c0:	08010739 0801072d 08010e41 080118c9     9...-...A.......

080167d0 <_ZN12_GLOBAL__N_118font_MWOSD_97_type6m_dataE>:
 80167d0:	ffffffff ffffffff fffebfff 6ffff96f     ............o..o
 80167e0:	e5bfffe5 9695bfeb 5b9556af 5556e555     .........V.[U.VU
 80167f0:	f9556be5 fff955bf affffe5a ffffffff     .kU..U..Z.......
 8016800:	ffffffff 0000ffff                       ........

08016808 <_ZN12_GLOBAL__N_124font_OSD_Charset_94_type6m_dataE>:
 8016808:	ffffffff ffffffff ffebffff bfff96ff     ................
 8016818:	696ffe55 f9be6ff9 fffaffaf ffffffff     U.oi.o..........
 8016828:	ffffffff ffffffff ffffffff ffffffff     ................
 8016838:	ffffffff 0000ffff                       ........

08016840 <_ZN12_GLOBAL__N_125font_OSD_Charset_102_type6m_dataE>:
 8016840:	ffffffff ffffffff ffffffff ffffffff     ................
 8016850:	aaafffff e5555bfa 5be5555b aa5bfaaa     .....[U.[U.[..[.
 8016860:	f9555bfe 5bf9555b fe5bfeaa fffe5bff     .[U.[U.[..[..[..
 8016870:	affffe5b 0000ffff                       [.......

08016878 <_ZN12_GLOBAL__N_124font_OSD_Charset_95_type6m_dataE>:
 8016878:	ffffffff ffffffff ffffffff ffffffff     ................
 8016888:	ffffffff ffffffff ffffffff ffffffff     ................
 8016898:	ffffffff abffffff 5556eaaa 95555695     ..........VU.VU.
 80168a8:	ffeaaaab 0000ffff                       ........

080168b0 <_ZTVN12_GLOBAL__N_125font_OSD_Charset_103_typeE>:
	...
 80168b8:	08010079 0801006d 08011195 08011e55     y...m.......U...

080168c8 <_ZTVN12_GLOBAL__N_125font_OSD_Charset_104_typeE>:
	...
 80168d0:	08010091 08010085 08011189 08011e41     ............A...

080168e0 <_ZTVN12_GLOBAL__N_125font_OSD_Charset_121_typeE>:
	...
 80168e8:	08010229 0801021d 080110bd 08011ced     )...............

080168f8 <_ZN12_GLOBAL__N_124font_OSD_Charset_92_type6m_dataE>:
 80168f8:	ffffffff ffffffff ffffffff 96ffffeb     ................
 8016908:	fe56ffff fff95bff bfffe56f 56ffff95     ..V..[..o......V
 8016918:	f95bfffe ffe56fff ffff95bf ebffff96     ..[..o..........
 8016928:	ffffffff 0000ffff                       ........

08016930 <_ZN12_GLOBAL__N_124font_OSD_Charset_88_type6m_dataE>:
 8016930:	ffffffff ffafffff e5be5bfa 5be5be5b     .........[..[..[
 8016940:	be5be5be f9696fe5 fffe55bf 96ffff96     ..[..oi..U......
 8016950:	fe55bfff 5bf9696f be5be5be e5be5be5     ..U.oi.[..[..[..
 8016960:	afe5be5b 0000faff                       [.......

08016968 <_ZTVN12_GLOBAL__N_119font_MWOSD_119_typeE>:
	...
 8016970:	08010b11 08010b05 08010c55 08011595     ........U.......

08016980 <_ZTVN12_GLOBAL__N_125font_OSD_Charset_111_typeE>:
	...
 8016988:	08010139 0801012d 08011135 08011db5     9...-...5.......

08016998 <_ZN12_GLOBAL__N_124font_OSD_Charset_85_type6m_dataE>:
 8016998:	ffffffff ffafffff e5be5bfa 5be5be5b     .........[..[..[
 80169a8:	be5be5be e5be5be5 5be5be5b be5be5be     ..[..[..[..[..[.
 80169b8:	e5be5be5 5be5be5b 695be5be f9556fe5     .[..[..[..[i.oU.
 80169c8:	fffe55bf 0000ffaa                       .U......

080169d0 <_ZTVN12_GLOBAL__N_119font_MWOSD_120_typeE>:
	...
 80169d8:	08010b29 08010b1d 08010c49 08011581     ).......I.......

080169e8 <_ZN12_GLOBAL__N_118font_MWOSD_57_type6m_dataE>:
 80169e8:	ffffffff ffffffff ffffffff bfffaaff     ................
 80169f8:	69bffe55 fe69bffe fffe55ff 6efffe6a     U..i..i..U..j..n
 8016a08:	fe69bffe fffe55bf ffffffaa ffffffff     ..i..U..........
 8016a18:	ffffffff 0000ffff                       ........

08016a20 <_ZN12_GLOBAL__N_124font_OSD_Charset_78_type6m_dataE>:
 8016a20:	ffffffff ffafffff e5be5bfa 5be5be5b     .........[..[..[
 8016a30:	b95be5be e5b95be5 5be5a55b 565be595     ..[..[..[..[..[V
 8016a40:	e55a5be5 5be56e5b be5be56e e5be5be5     .[Z.[n.[n.[..[..
 8016a50:	afe5be5b 0000faff                       [.......

08016a58 <_ZTVN12_GLOBAL__N_119font_MWOSD_116_typeE>:
	...
 8016a60:	08010ac9 08010abd 08010c79 080115d1     ........y.......

08016a70 <_ZN12_GLOBAL__N_118font_MWOSD_81_type6m_dataE>:
 8016a70:	ffffffff ffffffff ffffffff ffffebff     ................
 8016a80:	69bfff96 fe69bffe bffe69bf 69bffe69     ...i..i..i..i..i
 8016a90:	fe59bffe fffe56ff fffff9ab fffffffe     ..Y..V..........
 8016aa0:	ffffffff 0000ffff                       ........

08016aa8 <_ZTVN12_GLOBAL__N_118font_MWOSD_37_typeE>:
	...
 8016ab0:	08010361 08010355 0801102d 08011bfd     a...U...-.......

08016ac0 <_ZN12_GLOBAL__N_118font_MWOSD_59_type6m_dataE>:
 8016ac0:	ffffffff ffffffff ffffffff ffffebff     ................
 8016ad0:	96ffff96 ffebffff ffffffff ebffffff     ................
 8016ae0:	ff96ffff bfff96ff faffffe5 ffffffff     ................
 8016af0:	ffffffff 0000ffff                       ........

08016af8 <_ZN12_GLOBAL__N_118font_MWOSD_93_type6m_dataE>:
 8016af8:	ffffffff ffffffff fffabfff bfffe56f     ............o...
 8016b08:	e6ffffe6 ffe6ffff ffffe6ff e6ffffe6     ................
 8016b18:	ffe6ffff 6fffe6bf eabfffe5 ffffffff     .......o........
 8016b28:	ffffffff 0000ffff                       ........

08016b30 <_ZTVN12_GLOBAL__N_124font_OSD_Charset_81_typeE>:
	...
 8016b38:	0800fe69 0800fe5d 0801129d 0801200d     i...]........ ..

08016b48 <_ZTVN12_GLOBAL__N_124font_OSD_Charset_53_typeE>:
	...
 8016b50:	0800fbc9 0800fbbd 080113ed 0801223d     ............="..

08016b60 <_ZN12_GLOBAL__N_124font_OSD_Charset_87_type6m_dataE>:
 8016b60:	ffffffff ffafffff e5be5bfa 5be5be5b     .........[..[..[
 8016b70:	be5be5be e5aa5be5 5be5965b 965be596     ..[..[..[..[..[.
 8016b80:	e5965be5 5be5965b 555be596 f9556fe5     .[..[..[..[U.oU.
 8016b90:	bff9696f 0000febe                       oi......

08016b98 <_ZTVN12_GLOBAL__N_124font_OSD_Charset_77_typeE>:
	...
 8016ba0:	0800fe09 0800fdfd 080112cd 0801205d     ............] ..

08016bb0 <_ZTVN12_GLOBAL__N_118font_MWOSD_95_typeE>:
	...
 8016bb8:	080108d1 080108c5 08010d75 08011775     ........u...u...

08016bc8 <_ZTVN12_GLOBAL__N_124font_OSD_Charset_49_typeE>:
	...
 8016bd0:	0800fb69 0800fb5d 0801141d 0801228d     i...]........"..

08016be0 <_ZTVN12_GLOBAL__N_118font_MWOSD_67_typeE>:
	...
 8016be8:	08010631 08010625 08010ec5 080119a5     1...%...........

08016bf8 <_ZTVN12_GLOBAL__N_119font_MWOSD_118_typeE>:
	...
 8016c00:	08010af9 08010aed 08010c61 080115a9     ........a.......

08016c10 <_ZN12_GLOBAL__N_124font_OSD_Charset_77_type6m_dataE>:
 8016c10:	ffffffff ffafffff e5be5bfa 5be5695b     .........[..[i.[
 8016c20:	555be555 e5965be5 5be5965b be5be5aa     U.[U.[..[..[..[.
 8016c30:	e5be5be5 5be5be5b be5be5be e5be5be5     .[..[..[..[..[..
 8016c40:	afe5be5b 0000faff                       [.......

08016c48 <_ZN12_GLOBAL__N_124font_OSD_Charset_74_type6m_dataE>:
 8016c48:	ffffffff aaffffff e555bffa ffe555bf     ..........U..U..
 8016c58:	5bfffa5a fe5bfffe affe5bff 5a5bfe5b     Z..[..[..[..[.[Z
 8016c68:	fe5a5bfe 5bfe5a5b 5a5bfe5a fe555bfe     .[Z.[Z.[Z.[Z.[U.
 8016c78:	bfff956f 0000ffea                       o.......

08016c80 <_ZN12_GLOBAL__N_118font_MWOSD_69_type6m_dataE>:
 8016c80:	ffffffff ffffffff ffffffff bffeaaff     ................
 8016c90:	a9bff955 ffe9bffe bfff95bf e9bfff95     U...............
 8016ca0:	fea9bfff fff955bf fffffeaa ffffffff     .....U..........
 8016cb0:	ffffffff 0000ffff                       ........

08016cb8 <_ZN12_GLOBAL__N_118font_MWOSD_32_type6m_dataE>:
 8016cb8:	ffffffff ffffffff ffffffff ffffffff     ................
 8016cc8:	ffffffff ffffffff ffffffff ffffffff     ................
 8016cd8:	ffffffff ffffffff ffffffff ffffffff     ................
 8016ce8:	ffffffff 0000ffff                       ........

08016cf0 <_ZN12_GLOBAL__N_118font_MWOSD_63_type6m_dataE>:
 8016cf0:	ffffffff ffffffff ffffffff ffffffff     ................
 8016d00:	ffffffff ffffffff ffffffff ffffffff     ................
 8016d10:	ffffffff ffffffff ffffffff ffffffff     ................
 8016d20:	ffffffff 0000ffff                       ........

08016d28 <_ZN12_GLOBAL__N_124font_OSD_Charset_67_type6m_dataE>:
 8016d28:	ffffffff aaffffff fe55bfff 5bf9556f     ..........U.oU.[
 8016d38:	be5be569 fafe5be5 5bfffe5b fe5bfffe     i.[..[..[..[..[.
 8016d48:	fffe5bff 5bfafe5b 695be5be f9556fe5     .[..[..[..[i.oU.
 8016d58:	fffe55bf 0000ffaa                       .U......

08016d60 <_ZTVN12_GLOBAL__N_124font_OSD_Charset_79_typeE>:
	...
 8016d68:	0800fe39 0800fe2d 080112b5 08012035     9...-.......5 ..

08016d78 <_ZN12_GLOBAL__N_118font_MWOSD_92_type6m_dataE>:
 8016d78:	ffffffff ffffffff ffffffff efffffff     ................
 8016d88:	ff9bffff fffe5bff bffff96f 96ffffe5     .....[..o.......
 8016d98:	fe5bffff fff96fff ffffe5bf fffffffa     ..[..o..........
 8016da8:	ffffffff 0000ffff                       ........

08016db0 <_ZTVN12_GLOBAL__N_125font_OSD_Charset_106_typeE>:
	...
 8016db8:	080100c1 080100b5 08011171 08011e19     ........q.......

08016dc8 <_ZN12_GLOBAL__N_124font_OSD_Charset_90_type6m_dataE>:
 8016dc8:	ffffffff aaafffff e5555bfa afe5555b     .........[U.[U..
 8016dd8:	bfffe5aa e56fffe5 fff95bff 95bffe56     ......o..[..V...
 8016de8:	ffe56fff 5bfff95b aa5bfffe e5555bfa     .o..[..[..[..[U.
 8016df8:	afe5555b 0000faaa                       [U......

08016e00 <_ZN12_GLOBAL__N_118font_MWOSD_85_type6m_dataE>:
 8016e00:	ffffffff ffffffff ffffffff bfffbeff     ................
 8016e10:	69bffe69 fe69bffe bffe69bf 69bffe69     i..i..i..i..i..i
 8016e20:	fe69bffe fffe55bf ffffffaa ffffffff     ..i..U..........
 8016e30:	ffffffff 0000ffff                       ........

08016e38 <_ZTVN12_GLOBAL__N_119font_MWOSD_105_typeE>:
	...
 8016e40:	080109c1 080109b5 08010cfd 080116ad     ................

08016e50 <_ZN12_GLOBAL__N_124font_OSD_Charset_83_type6m_dataE>:
 8016e50:	ffffffff aaffffff f955bffe 5be5556f     ..........U.oU.[
 8016e60:	fe5be5a9 fffe5bfa 6fffa95b 55bffe55     ..[..[..[..oU..U
 8016e70:	e56afff9 afe5bfff 6a5be5bf f9555be5     ..j.......[j.[U.
 8016e80:	bffe556f 0000ffaa                       oU......

08016e88 <_ZN12_GLOBAL__N_118font_MWOSD_78_type6m_dataE>:
 8016e88:	ffffffff ffffffff ffffffff bfffbeff     ................
 8016e98:	69bffe69 fe65bffe bffe55bf 69bffe59     i..i..e..U..Y..i
 8016ea8:	fe69bffe fffe69bf ffffffbe ffffffff     ..i..i..........
 8016eb8:	ffffffff 0000ffff                       ........

08016ec0 <_ZN12_GLOBAL__N_124font_OSD_Charset_80_type6m_dataE>:
 8016ec0:	ffffffff aaafffff fe555bff 5bf9555b     .........[U.[U.[
 8016ed0:	be5be56a e5be5be5 5be56a5b 555bf955     j.[..[..[j.[U.[U
 8016ee0:	ffaa5bfe 5bfffe5b fe5bfffe fffe5bff     .[..[..[..[..[..
 8016ef0:	affffe5b 0000ffff                       [.......

08016ef8 <_ZN12_GLOBAL__N_124font_OSD_Charset_76_type6m_dataE>:
 8016ef8:	ffffffff ffafffff fffe5bff 5bfffe5b     .........[..[..[
 8016f08:	fe5bfffe fffe5bff 5bfffe5b fe5bfffe     ..[..[..[..[..[.
 8016f18:	fffe5bff 5bfffe5b aa5bfffe e5555bfa     .[..[..[..[..[U.
 8016f28:	afe5555b 0000faaa                       [U......

08016f30 <_ZN12_GLOBAL__N_1L27font_OSD_Charset_char_arrayE>:
 8016f30:	10000ca4 10000ba0 10000c6c 10000c10     ........l.......
 8016f40:	10000c40 10000bc8 10000b4c 10000c60     @.......L...`...
 8016f50:	10000b74 10000b40 10000c3c 10000c88     t...@...<.......
 8016f60:	10000cc8 10000d14 10000abc 10000b38     ............8...
 8016f70:	10000ac0 10000cbc 10000d44 10000a88     ........D.......
 8016f80:	10000ac4 10000afc 10000bd0 10000b68     ............h...
 8016f90:	10000b9c 10000bd4 10000c04 10000a78     ............x...
 8016fa0:	10000a5c 10000bd8 10000c0c 10000c38     \...........8...
 8016fb0:	10000a8c 10000b70 10000b00 10000cd0     ....p...........
 8016fc0:	10000d3c 10000d38 10000ca0 10000ce4     <...8...........
 8016fd0:	10000d48 10000d40 10000be8 10000ab8     H...@...........
 8016fe0:	10000cd4 10000cd8 10000b64 10000a94     ........d.......
 8016ff0:	10000af0 10000b3c 10000ca8 10000b98     ....<...........
 8017000:	10000bcc 10000c00 10000b6c 10000c70     ........l...p...
 8017010:	10000c34 10000c74 10000c30 10000be4     4...t...0.......
 8017020:	10000c48 10000c9c 10000d00 10000ae8     H...............
 8017030:	10000ac8 10000a7c 10000ab0 10000c08     ....|...........
 8017040:	10000c2c 10000c78 10000d08 10000d28     ,...x.......(...
 8017050:	10000cec 10000a90 10000a64 10000bf4     ........d.......
 8017060:	10000adc 10000b18 10000a6c 10000aa4     ........l.......
 8017070:	10000c50 10000b20 10000b50 10000a70     P... ...P...p...
 8017080:	10000bb0 10000b5c 10000c18 10000c24     ....\.......$...
 8017090:	10000bb4 10000bf0 10000bbc 10000c58     ............X...
 80170a0:	10000c7c 10000c90 10000cac              |...........

080170ac <_ZN12_GLOBAL__N_124font_OSD_Charset_73_type6m_dataE>:
 80170ac:	ffffffff aabfffff f9556ffe bff9556f     .........oU.oU..
 80170bc:	96fffe96 ff96ffff ffff96ff 96ffff96     ................
 80170cc:	ff96ffff ffff96ff 96bfff96 f9556ffe     .............oU.
 80170dc:	bff9556f 0000feaa 00000000              oU..........

080170e8 <_ZTVN12_GLOBAL__N_124font_OSD_Charset_70_typeE>:
	...
 80170f0:	0800fd61 0800fd55 08011321 080120e9     a...U...!.... ..

08017100 <_ZTVN12_GLOBAL__N_124font_OSD_Charset_42_typeE>:
	...
 8017108:	0800fac1 0800fab5 08011471 08012319     ........q....#..

08017118 <_ZN12_GLOBAL__N_124font_OSD_Charset_66_type6m_dataE>:
 8017118:	ffffffff aaafffff fe555bff 5bf9555b     .........[U.[U.[
 8017128:	be5be56a e5be5be5 5be56a5b 555bf955     j.[..[..[j.[U.[U
 8017138:	e56a5bf9 5be5be5b 6a5be5be f9555be5     .[j.[..[..[j.[U.
 8017148:	affe555b 0000ffaa                       [U......

08017150 <_ZTVN12_GLOBAL__N_124font_OSD_Charset_94_typeE>:
	...
 8017158:	0800ffa1 0800ff95 08011201 08011f09     ................

08017168 <_ZN12_GLOBAL__N_118font_MWOSD_88_type6m_dataE>:
 8017168:	ffffffff ffffffff ffffffff 6ffeffbf     ...............o
 8017178:	696ff9be fe69bff9 ffff96ff 69bfff96     ..oi..i........i
 8017188:	f9696ffe bff9be6f fffffeff ffffffff     .oi.o...........
 8017198:	ffffffff 0000ffff                       ........

080171a0 <_ZTVN12_GLOBAL__N_124font_OSD_Charset_66_typeE>:
	...
 80171a8:	0800fd01 0800fcf5 08011351 08012139     ........Q...9!..

080171b8 <_ZTVN12_GLOBAL__N_118font_MWOSD_84_typeE>:
	...
 80171c0:	080107c9 080107bd 08010df9 08011851     ............Q...

080171d0 <_ZN12_GLOBAL__N_124font_OSD_Charset_59_type6m_dataE>:
 80171d0:	ffffffff ffffffff ffffffff ffffffff     ................
 80171e0:	ffffffff ffebffff ffff96ff ebffff96     ................
 80171f0:	ffffffff ffffffff 96ffffeb ff96ffff     ................
 8017200:	ffffe5bf 0000fffa                       ........

08017208 <_ZTVN12_GLOBAL__N_118font_MWOSD_56_typeE>:
	...
 8017210:	08010529 0801051d 08010f49 08011a81     ).......I.......

08017220 <_ZTVN12_GLOBAL__N_125font_OSD_Charset_117_typeE>:
	...
 8017228:	080101c9 080101bd 080110ed 08011d3d     ............=...

08017238 <_ZTVN12_GLOBAL__N_124font_OSD_Charset_47_typeE>:
	...
 8017240:	0800fb39 0800fb2d 08011435 080122b5     9...-...5...."..

08017250 <_ZN12_GLOBAL__N_124font_OSD_Charset_82_type6m_dataE>:
 8017250:	ffffffff aaafffff fe555bff 5bf9555b     .........[U.[U.[
 8017260:	be5be56a e5be5be5 5be56a5b 955bf955     j.[..[..[j.[U.[.
 8017270:	ff955bfe 5bfe565b 6e5bf95a e5be5be5     .[..[V.[Z.[n.[..
 8017280:	afe5be5b 0000faff                       [.......

08017288 <_ZTVN12_GLOBAL__N_124font_OSD_Charset_96_typeE>:
	...
 8017290:	0800ffd1 0800ffc5 080111e9 08011ee1     ................

080172a0 <_ZN12_GLOBAL__N_118font_MWOSD_74_type6m_dataE>:
 80172a0:	ffffffff ffffffff ffffffff ffffbfff     ................
 80172b0:	6ffffe6f fe6ffffe fffe6fff 69bffe6e     o..o..o..o..n..i
 80172c0:	fe69bffe fffe55bf ffffffaa ffffffff     ..i..U..........
 80172d0:	ffffffff 0000ffff                       ........

080172d8 <_ZTVN12_GLOBAL__N_125font_OSD_Charset_123_typeE>:
	...
 80172e0:	08010259 0801024d 080110a5 08011cc5     Y...M...........

080172f0 <_ZN12_GLOBAL__N_119font_MWOSD_125_type6m_dataE>:
 80172f0:	ffffffff febfffff fff96fff ffffe5bf     .........o......
 8017300:	5bffff96 fe5bfffe fffe5bff 5bfffe5b     ...[..[..[..[..[
 8017310:	fe5bfffe fffe5bff e5bfff96 fff96fff     ..[..[.......o..
 8017320:	fffffebf 0000ffff                       ........

08017328 <_ZN12_GLOBAL__N_124font_OSD_Charset_72_type6m_dataE>:
 8017328:	ffffffff ffafffff e5be5bfa 5be5be5b     .........[..[..[
 8017338:	be5be5be e5be5be5 5be5aa5b 555be555     ..[..[..[..[U.[U
 8017348:	e5aa5be5 5be5be5b be5be5be e5be5be5     .[..[..[..[..[..
 8017358:	afe5be5b 0000faff                       [.......

08017360 <_ZN12_GLOBAL__N_124font_OSD_Charset_68_type6m_dataE>:
 8017360:	ffffffff aaafffff fe555bff 5bf9555b     .........[U.[U.[
 8017370:	be5be56a e5be5be5 5be5be5b be5be5be     j.[..[..[..[..[.
 8017380:	e5be5be5 5be5be5b 6a5be5be f9555be5     .[..[..[..[j.[U.
 8017390:	affe555b 0000ffaa                       [U......

08017398 <_ZN12_GLOBAL__N_119font_MWOSD_118_type6m_dataE>:
 8017398:	ffffffff ffffffff ffffffff ffffffff     ................
 80173a8:	ffffffff fe7f6fff ffff9dbf ffffffe6     .....o..........
 80173b8:	ffffffff ffffffff ffffffff ffffffff     ................
 80173c8:	ffffffff 0000ffff                       ........

080173d0 <_ZTVN12_GLOBAL__N_119font_MWOSD_122_typeE>:
	...
 80173d8:	08010b59 08010b4d 08010c31 08011559     Y...M...1...Y...

080173e8 <_ZN12_GLOBAL__N_124font_OSD_Charset_65_type6m_dataE>:
 80173e8:	ffffffff aaffffff fe55bfff 5bf9556f     ..........U.oU.[
 80173f8:	695be555 e5be5be5 5be5be5b aa5be5be     U.[i.[..[..[..[.
 8017408:	e5555be5 5be5555b be5be5aa e5be5be5     .[U.[U.[..[..[..
 8017418:	afe5be5b 0000faff                       [.......

08017420 <_ZTVN12_GLOBAL__N_118font_MWOSD_71_typeE>:
	...
 8017428:	08010691 08010685 08010e95 08011955     ............U...

08017438 <_ZN12_GLOBAL__N_124font_OSD_Charset_62_type6m_dataE>:
 8017438:	ffffffff ffffffff ffffffff ffffffff     ................
 8017448:	ffafffff fffe5bff bffff96f 96ffffe5     .....[..o.......
 8017458:	fe5bffff fffe5bff e5bfff96 fff96fff     ..[..[.......o..
 8017468:	affffe5b 0000ffff                       [.......

08017470 <_ZN12_GLOBAL__N_124font_OSD_Charset_58_type6m_dataE>:
 8017470:	ffffffff ffffffff ffffffff ffffffff     ................
 8017480:	ffffffff ffebffff ffff96ff ebffff96     ................
 8017490:	ffffffff ffffffff 96ffffeb ff96ffff     ................
 80174a0:	ffffebff 0000ffff                       ........

080174a8 <_ZN12_GLOBAL__N_119font_MWOSD_107_type6m_dataE>:
 80174a8:	ffffffff ffffffff ffafffff affe5aff     .............Z..
 80174b8:	955bfe55 ff9556ff 5bfa5556 655be555     U.[..V..VU.[U.[e
 80174c8:	96a56f95 bfebe5bf fefffff9 ffffffff     .o..............
 80174d8:	ffffffff 0000ffff                       ........

080174e0 <_ZTVN12_GLOBAL__N_118font_MWOSD_43_typeE>:
	...
 80174e8:	080103f1 080103e5 08010fe5 08011b85     ................

080174f8 <_ZN12_GLOBAL__N_124font_OSD_Charset_55_type6m_dataE>:
 80174f8:	ffffffff ffffffff ffffffff ffffffff     ................
 8017508:	aaafffff e5555bfa afe5555b 6fffe5aa     .....[U.[U.....o
 8017518:	f95bffe5 fffe56ff 96ffff96 ff96ffff     ..[..V..........
 8017528:	ffff96ff 0000ffeb                       ........

08017530 <_ZN12_GLOBAL__N_118font_MWOSD_94_type6m_dataE>:
 8017530:	ffffffff ffffffff ffebffff bfff96ff     ................
 8017540:	696ffe55 f9aa6ff9 fffafebf ffffffff     U.oi.o..........
 8017550:	ffffffff ffffffff ffffffff ffffffff     ................
 8017560:	ffffffff 0000ffff                       ........

08017568 <_ZTVN12_GLOBAL__N_118font_MWOSD_48_typeE>:
	...
 8017570:	08010469 0801045d 08010fa9 08011b21     i...].......!...

08017580 <_ZN12_GLOBAL__N_118font_MWOSD_80_type6m_dataE>:
 8017580:	ffffffff ffffffff ffffffff bfffeaff     ................
 8017590:	69bfff95 fe69bffe bfff95bf f9bfffe9     ...i..i.........
 80175a0:	fff9bfff fffff9bf fffffffe ffffffff     ................
 80175b0:	ffffffff 0000ffff                       ........

080175b8 <_ZN12_GLOBAL__N_124font_OSD_Charset_48_type6m_dataE>:
 80175b8:	ffffffff ffffffff ffffffff ffffffff     ................
 80175c8:	aabfffff f9556ffe 5be5555b be5be5aa     .....oU.[U.[..[.
 80175d8:	e5be5be5 5be5be5b aa5be5be e5555be5     .[..[..[..[..[U.
 80175e8:	bff9556f 0000feaa                       oU......

080175f0 <_ZN12_GLOBAL__N_118font_MWOSD_73_type6m_dataE>:
 80175f0:	ffffffff ffffffff ffffffff fffffbff     ................
 8017600:	e6ffffe6 ffe6ffff ffffe6ff e6ffffe6     ................
 8017610:	ffe6ffff ffffe6ff fffffffb ffffffff     ................
 8017620:	ffffffff 0000ffff                       ........

08017628 <_ZTVN12_GLOBAL__N_124font_OSD_Charset_55_typeE>:
	...
 8017630:	0800fbf9 0800fbed 080113d5 08012215     ............."..

08017640 <_ZTVN12_GLOBAL__N_118font_MWOSD_73_typeE>:
	...
 8017648:	080106c1 080106b5 08010e7d 0801192d     ........}...-...

08017658 <_ZTVN12_GLOBAL__N_124font_OSD_Charset_35_typeE>:
	...
 8017660:	0800fa19 0800fa0d 080114c5 080123a5     .............#..

08017670 <_ZN12_GLOBAL__N_124font_OSD_Charset_71_type6m_dataE>:
 8017670:	ffffffff aabfffff fe556fff 5bf9555b     .........oU.[U.[
 8017680:	be5be569 e5be5be5 5bfafe5b 5a5bfaae     i.[..[..[..[..[Z
 8017690:	e55a5be5 5be5ae5b aa5be5be e5555be5     .[Z.[..[..[..[U.
 80176a0:	bfe5556f 0000faaa                       oU......

080176a8 <_ZN12_GLOBAL__N_118font_MWOSD_66_type6m_dataE>:
 80176a8:	ffffffff ffffffff ffffffff bfffeaff     ................
 80176b8:	69bfff95 fe69bffe bfff55bf 69bffe55     ...i..i..U..U..i
 80176c8:	fe69bffe ffff95bf ffffffea ffffffff     ..i.............
 80176d8:	ffffffff 0000ffff                       ........

080176e0 <_ZTVN12_GLOBAL__N_125font_OSD_Charset_102_typeE>:
	...
 80176e8:	08010061 08010055 080111a1 08011e69     a...U.......i...

080176f8 <_ZN12_GLOBAL__N_119font_MWOSD_117_type6m_dataE>:
 80176f8:	ffffffff ffffffff ffffffff ffffffff     ................
 8017708:	dfffffff ff9fffff 7fff9fff eaffff95     ................
 8017718:	ffffffff ffffffff ffffffff ffffffff     ................
 8017728:	ffffffff 0000ffff                       ........

08017730 <_ZTVN12_GLOBAL__N_118font_MWOSD_97_typeE>:
	...
 8017738:	08010901 080108f5 08010d5d 0801174d     ........]...M...

08017748 <_ZN12_GLOBAL__N_124font_OSD_Charset_64_type6m_dataE>:
 8017748:	ffffffff ffffffff ffffffff bfffaaff     ................
 8017758:	aa6ffe55 e6ba9bf9 669a65a6 6a669a5a     U.o......e.fZ.fj
 8017768:	9a5a669a e6e665a6 ff9bf9ba e6aa6ffa     .fZ..e.......o..
 8017778:	fff955bf 0000feaa                       .U......

08017780 <_ZTVN12_GLOBAL__N_118font_MWOSD_69_typeE>:
	...
 8017788:	08010661 08010655 08010ead 0801197d     a...U.......}...

08017798 <_ZN12_GLOBAL__N_124font_OSD_Charset_61_type6m_dataE>:
 8017798:	ffffffff ffffffff ffffffff ffffffff     ................
 80177a8:	ffffffff feaabfff 6ff9556f aabff955     ........oU.oU...
 80177b8:	fffffffe bfffffff 556ffeaa f9556ff9     ..........oU.oU.
 80177c8:	fffeaabf 0000ffff                       ........

080177d0 <_ZN12_GLOBAL__N_124font_OSD_Charset_57_type6m_dataE>:
 80177d0:	ffffffff ffffffff ffffffff ffffffff     ................
 80177e0:	aabfffff f9556ffe 5be5555b aa5be5aa     .....oU.[U.[..[.
 80177f0:	e5555be5 bfe5556f aaafe5aa e5555be5     .[U.oU.......[U.
 8017800:	aff9555b 0000feaa                       [U......

08017808 <_ZN12_GLOBAL__N_118font_MWOSD_33_type6m_dataE>:
 8017808:	ffffffff ffffffff ffffffff ffffffff     ................
 8017818:	aeaeffff f95959fe 99f99999 9999f999     .....YY.........
 8017828:	f95959f9 fffeaeae ffffffff ffffffff     .YY.............
 8017838:	ffffffff 0000ffff                       ........

08017840 <_ZN12_GLOBAL__N_124font_OSD_Charset_54_type6m_dataE>:
 8017840:	ffffffff ffffffff ffffffff ffffffff     ................
 8017850:	aabfffff f9556ffe 5bf9555b aa5bfeaa     .....oU.[U.[..[.
 8017860:	f9555bfe 5be5555b aa5be5aa e5555be5     .[U.[U.[..[..[U.
 8017870:	bff9556f 0000feaa                       oU......

08017878 <_ZN12_GLOBAL__N_118font_MWOSD_49_type6m_dataE>:
 8017878:	ffffffff ffffffff ffffffff fffffbff     ................
 8017888:	e5ffffe6 ffe6ffff ffffe6ff e6ffffe6     ................
 8017898:	ffe6ffff ffffe6ff fffffffb ffffffff     ................
 80178a8:	ffffffff 0000ffff                       ........

080178b0 <_ZTVN12_GLOBAL__N_125font_OSD_Charset_109_typeE>:
	...
 80178b8:	08010109 080100fd 0801114d 08011ddd     ........M.......

080178c8 <_ZN12_GLOBAL__N_119font_MWOSD_126_type6m_dataE>:
 80178c8:	ffffffff ebffffff ffd7ffff ffffffff     ................
 80178d8:	96ffffeb fe69bfff 6d79be6d 69bf79be     ......i.m.ym.y.i
 80178e8:	ff96fffe ffffebff d7ffffff ffebffff     ................
 80178f8:	ffffffff 0000ffff                       ........

08017900 <_ZTVN12_GLOBAL__N_119font_MWOSD_111_typeE>:
	...
 8017908:	08010a51 08010a45 08010cb5 08011635     Q...E.......5...

08017918 <_ZN12_GLOBAL__N_124font_OSD_Charset_52_type6m_dataE>:
 8017918:	ffffffff ffffffff ffffffff ffffffff     ................
 8017928:	afffffff f95bfffe bff956ff 696ff965     ......[..V..e.oi
 8017938:	f96a5bf9 5be5555b 6aafe555 f96ffff9     .[j.[U.[U..j..o.
 8017948:	fff96fff 0000febf                       .o......

08017950 <_ZN12_GLOBAL__N_119font_MWOSD_123_type6m_dataE>:
 8017950:	ffffffff ffffffff e5bffffa fff96fff     .............o..
 8017960:	96fffe5b ff96ffff ffff96ff 96ffff96     [...............
 8017970:	ff96ffff ffff96ff 6ffffe5b e5bffff9     ........[..o....
 8017980:	fffaffff 0000ffff                       ........

08017988 <_ZN12_GLOBAL__N_119font_MWOSD_119_type6m_dataE>:
 8017988:	ffffffff ffffffff ffffffff ffffffff     ................
 8017998:	fdffffff fffdbfff bffffdbf eaffff55     ............U...
 80179a8:	ffffffff ffffffff ffffffff ffffffff     ................
 80179b8:	ffffffff 0000ffff                       ........

080179c0 <_ZTVN12_GLOBAL__N_118font_MWOSD_60_typeE>:
	...
 80179c8:	08010589 0801057d 08010f19 08011a31     ....}.......1...

080179d8 <_ZN12_GLOBAL__N_124font_OSD_Charset_70_type6m_dataE>:
 80179d8:	ffffffff aaafffff e5555bfa 5be5555b     .........[U.[U.[
 80179e8:	fe5bfaaa fffe5bff 5bffaa5b 555bfe55     ..[..[..[..[U.[U
 80179f8:	ffaa5bfe 5bfffe5b fe5bfffe fffe5bff     .[..[..[..[..[..
 8017a08:	affffe5b 0000ffff                       [.......

08017a10 <_ZTVN12_GLOBAL__N_118font_MWOSD_32_typeE>:
	...
 8017a18:	080102e9 080102dd 08011069 08011c61     ........i...a...

08017a28 <_ZN12_GLOBAL__N_119font_MWOSD_120_type6m_dataE>:
 8017a28:	ffffffff ffffffff ffffffff ffffffff     ................
 8017a38:	dbffffef fff6ffff fffffdff dbfffff6     ................
 8017a48:	ffefffff ffffffff ffffffff ffffffff     ................
 8017a58:	ffffffff 0000ffff                       ........

08017a60 <_ZN12_GLOBAL__N_119font_MWOSD_116_type6m_dataE>:
 8017a60:	ffffffff ffffffff ffffffff ffffffff     ................
 8017a70:	f9fffffe ffe7ffff ffffdfff f9ffffe7     ................
 8017a80:	fffeffff ffffffff ffffffff ffffffff     ................
 8017a90:	ffffffff 0000ffff                       ........

08017a98 <_ZN12_GLOBAL__N_124font_OSD_Charset_63_type6m_dataE>:
 8017a98:	ffffffff aabfffff f9556ffe 56e5555b     .........oU.[U.V
 8017aa8:	ff9695aa 96ffeb96 ff95bfff 5bffe56f     ............o..[
 8017ab8:	fe56fff9 ffff96ff ebffffeb ff96ffff     ..V.............
 8017ac8:	ffff96ff 0000ffeb                       ........

08017ad0 <_ZN12_GLOBAL__N_119font_MWOSD_113_type6m_dataE>:
 8017ad0:	ffffffff bbbfffff 9a666fef 579a669b     .........of..f.W
 8017ae0:	e69b95a6 e5a69b9a 6ffafaaf fa6feefe     ...........o..o.
 8017af0:	e5e66f99 6ff9996f efbff99a fffffffe     .o..o..o........
 8017b00:	ffffffff 0000ffff                       ........

08017b08 <_ZN12_GLOBAL__N_119font_MWOSD_109_type6m_dataE>:
 8017b08:	ffffffff ffffffff fffeffff bffff9bf     ................
 8017b18:	a56febe5 95655b96 56e5555b 9556fa55     ..o..[e.[U.VU.V.
 8017b28:	ff955bff fffe55af affffe5a ffffffff     .[...U..Z.......
 8017b38:	ffffffff 0000ffff                       ........

08017b40 <_ZN12_GLOBAL__N_124font_OSD_Charset_60_type6m_dataE>:
 8017b40:	ffffffff ffffffff ffffffff ffffffff     ................
 8017b50:	bfffffff f96ffffe fffe5bff e5bfff96     ......o..[......
 8017b60:	fff96fff bffff96f 96ffffe5 fe5bffff     .o..o.........[.
 8017b70:	fff96fff 0000febf                       .o......

08017b78 <_ZN12_GLOBAL__N_124font_OSD_Charset_56_type6m_dataE>:
 8017b78:	ffffffff ffffffff ffffffff ffffffff     ................
 8017b88:	aabfffff f9556ffe 5be5555b aa5be5aa     .....oU.[U.[..[.
 8017b98:	f9556fe5 5bf9556f aa5be5aa e5555be5     .oU.oU.[..[..[U.
 8017ba8:	bff9556f 0000feaa                       oU......

08017bb0 <_ZN12_GLOBAL__N_119font_MWOSD_106_type6m_dataE>:
 8017bb0:	ffffffff ffffffff ffffffff 5bfaaaaf     ...............[
 8017bc0:	555be555 fe555bf9 5bff955b 595bfe55     U.[U.[U.[..[U.[Y
 8017bd0:	e56e5bf9 ef95bf9b ffffe6ff fffffffb     .[n.............
 8017be0:	ffffffff 0000ffff                       ........

08017be8 <_ZTVN12_GLOBAL__N_124font_OSD_Charset_72_typeE>:
	...
 8017bf0:	0800fd91 0800fd85 08011309 080120c1     ............. ..

08017c00 <_ZTVN12_GLOBAL__N_118font_MWOSD_90_typeE>:
	...
 8017c08:	08010859 0801084d 08010db1 080117d9     Y...M...........

08017c18 <_ZN12_GLOBAL__N_124font_OSD_Charset_53_type6m_dataE>:
 8017c18:	ffffffff ffffffff ffffffff ffffffff     ................
 8017c28:	aaafffff e5555bfa 5be5555b 555bfaaa     .....[U.[U.[..[U
 8017c38:	e5555bf9 afe5aaaf aa5be5bf e5555be5     .[U.......[..[U.
 8017c48:	bff9556b 0000feaa                       kU......

08017c50 <_ZN12_GLOBAL__N_118font_MWOSD_48_type6m_dataE>:
 8017c50:	ffffffff ffffffff ffffffff bfffaaff     ................
 8017c60:	69bffe55 fe69bffe bffe69bf 69bffe69     U..i..i..i..i..i
 8017c70:	fe69bffe fffe55bf ffffffaa ffffffff     ..i..U..........
 8017c80:	ffffffff 0000ffff                       ........

08017c88 <_ZTVN12_GLOBAL__N_118font_MWOSD_62_typeE>:
	...
 8017c90:	080105b9 080105ad 08010f01 08011a09     ................

08017ca0 <_ZN12_GLOBAL__N_124font_OSD_Charset_50_type6m_dataE>:
 8017ca0:	ffffffff ffffffff ffffffff ffffffff     ................
 8017cb0:	aabfffff f9556ffe 5be5555b 6e5be5aa     .....oU.[U.[..[n
 8017cc0:	f95bafe5 bffe56ff a56fff95 e5555bfa     ..[..V....o..[U.
 8017cd0:	afe5555b 0000faaa                       [U......

08017cd8 <_ZN12_GLOBAL__N_124font_OSD_Charset_46_type6m_dataE>:
 8017cd8:	ffffffff ffffffff ffffffff ffffffff     ................
 8017ce8:	ffffffff ffffffff ffffffff ffffffff     ................
 8017cf8:	ffffffff ffffffff ebffffff ff96ffff     ................
 8017d08:	ffff96ff 0000ffeb                       ........

08017d10 <_ZTVN12_GLOBAL__N_124font_OSD_Charset_68_typeE>:
	...
 8017d18:	0800fd31 0800fd25 08011339 08012111     1...%...9....!..

08017d28 <_ZTVN12_GLOBAL__N_118font_MWOSD_86_typeE>:
	...
 8017d30:	080107f9 080107ed 08010de1 08011829     ............)...

08017d40 <_ZTVN12_GLOBAL__N_118font_MWOSD_58_typeE>:
	...
 8017d48:	08010559 0801054d 08010f31 08011a59     Y...M...1...Y...

08017d58 <_ZN12_GLOBAL__N_124font_OSD_Charset_43_type6m_dataE>:
 8017d58:	ffffffff ffffffff ffffffff ffffffff     ................
 8017d68:	ffffffff ffffffff ffffffff 96ffffeb     ................
 8017d78:	fe96bfff 6ff9556f 96bff955 ff96fffe     ....oU.oU.......
 8017d88:	ffffebff 0000ffff                       ........

08017d90 <_ZN12_GLOBAL__N_118font_MWOSD_38_type6m_dataE>:
 8017d90:	ffffffff ffffffff ffffffff ffffffff     ................
 8017da0:	ffffffff ffffffff ffffffff ffffffff     ................
 8017db0:	ffffffff ffffffff ffffffff ffffffff     ................
 8017dc0:	ffffffff 0000ffff                       ........

08017dc8 <_ZN12_GLOBAL__N_118font_MWOSD_82_type6m_dataE>:
 8017dc8:	ffffffff ffffffff ffffffff bfffeaff     ................
 8017dd8:	69bfff95 fe69bffe bffe69bf 59bfff95     ...i..i..i.....Y
 8017de8:	fe69bfff fffe69bf ffffffbe ffffffff     ..i..i..........
 8017df8:	ffffffff 0000ffff                       ........

08017e00 <_ZTVN12_GLOBAL__N_124font_OSD_Charset_87_typeE>:
	...
 8017e08:	0800fef9 0800feed 08011255 08011f95     ........U.......

08017e18 <_ZN12_GLOBAL__N_124font_OSD_Charset_36_type6m_dataE>:
 8017e18:	ffffffff 96ffffeb fe96bfff 5bf9556f     ............oU.[
 8017e28:	965be555 fa965be5 6ffe555b 96aff955     U.[..[..[U.oU...
 8017e38:	e5965be5 6fe5555b 96bff955 ff96fffe     .[..[U.oU.......
 8017e48:	ffffebff 0000ffff                       ........

08017e50 <_ZN12_GLOBAL__N_119font_MWOSD_115_type6m_dataE>:
 8017e50:	ffffffff ffffffff ffffffff ffffffff     ................
 8017e60:	eaffffff ff957fff ffff9fff dfffff9f     ................
 8017e70:	ffffffff ffffffff ffffffff ffffffff     ................
 8017e80:	ffffffff 0000ffff                       ........

08017e88 <_ZN12_GLOBAL__N_118font_MWOSD_61_type6m_dataE>:
 8017e88:	ffffffff ffffffff ffffffff 6ffeaabf     ...............o
 8017e98:	556ff955 feaabff9 ffffffff aabfffff     U.oU............
 8017ea8:	f9556ffe bff9556f fffffeaa ffffffff     .oU.oU..........
 8017eb8:	ffffffff 0000ffff                       ........

08017ec0 <_ZTVN12_GLOBAL__N_124font_OSD_Charset_98_typeE>:
	...
 8017ec8:	08010001 0800fff5 080111d1 08011eb9     ................

08017ed8 <_ZN12_GLOBAL__N_119font_MWOSD_108_type6m_dataE>:
 8017ed8:	ffffffff ffffffff fffbffff bfffe6ff     ................
 8017ee8:	e56fffe5 eaa55bff 56955556 a55b9555     ..o..[..VU.VU.[.
 8017ef8:	ffe56fea ffffe5bf fbffffe6 ffffffff     .o..............
 8017f08:	ffffffff 0000ffff                       ........

08017f10 <_ZTVN12_GLOBAL__N_125font_OSD_Charset_125_typeE>:
	...
 8017f18:	08010289 0801027d 0801108d 08011c9d     ....}...........

08017f28 <_ZN12_GLOBAL__N_118font_MWOSD_54_type6m_dataE>:
 8017f28:	ffffffff ffffffff ffffffff bfffaaff     ................
 8017f38:	69bffe55 fea9bffe bffe55bf 69bffe69     U..i.....U..i..i
 8017f48:	fe69bffe fffe55bf ffffffaa ffffffff     ..i..U..........
 8017f58:	ffffffff 0000ffff                       ........

08017f60 <_ZTVN12_GLOBAL__N_119font_MWOSD_100_typeE>:
	...
 8017f68:	08010949 0801093d 08010d39 08011711     I...=...9.......

08017f78 <_ZN12_GLOBAL__N_119font_MWOSD_105_type6m_dataE>:
 8017f78:	ffffffff ffffffff fffaffff 6fffa5bf     ...............o
 8017f88:	556ffe55 95555be9 56e5555b 5696fa95     U.oU.[U.[U.V...V
 8017f98:	fe5bebfe fff95bff bffff96f fffffffe     ..[..[..o.......
 8017fa8:	ffffffff 0000ffff                       ........

08017fb0 <_ZN12_GLOBAL__N_118font_MWOSD_51_type6m_dataE>:
 8017fb0:	ffffffff ffffffff ffffffff bfffaaff     ................
 8017fc0:	69bffe55 fe6afffe fffe5fff 6afffe6f     U..i..j.._..o..j
 8017fd0:	fe69bffe fffe55bf ffffffaa ffffffff     ..i..U..........
 8017fe0:	ffffffff 0000ffff                       ........

08017fe8 <_ZN12_GLOBAL__N_118font_MWOSD_47_type6m_dataE>:
 8017fe8:	ffffffff ffffffff ffffffff fffaffff     ................
 8017ff8:	6fffe5bf f95bffe5 bffe56ff e56fff95     ...o..[..V....o.
 8018008:	fff95bff affffe5b ffffffff ffffffff     .[..[...........
 8018018:	ffffffff 0000ffff                       ........

08018020 <_ZTVN12_GLOBAL__N_119font_MWOSD_124_typeE>:
	...
 8018028:	08010b89 08010b7d 08010c19 08011531     ....}.......1...

08018038 <_ZN12_GLOBAL__N_124font_OSD_Charset_45_type6m_dataE>:
 8018038:	ffffffff ffffffff ffffffff ffffffff     ................
 8018048:	ffffffff ffffffff ffffffff ffffffff     ................
 8018058:	feaabfff 6ff9556f aabff955 fffffffe     ....oU.oU.......
 8018068:	ffffffff 0000ffff                       ........

08018070 <_ZN12_GLOBAL__N_124font_OSD_Charset_81_type6m_dataE>:
 8018070:	ffffffff aaffffff fe55bfff 5bf9556f     ..........U.oU.[
 8018080:	be5be569 e5be5be5 5be5be5b be5be5be     i.[..[..[..[..[.
 8018090:	e5aa5be5 5be5965b 595be556 e5556ff9     .[..[..[V.[Y.oU.
 80180a0:	ffe595bf 0000faea                       ........

080180a8 <_ZN12_GLOBAL__N_118font_MWOSD_41_type6m_dataE>:
 80180a8:	ffffffff ffafffff fffe5bff bffff96f     .........[..o...
 80180b8:	96ffffe5 ff96ffff ffff96ff 96ffff96     ................
 80180c8:	ff96ffff bfff96ff f96fffe5 fffe5bff     ..........o..[..
 80180d8:	ffffffaf 0000ffff                       ........

080180e0 <_ZN12_GLOBAL__N_124font_OSD_Charset_38_type6m_dataE>:
 80180e0:	ffffffff ffffffff ffeaffff 6fff95bf     ...............o
 80180f0:	6e6ffe69 fe6e6ffe bfff9a6f e5bfffe5     i.on.on.o.......
 8018100:	fa9a6fff 9be66f9b 6a9bf9bf 9b956fe6     .o...o.....j.o..
 8018110:	ffefeabf 0000ffff                       ........

08018118 <_ZN12_GLOBAL__N_119font_MWOSD_121_type6m_dataE>:
 8018118:	ffffffff ffffffff ffffffff ffffffff     ................
 8018128:	eaffffff ff55bfff bffffdbf fdfffffd     ......U.........
 8018138:	ffffffff ffffffff ffffffff ffffffff     ................
 8018148:	ffffffff 0000ffff                       ........

08018150 <_ZN12_GLOBAL__N_124font_OSD_Charset_35_type6m_dataE>:
 8018150:	ffffffff bebfffff f9696ffe 6bf9696f     .........oi.oi.k
 8018160:	5556e969 95555695 6be9696b 5556e969     i.VU.VU.ki.ki.VU
 8018170:	95555695 6fe9696b 696ff969 febebff9     .VU.ki.oi.oi....
 8018180:	ffffffff 0000ffff                       ........

08018188 <_ZN12_GLOBAL__N_119font_MWOSD_114_type6m_dataE>:
 8018188:	ffffffff ffffffff ffffffff ffffffff     ................
 8018198:	ffffffff ffe6ffff 6fff9dbf fffffe7f     ...........o....
 80181a8:	ffffffff ffffffff ffffffff ffffffff     ................
 80181b8:	ffffffff 0000ffff                       ........

080181c0 <_ZTVN12_GLOBAL__N_118font_MWOSD_34_typeE>:
	...
 80181c8:	08010319 0801030d 08011051 08011c39     ........Q...9...

080181d8 <_ZTVN12_GLOBAL__N_124font_OSD_Charset_33_typeE>:
	...
 80181e0:	0800f9e9 0800f9dd 080114dd 080123cd     .............#..

080181f0 <_ZN12_GLOBAL__N_119font_MWOSD_111_type6m_dataE>:
 80181f0:	ffffffff ffffffff febfffff fff96fff     .............o..
 8018200:	5bebf95b fe5696fe 5bfa9556 555be555     [..[..V.V..[U.[U
 8018210:	e9556f95 bffe556f faffffa5 ffffffff     .oU.oU..........
 8018220:	ffffffff 0000ffff                       ........

08018228 <_ZTVN12_GLOBAL__N_124font_OSD_Charset_85_typeE>:
	...
 8018230:	0800fec9 0800febd 0801126d 08011fbd     ........m.......

08018240 <_ZTVN12_GLOBAL__N_125font_OSD_Charset_112_typeE>:
	...
 8018248:	08010151 08010145 08011129 08011da1     Q...E...).......

08018258 <_ZTVN12_GLOBAL__N_118font_MWOSD_75_typeE>:
	...
 8018260:	080106f1 080106e5 08010e65 08011905     ........e.......

08018270 <_ZN12_GLOBAL__N_119font_MWOSD_104_type6m_dataE>:
 8018270:	ffffffff ffffffff ffebffff bfff96ff     ................
 8018280:	556ffe55 e5555bf9 ab955556 96ffea96     U.oU.[U.VU......
 8018290:	ff96ffff ffff96ff ebffff96 ffffffff     ................
 80182a0:	ffffffff 0000ffff                       ........

080182a8 <_ZTVN12_GLOBAL__N_118font_MWOSD_47_typeE>:
	...
 80182b0:	08010451 08010445 08010fb5 08011b35     Q...E.......5...

080182c0 <_ZN12_GLOBAL__N_124font_OSD_Charset_51_type6m_dataE>:
 80182c0:	ffffffff ffffffff ffffffff ffffffff     ................
 80182d0:	aaafffff f9555bfe afe5555b aaffe5aa     .....[U.[U......
 80182e0:	f955bfe5 fff955bf aaafe5aa e5555be5     ..U..U.......[U.
 80182f0:	aff9555b 0000feaa                       [U......

080182f8 <_ZTVN12_GLOBAL__N_118font_MWOSD_99_typeE>:
	...
 8018300:	08010931 08010925 08010d45 08011725     1...%...E...%...

08018310 <_ZN12_GLOBAL__N_119font_MWOSD_101_type6m_dataE>:
 8018310:	ffffffff ffffffff fffaffff bfffa5bf     ................
 8018320:	56fffa55 9556ffe5 5b9555af 5956e555     U..V..V..U.[U.VY
 8018330:	f95a96e5 fffe5beb bffffe6f ffffffff     ..Z..[..o.......
 8018340:	ffffffff 0000ffff                       ........

08018348 <_ZN12_GLOBAL__N_124font_OSD_Charset_44_type6m_dataE>:
 8018348:	ffffffff ffffffff ffffffff ffffffff     ................
 8018358:	ffffffff ffffffff ffffffff ffffffff     ................
 8018368:	ffffffff ffffebff 96ffff96 ffe5bfff     ................
 8018378:	bffff96f 0000fffe                       o.......

08018380 <_ZN12_GLOBAL__N_118font_MWOSD_39_type6m_dataE>:
 8018380:	ffffffff 9bffffef fe56ffff fffe5bff     ..........V..[..
 8018390:	6ffffe6f fe9bfffe ffffafff ffffffff     o..o............
 80183a0:	ffffffff ffffffff ffffffff ffffffff     ................
 80183b0:	ffffffff 0000ffff                       ........

080183b8 <_ZN12_GLOBAL__N_118font_MWOSD_46_type6m_dataE>:
 80183b8:	ffffffff ffffffff ffffffff ffffffff     ................
 80183c8:	ffffffff ffffffff ffffffff ffffffff     ................
 80183d8:	ffebffff ffff96ff ebffff96 ffffffff     ................
 80183e8:	ffffffff 0000ffff                       ........

080183f0 <_ZN12_GLOBAL__N_124font_OSD_Charset_41_type6m_dataE>:
 80183f0:	ffffffff ffffffff fffebfff bffff96f     ............o...
 8018400:	96ffffe5 fe5bffff fffe5bff 5bfffe5b     ......[..[..[..[
 8018410:	fe5bfffe fffe5bff 96fffe5b ffe5bfff     ..[..[..[.......
 8018420:	bffff96f 0000fffe                       o.......

08018428 <_ZN12_GLOBAL__N_124font_OSD_Charset_37_type6m_dataE>:
 8018428:	ffffffff ffffffff ffffffff ffffffff     ................
 8018438:	ffffffff faffafff 5be5be5b 5bafe56e     ........[..[n..[
 8018448:	fe56fff9 6fff95bf b95bfae5 e5be5be5     ..V....o..[..[..
 8018458:	fffaffaf 0000ffff                       ........

08018460 <_ZTVN12_GLOBAL__N_125font_OSD_Charset_114_typeE>:
	...
 8018468:	08010181 08010175 08011111 08011d79     ....u.......y...

08018478 <_ZN12_GLOBAL__N_124font_OSD_Charset_34_type6m_dataE>:
 8018478:	bfffffff be6ffeff e5695bf9 bfe5b96f     ......o..[i.o...
 8018488:	f9bfe6f9 f9be6fe6 fffeffbf ffffffff     .....o..........
 8018498:	ffffffff ffffffff ffffffff ffffffff     ................
 80184a8:	ffffffff 0000ffff                       ........

080184b0 <_ZTVN12_GLOBAL__N_119font_MWOSD_113_typeE>:
	...
 80184b8:	08010a81 08010a75 08010c9d 0801160d     ....u...........

080184c8 <_ZN12_GLOBAL__N_119font_MWOSD_110_type6m_dataE>:
 80184c8:	ffffffff ffffffff fbffffff 9be6ffef     ................
 80184d8:	6e5b95bf f9595be5 5bfe555b 555bff95     ..[n.[Y.[U.[..[U
 80184e8:	f9555bfe afe5555b fffffaaa ffffffff     .[U.[U..........
 80184f8:	ffffffff 0000ffff                       ........

08018500 <_ZN12_GLOBAL__N_124font_OSD_Charset_97_type6m_dataE>:
 8018500:	ffffffff ffffffff ffffffff ffffffff     ................
 8018510:	aaffffff fe55bfff 5bf9556f aa5be569     ......U.oU.[i.[.
 8018520:	e5aa5be5 5be5555b aa5be555 e5be5be5     .[..[U.[U.[..[..
 8018530:	afe5be5b 0000faff                       [.......

08018538 <_ZN12_GLOBAL__N_119font_MWOSD_103_type6m_dataE>:
 8018538:	ffffffff ffffffff ffafffff bffe5aff     .............Z..
 8018548:	556bf955 e55556f9 afe5555b 95bf9556     U.kU.VU.[U..V...
 8018558:	ebe5bf96 6fffe56f febffff9 ffffffff     ....o..o........
 8018568:	ffffffff 0000ffff                       ........

08018570 <_ZTVN12_GLOBAL__N_119font_MWOSD_109_typeE>:
	...
 8018578:	08010a21 08010a15 08010ccd 0801165d     !...........]...

08018588 <_ZN12_GLOBAL__N_119font_MWOSD_100_type6m_dataE>:
 8018588:	ffffffff ffffffff ffefffff ffff9bff     ................
 8018598:	5bfffe5b e55aabf9 56955556 5aab9555     [..[..Z.VU.VU..Z
 80185a8:	f95bffe5 fffe5bff efffff9b ffffffff     ..[..[..........
 80185b8:	ffffffff 0000ffff                       ........

080185c0 <_ZN12_GLOBAL__N_118font_MWOSD_58_type6m_dataE>:
 80185c0:	ffffffff ffffffff ffffffff ffffebff     ................
 80185d0:	96ffff96 ffebffff ffffffff ebffffff     ................
 80185e0:	ff96ffff ffff96ff ffffffeb ffffffff     ................
 80185f0:	ffffffff 0000ffff                       ........

080185f8 <_ZN12_GLOBAL__N_118font_MWOSD_42_type6m_dataE>:
 80185f8:	ffffffff ffffffff ffffffff 5fffffff     ..............._
 8018608:	696ff5be fa55aff9 aff5555f 696ffa55     ..oi..U._U..U.oi
 8018618:	f5be5ff9 ffffffff ffffffff ffffffff     ._..............
 8018628:	ffffffff 0000ffff                       ........

08018630 <_ZTVN12_GLOBAL__N_124font_OSD_Charset_50_typeE>:
	...
 8018638:	0800fb81 0800fb75 08011411 08012279     ....u.......y"..

08018648 <_ZN12_GLOBAL__N_124font_OSD_Charset_40_type6m_dataE>:
 8018648:	ffffffff ffffffff faffffff ffe5bfff     ................
 8018658:	5bfff96f ff96fffe ffff96ff 96ffff96     o..[............
 8018668:	ff96ffff ffff96ff 5bffff96 f96ffffe     ...........[..o.
 8018678:	ffe5bfff 0000faff                       ........

08018680 <_ZN12_GLOBAL__N_118font_MWOSD_35_type6m_dataE>:
 8018680:	ffffffff ffffffff ffffffff ffffffff     ................
 8018690:	ffaaffff 95ae95ea 95e9999a e5a995a5     ................
 80186a0:	9599959a ffeaeeea ffffffff ffffffff     ................
 80186b0:	ffffffff 0000ffff                       ........

080186b8 <_ZTVN12_GLOBAL__N_124font_OSD_Charset_74_typeE>:
	...
 80186c0:	0800fdc1 0800fdb5 080112f1 08012099     ............. ..

080186d0 <_ZTVN12_GLOBAL__N_118font_MWOSD_92_typeE>:
	...
 80186d8:	08010889 0801087d 08010d99 080117b1     ....}...........

080186e8 <_ZTVN12_GLOBAL__N_125font_OSD_Charset_101_typeE>:
	...
 80186f0:	08010049 0801003d 080111ad 08011e7d     I...=.......}...

08018700 <_ZTVN12_GLOBAL__N_118font_MWOSD_64_typeE>:
	...
 8018708:	080105e9 080105dd 08010ee9 080119e1     ................

08018718 <_ZN12_GLOBAL__N_124font_OSD_Charset_33_type6m_dataE>:
 8018718:	ffffffff 96ffffeb ff96ffff ffff96ff     ................
 8018728:	96ffff96 ff96ffff ffff96ff 96ffff96     ................
 8018738:	ff96ffff ffffebff 96ffffeb ff96ffff     ................
 8018748:	ffffebff 0000ffff                       ........

08018750 <_ZTVN12_GLOBAL__N_124font_OSD_Charset_46_typeE>:
	...
 8018758:	0800fb21 0800fb15 08011441 080122c9     !.......A...."..

08018768 <_ZN12_GLOBAL__N_118font_MWOSD_52_type6m_dataE>:
 8018768:	ffffffff ffffffff ffffffff ffffebff     ................
 8018778:	95bfff96 ff99bfff 6fff9a6f 556fff9a     ........o..o..oU
 8018788:	ff9abffe ffff9bff ffffffef ffffffff     ................
 8018798:	ffffffff 0000ffff                       ........

080187a0 <_ZTVN12_GLOBAL__N_118font_MWOSD_88_typeE>:
	...
 80187a8:	08010829 0801081d 08010dc9 08011801     )...............

080187b8 <_ZN12_GLOBAL__N_118font_MWOSD_95_type6m_dataE>:
 80187b8:	ffffffff ffffffff ffffffff ffffffff     ................
 80187c8:	ffffffff ffffffff ffffffff ffffffff     ................
 80187d8:	ffffffff 5bfaaaaf aaafe555 fffffffa     .......[U.......
 80187e8:	ffffffff 0000ffff                       ........

080187f0 <_ZN12_GLOBAL__N_119font_MWOSD_102_type6m_dataE>:
 80187f0:	ffffffff ffffffff ffffffff 5bfaaaaf     ...............[
 8018800:	556fe555 e555bfe5 bfe556ff 656fe555     U.oU..U..V..U.oe
 8018810:	e5b95be5 9be6fe56 ffeffbff ffffffff     .[..V...........
 8018820:	ffffffff 0000ffff                       ........

08018828 <_ZTVN12_GLOBAL__N_119font_MWOSD_103_typeE>:
	...
 8018830:	08010991 08010985 08010d15 080116d5     ................

08018840 <_ZN12_GLOBAL__N_119font_MWOSD_124_type6m_dataE>:
 8018840:	ffffffff ebffffff ff96ffff ffff96ff     ................
 8018850:	96ffff96 ff96ffff ffff96ff 96ffff96     ................
 8018860:	ff96ffff ffff96ff 96ffff96 ffebffff     ................
 8018870:	ffffffff 0000ffff                       ........

08018878 <_ZN12_GLOBAL__N_124font_OSD_Charset_49_type6m_dataE>:
 8018878:	ffffffff ffffffff ffffffff ffffffff     ................
 8018888:	ebffffff ff96ffff 6fff95bf 956fff95     ...........o..o.
 8018898:	ff96bfff ffff96ff 96bfff96 f9556ffe     .............oU.
 80188a8:	bff9556f 0000feaa                       oU......

080188b0 <_ZN12_GLOBAL__N_125font_OSD_Charset_124_type6m_dataE>:
 80188b0:	ffffffff ebffffff ff96ffff ffff96ff     ................
 80188c0:	96ffff96 ff96ffff ffff96ff 96ffff96     ................
 80188d0:	ff96ffff ffff96ff 96ffff96 ffebffff     ................
 80188e0:	ffffffff 0000ffff                       ........

080188e8 <_ZTVN12_GLOBAL__N_119font_MWOSD_102_typeE>:
	...
 80188f0:	08010979 0801096d 08010d21 080116e9     y...m...!.......

08018900 <_ZN12_GLOBAL__N_124font_OSD_Charset_32_type6m_dataE>:
 8018900:	ffffffff ffffffff ffffffff ffffffff     ................
 8018910:	ffffffff ffffffff ffffffff ffffffff     ................
 8018920:	ffffffff ffffffff ffffffff ffffffff     ................
 8018930:	ffffffff 0000ffff                       ........

08018938 <_ZN12_GLOBAL__N_118font_MWOSD_34_type6m_dataE>:
 8018938:	ffffffff ffffffff ffffffff ffffffff     ................
 8018948:	eaeaffff 959595ea 959999a9 999a9999     ................
 8018958:	95959599 ffeaeaea ffffffff ffffffff     ................
 8018968:	ffffffff 0000ffff                       ........

08018970 <_ZN12_GLOBAL__N_118font_MWOSD_77_type6m_dataE>:
 8018970:	ffffffff ffffffff ffffffff 6ffeffbf     ...............o
 8018980:	696ff9be f9556ff9 6ff9966f be6ff9aa     ..oi.oU.o..o..o.
 8018990:	f9be6ff9 bff9be6f fffffeff ffffffff     .o..o...........
 80189a0:	ffffffff 0000ffff                       ........

080189a8 <_ZTVN12_GLOBAL__N_121font_OSD_Charset_typeE>:
	...
 80189b0:	080102ad 080102b1 080102b5 080102b9     ................
 80189c0:	080102bd 08011075 08011c75 00000000     ....u...u.......

080189d0 <_ZTVN12_GLOBAL__N_124font_OSD_Charset_91_typeE>:
	...
 80189d8:	0800ff59 0800ff4d 08011225 08011f45     Y...M...%...E...

080189e8 <_ZTVN12_GLOBAL__N_124font_OSD_Charset_63_typeE>:
	...
 80189f0:	0800fcb9 0800fcad 08011375 08012175     ........u...u!..

08018a00 <_ZTVN12_GLOBAL__N_118font_MWOSD_81_typeE>:
	...
 8018a08:	08010781 08010775 08010e1d 0801188d     ....u...........

08018a18 <_ZN12_GLOBAL__N_118font_MWOSD_36_type6m_dataE>:
 8018a18:	ffffffff ffffffff ffffffff ffffffff     ................
 8018a28:	fbeeffff 99a699ee 99999995 9999e695     ................
 8018a38:	99999999 ffeeeeee ffffffff ffffffff     ................
 8018a48:	ffffffff 0000ffff                       ........

08018a50 <_ZN12_GLOBAL__N_118font_MWOSD_79_type6m_dataE>:
 8018a50:	ffffffff ffffffff ffffffff ffffebff     ................
 8018a60:	69bfff96 fe69bffe bffe69bf 69bffe69     ...i..i..i..i..i
 8018a70:	fe69bffe ffff96ff ffffffeb ffffffff     ..i.............
 8018a80:	ffffffff 0000ffff                       ........

08018a88 <_ZN12_GLOBAL__N_118font_MWOSD_56_type6m_dataE>:
 8018a88:	ffffffff ffffffff ffffffff bfffaaff     ................
 8018a98:	69bffe55 fe69bffe bffe55bf 69bffe69     U..i..i..U..i..i
 8018aa8:	fe69bffe fffe55bf ffffffaa ffffffff     ..i..U..........
 8018ab8:	ffffffff 0000ffff                       ........

08018ac0 <_ZTVN12_GLOBAL__N_124font_OSD_Charset_59_typeE>:
	...
 8018ac8:	0800fc59 0800fc4d 080113a5 080121c5     Y...M........!..

08018ad8 <_ZTVN12_GLOBAL__N_118font_MWOSD_77_typeE>:
	...
 8018ae0:	08010721 08010715 08010e4d 080118dd     !.......M.......

08018af0 <_ZTVN12_GLOBAL__N_118font_MWOSD_49_typeE>:
	...
 8018af8:	08010481 08010475 08010f9d 08011b0d     ....u...........

08018b08 <_ZTVN12_GLOBAL__N_124font_OSD_Charset_61_typeE>:
	...
 8018b10:	0800fc89 0800fc7d 0801138d 0801219d     ....}........!..

08018b20 <_ZTVN12_GLOBAL__N_118font_MWOSD_42_typeE>:
	...
 8018b28:	080103d9 080103cd 08010ff1 08011b99     ................

08018b38 <_ZTVN12_GLOBAL__N_125font_OSD_Charset_108_typeE>:
	...
 8018b40:	080100f1 080100e5 08011159 08011df1     ........Y.......

08018b50 <_ZTVN12_GLOBAL__N_124font_OSD_Charset_89_typeE>:
	...
 8018b58:	0800ff29 0800ff1d 0801123d 08011f6d     ).......=...m...

08018b68 <_ZTVN12_GLOBAL__N_124font_OSD_Charset_38_typeE>:
	...
 8018b70:	0800fa61 0800fa55 080114a1 08012369     a...U.......i#..

08018b80 <_ZTVN12_GLOBAL__N_125font_OSD_Charset_116_typeE>:
	...
 8018b88:	080101b1 080101a5 080110f9 08011d51     ............Q...

08018b98 <_ZN12_GLOBAL__N_118font_MWOSD_40_type6m_dataE>:
 8018b98:	ffffffff ffffffff 96ffffeb ffe5bfff     ................
 8018ba8:	5bfff96f fe5bfffe fffe5bff 5bfffe5b     o..[..[..[..[..[
 8018bb8:	fe5bfffe fffe5bff bffff96f 96ffffe5     ..[..[..o.......
 8018bc8:	ffebffff 0000ffff                       ........

08018bd0 <_ZN12_GLOBAL__N_118font_MWOSD_83_type6m_dataE>:
 8018bd0:	ffffffff ffffffff ffffffff bfffaaff     ................
 8018be0:	69bffe55 ffa9bffe ffffa6ff 6afffe5b     U..i........[..j
 8018bf0:	fe69bffe fffe55bf ffffffaa ffffffff     ..i..U..........
 8018c00:	ffffffff 0000ffff                       ........

08018c08 <_ZTVN12_GLOBAL__N_119font_MWOSD_115_typeE>:
	...
 8018c10:	08010ab1 08010aa5 08010c85 080115e5     ................

08018c20 <_ZN12_GLOBAL__N_119font_MWOSD_112_type6m_dataE>:
 8018c20:	ffffffff bebfffff e5696ffa 9b9a669b     .........oi..f..
 8018c30:	796f9a66 efbebf9a 9bffffef be9beeff     f.oy............
 8018c40:	e5b99b99 9bf9a65b fbeff9a6 fffffffe     ....[...........
 8018c50:	ffffffff 0000ffff                       ........

08018c58 <_ZTVN12_GLOBAL__N_118font_MWOSD_36_typeE>:
	...
 8018c60:	08010349 0801033d 08011039 08011c11     I...=...9.......

08018c70 <_ZN12_GLOBAL__N_118font_MWOSD_76_type6m_dataE>:
 8018c70:	ffffffff ffffffff ffffffff bffffeff     ................
 8018c80:	f9bffff9 fff9bfff bffff9bf f9bffff9     ................
 8018c90:	ffa9bfff fffe55bf ffffffaa ffffffff     .....U..........
 8018ca0:	ffffffff 0000ffff                       ........

08018ca8 <_ZTVN12_GLOBAL__N_124font_OSD_Charset_80_typeE>:
	...
 8018cb0:	0800fe51 0800fe45 080112a9 08012021     Q...E.......! ..

08018cc0 <_ZTVN12_GLOBAL__N_124font_OSD_Charset_52_typeE>:
	...
 8018cc8:	0800fbb1 0800fba5 080113f9 08012251     ............Q"..

08018cd8 <_ZTVN12_GLOBAL__N_118font_MWOSD_45_typeE>:
	...
 8018ce0:	08010421 08010415 08010fcd 08011b5d     !...........]...

08018cf0 <_ZTVN12_GLOBAL__N_124font_OSD_Charset_76_typeE>:
	...
 8018cf8:	0800fdf1 0800fde5 080112d9 08012071     ............q ..

08018d08 <_ZTVN12_GLOBAL__N_118font_MWOSD_94_typeE>:
	...
 8018d10:	080108b9 080108ad 08010d81 08011789     ................

08018d20 <_ZTVN12_GLOBAL__N_118font_MWOSD_39_typeE>:
	...
 8018d28:	08010391 08010385 08011015 08011bd5     ................

08018d38 <_ZTVN12_GLOBAL__N_124font_OSD_Charset_48_typeE>:
	...
 8018d40:	0800fb51 0800fb45 08011429 080122a1     Q...E...)...."..

08018d50 <_ZTVN12_GLOBAL__N_118font_MWOSD_66_typeE>:
	...
 8018d58:	08010619 0801060d 08010ed1 080119b9     ................

08018d68 <_ZN12_GLOBAL__N_118font_MWOSD_65_type6m_dataE>:
 8018d68:	ffffffff ffffffff ffffffff ffffebff     ................
 8018d78:	55bfff96 fe69bffe bffe69bf 69bffe55     ...U..i..i..U..i
 8018d88:	fe69bffe fffe69bf ffffffaa ffffffff     ..i..i..........
 8018d98:	ffffffff 0000ffff                       ........

08018da0 <_ZTVN12_GLOBAL__N_118font_MWOSD_38_typeE>:
	...
 8018da8:	08010379 0801036d 08011021 08011be9     y...m...!.......
 8018db8:	00000043                                C...

08018dbc <_global_impure_ptr>:
 8018dbc:	10000028                                (...

08018dc0 <_init>:
 8018dc0:	b5f8      	push	{r3, r4, r5, r6, r7, lr}
 8018dc2:	bf00      	nop
 8018dc4:	bcf8      	pop	{r3, r4, r5, r6, r7}
 8018dc6:	bc08      	pop	{r3}
 8018dc8:	469e      	mov	lr, r3
 8018dca:	4770      	bx	lr

08018dcc <_fini>:
 8018dcc:	b5f8      	push	{r3, r4, r5, r6, r7, lr}
 8018dce:	bf00      	nop
 8018dd0:	bcf8      	pop	{r3, r4, r5, r6, r7}
 8018dd2:	bc08      	pop	{r3}
 8018dd4:	469e      	mov	lr, r3
 8018dd6:	4770      	bx	lr
